ARM GAS  C:\Users\SDEVAS~1\AppData\Local\Temp\ccJ1IlTF.s 			page 1


   1              		.cpu cortex-m0
   2              		.fpu softvfp
   3              		.eabi_attribute 20, 1
   4              		.eabi_attribute 21, 1
   5              		.eabi_attribute 23, 3
   6              		.eabi_attribute 24, 1
   7              		.eabi_attribute 25, 1
   8              		.eabi_attribute 26, 1
   9              		.eabi_attribute 30, 4
  10              		.eabi_attribute 34, 0
  11              		.eabi_attribute 18, 4
  12              		.code	16
  13              		.file	"comm_RS485_Timeout.c"
  14              		.text
  15              	.Ltext0:
  16              		.cfi_sections	.debug_frame
  17              		.section	.text.comm_RS485_Timeout_Init,"ax",%progbits
  18              		.align	1
  19              		.global	comm_RS485_Timeout_Init
  20              		.code	16
  21              		.thumb_func
  22              		.type	comm_RS485_Timeout_Init, %function
  23              	comm_RS485_Timeout_Init:
  24              	.LFB0:
  25              		.file 1 ".\\Generated_Source\\PSoC4\\comm_RS485_Timeout.c"
   1:.\Generated_Source\PSoC4/comm_RS485_Timeout.c **** /*******************************************************************************
   2:.\Generated_Source\PSoC4/comm_RS485_Timeout.c **** * File Name: comm_RS485_Timeout.c
   3:.\Generated_Source\PSoC4/comm_RS485_Timeout.c **** * Version 1.0
   4:.\Generated_Source\PSoC4/comm_RS485_Timeout.c **** *
   5:.\Generated_Source\PSoC4/comm_RS485_Timeout.c **** * Description:
   6:.\Generated_Source\PSoC4/comm_RS485_Timeout.c **** *  This file provides source code for the Count7 component's API.
   7:.\Generated_Source\PSoC4/comm_RS485_Timeout.c **** *
   8:.\Generated_Source\PSoC4/comm_RS485_Timeout.c **** * Note:
   9:.\Generated_Source\PSoC4/comm_RS485_Timeout.c **** *
  10:.\Generated_Source\PSoC4/comm_RS485_Timeout.c **** ********************************************************************************
  11:.\Generated_Source\PSoC4/comm_RS485_Timeout.c **** * Copyright 2013, Cypress Semiconductor Corporation.  All rights reserved.
  12:.\Generated_Source\PSoC4/comm_RS485_Timeout.c **** * You may use this file only in accordance with the license, terms, conditions,
  13:.\Generated_Source\PSoC4/comm_RS485_Timeout.c **** * disclaimers, and limitations in the end user license agreement accompanying
  14:.\Generated_Source\PSoC4/comm_RS485_Timeout.c **** * the software package with which this file was provided.
  15:.\Generated_Source\PSoC4/comm_RS485_Timeout.c **** *******************************************************************************/
  16:.\Generated_Source\PSoC4/comm_RS485_Timeout.c **** 
  17:.\Generated_Source\PSoC4/comm_RS485_Timeout.c **** #include "comm_RS485_Timeout.h"
  18:.\Generated_Source\PSoC4/comm_RS485_Timeout.c **** #include "CyLib.h"
  19:.\Generated_Source\PSoC4/comm_RS485_Timeout.c **** 
  20:.\Generated_Source\PSoC4/comm_RS485_Timeout.c **** 
  21:.\Generated_Source\PSoC4/comm_RS485_Timeout.c **** uint8 comm_RS485_Timeout_initVar = 0u;
  22:.\Generated_Source\PSoC4/comm_RS485_Timeout.c **** 
  23:.\Generated_Source\PSoC4/comm_RS485_Timeout.c **** 
  24:.\Generated_Source\PSoC4/comm_RS485_Timeout.c **** /*******************************************************************************
  25:.\Generated_Source\PSoC4/comm_RS485_Timeout.c **** * Function Name: comm_RS485_Timeout_Init
  26:.\Generated_Source\PSoC4/comm_RS485_Timeout.c **** ********************************************************************************
  27:.\Generated_Source\PSoC4/comm_RS485_Timeout.c **** *
  28:.\Generated_Source\PSoC4/comm_RS485_Timeout.c **** * Summary:
  29:.\Generated_Source\PSoC4/comm_RS485_Timeout.c **** *  Initializes or restores the component according to the parameter editor
  30:.\Generated_Source\PSoC4/comm_RS485_Timeout.c **** *  settings.
  31:.\Generated_Source\PSoC4/comm_RS485_Timeout.c **** *
  32:.\Generated_Source\PSoC4/comm_RS485_Timeout.c **** * Parameters:
ARM GAS  C:\Users\SDEVAS~1\AppData\Local\Temp\ccJ1IlTF.s 			page 2


  33:.\Generated_Source\PSoC4/comm_RS485_Timeout.c **** *  None
  34:.\Generated_Source\PSoC4/comm_RS485_Timeout.c **** *
  35:.\Generated_Source\PSoC4/comm_RS485_Timeout.c **** * Return:
  36:.\Generated_Source\PSoC4/comm_RS485_Timeout.c **** *  None
  37:.\Generated_Source\PSoC4/comm_RS485_Timeout.c **** *
  38:.\Generated_Source\PSoC4/comm_RS485_Timeout.c **** * Theory:
  39:.\Generated_Source\PSoC4/comm_RS485_Timeout.c **** *  It is not necessary to call Count7_Init() because the Count7_Start() API
  40:.\Generated_Source\PSoC4/comm_RS485_Timeout.c **** *  calls this function and is the preferred method to begin component
  41:.\Generated_Source\PSoC4/comm_RS485_Timeout.c **** *  operation.
  42:.\Generated_Source\PSoC4/comm_RS485_Timeout.c **** *
  43:.\Generated_Source\PSoC4/comm_RS485_Timeout.c **** *******************************************************************************/
  44:.\Generated_Source\PSoC4/comm_RS485_Timeout.c **** void comm_RS485_Timeout_Init(void) 
  45:.\Generated_Source\PSoC4/comm_RS485_Timeout.c **** {
  26              		.loc 1 45 0
  27              		.cfi_startproc
  46:.\Generated_Source\PSoC4/comm_RS485_Timeout.c ****     /* Set the initial period value from parameter editor */
  47:.\Generated_Source\PSoC4/comm_RS485_Timeout.c ****     comm_RS485_Timeout_PERIOD_REG = comm_RS485_Timeout_INITIAL_PERIOD;
  28              		.loc 1 47 0
  29 0000 014B     		ldr	r3, .L2
  30 0002 6422     		mov	r2, #100
  31 0004 1A70     		strb	r2, [r3]
  48:.\Generated_Source\PSoC4/comm_RS485_Timeout.c **** }
  32              		.loc 1 48 0
  33              		@ sp needed
  34 0006 7047     		bx	lr
  35              	.L3:
  36              		.align	2
  37              	.L2:
  38 0008 83000F40 		.word	1074724995
  39              		.cfi_endproc
  40              	.LFE0:
  41              		.size	comm_RS485_Timeout_Init, .-comm_RS485_Timeout_Init
  42              		.section	.text.comm_RS485_Timeout_Enable,"ax",%progbits
  43              		.align	1
  44              		.global	comm_RS485_Timeout_Enable
  45              		.code	16
  46              		.thumb_func
  47              		.type	comm_RS485_Timeout_Enable, %function
  48              	comm_RS485_Timeout_Enable:
  49              	.LFB1:
  49:.\Generated_Source\PSoC4/comm_RS485_Timeout.c **** 
  50:.\Generated_Source\PSoC4/comm_RS485_Timeout.c **** 
  51:.\Generated_Source\PSoC4/comm_RS485_Timeout.c **** /*******************************************************************************
  52:.\Generated_Source\PSoC4/comm_RS485_Timeout.c **** * Function Name: comm_RS485_Timeout_Enable
  53:.\Generated_Source\PSoC4/comm_RS485_Timeout.c **** ********************************************************************************
  54:.\Generated_Source\PSoC4/comm_RS485_Timeout.c **** *
  55:.\Generated_Source\PSoC4/comm_RS485_Timeout.c **** * Summary:
  56:.\Generated_Source\PSoC4/comm_RS485_Timeout.c **** *  Enables the software enable of the counter.
  57:.\Generated_Source\PSoC4/comm_RS485_Timeout.c **** *
  58:.\Generated_Source\PSoC4/comm_RS485_Timeout.c **** * Parameters:
  59:.\Generated_Source\PSoC4/comm_RS485_Timeout.c **** *  None
  60:.\Generated_Source\PSoC4/comm_RS485_Timeout.c **** *
  61:.\Generated_Source\PSoC4/comm_RS485_Timeout.c **** * Return:
  62:.\Generated_Source\PSoC4/comm_RS485_Timeout.c **** *  None
  63:.\Generated_Source\PSoC4/comm_RS485_Timeout.c **** *
  64:.\Generated_Source\PSoC4/comm_RS485_Timeout.c **** * Theory:
  65:.\Generated_Source\PSoC4/comm_RS485_Timeout.c **** *  It is not necessary to call Count7_Enable() because the Count7_Start() API
ARM GAS  C:\Users\SDEVAS~1\AppData\Local\Temp\ccJ1IlTF.s 			page 3


  66:.\Generated_Source\PSoC4/comm_RS485_Timeout.c **** *  calls this function, which is the preferred method to begin component
  67:.\Generated_Source\PSoC4/comm_RS485_Timeout.c **** *  operation.
  68:.\Generated_Source\PSoC4/comm_RS485_Timeout.c **** *  This API performs modification of auxiliary control register which is a
  69:.\Generated_Source\PSoC4/comm_RS485_Timeout.c **** *  shared resource so it is required to disable interrupts until the
  70:.\Generated_Source\PSoC4/comm_RS485_Timeout.c **** *  modification will complete.
  71:.\Generated_Source\PSoC4/comm_RS485_Timeout.c **** *
  72:.\Generated_Source\PSoC4/comm_RS485_Timeout.c **** *******************************************************************************/
  73:.\Generated_Source\PSoC4/comm_RS485_Timeout.c **** void comm_RS485_Timeout_Enable(void) 
  74:.\Generated_Source\PSoC4/comm_RS485_Timeout.c **** {
  50              		.loc 1 74 0
  51              		.cfi_startproc
  52 0000 08B5     		push	{r3, lr}
  53              		.cfi_def_cfa_offset 8
  54              		.cfi_offset 3, -8
  55              		.cfi_offset 14, -4
  75:.\Generated_Source\PSoC4/comm_RS485_Timeout.c ****     uint8 interruptState;
  76:.\Generated_Source\PSoC4/comm_RS485_Timeout.c **** 
  77:.\Generated_Source\PSoC4/comm_RS485_Timeout.c ****     interruptState = CyEnterCriticalSection();
  56              		.loc 1 77 0
  57 0002 FFF7FEFF 		bl	CyEnterCriticalSection
  58              	.LVL0:
  78:.\Generated_Source\PSoC4/comm_RS485_Timeout.c ****     /* Set the counter start bit in auxiliary control. If routed enable
  79:.\Generated_Source\PSoC4/comm_RS485_Timeout.c ****     * isn't used then this will immediately star the Count7 operation.
  80:.\Generated_Source\PSoC4/comm_RS485_Timeout.c ****     */
  81:.\Generated_Source\PSoC4/comm_RS485_Timeout.c ****     comm_RS485_Timeout_AUX_CONTROL_REG |= comm_RS485_Timeout_COUNTER_START;
  59              		.loc 1 81 0
  60 0006 044B     		ldr	r3, .L5
  61 0008 2021     		mov	r1, #32
  62 000a 1A78     		ldrb	r2, [r3]
  82:.\Generated_Source\PSoC4/comm_RS485_Timeout.c **** 
  83:.\Generated_Source\PSoC4/comm_RS485_Timeout.c ****     CyExitCriticalSection(interruptState);
  84:.\Generated_Source\PSoC4/comm_RS485_Timeout.c **** }
  63              		.loc 1 84 0
  64              		@ sp needed
  81:.\Generated_Source\PSoC4/comm_RS485_Timeout.c ****     comm_RS485_Timeout_AUX_CONTROL_REG |= comm_RS485_Timeout_COUNTER_START;
  65              		.loc 1 81 0
  66 000c 0A43     		orr	r2, r1
  67 000e 1A70     		strb	r2, [r3]
  83:.\Generated_Source\PSoC4/comm_RS485_Timeout.c ****     CyExitCriticalSection(interruptState);
  68              		.loc 1 83 0
  69 0010 FFF7FEFF 		bl	CyExitCriticalSection
  70              	.LVL1:
  71              		.loc 1 84 0
  72 0014 08BD     		pop	{r3, pc}
  73              	.L6:
  74 0016 C046     		.align	2
  75              	.L5:
  76 0018 93000F40 		.word	1074725011
  77              		.cfi_endproc
  78              	.LFE1:
  79              		.size	comm_RS485_Timeout_Enable, .-comm_RS485_Timeout_Enable
  80              		.section	.text.comm_RS485_Timeout_Start,"ax",%progbits
  81              		.align	1
  82              		.global	comm_RS485_Timeout_Start
  83              		.code	16
  84              		.thumb_func
  85              		.type	comm_RS485_Timeout_Start, %function
ARM GAS  C:\Users\SDEVAS~1\AppData\Local\Temp\ccJ1IlTF.s 			page 4


  86              	comm_RS485_Timeout_Start:
  87              	.LFB2:
  85:.\Generated_Source\PSoC4/comm_RS485_Timeout.c **** 
  86:.\Generated_Source\PSoC4/comm_RS485_Timeout.c **** 
  87:.\Generated_Source\PSoC4/comm_RS485_Timeout.c **** /*******************************************************************************
  88:.\Generated_Source\PSoC4/comm_RS485_Timeout.c **** * Function Name: comm_RS485_Timeout_Start
  89:.\Generated_Source\PSoC4/comm_RS485_Timeout.c **** ********************************************************************************
  90:.\Generated_Source\PSoC4/comm_RS485_Timeout.c **** *
  91:.\Generated_Source\PSoC4/comm_RS485_Timeout.c **** * Summary:
  92:.\Generated_Source\PSoC4/comm_RS485_Timeout.c **** *  Performs all of the required initialization for the component and enables
  93:.\Generated_Source\PSoC4/comm_RS485_Timeout.c **** *  the counter. The first time the routine is executed, the period is set as
  94:.\Generated_Source\PSoC4/comm_RS485_Timeout.c **** *  configured in the customizer. When called to restart the counter following a
  95:.\Generated_Source\PSoC4/comm_RS485_Timeout.c **** *  Count7_Stop() call, the current period value is retained.
  96:.\Generated_Source\PSoC4/comm_RS485_Timeout.c **** *
  97:.\Generated_Source\PSoC4/comm_RS485_Timeout.c **** * Parameters:
  98:.\Generated_Source\PSoC4/comm_RS485_Timeout.c **** *  None.
  99:.\Generated_Source\PSoC4/comm_RS485_Timeout.c **** *
 100:.\Generated_Source\PSoC4/comm_RS485_Timeout.c **** * Global Variables:
 101:.\Generated_Source\PSoC4/comm_RS485_Timeout.c **** *  comm_RS485_Timeout_initVar - global variable.
 102:.\Generated_Source\PSoC4/comm_RS485_Timeout.c **** *
 103:.\Generated_Source\PSoC4/comm_RS485_Timeout.c **** * Return:
 104:.\Generated_Source\PSoC4/comm_RS485_Timeout.c **** *  None.
 105:.\Generated_Source\PSoC4/comm_RS485_Timeout.c **** *
 106:.\Generated_Source\PSoC4/comm_RS485_Timeout.c **** *******************************************************************************/
 107:.\Generated_Source\PSoC4/comm_RS485_Timeout.c **** void comm_RS485_Timeout_Start(void) 
 108:.\Generated_Source\PSoC4/comm_RS485_Timeout.c **** {
  88              		.loc 1 108 0
  89              		.cfi_startproc
  90 0000 08B5     		push	{r3, lr}
  91              		.cfi_def_cfa_offset 8
  92              		.cfi_offset 3, -8
  93              		.cfi_offset 14, -4
 109:.\Generated_Source\PSoC4/comm_RS485_Timeout.c ****     /* If not initialized then perform initialization */
 110:.\Generated_Source\PSoC4/comm_RS485_Timeout.c ****     if(comm_RS485_Timeout_initVar == 0u)
  94              		.loc 1 110 0
  95 0002 064B     		ldr	r3, .L10
  96 0004 1A78     		ldrb	r2, [r3]
  97 0006 002A     		cmp	r2, #0
  98 0008 04D1     		bne	.L8
  99              	.LBB4:
 100              	.LBB5:
  47:.\Generated_Source\PSoC4/comm_RS485_Timeout.c ****     comm_RS485_Timeout_PERIOD_REG = comm_RS485_Timeout_INITIAL_PERIOD;
 101              		.loc 1 47 0
 102 000a 054A     		ldr	r2, .L10+4
 103 000c 6421     		mov	r1, #100
 104 000e 1170     		strb	r1, [r2]
 105              	.LBE5:
 106              	.LBE4:
 111:.\Generated_Source\PSoC4/comm_RS485_Timeout.c ****     {
 112:.\Generated_Source\PSoC4/comm_RS485_Timeout.c ****         comm_RS485_Timeout_Init();
 113:.\Generated_Source\PSoC4/comm_RS485_Timeout.c ****         comm_RS485_Timeout_initVar = 1u;
 107              		.loc 1 113 0
 108 0010 0122     		mov	r2, #1
 109 0012 1A70     		strb	r2, [r3]
 110              	.L8:
 114:.\Generated_Source\PSoC4/comm_RS485_Timeout.c ****     }
 115:.\Generated_Source\PSoC4/comm_RS485_Timeout.c **** 
ARM GAS  C:\Users\SDEVAS~1\AppData\Local\Temp\ccJ1IlTF.s 			page 5


 116:.\Generated_Source\PSoC4/comm_RS485_Timeout.c ****     /* Enable Count7 */
 117:.\Generated_Source\PSoC4/comm_RS485_Timeout.c ****     comm_RS485_Timeout_Enable();
 111              		.loc 1 117 0
 112 0014 FFF7FEFF 		bl	comm_RS485_Timeout_Enable
 113              	.LVL2:
 118:.\Generated_Source\PSoC4/comm_RS485_Timeout.c **** }
 114              		.loc 1 118 0
 115              		@ sp needed
 116 0018 08BD     		pop	{r3, pc}
 117              	.L11:
 118 001a C046     		.align	2
 119              	.L10:
 120 001c 00000000 		.word	.LANCHOR0
 121 0020 83000F40 		.word	1074724995
 122              		.cfi_endproc
 123              	.LFE2:
 124              		.size	comm_RS485_Timeout_Start, .-comm_RS485_Timeout_Start
 125              		.section	.text.comm_RS485_Timeout_Stop,"ax",%progbits
 126              		.align	1
 127              		.global	comm_RS485_Timeout_Stop
 128              		.code	16
 129              		.thumb_func
 130              		.type	comm_RS485_Timeout_Stop, %function
 131              	comm_RS485_Timeout_Stop:
 132              	.LFB3:
 119:.\Generated_Source\PSoC4/comm_RS485_Timeout.c **** 
 120:.\Generated_Source\PSoC4/comm_RS485_Timeout.c **** 
 121:.\Generated_Source\PSoC4/comm_RS485_Timeout.c **** /*******************************************************************************
 122:.\Generated_Source\PSoC4/comm_RS485_Timeout.c **** * Function Name: comm_RS485_Timeout_Stop
 123:.\Generated_Source\PSoC4/comm_RS485_Timeout.c **** ********************************************************************************
 124:.\Generated_Source\PSoC4/comm_RS485_Timeout.c **** *
 125:.\Generated_Source\PSoC4/comm_RS485_Timeout.c **** * Summary:
 126:.\Generated_Source\PSoC4/comm_RS485_Timeout.c **** *  Disables the software enable of the counter.
 127:.\Generated_Source\PSoC4/comm_RS485_Timeout.c **** *
 128:.\Generated_Source\PSoC4/comm_RS485_Timeout.c **** * Parameters:
 129:.\Generated_Source\PSoC4/comm_RS485_Timeout.c **** *  None
 130:.\Generated_Source\PSoC4/comm_RS485_Timeout.c **** *
 131:.\Generated_Source\PSoC4/comm_RS485_Timeout.c **** * Return:
 132:.\Generated_Source\PSoC4/comm_RS485_Timeout.c **** *  None
 133:.\Generated_Source\PSoC4/comm_RS485_Timeout.c **** *
 134:.\Generated_Source\PSoC4/comm_RS485_Timeout.c **** *******************************************************************************/
 135:.\Generated_Source\PSoC4/comm_RS485_Timeout.c **** void comm_RS485_Timeout_Stop(void) 
 136:.\Generated_Source\PSoC4/comm_RS485_Timeout.c **** {
 133              		.loc 1 136 0
 134              		.cfi_startproc
 135 0000 08B5     		push	{r3, lr}
 136              		.cfi_def_cfa_offset 8
 137              		.cfi_offset 3, -8
 138              		.cfi_offset 14, -4
 137:.\Generated_Source\PSoC4/comm_RS485_Timeout.c ****     uint8 interruptState;
 138:.\Generated_Source\PSoC4/comm_RS485_Timeout.c **** 
 139:.\Generated_Source\PSoC4/comm_RS485_Timeout.c ****     interruptState = CyEnterCriticalSection();
 139              		.loc 1 139 0
 140 0002 FFF7FEFF 		bl	CyEnterCriticalSection
 141              	.LVL3:
 140:.\Generated_Source\PSoC4/comm_RS485_Timeout.c ****     /* Clear the counter start bit in auxiliary control. */
 141:.\Generated_Source\PSoC4/comm_RS485_Timeout.c ****     comm_RS485_Timeout_AUX_CONTROL_REG &= (uint8) ~((uint8) comm_RS485_Timeout_COUNTER_START);
ARM GAS  C:\Users\SDEVAS~1\AppData\Local\Temp\ccJ1IlTF.s 			page 6


 142              		.loc 1 141 0
 143 0006 044B     		ldr	r3, .L13
 144 0008 2021     		mov	r1, #32
 145 000a 1A78     		ldrb	r2, [r3]
 142:.\Generated_Source\PSoC4/comm_RS485_Timeout.c **** 
 143:.\Generated_Source\PSoC4/comm_RS485_Timeout.c ****     CyExitCriticalSection(interruptState);
 144:.\Generated_Source\PSoC4/comm_RS485_Timeout.c **** }
 146              		.loc 1 144 0
 147              		@ sp needed
 141:.\Generated_Source\PSoC4/comm_RS485_Timeout.c ****     comm_RS485_Timeout_AUX_CONTROL_REG &= (uint8) ~((uint8) comm_RS485_Timeout_COUNTER_START);
 148              		.loc 1 141 0
 149 000c 8A43     		bic	r2, r1
 150 000e 1A70     		strb	r2, [r3]
 143:.\Generated_Source\PSoC4/comm_RS485_Timeout.c ****     CyExitCriticalSection(interruptState);
 151              		.loc 1 143 0
 152 0010 FFF7FEFF 		bl	CyExitCriticalSection
 153              	.LVL4:
 154              		.loc 1 144 0
 155 0014 08BD     		pop	{r3, pc}
 156              	.L14:
 157 0016 C046     		.align	2
 158              	.L13:
 159 0018 93000F40 		.word	1074725011
 160              		.cfi_endproc
 161              	.LFE3:
 162              		.size	comm_RS485_Timeout_Stop, .-comm_RS485_Timeout_Stop
 163              		.section	.text.comm_RS485_Timeout_WriteCounter,"ax",%progbits
 164              		.align	1
 165              		.global	comm_RS485_Timeout_WriteCounter
 166              		.code	16
 167              		.thumb_func
 168              		.type	comm_RS485_Timeout_WriteCounter, %function
 169              	comm_RS485_Timeout_WriteCounter:
 170              	.LFB4:
 145:.\Generated_Source\PSoC4/comm_RS485_Timeout.c **** 
 146:.\Generated_Source\PSoC4/comm_RS485_Timeout.c **** 
 147:.\Generated_Source\PSoC4/comm_RS485_Timeout.c **** /*******************************************************************************
 148:.\Generated_Source\PSoC4/comm_RS485_Timeout.c **** * Function Name: comm_RS485_Timeout_WriteCounter
 149:.\Generated_Source\PSoC4/comm_RS485_Timeout.c **** ********************************************************************************
 150:.\Generated_Source\PSoC4/comm_RS485_Timeout.c **** *
 151:.\Generated_Source\PSoC4/comm_RS485_Timeout.c **** * Summary:
 152:.\Generated_Source\PSoC4/comm_RS485_Timeout.c **** *  This function writes the counter directly. The counter should be disabled
 153:.\Generated_Source\PSoC4/comm_RS485_Timeout.c **** *  before calling this function.
 154:.\Generated_Source\PSoC4/comm_RS485_Timeout.c **** *
 155:.\Generated_Source\PSoC4/comm_RS485_Timeout.c **** * Parameters:
 156:.\Generated_Source\PSoC4/comm_RS485_Timeout.c **** *  count - Value to be written to counter.
 157:.\Generated_Source\PSoC4/comm_RS485_Timeout.c **** *
 158:.\Generated_Source\PSoC4/comm_RS485_Timeout.c **** * Return:
 159:.\Generated_Source\PSoC4/comm_RS485_Timeout.c **** *  None
 160:.\Generated_Source\PSoC4/comm_RS485_Timeout.c **** *
 161:.\Generated_Source\PSoC4/comm_RS485_Timeout.c **** *******************************************************************************/
 162:.\Generated_Source\PSoC4/comm_RS485_Timeout.c **** void comm_RS485_Timeout_WriteCounter(uint8 count) 
 163:.\Generated_Source\PSoC4/comm_RS485_Timeout.c **** {
 171              		.loc 1 163 0
 172              		.cfi_startproc
 173              	.LVL5:
 164:.\Generated_Source\PSoC4/comm_RS485_Timeout.c ****     comm_RS485_Timeout_COUNT_REG = (count & comm_RS485_Timeout_COUNT_7BIT_MASK);
ARM GAS  C:\Users\SDEVAS~1\AppData\Local\Temp\ccJ1IlTF.s 			page 7


 174              		.loc 1 164 0
 175 0000 7F23     		mov	r3, #127
 176 0002 1840     		and	r0, r3
 177              	.LVL6:
 178 0004 014B     		ldr	r3, .L16
 165:.\Generated_Source\PSoC4/comm_RS485_Timeout.c **** }
 179              		.loc 1 165 0
 180              		@ sp needed
 164:.\Generated_Source\PSoC4/comm_RS485_Timeout.c ****     comm_RS485_Timeout_COUNT_REG = (count & comm_RS485_Timeout_COUNT_7BIT_MASK);
 181              		.loc 1 164 0
 182 0006 1870     		strb	r0, [r3]
 183              		.loc 1 165 0
 184 0008 7047     		bx	lr
 185              	.L17:
 186 000a C046     		.align	2
 187              	.L16:
 188 000c 73000F40 		.word	1074724979
 189              		.cfi_endproc
 190              	.LFE4:
 191              		.size	comm_RS485_Timeout_WriteCounter, .-comm_RS485_Timeout_WriteCounter
 192              		.section	.text.comm_RS485_Timeout_ReadCounter,"ax",%progbits
 193              		.align	1
 194              		.global	comm_RS485_Timeout_ReadCounter
 195              		.code	16
 196              		.thumb_func
 197              		.type	comm_RS485_Timeout_ReadCounter, %function
 198              	comm_RS485_Timeout_ReadCounter:
 199              	.LFB5:
 166:.\Generated_Source\PSoC4/comm_RS485_Timeout.c **** 
 167:.\Generated_Source\PSoC4/comm_RS485_Timeout.c **** 
 168:.\Generated_Source\PSoC4/comm_RS485_Timeout.c **** /*******************************************************************************
 169:.\Generated_Source\PSoC4/comm_RS485_Timeout.c **** * Function Name: comm_RS485_Timeout_ReadCounter
 170:.\Generated_Source\PSoC4/comm_RS485_Timeout.c **** ********************************************************************************
 171:.\Generated_Source\PSoC4/comm_RS485_Timeout.c **** *
 172:.\Generated_Source\PSoC4/comm_RS485_Timeout.c **** * Summary:
 173:.\Generated_Source\PSoC4/comm_RS485_Timeout.c **** *  This function reads the counter value.
 174:.\Generated_Source\PSoC4/comm_RS485_Timeout.c **** *
 175:.\Generated_Source\PSoC4/comm_RS485_Timeout.c **** * Parameters:
 176:.\Generated_Source\PSoC4/comm_RS485_Timeout.c **** *  None
 177:.\Generated_Source\PSoC4/comm_RS485_Timeout.c **** *
 178:.\Generated_Source\PSoC4/comm_RS485_Timeout.c **** * Return:
 179:.\Generated_Source\PSoC4/comm_RS485_Timeout.c **** *  None
 180:.\Generated_Source\PSoC4/comm_RS485_Timeout.c **** *
 181:.\Generated_Source\PSoC4/comm_RS485_Timeout.c **** *******************************************************************************/
 182:.\Generated_Source\PSoC4/comm_RS485_Timeout.c **** uint8 comm_RS485_Timeout_ReadCounter(void) 
 183:.\Generated_Source\PSoC4/comm_RS485_Timeout.c **** {
 200              		.loc 1 183 0
 201              		.cfi_startproc
 184:.\Generated_Source\PSoC4/comm_RS485_Timeout.c ****     return(comm_RS485_Timeout_COUNT_REG & comm_RS485_Timeout_COUNT_7BIT_MASK);
 202              		.loc 1 184 0
 203 0000 024B     		ldr	r3, .L19
 185:.\Generated_Source\PSoC4/comm_RS485_Timeout.c **** }
 204              		.loc 1 185 0
 205              		@ sp needed
 184:.\Generated_Source\PSoC4/comm_RS485_Timeout.c ****     return(comm_RS485_Timeout_COUNT_REG & comm_RS485_Timeout_COUNT_7BIT_MASK);
 206              		.loc 1 184 0
 207 0002 1878     		ldrb	r0, [r3]
ARM GAS  C:\Users\SDEVAS~1\AppData\Local\Temp\ccJ1IlTF.s 			page 8


 208 0004 7F23     		mov	r3, #127
 209 0006 1840     		and	r0, r3
 210              		.loc 1 185 0
 211 0008 7047     		bx	lr
 212              	.L20:
 213 000a C046     		.align	2
 214              	.L19:
 215 000c 73000F40 		.word	1074724979
 216              		.cfi_endproc
 217              	.LFE5:
 218              		.size	comm_RS485_Timeout_ReadCounter, .-comm_RS485_Timeout_ReadCounter
 219              		.section	.text.comm_RS485_Timeout_WritePeriod,"ax",%progbits
 220              		.align	1
 221              		.global	comm_RS485_Timeout_WritePeriod
 222              		.code	16
 223              		.thumb_func
 224              		.type	comm_RS485_Timeout_WritePeriod, %function
 225              	comm_RS485_Timeout_WritePeriod:
 226              	.LFB6:
 186:.\Generated_Source\PSoC4/comm_RS485_Timeout.c **** 
 187:.\Generated_Source\PSoC4/comm_RS485_Timeout.c **** 
 188:.\Generated_Source\PSoC4/comm_RS485_Timeout.c **** /*******************************************************************************
 189:.\Generated_Source\PSoC4/comm_RS485_Timeout.c **** * Function Name: comm_RS485_Timeout_WritePeriod
 190:.\Generated_Source\PSoC4/comm_RS485_Timeout.c **** ********************************************************************************
 191:.\Generated_Source\PSoC4/comm_RS485_Timeout.c **** *
 192:.\Generated_Source\PSoC4/comm_RS485_Timeout.c **** * Summary:
 193:.\Generated_Source\PSoC4/comm_RS485_Timeout.c **** *  This function writes the period register. The actual period is one greater
 194:.\Generated_Source\PSoC4/comm_RS485_Timeout.c **** *  than the value in the period register since the counting sequence starts
 195:.\Generated_Source\PSoC4/comm_RS485_Timeout.c **** *  with the period register and counts down to 0 inclusive. The period of the
 196:.\Generated_Source\PSoC4/comm_RS485_Timeout.c **** *  counter output does not change until the counter is reloaded following the
 197:.\Generated_Source\PSoC4/comm_RS485_Timeout.c **** *  terminal count value of 0 or due to a hardware load signal.
 198:.\Generated_Source\PSoC4/comm_RS485_Timeout.c **** *
 199:.\Generated_Source\PSoC4/comm_RS485_Timeout.c **** * Parameters:
 200:.\Generated_Source\PSoC4/comm_RS485_Timeout.c **** *  period - Period value to be written.
 201:.\Generated_Source\PSoC4/comm_RS485_Timeout.c **** *
 202:.\Generated_Source\PSoC4/comm_RS485_Timeout.c **** * Return:
 203:.\Generated_Source\PSoC4/comm_RS485_Timeout.c **** *  None
 204:.\Generated_Source\PSoC4/comm_RS485_Timeout.c **** *
 205:.\Generated_Source\PSoC4/comm_RS485_Timeout.c **** *******************************************************************************/
 206:.\Generated_Source\PSoC4/comm_RS485_Timeout.c **** void comm_RS485_Timeout_WritePeriod(uint8 period) 
 207:.\Generated_Source\PSoC4/comm_RS485_Timeout.c **** {
 227              		.loc 1 207 0
 228              		.cfi_startproc
 229              	.LVL7:
 208:.\Generated_Source\PSoC4/comm_RS485_Timeout.c ****     comm_RS485_Timeout_PERIOD_REG = period;
 230              		.loc 1 208 0
 231 0000 014B     		ldr	r3, .L22
 209:.\Generated_Source\PSoC4/comm_RS485_Timeout.c **** }
 232              		.loc 1 209 0
 233              		@ sp needed
 208:.\Generated_Source\PSoC4/comm_RS485_Timeout.c ****     comm_RS485_Timeout_PERIOD_REG = period;
 234              		.loc 1 208 0
 235 0002 1870     		strb	r0, [r3]
 236              		.loc 1 209 0
 237 0004 7047     		bx	lr
 238              	.L23:
 239 0006 C046     		.align	2
ARM GAS  C:\Users\SDEVAS~1\AppData\Local\Temp\ccJ1IlTF.s 			page 9


 240              	.L22:
 241 0008 83000F40 		.word	1074724995
 242              		.cfi_endproc
 243              	.LFE6:
 244              		.size	comm_RS485_Timeout_WritePeriod, .-comm_RS485_Timeout_WritePeriod
 245              		.section	.text.comm_RS485_Timeout_ReadPeriod,"ax",%progbits
 246              		.align	1
 247              		.global	comm_RS485_Timeout_ReadPeriod
 248              		.code	16
 249              		.thumb_func
 250              		.type	comm_RS485_Timeout_ReadPeriod, %function
 251              	comm_RS485_Timeout_ReadPeriod:
 252              	.LFB7:
 210:.\Generated_Source\PSoC4/comm_RS485_Timeout.c **** 
 211:.\Generated_Source\PSoC4/comm_RS485_Timeout.c **** 
 212:.\Generated_Source\PSoC4/comm_RS485_Timeout.c **** /*******************************************************************************
 213:.\Generated_Source\PSoC4/comm_RS485_Timeout.c **** * Function Name: comm_RS485_Timeout_ReadPeriod
 214:.\Generated_Source\PSoC4/comm_RS485_Timeout.c **** ********************************************************************************
 215:.\Generated_Source\PSoC4/comm_RS485_Timeout.c **** *
 216:.\Generated_Source\PSoC4/comm_RS485_Timeout.c **** * Summary:
 217:.\Generated_Source\PSoC4/comm_RS485_Timeout.c **** *  This function reads the period register.
 218:.\Generated_Source\PSoC4/comm_RS485_Timeout.c **** *
 219:.\Generated_Source\PSoC4/comm_RS485_Timeout.c **** * Parameters:
 220:.\Generated_Source\PSoC4/comm_RS485_Timeout.c **** *  None
 221:.\Generated_Source\PSoC4/comm_RS485_Timeout.c **** *
 222:.\Generated_Source\PSoC4/comm_RS485_Timeout.c **** * Return:
 223:.\Generated_Source\PSoC4/comm_RS485_Timeout.c **** *  uint8 - Current period value.
 224:.\Generated_Source\PSoC4/comm_RS485_Timeout.c **** *
 225:.\Generated_Source\PSoC4/comm_RS485_Timeout.c **** *******************************************************************************/
 226:.\Generated_Source\PSoC4/comm_RS485_Timeout.c **** uint8 comm_RS485_Timeout_ReadPeriod(void) 
 227:.\Generated_Source\PSoC4/comm_RS485_Timeout.c **** {
 253              		.loc 1 227 0
 254              		.cfi_startproc
 228:.\Generated_Source\PSoC4/comm_RS485_Timeout.c ****     return(comm_RS485_Timeout_PERIOD_REG);
 255              		.loc 1 228 0
 256 0000 014B     		ldr	r3, .L25
 229:.\Generated_Source\PSoC4/comm_RS485_Timeout.c **** }
 257              		.loc 1 229 0
 258              		@ sp needed
 228:.\Generated_Source\PSoC4/comm_RS485_Timeout.c ****     return(comm_RS485_Timeout_PERIOD_REG);
 259              		.loc 1 228 0
 260 0002 1878     		ldrb	r0, [r3]
 261 0004 C0B2     		uxtb	r0, r0
 262              		.loc 1 229 0
 263 0006 7047     		bx	lr
 264              	.L26:
 265              		.align	2
 266              	.L25:
 267 0008 83000F40 		.word	1074724995
 268              		.cfi_endproc
 269              	.LFE7:
 270              		.size	comm_RS485_Timeout_ReadPeriod, .-comm_RS485_Timeout_ReadPeriod
 271              		.global	comm_RS485_Timeout_initVar
 272              		.bss
 273              		.set	.LANCHOR0,. + 0
 274              		.type	comm_RS485_Timeout_initVar, %object
 275              		.size	comm_RS485_Timeout_initVar, 1
ARM GAS  C:\Users\SDEVAS~1\AppData\Local\Temp\ccJ1IlTF.s 			page 10


 276              	comm_RS485_Timeout_initVar:
 277 0000 00       		.space	1
 278              		.text
 279              	.Letext0:
 280              		.file 2 ".\\Generated_Source\\PSoC4\\cytypes.h"
 281              		.file 3 ".\\Generated_Source\\PSoC4\\CyLib.h"