ARM GAS  C:\Users\SDEVAS~1\AppData\Local\Temp\cc2JaOll.s 			page 1


   1              		.cpu cortex-m0
   2              		.fpu softvfp
   3              		.eabi_attribute 20, 1
   4              		.eabi_attribute 21, 1
   5              		.eabi_attribute 23, 3
   6              		.eabi_attribute 24, 1
   7              		.eabi_attribute 25, 1
   8              		.eabi_attribute 26, 1
   9              		.eabi_attribute 30, 4
  10              		.eabi_attribute 34, 0
  11              		.eabi_attribute 18, 4
  12              		.code	16
  13              		.file	"comm_jsmn.c"
  14              		.text
  15              	.Ltext0:
  16              		.cfi_sections	.debug_frame
  17              		.section	.text.jsmn_parse,"ax",%progbits
  18              		.align	1
  19              		.global	jsmn_parse
  20              		.code	16
  21              		.thumb_func
  22              		.type	jsmn_parse, %function
  23              	jsmn_parse:
  24              	.LFB37:
  25              		.file 1 ".\\Generated_Source\\PSoC4\\comm_jsmn.c"
   1:.\Generated_Source\PSoC4/comm_jsmn.c **** #include <stdlib.h>
   2:.\Generated_Source\PSoC4/comm_jsmn.c **** 
   3:.\Generated_Source\PSoC4/comm_jsmn.c **** #include <project.h>
   4:.\Generated_Source\PSoC4/comm_jsmn.c **** 
   5:.\Generated_Source\PSoC4/comm_jsmn.c **** /**
   6:.\Generated_Source\PSoC4/comm_jsmn.c ****  * Allocates a fresh unused token from the token pull.
   7:.\Generated_Source\PSoC4/comm_jsmn.c ****  */
   8:.\Generated_Source\PSoC4/comm_jsmn.c **** static jsmntok_t *jsmn_alloc_token(jsmn_parser *parser,
   9:.\Generated_Source\PSoC4/comm_jsmn.c **** 		jsmntok_t *tokens, size_t num_tokens) {
  10:.\Generated_Source\PSoC4/comm_jsmn.c **** 	jsmntok_t *tok;
  11:.\Generated_Source\PSoC4/comm_jsmn.c **** 	if (parser->toknext >= num_tokens) {
  12:.\Generated_Source\PSoC4/comm_jsmn.c **** 		return NULL;
  13:.\Generated_Source\PSoC4/comm_jsmn.c **** 	}
  14:.\Generated_Source\PSoC4/comm_jsmn.c **** 	tok = &tokens[parser->toknext++];
  15:.\Generated_Source\PSoC4/comm_jsmn.c **** 	tok->start = tok->end = -1;
  16:.\Generated_Source\PSoC4/comm_jsmn.c **** 	tok->size = 0;
  17:.\Generated_Source\PSoC4/comm_jsmn.c **** #ifdef JSMN_PARENT_LINKS
  18:.\Generated_Source\PSoC4/comm_jsmn.c **** 	tok->parent = -1;
  19:.\Generated_Source\PSoC4/comm_jsmn.c **** #endif
  20:.\Generated_Source\PSoC4/comm_jsmn.c **** 	return tok;
  21:.\Generated_Source\PSoC4/comm_jsmn.c **** }
  22:.\Generated_Source\PSoC4/comm_jsmn.c **** 
  23:.\Generated_Source\PSoC4/comm_jsmn.c **** /**
  24:.\Generated_Source\PSoC4/comm_jsmn.c ****  * Fills token type and boundaries.
  25:.\Generated_Source\PSoC4/comm_jsmn.c ****  */
  26:.\Generated_Source\PSoC4/comm_jsmn.c **** static void jsmn_fill_token(jsmntok_t *token, jsmntype_t type,
  27:.\Generated_Source\PSoC4/comm_jsmn.c ****                             int start, int end) {
  28:.\Generated_Source\PSoC4/comm_jsmn.c **** 	token->type = type;
  29:.\Generated_Source\PSoC4/comm_jsmn.c **** 	token->start = start;
  30:.\Generated_Source\PSoC4/comm_jsmn.c **** 	token->end = end;
  31:.\Generated_Source\PSoC4/comm_jsmn.c **** 	token->size = 0;
  32:.\Generated_Source\PSoC4/comm_jsmn.c **** }
ARM GAS  C:\Users\SDEVAS~1\AppData\Local\Temp\cc2JaOll.s 			page 2


  33:.\Generated_Source\PSoC4/comm_jsmn.c **** 
  34:.\Generated_Source\PSoC4/comm_jsmn.c **** /**
  35:.\Generated_Source\PSoC4/comm_jsmn.c ****  * Fills next available token with JSON primitive.
  36:.\Generated_Source\PSoC4/comm_jsmn.c ****  */
  37:.\Generated_Source\PSoC4/comm_jsmn.c **** static jsmnerr_t jsmn_parse_primitive(jsmn_parser *parser, const char *js,
  38:.\Generated_Source\PSoC4/comm_jsmn.c **** 		size_t len, jsmntok_t *tokens, size_t num_tokens) {
  39:.\Generated_Source\PSoC4/comm_jsmn.c **** 	jsmntok_t *token;
  40:.\Generated_Source\PSoC4/comm_jsmn.c **** 	int start;
  41:.\Generated_Source\PSoC4/comm_jsmn.c **** 
  42:.\Generated_Source\PSoC4/comm_jsmn.c **** 	start = parser->pos;
  43:.\Generated_Source\PSoC4/comm_jsmn.c **** 
  44:.\Generated_Source\PSoC4/comm_jsmn.c **** 	for (; parser->pos < len && js[parser->pos] != '\0'; parser->pos++) {
  45:.\Generated_Source\PSoC4/comm_jsmn.c **** 		switch (js[parser->pos]) {
  46:.\Generated_Source\PSoC4/comm_jsmn.c **** #ifndef JSMN_STRICT
  47:.\Generated_Source\PSoC4/comm_jsmn.c **** 			/* In strict mode primitive must be followed by "," or "}" or "]" */
  48:.\Generated_Source\PSoC4/comm_jsmn.c **** 			case ':':
  49:.\Generated_Source\PSoC4/comm_jsmn.c **** #endif
  50:.\Generated_Source\PSoC4/comm_jsmn.c **** 			case '\t' : case '\r' : case '\n' : case ' ' :
  51:.\Generated_Source\PSoC4/comm_jsmn.c **** 			case ','  : case ']'  : case '}' :
  52:.\Generated_Source\PSoC4/comm_jsmn.c **** 				goto found;
  53:.\Generated_Source\PSoC4/comm_jsmn.c **** 		}
  54:.\Generated_Source\PSoC4/comm_jsmn.c **** 		if (js[parser->pos] < 32 || js[parser->pos] >= 127) {
  55:.\Generated_Source\PSoC4/comm_jsmn.c **** 			parser->pos = start;
  56:.\Generated_Source\PSoC4/comm_jsmn.c **** 			return JSMN_ERROR_INVAL;
  57:.\Generated_Source\PSoC4/comm_jsmn.c **** 		}
  58:.\Generated_Source\PSoC4/comm_jsmn.c **** 	}
  59:.\Generated_Source\PSoC4/comm_jsmn.c **** #ifdef JSMN_STRICT
  60:.\Generated_Source\PSoC4/comm_jsmn.c **** 	/* In strict mode primitive must be followed by a comma/object/array */
  61:.\Generated_Source\PSoC4/comm_jsmn.c **** 	parser->pos = start;
  62:.\Generated_Source\PSoC4/comm_jsmn.c **** 	return JSMN_ERROR_PART;
  63:.\Generated_Source\PSoC4/comm_jsmn.c **** #endif
  64:.\Generated_Source\PSoC4/comm_jsmn.c **** 
  65:.\Generated_Source\PSoC4/comm_jsmn.c **** found:
  66:.\Generated_Source\PSoC4/comm_jsmn.c **** 	if (tokens == NULL) {
  67:.\Generated_Source\PSoC4/comm_jsmn.c **** 		parser->pos--;
  68:.\Generated_Source\PSoC4/comm_jsmn.c **** 		return 0;
  69:.\Generated_Source\PSoC4/comm_jsmn.c **** 	}
  70:.\Generated_Source\PSoC4/comm_jsmn.c **** 	token = jsmn_alloc_token(parser, tokens, num_tokens);
  71:.\Generated_Source\PSoC4/comm_jsmn.c **** 	if (token == NULL) {
  72:.\Generated_Source\PSoC4/comm_jsmn.c **** 		parser->pos = start;
  73:.\Generated_Source\PSoC4/comm_jsmn.c **** 		return JSMN_ERROR_NOMEM;
  74:.\Generated_Source\PSoC4/comm_jsmn.c **** 	}
  75:.\Generated_Source\PSoC4/comm_jsmn.c **** 	jsmn_fill_token(token, JSMN_PRIMITIVE, start, parser->pos);
  76:.\Generated_Source\PSoC4/comm_jsmn.c **** #ifdef JSMN_PARENT_LINKS
  77:.\Generated_Source\PSoC4/comm_jsmn.c **** 	token->parent = parser->toksuper;
  78:.\Generated_Source\PSoC4/comm_jsmn.c **** #endif
  79:.\Generated_Source\PSoC4/comm_jsmn.c **** 	parser->pos--;
  80:.\Generated_Source\PSoC4/comm_jsmn.c **** 	return 0;
  81:.\Generated_Source\PSoC4/comm_jsmn.c **** }
  82:.\Generated_Source\PSoC4/comm_jsmn.c **** 
  83:.\Generated_Source\PSoC4/comm_jsmn.c **** /**
  84:.\Generated_Source\PSoC4/comm_jsmn.c ****  * Filsl next token with JSON string.
  85:.\Generated_Source\PSoC4/comm_jsmn.c ****  */
  86:.\Generated_Source\PSoC4/comm_jsmn.c **** static jsmnerr_t jsmn_parse_string(jsmn_parser *parser, const char *js,
  87:.\Generated_Source\PSoC4/comm_jsmn.c **** 		size_t len, jsmntok_t *tokens, size_t num_tokens) {
  88:.\Generated_Source\PSoC4/comm_jsmn.c **** 	jsmntok_t *token;
  89:.\Generated_Source\PSoC4/comm_jsmn.c **** 
ARM GAS  C:\Users\SDEVAS~1\AppData\Local\Temp\cc2JaOll.s 			page 3


  90:.\Generated_Source\PSoC4/comm_jsmn.c **** 	int start = parser->pos;
  91:.\Generated_Source\PSoC4/comm_jsmn.c **** 
  92:.\Generated_Source\PSoC4/comm_jsmn.c **** 	parser->pos++;
  93:.\Generated_Source\PSoC4/comm_jsmn.c **** 
  94:.\Generated_Source\PSoC4/comm_jsmn.c **** 	/* Skip starting quote */
  95:.\Generated_Source\PSoC4/comm_jsmn.c **** 	for (; parser->pos < len && js[parser->pos] != '\0'; parser->pos++) {
  96:.\Generated_Source\PSoC4/comm_jsmn.c **** 		char c = js[parser->pos];
  97:.\Generated_Source\PSoC4/comm_jsmn.c **** 
  98:.\Generated_Source\PSoC4/comm_jsmn.c **** 		/* Quote: end of string */
  99:.\Generated_Source\PSoC4/comm_jsmn.c **** 		if (c == '\"') {
 100:.\Generated_Source\PSoC4/comm_jsmn.c **** 			if (tokens == NULL) {
 101:.\Generated_Source\PSoC4/comm_jsmn.c **** 				return 0;
 102:.\Generated_Source\PSoC4/comm_jsmn.c **** 			}
 103:.\Generated_Source\PSoC4/comm_jsmn.c **** 			token = jsmn_alloc_token(parser, tokens, num_tokens);
 104:.\Generated_Source\PSoC4/comm_jsmn.c **** 			if (token == NULL) {
 105:.\Generated_Source\PSoC4/comm_jsmn.c **** 				parser->pos = start;
 106:.\Generated_Source\PSoC4/comm_jsmn.c **** 				return JSMN_ERROR_NOMEM;
 107:.\Generated_Source\PSoC4/comm_jsmn.c **** 			}
 108:.\Generated_Source\PSoC4/comm_jsmn.c **** 			jsmn_fill_token(token, JSMN_STRING, start+1, parser->pos);
 109:.\Generated_Source\PSoC4/comm_jsmn.c **** #ifdef JSMN_PARENT_LINKS
 110:.\Generated_Source\PSoC4/comm_jsmn.c **** 			token->parent = parser->toksuper;
 111:.\Generated_Source\PSoC4/comm_jsmn.c **** #endif
 112:.\Generated_Source\PSoC4/comm_jsmn.c **** 			return 0;
 113:.\Generated_Source\PSoC4/comm_jsmn.c **** 		}
 114:.\Generated_Source\PSoC4/comm_jsmn.c **** 
 115:.\Generated_Source\PSoC4/comm_jsmn.c **** 		/* Backslash: Quoted symbol expected */
 116:.\Generated_Source\PSoC4/comm_jsmn.c **** 		if (c == '\\' && parser->pos + 1 < len) {
 117:.\Generated_Source\PSoC4/comm_jsmn.c **** 			int i;
 118:.\Generated_Source\PSoC4/comm_jsmn.c **** 			parser->pos++;
 119:.\Generated_Source\PSoC4/comm_jsmn.c **** 			switch (js[parser->pos]) {
 120:.\Generated_Source\PSoC4/comm_jsmn.c **** 				/* Allowed escaped symbols */
 121:.\Generated_Source\PSoC4/comm_jsmn.c **** 				case '\"': case '/' : case '\\' : case 'b' :
 122:.\Generated_Source\PSoC4/comm_jsmn.c **** 				case 'f' : case 'r' : case 'n'  : case 't' :
 123:.\Generated_Source\PSoC4/comm_jsmn.c **** 					break;
 124:.\Generated_Source\PSoC4/comm_jsmn.c **** 				/* Allows escaped symbol \uXXXX */
 125:.\Generated_Source\PSoC4/comm_jsmn.c **** 				case 'u':
 126:.\Generated_Source\PSoC4/comm_jsmn.c **** 					parser->pos++;
 127:.\Generated_Source\PSoC4/comm_jsmn.c **** 					for(i = 0; i < 4 && parser->pos < len && js[parser->pos] != '\0'; i++) {
 128:.\Generated_Source\PSoC4/comm_jsmn.c **** 						/* If it isn't a hex character we have an error */
 129:.\Generated_Source\PSoC4/comm_jsmn.c **** 						if(!((js[parser->pos] >= 48 && js[parser->pos] <= 57) || /* 0-9 */
 130:.\Generated_Source\PSoC4/comm_jsmn.c **** 									(js[parser->pos] >= 65 && js[parser->pos] <= 70) || /* A-F */
 131:.\Generated_Source\PSoC4/comm_jsmn.c **** 									(js[parser->pos] >= 97 && js[parser->pos] <= 102))) { /* a-f */
 132:.\Generated_Source\PSoC4/comm_jsmn.c **** 							parser->pos = start;
 133:.\Generated_Source\PSoC4/comm_jsmn.c **** 							return JSMN_ERROR_INVAL;
 134:.\Generated_Source\PSoC4/comm_jsmn.c **** 						}
 135:.\Generated_Source\PSoC4/comm_jsmn.c **** 						parser->pos++;
 136:.\Generated_Source\PSoC4/comm_jsmn.c **** 					}
 137:.\Generated_Source\PSoC4/comm_jsmn.c **** 					parser->pos--;
 138:.\Generated_Source\PSoC4/comm_jsmn.c **** 					break;
 139:.\Generated_Source\PSoC4/comm_jsmn.c **** 				/* Unexpected symbol */
 140:.\Generated_Source\PSoC4/comm_jsmn.c **** 				default:
 141:.\Generated_Source\PSoC4/comm_jsmn.c **** 					parser->pos = start;
 142:.\Generated_Source\PSoC4/comm_jsmn.c **** 					return JSMN_ERROR_INVAL;
 143:.\Generated_Source\PSoC4/comm_jsmn.c **** 			}
 144:.\Generated_Source\PSoC4/comm_jsmn.c **** 		}
 145:.\Generated_Source\PSoC4/comm_jsmn.c **** 	}
 146:.\Generated_Source\PSoC4/comm_jsmn.c **** 	parser->pos = start;
ARM GAS  C:\Users\SDEVAS~1\AppData\Local\Temp\cc2JaOll.s 			page 4


 147:.\Generated_Source\PSoC4/comm_jsmn.c **** 	return JSMN_ERROR_PART;
 148:.\Generated_Source\PSoC4/comm_jsmn.c **** }
 149:.\Generated_Source\PSoC4/comm_jsmn.c **** 
 150:.\Generated_Source\PSoC4/comm_jsmn.c **** /**
 151:.\Generated_Source\PSoC4/comm_jsmn.c ****  * Parse JSON string and fill tokens.
 152:.\Generated_Source\PSoC4/comm_jsmn.c ****  */
 153:.\Generated_Source\PSoC4/comm_jsmn.c **** jsmnerr_t jsmn_parse(jsmn_parser *parser, const char *js, size_t len,
 154:.\Generated_Source\PSoC4/comm_jsmn.c **** 		jsmntok_t *tokens, unsigned int num_tokens) {
  26              		.loc 1 154 0
  27              		.cfi_startproc
  28              	.LVL0:
  29 0000 F0B5     		push	{r4, r5, r6, r7, lr}
  30              		.cfi_def_cfa_offset 20
  31              		.cfi_offset 4, -20
  32              		.cfi_offset 5, -16
  33              		.cfi_offset 6, -12
  34              		.cfi_offset 7, -8
  35              		.cfi_offset 14, -4
  36 0002 85B0     		sub	sp, sp, #20
  37              		.cfi_def_cfa_offset 40
  38              		.loc 1 154 0
  39 0004 8C46     		mov	ip, r1
  40 0006 0392     		str	r2, [sp, #12]
 155:.\Generated_Source\PSoC4/comm_jsmn.c **** 	jsmnerr_t r;
 156:.\Generated_Source\PSoC4/comm_jsmn.c **** 	int i;
 157:.\Generated_Source\PSoC4/comm_jsmn.c **** 	jsmntok_t *token;
 158:.\Generated_Source\PSoC4/comm_jsmn.c **** 	int count = 0;
  41              		.loc 1 158 0
  42 0008 0024     		mov	r4, #0
  43              	.LVL1:
  44              	.L2:
 159:.\Generated_Source\PSoC4/comm_jsmn.c **** 
 160:.\Generated_Source\PSoC4/comm_jsmn.c **** 	for (; parser->pos < len && js[parser->pos] != '\0'; parser->pos++) {
  45              		.loc 1 160 0 discriminator 1
  46 000a 0168     		ldr	r1, [r0]
  47 000c 039A     		ldr	r2, [sp, #12]
  48 000e 9142     		cmp	r1, r2
  49 0010 07D3     		bcc	.L57
  50              	.L60:
 161:.\Generated_Source\PSoC4/comm_jsmn.c **** 		char c;
 162:.\Generated_Source\PSoC4/comm_jsmn.c **** 		jsmntype_t type;
 163:.\Generated_Source\PSoC4/comm_jsmn.c **** 
 164:.\Generated_Source\PSoC4/comm_jsmn.c **** 		c = js[parser->pos];
 165:.\Generated_Source\PSoC4/comm_jsmn.c **** 		switch (c) {
 166:.\Generated_Source\PSoC4/comm_jsmn.c **** 			case '{': case '[':
 167:.\Generated_Source\PSoC4/comm_jsmn.c **** 				count++;
 168:.\Generated_Source\PSoC4/comm_jsmn.c **** 				if (tokens == NULL) {
 169:.\Generated_Source\PSoC4/comm_jsmn.c **** 					break;
 170:.\Generated_Source\PSoC4/comm_jsmn.c **** 				}
 171:.\Generated_Source\PSoC4/comm_jsmn.c **** 				token = jsmn_alloc_token(parser, tokens, num_tokens);
 172:.\Generated_Source\PSoC4/comm_jsmn.c **** 				if (token == NULL)
 173:.\Generated_Source\PSoC4/comm_jsmn.c **** 					return JSMN_ERROR_NOMEM;
 174:.\Generated_Source\PSoC4/comm_jsmn.c **** 				if (parser->toksuper != -1) {
 175:.\Generated_Source\PSoC4/comm_jsmn.c **** 					tokens[parser->toksuper].size++;
 176:.\Generated_Source\PSoC4/comm_jsmn.c **** #ifdef JSMN_PARENT_LINKS
 177:.\Generated_Source\PSoC4/comm_jsmn.c **** 					token->parent = parser->toksuper;
 178:.\Generated_Source\PSoC4/comm_jsmn.c **** #endif
ARM GAS  C:\Users\SDEVAS~1\AppData\Local\Temp\cc2JaOll.s 			page 5


 179:.\Generated_Source\PSoC4/comm_jsmn.c **** 				}
 180:.\Generated_Source\PSoC4/comm_jsmn.c **** 				token->type = (c == '{' ? JSMN_OBJECT : JSMN_ARRAY);
 181:.\Generated_Source\PSoC4/comm_jsmn.c **** 				token->start = parser->pos;
 182:.\Generated_Source\PSoC4/comm_jsmn.c **** 				parser->toksuper = parser->toknext - 1;
 183:.\Generated_Source\PSoC4/comm_jsmn.c **** 				break;
 184:.\Generated_Source\PSoC4/comm_jsmn.c **** 			case '}': case ']':
 185:.\Generated_Source\PSoC4/comm_jsmn.c **** 				if (tokens == NULL)
 186:.\Generated_Source\PSoC4/comm_jsmn.c **** 					break;
 187:.\Generated_Source\PSoC4/comm_jsmn.c **** 				type = (c == '}' ? JSMN_OBJECT : JSMN_ARRAY);
 188:.\Generated_Source\PSoC4/comm_jsmn.c **** #ifdef JSMN_PARENT_LINKS
 189:.\Generated_Source\PSoC4/comm_jsmn.c **** 				if (parser->toknext < 1) {
 190:.\Generated_Source\PSoC4/comm_jsmn.c **** 					return JSMN_ERROR_INVAL;
 191:.\Generated_Source\PSoC4/comm_jsmn.c **** 				}
 192:.\Generated_Source\PSoC4/comm_jsmn.c **** 				token = &tokens[parser->toknext - 1];
 193:.\Generated_Source\PSoC4/comm_jsmn.c **** 				for (;;) {
 194:.\Generated_Source\PSoC4/comm_jsmn.c **** 					if (token->start != -1 && token->end == -1) {
 195:.\Generated_Source\PSoC4/comm_jsmn.c **** 						if (token->type != type) {
 196:.\Generated_Source\PSoC4/comm_jsmn.c **** 							return JSMN_ERROR_INVAL;
 197:.\Generated_Source\PSoC4/comm_jsmn.c **** 						}
 198:.\Generated_Source\PSoC4/comm_jsmn.c **** 						token->end = parser->pos + 1;
 199:.\Generated_Source\PSoC4/comm_jsmn.c **** 						parser->toksuper = token->parent;
 200:.\Generated_Source\PSoC4/comm_jsmn.c **** 						break;
 201:.\Generated_Source\PSoC4/comm_jsmn.c **** 					}
 202:.\Generated_Source\PSoC4/comm_jsmn.c **** 					if (token->parent == -1) {
 203:.\Generated_Source\PSoC4/comm_jsmn.c **** 						break;
 204:.\Generated_Source\PSoC4/comm_jsmn.c **** 					}
 205:.\Generated_Source\PSoC4/comm_jsmn.c **** 					token = &tokens[token->parent];
 206:.\Generated_Source\PSoC4/comm_jsmn.c **** 				}
 207:.\Generated_Source\PSoC4/comm_jsmn.c **** #else
 208:.\Generated_Source\PSoC4/comm_jsmn.c **** 				for (i = parser->toknext - 1; i >= 0; i--) {
 209:.\Generated_Source\PSoC4/comm_jsmn.c **** 					token = &tokens[i];
 210:.\Generated_Source\PSoC4/comm_jsmn.c **** 					if (token->start != -1 && token->end == -1) {
 211:.\Generated_Source\PSoC4/comm_jsmn.c **** 						if (token->type != type) {
 212:.\Generated_Source\PSoC4/comm_jsmn.c **** 							return JSMN_ERROR_INVAL;
 213:.\Generated_Source\PSoC4/comm_jsmn.c **** 						}
 214:.\Generated_Source\PSoC4/comm_jsmn.c **** 						parser->toksuper = -1;
 215:.\Generated_Source\PSoC4/comm_jsmn.c **** 						token->end = parser->pos + 1;
 216:.\Generated_Source\PSoC4/comm_jsmn.c **** 						break;
 217:.\Generated_Source\PSoC4/comm_jsmn.c **** 					}
 218:.\Generated_Source\PSoC4/comm_jsmn.c **** 				}
 219:.\Generated_Source\PSoC4/comm_jsmn.c **** 				/* Error if unmatched closing bracket */
 220:.\Generated_Source\PSoC4/comm_jsmn.c **** 				if (i == -1) return JSMN_ERROR_INVAL;
 221:.\Generated_Source\PSoC4/comm_jsmn.c **** 				for (; i >= 0; i--) {
 222:.\Generated_Source\PSoC4/comm_jsmn.c **** 					token = &tokens[i];
 223:.\Generated_Source\PSoC4/comm_jsmn.c **** 					if (token->start != -1 && token->end == -1) {
 224:.\Generated_Source\PSoC4/comm_jsmn.c **** 						parser->toksuper = i;
 225:.\Generated_Source\PSoC4/comm_jsmn.c **** 						break;
 226:.\Generated_Source\PSoC4/comm_jsmn.c **** 					}
 227:.\Generated_Source\PSoC4/comm_jsmn.c **** 				}
 228:.\Generated_Source\PSoC4/comm_jsmn.c **** #endif
 229:.\Generated_Source\PSoC4/comm_jsmn.c **** 				break;
 230:.\Generated_Source\PSoC4/comm_jsmn.c **** 			case '\"':
 231:.\Generated_Source\PSoC4/comm_jsmn.c **** 				r = jsmn_parse_string(parser, js, len, tokens, num_tokens);
 232:.\Generated_Source\PSoC4/comm_jsmn.c **** 				if (r < 0) return r;
 233:.\Generated_Source\PSoC4/comm_jsmn.c **** 				count++;
 234:.\Generated_Source\PSoC4/comm_jsmn.c **** 				if (parser->toksuper != -1 && tokens != NULL)
 235:.\Generated_Source\PSoC4/comm_jsmn.c **** 					tokens[parser->toksuper].size++;
ARM GAS  C:\Users\SDEVAS~1\AppData\Local\Temp\cc2JaOll.s 			page 6


 236:.\Generated_Source\PSoC4/comm_jsmn.c **** 				break;
 237:.\Generated_Source\PSoC4/comm_jsmn.c **** 			case '\t' : case '\r' : case '\n' : case ' ':
 238:.\Generated_Source\PSoC4/comm_jsmn.c **** 				break;
 239:.\Generated_Source\PSoC4/comm_jsmn.c **** 			case ':':
 240:.\Generated_Source\PSoC4/comm_jsmn.c **** 				parser->toksuper = parser->toknext - 1;
 241:.\Generated_Source\PSoC4/comm_jsmn.c **** 				break;
 242:.\Generated_Source\PSoC4/comm_jsmn.c **** 			case ',':
 243:.\Generated_Source\PSoC4/comm_jsmn.c **** 				if (tokens != NULL &&
 244:.\Generated_Source\PSoC4/comm_jsmn.c **** 						tokens[parser->toksuper].type != JSMN_ARRAY &&
 245:.\Generated_Source\PSoC4/comm_jsmn.c **** 						tokens[parser->toksuper].type != JSMN_OBJECT) {
 246:.\Generated_Source\PSoC4/comm_jsmn.c **** #ifdef JSMN_PARENT_LINKS
 247:.\Generated_Source\PSoC4/comm_jsmn.c **** 					parser->toksuper = tokens[parser->toksuper].parent;
 248:.\Generated_Source\PSoC4/comm_jsmn.c **** #else
 249:.\Generated_Source\PSoC4/comm_jsmn.c **** 					for (i = parser->toknext - 1; i >= 0; i--) {
 250:.\Generated_Source\PSoC4/comm_jsmn.c **** 						if (tokens[i].type == JSMN_ARRAY || tokens[i].type == JSMN_OBJECT) {
 251:.\Generated_Source\PSoC4/comm_jsmn.c **** 							if (tokens[i].start != -1 && tokens[i].end == -1) {
 252:.\Generated_Source\PSoC4/comm_jsmn.c **** 								parser->toksuper = i;
 253:.\Generated_Source\PSoC4/comm_jsmn.c **** 								break;
 254:.\Generated_Source\PSoC4/comm_jsmn.c **** 							}
 255:.\Generated_Source\PSoC4/comm_jsmn.c **** 						}
 256:.\Generated_Source\PSoC4/comm_jsmn.c **** 					}
 257:.\Generated_Source\PSoC4/comm_jsmn.c **** #endif
 258:.\Generated_Source\PSoC4/comm_jsmn.c **** 				}
 259:.\Generated_Source\PSoC4/comm_jsmn.c **** 				break;
 260:.\Generated_Source\PSoC4/comm_jsmn.c **** #ifdef JSMN_STRICT
 261:.\Generated_Source\PSoC4/comm_jsmn.c **** 			/* In strict mode primitives are: numbers and booleans */
 262:.\Generated_Source\PSoC4/comm_jsmn.c **** 			case '-': case '0': case '1' : case '2': case '3' : case '4':
 263:.\Generated_Source\PSoC4/comm_jsmn.c **** 			case '5': case '6': case '7' : case '8': case '9':
 264:.\Generated_Source\PSoC4/comm_jsmn.c **** 			case 't': case 'f': case 'n' :
 265:.\Generated_Source\PSoC4/comm_jsmn.c **** 				/* And they must not be keys of the object */
 266:.\Generated_Source\PSoC4/comm_jsmn.c **** 				if (tokens != NULL) {
 267:.\Generated_Source\PSoC4/comm_jsmn.c **** 					jsmntok_t *t = &tokens[parser->toksuper];
 268:.\Generated_Source\PSoC4/comm_jsmn.c **** 					if (t->type == JSMN_OBJECT ||
 269:.\Generated_Source\PSoC4/comm_jsmn.c **** 							(t->type == JSMN_STRING && t->size != 0)) {
 270:.\Generated_Source\PSoC4/comm_jsmn.c **** 						return JSMN_ERROR_INVAL;
 271:.\Generated_Source\PSoC4/comm_jsmn.c **** 					}
 272:.\Generated_Source\PSoC4/comm_jsmn.c **** 				}
 273:.\Generated_Source\PSoC4/comm_jsmn.c **** #else
 274:.\Generated_Source\PSoC4/comm_jsmn.c **** 			/* In non-strict mode every unquoted value is a primitive */
 275:.\Generated_Source\PSoC4/comm_jsmn.c **** 			default:
 276:.\Generated_Source\PSoC4/comm_jsmn.c **** #endif
 277:.\Generated_Source\PSoC4/comm_jsmn.c **** 				r = jsmn_parse_primitive(parser, js, len, tokens, num_tokens);
 278:.\Generated_Source\PSoC4/comm_jsmn.c **** 				if (r < 0) return r;
 279:.\Generated_Source\PSoC4/comm_jsmn.c **** 				count++;
 280:.\Generated_Source\PSoC4/comm_jsmn.c **** 				if (parser->toksuper != -1 && tokens != NULL)
 281:.\Generated_Source\PSoC4/comm_jsmn.c **** 					tokens[parser->toksuper].size++;
 282:.\Generated_Source\PSoC4/comm_jsmn.c **** 				break;
 283:.\Generated_Source\PSoC4/comm_jsmn.c **** 
 284:.\Generated_Source\PSoC4/comm_jsmn.c **** #ifdef JSMN_STRICT
 285:.\Generated_Source\PSoC4/comm_jsmn.c **** 			/* Unexpected char in strict mode */
 286:.\Generated_Source\PSoC4/comm_jsmn.c **** 			default:
 287:.\Generated_Source\PSoC4/comm_jsmn.c **** 				return JSMN_ERROR_INVAL;
 288:.\Generated_Source\PSoC4/comm_jsmn.c **** #endif
 289:.\Generated_Source\PSoC4/comm_jsmn.c **** 		}
 290:.\Generated_Source\PSoC4/comm_jsmn.c **** 	}
 291:.\Generated_Source\PSoC4/comm_jsmn.c **** 
 292:.\Generated_Source\PSoC4/comm_jsmn.c **** 	for (i = parser->toknext - 1; i >= 0; i--) {
ARM GAS  C:\Users\SDEVAS~1\AppData\Local\Temp\cc2JaOll.s 			page 7


  51              		.loc 1 292 0
  52 0012 4168     		ldr	r1, [r0, #4]
 293:.\Generated_Source\PSoC4/comm_jsmn.c **** 		/* Unmatched opened object or array */
 294:.\Generated_Source\PSoC4/comm_jsmn.c **** 		if (tokens[i].start != -1 && tokens[i].end == -1) {
  53              		.loc 1 294 0
  54 0014 9E4D     		ldr	r5, .L181
 292:.\Generated_Source\PSoC4/comm_jsmn.c **** 	for (i = parser->toknext - 1; i >= 0; i--) {
  55              		.loc 1 292 0
  56 0016 4A1E     		sub	r2, r1, #1
  57              	.LVL2:
  58              		.loc 1 294 0
  59 0018 4919     		add	r1, r1, r5
  60 001a 0901     		lsl	r1, r1, #4
  61 001c 5B18     		add	r3, r3, r1
  62              	.LVL3:
  63 001e 0833     		add	r3, r3, #8
 292:.\Generated_Source\PSoC4/comm_jsmn.c **** 	for (i = parser->toknext - 1; i >= 0; i--) {
  64              		.loc 1 292 0
  65 0020 58E1     		b	.L58
  66              	.LVL4:
  67              	.L57:
 160:.\Generated_Source\PSoC4/comm_jsmn.c **** 	for (; parser->pos < len && js[parser->pos] != '\0'; parser->pos++) {
  68              		.loc 1 160 0 discriminator 2
  69 0022 6646     		mov	r6, ip
  70 0024 725C     		ldrb	r2, [r6, r1]
  71 0026 002A     		cmp	r2, #0
  72 0028 F3D0     		beq	.L60
  73              	.LVL5:
  74              	.LBB25:
 165:.\Generated_Source\PSoC4/comm_jsmn.c **** 		switch (c) {
  75              		.loc 1 165 0
  76 002a 2C2A     		cmp	r2, #44
  77 002c 00D1     		bne	.LCB59
  78 002e E2E0     		b	.L4	@long jump
  79              	.LCB59:
  80 0030 10D8     		bhi	.L5
  81 0032 0D2A     		cmp	r2, #13
  82 0034 00D1     		bne	.LCB63
  83 0036 43E1     		b	.L6	@long jump
  84              	.LCB63:
  85 0038 04D8     		bhi	.L7
  86 003a 093A     		sub	r2, r2, #9
  87 003c 012A     		cmp	r2, #1
  88 003e 00D8     		bhi	.LCB69
  89 0040 3EE1     		b	.L6	@long jump
  90              	.LCB69:
  91 0042 09E1     		b	.L46
  92              	.L7:
  93 0044 202A     		cmp	r2, #32
  94 0046 00D1     		bne	.LCB75
  95 0048 3AE1     		b	.L6	@long jump
  96              	.LCB75:
  97 004a 222A     		cmp	r2, #34
  98 004c 00D0     		beq	.LCB77
  99 004e 03E1     		b	.L46	@long jump
 100              	.LCB77:
 101              	.LVL6:
ARM GAS  C:\Users\SDEVAS~1\AppData\Local\Temp\cc2JaOll.s 			page 8


 102              	.LBB26:
 103              	.LBB27:
  92:.\Generated_Source\PSoC4/comm_jsmn.c **** 	parser->pos++;
 104              		.loc 1 92 0
 105 0050 4A1C     		add	r2, r1, #1
 106 0052 74E0     		b	.L165
 107              	.LVL7:
 108              	.L5:
 109              	.LBE27:
 110              	.LBE26:
 165:.\Generated_Source\PSoC4/comm_jsmn.c **** 		switch (c) {
 111              		.loc 1 165 0
 112 0054 5D2A     		cmp	r2, #93
 113 0056 31D0     		beq	.L9
 114 0058 05D8     		bhi	.L10
 115 005a 3A2A     		cmp	r2, #58
 116 005c 00D1     		bne	.LCB108
 117 005e C6E0     		b	.L11	@long jump
 118              	.LCB108:
 119 0060 5B2A     		cmp	r2, #91
 120 0062 05D0     		beq	.L12
 121 0064 F8E0     		b	.L46
 122              	.L10:
 123 0066 7B2A     		cmp	r2, #123
 124 0068 02D0     		beq	.L12
 125 006a 7D2A     		cmp	r2, #125
 126 006c 26D0     		beq	.L9
 127 006e F3E0     		b	.L46
 128              	.L12:
 167:.\Generated_Source\PSoC4/comm_jsmn.c **** 				count++;
 129              		.loc 1 167 0
 130 0070 0134     		add	r4, r4, #1
 131              	.LVL8:
 168:.\Generated_Source\PSoC4/comm_jsmn.c **** 				if (tokens == NULL) {
 132              		.loc 1 168 0
 133 0072 002B     		cmp	r3, #0
 134 0074 00D1     		bne	.LCB127
 135 0076 23E1     		b	.L6	@long jump
 136              	.LCB127:
 137              	.LVL9:
 138              	.LBB36:
 139              	.LBB37:
  11:.\Generated_Source\PSoC4/comm_jsmn.c **** 	if (parser->toknext >= num_tokens) {
 140              		.loc 1 11 0
 141 0078 4568     		ldr	r5, [r0, #4]
 142 007a 0A9E     		ldr	r6, [sp, #40]
 143              	.LVL10:
 144 007c 0295     		str	r5, [sp, #8]
 145 007e B542     		cmp	r5, r6
 146 0080 00D3     		bcc	.LCB139
 147 0082 30E1     		b	.L65	@long jump
 148              	.LCB139:
  14:.\Generated_Source\PSoC4/comm_jsmn.c **** 	tok = &tokens[parser->toknext++];
 149              		.loc 1 14 0
 150 0084 029F     		ldr	r7, [sp, #8]
 151 0086 0135     		add	r5, r5, #1
 152 0088 4560     		str	r5, [r0, #4]
ARM GAS  C:\Users\SDEVAS~1\AppData\Local\Temp\cc2JaOll.s 			page 9


 153              	.LVL11:
 154 008a 3D01     		lsl	r5, r7, #4
  15:.\Generated_Source\PSoC4/comm_jsmn.c **** 	tok->start = tok->end = -1;
 155              		.loc 1 15 0
 156 008c 0127     		mov	r7, #1
  14:.\Generated_Source\PSoC4/comm_jsmn.c **** 	tok = &tokens[parser->toknext++];
 157              		.loc 1 14 0
 158 008e 5D19     		add	r5, r3, r5
 159              	.LVL12:
  15:.\Generated_Source\PSoC4/comm_jsmn.c **** 	tok->start = tok->end = -1;
 160              		.loc 1 15 0
 161 0090 7F42     		neg	r7, r7
 162              	.LBE37:
 163              	.LBE36:
 174:.\Generated_Source\PSoC4/comm_jsmn.c **** 				if (parser->toksuper != -1) {
 164              		.loc 1 174 0
 165 0092 8668     		ldr	r6, [r0, #8]
 166              	.LBB39:
 167              	.LBB38:
  15:.\Generated_Source\PSoC4/comm_jsmn.c **** 	tok->start = tok->end = -1;
 168              		.loc 1 15 0
 169 0094 AF60     		str	r7, [r5, #8]
 170 0096 6F60     		str	r7, [r5, #4]
  16:.\Generated_Source\PSoC4/comm_jsmn.c **** 	tok->size = 0;
 171              		.loc 1 16 0
 172 0098 0027     		mov	r7, #0
 173 009a EF60     		str	r7, [r5, #12]
 174              	.LBE38:
 175              	.LBE39:
 174:.\Generated_Source\PSoC4/comm_jsmn.c **** 				if (parser->toksuper != -1) {
 176              		.loc 1 174 0
 177 009c 771C     		add	r7, r6, #1
 178 009e 04D0     		beq	.L14
 175:.\Generated_Source\PSoC4/comm_jsmn.c **** 					tokens[parser->toksuper].size++;
 179              		.loc 1 175 0
 180 00a0 3701     		lsl	r7, r6, #4
 181 00a2 DF19     		add	r7, r3, r7
 182 00a4 FE68     		ldr	r6, [r7, #12]
 183 00a6 0136     		add	r6, r6, #1
 184 00a8 FE60     		str	r6, [r7, #12]
 185              	.L14:
 180:.\Generated_Source\PSoC4/comm_jsmn.c **** 				token->type = (c == '{' ? JSMN_OBJECT : JSMN_ARRAY);
 186              		.loc 1 180 0
 187 00aa 7B3A     		sub	r2, r2, #123
 188              	.LVL13:
 189 00ac 571E     		sub	r7, r2, #1
 190 00ae BA41     		sbc	r2, r2, r7
 191              	.LVL14:
 182:.\Generated_Source\PSoC4/comm_jsmn.c **** 				parser->toksuper = parser->toknext - 1;
 192              		.loc 1 182 0
 193 00b0 029F     		ldr	r7, [sp, #8]
 180:.\Generated_Source\PSoC4/comm_jsmn.c **** 				token->type = (c == '{' ? JSMN_OBJECT : JSMN_ARRAY);
 194              		.loc 1 180 0
 195 00b2 0132     		add	r2, r2, #1
 196 00b4 2A70     		strb	r2, [r5]
 181:.\Generated_Source\PSoC4/comm_jsmn.c **** 				token->start = parser->pos;
 197              		.loc 1 181 0
ARM GAS  C:\Users\SDEVAS~1\AppData\Local\Temp\cc2JaOll.s 			page 10


 198 00b6 6960     		str	r1, [r5, #4]
 182:.\Generated_Source\PSoC4/comm_jsmn.c **** 				parser->toksuper = parser->toknext - 1;
 199              		.loc 1 182 0
 200 00b8 8760     		str	r7, [r0, #8]
 183:.\Generated_Source\PSoC4/comm_jsmn.c **** 				break;
 201              		.loc 1 183 0
 202 00ba 01E1     		b	.L6
 203              	.LVL15:
 204              	.L9:
 185:.\Generated_Source\PSoC4/comm_jsmn.c **** 				if (tokens == NULL)
 205              		.loc 1 185 0
 206 00bc 002B     		cmp	r3, #0
 207 00be 00D1     		bne	.LCB195
 208 00c0 FEE0     		b	.L6	@long jump
 209              	.LCB195:
 187:.\Generated_Source\PSoC4/comm_jsmn.c **** 				type = (c == '}' ? JSMN_OBJECT : JSMN_ARRAY);
 210              		.loc 1 187 0
 211 00c2 7D3A     		sub	r2, r2, #125
 212 00c4 551E     		sub	r5, r2, #1
 213 00c6 AA41     		sbc	r2, r2, r5
 214              	.LBE25:
 210:.\Generated_Source\PSoC4/comm_jsmn.c **** 					if (token->start != -1 && token->end == -1) {
 215              		.loc 1 210 0
 216 00c8 714E     		ldr	r6, .L181
 217              	.LVL16:
 218              	.LBB49:
 208:.\Generated_Source\PSoC4/comm_jsmn.c **** 				for (i = parser->toknext - 1; i >= 0; i--) {
 219              		.loc 1 208 0
 220 00ca 4568     		ldr	r5, [r0, #4]
 187:.\Generated_Source\PSoC4/comm_jsmn.c **** 				type = (c == '}' ? JSMN_OBJECT : JSMN_ARRAY);
 221              		.loc 1 187 0
 222 00cc 0132     		add	r2, r2, #1
 223 00ce 0292     		str	r2, [sp, #8]
 224              	.LVL17:
 208:.\Generated_Source\PSoC4/comm_jsmn.c **** 				for (i = parser->toknext - 1; i >= 0; i--) {
 225              		.loc 1 208 0
 226 00d0 6A1E     		sub	r2, r5, #1
 227              	.LVL18:
 228              	.LBE49:
 210:.\Generated_Source\PSoC4/comm_jsmn.c **** 					if (token->start != -1 && token->end == -1) {
 229              		.loc 1 210 0
 230 00d2 AD19     		add	r5, r5, r6
 231 00d4 2D01     		lsl	r5, r5, #4
 232 00d6 5D19     		add	r5, r3, r5
 233 00d8 0435     		add	r5, r5, #4
 234              	.L17:
 235              	.LBB50:
 208:.\Generated_Source\PSoC4/comm_jsmn.c **** 				for (i = parser->toknext - 1; i >= 0; i--) {
 236              		.loc 1 208 0 discriminator 1
 237 00da 002A     		cmp	r2, #0
 238 00dc 14DB     		blt	.L173
 210:.\Generated_Source\PSoC4/comm_jsmn.c **** 					if (token->start != -1 && token->end == -1) {
 239              		.loc 1 210 0
 240 00de 2F68     		ldr	r7, [r5]
 241 00e0 2E1F     		sub	r6, r5, #4
 242              	.LVL19:
 243 00e2 0137     		add	r7, r7, #1
ARM GAS  C:\Users\SDEVAS~1\AppData\Local\Temp\cc2JaOll.s 			page 11


 244 00e4 0DD0     		beq	.L18
 210:.\Generated_Source\PSoC4/comm_jsmn.c **** 					if (token->start != -1 && token->end == -1) {
 245              		.loc 1 210 0 is_stmt 0 discriminator 1
 246 00e6 6F68     		ldr	r7, [r5, #4]
 247 00e8 0197     		str	r7, [sp, #4]
 248 00ea 0137     		add	r7, r7, #1
 249 00ec 09D1     		bne	.L18
 211:.\Generated_Source\PSoC4/comm_jsmn.c **** 						if (token->type != type) {
 250              		.loc 1 211 0 is_stmt 1
 251 00ee 3578     		ldrb	r5, [r6]
 252 00f0 029F     		ldr	r7, [sp, #8]
 253 00f2 BD42     		cmp	r5, r7
 254 00f4 00D0     		beq	.LCB235
 255 00f6 F8E0     		b	.L69	@long jump
 256              	.LCB235:
 214:.\Generated_Source\PSoC4/comm_jsmn.c **** 						parser->toksuper = -1;
 257              		.loc 1 214 0
 258 00f8 019D     		ldr	r5, [sp, #4]
 215:.\Generated_Source\PSoC4/comm_jsmn.c **** 						token->end = parser->pos + 1;
 259              		.loc 1 215 0
 260 00fa 0131     		add	r1, r1, #1
 261              	.LVL20:
 214:.\Generated_Source\PSoC4/comm_jsmn.c **** 						parser->toksuper = -1;
 262              		.loc 1 214 0
 263 00fc 8560     		str	r5, [r0, #8]
 264              	.LVL21:
 215:.\Generated_Source\PSoC4/comm_jsmn.c **** 						token->end = parser->pos + 1;
 265              		.loc 1 215 0
 266 00fe B160     		str	r1, [r6, #8]
 267 0100 05E0     		b	.L19
 268              	.LVL22:
 269              	.L18:
 208:.\Generated_Source\PSoC4/comm_jsmn.c **** 				for (i = parser->toknext - 1; i >= 0; i--) {
 270              		.loc 1 208 0
 271 0102 013A     		sub	r2, r2, #1
 272              	.LVL23:
 273 0104 103D     		sub	r5, r5, #16
 274 0106 E8E7     		b	.L17
 275              	.LVL24:
 276              	.L173:
 220:.\Generated_Source\PSoC4/comm_jsmn.c **** 				if (i == -1) return JSMN_ERROR_INVAL;
 277              		.loc 1 220 0
 278 0108 561C     		add	r6, r2, #1
 279 010a 00D1     		bne	.LCB259
 280 010c EDE0     		b	.L69	@long jump
 281              	.LCB259:
 282              	.LVL25:
 283              	.L19:
 284 010e 1101     		lsl	r1, r2, #4
 285 0110 5918     		add	r1, r3, r1
 286              	.L21:
 221:.\Generated_Source\PSoC4/comm_jsmn.c **** 				for (; i >= 0; i--) {
 287              		.loc 1 221 0 discriminator 1
 288 0112 002A     		cmp	r2, #0
 289 0114 00DA     		bge	.LCB269
 290 0116 D3E0     		b	.L6	@long jump
 291              	.LCB269:
ARM GAS  C:\Users\SDEVAS~1\AppData\Local\Temp\cc2JaOll.s 			page 12


 292              	.LVL26:
 223:.\Generated_Source\PSoC4/comm_jsmn.c **** 					if (token->start != -1 && token->end == -1) {
 293              		.loc 1 223 0
 294 0118 4F68     		ldr	r7, [r1, #4]
 295 011a 0137     		add	r7, r7, #1
 296 011c 02D0     		beq	.L22
 223:.\Generated_Source\PSoC4/comm_jsmn.c **** 					if (token->start != -1 && token->end == -1) {
 297              		.loc 1 223 0 is_stmt 0 discriminator 1
 298 011e 8D68     		ldr	r5, [r1, #8]
 299 0120 0135     		add	r5, r5, #1
 300 0122 66D0     		beq	.L167
 301              	.L22:
 221:.\Generated_Source\PSoC4/comm_jsmn.c **** 				for (; i >= 0; i--) {
 302              		.loc 1 221 0 is_stmt 1
 303 0124 013A     		sub	r2, r2, #1
 304              	.LVL27:
 305 0126 1039     		sub	r1, r1, #16
 306              	.LVL28:
 307 0128 F3E7     		b	.L21
 308              	.LVL29:
 309              	.L40:
 310              	.LBB40:
 311              	.LBB35:
  95:.\Generated_Source\PSoC4/comm_jsmn.c **** 	for (; parser->pos < len && js[parser->pos] != '\0'; parser->pos++) {
 312              		.loc 1 95 0
 313 012a 6646     		mov	r6, ip
 314 012c B55C     		ldrb	r5, [r6, r2]
 315 012e 002D     		cmp	r5, #0
 316 0130 0AD0     		beq	.L42
 317              	.LVL30:
 318              	.LBB28:
  99:.\Generated_Source\PSoC4/comm_jsmn.c **** 		if (c == '\"') {
 319              		.loc 1 99 0
 320 0132 222D     		cmp	r5, #34
 321 0134 0AD0     		beq	.L174
 116:.\Generated_Source\PSoC4/comm_jsmn.c **** 		if (c == '\\' && parser->pos + 1 < len) {
 322              		.loc 1 116 0
 323 0136 5C2D     		cmp	r5, #92
 324 0138 1CD0     		beq	.L175
 325              	.LVL31:
 326              	.L29:
 327              	.LBE28:
  95:.\Generated_Source\PSoC4/comm_jsmn.c **** 	for (; parser->pos < len && js[parser->pos] != '\0'; parser->pos++) {
 328              		.loc 1 95 0
 329 013a 0268     		ldr	r2, [r0]
 330 013c 0132     		add	r2, r2, #1
 331              	.L165:
 332 013e 0260     		str	r2, [r0]
 333 0140 0268     		ldr	r2, [r0]
 334 0142 039D     		ldr	r5, [sp, #12]
 335 0144 AA42     		cmp	r2, r5
 336 0146 F0D3     		bcc	.L40
 337              	.L42:
 146:.\Generated_Source\PSoC4/comm_jsmn.c **** 	parser->pos = start;
 338              		.loc 1 146 0
 339 0148 0160     		str	r1, [r0]
 340 014a D0E0     		b	.L70
ARM GAS  C:\Users\SDEVAS~1\AppData\Local\Temp\cc2JaOll.s 			page 13


 341              	.LVL32:
 342              	.L174:
 343              	.LBB34:
 100:.\Generated_Source\PSoC4/comm_jsmn.c **** 			if (tokens == NULL) {
 344              		.loc 1 100 0
 345 014c 002B     		cmp	r3, #0
 346 014e 00D1     		bne	.LCB351
 347 0150 ABE0     		b	.L55	@long jump
 348              	.LCB351:
 349              	.LVL33:
 350              	.LBB29:
 351              	.LBB30:
  11:.\Generated_Source\PSoC4/comm_jsmn.c **** 	if (parser->toknext >= num_tokens) {
 352              		.loc 1 11 0
 353 0152 4568     		ldr	r5, [r0, #4]
 354 0154 0A9E     		ldr	r6, [sp, #40]
 355              	.LVL34:
 356 0156 B542     		cmp	r5, r6
 357 0158 00D3     		bcc	.LCB363
 358 015a 97E0     		b	.L170	@long jump
 359              	.LCB363:
  14:.\Generated_Source\PSoC4/comm_jsmn.c **** 	tok = &tokens[parser->toknext++];
 360              		.loc 1 14 0
 361 015c 6E1C     		add	r6, r5, #1
 362 015e 2D01     		lsl	r5, r5, #4
 363 0160 4660     		str	r6, [r0, #4]
 364              	.LVL35:
 365 0162 5D19     		add	r5, r3, r5
 366              	.LVL36:
  16:.\Generated_Source\PSoC4/comm_jsmn.c **** 	tok->size = 0;
 367              		.loc 1 16 0
 368 0164 0026     		mov	r6, #0
 369 0166 EE60     		str	r6, [r5, #12]
 370              	.LVL37:
 371              	.LBE30:
 372              	.LBE29:
 108:.\Generated_Source\PSoC4/comm_jsmn.c **** 			jsmn_fill_token(token, JSMN_STRING, start+1, parser->pos);
 373              		.loc 1 108 0
 374 0168 0131     		add	r1, r1, #1
 375              	.LVL38:
 376              	.LBB31:
 377              	.LBB32:
  28:.\Generated_Source\PSoC4/comm_jsmn.c **** 	token->type = type;
 378              		.loc 1 28 0
 379 016a 0326     		mov	r6, #3
 380 016c 2E70     		strb	r6, [r5]
  29:.\Generated_Source\PSoC4/comm_jsmn.c **** 	token->start = start;
 381              		.loc 1 29 0
 382 016e 6960     		str	r1, [r5, #4]
  30:.\Generated_Source\PSoC4/comm_jsmn.c **** 	token->end = end;
 383              		.loc 1 30 0
 384 0170 AA60     		str	r2, [r5, #8]
 385 0172 9AE0     		b	.L55
 386              	.LVL39:
 387              	.L175:
 388              	.LBE32:
 389              	.LBE31:
ARM GAS  C:\Users\SDEVAS~1\AppData\Local\Temp\cc2JaOll.s 			page 14


 116:.\Generated_Source\PSoC4/comm_jsmn.c **** 		if (c == '\\' && parser->pos + 1 < len) {
 390              		.loc 1 116 0
 391 0174 039F     		ldr	r7, [sp, #12]
 392 0176 551C     		add	r5, r2, #1
 393 0178 BD42     		cmp	r5, r7
 394 017a DED2     		bcs	.L29
 395              	.LBB33:
 118:.\Generated_Source\PSoC4/comm_jsmn.c **** 			parser->pos++;
 396              		.loc 1 118 0
 397 017c 0560     		str	r5, [r0]
 398              	.LVL40:
 119:.\Generated_Source\PSoC4/comm_jsmn.c **** 			switch (js[parser->pos]) {
 399              		.loc 1 119 0
 400 017e 6646     		mov	r6, ip
 401              	.LVL41:
 402 0180 755D     		ldrb	r5, [r6, r5]
 403 0182 662D     		cmp	r5, #102
 404 0184 D9D0     		beq	.L29
 405              	.LVL42:
 406 0186 0AD8     		bhi	.L31
 407 0188 2F2D     		cmp	r5, #47
 408 018a D6D0     		beq	.L29
 409 018c 02D8     		bhi	.L32
 410 018e 222D     		cmp	r5, #34
 411 0190 52D1     		bne	.L171
 412 0192 D2E7     		b	.L29
 413              	.L32:
 414 0194 5C2D     		cmp	r5, #92
 415 0196 D0D0     		beq	.L29
 416 0198 622D     		cmp	r5, #98
 417 019a 4DD1     		bne	.L171
 418 019c CDE7     		b	.L29
 419              	.L31:
 420 019e 722D     		cmp	r5, #114
 421 01a0 CBD0     		beq	.L29
 422 01a2 02D8     		bhi	.L33
 423 01a4 6E2D     		cmp	r5, #110
 424 01a6 47D1     		bne	.L171
 425 01a8 C7E7     		b	.L29
 426              	.L33:
 427 01aa 742D     		cmp	r5, #116
 428 01ac C5D0     		beq	.L29
 429 01ae 752D     		cmp	r5, #117
 430 01b0 42D1     		bne	.L171
 126:.\Generated_Source\PSoC4/comm_jsmn.c **** 					parser->pos++;
 431              		.loc 1 126 0
 432 01b2 0232     		add	r2, r2, #2
 433 01b4 0260     		str	r2, [r0]
 434              	.LVL43:
 435 01b6 0426     		mov	r6, #4
 436              	.LVL44:
 437              	.L35:
 127:.\Generated_Source\PSoC4/comm_jsmn.c **** 					for(i = 0; i < 4 && parser->pos < len && js[parser->pos] != '\0'; i++) {
 438              		.loc 1 127 0
 439 01b8 0568     		ldr	r5, [r0]
 440 01ba 039F     		ldr	r7, [sp, #12]
 441 01bc BD42     		cmp	r5, r7
ARM GAS  C:\Users\SDEVAS~1\AppData\Local\Temp\cc2JaOll.s 			page 15


 442 01be 03D3     		bcc	.L176
 443              	.LVL45:
 444              	.L38:
 137:.\Generated_Source\PSoC4/comm_jsmn.c **** 					parser->pos--;
 445              		.loc 1 137 0
 446 01c0 0268     		ldr	r2, [r0]
 447 01c2 013A     		sub	r2, r2, #1
 448 01c4 0260     		str	r2, [r0]
 449 01c6 B8E7     		b	.L29
 450              	.LVL46:
 451              	.L176:
 127:.\Generated_Source\PSoC4/comm_jsmn.c **** 					for(i = 0; i < 4 && parser->pos < len && js[parser->pos] != '\0'; i++) {
 452              		.loc 1 127 0
 453 01c8 6746     		mov	r7, ip
 454 01ca 7A5D     		ldrb	r2, [r7, r5]
 455 01cc 002A     		cmp	r2, #0
 456 01ce F7D0     		beq	.L38
 457              	.LVL47:
 129:.\Generated_Source\PSoC4/comm_jsmn.c **** 						if(!((js[parser->pos] >= 48 && js[parser->pos] <= 57) || /* 0-9 */
 458              		.loc 1 129 0
 459 01d0 171C     		mov	r7, r2
 460              	.LVL48:
 461 01d2 303F     		sub	r7, r7, #48
 462 01d4 092F     		cmp	r7, #9
 463 01d6 04D9     		bls	.L36
 464 01d8 2027     		mov	r7, #32
 465 01da BA43     		bic	r2, r7
 466 01dc 413A     		sub	r2, r2, #65
 467 01de 052A     		cmp	r2, #5
 468 01e0 2AD8     		bhi	.L171
 469              	.L36:
 135:.\Generated_Source\PSoC4/comm_jsmn.c **** 						parser->pos++;
 470              		.loc 1 135 0
 471 01e2 0135     		add	r5, r5, #1
 472 01e4 013E     		sub	r6, r6, #1
 473              	.LVL49:
 474 01e6 0560     		str	r5, [r0]
 475              	.LVL50:
 127:.\Generated_Source\PSoC4/comm_jsmn.c **** 					for(i = 0; i < 4 && parser->pos < len && js[parser->pos] != '\0'; i++) {
 476              		.loc 1 127 0
 477 01e8 002E     		cmp	r6, #0
 478 01ea E5D1     		bne	.L35
 479 01ec E8E7     		b	.L38
 480              	.LVL51:
 481              	.L11:
 482              	.LBE33:
 483              	.LBE34:
 484              	.LBE35:
 485              	.LBE40:
 240:.\Generated_Source\PSoC4/comm_jsmn.c **** 				parser->toksuper = parser->toknext - 1;
 486              		.loc 1 240 0
 487 01ee 4268     		ldr	r2, [r0, #4]
 488 01f0 013A     		sub	r2, r2, #1
 489              	.LVL52:
 490              	.L167:
 491 01f2 8260     		str	r2, [r0, #8]
 241:.\Generated_Source\PSoC4/comm_jsmn.c **** 				break;
ARM GAS  C:\Users\SDEVAS~1\AppData\Local\Temp\cc2JaOll.s 			page 16


 492              		.loc 1 241 0
 493 01f4 64E0     		b	.L6
 494              	.LVL53:
 495              	.L4:
 243:.\Generated_Source\PSoC4/comm_jsmn.c **** 				if (tokens != NULL &&
 496              		.loc 1 243 0
 497 01f6 002B     		cmp	r3, #0
 498 01f8 62D0     		beq	.L6
 244:.\Generated_Source\PSoC4/comm_jsmn.c **** 						tokens[parser->toksuper].type != JSMN_ARRAY &&
 499              		.loc 1 244 0 discriminator 1
 500 01fa 8768     		ldr	r7, [r0, #8]
 501 01fc 3A01     		lsl	r2, r7, #4
 502 01fe D25C     		ldrb	r2, [r2, r3]
 503 0200 013A     		sub	r2, r2, #1
 504 0202 012A     		cmp	r2, #1
 505 0204 5CD9     		bls	.L6
 249:.\Generated_Source\PSoC4/comm_jsmn.c **** 					for (i = parser->toknext - 1; i >= 0; i--) {
 506              		.loc 1 249 0
 507 0206 4268     		ldr	r2, [r0, #4]
 508              	.LBE50:
 251:.\Generated_Source\PSoC4/comm_jsmn.c **** 							if (tokens[i].start != -1 && tokens[i].end == -1) {
 509              		.loc 1 251 0
 510 0208 214D     		ldr	r5, .L181
 511              	.LBB51:
 249:.\Generated_Source\PSoC4/comm_jsmn.c **** 					for (i = parser->toknext - 1; i >= 0; i--) {
 512              		.loc 1 249 0
 513 020a 511E     		sub	r1, r2, #1
 514              	.LVL54:
 515              	.LBE51:
 251:.\Generated_Source\PSoC4/comm_jsmn.c **** 							if (tokens[i].start != -1 && tokens[i].end == -1) {
 516              		.loc 1 251 0
 517 020c 5219     		add	r2, r2, r5
 518 020e 1201     		lsl	r2, r2, #4
 519 0210 9A18     		add	r2, r3, r2
 520 0212 0432     		add	r2, r2, #4
 521              	.LVL55:
 522              	.L43:
 523              	.LBB52:
 249:.\Generated_Source\PSoC4/comm_jsmn.c **** 					for (i = parser->toknext - 1; i >= 0; i--) {
 524              		.loc 1 249 0 discriminator 1
 525 0214 0029     		cmp	r1, #0
 526 0216 53DB     		blt	.L6
 527 0218 151F     		sub	r5, r2, #4
 250:.\Generated_Source\PSoC4/comm_jsmn.c **** 						if (tokens[i].type == JSMN_ARRAY || tokens[i].type == JSMN_OBJECT) {
 528              		.loc 1 250 0
 529 021a 2D78     		ldrb	r5, [r5]
 530 021c 013D     		sub	r5, r5, #1
 531 021e 012D     		cmp	r5, #1
 532 0220 07D8     		bhi	.L44
 251:.\Generated_Source\PSoC4/comm_jsmn.c **** 							if (tokens[i].start != -1 && tokens[i].end == -1) {
 533              		.loc 1 251 0
 534 0222 1668     		ldr	r6, [r2]
 535 0224 0136     		add	r6, r6, #1
 536 0226 04D0     		beq	.L44
 251:.\Generated_Source\PSoC4/comm_jsmn.c **** 							if (tokens[i].start != -1 && tokens[i].end == -1) {
 537              		.loc 1 251 0 is_stmt 0 discriminator 1
 538 0228 5768     		ldr	r7, [r2, #4]
ARM GAS  C:\Users\SDEVAS~1\AppData\Local\Temp\cc2JaOll.s 			page 17


 539 022a 0137     		add	r7, r7, #1
 540 022c 01D1     		bne	.L44
 252:.\Generated_Source\PSoC4/comm_jsmn.c **** 								parser->toksuper = i;
 541              		.loc 1 252 0 is_stmt 1
 542 022e 8160     		str	r1, [r0, #8]
 543              	.LVL56:
 253:.\Generated_Source\PSoC4/comm_jsmn.c **** 								break;
 544              		.loc 1 253 0
 545 0230 46E0     		b	.L6
 546              	.LVL57:
 547              	.L44:
 249:.\Generated_Source\PSoC4/comm_jsmn.c **** 					for (i = parser->toknext - 1; i >= 0; i--) {
 548              		.loc 1 249 0
 549 0232 0139     		sub	r1, r1, #1
 550              	.LVL58:
 551 0234 103A     		sub	r2, r2, #16
 552 0236 EDE7     		b	.L43
 553              	.LVL59:
 554              	.L171:
 555              	.LBB41:
 556              	.LBB42:
  55:.\Generated_Source\PSoC4/comm_jsmn.c **** 			parser->pos = start;
 557              		.loc 1 55 0
 558 0238 0160     		str	r1, [r0]
 559 023a 56E0     		b	.L69
 560              	.LVL60:
 561              	.L178:
  44:.\Generated_Source\PSoC4/comm_jsmn.c **** 	for (; parser->pos < len && js[parser->pos] != '\0'; parser->pos++) {
 562              		.loc 1 44 0
 563 023c 6646     		mov	r6, ip
 564              	.LVL61:
 565 023e B55C     		ldrb	r5, [r6, r2]
 566 0240 002D     		cmp	r5, #0
 567 0242 1DD0     		beq	.L48
 568              	.LVL62:
  45:.\Generated_Source\PSoC4/comm_jsmn.c **** 		switch (js[parser->pos]) {
 569              		.loc 1 45 0
 570 0244 202D     		cmp	r5, #32
 571 0246 1BD0     		beq	.L48
 572 0248 10D8     		bhi	.L49
 573 024a 092D     		cmp	r5, #9
 574 024c 09D2     		bcs	.L177
 575              	.L47:
  54:.\Generated_Source\PSoC4/comm_jsmn.c **** 		if (js[parser->pos] < 32 || js[parser->pos] >= 127) {
 576              		.loc 1 54 0
 577 024e 203D     		sub	r5, r5, #32
 578 0250 5E2D     		cmp	r5, #94
 579 0252 F1D8     		bhi	.L171
  44:.\Generated_Source\PSoC4/comm_jsmn.c **** 	for (; parser->pos < len && js[parser->pos] != '\0'; parser->pos++) {
 580              		.loc 1 44 0
 581 0254 0132     		add	r2, r2, #1
 582 0256 0260     		str	r2, [r0]
 583              	.L46:
 584 0258 0268     		ldr	r2, [r0]
 585 025a 039D     		ldr	r5, [sp, #12]
 586 025c AA42     		cmp	r2, r5
 587 025e EDD3     		bcc	.L178
ARM GAS  C:\Users\SDEVAS~1\AppData\Local\Temp\cc2JaOll.s 			page 18


 588 0260 0EE0     		b	.L48
 589              	.L177:
  45:.\Generated_Source\PSoC4/comm_jsmn.c **** 		switch (js[parser->pos]) {
 590              		.loc 1 45 0
 591 0262 0A2D     		cmp	r5, #10
 592 0264 0CD9     		bls	.L48
 593 0266 0D2D     		cmp	r5, #13
 594 0268 F1D1     		bne	.L47
 595 026a 09E0     		b	.L48
 596              	.L49:
 597 026c 3A2D     		cmp	r5, #58
 598 026e 07D0     		beq	.L48
 599 0270 02D8     		bhi	.L50
 600 0272 2C2D     		cmp	r5, #44
 601 0274 EBD1     		bne	.L47
 602 0276 03E0     		b	.L48
 603              	.L50:
 604 0278 5D2D     		cmp	r5, #93
 605 027a 01D0     		beq	.L48
 606 027c 7D2D     		cmp	r5, #125
 607 027e E6D1     		bne	.L47
 608              	.L48:
  66:.\Generated_Source\PSoC4/comm_jsmn.c **** 	if (tokens == NULL) {
 609              		.loc 1 66 0
 610 0280 002B     		cmp	r3, #0
 611 0282 10D0     		beq	.L168
 612              	.LVL63:
 613              	.LBB43:
 614              	.LBB44:
  11:.\Generated_Source\PSoC4/comm_jsmn.c **** 	if (parser->toknext >= num_tokens) {
 615              		.loc 1 11 0
 616 0284 4568     		ldr	r5, [r0, #4]
 617 0286 0A9F     		ldr	r7, [sp, #40]
 618 0288 BD42     		cmp	r5, r7
 619 028a 03D3     		bcc	.L56
 620              	.LVL64:
 621              	.L170:
 622              	.LBE44:
 623              	.LBE43:
  72:.\Generated_Source\PSoC4/comm_jsmn.c **** 		parser->pos = start;
 624              		.loc 1 72 0
 625 028c 0160     		str	r1, [r0]
 626 028e 2AE0     		b	.L65
 627              	.L182:
 628              		.align	2
 629              	.L181:
 630 0290 FFFFFF0F 		.word	268435455
 631              	.LVL65:
 632              	.L56:
 633              	.LBB46:
 634              	.LBB45:
  14:.\Generated_Source\PSoC4/comm_jsmn.c **** 	tok = &tokens[parser->toknext++];
 635              		.loc 1 14 0
 636 0294 6E1C     		add	r6, r5, #1
 637              	.LVL66:
 638 0296 2D01     		lsl	r5, r5, #4
 639 0298 4660     		str	r6, [r0, #4]
ARM GAS  C:\Users\SDEVAS~1\AppData\Local\Temp\cc2JaOll.s 			page 19


 640 029a 5D19     		add	r5, r3, r5
 641              	.LVL67:
  16:.\Generated_Source\PSoC4/comm_jsmn.c **** 	tok->size = 0;
 642              		.loc 1 16 0
 643 029c 0026     		mov	r6, #0
 644 029e EE60     		str	r6, [r5, #12]
 645              	.LVL68:
 646              	.LBE45:
 647              	.LBE46:
 648              	.LBB47:
 649              	.LBB48:
  28:.\Generated_Source\PSoC4/comm_jsmn.c **** 	token->type = type;
 650              		.loc 1 28 0
 651 02a0 2E70     		strb	r6, [r5]
  29:.\Generated_Source\PSoC4/comm_jsmn.c **** 	token->start = start;
 652              		.loc 1 29 0
 653 02a2 6960     		str	r1, [r5, #4]
  30:.\Generated_Source\PSoC4/comm_jsmn.c **** 	token->end = end;
 654              		.loc 1 30 0
 655 02a4 AA60     		str	r2, [r5, #8]
 656              	.LVL69:
 657              	.L168:
 658              	.LBE48:
 659              	.LBE47:
  79:.\Generated_Source\PSoC4/comm_jsmn.c **** 	parser->pos--;
 660              		.loc 1 79 0
 661 02a6 013A     		sub	r2, r2, #1
 662 02a8 0260     		str	r2, [r0]
 663              	.L55:
 664              	.LBE42:
 665              	.LBE41:
 280:.\Generated_Source\PSoC4/comm_jsmn.c **** 				if (parser->toksuper != -1 && tokens != NULL)
 666              		.loc 1 280 0
 667 02aa 8268     		ldr	r2, [r0, #8]
 279:.\Generated_Source\PSoC4/comm_jsmn.c **** 				count++;
 668              		.loc 1 279 0
 669 02ac 0134     		add	r4, r4, #1
 670              	.LVL70:
 280:.\Generated_Source\PSoC4/comm_jsmn.c **** 				if (parser->toksuper != -1 && tokens != NULL)
 671              		.loc 1 280 0
 672 02ae 551C     		add	r5, r2, #1
 673 02b0 06D0     		beq	.L6
 280:.\Generated_Source\PSoC4/comm_jsmn.c **** 				if (parser->toksuper != -1 && tokens != NULL)
 674              		.loc 1 280 0 is_stmt 0 discriminator 1
 675 02b2 002B     		cmp	r3, #0
 676 02b4 04D0     		beq	.L6
 281:.\Generated_Source\PSoC4/comm_jsmn.c **** 					tokens[parser->toksuper].size++;
 677              		.loc 1 281 0 is_stmt 1
 678 02b6 1201     		lsl	r2, r2, #4
 679 02b8 9A18     		add	r2, r3, r2
 680 02ba D168     		ldr	r1, [r2, #12]
 681 02bc 0131     		add	r1, r1, #1
 682 02be D160     		str	r1, [r2, #12]
 683              	.L6:
 684              	.LBE52:
 160:.\Generated_Source\PSoC4/comm_jsmn.c **** 	for (; parser->pos < len && js[parser->pos] != '\0'; parser->pos++) {
 685              		.loc 1 160 0
ARM GAS  C:\Users\SDEVAS~1\AppData\Local\Temp\cc2JaOll.s 			page 20


 686 02c0 0268     		ldr	r2, [r0]
 687 02c2 0132     		add	r2, r2, #1
 688 02c4 0260     		str	r2, [r0]
 689 02c6 A0E6     		b	.L2
 690              	.LVL71:
 691              	.L62:
 692 02c8 191F     		sub	r1, r3, #4
 693              		.loc 1 294 0
 694 02ca 0968     		ldr	r1, [r1]
 695 02cc 0131     		add	r1, r1, #1
 696 02ce 04D1     		bne	.L179
 697              	.L61:
 292:.\Generated_Source\PSoC4/comm_jsmn.c **** 	for (i = parser->toknext - 1; i >= 0; i--) {
 698              		.loc 1 292 0
 699 02d0 013A     		sub	r2, r2, #1
 700              	.LVL72:
 701 02d2 103B     		sub	r3, r3, #16
 702              	.L58:
 292:.\Generated_Source\PSoC4/comm_jsmn.c **** 	for (i = parser->toknext - 1; i >= 0; i--) {
 703              		.loc 1 292 0 is_stmt 0 discriminator 1
 704 02d4 002A     		cmp	r2, #0
 705 02d6 F7DA     		bge	.L62
 706 02d8 03E0     		b	.L180
 707              	.L179:
 708              		.loc 1 294 0 is_stmt 1 discriminator 1
 709 02da 1F68     		ldr	r7, [r3]
 710 02dc 0137     		add	r7, r7, #1
 711 02de F7D1     		bne	.L61
 712 02e0 05E0     		b	.L70
 713              	.L180:
 295:.\Generated_Source\PSoC4/comm_jsmn.c **** 			return JSMN_ERROR_PART;
 296:.\Generated_Source\PSoC4/comm_jsmn.c **** 		}
 297:.\Generated_Source\PSoC4/comm_jsmn.c **** 	}
 298:.\Generated_Source\PSoC4/comm_jsmn.c **** 
 299:.\Generated_Source\PSoC4/comm_jsmn.c **** 	return count;
 714              		.loc 1 299 0
 715 02e2 E4B2     		uxtb	r4, r4
 716              	.LVL73:
 717 02e4 04E0     		b	.L13
 718              	.LVL74:
 719              	.L65:
 720              	.LBB53:
 173:.\Generated_Source\PSoC4/comm_jsmn.c **** 					return JSMN_ERROR_NOMEM;
 721              		.loc 1 173 0
 722 02e6 FF24     		mov	r4, #255
 723              	.LVL75:
 724 02e8 02E0     		b	.L13
 725              	.LVL76:
 726              	.L69:
 212:.\Generated_Source\PSoC4/comm_jsmn.c **** 							return JSMN_ERROR_INVAL;
 727              		.loc 1 212 0
 728 02ea FE24     		mov	r4, #254
 729              	.LVL77:
 730 02ec 00E0     		b	.L13
 731              	.LVL78:
 732              	.L70:
 733              	.LBE53:
ARM GAS  C:\Users\SDEVAS~1\AppData\Local\Temp\cc2JaOll.s 			page 21


 295:.\Generated_Source\PSoC4/comm_jsmn.c **** 			return JSMN_ERROR_PART;
 734              		.loc 1 295 0
 735 02ee FD24     		mov	r4, #253
 736              	.LVL79:
 737              	.L13:
 738 02f0 60B2     		sxtb	r0, r4
 739              	.LVL80:
 300:.\Generated_Source\PSoC4/comm_jsmn.c **** }
 740              		.loc 1 300 0
 741 02f2 05B0     		add	sp, sp, #20
 742              		@ sp needed
 743 02f4 F0BD     		pop	{r4, r5, r6, r7, pc}
 744              		.cfi_endproc
 745              	.LFE37:
 746              		.size	jsmn_parse, .-jsmn_parse
 747 02f6 C046     		.section	.text.jsmn_init,"ax",%progbits
 748              		.align	1
 749              		.global	jsmn_init
 750              		.code	16
 751              		.thumb_func
 752              		.type	jsmn_init, %function
 753              	jsmn_init:
 754              	.LFB38:
 301:.\Generated_Source\PSoC4/comm_jsmn.c **** 
 302:.\Generated_Source\PSoC4/comm_jsmn.c **** /**
 303:.\Generated_Source\PSoC4/comm_jsmn.c ****  * Creates a new parser based over a given  buffer with an array of tokens
 304:.\Generated_Source\PSoC4/comm_jsmn.c ****  * available.
 305:.\Generated_Source\PSoC4/comm_jsmn.c ****  */
 306:.\Generated_Source\PSoC4/comm_jsmn.c **** void jsmn_init(jsmn_parser *parser) {
 755              		.loc 1 306 0
 756              		.cfi_startproc
 757              	.LVL81:
 307:.\Generated_Source\PSoC4/comm_jsmn.c **** 	parser->pos = 0;
 758              		.loc 1 307 0
 759 0000 0023     		mov	r3, #0
 760 0002 0360     		str	r3, [r0]
 308:.\Generated_Source\PSoC4/comm_jsmn.c **** 	parser->toknext = 0;
 761              		.loc 1 308 0
 762 0004 4360     		str	r3, [r0, #4]
 309:.\Generated_Source\PSoC4/comm_jsmn.c **** 	parser->toksuper = -1;
 763              		.loc 1 309 0
 764 0006 0123     		mov	r3, #1
 765 0008 5B42     		neg	r3, r3
 766 000a 8360     		str	r3, [r0, #8]
 310:.\Generated_Source\PSoC4/comm_jsmn.c **** }
 767              		.loc 1 310 0
 768              		@ sp needed
 769 000c 7047     		bx	lr
 770              		.cfi_endproc
 771              	.LFE38:
 772              		.size	jsmn_init, .-jsmn_init
 773              		.text
 774              	.Letext0:
 775              		.file 2 "c:\\program files (x86)\\cypress\\psoc creator\\3.2\\psoc creator\\import\\gnu\\arm\\4.8.
 776              		.file 3 "Generated_Source\\PSoC4/comm_jsmn.h"