ARM GAS  C:\Users\SDEVAS~1\AppData\Local\Temp\cckzAJqC.s 			page 1


   1              		.cpu cortex-m0
   2              		.fpu softvfp
   3              		.eabi_attribute 20, 1
   4              		.eabi_attribute 21, 1
   5              		.eabi_attribute 23, 3
   6              		.eabi_attribute 24, 1
   7              		.eabi_attribute 25, 1
   8              		.eabi_attribute 26, 1
   9              		.eabi_attribute 30, 4
  10              		.eabi_attribute 34, 0
  11              		.eabi_attribute 18, 4
  12              		.code	16
  13              		.file	"comm_RS485_UART_SPI_UART.c"
  14              		.text
  15              	.Ltext0:
  16              		.cfi_sections	.debug_frame
  17              		.section	.text.comm_RS485_UART_SpiUartReadRxData,"ax",%progbits
  18              		.align	1
  19              		.global	comm_RS485_UART_SpiUartReadRxData
  20              		.code	16
  21              		.thumb_func
  22              		.type	comm_RS485_UART_SpiUartReadRxData, %function
  23              	comm_RS485_UART_SpiUartReadRxData:
  24              	.LFB0:
  25              		.file 1 ".\\Generated_Source\\PSoC4\\comm_RS485_UART_SPI_UART.c"
   1:.\Generated_Source\PSoC4/comm_RS485_UART_SPI_UART.c **** /*******************************************************************************
   2:.\Generated_Source\PSoC4/comm_RS485_UART_SPI_UART.c **** * File Name: comm_RS485_UART_SPI_UART.c
   3:.\Generated_Source\PSoC4/comm_RS485_UART_SPI_UART.c **** * Version 2.0
   4:.\Generated_Source\PSoC4/comm_RS485_UART_SPI_UART.c **** *
   5:.\Generated_Source\PSoC4/comm_RS485_UART_SPI_UART.c **** * Description:
   6:.\Generated_Source\PSoC4/comm_RS485_UART_SPI_UART.c **** *  This file provides the source code to the API for the SCB Component in
   7:.\Generated_Source\PSoC4/comm_RS485_UART_SPI_UART.c **** *  SPI and UART modes.
   8:.\Generated_Source\PSoC4/comm_RS485_UART_SPI_UART.c **** *
   9:.\Generated_Source\PSoC4/comm_RS485_UART_SPI_UART.c **** * Note:
  10:.\Generated_Source\PSoC4/comm_RS485_UART_SPI_UART.c **** *
  11:.\Generated_Source\PSoC4/comm_RS485_UART_SPI_UART.c **** *******************************************************************************
  12:.\Generated_Source\PSoC4/comm_RS485_UART_SPI_UART.c **** * Copyright 2013-2014, Cypress Semiconductor Corporation.  All rights reserved.
  13:.\Generated_Source\PSoC4/comm_RS485_UART_SPI_UART.c **** * You may use this file only in accordance with the license, terms, conditions,
  14:.\Generated_Source\PSoC4/comm_RS485_UART_SPI_UART.c **** * disclaimers, and limitations in the end user license agreement accompanying
  15:.\Generated_Source\PSoC4/comm_RS485_UART_SPI_UART.c **** * the software package with which this file was provided.
  16:.\Generated_Source\PSoC4/comm_RS485_UART_SPI_UART.c **** *******************************************************************************/
  17:.\Generated_Source\PSoC4/comm_RS485_UART_SPI_UART.c **** 
  18:.\Generated_Source\PSoC4/comm_RS485_UART_SPI_UART.c **** #include "comm_RS485_UART_PVT.h"
  19:.\Generated_Source\PSoC4/comm_RS485_UART_SPI_UART.c **** #include "comm_RS485_UART_SPI_UART_PVT.h"
  20:.\Generated_Source\PSoC4/comm_RS485_UART_SPI_UART.c **** 
  21:.\Generated_Source\PSoC4/comm_RS485_UART_SPI_UART.c **** /***************************************
  22:.\Generated_Source\PSoC4/comm_RS485_UART_SPI_UART.c **** *        SPI/UART Private Vars
  23:.\Generated_Source\PSoC4/comm_RS485_UART_SPI_UART.c **** ***************************************/
  24:.\Generated_Source\PSoC4/comm_RS485_UART_SPI_UART.c **** 
  25:.\Generated_Source\PSoC4/comm_RS485_UART_SPI_UART.c **** #if(comm_RS485_UART_INTERNAL_RX_SW_BUFFER_CONST)
  26:.\Generated_Source\PSoC4/comm_RS485_UART_SPI_UART.c ****     volatile uint32 comm_RS485_UART_rxBufferHead;
  27:.\Generated_Source\PSoC4/comm_RS485_UART_SPI_UART.c ****     volatile uint32 comm_RS485_UART_rxBufferTail;
  28:.\Generated_Source\PSoC4/comm_RS485_UART_SPI_UART.c ****     volatile uint8  comm_RS485_UART_rxBufferOverflow;
  29:.\Generated_Source\PSoC4/comm_RS485_UART_SPI_UART.c **** #endif /* (comm_RS485_UART_INTERNAL_RX_SW_BUFFER_CONST) */
  30:.\Generated_Source\PSoC4/comm_RS485_UART_SPI_UART.c **** 
  31:.\Generated_Source\PSoC4/comm_RS485_UART_SPI_UART.c **** #if(comm_RS485_UART_INTERNAL_TX_SW_BUFFER_CONST)
  32:.\Generated_Source\PSoC4/comm_RS485_UART_SPI_UART.c ****     volatile uint32 comm_RS485_UART_txBufferHead;
ARM GAS  C:\Users\SDEVAS~1\AppData\Local\Temp\cckzAJqC.s 			page 2


  33:.\Generated_Source\PSoC4/comm_RS485_UART_SPI_UART.c ****     volatile uint32 comm_RS485_UART_txBufferTail;
  34:.\Generated_Source\PSoC4/comm_RS485_UART_SPI_UART.c **** #endif /* (comm_RS485_UART_INTERNAL_TX_SW_BUFFER_CONST) */
  35:.\Generated_Source\PSoC4/comm_RS485_UART_SPI_UART.c **** 
  36:.\Generated_Source\PSoC4/comm_RS485_UART_SPI_UART.c **** #if(comm_RS485_UART_INTERNAL_RX_SW_BUFFER)
  37:.\Generated_Source\PSoC4/comm_RS485_UART_SPI_UART.c ****     /* Add one element to the buffer to receive full packet. One byte in receive buffer is always e
  38:.\Generated_Source\PSoC4/comm_RS485_UART_SPI_UART.c ****     volatile uint16 comm_RS485_UART_rxBufferInternal[comm_RS485_UART_RX_BUFFER_SIZE];
  39:.\Generated_Source\PSoC4/comm_RS485_UART_SPI_UART.c **** #endif /* (comm_RS485_UART_INTERNAL_RX_SW_BUFFER) */
  40:.\Generated_Source\PSoC4/comm_RS485_UART_SPI_UART.c **** 
  41:.\Generated_Source\PSoC4/comm_RS485_UART_SPI_UART.c **** #if(comm_RS485_UART_INTERNAL_TX_SW_BUFFER)
  42:.\Generated_Source\PSoC4/comm_RS485_UART_SPI_UART.c ****     volatile uint16 comm_RS485_UART_txBufferInternal[comm_RS485_UART_TX_BUFFER_SIZE];
  43:.\Generated_Source\PSoC4/comm_RS485_UART_SPI_UART.c **** #endif /* (comm_RS485_UART_INTERNAL_TX_SW_BUFFER) */
  44:.\Generated_Source\PSoC4/comm_RS485_UART_SPI_UART.c **** 
  45:.\Generated_Source\PSoC4/comm_RS485_UART_SPI_UART.c **** 
  46:.\Generated_Source\PSoC4/comm_RS485_UART_SPI_UART.c **** #if(comm_RS485_UART_RX_DIRECTION)
  47:.\Generated_Source\PSoC4/comm_RS485_UART_SPI_UART.c **** 
  48:.\Generated_Source\PSoC4/comm_RS485_UART_SPI_UART.c ****     /*******************************************************************************
  49:.\Generated_Source\PSoC4/comm_RS485_UART_SPI_UART.c ****     * Function Name: comm_RS485_UART_SpiUartReadRxData
  50:.\Generated_Source\PSoC4/comm_RS485_UART_SPI_UART.c ****     ********************************************************************************
  51:.\Generated_Source\PSoC4/comm_RS485_UART_SPI_UART.c ****     *
  52:.\Generated_Source\PSoC4/comm_RS485_UART_SPI_UART.c ****     * Summary:
  53:.\Generated_Source\PSoC4/comm_RS485_UART_SPI_UART.c ****     *  Retrieves the next data element from the receive buffer.
  54:.\Generated_Source\PSoC4/comm_RS485_UART_SPI_UART.c ****     *   - RX software buffer is disabled: Returns data element retrieved from
  55:.\Generated_Source\PSoC4/comm_RS485_UART_SPI_UART.c ****     *     RX FIFO. Undefined data will be returned if the RX FIFO is empty.
  56:.\Generated_Source\PSoC4/comm_RS485_UART_SPI_UART.c ****     *   - RX software buffer is enabled: Returns data element from the software
  57:.\Generated_Source\PSoC4/comm_RS485_UART_SPI_UART.c ****     *     receive buffer. Zero value is returned if the software receive buffer
  58:.\Generated_Source\PSoC4/comm_RS485_UART_SPI_UART.c ****     *     is empty.
  59:.\Generated_Source\PSoC4/comm_RS485_UART_SPI_UART.c ****     *
  60:.\Generated_Source\PSoC4/comm_RS485_UART_SPI_UART.c ****     * Parameters:
  61:.\Generated_Source\PSoC4/comm_RS485_UART_SPI_UART.c ****     *  None
  62:.\Generated_Source\PSoC4/comm_RS485_UART_SPI_UART.c ****     *
  63:.\Generated_Source\PSoC4/comm_RS485_UART_SPI_UART.c ****     * Return:
  64:.\Generated_Source\PSoC4/comm_RS485_UART_SPI_UART.c ****     *  Next data element from the receive buffer.
  65:.\Generated_Source\PSoC4/comm_RS485_UART_SPI_UART.c ****     *
  66:.\Generated_Source\PSoC4/comm_RS485_UART_SPI_UART.c ****     * Global Variables:
  67:.\Generated_Source\PSoC4/comm_RS485_UART_SPI_UART.c ****     *  Look into comm_RS485_UART_SpiInit for description.
  68:.\Generated_Source\PSoC4/comm_RS485_UART_SPI_UART.c ****     *
  69:.\Generated_Source\PSoC4/comm_RS485_UART_SPI_UART.c ****     *******************************************************************************/
  70:.\Generated_Source\PSoC4/comm_RS485_UART_SPI_UART.c ****     uint32 comm_RS485_UART_SpiUartReadRxData(void)
  71:.\Generated_Source\PSoC4/comm_RS485_UART_SPI_UART.c ****     {
  26              		.loc 1 71 0
  27              		.cfi_startproc
  28              	.LVL0:
  72:.\Generated_Source\PSoC4/comm_RS485_UART_SPI_UART.c ****         uint32 rxData = 0u;
  73:.\Generated_Source\PSoC4/comm_RS485_UART_SPI_UART.c **** 
  74:.\Generated_Source\PSoC4/comm_RS485_UART_SPI_UART.c ****         #if(comm_RS485_UART_INTERNAL_RX_SW_BUFFER_CONST)
  75:.\Generated_Source\PSoC4/comm_RS485_UART_SPI_UART.c ****             uint32 locTail;
  76:.\Generated_Source\PSoC4/comm_RS485_UART_SPI_UART.c ****         #endif /* (comm_RS485_UART_INTERNAL_RX_SW_BUFFER_CONST) */
  77:.\Generated_Source\PSoC4/comm_RS485_UART_SPI_UART.c **** 
  78:.\Generated_Source\PSoC4/comm_RS485_UART_SPI_UART.c ****         #if(comm_RS485_UART_CHECK_RX_SW_BUFFER)
  79:.\Generated_Source\PSoC4/comm_RS485_UART_SPI_UART.c ****         {
  80:.\Generated_Source\PSoC4/comm_RS485_UART_SPI_UART.c ****             if(comm_RS485_UART_rxBufferHead != comm_RS485_UART_rxBufferTail)
  81:.\Generated_Source\PSoC4/comm_RS485_UART_SPI_UART.c ****             {
  82:.\Generated_Source\PSoC4/comm_RS485_UART_SPI_UART.c ****                 /* There is data in RX software buffer */
  83:.\Generated_Source\PSoC4/comm_RS485_UART_SPI_UART.c **** 
  84:.\Generated_Source\PSoC4/comm_RS485_UART_SPI_UART.c ****                 /* Calculate index to read from */
  85:.\Generated_Source\PSoC4/comm_RS485_UART_SPI_UART.c ****                 locTail = (comm_RS485_UART_rxBufferTail + 1u);
  86:.\Generated_Source\PSoC4/comm_RS485_UART_SPI_UART.c **** 
ARM GAS  C:\Users\SDEVAS~1\AppData\Local\Temp\cckzAJqC.s 			page 3


  87:.\Generated_Source\PSoC4/comm_RS485_UART_SPI_UART.c ****                 if(comm_RS485_UART_RX_BUFFER_SIZE == locTail)
  88:.\Generated_Source\PSoC4/comm_RS485_UART_SPI_UART.c ****                 {
  89:.\Generated_Source\PSoC4/comm_RS485_UART_SPI_UART.c ****                     locTail = 0u;
  90:.\Generated_Source\PSoC4/comm_RS485_UART_SPI_UART.c ****                 }
  91:.\Generated_Source\PSoC4/comm_RS485_UART_SPI_UART.c **** 
  92:.\Generated_Source\PSoC4/comm_RS485_UART_SPI_UART.c ****                 /* Get data from RX software buffer */
  93:.\Generated_Source\PSoC4/comm_RS485_UART_SPI_UART.c ****                 rxData = comm_RS485_UART_GetWordFromRxBuffer(locTail);
  94:.\Generated_Source\PSoC4/comm_RS485_UART_SPI_UART.c **** 
  95:.\Generated_Source\PSoC4/comm_RS485_UART_SPI_UART.c ****                 /* Change index in the buffer */
  96:.\Generated_Source\PSoC4/comm_RS485_UART_SPI_UART.c ****                 comm_RS485_UART_rxBufferTail = locTail;
  97:.\Generated_Source\PSoC4/comm_RS485_UART_SPI_UART.c ****             }
  98:.\Generated_Source\PSoC4/comm_RS485_UART_SPI_UART.c ****         }
  99:.\Generated_Source\PSoC4/comm_RS485_UART_SPI_UART.c ****         #else
 100:.\Generated_Source\PSoC4/comm_RS485_UART_SPI_UART.c ****         {
 101:.\Generated_Source\PSoC4/comm_RS485_UART_SPI_UART.c ****             rxData = comm_RS485_UART_RX_FIFO_RD_REG; /* Read data from RX FIFO */
  29              		.loc 1 101 0
  30 0000 014B     		ldr	r3, .L2
 102:.\Generated_Source\PSoC4/comm_RS485_UART_SPI_UART.c ****         }
 103:.\Generated_Source\PSoC4/comm_RS485_UART_SPI_UART.c ****         #endif
 104:.\Generated_Source\PSoC4/comm_RS485_UART_SPI_UART.c **** 
 105:.\Generated_Source\PSoC4/comm_RS485_UART_SPI_UART.c ****         return(rxData);
 106:.\Generated_Source\PSoC4/comm_RS485_UART_SPI_UART.c ****     }
  31              		.loc 1 106 0
  32              		@ sp needed
 101:.\Generated_Source\PSoC4/comm_RS485_UART_SPI_UART.c ****             rxData = comm_RS485_UART_RX_FIFO_RD_REG; /* Read data from RX FIFO */
  33              		.loc 1 101 0
  34 0002 1868     		ldr	r0, [r3]
  35              	.LVL1:
  36              		.loc 1 106 0
  37 0004 7047     		bx	lr
  38              	.L3:
  39 0006 C046     		.align	2
  40              	.L2:
  41 0008 40030640 		.word	1074135872
  42              		.cfi_endproc
  43              	.LFE0:
  44              		.size	comm_RS485_UART_SpiUartReadRxData, .-comm_RS485_UART_SpiUartReadRxData
  45              		.section	.text.comm_RS485_UART_SpiUartGetRxBufferSize,"ax",%progbits
  46              		.align	1
  47              		.global	comm_RS485_UART_SpiUartGetRxBufferSize
  48              		.code	16
  49              		.thumb_func
  50              		.type	comm_RS485_UART_SpiUartGetRxBufferSize, %function
  51              	comm_RS485_UART_SpiUartGetRxBufferSize:
  52              	.LFB1:
 107:.\Generated_Source\PSoC4/comm_RS485_UART_SPI_UART.c **** 
 108:.\Generated_Source\PSoC4/comm_RS485_UART_SPI_UART.c **** 
 109:.\Generated_Source\PSoC4/comm_RS485_UART_SPI_UART.c ****     /*******************************************************************************
 110:.\Generated_Source\PSoC4/comm_RS485_UART_SPI_UART.c ****     * Function Name: comm_RS485_UART_SpiUartGetRxBufferSize
 111:.\Generated_Source\PSoC4/comm_RS485_UART_SPI_UART.c ****     ********************************************************************************
 112:.\Generated_Source\PSoC4/comm_RS485_UART_SPI_UART.c ****     *
 113:.\Generated_Source\PSoC4/comm_RS485_UART_SPI_UART.c ****     * Summary:
 114:.\Generated_Source\PSoC4/comm_RS485_UART_SPI_UART.c ****     *  Returns the number of received data elements in the receive buffer.
 115:.\Generated_Source\PSoC4/comm_RS485_UART_SPI_UART.c ****     *   - RX software buffer disabled: returns the number of used entries in
 116:.\Generated_Source\PSoC4/comm_RS485_UART_SPI_UART.c ****     *     RX FIFO.
 117:.\Generated_Source\PSoC4/comm_RS485_UART_SPI_UART.c ****     *   - RX software buffer enabled: returns the number of elements which were
 118:.\Generated_Source\PSoC4/comm_RS485_UART_SPI_UART.c ****     *     placed in the receive buffer. This does not include the hardware RX FIFO.
ARM GAS  C:\Users\SDEVAS~1\AppData\Local\Temp\cckzAJqC.s 			page 4


 119:.\Generated_Source\PSoC4/comm_RS485_UART_SPI_UART.c ****     *
 120:.\Generated_Source\PSoC4/comm_RS485_UART_SPI_UART.c ****     * Parameters:
 121:.\Generated_Source\PSoC4/comm_RS485_UART_SPI_UART.c ****     *  None
 122:.\Generated_Source\PSoC4/comm_RS485_UART_SPI_UART.c ****     *
 123:.\Generated_Source\PSoC4/comm_RS485_UART_SPI_UART.c ****     * Return:
 124:.\Generated_Source\PSoC4/comm_RS485_UART_SPI_UART.c ****     *  Number of received data elements
 125:.\Generated_Source\PSoC4/comm_RS485_UART_SPI_UART.c ****     *
 126:.\Generated_Source\PSoC4/comm_RS485_UART_SPI_UART.c ****     *******************************************************************************/
 127:.\Generated_Source\PSoC4/comm_RS485_UART_SPI_UART.c ****     uint32 comm_RS485_UART_SpiUartGetRxBufferSize(void)
 128:.\Generated_Source\PSoC4/comm_RS485_UART_SPI_UART.c ****     {
  53              		.loc 1 128 0
  54              		.cfi_startproc
 129:.\Generated_Source\PSoC4/comm_RS485_UART_SPI_UART.c ****         uint32 size;
 130:.\Generated_Source\PSoC4/comm_RS485_UART_SPI_UART.c ****         #if(comm_RS485_UART_INTERNAL_RX_SW_BUFFER_CONST)
 131:.\Generated_Source\PSoC4/comm_RS485_UART_SPI_UART.c ****             uint32 locHead;
 132:.\Generated_Source\PSoC4/comm_RS485_UART_SPI_UART.c ****         #endif /* (comm_RS485_UART_INTERNAL_RX_SW_BUFFER_CONST) */
 133:.\Generated_Source\PSoC4/comm_RS485_UART_SPI_UART.c **** 
 134:.\Generated_Source\PSoC4/comm_RS485_UART_SPI_UART.c ****         #if(comm_RS485_UART_CHECK_RX_SW_BUFFER)
 135:.\Generated_Source\PSoC4/comm_RS485_UART_SPI_UART.c ****         {
 136:.\Generated_Source\PSoC4/comm_RS485_UART_SPI_UART.c ****             locHead = comm_RS485_UART_rxBufferHead;
 137:.\Generated_Source\PSoC4/comm_RS485_UART_SPI_UART.c **** 
 138:.\Generated_Source\PSoC4/comm_RS485_UART_SPI_UART.c ****             if(locHead >= comm_RS485_UART_rxBufferTail)
 139:.\Generated_Source\PSoC4/comm_RS485_UART_SPI_UART.c ****             {
 140:.\Generated_Source\PSoC4/comm_RS485_UART_SPI_UART.c ****                 size = (locHead - comm_RS485_UART_rxBufferTail);
 141:.\Generated_Source\PSoC4/comm_RS485_UART_SPI_UART.c ****             }
 142:.\Generated_Source\PSoC4/comm_RS485_UART_SPI_UART.c ****             else
 143:.\Generated_Source\PSoC4/comm_RS485_UART_SPI_UART.c ****             {
 144:.\Generated_Source\PSoC4/comm_RS485_UART_SPI_UART.c ****                 size = (locHead + (comm_RS485_UART_RX_BUFFER_SIZE - comm_RS485_UART_rxBufferTail));
 145:.\Generated_Source\PSoC4/comm_RS485_UART_SPI_UART.c ****             }
 146:.\Generated_Source\PSoC4/comm_RS485_UART_SPI_UART.c ****         }
 147:.\Generated_Source\PSoC4/comm_RS485_UART_SPI_UART.c ****         #else
 148:.\Generated_Source\PSoC4/comm_RS485_UART_SPI_UART.c ****         {
 149:.\Generated_Source\PSoC4/comm_RS485_UART_SPI_UART.c ****             size = comm_RS485_UART_GET_RX_FIFO_ENTRIES;
  55              		.loc 1 149 0
  56 0000 024B     		ldr	r3, .L5
 150:.\Generated_Source\PSoC4/comm_RS485_UART_SPI_UART.c ****         }
 151:.\Generated_Source\PSoC4/comm_RS485_UART_SPI_UART.c ****         #endif
 152:.\Generated_Source\PSoC4/comm_RS485_UART_SPI_UART.c **** 
 153:.\Generated_Source\PSoC4/comm_RS485_UART_SPI_UART.c ****         return(size);
 154:.\Generated_Source\PSoC4/comm_RS485_UART_SPI_UART.c ****     }
  57              		.loc 1 154 0
  58              		@ sp needed
 149:.\Generated_Source\PSoC4/comm_RS485_UART_SPI_UART.c ****             size = comm_RS485_UART_GET_RX_FIFO_ENTRIES;
  59              		.loc 1 149 0
  60 0002 1868     		ldr	r0, [r3]
  61              	.LVL2:
  62 0004 0F23     		mov	r3, #15
  63 0006 1840     		and	r0, r3
  64              	.LVL3:
  65              		.loc 1 154 0
  66 0008 7047     		bx	lr
  67              	.L6:
  68 000a C046     		.align	2
  69              	.L5:
  70 000c 08030640 		.word	1074135816
  71              		.cfi_endproc
  72              	.LFE1:
ARM GAS  C:\Users\SDEVAS~1\AppData\Local\Temp\cckzAJqC.s 			page 5


  73              		.size	comm_RS485_UART_SpiUartGetRxBufferSize, .-comm_RS485_UART_SpiUartGetRxBufferSize
  74              		.section	.text.comm_RS485_UART_SpiUartClearRxBuffer,"ax",%progbits
  75              		.align	1
  76              		.global	comm_RS485_UART_SpiUartClearRxBuffer
  77              		.code	16
  78              		.thumb_func
  79              		.type	comm_RS485_UART_SpiUartClearRxBuffer, %function
  80              	comm_RS485_UART_SpiUartClearRxBuffer:
  81              	.LFB2:
 155:.\Generated_Source\PSoC4/comm_RS485_UART_SPI_UART.c **** 
 156:.\Generated_Source\PSoC4/comm_RS485_UART_SPI_UART.c **** 
 157:.\Generated_Source\PSoC4/comm_RS485_UART_SPI_UART.c ****     /*******************************************************************************
 158:.\Generated_Source\PSoC4/comm_RS485_UART_SPI_UART.c ****     * Function Name: comm_RS485_UART_SpiUartClearRxBuffer
 159:.\Generated_Source\PSoC4/comm_RS485_UART_SPI_UART.c ****     ********************************************************************************
 160:.\Generated_Source\PSoC4/comm_RS485_UART_SPI_UART.c ****     *
 161:.\Generated_Source\PSoC4/comm_RS485_UART_SPI_UART.c ****     * Summary:
 162:.\Generated_Source\PSoC4/comm_RS485_UART_SPI_UART.c ****     *  Clears the receive buffer and RX FIFO.
 163:.\Generated_Source\PSoC4/comm_RS485_UART_SPI_UART.c ****     *
 164:.\Generated_Source\PSoC4/comm_RS485_UART_SPI_UART.c ****     * Parameters:
 165:.\Generated_Source\PSoC4/comm_RS485_UART_SPI_UART.c ****     *  None
 166:.\Generated_Source\PSoC4/comm_RS485_UART_SPI_UART.c ****     *
 167:.\Generated_Source\PSoC4/comm_RS485_UART_SPI_UART.c ****     * Return:
 168:.\Generated_Source\PSoC4/comm_RS485_UART_SPI_UART.c ****     *  None
 169:.\Generated_Source\PSoC4/comm_RS485_UART_SPI_UART.c ****     *
 170:.\Generated_Source\PSoC4/comm_RS485_UART_SPI_UART.c ****     *******************************************************************************/
 171:.\Generated_Source\PSoC4/comm_RS485_UART_SPI_UART.c ****     void comm_RS485_UART_SpiUartClearRxBuffer(void)
 172:.\Generated_Source\PSoC4/comm_RS485_UART_SPI_UART.c ****     {
  82              		.loc 1 172 0
  83              		.cfi_startproc
 173:.\Generated_Source\PSoC4/comm_RS485_UART_SPI_UART.c ****         #if(comm_RS485_UART_INTERNAL_RX_SW_BUFFER_CONST)
 174:.\Generated_Source\PSoC4/comm_RS485_UART_SPI_UART.c ****             uint32 intSourceMask;
 175:.\Generated_Source\PSoC4/comm_RS485_UART_SPI_UART.c ****         #endif /* (comm_RS485_UART_INTERNAL_RX_SW_BUFFER_CONST) */
 176:.\Generated_Source\PSoC4/comm_RS485_UART_SPI_UART.c **** 
 177:.\Generated_Source\PSoC4/comm_RS485_UART_SPI_UART.c ****         #if(comm_RS485_UART_CHECK_RX_SW_BUFFER)
 178:.\Generated_Source\PSoC4/comm_RS485_UART_SPI_UART.c ****         {
 179:.\Generated_Source\PSoC4/comm_RS485_UART_SPI_UART.c ****             intSourceMask = comm_RS485_UART_SpiUartDisableIntRx();
 180:.\Generated_Source\PSoC4/comm_RS485_UART_SPI_UART.c **** 
 181:.\Generated_Source\PSoC4/comm_RS485_UART_SPI_UART.c ****             comm_RS485_UART_CLEAR_RX_FIFO;
 182:.\Generated_Source\PSoC4/comm_RS485_UART_SPI_UART.c **** 
 183:.\Generated_Source\PSoC4/comm_RS485_UART_SPI_UART.c ****             /* Flush RX software buffer */
 184:.\Generated_Source\PSoC4/comm_RS485_UART_SPI_UART.c ****             comm_RS485_UART_rxBufferHead     = comm_RS485_UART_rxBufferTail;
 185:.\Generated_Source\PSoC4/comm_RS485_UART_SPI_UART.c ****             comm_RS485_UART_rxBufferOverflow = 0u;
 186:.\Generated_Source\PSoC4/comm_RS485_UART_SPI_UART.c **** 
 187:.\Generated_Source\PSoC4/comm_RS485_UART_SPI_UART.c ****             /* End RX transfer */
 188:.\Generated_Source\PSoC4/comm_RS485_UART_SPI_UART.c ****             comm_RS485_UART_ClearRxInterruptSource(comm_RS485_UART_INTR_RX_ALL);
 189:.\Generated_Source\PSoC4/comm_RS485_UART_SPI_UART.c **** 
 190:.\Generated_Source\PSoC4/comm_RS485_UART_SPI_UART.c ****             comm_RS485_UART_SpiUartEnableIntRx(intSourceMask);
 191:.\Generated_Source\PSoC4/comm_RS485_UART_SPI_UART.c ****         }
 192:.\Generated_Source\PSoC4/comm_RS485_UART_SPI_UART.c ****         #else
 193:.\Generated_Source\PSoC4/comm_RS485_UART_SPI_UART.c ****         {
 194:.\Generated_Source\PSoC4/comm_RS485_UART_SPI_UART.c ****             comm_RS485_UART_CLEAR_RX_FIFO;
  84              		.loc 1 194 0
  85 0000 054B     		ldr	r3, .L8
  86 0002 8022     		mov	r2, #128
  87 0004 1968     		ldr	r1, [r3]
  88 0006 5202     		lsl	r2, r2, #9
  89 0008 0A43     		orr	r2, r1
ARM GAS  C:\Users\SDEVAS~1\AppData\Local\Temp\cckzAJqC.s 			page 6


  90 000a 1A60     		str	r2, [r3]
  91 000c 1968     		ldr	r1, [r3]
  92 000e 034A     		ldr	r2, .L8+4
 195:.\Generated_Source\PSoC4/comm_RS485_UART_SPI_UART.c ****         }
 196:.\Generated_Source\PSoC4/comm_RS485_UART_SPI_UART.c ****         #endif
 197:.\Generated_Source\PSoC4/comm_RS485_UART_SPI_UART.c ****     }
  93              		.loc 1 197 0
  94              		@ sp needed
 194:.\Generated_Source\PSoC4/comm_RS485_UART_SPI_UART.c ****             comm_RS485_UART_CLEAR_RX_FIFO;
  95              		.loc 1 194 0
  96 0010 0A40     		and	r2, r1
  97 0012 1A60     		str	r2, [r3]
  98              		.loc 1 197 0
  99 0014 7047     		bx	lr
 100              	.L9:
 101 0016 C046     		.align	2
 102              	.L8:
 103 0018 04030640 		.word	1074135812
 104 001c FFFFFEFF 		.word	-65537
 105              		.cfi_endproc
 106              	.LFE2:
 107              		.size	comm_RS485_UART_SpiUartClearRxBuffer, .-comm_RS485_UART_SpiUartClearRxBuffer
 108              		.section	.text.comm_RS485_UART_SpiUartWriteTxData,"ax",%progbits
 109              		.align	1
 110              		.global	comm_RS485_UART_SpiUartWriteTxData
 111              		.code	16
 112              		.thumb_func
 113              		.type	comm_RS485_UART_SpiUartWriteTxData, %function
 114              	comm_RS485_UART_SpiUartWriteTxData:
 115              	.LFB3:
 198:.\Generated_Source\PSoC4/comm_RS485_UART_SPI_UART.c **** 
 199:.\Generated_Source\PSoC4/comm_RS485_UART_SPI_UART.c **** #endif /* (comm_RS485_UART_RX_DIRECTION) */
 200:.\Generated_Source\PSoC4/comm_RS485_UART_SPI_UART.c **** 
 201:.\Generated_Source\PSoC4/comm_RS485_UART_SPI_UART.c **** 
 202:.\Generated_Source\PSoC4/comm_RS485_UART_SPI_UART.c **** #if(comm_RS485_UART_TX_DIRECTION)
 203:.\Generated_Source\PSoC4/comm_RS485_UART_SPI_UART.c **** 
 204:.\Generated_Source\PSoC4/comm_RS485_UART_SPI_UART.c ****     /*******************************************************************************
 205:.\Generated_Source\PSoC4/comm_RS485_UART_SPI_UART.c ****     * Function Name: comm_RS485_UART_SpiUartWriteTxData
 206:.\Generated_Source\PSoC4/comm_RS485_UART_SPI_UART.c ****     ********************************************************************************
 207:.\Generated_Source\PSoC4/comm_RS485_UART_SPI_UART.c ****     *
 208:.\Generated_Source\PSoC4/comm_RS485_UART_SPI_UART.c ****     * Summary:
 209:.\Generated_Source\PSoC4/comm_RS485_UART_SPI_UART.c ****     *  Places a data entry into the transmit buffer to be sent at the next available
 210:.\Generated_Source\PSoC4/comm_RS485_UART_SPI_UART.c ****     *  bus time.
 211:.\Generated_Source\PSoC4/comm_RS485_UART_SPI_UART.c ****     *  This function is blocking and waits until there is space available to put the
 212:.\Generated_Source\PSoC4/comm_RS485_UART_SPI_UART.c ****     *  requested data in the transmit buffer.
 213:.\Generated_Source\PSoC4/comm_RS485_UART_SPI_UART.c ****     *
 214:.\Generated_Source\PSoC4/comm_RS485_UART_SPI_UART.c ****     * Parameters:
 215:.\Generated_Source\PSoC4/comm_RS485_UART_SPI_UART.c ****     *  txDataByte: the data to be transmitted.
 216:.\Generated_Source\PSoC4/comm_RS485_UART_SPI_UART.c ****     *
 217:.\Generated_Source\PSoC4/comm_RS485_UART_SPI_UART.c ****     * Return:
 218:.\Generated_Source\PSoC4/comm_RS485_UART_SPI_UART.c ****     *  None
 219:.\Generated_Source\PSoC4/comm_RS485_UART_SPI_UART.c ****     *
 220:.\Generated_Source\PSoC4/comm_RS485_UART_SPI_UART.c ****     *******************************************************************************/
 221:.\Generated_Source\PSoC4/comm_RS485_UART_SPI_UART.c ****     void comm_RS485_UART_SpiUartWriteTxData(uint32 txData)
 222:.\Generated_Source\PSoC4/comm_RS485_UART_SPI_UART.c ****     {
 116              		.loc 1 222 0
 117              		.cfi_startproc
ARM GAS  C:\Users\SDEVAS~1\AppData\Local\Temp\cckzAJqC.s 			page 7


 118              	.LVL4:
 119              	.L12:
 223:.\Generated_Source\PSoC4/comm_RS485_UART_SPI_UART.c ****         #if(comm_RS485_UART_INTERNAL_TX_SW_BUFFER_CONST)
 224:.\Generated_Source\PSoC4/comm_RS485_UART_SPI_UART.c ****             uint32 locHead;
 225:.\Generated_Source\PSoC4/comm_RS485_UART_SPI_UART.c ****             uint32 intSourceMask;
 226:.\Generated_Source\PSoC4/comm_RS485_UART_SPI_UART.c ****         #endif /* (comm_RS485_UART_INTERNAL_TX_SW_BUFFER_CONST) */
 227:.\Generated_Source\PSoC4/comm_RS485_UART_SPI_UART.c **** 
 228:.\Generated_Source\PSoC4/comm_RS485_UART_SPI_UART.c ****         #if(comm_RS485_UART_CHECK_TX_SW_BUFFER)
 229:.\Generated_Source\PSoC4/comm_RS485_UART_SPI_UART.c ****         {
 230:.\Generated_Source\PSoC4/comm_RS485_UART_SPI_UART.c ****             /* Head index to put data */
 231:.\Generated_Source\PSoC4/comm_RS485_UART_SPI_UART.c ****             locHead = (comm_RS485_UART_txBufferHead + 1u);
 232:.\Generated_Source\PSoC4/comm_RS485_UART_SPI_UART.c **** 
 233:.\Generated_Source\PSoC4/comm_RS485_UART_SPI_UART.c ****             /* Adjust TX software buffer index */
 234:.\Generated_Source\PSoC4/comm_RS485_UART_SPI_UART.c ****             if(comm_RS485_UART_TX_BUFFER_SIZE == locHead)
 235:.\Generated_Source\PSoC4/comm_RS485_UART_SPI_UART.c ****             {
 236:.\Generated_Source\PSoC4/comm_RS485_UART_SPI_UART.c ****                 locHead = 0u;
 237:.\Generated_Source\PSoC4/comm_RS485_UART_SPI_UART.c ****             }
 238:.\Generated_Source\PSoC4/comm_RS485_UART_SPI_UART.c **** 
 239:.\Generated_Source\PSoC4/comm_RS485_UART_SPI_UART.c ****             while(locHead == comm_RS485_UART_txBufferTail)
 240:.\Generated_Source\PSoC4/comm_RS485_UART_SPI_UART.c ****             {
 241:.\Generated_Source\PSoC4/comm_RS485_UART_SPI_UART.c ****                 /* Wait for space in TX software buffer */
 242:.\Generated_Source\PSoC4/comm_RS485_UART_SPI_UART.c ****             }
 243:.\Generated_Source\PSoC4/comm_RS485_UART_SPI_UART.c **** 
 244:.\Generated_Source\PSoC4/comm_RS485_UART_SPI_UART.c ****             /* TX software buffer has at least one room */
 245:.\Generated_Source\PSoC4/comm_RS485_UART_SPI_UART.c **** 
 246:.\Generated_Source\PSoC4/comm_RS485_UART_SPI_UART.c ****             if((comm_RS485_UART_txBufferHead == comm_RS485_UART_txBufferTail) &&
 247:.\Generated_Source\PSoC4/comm_RS485_UART_SPI_UART.c ****                (comm_RS485_UART_SPI_UART_FIFO_SIZE != comm_RS485_UART_GET_TX_FIFO_ENTRIES))
 248:.\Generated_Source\PSoC4/comm_RS485_UART_SPI_UART.c ****             {
 249:.\Generated_Source\PSoC4/comm_RS485_UART_SPI_UART.c ****                 /* TX software buffer is empty: put data directly in TX FIFO */
 250:.\Generated_Source\PSoC4/comm_RS485_UART_SPI_UART.c ****                 comm_RS485_UART_TX_FIFO_WR_REG = txData;
 251:.\Generated_Source\PSoC4/comm_RS485_UART_SPI_UART.c ****             }
 252:.\Generated_Source\PSoC4/comm_RS485_UART_SPI_UART.c ****             /* Put data in TX software buffer */
 253:.\Generated_Source\PSoC4/comm_RS485_UART_SPI_UART.c ****             else
 254:.\Generated_Source\PSoC4/comm_RS485_UART_SPI_UART.c ****             {
 255:.\Generated_Source\PSoC4/comm_RS485_UART_SPI_UART.c ****                 /* Clear old status of INTR_TX_NOT_FULL. It sets at the end of transfer when TX FIF
 256:.\Generated_Source\PSoC4/comm_RS485_UART_SPI_UART.c ****                 comm_RS485_UART_ClearTxInterruptSource(comm_RS485_UART_INTR_TX_NOT_FULL);
 257:.\Generated_Source\PSoC4/comm_RS485_UART_SPI_UART.c **** 
 258:.\Generated_Source\PSoC4/comm_RS485_UART_SPI_UART.c ****                 comm_RS485_UART_PutWordInTxBuffer(locHead, txData);
 259:.\Generated_Source\PSoC4/comm_RS485_UART_SPI_UART.c **** 
 260:.\Generated_Source\PSoC4/comm_RS485_UART_SPI_UART.c ****                 comm_RS485_UART_txBufferHead = locHead;
 261:.\Generated_Source\PSoC4/comm_RS485_UART_SPI_UART.c **** 
 262:.\Generated_Source\PSoC4/comm_RS485_UART_SPI_UART.c ****                 /* Enable interrupt to transmit */
 263:.\Generated_Source\PSoC4/comm_RS485_UART_SPI_UART.c ****                 intSourceMask  = comm_RS485_UART_INTR_TX_NOT_FULL;
 264:.\Generated_Source\PSoC4/comm_RS485_UART_SPI_UART.c ****                 intSourceMask |= comm_RS485_UART_GetTxInterruptMode();
 265:.\Generated_Source\PSoC4/comm_RS485_UART_SPI_UART.c ****                 comm_RS485_UART_SpiUartEnableIntTx(intSourceMask);
 266:.\Generated_Source\PSoC4/comm_RS485_UART_SPI_UART.c ****             }
 267:.\Generated_Source\PSoC4/comm_RS485_UART_SPI_UART.c ****         }
 268:.\Generated_Source\PSoC4/comm_RS485_UART_SPI_UART.c ****         #else
 269:.\Generated_Source\PSoC4/comm_RS485_UART_SPI_UART.c ****         {
 270:.\Generated_Source\PSoC4/comm_RS485_UART_SPI_UART.c ****             while(comm_RS485_UART_SPI_UART_FIFO_SIZE == comm_RS485_UART_GET_TX_FIFO_ENTRIES)
 120              		.loc 1 270 0 discriminator 1
 121 0000 044B     		ldr	r3, .L14
 122 0002 1A68     		ldr	r2, [r3]
 123 0004 0F23     		mov	r3, #15
 124 0006 1340     		and	r3, r2
 125 0008 082B     		cmp	r3, #8
 126 000a F9D0     		beq	.L12
ARM GAS  C:\Users\SDEVAS~1\AppData\Local\Temp\cckzAJqC.s 			page 8


 271:.\Generated_Source\PSoC4/comm_RS485_UART_SPI_UART.c ****             {
 272:.\Generated_Source\PSoC4/comm_RS485_UART_SPI_UART.c ****                 /* Block while TX FIFO is FULL */
 273:.\Generated_Source\PSoC4/comm_RS485_UART_SPI_UART.c ****             }
 274:.\Generated_Source\PSoC4/comm_RS485_UART_SPI_UART.c **** 
 275:.\Generated_Source\PSoC4/comm_RS485_UART_SPI_UART.c ****             comm_RS485_UART_TX_FIFO_WR_REG = txData;
 127              		.loc 1 275 0
 128 000c 024B     		ldr	r3, .L14+4
 276:.\Generated_Source\PSoC4/comm_RS485_UART_SPI_UART.c ****         }
 277:.\Generated_Source\PSoC4/comm_RS485_UART_SPI_UART.c ****         #endif
 278:.\Generated_Source\PSoC4/comm_RS485_UART_SPI_UART.c ****     }
 129              		.loc 1 278 0
 130              		@ sp needed
 275:.\Generated_Source\PSoC4/comm_RS485_UART_SPI_UART.c ****             comm_RS485_UART_TX_FIFO_WR_REG = txData;
 131              		.loc 1 275 0
 132 000e 1860     		str	r0, [r3]
 133              		.loc 1 278 0
 134 0010 7047     		bx	lr
 135              	.L15:
 136 0012 C046     		.align	2
 137              	.L14:
 138 0014 08020640 		.word	1074135560
 139 0018 40020640 		.word	1074135616
 140              		.cfi_endproc
 141              	.LFE3:
 142              		.size	comm_RS485_UART_SpiUartWriteTxData, .-comm_RS485_UART_SpiUartWriteTxData
 143              		.section	.text.comm_RS485_UART_SpiUartPutArray,"ax",%progbits
 144              		.align	1
 145              		.global	comm_RS485_UART_SpiUartPutArray
 146              		.code	16
 147              		.thumb_func
 148              		.type	comm_RS485_UART_SpiUartPutArray, %function
 149              	comm_RS485_UART_SpiUartPutArray:
 150              	.LFB4:
 279:.\Generated_Source\PSoC4/comm_RS485_UART_SPI_UART.c **** 
 280:.\Generated_Source\PSoC4/comm_RS485_UART_SPI_UART.c **** 
 281:.\Generated_Source\PSoC4/comm_RS485_UART_SPI_UART.c ****     /*******************************************************************************
 282:.\Generated_Source\PSoC4/comm_RS485_UART_SPI_UART.c ****     * Function Name: comm_RS485_UART_SpiUartPutArray
 283:.\Generated_Source\PSoC4/comm_RS485_UART_SPI_UART.c ****     ********************************************************************************
 284:.\Generated_Source\PSoC4/comm_RS485_UART_SPI_UART.c ****     *
 285:.\Generated_Source\PSoC4/comm_RS485_UART_SPI_UART.c ****     * Summary:
 286:.\Generated_Source\PSoC4/comm_RS485_UART_SPI_UART.c ****     *  Places an array of data into the transmit buffer to be sent.
 287:.\Generated_Source\PSoC4/comm_RS485_UART_SPI_UART.c ****     *  This function is blocking and waits until there is a space available to put
 288:.\Generated_Source\PSoC4/comm_RS485_UART_SPI_UART.c ****     *  all the requested data in the transmit buffer. The array size can be greater
 289:.\Generated_Source\PSoC4/comm_RS485_UART_SPI_UART.c ****     *  than transmit buffer size.
 290:.\Generated_Source\PSoC4/comm_RS485_UART_SPI_UART.c ****     *
 291:.\Generated_Source\PSoC4/comm_RS485_UART_SPI_UART.c ****     * Parameters:
 292:.\Generated_Source\PSoC4/comm_RS485_UART_SPI_UART.c ****     *  wrBuf:  pointer to an array with data to be placed in transmit buffer.
 293:.\Generated_Source\PSoC4/comm_RS485_UART_SPI_UART.c ****     *  count:  number of data elements to be placed in the transmit buffer.
 294:.\Generated_Source\PSoC4/comm_RS485_UART_SPI_UART.c ****     *
 295:.\Generated_Source\PSoC4/comm_RS485_UART_SPI_UART.c ****     * Return:
 296:.\Generated_Source\PSoC4/comm_RS485_UART_SPI_UART.c ****     *  None
 297:.\Generated_Source\PSoC4/comm_RS485_UART_SPI_UART.c ****     *
 298:.\Generated_Source\PSoC4/comm_RS485_UART_SPI_UART.c ****     *******************************************************************************/
 299:.\Generated_Source\PSoC4/comm_RS485_UART_SPI_UART.c ****     void comm_RS485_UART_SpiUartPutArray(const uint16 wrBuf[], uint32 count)
 300:.\Generated_Source\PSoC4/comm_RS485_UART_SPI_UART.c ****     {
 151              		.loc 1 300 0
 152              		.cfi_startproc
ARM GAS  C:\Users\SDEVAS~1\AppData\Local\Temp\cckzAJqC.s 			page 9


 153              	.LVL5:
 154 0000 70B5     		push	{r4, r5, r6, lr}
 155              		.cfi_def_cfa_offset 16
 156              		.cfi_offset 4, -16
 157              		.cfi_offset 5, -12
 158              		.cfi_offset 6, -8
 159              		.cfi_offset 14, -4
 160              		.loc 1 300 0
 161 0002 061C     		mov	r6, r0
 162 0004 0D1C     		mov	r5, r1
 301:.\Generated_Source\PSoC4/comm_RS485_UART_SPI_UART.c ****         uint32 i;
 302:.\Generated_Source\PSoC4/comm_RS485_UART_SPI_UART.c **** 
 303:.\Generated_Source\PSoC4/comm_RS485_UART_SPI_UART.c ****         for(i=0u; i < count; i++)
 163              		.loc 1 303 0
 164 0006 0024     		mov	r4, #0
 165              	.LVL6:
 166              	.L17:
 167              		.loc 1 303 0 is_stmt 0 discriminator 1
 168 0008 AC42     		cmp	r4, r5
 169 000a 05D0     		beq	.L19
 170 000c 6300     		lsl	r3, r4, #1
 304:.\Generated_Source\PSoC4/comm_RS485_UART_SPI_UART.c ****         {
 305:.\Generated_Source\PSoC4/comm_RS485_UART_SPI_UART.c ****             comm_RS485_UART_SpiUartWriteTxData((uint32) wrBuf[i]);
 171              		.loc 1 305 0 is_stmt 1 discriminator 2
 172 000e F05A     		ldrh	r0, [r6, r3]
 173 0010 FFF7FEFF 		bl	comm_RS485_UART_SpiUartWriteTxData
 174              	.LVL7:
 303:.\Generated_Source\PSoC4/comm_RS485_UART_SPI_UART.c ****         for(i=0u; i < count; i++)
 175              		.loc 1 303 0 discriminator 2
 176 0014 0134     		add	r4, r4, #1
 177              	.LVL8:
 178 0016 F7E7     		b	.L17
 179              	.L19:
 306:.\Generated_Source\PSoC4/comm_RS485_UART_SPI_UART.c ****         }
 307:.\Generated_Source\PSoC4/comm_RS485_UART_SPI_UART.c ****     }
 180              		.loc 1 307 0
 181              		@ sp needed
 182              	.LVL9:
 183              	.LVL10:
 184              	.LVL11:
 185 0018 70BD     		pop	{r4, r5, r6, pc}
 186              		.cfi_endproc
 187              	.LFE4:
 188              		.size	comm_RS485_UART_SpiUartPutArray, .-comm_RS485_UART_SpiUartPutArray
 189              		.section	.text.comm_RS485_UART_SpiUartGetTxBufferSize,"ax",%progbits
 190              		.align	1
 191              		.global	comm_RS485_UART_SpiUartGetTxBufferSize
 192              		.code	16
 193              		.thumb_func
 194              		.type	comm_RS485_UART_SpiUartGetTxBufferSize, %function
 195              	comm_RS485_UART_SpiUartGetTxBufferSize:
 196              	.LFB5:
 308:.\Generated_Source\PSoC4/comm_RS485_UART_SPI_UART.c **** 
 309:.\Generated_Source\PSoC4/comm_RS485_UART_SPI_UART.c **** 
 310:.\Generated_Source\PSoC4/comm_RS485_UART_SPI_UART.c ****     /*******************************************************************************
 311:.\Generated_Source\PSoC4/comm_RS485_UART_SPI_UART.c ****     * Function Name: comm_RS485_UART_SpiUartGetTxBufferSize
 312:.\Generated_Source\PSoC4/comm_RS485_UART_SPI_UART.c ****     ********************************************************************************
ARM GAS  C:\Users\SDEVAS~1\AppData\Local\Temp\cckzAJqC.s 			page 10


 313:.\Generated_Source\PSoC4/comm_RS485_UART_SPI_UART.c ****     *
 314:.\Generated_Source\PSoC4/comm_RS485_UART_SPI_UART.c ****     * Summary:
 315:.\Generated_Source\PSoC4/comm_RS485_UART_SPI_UART.c ****     * Returns the number of elements currently in the transmit buffer.
 316:.\Generated_Source\PSoC4/comm_RS485_UART_SPI_UART.c ****     *  - TX software buffer is disabled: returns the number of used entries in
 317:.\Generated_Source\PSoC4/comm_RS485_UART_SPI_UART.c ****     *    TX FIFO.
 318:.\Generated_Source\PSoC4/comm_RS485_UART_SPI_UART.c ****     *  - TX software buffer is enabled: returns the number of elements currently
 319:.\Generated_Source\PSoC4/comm_RS485_UART_SPI_UART.c ****     *    used in the transmit buffer. This number does not include used entries in
 320:.\Generated_Source\PSoC4/comm_RS485_UART_SPI_UART.c ****     *    the TX FIFO. The transmit buffer size is zero until the TX FIFO is
 321:.\Generated_Source\PSoC4/comm_RS485_UART_SPI_UART.c ****     *    not full.
 322:.\Generated_Source\PSoC4/comm_RS485_UART_SPI_UART.c ****     *
 323:.\Generated_Source\PSoC4/comm_RS485_UART_SPI_UART.c ****     * Parameters:
 324:.\Generated_Source\PSoC4/comm_RS485_UART_SPI_UART.c ****     *  None
 325:.\Generated_Source\PSoC4/comm_RS485_UART_SPI_UART.c ****     *
 326:.\Generated_Source\PSoC4/comm_RS485_UART_SPI_UART.c ****     * Return:
 327:.\Generated_Source\PSoC4/comm_RS485_UART_SPI_UART.c ****     *  Number of data elements ready to transmit.
 328:.\Generated_Source\PSoC4/comm_RS485_UART_SPI_UART.c ****     *
 329:.\Generated_Source\PSoC4/comm_RS485_UART_SPI_UART.c ****     *******************************************************************************/
 330:.\Generated_Source\PSoC4/comm_RS485_UART_SPI_UART.c ****     uint32 comm_RS485_UART_SpiUartGetTxBufferSize(void)
 331:.\Generated_Source\PSoC4/comm_RS485_UART_SPI_UART.c ****     {
 197              		.loc 1 331 0
 198              		.cfi_startproc
 332:.\Generated_Source\PSoC4/comm_RS485_UART_SPI_UART.c ****         uint32 size;
 333:.\Generated_Source\PSoC4/comm_RS485_UART_SPI_UART.c ****         #if(comm_RS485_UART_INTERNAL_TX_SW_BUFFER_CONST)
 334:.\Generated_Source\PSoC4/comm_RS485_UART_SPI_UART.c ****             uint32 locTail;
 335:.\Generated_Source\PSoC4/comm_RS485_UART_SPI_UART.c ****         #endif /* (comm_RS485_UART_INTERNAL_TX_SW_BUFFER_CONST) */
 336:.\Generated_Source\PSoC4/comm_RS485_UART_SPI_UART.c **** 
 337:.\Generated_Source\PSoC4/comm_RS485_UART_SPI_UART.c ****         #if(comm_RS485_UART_CHECK_TX_SW_BUFFER)
 338:.\Generated_Source\PSoC4/comm_RS485_UART_SPI_UART.c ****         {
 339:.\Generated_Source\PSoC4/comm_RS485_UART_SPI_UART.c ****             /* Get current Tail index */
 340:.\Generated_Source\PSoC4/comm_RS485_UART_SPI_UART.c ****             locTail = comm_RS485_UART_txBufferTail;
 341:.\Generated_Source\PSoC4/comm_RS485_UART_SPI_UART.c **** 
 342:.\Generated_Source\PSoC4/comm_RS485_UART_SPI_UART.c ****             if(comm_RS485_UART_txBufferHead >= locTail)
 343:.\Generated_Source\PSoC4/comm_RS485_UART_SPI_UART.c ****             {
 344:.\Generated_Source\PSoC4/comm_RS485_UART_SPI_UART.c ****                 size = (comm_RS485_UART_txBufferHead - locTail);
 345:.\Generated_Source\PSoC4/comm_RS485_UART_SPI_UART.c ****             }
 346:.\Generated_Source\PSoC4/comm_RS485_UART_SPI_UART.c ****             else
 347:.\Generated_Source\PSoC4/comm_RS485_UART_SPI_UART.c ****             {
 348:.\Generated_Source\PSoC4/comm_RS485_UART_SPI_UART.c ****                 size = (comm_RS485_UART_txBufferHead + (comm_RS485_UART_TX_BUFFER_SIZE - locTail));
 349:.\Generated_Source\PSoC4/comm_RS485_UART_SPI_UART.c ****             }
 350:.\Generated_Source\PSoC4/comm_RS485_UART_SPI_UART.c ****         }
 351:.\Generated_Source\PSoC4/comm_RS485_UART_SPI_UART.c ****         #else
 352:.\Generated_Source\PSoC4/comm_RS485_UART_SPI_UART.c ****         {
 353:.\Generated_Source\PSoC4/comm_RS485_UART_SPI_UART.c ****             size = comm_RS485_UART_GET_TX_FIFO_ENTRIES;
 199              		.loc 1 353 0
 200 0000 024B     		ldr	r3, .L21
 354:.\Generated_Source\PSoC4/comm_RS485_UART_SPI_UART.c ****         }
 355:.\Generated_Source\PSoC4/comm_RS485_UART_SPI_UART.c ****         #endif
 356:.\Generated_Source\PSoC4/comm_RS485_UART_SPI_UART.c **** 
 357:.\Generated_Source\PSoC4/comm_RS485_UART_SPI_UART.c ****         return(size);
 358:.\Generated_Source\PSoC4/comm_RS485_UART_SPI_UART.c ****     }
 201              		.loc 1 358 0
 202              		@ sp needed
 353:.\Generated_Source\PSoC4/comm_RS485_UART_SPI_UART.c ****             size = comm_RS485_UART_GET_TX_FIFO_ENTRIES;
 203              		.loc 1 353 0
 204 0002 1868     		ldr	r0, [r3]
 205              	.LVL12:
 206 0004 0F23     		mov	r3, #15
ARM GAS  C:\Users\SDEVAS~1\AppData\Local\Temp\cckzAJqC.s 			page 11


 207 0006 1840     		and	r0, r3
 208              	.LVL13:
 209              		.loc 1 358 0
 210 0008 7047     		bx	lr
 211              	.L22:
 212 000a C046     		.align	2
 213              	.L21:
 214 000c 08020640 		.word	1074135560
 215              		.cfi_endproc
 216              	.LFE5:
 217              		.size	comm_RS485_UART_SpiUartGetTxBufferSize, .-comm_RS485_UART_SpiUartGetTxBufferSize
 218              		.section	.text.comm_RS485_UART_SpiUartClearTxBuffer,"ax",%progbits
 219              		.align	1
 220              		.global	comm_RS485_UART_SpiUartClearTxBuffer
 221              		.code	16
 222              		.thumb_func
 223              		.type	comm_RS485_UART_SpiUartClearTxBuffer, %function
 224              	comm_RS485_UART_SpiUartClearTxBuffer:
 225              	.LFB6:
 359:.\Generated_Source\PSoC4/comm_RS485_UART_SPI_UART.c **** 
 360:.\Generated_Source\PSoC4/comm_RS485_UART_SPI_UART.c **** 
 361:.\Generated_Source\PSoC4/comm_RS485_UART_SPI_UART.c ****     /*******************************************************************************
 362:.\Generated_Source\PSoC4/comm_RS485_UART_SPI_UART.c ****     * Function Name: comm_RS485_UART_SpiUartClearTxBuffer
 363:.\Generated_Source\PSoC4/comm_RS485_UART_SPI_UART.c ****     ********************************************************************************
 364:.\Generated_Source\PSoC4/comm_RS485_UART_SPI_UART.c ****     *
 365:.\Generated_Source\PSoC4/comm_RS485_UART_SPI_UART.c ****     * Summary:
 366:.\Generated_Source\PSoC4/comm_RS485_UART_SPI_UART.c ****     *  Clears the transmit buffer and TX FIFO.
 367:.\Generated_Source\PSoC4/comm_RS485_UART_SPI_UART.c ****     *
 368:.\Generated_Source\PSoC4/comm_RS485_UART_SPI_UART.c ****     * Parameters:
 369:.\Generated_Source\PSoC4/comm_RS485_UART_SPI_UART.c ****     *  None
 370:.\Generated_Source\PSoC4/comm_RS485_UART_SPI_UART.c ****     *
 371:.\Generated_Source\PSoC4/comm_RS485_UART_SPI_UART.c ****     * Return:
 372:.\Generated_Source\PSoC4/comm_RS485_UART_SPI_UART.c ****     *  None
 373:.\Generated_Source\PSoC4/comm_RS485_UART_SPI_UART.c ****     *
 374:.\Generated_Source\PSoC4/comm_RS485_UART_SPI_UART.c ****     *******************************************************************************/
 375:.\Generated_Source\PSoC4/comm_RS485_UART_SPI_UART.c ****     void comm_RS485_UART_SpiUartClearTxBuffer(void)
 376:.\Generated_Source\PSoC4/comm_RS485_UART_SPI_UART.c ****     {
 226              		.loc 1 376 0
 227              		.cfi_startproc
 377:.\Generated_Source\PSoC4/comm_RS485_UART_SPI_UART.c ****         #if(comm_RS485_UART_INTERNAL_TX_SW_BUFFER_CONST)
 378:.\Generated_Source\PSoC4/comm_RS485_UART_SPI_UART.c ****             uint32 intSourceMask;
 379:.\Generated_Source\PSoC4/comm_RS485_UART_SPI_UART.c ****         #endif /* (comm_RS485_UART_INTERNAL_TX_SW_BUFFER_CONST) */
 380:.\Generated_Source\PSoC4/comm_RS485_UART_SPI_UART.c **** 
 381:.\Generated_Source\PSoC4/comm_RS485_UART_SPI_UART.c ****         #if(comm_RS485_UART_CHECK_TX_SW_BUFFER)
 382:.\Generated_Source\PSoC4/comm_RS485_UART_SPI_UART.c ****         {
 383:.\Generated_Source\PSoC4/comm_RS485_UART_SPI_UART.c ****             intSourceMask = comm_RS485_UART_SpiUartDisableIntTx();
 384:.\Generated_Source\PSoC4/comm_RS485_UART_SPI_UART.c **** 
 385:.\Generated_Source\PSoC4/comm_RS485_UART_SPI_UART.c ****             comm_RS485_UART_CLEAR_TX_FIFO;
 386:.\Generated_Source\PSoC4/comm_RS485_UART_SPI_UART.c **** 
 387:.\Generated_Source\PSoC4/comm_RS485_UART_SPI_UART.c ****             /* Flush TX software buffer */
 388:.\Generated_Source\PSoC4/comm_RS485_UART_SPI_UART.c ****             comm_RS485_UART_txBufferHead = comm_RS485_UART_txBufferTail;
 389:.\Generated_Source\PSoC4/comm_RS485_UART_SPI_UART.c **** 
 390:.\Generated_Source\PSoC4/comm_RS485_UART_SPI_UART.c ****             /* End TX transfer if it is in progress */
 391:.\Generated_Source\PSoC4/comm_RS485_UART_SPI_UART.c ****             intSourceMask &= (uint32) ~comm_RS485_UART_INTR_TX_NOT_FULL;
 392:.\Generated_Source\PSoC4/comm_RS485_UART_SPI_UART.c **** 
 393:.\Generated_Source\PSoC4/comm_RS485_UART_SPI_UART.c ****             comm_RS485_UART_SpiUartEnableIntTx(intSourceMask);
 394:.\Generated_Source\PSoC4/comm_RS485_UART_SPI_UART.c ****         }
ARM GAS  C:\Users\SDEVAS~1\AppData\Local\Temp\cckzAJqC.s 			page 12


 395:.\Generated_Source\PSoC4/comm_RS485_UART_SPI_UART.c ****         #else
 396:.\Generated_Source\PSoC4/comm_RS485_UART_SPI_UART.c ****         {
 397:.\Generated_Source\PSoC4/comm_RS485_UART_SPI_UART.c ****             comm_RS485_UART_CLEAR_TX_FIFO;
 228              		.loc 1 397 0
 229 0000 054B     		ldr	r3, .L24
 230 0002 8022     		mov	r2, #128
 231 0004 1968     		ldr	r1, [r3]
 232 0006 5202     		lsl	r2, r2, #9
 233 0008 0A43     		orr	r2, r1
 234 000a 1A60     		str	r2, [r3]
 235 000c 1968     		ldr	r1, [r3]
 236 000e 034A     		ldr	r2, .L24+4
 398:.\Generated_Source\PSoC4/comm_RS485_UART_SPI_UART.c ****         }
 399:.\Generated_Source\PSoC4/comm_RS485_UART_SPI_UART.c ****         #endif
 400:.\Generated_Source\PSoC4/comm_RS485_UART_SPI_UART.c ****     }
 237              		.loc 1 400 0
 238              		@ sp needed
 397:.\Generated_Source\PSoC4/comm_RS485_UART_SPI_UART.c ****             comm_RS485_UART_CLEAR_TX_FIFO;
 239              		.loc 1 397 0
 240 0010 0A40     		and	r2, r1
 241 0012 1A60     		str	r2, [r3]
 242              		.loc 1 400 0
 243 0014 7047     		bx	lr
 244              	.L25:
 245 0016 C046     		.align	2
 246              	.L24:
 247 0018 04020640 		.word	1074135556
 248 001c FFFFFEFF 		.word	-65537
 249              		.cfi_endproc
 250              	.LFE6:
 251              		.size	comm_RS485_UART_SpiUartClearTxBuffer, .-comm_RS485_UART_SpiUartClearTxBuffer
 252              		.section	.text.comm_RS485_UART_SpiUartDisableIntRx,"ax",%progbits
 253              		.align	1
 254              		.global	comm_RS485_UART_SpiUartDisableIntRx
 255              		.code	16
 256              		.thumb_func
 257              		.type	comm_RS485_UART_SpiUartDisableIntRx, %function
 258              	comm_RS485_UART_SpiUartDisableIntRx:
 259              	.LFB7:
 401:.\Generated_Source\PSoC4/comm_RS485_UART_SPI_UART.c **** 
 402:.\Generated_Source\PSoC4/comm_RS485_UART_SPI_UART.c **** #endif /* (comm_RS485_UART_TX_DIRECTION) */
 403:.\Generated_Source\PSoC4/comm_RS485_UART_SPI_UART.c **** 
 404:.\Generated_Source\PSoC4/comm_RS485_UART_SPI_UART.c **** 
 405:.\Generated_Source\PSoC4/comm_RS485_UART_SPI_UART.c **** /*******************************************************************************
 406:.\Generated_Source\PSoC4/comm_RS485_UART_SPI_UART.c **** * Function Name: comm_RS485_UART_SpiUartDisableIntRx
 407:.\Generated_Source\PSoC4/comm_RS485_UART_SPI_UART.c **** ********************************************************************************
 408:.\Generated_Source\PSoC4/comm_RS485_UART_SPI_UART.c **** *
 409:.\Generated_Source\PSoC4/comm_RS485_UART_SPI_UART.c **** * Summary:
 410:.\Generated_Source\PSoC4/comm_RS485_UART_SPI_UART.c **** *  Disables the RX interrupt sources.
 411:.\Generated_Source\PSoC4/comm_RS485_UART_SPI_UART.c **** *
 412:.\Generated_Source\PSoC4/comm_RS485_UART_SPI_UART.c **** * Parameters:
 413:.\Generated_Source\PSoC4/comm_RS485_UART_SPI_UART.c **** *  None
 414:.\Generated_Source\PSoC4/comm_RS485_UART_SPI_UART.c **** *
 415:.\Generated_Source\PSoC4/comm_RS485_UART_SPI_UART.c **** * Return:
 416:.\Generated_Source\PSoC4/comm_RS485_UART_SPI_UART.c **** *  Returns the RX interrupt sources enabled before the function call.
 417:.\Generated_Source\PSoC4/comm_RS485_UART_SPI_UART.c **** *
 418:.\Generated_Source\PSoC4/comm_RS485_UART_SPI_UART.c **** *******************************************************************************/
ARM GAS  C:\Users\SDEVAS~1\AppData\Local\Temp\cckzAJqC.s 			page 13


 419:.\Generated_Source\PSoC4/comm_RS485_UART_SPI_UART.c **** uint32 comm_RS485_UART_SpiUartDisableIntRx(void)
 420:.\Generated_Source\PSoC4/comm_RS485_UART_SPI_UART.c **** {
 260              		.loc 1 420 0
 261              		.cfi_startproc
 421:.\Generated_Source\PSoC4/comm_RS485_UART_SPI_UART.c ****     uint32 intSource;
 422:.\Generated_Source\PSoC4/comm_RS485_UART_SPI_UART.c **** 
 423:.\Generated_Source\PSoC4/comm_RS485_UART_SPI_UART.c ****     intSource = comm_RS485_UART_GetRxInterruptMode();
 262              		.loc 1 423 0
 263 0000 024B     		ldr	r3, .L27
 424:.\Generated_Source\PSoC4/comm_RS485_UART_SPI_UART.c **** 
 425:.\Generated_Source\PSoC4/comm_RS485_UART_SPI_UART.c ****     comm_RS485_UART_SetRxInterruptMode(comm_RS485_UART_NO_INTR_SOURCES);
 264              		.loc 1 425 0
 265 0002 0022     		mov	r2, #0
 423:.\Generated_Source\PSoC4/comm_RS485_UART_SPI_UART.c ****     intSource = comm_RS485_UART_GetRxInterruptMode();
 266              		.loc 1 423 0
 267 0004 1868     		ldr	r0, [r3]
 268              	.LVL14:
 426:.\Generated_Source\PSoC4/comm_RS485_UART_SPI_UART.c **** 
 427:.\Generated_Source\PSoC4/comm_RS485_UART_SPI_UART.c ****     return(intSource);
 428:.\Generated_Source\PSoC4/comm_RS485_UART_SPI_UART.c **** }
 269              		.loc 1 428 0
 270              		@ sp needed
 425:.\Generated_Source\PSoC4/comm_RS485_UART_SPI_UART.c ****     comm_RS485_UART_SetRxInterruptMode(comm_RS485_UART_NO_INTR_SOURCES);
 271              		.loc 1 425 0
 272 0006 1A60     		str	r2, [r3]
 273              		.loc 1 428 0
 274 0008 7047     		bx	lr
 275              	.L28:
 276 000a C046     		.align	2
 277              	.L27:
 278 000c C80F0640 		.word	1074139080
 279              		.cfi_endproc
 280              	.LFE7:
 281              		.size	comm_RS485_UART_SpiUartDisableIntRx, .-comm_RS485_UART_SpiUartDisableIntRx
 282              		.section	.text.comm_RS485_UART_SpiUartDisableIntTx,"ax",%progbits
 283              		.align	1
 284              		.global	comm_RS485_UART_SpiUartDisableIntTx
 285              		.code	16
 286              		.thumb_func
 287              		.type	comm_RS485_UART_SpiUartDisableIntTx, %function
 288              	comm_RS485_UART_SpiUartDisableIntTx:
 289              	.LFB8:
 429:.\Generated_Source\PSoC4/comm_RS485_UART_SPI_UART.c **** 
 430:.\Generated_Source\PSoC4/comm_RS485_UART_SPI_UART.c **** 
 431:.\Generated_Source\PSoC4/comm_RS485_UART_SPI_UART.c **** /*******************************************************************************
 432:.\Generated_Source\PSoC4/comm_RS485_UART_SPI_UART.c **** * Function Name: comm_RS485_UART_SpiUartDisableIntTx
 433:.\Generated_Source\PSoC4/comm_RS485_UART_SPI_UART.c **** ********************************************************************************
 434:.\Generated_Source\PSoC4/comm_RS485_UART_SPI_UART.c **** *
 435:.\Generated_Source\PSoC4/comm_RS485_UART_SPI_UART.c **** * Summary:
 436:.\Generated_Source\PSoC4/comm_RS485_UART_SPI_UART.c **** *  Disables TX interrupt sources.
 437:.\Generated_Source\PSoC4/comm_RS485_UART_SPI_UART.c **** *
 438:.\Generated_Source\PSoC4/comm_RS485_UART_SPI_UART.c **** * Parameters:
 439:.\Generated_Source\PSoC4/comm_RS485_UART_SPI_UART.c **** *  None
 440:.\Generated_Source\PSoC4/comm_RS485_UART_SPI_UART.c **** *
 441:.\Generated_Source\PSoC4/comm_RS485_UART_SPI_UART.c **** * Return:
 442:.\Generated_Source\PSoC4/comm_RS485_UART_SPI_UART.c **** *  Returns TX interrupt sources enabled before function call.
 443:.\Generated_Source\PSoC4/comm_RS485_UART_SPI_UART.c **** *
ARM GAS  C:\Users\SDEVAS~1\AppData\Local\Temp\cckzAJqC.s 			page 14


 444:.\Generated_Source\PSoC4/comm_RS485_UART_SPI_UART.c **** *******************************************************************************/
 445:.\Generated_Source\PSoC4/comm_RS485_UART_SPI_UART.c **** uint32 comm_RS485_UART_SpiUartDisableIntTx(void)
 446:.\Generated_Source\PSoC4/comm_RS485_UART_SPI_UART.c **** {
 290              		.loc 1 446 0
 291              		.cfi_startproc
 447:.\Generated_Source\PSoC4/comm_RS485_UART_SPI_UART.c ****     uint32 intSourceMask;
 448:.\Generated_Source\PSoC4/comm_RS485_UART_SPI_UART.c **** 
 449:.\Generated_Source\PSoC4/comm_RS485_UART_SPI_UART.c ****     intSourceMask = comm_RS485_UART_GetTxInterruptMode();
 292              		.loc 1 449 0
 293 0000 024B     		ldr	r3, .L30
 450:.\Generated_Source\PSoC4/comm_RS485_UART_SPI_UART.c **** 
 451:.\Generated_Source\PSoC4/comm_RS485_UART_SPI_UART.c ****     comm_RS485_UART_SetTxInterruptMode(comm_RS485_UART_NO_INTR_SOURCES);
 294              		.loc 1 451 0
 295 0002 0022     		mov	r2, #0
 449:.\Generated_Source\PSoC4/comm_RS485_UART_SPI_UART.c ****     intSourceMask = comm_RS485_UART_GetTxInterruptMode();
 296              		.loc 1 449 0
 297 0004 1868     		ldr	r0, [r3]
 298              	.LVL15:
 452:.\Generated_Source\PSoC4/comm_RS485_UART_SPI_UART.c **** 
 453:.\Generated_Source\PSoC4/comm_RS485_UART_SPI_UART.c ****     return(intSourceMask);
 454:.\Generated_Source\PSoC4/comm_RS485_UART_SPI_UART.c **** }
 299              		.loc 1 454 0
 300              		@ sp needed
 451:.\Generated_Source\PSoC4/comm_RS485_UART_SPI_UART.c ****     comm_RS485_UART_SetTxInterruptMode(comm_RS485_UART_NO_INTR_SOURCES);
 301              		.loc 1 451 0
 302 0006 1A60     		str	r2, [r3]
 303              		.loc 1 454 0
 304 0008 7047     		bx	lr
 305              	.L31:
 306 000a C046     		.align	2
 307              	.L30:
 308 000c 880F0640 		.word	1074139016
 309              		.cfi_endproc
 310              	.LFE8:
 311              		.size	comm_RS485_UART_SpiUartDisableIntTx, .-comm_RS485_UART_SpiUartDisableIntTx
 312              		.text
 313              	.Letext0:
 314              		.file 2 "Generated_Source\\PSoC4/cytypes.h"