ARM GAS  C:\Users\SDEVAS~1\AppData\Local\Temp\ccPhqTSe.s 			page 1


   1              		.cpu cortex-m0
   2              		.fpu softvfp
   3              		.eabi_attribute 20, 1
   4              		.eabi_attribute 21, 1
   5              		.eabi_attribute 23, 3
   6              		.eabi_attribute 24, 1
   7              		.eabi_attribute 25, 1
   8              		.eabi_attribute 26, 1
   9              		.eabi_attribute 30, 4
  10              		.eabi_attribute 34, 0
  11              		.eabi_attribute 18, 4
  12              		.code	16
  13              		.file	"comm.c"
  14              		.text
  15              	.Ltext0:
  16              		.cfi_sections	.debug_frame
  17              		.section	.text.skipToNextTokenInLevel,"ax",%progbits
  18              		.align	1
  19              		.code	16
  20              		.thumb_func
  21              		.type	skipToNextTokenInLevel, %function
  22              	skipToNextTokenInLevel:
  23              	.LFB38:
  24              		.file 1 ".\\Generated_Source\\PSoC4\\comm.c"
   1:.\Generated_Source\PSoC4/comm.c **** /*
   2:.\Generated_Source\PSoC4/comm.c ****  * commHandler.c
   3:.\Generated_Source\PSoC4/comm.c ****  *
   4:.\Generated_Source\PSoC4/comm.c ****  *  Created on: 1 lip 2015
   5:.\Generated_Source\PSoC4/comm.c ****  *      Author: kuba
   6:.\Generated_Source\PSoC4/comm.c ****  */
   7:.\Generated_Source\PSoC4/comm.c **** 
   8:.\Generated_Source\PSoC4/comm.c **** #include <project.h>
   9:.\Generated_Source\PSoC4/comm.c **** 
  10:.\Generated_Source\PSoC4/comm.c **** /*
  11:.\Generated_Source\PSoC4/comm.c **** Extern declarations to avoid 'implicit declaration' errors
  12:.\Generated_Source\PSoC4/comm.c **** TODO find better fix, because when for some reason prototype will change,
  13:.\Generated_Source\PSoC4/comm.c **** here also neeed to be changed
  14:.\Generated_Source\PSoC4/comm.c **** */
  15:.\Generated_Source\PSoC4/comm.c **** extern void sleepMgr_requestSleep(void);
  16:.\Generated_Source\PSoC4/comm.c **** extern void sleepMgr_releaseSleep(void);
  17:.\Generated_Source\PSoC4/comm.c **** extern uint32_t SysTimer_GetTicks(void);
  18:.\Generated_Source\PSoC4/comm.c **** 
  19:.\Generated_Source\PSoC4/comm.c **** comm_t comm;
  20:.\Generated_Source\PSoC4/comm.c **** 
  21:.\Generated_Source\PSoC4/comm.c **** char respBuff[RESP_BUFF_LEN];
  22:.\Generated_Source\PSoC4/comm.c **** char *respEnd = respBuff;
  23:.\Generated_Source\PSoC4/comm.c **** int respFreeSpace = RESP_BUFF_LEN;
  24:.\Generated_Source\PSoC4/comm.c **** 
  25:.\Generated_Source\PSoC4/comm.c **** 
  26:.\Generated_Source\PSoC4/comm.c **** #define MSG_SOURCE_HOLDER "{\"atomType\":\"" MY_ATOM_TYPE "\",\"atomId\":" MY_ATOM_ID "}"
  27:.\Generated_Source\PSoC4/comm.c **** 
  28:.\Generated_Source\PSoC4/comm.c **** char msgDestinationHolder[] = "{\"atomType\":\"X\",\"atomId\":0}";
  29:.\Generated_Source\PSoC4/comm.c **** char *msgDestinationHolderAtomType = msgDestinationHolder + 13;
  30:.\Generated_Source\PSoC4/comm.c **** char *msgDestinationHolderAtomId = msgDestinationHolder + 25;
  31:.\Generated_Source\PSoC4/comm.c **** 
  32:.\Generated_Source\PSoC4/comm.c **** /*
  33:.\Generated_Source\PSoC4/comm.c ****  * Converts FLAG passed in string to ENUM
ARM GAS  C:\Users\SDEVAS~1\AppData\Local\Temp\ccPhqTSe.s 			page 2


  34:.\Generated_Source\PSoC4/comm.c ****  */
  35:.\Generated_Source\PSoC4/comm.c **** static comm_flags_t str2flag(const char *str, int len) {
  36:.\Generated_Source\PSoC4/comm.c ****   if(strncmp(str, "REQ", len) == 0) return COMM_FLAG_REQ;
  37:.\Generated_Source\PSoC4/comm.c ****   if(strncmp(str, "REQ_ACK", len) == 0) return COMM_FLAG_REQ_ACK;
  38:.\Generated_Source\PSoC4/comm.c ****   if(strncmp(str, "ACK", len) == 0) return COMM_FLAG_ACK;
  39:.\Generated_Source\PSoC4/comm.c ****   if(strncmp(str, "NACK", len) == 0) return COMM_FLAG_NACK;
  40:.\Generated_Source\PSoC4/comm.c ****   if(strncmp(str, "PUSH", len) == 0) return COMM_FLAG_PUSH;
  41:.\Generated_Source\PSoC4/comm.c ****   return COMM_FLAG_UNKNOWN;
  42:.\Generated_Source\PSoC4/comm.c **** }
  43:.\Generated_Source\PSoC4/comm.c **** /*
  44:.\Generated_Source\PSoC4/comm.c ****  * Converts ENUM Flag to string, length checking, returns bytes written to string
  45:.\Generated_Source\PSoC4/comm.c ****  */
  46:.\Generated_Source\PSoC4/comm.c **** static int flag2str(char *str, int len, comm_flags_t flag) {
  47:.\Generated_Source\PSoC4/comm.c ****   switch(flag) {
  48:.\Generated_Source\PSoC4/comm.c ****     case COMM_FLAG_REQ: memcpy(str, "REQ", len < 3 ? len : 3); return len < 3 ? len : 3;
  49:.\Generated_Source\PSoC4/comm.c ****     case COMM_FLAG_REQ_ACK: memcpy(str, "REQ_ACK", len < 7 ? len : 7); return len < 7 ? len : 7;
  50:.\Generated_Source\PSoC4/comm.c ****     case COMM_FLAG_ACK: memcpy(str, "ACK", len <  3 ? len : 3); return len <  3 ? len : 3;
  51:.\Generated_Source\PSoC4/comm.c ****     case COMM_FLAG_NACK: memcpy(str, "NACK", len < 4 ? len : 4); return len < 4 ? len : 4;
  52:.\Generated_Source\PSoC4/comm.c ****     case COMM_FLAG_PUSH: memcpy(str, "PUSH", len < 4 ? len : 4); return len < 4 ? len : 4;
  53:.\Generated_Source\PSoC4/comm.c ****     case COMM_FLAG_UNKNOWN: //no break on purpose
  54:.\Generated_Source\PSoC4/comm.c ****     default: memcpy(str, "ERR", len < 3 ? len : 3); return len < 3 ? len : 3;
  55:.\Generated_Source\PSoC4/comm.c ****   }
  56:.\Generated_Source\PSoC4/comm.c **** }
  57:.\Generated_Source\PSoC4/comm.c **** 
  58:.\Generated_Source\PSoC4/comm.c **** /*
  59:.\Generated_Source\PSoC4/comm.c ****  * ATOM ORDERs prototypes
  60:.\Generated_Source\PSoC4/comm.c ****  */
  61:.\Generated_Source\PSoC4/comm.c **** #define X(order) extern comm_flags_t comm_handle_##order(comm_flags_t flags, const char *payload, i
  62:.\Generated_Source\PSoC4/comm.c ****   ATOM_ORDERS
  63:.\Generated_Source\PSoC4/comm.c **** #undef X
  64:.\Generated_Source\PSoC4/comm.c **** comm_flags_t comm_handle_Set(comm_flags_t flags, const char *payload, int payloadLen, jsmntok_t *to
  65:.\Generated_Source\PSoC4/comm.c **** comm_flags_t comm_handle_Get(comm_flags_t flags, const char *payload, int payloadLen, jsmntok_t *to
  66:.\Generated_Source\PSoC4/comm.c **** comm_flags_t comm_handle_Info(comm_flags_t flags, const char *payload, int payloadLen, jsmntok_t *t
  67:.\Generated_Source\PSoC4/comm.c **** comm_flags_t comm_handle_Status(comm_flags_t flags, const char *payload, int payloadLen, jsmntok_t 
  68:.\Generated_Source\PSoC4/comm.c **** comm_flags_t comm_handle_Mode(comm_flags_t flags, const char *payload, int payloadLen, jsmntok_t *t
  69:.\Generated_Source\PSoC4/comm.c **** 
  70:.\Generated_Source\PSoC4/comm.c **** 
  71:.\Generated_Source\PSoC4/comm.c **** 
  72:.\Generated_Source\PSoC4/comm.c **** /*
  73:.\Generated_Source\PSoC4/comm.c ****  * ATOM VARIABLES section
  74:.\Generated_Source\PSoC4/comm.c ****  */
  75:.\Generated_Source\PSoC4/comm.c **** typedef enum {
  76:.\Generated_Source\PSoC4/comm.c **** #define X(name, vtype, jtype) ATOM_VARIABLE_##name,
  77:.\Generated_Source\PSoC4/comm.c ****   ATOM_VARIABLES
  78:.\Generated_Source\PSoC4/comm.c **** #undef X
  79:.\Generated_Source\PSoC4/comm.c ****   NUM_OF_ATOM_VARIABLES,
  80:.\Generated_Source\PSoC4/comm.c ****   INVALID_ATOM_VARIABLE
  81:.\Generated_Source\PSoC4/comm.c **** } atom_variables_id_t;
  82:.\Generated_Source\PSoC4/comm.c **** 
  83:.\Generated_Source\PSoC4/comm.c **** static const char * atom_variables_id_strings[NUM_OF_ATOM_VARIABLES] = {
  84:.\Generated_Source\PSoC4/comm.c **** #define X(name, vtype, jtype) [ATOM_VARIABLE_##name] = #name,
  85:.\Generated_Source\PSoC4/comm.c ****     ATOM_VARIABLES
  86:.\Generated_Source\PSoC4/comm.c **** #undef X
  87:.\Generated_Source\PSoC4/comm.c **** };
  88:.\Generated_Source\PSoC4/comm.c **** static atom_variables_id_t get_atom_variable_id_from_string(const char * str, int len) {
  89:.\Generated_Source\PSoC4/comm.c **** #define X(name, vtype, jtype) if(strncmp(str, atom_variables_id_strings[ATOM_VARIABLE_##name], len)
  90:.\Generated_Source\PSoC4/comm.c ****   ATOM_VARIABLES
ARM GAS  C:\Users\SDEVAS~1\AppData\Local\Temp\ccPhqTSe.s 			page 3


  91:.\Generated_Source\PSoC4/comm.c **** #undef X
  92:.\Generated_Source\PSoC4/comm.c ****   return INVALID_ATOM_VARIABLE;
  93:.\Generated_Source\PSoC4/comm.c **** }
  94:.\Generated_Source\PSoC4/comm.c **** 
  95:.\Generated_Source\PSoC4/comm.c **** #define X(name, vtype, jtype) \
  96:.\Generated_Source\PSoC4/comm.c **** extern void setvar_##name(vtype);\
  97:.\Generated_Source\PSoC4/comm.c **** extern vtype getvar_##name(void);
  98:.\Generated_Source\PSoC4/comm.c **** ATOM_VARIABLES
  99:.\Generated_Source\PSoC4/comm.c **** #undef X
 100:.\Generated_Source\PSoC4/comm.c **** /*
 101:.\Generated_Source\PSoC4/comm.c ****  * End of ATOM VARIABLES section
 102:.\Generated_Source\PSoC4/comm.c ****  */
 103:.\Generated_Source\PSoC4/comm.c **** 
 104:.\Generated_Source\PSoC4/comm.c **** /*
 105:.\Generated_Source\PSoC4/comm.c ****  * ATOM MODES section
 106:.\Generated_Source\PSoC4/comm.c ****  */
 107:.\Generated_Source\PSoC4/comm.c **** static const char * atom_modes_strings[NUM_OF_ATOM_MODES] = {
 108:.\Generated_Source\PSoC4/comm.c **** #define X(mode) [ATOM_MODE_##mode] = #mode,
 109:.\Generated_Source\PSoC4/comm.c **** 	ATOM_MODES
 110:.\Generated_Source\PSoC4/comm.c **** #undef X
 111:.\Generated_Source\PSoC4/comm.c **** };
 112:.\Generated_Source\PSoC4/comm.c **** static atom_modes_t get_atom_mode_from_string(const char *str, int len) {
 113:.\Generated_Source\PSoC4/comm.c **** #define X(mode) if(strncmp(str, atom_modes_strings[ATOM_MODE_##mode], len) == 0) return ATOM_MODE_#
 114:.\Generated_Source\PSoC4/comm.c **** 	ATOM_MODES
 115:.\Generated_Source\PSoC4/comm.c **** #undef X
 116:.\Generated_Source\PSoC4/comm.c **** 	return INVALID_ATOM_MODE;
 117:.\Generated_Source\PSoC4/comm.c **** }
 118:.\Generated_Source\PSoC4/comm.c **** 
 119:.\Generated_Source\PSoC4/comm.c **** /*
 120:.\Generated_Source\PSoC4/comm.c ****  * END OF ATOM MODES
 121:.\Generated_Source\PSoC4/comm.c ****  */
 122:.\Generated_Source\PSoC4/comm.c **** 
 123:.\Generated_Source\PSoC4/comm.c **** //JSON/JSMN helpers
 124:.\Generated_Source\PSoC4/comm.c **** static int compKey(const char *json, jsmntok_t *t, const char *key) {
 125:.\Generated_Source\PSoC4/comm.c ****   if(t->type == JSMN_STRING && strncmp(json + t->start, key, t->end - t->start) == 0) {
 126:.\Generated_Source\PSoC4/comm.c ****     return 0;
 127:.\Generated_Source\PSoC4/comm.c ****   }
 128:.\Generated_Source\PSoC4/comm.c ****   return -1;
 129:.\Generated_Source\PSoC4/comm.c **** }
 130:.\Generated_Source\PSoC4/comm.c **** static int skipToNextTokenInLevel(jsmntok_t *tokens, int current) {
  25              		.loc 1 130 0
  26              		.cfi_startproc
  27              	.LVL0:
 131:.\Generated_Source\PSoC4/comm.c ****   if(tokens[current].type == JSMN_OBJECT ||
  28              		.loc 1 131 0
  29 0000 0B01     		lsl	r3, r1, #4
  30 0002 C318     		add	r3, r0, r3
  31 0004 1A78     		ldrb	r2, [r3]
  32 0006 013A     		sub	r2, r2, #1
  33 0008 012A     		cmp	r2, #1
  34 000a 07D8     		bhi	.L2
  35              	.LBB16:
 132:.\Generated_Source\PSoC4/comm.c ****      tokens[current].type == JSMN_ARRAY) {
 133:.\Generated_Source\PSoC4/comm.c ****     int expectedEnd = tokens[current].end;
  36              		.loc 1 133 0
  37 000c 9A68     		ldr	r2, [r3, #8]
  38              	.LVL1:
ARM GAS  C:\Users\SDEVAS~1\AppData\Local\Temp\ccPhqTSe.s 			page 4


  39              	.L4:
 134:.\Generated_Source\PSoC4/comm.c ****     while(expectedEnd > tokens[++current].start);
  40              		.loc 1 134 0 discriminator 1
  41 000e 0131     		add	r1, r1, #1
  42              	.LVL2:
  43 0010 0B01     		lsl	r3, r1, #4
  44 0012 C318     		add	r3, r0, r3
  45 0014 5B68     		ldr	r3, [r3, #4]
  46 0016 9A42     		cmp	r2, r3
  47 0018 F9DC     		bgt	.L4
  48 001a 00E0     		b	.L3
  49              	.LVL3:
  50              	.L2:
  51              	.LBE16:
 135:.\Generated_Source\PSoC4/comm.c ****   } else {
 136:.\Generated_Source\PSoC4/comm.c ****     //normal, just skip token
 137:.\Generated_Source\PSoC4/comm.c ****     current++;
  52              		.loc 1 137 0
  53 001c 0131     		add	r1, r1, #1
  54              	.LVL4:
  55              	.L3:
 138:.\Generated_Source\PSoC4/comm.c ****   }
 139:.\Generated_Source\PSoC4/comm.c ****   return current;
 140:.\Generated_Source\PSoC4/comm.c **** }
  56              		.loc 1 140 0
  57 001e 081C     		mov	r0, r1
  58              	.LVL5:
  59              		@ sp needed
  60 0020 7047     		bx	lr
  61              		.cfi_endproc
  62              	.LFE38:
  63              		.size	skipToNextTokenInLevel, .-skipToNextTokenInLevel
  64              		.section	.text.rs485_selected_as_slave_callback,"ax",%progbits
  65              		.align	1
  66              		.global	rs485_selected_as_slave_callback
  67              		.code	16
  68              		.thumb_func
  69              		.type	rs485_selected_as_slave_callback, %function
  70              	rs485_selected_as_slave_callback:
  71              	.LFB48:
 141:.\Generated_Source\PSoC4/comm.c **** 
 142:.\Generated_Source\PSoC4/comm.c **** // Functions for JSON protocol creating
 143:.\Generated_Source\PSoC4/comm.c **** static inline void resp_GenDestSrcOrder(
 144:.\Generated_Source\PSoC4/comm.c ****   const char *dest, int destLen,
 145:.\Generated_Source\PSoC4/comm.c ****   const char *src, int srcLen,
 146:.\Generated_Source\PSoC4/comm.c ****   const char *order, int orderLen) {
 147:.\Generated_Source\PSoC4/comm.c **** 
 148:.\Generated_Source\PSoC4/comm.c ****   respEnd = respBuff;
 149:.\Generated_Source\PSoC4/comm.c ****   respFreeSpace = RESP_BUFF_LEN;
 150:.\Generated_Source\PSoC4/comm.c **** 
 151:.\Generated_Source\PSoC4/comm.c ****   ADD_STATIC_STRING_TO_RESP("{\"destination\":");
 152:.\Generated_Source\PSoC4/comm.c **** 
 153:.\Generated_Source\PSoC4/comm.c ****   memcpy(respEnd, dest, destLen);
 154:.\Generated_Source\PSoC4/comm.c ****   respEnd += destLen;
 155:.\Generated_Source\PSoC4/comm.c ****   respFreeSpace -= destLen;
 156:.\Generated_Source\PSoC4/comm.c **** 
 157:.\Generated_Source\PSoC4/comm.c ****   ADD_STATIC_STRING_TO_RESP(",\"source\":");
ARM GAS  C:\Users\SDEVAS~1\AppData\Local\Temp\ccPhqTSe.s 			page 5


 158:.\Generated_Source\PSoC4/comm.c **** 
 159:.\Generated_Source\PSoC4/comm.c ****   memcpy(respEnd, src, srcLen);
 160:.\Generated_Source\PSoC4/comm.c ****   respEnd += srcLen;
 161:.\Generated_Source\PSoC4/comm.c ****   respFreeSpace -= srcLen;
 162:.\Generated_Source\PSoC4/comm.c **** 
 163:.\Generated_Source\PSoC4/comm.c ****   // memcpy(respEnd, ",\"source\":" ATOM_SOURCE_FIELD, sizeof(",\"source\":" ATOM_SOURCE_FIELD));
 164:.\Generated_Source\PSoC4/comm.c ****   // respEnd += sizeof(",\"source\":" ATOM_SOURCE_FIELD) -1;
 165:.\Generated_Source\PSoC4/comm.c ****   // respFreeSpace -= sizeof(",\"source\":" ATOM_SOURCE_FIELD) -1;
 166:.\Generated_Source\PSoC4/comm.c **** 
 167:.\Generated_Source\PSoC4/comm.c ****   ADD_STATIC_STRING_TO_RESP(",\"order\":\"");
 168:.\Generated_Source\PSoC4/comm.c **** 
 169:.\Generated_Source\PSoC4/comm.c ****   memcpy(respEnd, order, orderLen);
 170:.\Generated_Source\PSoC4/comm.c ****   respEnd += orderLen;
 171:.\Generated_Source\PSoC4/comm.c ****   respFreeSpace -= orderLen;
 172:.\Generated_Source\PSoC4/comm.c **** 
 173:.\Generated_Source\PSoC4/comm.c ****   ADD_CHAR_TO_RESP('\"');
 174:.\Generated_Source\PSoC4/comm.c **** }
 175:.\Generated_Source\PSoC4/comm.c **** 
 176:.\Generated_Source\PSoC4/comm.c **** void resp_AddFlags(comm_flags_t flag) {
 177:.\Generated_Source\PSoC4/comm.c ****   ADD_STATIC_STRING_TO_RESP(",\"flags\":\"");
 178:.\Generated_Source\PSoC4/comm.c **** 
 179:.\Generated_Source\PSoC4/comm.c ****   int r = flag2str(respEnd, respFreeSpace, flag);
 180:.\Generated_Source\PSoC4/comm.c ****   respEnd += r;
 181:.\Generated_Source\PSoC4/comm.c ****   respFreeSpace -= r;
 182:.\Generated_Source\PSoC4/comm.c **** 
 183:.\Generated_Source\PSoC4/comm.c ****   ADD_CHAR_TO_RESP('\"');
 184:.\Generated_Source\PSoC4/comm.c **** }
 185:.\Generated_Source\PSoC4/comm.c **** 
 186:.\Generated_Source\PSoC4/comm.c **** typedef enum {
 187:.\Generated_Source\PSoC4/comm.c ****   JSON_MSG_PARSE_OK = 0,
 188:.\Generated_Source\PSoC4/comm.c ****   JSON_MSG_PARSE_FAILED,
 189:.\Generated_Source\PSoC4/comm.c ****   JSON_MSG_INVALID_DESTINATION,
 190:.\Generated_Source\PSoC4/comm.c ****   JSON_MSG_INVALID_FIELDS,
 191:.\Generated_Source\PSoC4/comm.c ****   JSON_MSG_GETSET_INVALID_VARIABLE
 192:.\Generated_Source\PSoC4/comm.c **** } JSON_MSG_return_t;
 193:.\Generated_Source\PSoC4/comm.c **** 
 194:.\Generated_Source\PSoC4/comm.c **** static comm_flags_t flags = COMM_FLAG_UNKNOWN;
 195:.\Generated_Source\PSoC4/comm.c **** static const char *order = NULL;
 196:.\Generated_Source\PSoC4/comm.c **** static int orderLen = 0;
 197:.\Generated_Source\PSoC4/comm.c **** static const char *payload = NULL;
 198:.\Generated_Source\PSoC4/comm.c **** static int payloadLen = 0;
 199:.\Generated_Source\PSoC4/comm.c **** 
 200:.\Generated_Source\PSoC4/comm.c **** static const char *msgSource = NULL;
 201:.\Generated_Source\PSoC4/comm.c **** static int msgSourceLen = 0;
 202:.\Generated_Source\PSoC4/comm.c **** static const char *msgDest = NULL;
 203:.\Generated_Source\PSoC4/comm.c **** static int msgDestLen = 0;
 204:.\Generated_Source\PSoC4/comm.c **** 
 205:.\Generated_Source\PSoC4/comm.c **** #define JSMN_TOKENS_SIZE 60
 206:.\Generated_Source\PSoC4/comm.c **** static jsmn_parser parser;
 207:.\Generated_Source\PSoC4/comm.c **** jsmntok_t tokens[JSMN_TOKENS_SIZE];
 208:.\Generated_Source\PSoC4/comm.c **** 
 209:.\Generated_Source\PSoC4/comm.c **** /* This function tests if recived JSON msg was addressed correctly,
 210:.\Generated_Source\PSoC4/comm.c ****  * it sets flags, order, payload and msgSource variables
 211:.\Generated_Source\PSoC4/comm.c ****  */
 212:.\Generated_Source\PSoC4/comm.c **** JSON_MSG_return_t validateDestinationAndParse(const char* json, int json_len) {
 213:.\Generated_Source\PSoC4/comm.c **** 	//reset globals
 214:.\Generated_Source\PSoC4/comm.c **** 	order = payload = msgSource = msgDest = NULL;
ARM GAS  C:\Users\SDEVAS~1\AppData\Local\Temp\ccPhqTSe.s 			page 6


 215:.\Generated_Source\PSoC4/comm.c **** 	flags = COMM_FLAG_UNKNOWN;
 216:.\Generated_Source\PSoC4/comm.c ****   jsmn_init(&parser);
 217:.\Generated_Source\PSoC4/comm.c ****   int r = jsmn_parse(&parser, json, json_len, tokens, JSMN_TOKENS_SIZE);
 218:.\Generated_Source\PSoC4/comm.c ****   if(r <= 0)
 219:.\Generated_Source\PSoC4/comm.c ****     return JSON_MSG_PARSE_FAILED;
 220:.\Generated_Source\PSoC4/comm.c ****   // for(int i = 0; i < r; i++) {
 221:.\Generated_Source\PSoC4/comm.c ****   //   printf("[%2d]Type: %3d, size: %3d, start: %3d, end: %3d", i, tokens[i].type,
 222:.\Generated_Source\PSoC4/comm.c ****   //   tokens[i].size, tokens[i].start, tokens[i].end);
 223:.\Generated_Source\PSoC4/comm.c ****   //   printf(", value: %.*s", tokens[i].end - tokens[i].start, json + tokens[i].start);
 224:.\Generated_Source\PSoC4/comm.c ****   //   printf("\n");
 225:.\Generated_Source\PSoC4/comm.c ****   // }
 226:.\Generated_Source\PSoC4/comm.c ****   // return 0;
 227:.\Generated_Source\PSoC4/comm.c ****   if(tokens[0].type != JSMN_OBJECT)
 228:.\Generated_Source\PSoC4/comm.c ****     return JSON_MSG_PARSE_FAILED;
 229:.\Generated_Source\PSoC4/comm.c **** 
 230:.\Generated_Source\PSoC4/comm.c ****   int t = 1;
 231:.\Generated_Source\PSoC4/comm.c ****   int i = 0;
 232:.\Generated_Source\PSoC4/comm.c ****   for(; i < tokens[0].size; i++) {
 233:.\Generated_Source\PSoC4/comm.c ****     if(tokens[t].type != JSMN_STRING) //it should point to key
 234:.\Generated_Source\PSoC4/comm.c ****       return JSON_MSG_PARSE_FAILED;
 235:.\Generated_Source\PSoC4/comm.c ****     //printf("!value: %.*s\n", tokens[t].end - tokens[t].start, argv[1] + tokens[t].start);
 236:.\Generated_Source\PSoC4/comm.c ****     if(compKey(json, &tokens[t], "destination") == 0) {
 237:.\Generated_Source\PSoC4/comm.c ****       if(tokens[t+1].type != JSMN_OBJECT)//it should be OBJECT
 238:.\Generated_Source\PSoC4/comm.c ****         return JSON_MSG_PARSE_FAILED;
 239:.\Generated_Source\PSoC4/comm.c ****       int y = t+2;
 240:.\Generated_Source\PSoC4/comm.c ****       int j = 0;
 241:.\Generated_Source\PSoC4/comm.c ****       for(; j < tokens[t+1].size; j++) {
 242:.\Generated_Source\PSoC4/comm.c ****         //were in destination object
 243:.\Generated_Source\PSoC4/comm.c ****         if(tokens[y].type != JSMN_STRING) //it should point to key
 244:.\Generated_Source\PSoC4/comm.c ****           return JSON_MSG_PARSE_FAILED;
 245:.\Generated_Source\PSoC4/comm.c ****         //printf("-!value: %.*s\n", tokens[y].end - tokens[y].start, argv[1] + tokens[y].start);
 246:.\Generated_Source\PSoC4/comm.c ****         if(compKey(json, &tokens[y], "atomType") == 0) {
 247:.\Generated_Source\PSoC4/comm.c ****           //woot atom type
 248:.\Generated_Source\PSoC4/comm.c ****           if(strncmp(json + tokens[y+1].start, MY_ATOM_TYPE, tokens[y+1].end - tokens[y+1].start) !
 249:.\Generated_Source\PSoC4/comm.c ****             return JSON_MSG_INVALID_DESTINATION;
 250:.\Generated_Source\PSoC4/comm.c ****           }
 251:.\Generated_Source\PSoC4/comm.c ****         } else if(compKey(json, &tokens[y], "atomId") == 0) {
 252:.\Generated_Source\PSoC4/comm.c ****           //woot atomId
 253:.\Generated_Source\PSoC4/comm.c ****           if(strncmp(json + tokens[y+1].start, MY_ATOM_ID, tokens[y+1].end - tokens[y+1].start) != 
 254:.\Generated_Source\PSoC4/comm.c ****             return JSON_MSG_INVALID_DESTINATION;
 255:.\Generated_Source\PSoC4/comm.c ****           }
 256:.\Generated_Source\PSoC4/comm.c ****         }
 257:.\Generated_Source\PSoC4/comm.c ****         y = skipToNextTokenInLevel(tokens, ++y);
 258:.\Generated_Source\PSoC4/comm.c ****       }
 259:.\Generated_Source\PSoC4/comm.c ****       msgDest = json + tokens[t+1].start;
 260:.\Generated_Source\PSoC4/comm.c ****       msgDestLen = tokens[t+1].end - tokens[t+1].start;
 261:.\Generated_Source\PSoC4/comm.c ****     } else if(compKey(json, &tokens[t], "source") == 0) {
 262:.\Generated_Source\PSoC4/comm.c ****       if(tokens[t+1].type != JSMN_OBJECT)//it should be OBJECT
 263:.\Generated_Source\PSoC4/comm.c ****         return JSON_MSG_PARSE_FAILED;
 264:.\Generated_Source\PSoC4/comm.c ****       msgSource = json + tokens[t+1].start;
 265:.\Generated_Source\PSoC4/comm.c ****       msgSourceLen = tokens[t+1].end - tokens[t+1].start;
 266:.\Generated_Source\PSoC4/comm.c ****     } else if(compKey(json, &tokens[t], "flags") == 0) {
 267:.\Generated_Source\PSoC4/comm.c ****       flags = str2flag(json + tokens[t+1].start, tokens[t+1].end - tokens[t+1].start);
 268:.\Generated_Source\PSoC4/comm.c ****     } else if(compKey(json, &tokens[t], "order") == 0) {
 269:.\Generated_Source\PSoC4/comm.c ****       order = json + tokens[t+1].start;
 270:.\Generated_Source\PSoC4/comm.c ****       orderLen = tokens[t+1].end - tokens[t+1].start;
 271:.\Generated_Source\PSoC4/comm.c ****     } else if(compKey(json, &tokens[t], "payload") == 0) {
ARM GAS  C:\Users\SDEVAS~1\AppData\Local\Temp\ccPhqTSe.s 			page 7


 272:.\Generated_Source\PSoC4/comm.c ****       payload = json + tokens[t+1].start;
 273:.\Generated_Source\PSoC4/comm.c ****       payloadLen = tokens[t+1].end - tokens[t+1].start;
 274:.\Generated_Source\PSoC4/comm.c ****     }
 275:.\Generated_Source\PSoC4/comm.c ****     t = skipToNextTokenInLevel(tokens, ++t);
 276:.\Generated_Source\PSoC4/comm.c ****   }
 277:.\Generated_Source\PSoC4/comm.c ****   if(msgSource == NULL || msgDest == NULL || order == NULL || flags == COMM_FLAG_UNKNOWN || payload
 278:.\Generated_Source\PSoC4/comm.c ****     return JSON_MSG_INVALID_FIELDS;
 279:.\Generated_Source\PSoC4/comm.c ****   }
 280:.\Generated_Source\PSoC4/comm.c ****   return JSON_MSG_PARSE_OK;
 281:.\Generated_Source\PSoC4/comm.c **** }
 282:.\Generated_Source\PSoC4/comm.c **** 
 283:.\Generated_Source\PSoC4/comm.c **** comm_flags_t comm_handle_Get(comm_flags_t flags, const char *payload, int payloadLen, jsmntok_t *to
 284:.\Generated_Source\PSoC4/comm.c ****   switch(flags) {
 285:.\Generated_Source\PSoC4/comm.c ****   case COMM_FLAG_REQ: //here is implementation of standard GET request, we are breaking case, so im
 286:.\Generated_Source\PSoC4/comm.c **** 	  break;
 287:.\Generated_Source\PSoC4/comm.c ****   case COMM_FLAG_ACK: //here can be implementation of GET ACK message, however, receiving ACK means
 288:.\Generated_Source\PSoC4/comm.c ****   default: return COMM_FLAG_UNKNOWN;//we only handle REQ and ACK
 289:.\Generated_Source\PSoC4/comm.c ****   }
 290:.\Generated_Source\PSoC4/comm.c **** 
 291:.\Generated_Source\PSoC4/comm.c ****   if(tokens[0].type != JSMN_OBJECT) {
 292:.\Generated_Source\PSoC4/comm.c **** 	  //invalid payload, it should be an object
 293:.\Generated_Source\PSoC4/comm.c **** 	  goto error_exit;
 294:.\Generated_Source\PSoC4/comm.c ****   }
 295:.\Generated_Source\PSoC4/comm.c **** 
 296:.\Generated_Source\PSoC4/comm.c ****   int t = 1;
 297:.\Generated_Source\PSoC4/comm.c ****   atom_variables_id_t avid = INVALID_ATOM_VARIABLE;
 298:.\Generated_Source\PSoC4/comm.c ****   int i = 0;
 299:.\Generated_Source\PSoC4/comm.c ****   for(; i < tokens[0].size; i++) {
 300:.\Generated_Source\PSoC4/comm.c **** 	if(tokens[t].type != JSMN_STRING) {//it should point to key
 301:.\Generated_Source\PSoC4/comm.c **** 	  //something is wrong with payload
 302:.\Generated_Source\PSoC4/comm.c **** 	  goto error_exit;
 303:.\Generated_Source\PSoC4/comm.c **** 	}
 304:.\Generated_Source\PSoC4/comm.c ****     if(compKey(payload, &tokens[t], "n") == 0) {
 305:.\Generated_Source\PSoC4/comm.c ****       //printf("%.*s\n", tokens[t+1].end - tokens[t+1].start, payload + tokens[t+1].start);
 306:.\Generated_Source\PSoC4/comm.c ****       avid = get_atom_variable_id_from_string(payload + tokens[t+1].start,tokens[t+1].end - tokens[
 307:.\Generated_Source\PSoC4/comm.c ****       break;
 308:.\Generated_Source\PSoC4/comm.c ****     }
 309:.\Generated_Source\PSoC4/comm.c ****     t = skipToNextTokenInLevel(tokens, ++t);
 310:.\Generated_Source\PSoC4/comm.c ****   }
 311:.\Generated_Source\PSoC4/comm.c ****   if(avid == INVALID_ATOM_VARIABLE) {
 312:.\Generated_Source\PSoC4/comm.c **** 	  //failed to properly parse Payload, not found variable or unknown
 313:.\Generated_Source\PSoC4/comm.c **** 	  goto error_exit;
 314:.\Generated_Source\PSoC4/comm.c ****   }
 315:.\Generated_Source\PSoC4/comm.c **** 
 316:.\Generated_Source\PSoC4/comm.c ****   int tmp = 0;
 317:.\Generated_Source\PSoC4/comm.c ****   switch(avid) {
 318:.\Generated_Source\PSoC4/comm.c **** #define X(name, vtype, jtype) \
 319:.\Generated_Source\PSoC4/comm.c ****     case ATOM_VARIABLE_##name: { \
 320:.\Generated_Source\PSoC4/comm.c ****       ADD_STATIC_STRING_TO_RESP(",\"payload\":{\"n\":\"" #name "\",\"t\":\"" #jtype "\",\"v\":"); \
 321:.\Generated_Source\PSoC4/comm.c ****       tmp = conv_##jtype##2str(respEnd, respFreeSpace, getvar_##name()); \
 322:.\Generated_Source\PSoC4/comm.c ****     } break;
 323:.\Generated_Source\PSoC4/comm.c ****     ATOM_VARIABLES
 324:.\Generated_Source\PSoC4/comm.c **** #undef X
 325:.\Generated_Source\PSoC4/comm.c ****     default: goto error_exit;
 326:.\Generated_Source\PSoC4/comm.c ****     break;
 327:.\Generated_Source\PSoC4/comm.c ****   }
 328:.\Generated_Source\PSoC4/comm.c ****   respEnd += tmp;
ARM GAS  C:\Users\SDEVAS~1\AppData\Local\Temp\ccPhqTSe.s 			page 8


 329:.\Generated_Source\PSoC4/comm.c ****   respFreeSpace -= tmp;
 330:.\Generated_Source\PSoC4/comm.c **** 
 331:.\Generated_Source\PSoC4/comm.c ****   ADD_CHAR_TO_RESP('}');
 332:.\Generated_Source\PSoC4/comm.c **** 
 333:.\Generated_Source\PSoC4/comm.c ****   return COMM_FLAG_REQ_ACK;
 334:.\Generated_Source\PSoC4/comm.c **** error_exit:
 335:.\Generated_Source\PSoC4/comm.c **** 	ADD_STATIC_STRING_TO_RESP(",\"payload\":null");
 336:.\Generated_Source\PSoC4/comm.c **** 	return COMM_FLAG_NACK;
 337:.\Generated_Source\PSoC4/comm.c **** }
 338:.\Generated_Source\PSoC4/comm.c **** 
 339:.\Generated_Source\PSoC4/comm.c **** comm_flags_t comm_handle_Set(comm_flags_t flags, const char *payload, int payloadLen, jsmntok_t *to
 340:.\Generated_Source\PSoC4/comm.c **** 	if(flags != COMM_FLAG_REQ) {
 341:.\Generated_Source\PSoC4/comm.c **** 		//we only expect REQ flags, ignore otherwise (this is error?
 342:.\Generated_Source\PSoC4/comm.c **** 		return COMM_FLAG_UNKNOWN;
 343:.\Generated_Source\PSoC4/comm.c **** 	}
 344:.\Generated_Source\PSoC4/comm.c ****   if(tokens[0].type != JSMN_OBJECT) {
 345:.\Generated_Source\PSoC4/comm.c **** 	  //invalid payload, it should be an object
 346:.\Generated_Source\PSoC4/comm.c **** 	  goto error_exit;
 347:.\Generated_Source\PSoC4/comm.c ****   }
 348:.\Generated_Source\PSoC4/comm.c **** 
 349:.\Generated_Source\PSoC4/comm.c ****   int t = 1;
 350:.\Generated_Source\PSoC4/comm.c ****   atom_variables_id_t avid = INVALID_ATOM_VARIABLE;
 351:.\Generated_Source\PSoC4/comm.c ****   const char *value = NULL;
 352:.\Generated_Source\PSoC4/comm.c ****   int valueLen = 0;
 353:.\Generated_Source\PSoC4/comm.c ****   const char *type = NULL;
 354:.\Generated_Source\PSoC4/comm.c ****   int typeLen = 0;
 355:.\Generated_Source\PSoC4/comm.c ****   int i = 0;
 356:.\Generated_Source\PSoC4/comm.c ****   for(; i < tokens[0].size; i++) {
 357:.\Generated_Source\PSoC4/comm.c **** 	  if(tokens[t].type != JSMN_STRING) {//it should point to key
 358:.\Generated_Source\PSoC4/comm.c **** 		  //something is wrong with payload
 359:.\Generated_Source\PSoC4/comm.c **** 		  goto error_exit;
 360:.\Generated_Source\PSoC4/comm.c **** 	  }
 361:.\Generated_Source\PSoC4/comm.c ****     if(compKey(payload, &tokens[t], "n") == 0) {
 362:.\Generated_Source\PSoC4/comm.c ****       //printf("%.*s\n", tokens[t+1].end - tokens[t+1].start, payload + tokens[t+1].start);
 363:.\Generated_Source\PSoC4/comm.c ****       avid = get_atom_variable_id_from_string(payload + tokens[t+1].start,tokens[t+1].end - tokens[
 364:.\Generated_Source\PSoC4/comm.c ****     } else if(compKey(payload, &tokens[t], "t") == 0) {
 365:.\Generated_Source\PSoC4/comm.c ****       type = payload + tokens[t+1].start;
 366:.\Generated_Source\PSoC4/comm.c ****       typeLen = tokens[t+1].end - tokens[t+1].start;
 367:.\Generated_Source\PSoC4/comm.c ****     } else if(compKey(payload, &tokens[t], "v") == 0) {
 368:.\Generated_Source\PSoC4/comm.c ****       value = payload + tokens[t+1].start;
 369:.\Generated_Source\PSoC4/comm.c ****       valueLen = tokens[t+1].end - tokens[t+1].start;
 370:.\Generated_Source\PSoC4/comm.c ****     }
 371:.\Generated_Source\PSoC4/comm.c ****     t = skipToNextTokenInLevel(tokens, ++t);
 372:.\Generated_Source\PSoC4/comm.c ****   }
 373:.\Generated_Source\PSoC4/comm.c **** 
 374:.\Generated_Source\PSoC4/comm.c ****   if(value == NULL || type == NULL || avid == INVALID_ATOM_VARIABLE) {
 375:.\Generated_Source\PSoC4/comm.c **** 	  //failed to properly parse Payload
 376:.\Generated_Source\PSoC4/comm.c **** 	  goto error_exit;
 377:.\Generated_Source\PSoC4/comm.c ****   }
 378:.\Generated_Source\PSoC4/comm.c **** 
 379:.\Generated_Source\PSoC4/comm.c ****   switch(avid) {
 380:.\Generated_Source\PSoC4/comm.c **** #define X(name, vtype, jtype) \
 381:.\Generated_Source\PSoC4/comm.c ****     case ATOM_VARIABLE_##name: { \
 382:.\Generated_Source\PSoC4/comm.c ****       if(strncmp(type, #jtype, typeLen) == 0) \
 383:.\Generated_Source\PSoC4/comm.c ****         setvar_##name(conv_str2##jtype(value, valueLen)); \
 384:.\Generated_Source\PSoC4/comm.c ****     } break;
 385:.\Generated_Source\PSoC4/comm.c ****     ATOM_VARIABLES
ARM GAS  C:\Users\SDEVAS~1\AppData\Local\Temp\ccPhqTSe.s 			page 9


 386:.\Generated_Source\PSoC4/comm.c **** #undef X
 387:.\Generated_Source\PSoC4/comm.c ****     default: goto error_exit;
 388:.\Generated_Source\PSoC4/comm.c ****     break;
 389:.\Generated_Source\PSoC4/comm.c ****   }
 390:.\Generated_Source\PSoC4/comm.c **** 
 391:.\Generated_Source\PSoC4/comm.c ****   ADD_STATIC_STRING_TO_RESP(",\"payload\":null");
 392:.\Generated_Source\PSoC4/comm.c **** 
 393:.\Generated_Source\PSoC4/comm.c ****   return COMM_FLAG_ACK;
 394:.\Generated_Source\PSoC4/comm.c **** error_exit:
 395:.\Generated_Source\PSoC4/comm.c **** 	ADD_STATIC_STRING_TO_RESP(",\"payload\":null");
 396:.\Generated_Source\PSoC4/comm.c **** 	return COMM_FLAG_NACK;
 397:.\Generated_Source\PSoC4/comm.c **** }
 398:.\Generated_Source\PSoC4/comm.c **** 
 399:.\Generated_Source\PSoC4/comm.c **** comm_flags_t comm_handle_Info(comm_flags_t flags, const char *payload, int payloadLen, jsmntok_t *t
 400:.\Generated_Source\PSoC4/comm.c **** 	if(flags == COMM_FLAG_UNKNOWN) {
 401:.\Generated_Source\PSoC4/comm.c **** 		//in this case we are preparing this message!
 402:.\Generated_Source\PSoC4/comm.c **** 		ADD_STATIC_STRING_TO_RESP(",\"payload\":{\"oa\":[");
 403:.\Generated_Source\PSoC4/comm.c **** 		comm_GenerateInfo();
 404:.\Generated_Source\PSoC4/comm.c **** 		ADD_STATIC_STRING_TO_RESP("]}");
 405:.\Generated_Source\PSoC4/comm.c **** 		return COMM_FLAG_PUSH;
 406:.\Generated_Source\PSoC4/comm.c **** 	}
 407:.\Generated_Source\PSoC4/comm.c **** 	return COMM_FLAG_UNKNOWN;
 408:.\Generated_Source\PSoC4/comm.c **** }
 409:.\Generated_Source\PSoC4/comm.c **** comm_flags_t comm_handle_Status(comm_flags_t flags, const char *payload, int payloadLen, jsmntok_t 
 410:.\Generated_Source\PSoC4/comm.c **** 	if(flags == COMM_FLAG_REQ) {
 411:.\Generated_Source\PSoC4/comm.c **** 		//We are expecting only REQ here, according to protocol, payload array with Info block is expecte
 412:.\Generated_Source\PSoC4/comm.c **** 		ADD_STATIC_STRING_TO_RESP(",\"payload\":{\"oa\":[");
 413:.\Generated_Source\PSoC4/comm.c **** 		comm_GenerateInfo();
 414:.\Generated_Source\PSoC4/comm.c **** 		ADD_STATIC_STRING_TO_RESP("]}");
 415:.\Generated_Source\PSoC4/comm.c **** 		return COMM_FLAG_REQ_ACK;
 416:.\Generated_Source\PSoC4/comm.c **** 	}
 417:.\Generated_Source\PSoC4/comm.c **** 	//if we receive ACK, end of communication
 418:.\Generated_Source\PSoC4/comm.c **** 	return COMM_FLAG_UNKNOWN;
 419:.\Generated_Source\PSoC4/comm.c **** }
 420:.\Generated_Source\PSoC4/comm.c **** 
 421:.\Generated_Source\PSoC4/comm.c **** comm_flags_t comm_handle_Mode(comm_flags_t flags, const char *payload, int payloadLen, jsmntok_t *t
 422:.\Generated_Source\PSoC4/comm.c **** 	if(flags == COMM_FLAG_REQ) {
 423:.\Generated_Source\PSoC4/comm.c **** 		//We are expecting only REQ here, according to protocol, ACK or NACK is proper anserw
 424:.\Generated_Source\PSoC4/comm.c **** 
 425:.\Generated_Source\PSoC4/comm.c **** 		atom_modes_t mode = get_atom_mode_from_string(payload, payloadLen);
 426:.\Generated_Source\PSoC4/comm.c **** 
 427:.\Generated_Source\PSoC4/comm.c **** 		if(mode == INVALID_ATOM_MODE) {
 428:.\Generated_Source\PSoC4/comm.c **** 			//invalid payload
 429:.\Generated_Source\PSoC4/comm.c **** 			goto error_exit;
 430:.\Generated_Source\PSoC4/comm.c **** 		}
 431:.\Generated_Source\PSoC4/comm.c **** 
 432:.\Generated_Source\PSoC4/comm.c **** 		comm_ModeChange(mode);
 433:.\Generated_Source\PSoC4/comm.c **** 
 434:.\Generated_Source\PSoC4/comm.c **** 		ADD_STATIC_STRING_TO_RESP(",\"payload\":null");
 435:.\Generated_Source\PSoC4/comm.c **** 		return COMM_FLAG_ACK;
 436:.\Generated_Source\PSoC4/comm.c **** 	error_exit:
 437:.\Generated_Source\PSoC4/comm.c **** 		ADD_STATIC_STRING_TO_RESP(",\"payload\":null");
 438:.\Generated_Source\PSoC4/comm.c **** 		return COMM_FLAG_NACK;
 439:.\Generated_Source\PSoC4/comm.c **** 	}
 440:.\Generated_Source\PSoC4/comm.c **** 	return COMM_FLAG_UNKNOWN;
 441:.\Generated_Source\PSoC4/comm.c **** }
 442:.\Generated_Source\PSoC4/comm.c **** 
ARM GAS  C:\Users\SDEVAS~1\AppData\Local\Temp\ccPhqTSe.s 			page 10


 443:.\Generated_Source\PSoC4/comm.c **** static comm_RS485_address jsonAddressToRS(char atomType, char atomID) {
 444:.\Generated_Source\PSoC4/comm.c **** 	return (((atomType - 'A')&0x1f) << 3) | ((atomID - '0')&0x07);
 445:.\Generated_Source\PSoC4/comm.c **** }
 446:.\Generated_Source\PSoC4/comm.c **** 
 447:.\Generated_Source\PSoC4/comm.c **** /*
 448:.\Generated_Source\PSoC4/comm.c ****  * ************************************
 449:.\Generated_Source\PSoC4/comm.c ****  * RS485 callbacks
 450:.\Generated_Source\PSoC4/comm.c ****  * ************************************
 451:.\Generated_Source\PSoC4/comm.c ****  */
 452:.\Generated_Source\PSoC4/comm.c **** 
 453:.\Generated_Source\PSoC4/comm.c **** void rs485_selected_as_slave_callback(comm_RS485_address byWho) {
  72              		.loc 1 453 0
  73              		.cfi_startproc
  74              	.LVL6:
 454:.\Generated_Source\PSoC4/comm.c **** 	comm.flags.SLAVE = 1;
  75              		.loc 1 454 0
  76 0000 034A     		ldr	r2, .L7
  77 0002 9823     		mov	r3, #152
  78 0004 5B00     		lsl	r3, r3, #1
  79 0006 D15C     		ldrb	r1, [r2, r3]
  80 0008 0420     		mov	r0, #4
  81              	.LVL7:
  82 000a 0143     		orr	r1, r0
  83 000c D154     		strb	r1, [r2, r3]
 455:.\Generated_Source\PSoC4/comm.c **** }
  84              		.loc 1 455 0
  85              		@ sp needed
  86 000e 7047     		bx	lr
  87              	.L8:
  88              		.align	2
  89              	.L7:
  90 0010 00000000 		.word	comm
  91              		.cfi_endproc
  92              	.LFE48:
  93              		.size	rs485_selected_as_slave_callback, .-rs485_selected_as_slave_callback
  94              		.section	.text.rs485_released_as_slave_callback,"ax",%progbits
  95              		.align	1
  96              		.global	rs485_released_as_slave_callback
  97              		.code	16
  98              		.thumb_func
  99              		.type	rs485_released_as_slave_callback, %function
 100              	rs485_released_as_slave_callback:
 101              	.LFB49:
 456:.\Generated_Source\PSoC4/comm.c **** void rs485_released_as_slave_callback(void) {
 102              		.loc 1 456 0
 103              		.cfi_startproc
 457:.\Generated_Source\PSoC4/comm.c **** 	comm.flags.SLAVE = 0;
 104              		.loc 1 457 0
 105 0000 034A     		ldr	r2, .L10
 106 0002 9823     		mov	r3, #152
 107 0004 5B00     		lsl	r3, r3, #1
 108 0006 D05C     		ldrb	r0, [r2, r3]
 458:.\Generated_Source\PSoC4/comm.c **** 	//connection was broken, just to be sure stop sending
 459:.\Generated_Source\PSoC4/comm.c **** 	comm.flags.SENT = 0;
 109              		.loc 1 459 0
 110 0008 F921     		mov	r1, #249
 111 000a 0140     		and	r1, r0
ARM GAS  C:\Users\SDEVAS~1\AppData\Local\Temp\ccPhqTSe.s 			page 11


 112 000c D154     		strb	r1, [r2, r3]
 460:.\Generated_Source\PSoC4/comm.c **** }
 113              		.loc 1 460 0
 114              		@ sp needed
 115 000e 7047     		bx	lr
 116              	.L11:
 117              		.align	2
 118              	.L10:
 119 0010 00000000 		.word	comm
 120              		.cfi_endproc
 121              	.LFE49:
 122              		.size	rs485_released_as_slave_callback, .-rs485_released_as_slave_callback
 123              		.section	.text.rs485_receive_callback,"ax",%progbits
 124              		.align	1
 125              		.global	rs485_receive_callback
 126              		.code	16
 127              		.thumb_func
 128              		.type	rs485_receive_callback, %function
 129              	rs485_receive_callback:
 130              	.LFB50:
 461:.\Generated_Source\PSoC4/comm.c **** void rs485_receive_callback(char * buff, uint32 len) {
 131              		.loc 1 461 0
 132              		.cfi_startproc
 133              	.LVL8:
 462:.\Generated_Source\PSoC4/comm.c **** 	comm.len = len;
 134              		.loc 1 462 0
 135 0000 054B     		ldr	r3, .L13
 463:.\Generated_Source\PSoC4/comm.c **** 	comm.flags.RECV = 1;
 136              		.loc 1 463 0
 137 0002 0120     		mov	r0, #1
 138              	.LVL9:
 462:.\Generated_Source\PSoC4/comm.c **** 	comm.len = len;
 139              		.loc 1 462 0
 140 0004 1A1C     		mov	r2, r3
 141 0006 FC32     		add	r2, r2, #252
 142 0008 1163     		str	r1, [r2, #48]
 143              		.loc 1 463 0
 144 000a 9822     		mov	r2, #152
 145 000c 5200     		lsl	r2, r2, #1
 146 000e 995C     		ldrb	r1, [r3, r2]
 147              	.LVL10:
 464:.\Generated_Source\PSoC4/comm.c **** }
 148              		.loc 1 464 0
 149              		@ sp needed
 463:.\Generated_Source\PSoC4/comm.c **** 	comm.flags.RECV = 1;
 150              		.loc 1 463 0
 151 0010 0143     		orr	r1, r0
 152 0012 9954     		strb	r1, [r3, r2]
 153              		.loc 1 464 0
 154 0014 7047     		bx	lr
 155              	.L14:
 156 0016 C046     		.align	2
 157              	.L13:
 158 0018 00000000 		.word	comm
 159              		.cfi_endproc
 160              	.LFE50:
 161              		.size	rs485_receive_callback, .-rs485_receive_callback
ARM GAS  C:\Users\SDEVAS~1\AppData\Local\Temp\ccPhqTSe.s 			page 12


 162              		.section	.text.rs485_bus_granted_callback,"ax",%progbits
 163              		.align	1
 164              		.global	rs485_bus_granted_callback
 165              		.code	16
 166              		.thumb_func
 167              		.type	rs485_bus_granted_callback, %function
 168              	rs485_bus_granted_callback:
 169              	.LFB52:
 465:.\Generated_Source\PSoC4/comm.c **** 
 466:.\Generated_Source\PSoC4/comm.c **** void rs485_wake_callback(uint8 isWake) {
 467:.\Generated_Source\PSoC4/comm.c **** 	isWake ? sleepMgr_requestSleep() : sleepMgr_releaseSleep();
 468:.\Generated_Source\PSoC4/comm.c **** }
 469:.\Generated_Source\PSoC4/comm.c **** //void rs485_error_callback(int line) {
 470:.\Generated_Source\PSoC4/comm.c **** //	if(line < 10000) {
 471:.\Generated_Source\PSoC4/comm.c **** //	  DEBUG_UartPutString("ERR ");
 472:.\Generated_Source\PSoC4/comm.c **** //	  DEBUG_UartPutChar("0123456789"[line/1000]);
 473:.\Generated_Source\PSoC4/comm.c **** //	  DEBUG_UartPutChar("0123456789"[(line%1000)/100]);
 474:.\Generated_Source\PSoC4/comm.c **** //	  DEBUG_UartPutChar("0123456789"[(line%100)/10]);
 475:.\Generated_Source\PSoC4/comm.c **** //	  DEBUG_UartPutChar("0123456789"[line%10]);
 476:.\Generated_Source\PSoC4/comm.c **** //	  DEBUG_UartPutString("\r\n");
 477:.\Generated_Source\PSoC4/comm.c **** //	}
 478:.\Generated_Source\PSoC4/comm.c **** //
 479:.\Generated_Source\PSoC4/comm.c **** //}
 480:.\Generated_Source\PSoC4/comm.c **** void rs485_bus_granted_callback(void) {
 170              		.loc 1 480 0
 171              		.cfi_startproc
 481:.\Generated_Source\PSoC4/comm.c **** 	comm.state = COMM_STATE_BUS_GRANTED;
 172              		.loc 1 481 0
 173 0000 0121     		mov	r1, #1
 174 0002 024A     		ldr	r2, .L16
 175 0004 9A23     		mov	r3, #154
 176 0006 8B40     		lsl	r3, r3, r1
 177 0008 D154     		strb	r1, [r2, r3]
 482:.\Generated_Source\PSoC4/comm.c **** }
 178              		.loc 1 482 0
 179              		@ sp needed
 180 000a 7047     		bx	lr
 181              	.L17:
 182              		.align	2
 183              	.L16:
 184 000c 00000000 		.word	comm
 185              		.cfi_endproc
 186              	.LFE52:
 187              		.size	rs485_bus_granted_callback, .-rs485_bus_granted_callback
 188              		.section	.text.rs485_slave_selected_callback,"ax",%progbits
 189              		.align	1
 190              		.global	rs485_slave_selected_callback
 191              		.code	16
 192              		.thumb_func
 193              		.type	rs485_slave_selected_callback, %function
 194              	rs485_slave_selected_callback:
 195              	.LFB53:
 483:.\Generated_Source\PSoC4/comm.c **** void rs485_slave_selected_callback(void) {
 196              		.loc 1 483 0
 197              		.cfi_startproc
 484:.\Generated_Source\PSoC4/comm.c **** 	comm.state = COMM_STATE_SLAVE_SELECTED;
 198              		.loc 1 484 0
ARM GAS  C:\Users\SDEVAS~1\AppData\Local\Temp\ccPhqTSe.s 			page 13


 199 0000 024A     		ldr	r2, .L19
 200 0002 9A23     		mov	r3, #154
 201 0004 0221     		mov	r1, #2
 202 0006 5B00     		lsl	r3, r3, #1
 203 0008 D154     		strb	r1, [r2, r3]
 485:.\Generated_Source\PSoC4/comm.c **** }
 204              		.loc 1 485 0
 205              		@ sp needed
 206 000a 7047     		bx	lr
 207              	.L20:
 208              		.align	2
 209              	.L19:
 210 000c 00000000 		.word	comm
 211              		.cfi_endproc
 212              	.LFE53:
 213              		.size	rs485_slave_selected_callback, .-rs485_slave_selected_callback
 214              		.section	.text.rs485_slave_released_callback,"ax",%progbits
 215              		.align	1
 216              		.global	rs485_slave_released_callback
 217              		.code	16
 218              		.thumb_func
 219              		.type	rs485_slave_released_callback, %function
 220              	rs485_slave_released_callback:
 221              	.LFB54:
 486:.\Generated_Source\PSoC4/comm.c **** void rs485_slave_released_callback(void) {
 222              		.loc 1 486 0
 223              		.cfi_startproc
 487:.\Generated_Source\PSoC4/comm.c **** 	comm.state = COMM_STATE_SLAVE_RELEASED;
 224              		.loc 1 487 0
 225 0000 024A     		ldr	r2, .L22
 226 0002 9A23     		mov	r3, #154
 227 0004 0321     		mov	r1, #3
 228 0006 5B00     		lsl	r3, r3, #1
 229 0008 D154     		strb	r1, [r2, r3]
 488:.\Generated_Source\PSoC4/comm.c **** }
 230              		.loc 1 488 0
 231              		@ sp needed
 232 000a 7047     		bx	lr
 233              	.L23:
 234              		.align	2
 235              	.L22:
 236 000c 00000000 		.word	comm
 237              		.cfi_endproc
 238              	.LFE54:
 239              		.size	rs485_slave_released_callback, .-rs485_slave_released_callback
 240              		.section	.text.rs485_bus_released_callback,"ax",%progbits
 241              		.align	1
 242              		.global	rs485_bus_released_callback
 243              		.code	16
 244              		.thumb_func
 245              		.type	rs485_bus_released_callback, %function
 246              	rs485_bus_released_callback:
 247              	.LFB55:
 489:.\Generated_Source\PSoC4/comm.c **** void rs485_bus_released_callback(void) {
 248              		.loc 1 489 0
 249              		.cfi_startproc
 490:.\Generated_Source\PSoC4/comm.c **** 	comm.state = COMM_STATE_BUS_RELEASED;
ARM GAS  C:\Users\SDEVAS~1\AppData\Local\Temp\ccPhqTSe.s 			page 14


 250              		.loc 1 490 0
 251 0000 024A     		ldr	r2, .L25
 252 0002 9A23     		mov	r3, #154
 253 0004 0421     		mov	r1, #4
 254 0006 5B00     		lsl	r3, r3, #1
 255 0008 D154     		strb	r1, [r2, r3]
 491:.\Generated_Source\PSoC4/comm.c **** }
 256              		.loc 1 491 0
 257              		@ sp needed
 258 000a 7047     		bx	lr
 259              	.L26:
 260              		.align	2
 261              	.L25:
 262 000c 00000000 		.word	comm
 263              		.cfi_endproc
 264              	.LFE55:
 265              		.size	rs485_bus_released_callback, .-rs485_bus_released_callback
 266              		.section	.text.resp_GenDestSrcOrder,"ax",%progbits
 267              		.align	1
 268              		.code	16
 269              		.thumb_func
 270              		.type	resp_GenDestSrcOrder, %function
 271              	resp_GenDestSrcOrder:
 272              	.LFB39:
 146:.\Generated_Source\PSoC4/comm.c ****   const char *order, int orderLen) {
 273              		.loc 1 146 0
 274              		.cfi_startproc
 275              	.LVL11:
 276 0000 F7B5     		push	{r0, r1, r2, r4, r5, r6, r7, lr}
 277              		.cfi_def_cfa_offset 32
 278              		.cfi_offset 0, -32
 279              		.cfi_offset 1, -28
 280              		.cfi_offset 2, -24
 281              		.cfi_offset 4, -20
 282              		.cfi_offset 5, -16
 283              		.cfi_offset 6, -12
 284              		.cfi_offset 7, -8
 285              		.cfi_offset 14, -4
 151:.\Generated_Source\PSoC4/comm.c ****   ADD_STATIC_STRING_TO_RESP("{\"destination\":");
 286              		.loc 1 151 0
 287 0002 264E     		ldr	r6, .L28
 146:.\Generated_Source\PSoC4/comm.c ****   const char *order, int orderLen) {
 288              		.loc 1 146 0
 289 0004 0F1C     		mov	r7, r1
 290 0006 0090     		str	r0, [sp]
 291 0008 0192     		str	r2, [sp, #4]
 151:.\Generated_Source\PSoC4/comm.c ****   ADD_STATIC_STRING_TO_RESP("{\"destination\":");
 292              		.loc 1 151 0
 293 000a 301C     		mov	r0, r6
 294              	.LVL12:
 295 000c 2449     		ldr	r1, .L28+4
 296              	.LVL13:
 297 000e 1022     		mov	r2, #16
 298              	.LVL14:
 146:.\Generated_Source\PSoC4/comm.c ****   const char *order, int orderLen) {
 299              		.loc 1 146 0
 300 0010 1D1C     		mov	r5, r3
ARM GAS  C:\Users\SDEVAS~1\AppData\Local\Temp\ccPhqTSe.s 			page 15


 151:.\Generated_Source\PSoC4/comm.c ****   ADD_STATIC_STRING_TO_RESP("{\"destination\":");
 301              		.loc 1 151 0
 302 0012 FFF7FEFF 		bl	memcpy
 303              	.LVL15:
 304 0016 234C     		ldr	r4, .L28+8
 305 0018 1E21     		mov	r1, #30
 306 001a 0F36     		add	r6, r6, #15
 307 001c FF31     		add	r1, r1, #255
 308 001e 6160     		str	r1, [r4, #4]
 153:.\Generated_Source\PSoC4/comm.c ****   memcpy(respEnd, dest, destLen);
 309              		.loc 1 153 0
 310 0020 301C     		mov	r0, r6
 311 0022 0099     		ldr	r1, [sp]
 312 0024 3A1C     		mov	r2, r7
 151:.\Generated_Source\PSoC4/comm.c ****   ADD_STATIC_STRING_TO_RESP("{\"destination\":");
 313              		.loc 1 151 0
 314 0026 2660     		str	r6, [r4]
 153:.\Generated_Source\PSoC4/comm.c ****   memcpy(respEnd, dest, destLen);
 315              		.loc 1 153 0
 316 0028 FFF7FEFF 		bl	memcpy
 317              	.LVL16:
 155:.\Generated_Source\PSoC4/comm.c ****   respFreeSpace -= destLen;
 318              		.loc 1 155 0
 319 002c 1E22     		mov	r2, #30
 320 002e FF32     		add	r2, r2, #255
 154:.\Generated_Source\PSoC4/comm.c ****   respEnd += destLen;
 321              		.loc 1 154 0
 322 0030 B819     		add	r0, r7, r6
 155:.\Generated_Source\PSoC4/comm.c ****   respFreeSpace -= destLen;
 323              		.loc 1 155 0
 324 0032 D31B     		sub	r3, r2, r7
 157:.\Generated_Source\PSoC4/comm.c ****   ADD_STATIC_STRING_TO_RESP(",\"source\":");
 325              		.loc 1 157 0
 326 0034 0B27     		mov	r7, #11
 327              	.LVL17:
 328 0036 3A1C     		mov	r2, r7
 329 0038 1B49     		ldr	r1, .L28+12
 155:.\Generated_Source\PSoC4/comm.c ****   respFreeSpace -= destLen;
 330              		.loc 1 155 0
 331 003a 6360     		str	r3, [r4, #4]
 154:.\Generated_Source\PSoC4/comm.c ****   respEnd += destLen;
 332              		.loc 1 154 0
 333 003c 2060     		str	r0, [r4]
 157:.\Generated_Source\PSoC4/comm.c ****   ADD_STATIC_STRING_TO_RESP(",\"source\":");
 334              		.loc 1 157 0
 335 003e FFF7FEFF 		bl	memcpy
 336              	.LVL18:
 337 0042 2068     		ldr	r0, [r4]
 338 0044 6368     		ldr	r3, [r4, #4]
 159:.\Generated_Source\PSoC4/comm.c ****   memcpy(respEnd, src, srcLen);
 339              		.loc 1 159 0
 340 0046 0199     		ldr	r1, [sp, #4]
 157:.\Generated_Source\PSoC4/comm.c ****   ADD_STATIC_STRING_TO_RESP(",\"source\":");
 341              		.loc 1 157 0
 342 0048 0A3B     		sub	r3, r3, #10
 159:.\Generated_Source\PSoC4/comm.c ****   memcpy(respEnd, src, srcLen);
 343              		.loc 1 159 0
ARM GAS  C:\Users\SDEVAS~1\AppData\Local\Temp\ccPhqTSe.s 			page 16


 344 004a 2A1C     		mov	r2, r5
 157:.\Generated_Source\PSoC4/comm.c ****   ADD_STATIC_STRING_TO_RESP(",\"source\":");
 345              		.loc 1 157 0
 346 004c 0A30     		add	r0, r0, #10
 347 004e 6360     		str	r3, [r4, #4]
 348 0050 2060     		str	r0, [r4]
 159:.\Generated_Source\PSoC4/comm.c ****   memcpy(respEnd, src, srcLen);
 349              		.loc 1 159 0
 350 0052 FFF7FEFF 		bl	memcpy
 351              	.LVL19:
 160:.\Generated_Source\PSoC4/comm.c ****   respEnd += srcLen;
 352              		.loc 1 160 0
 353 0056 2368     		ldr	r3, [r4]
 161:.\Generated_Source\PSoC4/comm.c ****   respFreeSpace -= srcLen;
 354              		.loc 1 161 0
 355 0058 6168     		ldr	r1, [r4, #4]
 160:.\Generated_Source\PSoC4/comm.c ****   respEnd += srcLen;
 356              		.loc 1 160 0
 357 005a 5819     		add	r0, r3, r5
 167:.\Generated_Source\PSoC4/comm.c ****   ADD_STATIC_STRING_TO_RESP(",\"order\":\"");
 358              		.loc 1 167 0
 359 005c 3A1C     		mov	r2, r7
 161:.\Generated_Source\PSoC4/comm.c ****   respFreeSpace -= srcLen;
 360              		.loc 1 161 0
 361 005e 4B1B     		sub	r3, r1, r5
 167:.\Generated_Source\PSoC4/comm.c ****   ADD_STATIC_STRING_TO_RESP(",\"order\":\"");
 362              		.loc 1 167 0
 363 0060 1249     		ldr	r1, .L28+16
 161:.\Generated_Source\PSoC4/comm.c ****   respFreeSpace -= srcLen;
 364              		.loc 1 161 0
 365 0062 6360     		str	r3, [r4, #4]
 160:.\Generated_Source\PSoC4/comm.c ****   respEnd += srcLen;
 366              		.loc 1 160 0
 367 0064 2060     		str	r0, [r4]
 167:.\Generated_Source\PSoC4/comm.c ****   ADD_STATIC_STRING_TO_RESP(",\"order\":\"");
 368              		.loc 1 167 0
 369 0066 FFF7FEFF 		bl	memcpy
 370              	.LVL20:
 371 006a 2068     		ldr	r0, [r4]
 372 006c 6368     		ldr	r3, [r4, #4]
 169:.\Generated_Source\PSoC4/comm.c ****   memcpy(respEnd, order, orderLen);
 373              		.loc 1 169 0
 374 006e 0899     		ldr	r1, [sp, #32]
 167:.\Generated_Source\PSoC4/comm.c ****   ADD_STATIC_STRING_TO_RESP(",\"order\":\"");
 375              		.loc 1 167 0
 376 0070 0A3B     		sub	r3, r3, #10
 169:.\Generated_Source\PSoC4/comm.c ****   memcpy(respEnd, order, orderLen);
 377              		.loc 1 169 0
 378 0072 099A     		ldr	r2, [sp, #36]
 167:.\Generated_Source\PSoC4/comm.c ****   ADD_STATIC_STRING_TO_RESP(",\"order\":\"");
 379              		.loc 1 167 0
 380 0074 0A30     		add	r0, r0, #10
 381 0076 6360     		str	r3, [r4, #4]
 382 0078 2060     		str	r0, [r4]
 169:.\Generated_Source\PSoC4/comm.c ****   memcpy(respEnd, order, orderLen);
 383              		.loc 1 169 0
 384 007a FFF7FEFF 		bl	memcpy
ARM GAS  C:\Users\SDEVAS~1\AppData\Local\Temp\ccPhqTSe.s 			page 17


 385              	.LVL21:
 170:.\Generated_Source\PSoC4/comm.c ****   respEnd += orderLen;
 386              		.loc 1 170 0
 387 007e 2268     		ldr	r2, [r4]
 388 0080 0999     		ldr	r1, [sp, #36]
 174:.\Generated_Source\PSoC4/comm.c **** }
 389              		.loc 1 174 0
 390              		@ sp needed
 170:.\Generated_Source\PSoC4/comm.c ****   respEnd += orderLen;
 391              		.loc 1 170 0
 392 0082 5318     		add	r3, r2, r1
 171:.\Generated_Source\PSoC4/comm.c ****   respFreeSpace -= orderLen;
 393              		.loc 1 171 0
 394 0084 6268     		ldr	r2, [r4, #4]
 395 0086 551A     		sub	r5, r2, r1
 396              	.LVL22:
 173:.\Generated_Source\PSoC4/comm.c ****   ADD_CHAR_TO_RESP('\"');
 397              		.loc 1 173 0
 398 0088 5A1C     		add	r2, r3, #1
 399 008a 2260     		str	r2, [r4]
 400 008c 2222     		mov	r2, #34
 171:.\Generated_Source\PSoC4/comm.c ****   respFreeSpace -= orderLen;
 401              		.loc 1 171 0
 402 008e 6560     		str	r5, [r4, #4]
 173:.\Generated_Source\PSoC4/comm.c ****   ADD_CHAR_TO_RESP('\"');
 403              		.loc 1 173 0
 404 0090 1A70     		strb	r2, [r3]
 405 0092 6368     		ldr	r3, [r4, #4]
 406 0094 013B     		sub	r3, r3, #1
 407 0096 6360     		str	r3, [r4, #4]
 174:.\Generated_Source\PSoC4/comm.c **** }
 408              		.loc 1 174 0
 409 0098 F7BD     		pop	{r0, r1, r2, r4, r5, r6, r7, pc}
 410              	.L29:
 411 009a C046     		.align	2
 412              	.L28:
 413 009c 00000000 		.word	respBuff
 414 00a0 00000000 		.word	.LC11
 415 00a4 00000000 		.word	.LANCHOR0
 416 00a8 10000000 		.word	.LC15
 417 00ac 1B000000 		.word	.LC17
 418              		.cfi_endproc
 419              	.LFE39:
 420              		.size	resp_GenDestSrcOrder, .-resp_GenDestSrcOrder
 421              		.section	.text.compKey,"ax",%progbits
 422              		.align	1
 423              		.code	16
 424              		.thumb_func
 425              		.type	compKey, %function
 426              	compKey:
 427              	.LFB37:
 124:.\Generated_Source\PSoC4/comm.c **** static int compKey(const char *json, jsmntok_t *t, const char *key) {
 428              		.loc 1 124 0
 429              		.cfi_startproc
 430              	.LVL23:
 431 0000 0B1C     		mov	r3, r1
 125:.\Generated_Source\PSoC4/comm.c ****   if(t->type == JSMN_STRING && strncmp(json + t->start, key, t->end - t->start) == 0) {
ARM GAS  C:\Users\SDEVAS~1\AppData\Local\Temp\ccPhqTSe.s 			page 18


 432              		.loc 1 125 0
 433 0002 0978     		ldrb	r1, [r1]
 434              	.LVL24:
 124:.\Generated_Source\PSoC4/comm.c **** static int compKey(const char *json, jsmntok_t *t, const char *key) {
 435              		.loc 1 124 0
 436 0004 10B5     		push	{r4, lr}
 437              		.cfi_def_cfa_offset 8
 438              		.cfi_offset 4, -8
 439              		.cfi_offset 14, -4
 125:.\Generated_Source\PSoC4/comm.c ****   if(t->type == JSMN_STRING && strncmp(json + t->start, key, t->end - t->start) == 0) {
 440              		.loc 1 125 0
 441 0006 0329     		cmp	r1, #3
 442 0008 0AD1     		bne	.L32
 125:.\Generated_Source\PSoC4/comm.c ****   if(t->type == JSMN_STRING && strncmp(json + t->start, key, t->end - t->start) == 0) {
 443              		.loc 1 125 0 is_stmt 0 discriminator 1
 444 000a 5C68     		ldr	r4, [r3, #4]
 445 000c 9B68     		ldr	r3, [r3, #8]
 446              	.LVL25:
 447 000e 0019     		add	r0, r0, r4
 448              	.LVL26:
 449 0010 1C1B     		sub	r4, r3, r4
 450 0012 111C     		mov	r1, r2
 451 0014 221C     		mov	r2, r4
 452              	.LVL27:
 453 0016 FFF7FEFF 		bl	strncmp
 454              	.LVL28:
 455 001a 431E     		sub	r3, r0, #1
 456 001c 9841     		sbc	r0, r0, r3
 457 001e 00E0     		b	.L33
 458              	.LVL29:
 459              	.L32:
 128:.\Generated_Source\PSoC4/comm.c ****   return -1;
 460              		.loc 1 128 0 is_stmt 1
 461 0020 0120     		mov	r0, #1
 462              	.LVL30:
 463              	.L33:
 464 0022 4042     		neg	r0, r0
 129:.\Generated_Source\PSoC4/comm.c **** }
 465              		.loc 1 129 0
 466              		@ sp needed
 467 0024 10BD     		pop	{r4, pc}
 468              		.cfi_endproc
 469              	.LFE37:
 470              		.size	compKey, .-compKey
 471              		.section	.text.get_atom_variable_id_from_string,"ax",%progbits
 472              		.align	1
 473              		.code	16
 474              		.thumb_func
 475              		.type	get_atom_variable_id_from_string, %function
 476              	get_atom_variable_id_from_string:
 477              	.LFB35:
  88:.\Generated_Source\PSoC4/comm.c **** static atom_variables_id_t get_atom_variable_id_from_string(const char * str, int len) {
 478              		.loc 1 88 0
 479              		.cfi_startproc
 480              	.LVL31:
 481 0000 38B5     		push	{r3, r4, r5, lr}
 482              		.cfi_def_cfa_offset 16
ARM GAS  C:\Users\SDEVAS~1\AppData\Local\Temp\ccPhqTSe.s 			page 19


 483              		.cfi_offset 3, -16
 484              		.cfi_offset 4, -12
 485              		.cfi_offset 5, -8
 486              		.cfi_offset 14, -4
  88:.\Generated_Source\PSoC4/comm.c **** static atom_variables_id_t get_atom_variable_id_from_string(const char * str, int len) {
 487              		.loc 1 88 0
 488 0002 0C1C     		mov	r4, r1
  90:.\Generated_Source\PSoC4/comm.c ****   ATOM_VARIABLES
 489              		.loc 1 90 0
 490 0004 221C     		mov	r2, r4
 491 0006 9B49     		ldr	r1, .L107
 492              	.LVL32:
  88:.\Generated_Source\PSoC4/comm.c **** static atom_variables_id_t get_atom_variable_id_from_string(const char * str, int len) {
 493              		.loc 1 88 0
 494 0008 051C     		mov	r5, r0
  90:.\Generated_Source\PSoC4/comm.c ****   ATOM_VARIABLES
 495              		.loc 1 90 0
 496 000a FFF7FEFF 		bl	strncmp
 497              	.LVL33:
 498 000e 0023     		mov	r3, #0
 499 0010 9842     		cmp	r0, r3
 500 0012 00D1     		bne	.LCB422
 501 0014 2BE1     		b	.L35	@long jump
 502              	.LCB422:
  90:.\Generated_Source\PSoC4/comm.c ****   ATOM_VARIABLES
 503              		.loc 1 90 0 is_stmt 0 discriminator 2
 504 0016 281C     		mov	r0, r5
 505 0018 9749     		ldr	r1, .L107+4
 506 001a 221C     		mov	r2, r4
 507 001c FFF7FEFF 		bl	strncmp
 508              	.LVL34:
 509 0020 0123     		mov	r3, #1
 510 0022 0028     		cmp	r0, #0
 511 0024 00D1     		bne	.LCB430
 512 0026 22E1     		b	.L35	@long jump
 513              	.LCB430:
 514 0028 281C     		mov	r0, r5
 515 002a 9449     		ldr	r1, .L107+8
 516 002c 221C     		mov	r2, r4
 517 002e FFF7FEFF 		bl	strncmp
 518              	.LVL35:
 519 0032 0223     		mov	r3, #2
 520 0034 0028     		cmp	r0, #0
 521 0036 00D1     		bne	.LCB438
 522 0038 19E1     		b	.L35	@long jump
 523              	.LCB438:
 524 003a 281C     		mov	r0, r5
 525 003c 9049     		ldr	r1, .L107+12
 526 003e 221C     		mov	r2, r4
 527 0040 FFF7FEFF 		bl	strncmp
 528              	.LVL36:
 529 0044 0323     		mov	r3, #3
 530 0046 0028     		cmp	r0, #0
 531 0048 00D1     		bne	.LCB446
 532 004a 10E1     		b	.L35	@long jump
 533              	.LCB446:
 534 004c 281C     		mov	r0, r5
ARM GAS  C:\Users\SDEVAS~1\AppData\Local\Temp\ccPhqTSe.s 			page 20


 535 004e 8D49     		ldr	r1, .L107+16
 536 0050 221C     		mov	r2, r4
 537 0052 FFF7FEFF 		bl	strncmp
 538              	.LVL37:
 539 0056 0423     		mov	r3, #4
 540 0058 0028     		cmp	r0, #0
 541 005a 00D1     		bne	.LCB454
 542 005c 07E1     		b	.L35	@long jump
 543              	.LCB454:
 544 005e 281C     		mov	r0, r5
 545 0060 8949     		ldr	r1, .L107+20
 546 0062 221C     		mov	r2, r4
 547 0064 FFF7FEFF 		bl	strncmp
 548              	.LVL38:
 549 0068 0523     		mov	r3, #5
 550 006a 0028     		cmp	r0, #0
 551 006c 00D1     		bne	.LCB462
 552 006e FEE0     		b	.L35	@long jump
 553              	.LCB462:
 554 0070 281C     		mov	r0, r5
 555 0072 8649     		ldr	r1, .L107+24
 556 0074 221C     		mov	r2, r4
 557 0076 FFF7FEFF 		bl	strncmp
 558              	.LVL39:
 559 007a 0623     		mov	r3, #6
 560 007c 0028     		cmp	r0, #0
 561 007e 00D1     		bne	.LCB470
 562 0080 F5E0     		b	.L35	@long jump
 563              	.LCB470:
 564 0082 281C     		mov	r0, r5
 565 0084 8249     		ldr	r1, .L107+28
 566 0086 221C     		mov	r2, r4
 567 0088 FFF7FEFF 		bl	strncmp
 568              	.LVL40:
 569 008c 0723     		mov	r3, #7
 570 008e 0028     		cmp	r0, #0
 571 0090 00D1     		bne	.LCB478
 572 0092 ECE0     		b	.L35	@long jump
 573              	.LCB478:
 574 0094 281C     		mov	r0, r5
 575 0096 7F49     		ldr	r1, .L107+32
 576 0098 221C     		mov	r2, r4
 577 009a FFF7FEFF 		bl	strncmp
 578              	.LVL41:
 579 009e 0823     		mov	r3, #8
 580 00a0 0028     		cmp	r0, #0
 581 00a2 00D1     		bne	.LCB486
 582 00a4 E3E0     		b	.L35	@long jump
 583              	.LCB486:
 584 00a6 281C     		mov	r0, r5
 585 00a8 7B49     		ldr	r1, .L107+36
 586 00aa 221C     		mov	r2, r4
 587 00ac FFF7FEFF 		bl	strncmp
 588              	.LVL42:
 589 00b0 0923     		mov	r3, #9
 590 00b2 0028     		cmp	r0, #0
 591 00b4 00D1     		bne	.LCB494
ARM GAS  C:\Users\SDEVAS~1\AppData\Local\Temp\ccPhqTSe.s 			page 21


 592 00b6 DAE0     		b	.L35	@long jump
 593              	.LCB494:
 594 00b8 281C     		mov	r0, r5
 595 00ba 7849     		ldr	r1, .L107+40
 596 00bc 221C     		mov	r2, r4
 597 00be FFF7FEFF 		bl	strncmp
 598              	.LVL43:
 599 00c2 0A23     		mov	r3, #10
 600 00c4 0028     		cmp	r0, #0
 601 00c6 00D1     		bne	.LCB502
 602 00c8 D1E0     		b	.L35	@long jump
 603              	.LCB502:
 604 00ca 281C     		mov	r0, r5
 605 00cc 7449     		ldr	r1, .L107+44
 606 00ce 221C     		mov	r2, r4
 607 00d0 FFF7FEFF 		bl	strncmp
 608              	.LVL44:
 609 00d4 0B23     		mov	r3, #11
 610 00d6 0028     		cmp	r0, #0
 611 00d8 00D1     		bne	.LCB510
 612 00da C8E0     		b	.L35	@long jump
 613              	.LCB510:
 614 00dc 281C     		mov	r0, r5
 615 00de 7149     		ldr	r1, .L107+48
 616 00e0 221C     		mov	r2, r4
 617 00e2 FFF7FEFF 		bl	strncmp
 618              	.LVL45:
 619 00e6 0C23     		mov	r3, #12
 620 00e8 0028     		cmp	r0, #0
 621 00ea 00D1     		bne	.LCB518
 622 00ec BFE0     		b	.L35	@long jump
 623              	.LCB518:
 624 00ee 281C     		mov	r0, r5
 625 00f0 6D49     		ldr	r1, .L107+52
 626 00f2 221C     		mov	r2, r4
 627 00f4 FFF7FEFF 		bl	strncmp
 628              	.LVL46:
 629 00f8 0D23     		mov	r3, #13
 630 00fa 0028     		cmp	r0, #0
 631 00fc 00D1     		bne	.LCB526
 632 00fe B6E0     		b	.L35	@long jump
 633              	.LCB526:
 634 0100 281C     		mov	r0, r5
 635 0102 6A49     		ldr	r1, .L107+56
 636 0104 221C     		mov	r2, r4
 637 0106 FFF7FEFF 		bl	strncmp
 638              	.LVL47:
 639 010a 0E23     		mov	r3, #14
 640 010c 0028     		cmp	r0, #0
 641 010e 00D1     		bne	.LCB534
 642 0110 ADE0     		b	.L35	@long jump
 643              	.LCB534:
 644 0112 281C     		mov	r0, r5
 645 0114 6649     		ldr	r1, .L107+60
 646 0116 221C     		mov	r2, r4
 647 0118 FFF7FEFF 		bl	strncmp
 648              	.LVL48:
ARM GAS  C:\Users\SDEVAS~1\AppData\Local\Temp\ccPhqTSe.s 			page 22


 649 011c 0F23     		mov	r3, #15
 650 011e 0028     		cmp	r0, #0
 651 0120 00D1     		bne	.LCB542
 652 0122 A4E0     		b	.L35	@long jump
 653              	.LCB542:
 654 0124 281C     		mov	r0, r5
 655 0126 6349     		ldr	r1, .L107+64
 656 0128 221C     		mov	r2, r4
 657 012a FFF7FEFF 		bl	strncmp
 658              	.LVL49:
 659 012e 1023     		mov	r3, #16
 660 0130 0028     		cmp	r0, #0
 661 0132 00D1     		bne	.LCB550
 662 0134 9BE0     		b	.L35	@long jump
 663              	.LCB550:
 664 0136 281C     		mov	r0, r5
 665 0138 5F49     		ldr	r1, .L107+68
 666 013a 221C     		mov	r2, r4
 667 013c FFF7FEFF 		bl	strncmp
 668              	.LVL50:
 669 0140 1123     		mov	r3, #17
 670 0142 0028     		cmp	r0, #0
 671 0144 00D1     		bne	.LCB558
 672 0146 92E0     		b	.L35	@long jump
 673              	.LCB558:
 674 0148 281C     		mov	r0, r5
 675 014a 5C49     		ldr	r1, .L107+72
 676 014c 221C     		mov	r2, r4
 677 014e FFF7FEFF 		bl	strncmp
 678              	.LVL51:
 679 0152 1223     		mov	r3, #18
 680 0154 0028     		cmp	r0, #0
 681 0156 00D1     		bne	.LCB566
 682 0158 89E0     		b	.L35	@long jump
 683              	.LCB566:
 684 015a 281C     		mov	r0, r5
 685 015c 5849     		ldr	r1, .L107+76
 686 015e 221C     		mov	r2, r4
 687 0160 FFF7FEFF 		bl	strncmp
 688              	.LVL52:
 689 0164 1323     		mov	r3, #19
 690 0166 0028     		cmp	r0, #0
 691 0168 00D1     		bne	.LCB574
 692 016a 80E0     		b	.L35	@long jump
 693              	.LCB574:
 694 016c 281C     		mov	r0, r5
 695 016e 5549     		ldr	r1, .L107+80
 696 0170 221C     		mov	r2, r4
 697 0172 FFF7FEFF 		bl	strncmp
 698              	.LVL53:
 699 0176 1423     		mov	r3, #20
 700 0178 0028     		cmp	r0, #0
 701 017a 78D0     		beq	.L35
 702 017c 281C     		mov	r0, r5
 703 017e 5249     		ldr	r1, .L107+84
 704 0180 221C     		mov	r2, r4
 705 0182 FFF7FEFF 		bl	strncmp
ARM GAS  C:\Users\SDEVAS~1\AppData\Local\Temp\ccPhqTSe.s 			page 23


 706              	.LVL54:
 707 0186 1523     		mov	r3, #21
 708 0188 0028     		cmp	r0, #0
 709 018a 70D0     		beq	.L35
 710 018c 281C     		mov	r0, r5
 711 018e 4F49     		ldr	r1, .L107+88
 712 0190 221C     		mov	r2, r4
 713 0192 FFF7FEFF 		bl	strncmp
 714              	.LVL55:
 715 0196 1623     		mov	r3, #22
 716 0198 0028     		cmp	r0, #0
 717 019a 68D0     		beq	.L35
 718 019c 281C     		mov	r0, r5
 719 019e 4C49     		ldr	r1, .L107+92
 720 01a0 221C     		mov	r2, r4
 721 01a2 FFF7FEFF 		bl	strncmp
 722              	.LVL56:
 723 01a6 1723     		mov	r3, #23
 724 01a8 0028     		cmp	r0, #0
 725 01aa 60D0     		beq	.L35
 726 01ac 281C     		mov	r0, r5
 727 01ae 4949     		ldr	r1, .L107+96
 728 01b0 221C     		mov	r2, r4
 729 01b2 FFF7FEFF 		bl	strncmp
 730              	.LVL57:
 731 01b6 1823     		mov	r3, #24
 732 01b8 0028     		cmp	r0, #0
 733 01ba 58D0     		beq	.L35
 734 01bc 281C     		mov	r0, r5
 735 01be 4649     		ldr	r1, .L107+100
 736 01c0 221C     		mov	r2, r4
 737 01c2 FFF7FEFF 		bl	strncmp
 738              	.LVL58:
 739 01c6 1923     		mov	r3, #25
 740 01c8 0028     		cmp	r0, #0
 741 01ca 50D0     		beq	.L35
 742 01cc 281C     		mov	r0, r5
 743 01ce 4349     		ldr	r1, .L107+104
 744 01d0 221C     		mov	r2, r4
 745 01d2 FFF7FEFF 		bl	strncmp
 746              	.LVL59:
 747 01d6 1A23     		mov	r3, #26
 748 01d8 0028     		cmp	r0, #0
 749 01da 48D0     		beq	.L35
 750 01dc 281C     		mov	r0, r5
 751 01de 4049     		ldr	r1, .L107+108
 752 01e0 221C     		mov	r2, r4
 753 01e2 FFF7FEFF 		bl	strncmp
 754              	.LVL60:
 755 01e6 1B23     		mov	r3, #27
 756 01e8 0028     		cmp	r0, #0
 757 01ea 40D0     		beq	.L35
 758 01ec 281C     		mov	r0, r5
 759 01ee 3D49     		ldr	r1, .L107+112
 760 01f0 221C     		mov	r2, r4
 761 01f2 FFF7FEFF 		bl	strncmp
 762              	.LVL61:
ARM GAS  C:\Users\SDEVAS~1\AppData\Local\Temp\ccPhqTSe.s 			page 24


 763 01f6 1C23     		mov	r3, #28
 764 01f8 0028     		cmp	r0, #0
 765 01fa 38D0     		beq	.L35
 766 01fc 281C     		mov	r0, r5
 767 01fe 3A49     		ldr	r1, .L107+116
 768 0200 221C     		mov	r2, r4
 769 0202 FFF7FEFF 		bl	strncmp
 770              	.LVL62:
 771 0206 1D23     		mov	r3, #29
 772 0208 0028     		cmp	r0, #0
 773 020a 30D0     		beq	.L35
 774 020c 281C     		mov	r0, r5
 775 020e 3749     		ldr	r1, .L107+120
 776 0210 221C     		mov	r2, r4
 777 0212 FFF7FEFF 		bl	strncmp
 778              	.LVL63:
 779 0216 1E23     		mov	r3, #30
 780 0218 0028     		cmp	r0, #0
 781 021a 28D0     		beq	.L35
 782 021c 281C     		mov	r0, r5
 783 021e 3449     		ldr	r1, .L107+124
 784 0220 221C     		mov	r2, r4
 785 0222 FFF7FEFF 		bl	strncmp
 786              	.LVL64:
 787 0226 1F23     		mov	r3, #31
 788 0228 0028     		cmp	r0, #0
 789 022a 20D0     		beq	.L35
 790 022c 281C     		mov	r0, r5
 791 022e 3149     		ldr	r1, .L107+128
 792 0230 221C     		mov	r2, r4
 793 0232 FFF7FEFF 		bl	strncmp
 794              	.LVL65:
 795 0236 2023     		mov	r3, #32
 796 0238 0028     		cmp	r0, #0
 797 023a 18D0     		beq	.L35
 798 023c 281C     		mov	r0, r5
 799 023e 2E49     		ldr	r1, .L107+132
 800 0240 221C     		mov	r2, r4
 801 0242 FFF7FEFF 		bl	strncmp
 802              	.LVL66:
 803 0246 2123     		mov	r3, #33
 804 0248 0028     		cmp	r0, #0
 805 024a 10D0     		beq	.L35
 806 024c 281C     		mov	r0, r5
 807 024e 2B49     		ldr	r1, .L107+136
 808 0250 221C     		mov	r2, r4
 809 0252 FFF7FEFF 		bl	strncmp
 810              	.LVL67:
 811 0256 2223     		mov	r3, #34
 812 0258 0028     		cmp	r0, #0
 813 025a 08D0     		beq	.L35
 814 025c 281C     		mov	r0, r5
 815 025e 2849     		ldr	r1, .L107+140
 816 0260 221C     		mov	r2, r4
 817 0262 FFF7FEFF 		bl	strncmp
 818              	.LVL68:
  92:.\Generated_Source\PSoC4/comm.c ****   return INVALID_ATOM_VARIABLE;
ARM GAS  C:\Users\SDEVAS~1\AppData\Local\Temp\ccPhqTSe.s 			page 25


 819              		.loc 1 92 0 is_stmt 1 discriminator 2
 820 0266 2523     		mov	r3, #37
  90:.\Generated_Source\PSoC4/comm.c ****   ATOM_VARIABLES
 821              		.loc 1 90 0 discriminator 2
 822 0268 0028     		cmp	r0, #0
 823 026a 00D1     		bne	.L35
  90:.\Generated_Source\PSoC4/comm.c ****   ATOM_VARIABLES
 824              		.loc 1 90 0 is_stmt 0
 825 026c 2323     		mov	r3, #35
 826              	.L35:
  93:.\Generated_Source\PSoC4/comm.c **** }
 827              		.loc 1 93 0 is_stmt 1
 828 026e 181C     		mov	r0, r3
 829              		@ sp needed
 830              	.LVL69:
 831              	.LVL70:
 832 0270 38BD     		pop	{r3, r4, r5, pc}
 833              	.L108:
 834 0272 C046     		.align	2
 835              	.L107:
 836 0274 26000000 		.word	.LC19
 837 0278 32000000 		.word	.LC21
 838 027c 3F000000 		.word	.LC23
 839 0280 44000000 		.word	.LC25
 840 0284 52000000 		.word	.LC27
 841 0288 60000000 		.word	.LC29
 842 028c 6C000000 		.word	.LC31
 843 0290 78000000 		.word	.LC33
 844 0294 84000000 		.word	.LC35
 845 0298 94000000 		.word	.LC37
 846 029c A4000000 		.word	.LC39
 847 02a0 B2000000 		.word	.LC41
 848 02a4 BC000000 		.word	.LC43
 849 02a8 C5000000 		.word	.LC45
 850 02ac CF000000 		.word	.LC47
 851 02b0 DB000000 		.word	.LC49
 852 02b4 E2000000 		.word	.LC51
 853 02b8 E9000000 		.word	.LC53
 854 02bc FB000000 		.word	.LC55
 855 02c0 0D010000 		.word	.LC57
 856 02c4 1F010000 		.word	.LC59
 857 02c8 31010000 		.word	.LC61
 858 02cc 43010000 		.word	.LC63
 859 02d0 55010000 		.word	.LC65
 860 02d4 67010000 		.word	.LC67
 861 02d8 79010000 		.word	.LC69
 862 02dc 8B010000 		.word	.LC71
 863 02e0 9D010000 		.word	.LC73
 864 02e4 A7010000 		.word	.LC75
 865 02e8 B0010000 		.word	.LC77
 866 02ec C0010000 		.word	.LC79
 867 02f0 D0010000 		.word	.LC81
 868 02f4 E0010000 		.word	.LC83
 869 02f8 F0010000 		.word	.LC85
 870 02fc FD010000 		.word	.LC87
 871 0300 0F020000 		.word	.LC89
 872              		.cfi_endproc
ARM GAS  C:\Users\SDEVAS~1\AppData\Local\Temp\ccPhqTSe.s 			page 26


 873              	.LFE35:
 874              		.size	get_atom_variable_id_from_string, .-get_atom_variable_id_from_string
 875              		.section	.text.get_atom_mode_from_string,"ax",%progbits
 876              		.align	1
 877              		.code	16
 878              		.thumb_func
 879              		.type	get_atom_mode_from_string, %function
 880              	get_atom_mode_from_string:
 881              	.LFB36:
 112:.\Generated_Source\PSoC4/comm.c **** static atom_modes_t get_atom_mode_from_string(const char *str, int len) {
 882              		.loc 1 112 0
 883              		.cfi_startproc
 884              	.LVL71:
 885 0000 38B5     		push	{r3, r4, r5, lr}
 886              		.cfi_def_cfa_offset 16
 887              		.cfi_offset 3, -16
 888              		.cfi_offset 4, -12
 889              		.cfi_offset 5, -8
 890              		.cfi_offset 14, -4
 112:.\Generated_Source\PSoC4/comm.c **** static atom_modes_t get_atom_mode_from_string(const char *str, int len) {
 891              		.loc 1 112 0
 892 0002 0C1C     		mov	r4, r1
 114:.\Generated_Source\PSoC4/comm.c **** 	ATOM_MODES
 893              		.loc 1 114 0
 894 0004 221C     		mov	r2, r4
 895 0006 1149     		ldr	r1, .L118
 896              	.LVL72:
 112:.\Generated_Source\PSoC4/comm.c **** static atom_modes_t get_atom_mode_from_string(const char *str, int len) {
 897              		.loc 1 112 0
 898 0008 051C     		mov	r5, r0
 114:.\Generated_Source\PSoC4/comm.c **** 	ATOM_MODES
 899              		.loc 1 114 0
 900 000a FFF7FEFF 		bl	strncmp
 901              	.LVL73:
 902 000e 0023     		mov	r3, #0
 903 0010 9842     		cmp	r0, r3
 904 0012 18D0     		beq	.L110
 114:.\Generated_Source\PSoC4/comm.c **** 	ATOM_MODES
 905              		.loc 1 114 0 is_stmt 0 discriminator 2
 906 0014 281C     		mov	r0, r5
 907 0016 0E49     		ldr	r1, .L118+4
 908 0018 221C     		mov	r2, r4
 909 001a FFF7FEFF 		bl	strncmp
 910              	.LVL74:
 911 001e 0123     		mov	r3, #1
 912 0020 0028     		cmp	r0, #0
 913 0022 10D0     		beq	.L110
 914 0024 281C     		mov	r0, r5
 915 0026 0B49     		ldr	r1, .L118+8
 916 0028 221C     		mov	r2, r4
 917 002a FFF7FEFF 		bl	strncmp
 918              	.LVL75:
 919 002e 0223     		mov	r3, #2
 920 0030 0028     		cmp	r0, #0
 921 0032 08D0     		beq	.L110
 922 0034 281C     		mov	r0, r5
 923 0036 0849     		ldr	r1, .L118+12
ARM GAS  C:\Users\SDEVAS~1\AppData\Local\Temp\ccPhqTSe.s 			page 27


 924 0038 221C     		mov	r2, r4
 925 003a FFF7FEFF 		bl	strncmp
 926              	.LVL76:
 116:.\Generated_Source\PSoC4/comm.c **** 	return INVALID_ATOM_MODE;
 927              		.loc 1 116 0 is_stmt 1 discriminator 2
 928 003e 0523     		mov	r3, #5
 114:.\Generated_Source\PSoC4/comm.c **** 	ATOM_MODES
 929              		.loc 1 114 0 discriminator 2
 930 0040 0028     		cmp	r0, #0
 931 0042 00D1     		bne	.L110
 114:.\Generated_Source\PSoC4/comm.c **** 	ATOM_MODES
 932              		.loc 1 114 0 is_stmt 0
 933 0044 0323     		mov	r3, #3
 934              	.L110:
 117:.\Generated_Source\PSoC4/comm.c **** }
 935              		.loc 1 117 0 is_stmt 1
 936 0046 181C     		mov	r0, r3
 937              		@ sp needed
 938              	.LVL77:
 939              	.LVL78:
 940 0048 38BD     		pop	{r3, r4, r5, pc}
 941              	.L119:
 942 004a C046     		.align	2
 943              	.L118:
 944 004c 18020000 		.word	.LC91
 945 0050 1E020000 		.word	.LC93
 946 0054 23020000 		.word	.LC95
 947 0058 28020000 		.word	.LC97
 948              		.cfi_endproc
 949              	.LFE36:
 950              		.size	get_atom_mode_from_string, .-get_atom_mode_from_string
 951              		.section	.text.rs485_wake_callback,"ax",%progbits
 952              		.align	1
 953              		.global	rs485_wake_callback
 954              		.code	16
 955              		.thumb_func
 956              		.type	rs485_wake_callback, %function
 957              	rs485_wake_callback:
 958              	.LFB51:
 466:.\Generated_Source\PSoC4/comm.c **** void rs485_wake_callback(uint8 isWake) {
 959              		.loc 1 466 0
 960              		.cfi_startproc
 961              	.LVL79:
 962 0000 08B5     		push	{r3, lr}
 963              		.cfi_def_cfa_offset 8
 964              		.cfi_offset 3, -8
 965              		.cfi_offset 14, -4
 467:.\Generated_Source\PSoC4/comm.c **** 	isWake ? sleepMgr_requestSleep() : sleepMgr_releaseSleep();
 966              		.loc 1 467 0
 967 0002 0028     		cmp	r0, #0
 968 0004 02D0     		beq	.L121
 467:.\Generated_Source\PSoC4/comm.c **** 	isWake ? sleepMgr_requestSleep() : sleepMgr_releaseSleep();
 969              		.loc 1 467 0 is_stmt 0 discriminator 1
 970 0006 FFF7FEFF 		bl	sleepMgr_requestSleep
 971              	.LVL80:
 972 000a 01E0     		b	.L120
 973              	.LVL81:
ARM GAS  C:\Users\SDEVAS~1\AppData\Local\Temp\ccPhqTSe.s 			page 28


 974              	.L121:
 467:.\Generated_Source\PSoC4/comm.c **** 	isWake ? sleepMgr_requestSleep() : sleepMgr_releaseSleep();
 975              		.loc 1 467 0 discriminator 2
 976 000c FFF7FEFF 		bl	sleepMgr_releaseSleep
 977              	.LVL82:
 978              	.L120:
 468:.\Generated_Source\PSoC4/comm.c **** }
 979              		.loc 1 468 0 is_stmt 1
 980              		@ sp needed
 981 0010 08BD     		pop	{r3, pc}
 982              		.cfi_endproc
 983              	.LFE51:
 984              		.size	rs485_wake_callback, .-rs485_wake_callback
 985              		.section	.text.rs485_frame_sent_callback,"ax",%progbits
 986              		.align	1
 987              		.global	rs485_frame_sent_callback
 988              		.code	16
 989              		.thumb_func
 990              		.type	rs485_frame_sent_callback, %function
 991              	rs485_frame_sent_callback:
 992              	.LFB58:
 492:.\Generated_Source\PSoC4/comm.c **** 
 493:.\Generated_Source\PSoC4/comm.c **** void comm_Init(void) {
 494:.\Generated_Source\PSoC4/comm.c **** 	memset(&comm, 0, sizeof(comm));
 495:.\Generated_Source\PSoC4/comm.c **** 	comm.state = COMM_STATE_IDLE;
 496:.\Generated_Source\PSoC4/comm.c **** 
 497:.\Generated_Source\PSoC4/comm.c ****     comm_RS485_SetCallbackOnSelectedAsSlave(rs485_selected_as_slave_callback);
 498:.\Generated_Source\PSoC4/comm.c ****     comm_RS485_SetCallbackOnReleasedAsSlave(rs485_released_as_slave_callback);
 499:.\Generated_Source\PSoC4/comm.c ****     comm_RS485_SetCallbackOnSlaveReceive(rs485_receive_callback, comm.recvBuff, RECV_BUFF_LEN);
 500:.\Generated_Source\PSoC4/comm.c ****     comm_RS485_SetCallbackOnMasterReceive(rs485_receive_callback, comm.recvBuff, RECV_BUFF_LEN);
 501:.\Generated_Source\PSoC4/comm.c ****     comm_RS485_SetCallbackOnWake(rs485_wake_callback);
 502:.\Generated_Source\PSoC4/comm.c **** //    comm_RS485_SetCallbackOnError(rs485_error_callback);
 503:.\Generated_Source\PSoC4/comm.c ****     comm_RS485_Init();
 504:.\Generated_Source\PSoC4/comm.c **** }
 505:.\Generated_Source\PSoC4/comm.c **** 
 506:.\Generated_Source\PSoC4/comm.c **** void comm_ScheduleMessage(const char *order, int orderLen, char atomType, char atomID) {
 507:.\Generated_Source\PSoC4/comm.c **** 	comm.schedOrder = order;
 508:.\Generated_Source\PSoC4/comm.c **** 	comm.schedOrderLen = orderLen;
 509:.\Generated_Source\PSoC4/comm.c **** 	comm.schedAddr = atomType == 'X' ? comm_RS485_Protocol_ARB_ADDRESS : jsonAddressToRS(atomType, ato
 510:.\Generated_Source\PSoC4/comm.c **** 	*msgDestinationHolderAtomType = atomType;
 511:.\Generated_Source\PSoC4/comm.c **** 	*msgDestinationHolderAtomId = atomID;
 512:.\Generated_Source\PSoC4/comm.c **** 
 513:.\Generated_Source\PSoC4/comm.c **** 	comm_RS485_RequestBus(rs485_bus_granted_callback);
 514:.\Generated_Source\PSoC4/comm.c **** }
 515:.\Generated_Source\PSoC4/comm.c **** 
 516:.\Generated_Source\PSoC4/comm.c **** 
 517:.\Generated_Source\PSoC4/comm.c **** static uint32_t sendingTicks = 0;
 518:.\Generated_Source\PSoC4/comm.c **** void rs485_frame_sent_callback(char * buff, uint32 len) {
 993              		.loc 1 518 0
 994              		.cfi_startproc
 995              	.LVL83:
 996 0000 38B5     		push	{r3, r4, r5, lr}
 997              		.cfi_def_cfa_offset 16
 998              		.cfi_offset 3, -16
 999              		.cfi_offset 4, -12
 1000              		.cfi_offset 5, -8
 1001              		.cfi_offset 14, -4
ARM GAS  C:\Users\SDEVAS~1\AppData\Local\Temp\ccPhqTSe.s 			page 29


 519:.\Generated_Source\PSoC4/comm.c **** 	if(comm.flags.LAST_MSG) {
 1002              		.loc 1 519 0
 1003 0002 0B4D     		ldr	r5, .L126
 1004 0004 9824     		mov	r4, #152
 1005 0006 6400     		lsl	r4, r4, #1
 1006 0008 2B5D     		ldrb	r3, [r5, r4]
 1007 000a 1A07     		lsl	r2, r3, #28
 1008 000c 06D5     		bpl	.L124
 1009              	.LVL84:
 1010              	.LBB19:
 1011              	.LBB20:
 520:.\Generated_Source\PSoC4/comm.c **** 		comm.flags.LAST_MSG = 0;
 1012              		.loc 1 520 0
 1013 000e 0822     		mov	r2, #8
 1014 0010 9343     		bic	r3, r2
 521:.\Generated_Source\PSoC4/comm.c **** 		comm_RS485_ReleaseSlave(rs485_slave_released_callback);  //if we are slave, this will fail
 1015              		.loc 1 521 0
 1016 0012 0848     		ldr	r0, .L126+4
 1017              	.LVL85:
 520:.\Generated_Source\PSoC4/comm.c **** 		comm.flags.LAST_MSG = 0;
 1018              		.loc 1 520 0
 1019 0014 2B55     		strb	r3, [r5, r4]
 1020              		.loc 1 521 0
 1021 0016 FFF7FEFF 		bl	comm_RS485_ReleaseSlave
 1022              	.LVL86:
 1023 001a 07E0     		b	.L123
 1024              	.LVL87:
 1025              	.L124:
 1026              	.LBE20:
 1027              	.LBE19:
 522:.\Generated_Source\PSoC4/comm.c **** 	} else {
 523:.\Generated_Source\PSoC4/comm.c **** 		sendingTicks = SysTimer_GetTicks();
 1028              		.loc 1 523 0
 1029 001c FFF7FEFF 		bl	SysTimer_GetTicks
 1030              	.LVL88:
 1031 0020 054B     		ldr	r3, .L126+8
 524:.\Generated_Source\PSoC4/comm.c **** 		comm.flags.SENT = 1;
 1032              		.loc 1 524 0
 1033 0022 0222     		mov	r2, #2
 523:.\Generated_Source\PSoC4/comm.c **** 		sendingTicks = SysTimer_GetTicks();
 1034              		.loc 1 523 0
 1035 0024 1860     		str	r0, [r3]
 1036              		.loc 1 524 0
 1037 0026 2B5D     		ldrb	r3, [r5, r4]
 1038 0028 1343     		orr	r3, r2
 1039 002a 2B55     		strb	r3, [r5, r4]
 1040              	.L123:
 525:.\Generated_Source\PSoC4/comm.c **** 	}
 526:.\Generated_Source\PSoC4/comm.c **** }
 1041              		.loc 1 526 0
 1042              		@ sp needed
 1043 002c 38BD     		pop	{r3, r4, r5, pc}
 1044              	.L127:
 1045 002e C046     		.align	2
 1046              	.L126:
 1047 0030 00000000 		.word	comm
 1048 0034 00000000 		.word	rs485_slave_released_callback
ARM GAS  C:\Users\SDEVAS~1\AppData\Local\Temp\ccPhqTSe.s 			page 30


 1049 0038 00000000 		.word	.LANCHOR1
 1050              		.cfi_endproc
 1051              	.LFE58:
 1052              		.size	rs485_frame_sent_callback, .-rs485_frame_sent_callback
 1053              		.section	.text.comm_handle_Get.part.1,"ax",%progbits
 1054              		.align	1
 1055              		.code	16
 1056              		.thumb_func
 1057              		.type	comm_handle_Get.part.1, %function
 1058              	comm_handle_Get.part.1:
 1059              	.LFB61:
 283:.\Generated_Source\PSoC4/comm.c **** comm_flags_t comm_handle_Get(comm_flags_t flags, const char *payload, int payloadLen, jsmntok_t *to
 1060              		.loc 1 283 0
 1061              		.cfi_startproc
 1062              	.LVL89:
 1063 0000 F7B5     		push	{r0, r1, r2, r4, r5, r6, r7, lr}
 1064              		.cfi_def_cfa_offset 32
 1065              		.cfi_offset 0, -32
 1066              		.cfi_offset 1, -28
 1067              		.cfi_offset 2, -24
 1068              		.cfi_offset 4, -20
 1069              		.cfi_offset 5, -16
 1070              		.cfi_offset 6, -12
 1071              		.cfi_offset 7, -8
 1072              		.cfi_offset 14, -4
 291:.\Generated_Source\PSoC4/comm.c ****   if(tokens[0].type != JSMN_OBJECT) {
 1073              		.loc 1 291 0
 1074 0002 0E78     		ldrb	r6, [r1]
 283:.\Generated_Source\PSoC4/comm.c **** comm_flags_t comm_handle_Get(comm_flags_t flags, const char *payload, int payloadLen, jsmntok_t *to
 1075              		.loc 1 283 0
 1076 0004 071C     		mov	r7, r0
 1077 0006 0C1C     		mov	r4, r1
 291:.\Generated_Source\PSoC4/comm.c ****   if(tokens[0].type != JSMN_OBJECT) {
 1078              		.loc 1 291 0
 1079 0008 012E     		cmp	r6, #1
 1080 000a 00D0     		beq	.LCB953
 1081 000c 9BE2     		b	.L129	@long jump
 1082              	.LCB953:
 299:.\Generated_Source\PSoC4/comm.c ****   for(; i < tokens[0].size; i++) {
 1083              		.loc 1 299 0
 1084 000e CA68     		ldr	r2, [r1, #12]
 1085 0010 0025     		mov	r5, #0
 1086 0012 0192     		str	r2, [sp, #4]
 1087              	.LVL90:
 1088              	.L130:
 1089 0014 019B     		ldr	r3, [sp, #4]
 1090 0016 9D42     		cmp	r5, r3
 1091 0018 00DB     		blt	.LCB965
 1092 001a 94E2     		b	.L129	@long jump
 1093              	.LCB965:
 300:.\Generated_Source\PSoC4/comm.c **** 	if(tokens[t].type != JSMN_STRING) {//it should point to key
 1094              		.loc 1 300 0
 1095 001c 3101     		lsl	r1, r6, #4
 1096 001e 6118     		add	r1, r4, r1
 1097 0020 0B78     		ldrb	r3, [r1]
 1098 0022 032B     		cmp	r3, #3
 1099 0024 00D0     		beq	.LCB970
ARM GAS  C:\Users\SDEVAS~1\AppData\Local\Temp\ccPhqTSe.s 			page 31


 1100 0026 8EE2     		b	.L129	@long jump
 1101              	.LCB970:
 304:.\Generated_Source\PSoC4/comm.c ****     if(compKey(payload, &tokens[t], "n") == 0) {
 1102              		.loc 1 304 0
 1103 0028 381C     		mov	r0, r7
 1104 002a D94A     		ldr	r2, .L179
 1105 002c FFF7FEFF 		bl	compKey
 1106              	.LVL91:
 1107 0030 711C     		add	r1, r6, #1
 1108 0032 0028     		cmp	r0, #0
 1109 0034 0AD1     		bne	.L131
 306:.\Generated_Source\PSoC4/comm.c ****       avid = get_atom_variable_id_from_string(payload + tokens[t+1].start,tokens[t+1].end - tokens[
 1110              		.loc 1 306 0
 1111 0036 0901     		lsl	r1, r1, #4
 1112 0038 6418     		add	r4, r4, r1
 1113              	.LVL92:
 1114 003a 6368     		ldr	r3, [r4, #4]
 1115 003c A168     		ldr	r1, [r4, #8]
 1116 003e F818     		add	r0, r7, r3
 1117 0040 C91A     		sub	r1, r1, r3
 1118 0042 FFF7FEFF 		bl	get_atom_variable_id_from_string
 1119              	.LVL93:
 311:.\Generated_Source\PSoC4/comm.c ****   if(avid == INVALID_ATOM_VARIABLE) {
 1120              		.loc 1 311 0
 1121 0046 2528     		cmp	r0, #37
 1122 0048 06D1     		bne	.L176
 1123 004a 7CE2     		b	.L129
 1124              	.LVL94:
 1125              	.L131:
 309:.\Generated_Source\PSoC4/comm.c ****     t = skipToNextTokenInLevel(tokens, ++t);
 1126              		.loc 1 309 0
 1127 004c 201C     		mov	r0, r4
 1128 004e FFF7FEFF 		bl	skipToNextTokenInLevel
 1129              	.LVL95:
 299:.\Generated_Source\PSoC4/comm.c ****   for(; i < tokens[0].size; i++) {
 1130              		.loc 1 299 0
 1131 0052 0135     		add	r5, r5, #1
 1132              	.LVL96:
 309:.\Generated_Source\PSoC4/comm.c ****     t = skipToNextTokenInLevel(tokens, ++t);
 1133              		.loc 1 309 0
 1134 0054 061C     		mov	r6, r0
 1135              	.LVL97:
 1136 0056 DDE7     		b	.L130
 1137              	.LVL98:
 1138              	.L176:
 317:.\Generated_Source\PSoC4/comm.c ****   switch(avid) {
 1139              		.loc 1 317 0
 1140 0058 2328     		cmp	r0, #35
 1141 005a 00D9     		bls	.LCB1017
 1142 005c 73E2     		b	.L129	@long jump
 1143              	.LCB1017:
 1144 005e CD4C     		ldr	r4, .L179+4
 1145 0060 FFF7FEFF 		bl	__gnu_thumb1_case_uhi
 1146              	.L135:
 1147 0064 2400     		.2byte	(.L134-.L135)/2
 1148 0066 3200     		.2byte	(.L136-.L135)/2
 1149 0068 4000     		.2byte	(.L137-.L135)/2
ARM GAS  C:\Users\SDEVAS~1\AppData\Local\Temp\ccPhqTSe.s 			page 32


 1150 006a 5300     		.2byte	(.L138-.L135)/2
 1151 006c 6100     		.2byte	(.L139-.L135)/2
 1152 006e 6F00     		.2byte	(.L140-.L135)/2
 1153 0070 7D00     		.2byte	(.L141-.L135)/2
 1154 0072 8B00     		.2byte	(.L142-.L135)/2
 1155 0074 9900     		.2byte	(.L143-.L135)/2
 1156 0076 A700     		.2byte	(.L144-.L135)/2
 1157 0078 B500     		.2byte	(.L145-.L135)/2
 1158 007a C300     		.2byte	(.L146-.L135)/2
 1159 007c D100     		.2byte	(.L147-.L135)/2
 1160 007e DF00     		.2byte	(.L148-.L135)/2
 1161 0080 ED00     		.2byte	(.L149-.L135)/2
 1162 0082 FB00     		.2byte	(.L150-.L135)/2
 1163 0084 0901     		.2byte	(.L151-.L135)/2
 1164 0086 1701     		.2byte	(.L152-.L135)/2
 1165 0088 2501     		.2byte	(.L153-.L135)/2
 1166 008a 3301     		.2byte	(.L154-.L135)/2
 1167 008c 4101     		.2byte	(.L155-.L135)/2
 1168 008e 4F01     		.2byte	(.L156-.L135)/2
 1169 0090 5D01     		.2byte	(.L157-.L135)/2
 1170 0092 6B01     		.2byte	(.L158-.L135)/2
 1171 0094 7901     		.2byte	(.L159-.L135)/2
 1172 0096 8701     		.2byte	(.L160-.L135)/2
 1173 0098 CE01     		.2byte	(.L161-.L135)/2
 1174 009a E101     		.2byte	(.L162-.L135)/2
 1175 009c EF01     		.2byte	(.L163-.L135)/2
 1176 009e FD01     		.2byte	(.L164-.L135)/2
 1177 00a0 0B02     		.2byte	(.L165-.L135)/2
 1178 00a2 1902     		.2byte	(.L166-.L135)/2
 1179 00a4 2702     		.2byte	(.L167-.L135)/2
 1180 00a6 3502     		.2byte	(.L168-.L135)/2
 1181 00a8 4302     		.2byte	(.L169-.L135)/2
 1182 00aa 5102     		.2byte	(.L170-.L135)/2
 1183              		.p2align 1
 1184              	.L134:
 323:.\Generated_Source\PSoC4/comm.c ****     ATOM_VARIABLES
 1185              		.loc 1 323 0
 1186 00ac 2068     		ldr	r0, [r4]
 1187              	.LVL99:
 1188 00ae BA49     		ldr	r1, .L179+8
 1189 00b0 2B22     		mov	r2, #43
 1190 00b2 FFF7FEFF 		bl	memcpy
 1191              	.LVL100:
 1192 00b6 2668     		ldr	r6, [r4]
 1193              	.LVL101:
 1194 00b8 6568     		ldr	r5, [r4, #4]
 1195              	.LVL102:
 1196 00ba 2A36     		add	r6, r6, #42
 1197 00bc 2A3D     		sub	r5, r5, #42
 1198 00be 2660     		str	r6, [r4]
 1199 00c0 6560     		str	r5, [r4, #4]
 1200 00c2 FFF7FEFF 		bl	getvar_sleepPeriod
 1201              	.LVL103:
 1202 00c6 2BE2     		b	.L177
 1203              	.LVL104:
 1204              	.L136:
 1205 00c8 2068     		ldr	r0, [r4]
ARM GAS  C:\Users\SDEVAS~1\AppData\Local\Temp\ccPhqTSe.s 			page 33


 1206              	.LVL105:
 1207 00ca B449     		ldr	r1, .L179+12
 1208 00cc 2C22     		mov	r2, #44
 1209 00ce FFF7FEFF 		bl	memcpy
 1210              	.LVL106:
 1211 00d2 2668     		ldr	r6, [r4]
 1212              	.LVL107:
 1213 00d4 6568     		ldr	r5, [r4, #4]
 1214              	.LVL108:
 1215 00d6 2B36     		add	r6, r6, #43
 1216 00d8 2B3D     		sub	r5, r5, #43
 1217 00da 2660     		str	r6, [r4]
 1218 00dc 6560     		str	r5, [r4, #4]
 1219 00de FFF7FEFF 		bl	getvar_shutdownTime
 1220              	.LVL109:
 1221 00e2 1DE2     		b	.L177
 1222              	.LVL110:
 1223              	.L137:
 1224 00e4 AE49     		ldr	r1, .L179+16
 1225 00e6 2422     		mov	r2, #36
 1226 00e8 2068     		ldr	r0, [r4]
 1227              	.LVL111:
 1228 00ea FFF7FEFF 		bl	memcpy
 1229              	.LVL112:
 1230 00ee 2668     		ldr	r6, [r4]
 1231              	.LVL113:
 1232 00f0 6568     		ldr	r5, [r4, #4]
 1233              	.LVL114:
 1234 00f2 2336     		add	r6, r6, #35
 1235 00f4 233D     		sub	r5, r5, #35
 1236 00f6 2660     		str	r6, [r4]
 1237 00f8 6560     		str	r5, [r4, #4]
 1238 00fa FFF7FEFF 		bl	getvar_test
 1239              	.LVL115:
 1240 00fe 291C     		mov	r1, r5
 1241 0100 021C     		mov	r2, r0
 1242 0102 301C     		mov	r0, r6
 1243 0104 FFF7FEFF 		bl	conv_s2str
 1244              	.LVL116:
 1245 0108 0FE2     		b	.L171
 1246              	.LVL117:
 1247              	.L138:
 1248 010a 2068     		ldr	r0, [r4]
 1249              	.LVL118:
 1250 010c A549     		ldr	r1, .L179+20
 1251 010e 2D22     		mov	r2, #45
 1252 0110 FFF7FEFF 		bl	memcpy
 1253              	.LVL119:
 1254 0114 2668     		ldr	r6, [r4]
 1255              	.LVL120:
 1256 0116 6568     		ldr	r5, [r4, #4]
 1257              	.LVL121:
 1258 0118 2C36     		add	r6, r6, #44
 1259 011a 2C3D     		sub	r5, r5, #44
 1260 011c 2660     		str	r6, [r4]
 1261 011e 6560     		str	r5, [r4, #4]
 1262 0120 FFF7FEFF 		bl	getvar_innerPressure
ARM GAS  C:\Users\SDEVAS~1\AppData\Local\Temp\ccPhqTSe.s 			page 34


 1263              	.LVL122:
 1264 0124 FCE1     		b	.L177
 1265              	.LVL123:
 1266              	.L139:
 1267 0126 2068     		ldr	r0, [r4]
 1268              	.LVL124:
 1269 0128 9F49     		ldr	r1, .L179+24
 1270 012a 2D22     		mov	r2, #45
 1271 012c FFF7FEFF 		bl	memcpy
 1272              	.LVL125:
 1273 0130 2668     		ldr	r6, [r4]
 1274              	.LVL126:
 1275 0132 6568     		ldr	r5, [r4, #4]
 1276              	.LVL127:
 1277 0134 2C36     		add	r6, r6, #44
 1278 0136 2C3D     		sub	r5, r5, #44
 1279 0138 2660     		str	r6, [r4]
 1280 013a 6560     		str	r5, [r4, #4]
 1281 013c FFF7FEFF 		bl	getvar_outerPressure
 1282              	.LVL128:
 1283 0140 EEE1     		b	.L177
 1284              	.LVL129:
 1285              	.L140:
 1286 0142 2068     		ldr	r0, [r4]
 1287              	.LVL130:
 1288 0144 9949     		ldr	r1, .L179+28
 1289 0146 2B22     		mov	r2, #43
 1290 0148 FFF7FEFF 		bl	memcpy
 1291              	.LVL131:
 1292 014c 2668     		ldr	r6, [r4]
 1293              	.LVL132:
 1294 014e 6568     		ldr	r5, [r4, #4]
 1295              	.LVL133:
 1296 0150 2A36     		add	r6, r6, #42
 1297 0152 2A3D     		sub	r5, r5, #42
 1298 0154 2660     		str	r6, [r4]
 1299 0156 6560     		str	r5, [r4, #4]
 1300 0158 FFF7FEFF 		bl	getvar_currentFlow
 1301              	.LVL134:
 1302 015c E0E1     		b	.L177
 1303              	.LVL135:
 1304              	.L141:
 1305 015e 2068     		ldr	r0, [r4]
 1306              	.LVL136:
 1307 0160 9349     		ldr	r1, .L179+32
 1308 0162 2B22     		mov	r2, #43
 1309 0164 FFF7FEFF 		bl	memcpy
 1310              	.LVL137:
 1311 0168 2668     		ldr	r6, [r4]
 1312              	.LVL138:
 1313 016a 6568     		ldr	r5, [r4, #4]
 1314              	.LVL139:
 1315 016c 2A36     		add	r6, r6, #42
 1316 016e 2A3D     		sub	r5, r5, #42
 1317 0170 2660     		str	r6, [r4]
 1318 0172 6560     		str	r5, [r4, #4]
 1319 0174 FFF7FEFF 		bl	getvar_totalVolume
ARM GAS  C:\Users\SDEVAS~1\AppData\Local\Temp\ccPhqTSe.s 			page 35


 1320              	.LVL140:
 1321 0178 D2E1     		b	.L177
 1322              	.LVL141:
 1323              	.L142:
 1324 017a 2068     		ldr	r0, [r4]
 1325              	.LVL142:
 1326 017c 8D49     		ldr	r1, .L179+36
 1327 017e 2B22     		mov	r2, #43
 1328 0180 FFF7FEFF 		bl	memcpy
 1329              	.LVL143:
 1330 0184 2668     		ldr	r6, [r4]
 1331              	.LVL144:
 1332 0186 6568     		ldr	r5, [r4, #4]
 1333              	.LVL145:
 1334 0188 2A36     		add	r6, r6, #42
 1335 018a 2A3D     		sub	r5, r5, #42
 1336 018c 2660     		str	r6, [r4]
 1337 018e 6560     		str	r5, [r4, #4]
 1338 0190 FFF7FEFF 		bl	getvar_valveStatus
 1339              	.LVL146:
 1340 0194 C4E1     		b	.L177
 1341              	.LVL147:
 1342              	.L143:
 1343 0196 2068     		ldr	r0, [r4]
 1344              	.LVL148:
 1345 0198 8749     		ldr	r1, .L179+40
 1346 019a 2F22     		mov	r2, #47
 1347 019c FFF7FEFF 		bl	memcpy
 1348              	.LVL149:
 1349 01a0 2668     		ldr	r6, [r4]
 1350              	.LVL150:
 1351 01a2 6568     		ldr	r5, [r4, #4]
 1352              	.LVL151:
 1353 01a4 2E36     		add	r6, r6, #46
 1354 01a6 2E3D     		sub	r5, r5, #46
 1355 01a8 2660     		str	r6, [r4]
 1356 01aa 6560     		str	r5, [r4, #4]
 1357 01ac FFF7FEFF 		bl	getvar_lastStartNumber
 1358              	.LVL152:
 1359 01b0 B6E1     		b	.L177
 1360              	.LVL153:
 1361              	.L144:
 1362 01b2 2068     		ldr	r0, [r4]
 1363              	.LVL154:
 1364 01b4 8149     		ldr	r1, .L179+44
 1365 01b6 2F22     		mov	r2, #47
 1366 01b8 FFF7FEFF 		bl	memcpy
 1367              	.LVL155:
 1368 01bc 2668     		ldr	r6, [r4]
 1369              	.LVL156:
 1370 01be 6568     		ldr	r5, [r4, #4]
 1371              	.LVL157:
 1372 01c0 2E36     		add	r6, r6, #46
 1373 01c2 2E3D     		sub	r5, r5, #46
 1374 01c4 2660     		str	r6, [r4]
 1375 01c6 6560     		str	r5, [r4, #4]
 1376 01c8 FFF7FEFF 		bl	getvar_lastStartVolume
ARM GAS  C:\Users\SDEVAS~1\AppData\Local\Temp\ccPhqTSe.s 			page 36


 1377              	.LVL158:
 1378 01cc A8E1     		b	.L177
 1379              	.LVL159:
 1380              	.L145:
 1381 01ce 2068     		ldr	r0, [r4]
 1382              	.LVL160:
 1383 01d0 7B49     		ldr	r1, .L179+48
 1384 01d2 2D22     		mov	r2, #45
 1385 01d4 FFF7FEFF 		bl	memcpy
 1386              	.LVL161:
 1387 01d8 2668     		ldr	r6, [r4]
 1388              	.LVL162:
 1389 01da 6568     		ldr	r5, [r4, #4]
 1390              	.LVL163:
 1391 01dc 2C36     		add	r6, r6, #44
 1392 01de 2C3D     		sub	r5, r5, #44
 1393 01e0 2660     		str	r6, [r4]
 1394 01e2 6560     		str	r5, [r4, #4]
 1395 01e4 FFF7FEFF 		bl	getvar_lastStartFlow
 1396              	.LVL164:
 1397 01e8 9AE1     		b	.L177
 1398              	.LVL165:
 1399              	.L146:
 1400 01ea 2068     		ldr	r0, [r4]
 1401              	.LVL166:
 1402 01ec 7549     		ldr	r1, .L179+52
 1403 01ee 2922     		mov	r2, #41
 1404 01f0 FFF7FEFF 		bl	memcpy
 1405              	.LVL167:
 1406 01f4 2668     		ldr	r6, [r4]
 1407              	.LVL168:
 1408 01f6 6568     		ldr	r5, [r4, #4]
 1409              	.LVL169:
 1410 01f8 2836     		add	r6, r6, #40
 1411 01fa 283D     		sub	r5, r5, #40
 1412 01fc 2660     		str	r6, [r4]
 1413 01fe 6560     		str	r5, [r4, #4]
 1414 0200 FFF7FEFF 		bl	getvar_startTime
 1415              	.LVL170:
 1416 0204 8CE1     		b	.L177
 1417              	.LVL171:
 1418              	.L147:
 1419 0206 2068     		ldr	r0, [r4]
 1420              	.LVL172:
 1421 0208 6F49     		ldr	r1, .L179+56
 1422 020a 2822     		mov	r2, #40
 1423 020c FFF7FEFF 		bl	memcpy
 1424              	.LVL173:
 1425 0210 2668     		ldr	r6, [r4]
 1426              	.LVL174:
 1427 0212 6568     		ldr	r5, [r4, #4]
 1428              	.LVL175:
 1429 0214 2736     		add	r6, r6, #39
 1430 0216 273D     		sub	r5, r5, #39
 1431 0218 2660     		str	r6, [r4]
 1432 021a 6560     		str	r5, [r4, #4]
 1433 021c FFF7FEFF 		bl	getvar_stopTime
ARM GAS  C:\Users\SDEVAS~1\AppData\Local\Temp\ccPhqTSe.s 			page 37


 1434              	.LVL176:
 1435 0220 7EE1     		b	.L177
 1436              	.LVL177:
 1437              	.L148:
 1438 0222 2068     		ldr	r0, [r4]
 1439              	.LVL178:
 1440 0224 6949     		ldr	r1, .L179+60
 1441 0226 2922     		mov	r2, #41
 1442 0228 FFF7FEFF 		bl	memcpy
 1443              	.LVL179:
 1444 022c 2668     		ldr	r6, [r4]
 1445              	.LVL180:
 1446 022e 6568     		ldr	r5, [r4, #4]
 1447              	.LVL181:
 1448 0230 2836     		add	r6, r6, #40
 1449 0232 283D     		sub	r5, r5, #40
 1450 0234 2660     		str	r6, [r4]
 1451 0236 6560     		str	r5, [r4, #4]
 1452 0238 FFF7FEFF 		bl	getvar_numStarts
 1453              	.LVL182:
 1454 023c 70E1     		b	.L177
 1455              	.LVL183:
 1456              	.L149:
 1457 023e 2068     		ldr	r0, [r4]
 1458              	.LVL184:
 1459 0240 6349     		ldr	r1, .L179+64
 1460 0242 2B22     		mov	r2, #43
 1461 0244 FFF7FEFF 		bl	memcpy
 1462              	.LVL185:
 1463 0248 2668     		ldr	r6, [r4]
 1464              	.LVL186:
 1465 024a 6568     		ldr	r5, [r4, #4]
 1466              	.LVL187:
 1467 024c 2A36     		add	r6, r6, #42
 1468 024e 2A3D     		sub	r5, r5, #42
 1469 0250 2660     		str	r6, [r4]
 1470 0252 6560     		str	r5, [r4, #4]
 1471 0254 FFF7FEFF 		bl	getvar_volPerStart
 1472              	.LVL188:
 1473 0258 62E1     		b	.L177
 1474              	.LVL189:
 1475              	.L150:
 1476 025a 2068     		ldr	r0, [r4]
 1477              	.LVL190:
 1478 025c 5D49     		ldr	r1, .L179+68
 1479 025e 2622     		mov	r2, #38
 1480 0260 FFF7FEFF 		bl	memcpy
 1481              	.LVL191:
 1482 0264 2668     		ldr	r6, [r4]
 1483              	.LVL192:
 1484 0266 6568     		ldr	r5, [r4, #4]
 1485              	.LVL193:
 1486 0268 2536     		add	r6, r6, #37
 1487 026a 253D     		sub	r5, r5, #37
 1488 026c 2660     		str	r6, [r4]
 1489 026e 6560     		str	r5, [r4, #4]
 1490 0270 FFF7FEFF 		bl	getvar_maxVol
ARM GAS  C:\Users\SDEVAS~1\AppData\Local\Temp\ccPhqTSe.s 			page 38


 1491              	.LVL194:
 1492 0274 54E1     		b	.L177
 1493              	.LVL195:
 1494              	.L151:
 1495 0276 2068     		ldr	r0, [r4]
 1496              	.LVL196:
 1497 0278 5749     		ldr	r1, .L179+72
 1498 027a 2622     		mov	r2, #38
 1499 027c FFF7FEFF 		bl	memcpy
 1500              	.LVL197:
 1501 0280 2668     		ldr	r6, [r4]
 1502              	.LVL198:
 1503 0282 6568     		ldr	r5, [r4, #4]
 1504              	.LVL199:
 1505 0284 2536     		add	r6, r6, #37
 1506 0286 253D     		sub	r5, r5, #37
 1507 0288 2660     		str	r6, [r4]
 1508 028a 6560     		str	r5, [r4, #4]
 1509 028c FFF7FEFF 		bl	getvar_minVol
 1510              	.LVL200:
 1511 0290 46E1     		b	.L177
 1512              	.LVL201:
 1513              	.L152:
 1514 0292 2068     		ldr	r0, [r4]
 1515              	.LVL202:
 1516 0294 5149     		ldr	r1, .L179+76
 1517 0296 3222     		mov	r2, #50
 1518 0298 FFF7FEFF 		bl	memcpy
 1519              	.LVL203:
 1520 029c 2668     		ldr	r6, [r4]
 1521              	.LVL204:
 1522 029e 6568     		ldr	r5, [r4, #4]
 1523              	.LVL205:
 1524 02a0 3136     		add	r6, r6, #49
 1525 02a2 313D     		sub	r5, r5, #49
 1526 02a4 2660     		str	r6, [r4]
 1527 02a6 6560     		str	r5, [r4, #4]
 1528 02a8 FFF7FEFF 		bl	getvar_fertigationTable0
 1529              	.LVL206:
 1530 02ac B5E0     		b	.L178
 1531              	.LVL207:
 1532              	.L153:
 1533 02ae 2068     		ldr	r0, [r4]
 1534              	.LVL208:
 1535 02b0 4B49     		ldr	r1, .L179+80
 1536 02b2 3222     		mov	r2, #50
 1537 02b4 FFF7FEFF 		bl	memcpy
 1538              	.LVL209:
 1539 02b8 2668     		ldr	r6, [r4]
 1540              	.LVL210:
 1541 02ba 6568     		ldr	r5, [r4, #4]
 1542              	.LVL211:
 1543 02bc 3136     		add	r6, r6, #49
 1544 02be 313D     		sub	r5, r5, #49
 1545 02c0 2660     		str	r6, [r4]
 1546 02c2 6560     		str	r5, [r4, #4]
 1547 02c4 FFF7FEFF 		bl	getvar_fertigationTable1
ARM GAS  C:\Users\SDEVAS~1\AppData\Local\Temp\ccPhqTSe.s 			page 39


 1548              	.LVL212:
 1549 02c8 A7E0     		b	.L178
 1550              	.LVL213:
 1551              	.L154:
 1552 02ca 2068     		ldr	r0, [r4]
 1553              	.LVL214:
 1554 02cc 4549     		ldr	r1, .L179+84
 1555 02ce 3222     		mov	r2, #50
 1556 02d0 FFF7FEFF 		bl	memcpy
 1557              	.LVL215:
 1558 02d4 2668     		ldr	r6, [r4]
 1559              	.LVL216:
 1560 02d6 6568     		ldr	r5, [r4, #4]
 1561              	.LVL217:
 1562 02d8 3136     		add	r6, r6, #49
 1563 02da 313D     		sub	r5, r5, #49
 1564 02dc 2660     		str	r6, [r4]
 1565 02de 6560     		str	r5, [r4, #4]
 1566 02e0 FFF7FEFF 		bl	getvar_fertigationTable2
 1567              	.LVL218:
 1568 02e4 99E0     		b	.L178
 1569              	.LVL219:
 1570              	.L155:
 1571 02e6 2068     		ldr	r0, [r4]
 1572              	.LVL220:
 1573 02e8 3F49     		ldr	r1, .L179+88
 1574 02ea 3222     		mov	r2, #50
 1575 02ec FFF7FEFF 		bl	memcpy
 1576              	.LVL221:
 1577 02f0 2668     		ldr	r6, [r4]
 1578              	.LVL222:
 1579 02f2 6568     		ldr	r5, [r4, #4]
 1580              	.LVL223:
 1581 02f4 3136     		add	r6, r6, #49
 1582 02f6 313D     		sub	r5, r5, #49
 1583 02f8 2660     		str	r6, [r4]
 1584 02fa 6560     		str	r5, [r4, #4]
 1585 02fc FFF7FEFF 		bl	getvar_fertigationTable3
 1586              	.LVL224:
 1587 0300 8BE0     		b	.L178
 1588              	.LVL225:
 1589              	.L156:
 1590 0302 2068     		ldr	r0, [r4]
 1591              	.LVL226:
 1592 0304 3949     		ldr	r1, .L179+92
 1593 0306 3222     		mov	r2, #50
 1594 0308 FFF7FEFF 		bl	memcpy
 1595              	.LVL227:
 1596 030c 2668     		ldr	r6, [r4]
 1597              	.LVL228:
 1598 030e 6568     		ldr	r5, [r4, #4]
 1599              	.LVL229:
 1600 0310 3136     		add	r6, r6, #49
 1601 0312 313D     		sub	r5, r5, #49
 1602 0314 2660     		str	r6, [r4]
 1603 0316 6560     		str	r5, [r4, #4]
 1604 0318 FFF7FEFF 		bl	getvar_fertigationTable4
ARM GAS  C:\Users\SDEVAS~1\AppData\Local\Temp\ccPhqTSe.s 			page 40


 1605              	.LVL230:
 1606 031c 7DE0     		b	.L178
 1607              	.LVL231:
 1608              	.L157:
 1609 031e 2068     		ldr	r0, [r4]
 1610              	.LVL232:
 1611 0320 3349     		ldr	r1, .L179+96
 1612 0322 3222     		mov	r2, #50
 1613 0324 FFF7FEFF 		bl	memcpy
 1614              	.LVL233:
 1615 0328 2668     		ldr	r6, [r4]
 1616              	.LVL234:
 1617 032a 6568     		ldr	r5, [r4, #4]
 1618              	.LVL235:
 1619 032c 3136     		add	r6, r6, #49
 1620 032e 313D     		sub	r5, r5, #49
 1621 0330 2660     		str	r6, [r4]
 1622 0332 6560     		str	r5, [r4, #4]
 1623 0334 FFF7FEFF 		bl	getvar_fertigationTable5
 1624              	.LVL236:
 1625 0338 6FE0     		b	.L178
 1626              	.LVL237:
 1627              	.L158:
 1628 033a 2068     		ldr	r0, [r4]
 1629              	.LVL238:
 1630 033c 2D49     		ldr	r1, .L179+100
 1631 033e 3222     		mov	r2, #50
 1632 0340 FFF7FEFF 		bl	memcpy
 1633              	.LVL239:
 1634 0344 2668     		ldr	r6, [r4]
 1635              	.LVL240:
 1636 0346 6568     		ldr	r5, [r4, #4]
 1637              	.LVL241:
 1638 0348 3136     		add	r6, r6, #49
 1639 034a 313D     		sub	r5, r5, #49
 1640 034c 2660     		str	r6, [r4]
 1641 034e 6560     		str	r5, [r4, #4]
 1642 0350 FFF7FEFF 		bl	getvar_fertigationTable6
 1643              	.LVL242:
 1644 0354 61E0     		b	.L178
 1645              	.LVL243:
 1646              	.L159:
 1647 0356 2068     		ldr	r0, [r4]
 1648              	.LVL244:
 1649 0358 2749     		ldr	r1, .L179+104
 1650 035a 3222     		mov	r2, #50
 1651 035c FFF7FEFF 		bl	memcpy
 1652              	.LVL245:
 1653 0360 2668     		ldr	r6, [r4]
 1654              	.LVL246:
 1655 0362 6568     		ldr	r5, [r4, #4]
 1656              	.LVL247:
 1657 0364 3136     		add	r6, r6, #49
 1658 0366 313D     		sub	r5, r5, #49
 1659 0368 2660     		str	r6, [r4]
 1660 036a 6560     		str	r5, [r4, #4]
 1661 036c FFF7FEFF 		bl	getvar_fertigationTable7
ARM GAS  C:\Users\SDEVAS~1\AppData\Local\Temp\ccPhqTSe.s 			page 41


 1662              	.LVL248:
 1663 0370 53E0     		b	.L178
 1664              	.LVL249:
 1665              	.L160:
 1666 0372 2068     		ldr	r0, [r4]
 1667              	.LVL250:
 1668 0374 2149     		ldr	r1, .L179+108
 1669 0376 3222     		mov	r2, #50
 1670 0378 FFF7FEFF 		bl	memcpy
 1671              	.LVL251:
 1672 037c 2668     		ldr	r6, [r4]
 1673              	.LVL252:
 1674 037e 6568     		ldr	r5, [r4, #4]
 1675              	.LVL253:
 1676 0380 3136     		add	r6, r6, #49
 1677 0382 313D     		sub	r5, r5, #49
 1678 0384 2660     		str	r6, [r4]
 1679 0386 6560     		str	r5, [r4, #4]
 1680 0388 FFF7FEFF 		bl	getvar_fertigationTable8
 1681              	.LVL254:
 1682 038c 45E0     		b	.L178
 1683              	.L180:
 1684 038e C046     		.align	2
 1685              	.L179:
 1686 0390 31020000 		.word	.LC102
 1687 0394 00000000 		.word	.LANCHOR0
 1688 0398 33020000 		.word	.LC105
 1689 039c 5E020000 		.word	.LC107
 1690 03a0 8A020000 		.word	.LC109
 1691 03a4 AE020000 		.word	.LC111
 1692 03a8 DB020000 		.word	.LC113
 1693 03ac 08030000 		.word	.LC115
 1694 03b0 33030000 		.word	.LC117
 1695 03b4 5E030000 		.word	.LC119
 1696 03b8 89030000 		.word	.LC121
 1697 03bc B8030000 		.word	.LC123
 1698 03c0 E7030000 		.word	.LC125
 1699 03c4 14040000 		.word	.LC127
 1700 03c8 3D040000 		.word	.LC129
 1701 03cc 65040000 		.word	.LC131
 1702 03d0 8E040000 		.word	.LC133
 1703 03d4 B9040000 		.word	.LC135
 1704 03d8 DF040000 		.word	.LC137
 1705 03dc 05050000 		.word	.LC139
 1706 03e0 37050000 		.word	.LC141
 1707 03e4 69050000 		.word	.LC143
 1708 03e8 9B050000 		.word	.LC145
 1709 03ec CD050000 		.word	.LC147
 1710 03f0 FF050000 		.word	.LC149
 1711 03f4 31060000 		.word	.LC151
 1712 03f8 63060000 		.word	.LC153
 1713 03fc 95060000 		.word	.LC155
 1714              	.LVL255:
 1715              	.L161:
 1716 0400 2068     		ldr	r0, [r4]
 1717              	.LVL256:
 1718 0402 5849     		ldr	r1, .L181
ARM GAS  C:\Users\SDEVAS~1\AppData\Local\Temp\ccPhqTSe.s 			page 42


 1719 0404 3222     		mov	r2, #50
 1720 0406 FFF7FEFF 		bl	memcpy
 1721              	.LVL257:
 1722 040a 2668     		ldr	r6, [r4]
 1723              	.LVL258:
 1724 040c 6568     		ldr	r5, [r4, #4]
 1725              	.LVL259:
 1726 040e 3136     		add	r6, r6, #49
 1727 0410 313D     		sub	r5, r5, #49
 1728 0412 2660     		str	r6, [r4]
 1729 0414 6560     		str	r5, [r4, #4]
 1730 0416 FFF7FEFF 		bl	getvar_fertigationTable9
 1731              	.LVL260:
 1732              	.L178:
 1733 041a 021C     		mov	r2, r0
 1734 041c 291C     		mov	r1, r5
 1735 041e 301C     		mov	r0, r6
 1736 0420 FFF7FEFF 		bl	conv_ia2str
 1737              	.LVL261:
 1738 0424 81E0     		b	.L171
 1739              	.LVL262:
 1740              	.L162:
 1741 0426 2068     		ldr	r0, [r4]
 1742              	.LVL263:
 1743 0428 4F49     		ldr	r1, .L181+4
 1744 042a 2922     		mov	r2, #41
 1745 042c FFF7FEFF 		bl	memcpy
 1746              	.LVL264:
 1747 0430 2668     		ldr	r6, [r4]
 1748              	.LVL265:
 1749 0432 6568     		ldr	r5, [r4, #4]
 1750              	.LVL266:
 1751 0434 2836     		add	r6, r6, #40
 1752 0436 283D     		sub	r5, r5, #40
 1753 0438 2660     		str	r6, [r4]
 1754 043a 6560     		str	r5, [r4, #4]
 1755 043c FFF7FEFF 		bl	getvar_notBefore
 1756              	.LVL267:
 1757 0440 6EE0     		b	.L177
 1758              	.LVL268:
 1759              	.L163:
 1760 0442 2068     		ldr	r0, [r4]
 1761              	.LVL269:
 1762 0444 4949     		ldr	r1, .L181+8
 1763 0446 2822     		mov	r2, #40
 1764 0448 FFF7FEFF 		bl	memcpy
 1765              	.LVL270:
 1766 044c 2668     		ldr	r6, [r4]
 1767              	.LVL271:
 1768 044e 6568     		ldr	r5, [r4, #4]
 1769              	.LVL272:
 1770 0450 2736     		add	r6, r6, #39
 1771 0452 273D     		sub	r5, r5, #39
 1772 0454 2660     		str	r6, [r4]
 1773 0456 6560     		str	r5, [r4, #4]
 1774 0458 FFF7FEFF 		bl	getvar_notAfter
 1775              	.LVL273:
ARM GAS  C:\Users\SDEVAS~1\AppData\Local\Temp\ccPhqTSe.s 			page 43


 1776 045c 60E0     		b	.L177
 1777              	.LVL274:
 1778              	.L164:
 1779 045e 2068     		ldr	r0, [r4]
 1780              	.LVL275:
 1781 0460 4349     		ldr	r1, .L181+12
 1782 0462 2F22     		mov	r2, #47
 1783 0464 FFF7FEFF 		bl	memcpy
 1784              	.LVL276:
 1785 0468 2668     		ldr	r6, [r4]
 1786              	.LVL277:
 1787 046a 6568     		ldr	r5, [r4, #4]
 1788              	.LVL278:
 1789 046c 2E36     		add	r6, r6, #46
 1790 046e 2E3D     		sub	r5, r5, #46
 1791 0470 2660     		str	r6, [r4]
 1792 0472 6560     		str	r5, [r4, #4]
 1793 0474 FFF7FEFF 		bl	getvar_dilutionFactorA
 1794              	.LVL279:
 1795 0478 52E0     		b	.L177
 1796              	.LVL280:
 1797              	.L165:
 1798 047a 2068     		ldr	r0, [r4]
 1799              	.LVL281:
 1800 047c 3D49     		ldr	r1, .L181+16
 1801 047e 2F22     		mov	r2, #47
 1802 0480 FFF7FEFF 		bl	memcpy
 1803              	.LVL282:
 1804 0484 2668     		ldr	r6, [r4]
 1805              	.LVL283:
 1806 0486 6568     		ldr	r5, [r4, #4]
 1807              	.LVL284:
 1808 0488 2E36     		add	r6, r6, #46
 1809 048a 2E3D     		sub	r5, r5, #46
 1810 048c 2660     		str	r6, [r4]
 1811 048e 6560     		str	r5, [r4, #4]
 1812 0490 FFF7FEFF 		bl	getvar_dilutionFactorB
 1813              	.LVL285:
 1814 0494 44E0     		b	.L177
 1815              	.LVL286:
 1816              	.L166:
 1817 0496 2068     		ldr	r0, [r4]
 1818              	.LVL287:
 1819 0498 3749     		ldr	r1, .L181+20
 1820 049a 2F22     		mov	r2, #47
 1821 049c FFF7FEFF 		bl	memcpy
 1822              	.LVL288:
 1823 04a0 2668     		ldr	r6, [r4]
 1824              	.LVL289:
 1825 04a2 6568     		ldr	r5, [r4, #4]
 1826              	.LVL290:
 1827 04a4 2E36     		add	r6, r6, #46
 1828 04a6 2E3D     		sub	r5, r5, #46
 1829 04a8 2660     		str	r6, [r4]
 1830 04aa 6560     		str	r5, [r4, #4]
 1831 04ac FFF7FEFF 		bl	getvar_venturiSuctionA
 1832              	.LVL291:
ARM GAS  C:\Users\SDEVAS~1\AppData\Local\Temp\ccPhqTSe.s 			page 44


 1833 04b0 36E0     		b	.L177
 1834              	.LVL292:
 1835              	.L167:
 1836 04b2 2068     		ldr	r0, [r4]
 1837              	.LVL293:
 1838 04b4 3149     		ldr	r1, .L181+24
 1839 04b6 2F22     		mov	r2, #47
 1840 04b8 FFF7FEFF 		bl	memcpy
 1841              	.LVL294:
 1842 04bc 2668     		ldr	r6, [r4]
 1843              	.LVL295:
 1844 04be 6568     		ldr	r5, [r4, #4]
 1845              	.LVL296:
 1846 04c0 2E36     		add	r6, r6, #46
 1847 04c2 2E3D     		sub	r5, r5, #46
 1848 04c4 2660     		str	r6, [r4]
 1849 04c6 6560     		str	r5, [r4, #4]
 1850 04c8 FFF7FEFF 		bl	getvar_venturiSuctionB
 1851              	.LVL297:
 1852 04cc 28E0     		b	.L177
 1853              	.LVL298:
 1854              	.L168:
 1855 04ce 2068     		ldr	r0, [r4]
 1856              	.LVL299:
 1857 04d0 2B49     		ldr	r1, .L181+28
 1858 04d2 2C22     		mov	r2, #44
 1859 04d4 FFF7FEFF 		bl	memcpy
 1860              	.LVL300:
 1861 04d8 2668     		ldr	r6, [r4]
 1862              	.LVL301:
 1863 04da 6568     		ldr	r5, [r4, #4]
 1864              	.LVL302:
 1865 04dc 2B36     		add	r6, r6, #43
 1866 04de 2B3D     		sub	r5, r5, #43
 1867 04e0 2660     		str	r6, [r4]
 1868 04e2 6560     		str	r5, [r4, #4]
 1869 04e4 FFF7FEFF 		bl	getvar_squareMeters
 1870              	.LVL303:
 1871 04e8 1AE0     		b	.L177
 1872              	.LVL304:
 1873              	.L169:
 1874 04ea 2068     		ldr	r0, [r4]
 1875              	.LVL305:
 1876 04ec 2549     		ldr	r1, .L181+32
 1877 04ee 3122     		mov	r2, #49
 1878 04f0 FFF7FEFF 		bl	memcpy
 1879              	.LVL306:
 1880 04f4 2668     		ldr	r6, [r4]
 1881              	.LVL307:
 1882 04f6 6568     		ldr	r5, [r4, #4]
 1883              	.LVL308:
 1884 04f8 3036     		add	r6, r6, #48
 1885 04fa 303D     		sub	r5, r5, #48
 1886 04fc 2660     		str	r6, [r4]
 1887 04fe 6560     		str	r5, [r4, #4]
 1888 0500 FFF7FEFF 		bl	getvar_lPerSqMeterPerDay
 1889              	.LVL309:
ARM GAS  C:\Users\SDEVAS~1\AppData\Local\Temp\ccPhqTSe.s 			page 45


 1890 0504 0CE0     		b	.L177
 1891              	.LVL310:
 1892              	.L170:
 1893 0506 2068     		ldr	r0, [r4]
 1894              	.LVL311:
 1895 0508 1F49     		ldr	r1, .L181+36
 1896 050a 2822     		mov	r2, #40
 1897 050c FFF7FEFF 		bl	memcpy
 1898              	.LVL312:
 1899 0510 2668     		ldr	r6, [r4]
 1900              	.LVL313:
 1901 0512 6568     		ldr	r5, [r4, #4]
 1902              	.LVL314:
 1903 0514 2736     		add	r6, r6, #39
 1904 0516 273D     		sub	r5, r5, #39
 1905 0518 2660     		str	r6, [r4]
 1906 051a 6560     		str	r5, [r4, #4]
 1907 051c FFF7FEFF 		bl	getvar_cropType
 1908              	.LVL315:
 1909              	.L177:
 1910 0520 021C     		mov	r2, r0
 1911 0522 291C     		mov	r1, r5
 1912 0524 301C     		mov	r0, r6
 1913 0526 FFF7FEFF 		bl	conv_i2str
 1914              	.LVL316:
 1915              	.L171:
 328:.\Generated_Source\PSoC4/comm.c ****   respEnd += tmp;
 1916              		.loc 1 328 0
 1917 052a 2268     		ldr	r2, [r4]
 1918 052c 1318     		add	r3, r2, r0
 329:.\Generated_Source\PSoC4/comm.c ****   respFreeSpace -= tmp;
 1919              		.loc 1 329 0
 1920 052e 6268     		ldr	r2, [r4, #4]
 1921 0530 101A     		sub	r0, r2, r0
 1922              	.LVL317:
 331:.\Generated_Source\PSoC4/comm.c ****   ADD_CHAR_TO_RESP('}');
 1923              		.loc 1 331 0
 1924 0532 5A1C     		add	r2, r3, #1
 1925 0534 2260     		str	r2, [r4]
 1926 0536 7D22     		mov	r2, #125
 329:.\Generated_Source\PSoC4/comm.c ****   respFreeSpace -= tmp;
 1927              		.loc 1 329 0
 1928 0538 6060     		str	r0, [r4, #4]
 331:.\Generated_Source\PSoC4/comm.c ****   ADD_CHAR_TO_RESP('}');
 1929              		.loc 1 331 0
 1930 053a 1A70     		strb	r2, [r3]
 1931 053c 6368     		ldr	r3, [r4, #4]
 333:.\Generated_Source\PSoC4/comm.c ****   return COMM_FLAG_REQ_ACK;
 1932              		.loc 1 333 0
 1933 053e 0320     		mov	r0, #3
 331:.\Generated_Source\PSoC4/comm.c ****   ADD_CHAR_TO_RESP('}');
 1934              		.loc 1 331 0
 1935 0540 013B     		sub	r3, r3, #1
 1936 0542 6360     		str	r3, [r4, #4]
 1937 0544 0CE0     		b	.L172
 1938              	.L129:
 335:.\Generated_Source\PSoC4/comm.c **** 	ADD_STATIC_STRING_TO_RESP(",\"payload\":null");
ARM GAS  C:\Users\SDEVAS~1\AppData\Local\Temp\ccPhqTSe.s 			page 46


 1939              		.loc 1 335 0
 1940 0546 114C     		ldr	r4, .L181+40
 1941 0548 1149     		ldr	r1, .L181+44
 1942 054a 2068     		ldr	r0, [r4]
 1943 054c 1022     		mov	r2, #16
 1944 054e FFF7FEFF 		bl	memcpy
 1945              	.LVL318:
 1946 0552 2368     		ldr	r3, [r4]
 336:.\Generated_Source\PSoC4/comm.c **** 	return COMM_FLAG_NACK;
 1947              		.loc 1 336 0
 1948 0554 0420     		mov	r0, #4
 335:.\Generated_Source\PSoC4/comm.c **** 	ADD_STATIC_STRING_TO_RESP(",\"payload\":null");
 1949              		.loc 1 335 0
 1950 0556 0F33     		add	r3, r3, #15
 1951 0558 2360     		str	r3, [r4]
 1952 055a 6368     		ldr	r3, [r4, #4]
 1953 055c 0F3B     		sub	r3, r3, #15
 1954 055e 6360     		str	r3, [r4, #4]
 1955              	.L172:
 337:.\Generated_Source\PSoC4/comm.c **** }
 1956              		.loc 1 337 0
 1957              		@ sp needed
 1958              	.LVL319:
 1959 0560 FEBD     		pop	{r1, r2, r3, r4, r5, r6, r7, pc}
 1960              	.L182:
 1961 0562 C046     		.align	2
 1962              	.L181:
 1963 0564 C7060000 		.word	.LC157
 1964 0568 F9060000 		.word	.LC159
 1965 056c 22070000 		.word	.LC161
 1966 0570 4A070000 		.word	.LC163
 1967 0574 79070000 		.word	.LC165
 1968 0578 A8070000 		.word	.LC167
 1969 057c D7070000 		.word	.LC169
 1970 0580 06080000 		.word	.LC171
 1971 0584 32080000 		.word	.LC173
 1972 0588 63080000 		.word	.LC175
 1973 058c 00000000 		.word	.LANCHOR0
 1974 0590 8B080000 		.word	.LC177
 1975              		.cfi_endproc
 1976              	.LFE61:
 1977              		.size	comm_handle_Get.part.1, .-comm_handle_Get.part.1
 1978              		.section	.text.comm_handle_Set.part.2,"ax",%progbits
 1979              		.align	1
 1980              		.code	16
 1981              		.thumb_func
 1982              		.type	comm_handle_Set.part.2, %function
 1983              	comm_handle_Set.part.2:
 1984              	.LFB62:
 339:.\Generated_Source\PSoC4/comm.c **** comm_flags_t comm_handle_Set(comm_flags_t flags, const char *payload, int payloadLen, jsmntok_t *to
 1985              		.loc 1 339 0
 1986              		.cfi_startproc
 1987              	.LVL320:
 1988 0000 F0B5     		push	{r4, r5, r6, r7, lr}
 1989              		.cfi_def_cfa_offset 20
 1990              		.cfi_offset 4, -20
 1991              		.cfi_offset 5, -16
ARM GAS  C:\Users\SDEVAS~1\AppData\Local\Temp\ccPhqTSe.s 			page 47


 1992              		.cfi_offset 6, -12
 1993              		.cfi_offset 7, -8
 1994              		.cfi_offset 14, -4
 344:.\Generated_Source\PSoC4/comm.c ****   if(tokens[0].type != JSMN_OBJECT) {
 1995              		.loc 1 344 0
 1996 0002 0B78     		ldrb	r3, [r1]
 339:.\Generated_Source\PSoC4/comm.c **** comm_flags_t comm_handle_Set(comm_flags_t flags, const char *payload, int payloadLen, jsmntok_t *to
 1997              		.loc 1 339 0
 1998 0004 89B0     		sub	sp, sp, #36
 1999              		.cfi_def_cfa_offset 56
 339:.\Generated_Source\PSoC4/comm.c **** comm_flags_t comm_handle_Set(comm_flags_t flags, const char *payload, int payloadLen, jsmntok_t *to
 2000              		.loc 1 339 0
 2001 0006 0290     		str	r0, [sp, #8]
 2002 0008 0191     		str	r1, [sp, #4]
 344:.\Generated_Source\PSoC4/comm.c ****   if(tokens[0].type != JSMN_OBJECT) {
 2003              		.loc 1 344 0
 2004 000a 012B     		cmp	r3, #1
 2005 000c 00D0     		beq	.LCB2110
 2006 000e B7E2     		b	.L184	@long jump
 2007              	.LCB2110:
 356:.\Generated_Source\PSoC4/comm.c ****   for(; i < tokens[0].size; i++) {
 2008              		.loc 1 356 0
 2009 0010 C968     		ldr	r1, [r1, #12]
 2010              	.LVL321:
 2011 0012 0022     		mov	r2, #0
 2012 0014 0791     		str	r1, [sp, #28]
 2013 0016 2521     		mov	r1, #37
 2014 0018 0092     		str	r2, [sp]
 2015 001a 171C     		mov	r7, r2
 2016 001c 151C     		mov	r5, r2
 2017 001e 161C     		mov	r6, r2
 2018 0020 141C     		mov	r4, r2
 2019 0022 0591     		str	r1, [sp, #20]
 2020 0024 0693     		str	r3, [sp, #24]
 2021              	.LVL322:
 2022              	.L185:
 2023 0026 009B     		ldr	r3, [sp]
 2024 0028 0799     		ldr	r1, [sp, #28]
 2025 002a 8B42     		cmp	r3, r1
 2026 002c 48DA     		bge	.L238
 357:.\Generated_Source\PSoC4/comm.c **** 	  if(tokens[t].type != JSMN_STRING) {//it should point to key
 2027              		.loc 1 357 0
 2028 002e 069A     		ldr	r2, [sp, #24]
 2029 0030 019B     		ldr	r3, [sp, #4]
 2030 0032 1201     		lsl	r2, r2, #4
 2031 0034 9B18     		add	r3, r3, r2
 2032 0036 0493     		str	r3, [sp, #16]
 2033 0038 1B78     		ldrb	r3, [r3]
 2034 003a 0392     		str	r2, [sp, #12]
 2035 003c 032B     		cmp	r3, #3
 2036 003e 00D0     		beq	.LCB2145
 2037 0040 9EE2     		b	.L184	@long jump
 2038              	.LCB2145:
 361:.\Generated_Source\PSoC4/comm.c ****     if(compKey(payload, &tokens[t], "n") == 0) {
 2039              		.loc 1 361 0
 2040 0042 0298     		ldr	r0, [sp, #8]
 2041 0044 0499     		ldr	r1, [sp, #16]
ARM GAS  C:\Users\SDEVAS~1\AppData\Local\Temp\ccPhqTSe.s 			page 48


 2042 0046 CE4A     		ldr	r2, .L239
 2043 0048 FFF7FEFF 		bl	compKey
 2044              	.LVL323:
 2045 004c 0028     		cmp	r0, #0
 2046 004e 0CD1     		bne	.L186
 363:.\Generated_Source\PSoC4/comm.c ****       avid = get_atom_variable_id_from_string(payload + tokens[t+1].start,tokens[t+1].end - tokens[
 2047              		.loc 1 363 0
 2048 0050 039A     		ldr	r2, [sp, #12]
 2049 0052 0199     		ldr	r1, [sp, #4]
 2050 0054 1032     		add	r2, r2, #16
 2051 0056 8A18     		add	r2, r1, r2
 2052 0058 5368     		ldr	r3, [r2, #4]
 2053 005a 0299     		ldr	r1, [sp, #8]
 2054 005c C818     		add	r0, r1, r3
 2055 005e 9168     		ldr	r1, [r2, #8]
 2056 0060 C91A     		sub	r1, r1, r3
 2057 0062 FFF7FEFF 		bl	get_atom_variable_id_from_string
 2058              	.LVL324:
 2059 0066 0590     		str	r0, [sp, #20]
 2060              	.LVL325:
 2061 0068 20E0     		b	.L187
 2062              	.LVL326:
 2063              	.L186:
 364:.\Generated_Source\PSoC4/comm.c ****     } else if(compKey(payload, &tokens[t], "t") == 0) {
 2064              		.loc 1 364 0
 2065 006a 0298     		ldr	r0, [sp, #8]
 2066 006c 0499     		ldr	r1, [sp, #16]
 2067 006e C54A     		ldr	r2, .L239+4
 2068 0070 FFF7FEFF 		bl	compKey
 2069              	.LVL327:
 2070 0074 0028     		cmp	r0, #0
 2071 0076 09D1     		bne	.L188
 365:.\Generated_Source\PSoC4/comm.c ****       type = payload + tokens[t+1].start;
 2072              		.loc 1 365 0
 2073 0078 039A     		ldr	r2, [sp, #12]
 2074 007a 019B     		ldr	r3, [sp, #4]
 2075 007c 1032     		add	r2, r2, #16
 2076 007e 9A18     		add	r2, r3, r2
 2077 0080 5368     		ldr	r3, [r2, #4]
 2078 0082 0299     		ldr	r1, [sp, #8]
 366:.\Generated_Source\PSoC4/comm.c ****       typeLen = tokens[t+1].end - tokens[t+1].start;
 2079              		.loc 1 366 0
 2080 0084 9768     		ldr	r7, [r2, #8]
 2081              	.LVL328:
 365:.\Generated_Source\PSoC4/comm.c ****       type = payload + tokens[t+1].start;
 2082              		.loc 1 365 0
 2083 0086 CD18     		add	r5, r1, r3
 2084              	.LVL329:
 366:.\Generated_Source\PSoC4/comm.c ****       typeLen = tokens[t+1].end - tokens[t+1].start;
 2085              		.loc 1 366 0
 2086 0088 FF1A     		sub	r7, r7, r3
 2087              	.LVL330:
 2088 008a 0FE0     		b	.L187
 2089              	.L188:
 367:.\Generated_Source\PSoC4/comm.c ****     } else if(compKey(payload, &tokens[t], "v") == 0) {
 2090              		.loc 1 367 0
 2091 008c 0298     		ldr	r0, [sp, #8]
ARM GAS  C:\Users\SDEVAS~1\AppData\Local\Temp\ccPhqTSe.s 			page 49


 2092 008e 0499     		ldr	r1, [sp, #16]
 2093 0090 BD4A     		ldr	r2, .L239+8
 2094 0092 FFF7FEFF 		bl	compKey
 2095              	.LVL331:
 2096 0096 0028     		cmp	r0, #0
 2097 0098 08D1     		bne	.L187
 368:.\Generated_Source\PSoC4/comm.c ****       value = payload + tokens[t+1].start;
 2098              		.loc 1 368 0
 2099 009a 039A     		ldr	r2, [sp, #12]
 2100 009c 019B     		ldr	r3, [sp, #4]
 2101 009e 1032     		add	r2, r2, #16
 2102 00a0 9A18     		add	r2, r3, r2
 2103 00a2 5368     		ldr	r3, [r2, #4]
 2104 00a4 0299     		ldr	r1, [sp, #8]
 369:.\Generated_Source\PSoC4/comm.c ****       valueLen = tokens[t+1].end - tokens[t+1].start;
 2105              		.loc 1 369 0
 2106 00a6 9668     		ldr	r6, [r2, #8]
 2107              	.LVL332:
 368:.\Generated_Source\PSoC4/comm.c ****       value = payload + tokens[t+1].start;
 2108              		.loc 1 368 0
 2109 00a8 CC18     		add	r4, r1, r3
 2110              	.LVL333:
 369:.\Generated_Source\PSoC4/comm.c ****       valueLen = tokens[t+1].end - tokens[t+1].start;
 2111              		.loc 1 369 0
 2112 00aa F61A     		sub	r6, r6, r3
 2113              	.LVL334:
 2114              	.L187:
 371:.\Generated_Source\PSoC4/comm.c ****     t = skipToNextTokenInLevel(tokens, ++t);
 2115              		.loc 1 371 0
 2116 00ac 0699     		ldr	r1, [sp, #24]
 2117 00ae 0198     		ldr	r0, [sp, #4]
 2118 00b0 0131     		add	r1, r1, #1
 2119              	.LVL335:
 2120 00b2 FFF7FEFF 		bl	skipToNextTokenInLevel
 2121              	.LVL336:
 356:.\Generated_Source\PSoC4/comm.c ****   for(; i < tokens[0].size; i++) {
 2122              		.loc 1 356 0
 2123 00b6 009A     		ldr	r2, [sp]
 371:.\Generated_Source\PSoC4/comm.c ****     t = skipToNextTokenInLevel(tokens, ++t);
 2124              		.loc 1 371 0
 2125 00b8 0690     		str	r0, [sp, #24]
 2126              	.LVL337:
 356:.\Generated_Source\PSoC4/comm.c ****   for(; i < tokens[0].size; i++) {
 2127              		.loc 1 356 0
 2128 00ba 0132     		add	r2, r2, #1
 2129 00bc 0092     		str	r2, [sp]
 2130              	.LVL338:
 2131 00be B2E7     		b	.L185
 2132              	.LVL339:
 2133              	.L238:
 374:.\Generated_Source\PSoC4/comm.c ****   if(value == NULL || type == NULL || avid == INVALID_ATOM_VARIABLE) {
 2134              		.loc 1 374 0
 2135 00c0 002C     		cmp	r4, #0
 2136 00c2 00D1     		bne	.LCB2257
 2137 00c4 5CE2     		b	.L184	@long jump
 2138              	.LCB2257:
 2139 00c6 002D     		cmp	r5, #0
ARM GAS  C:\Users\SDEVAS~1\AppData\Local\Temp\ccPhqTSe.s 			page 50


 2140 00c8 00D1     		bne	.LCB2259
 2141 00ca 59E2     		b	.L184	@long jump
 2142              	.LCB2259:
 2143 00cc 059A     		ldr	r2, [sp, #20]
 2144 00ce 252A     		cmp	r2, #37
 2145 00d0 00D1     		bne	.LCB2262
 2146 00d2 55E2     		b	.L184	@long jump
 2147              	.LCB2262:
 379:.\Generated_Source\PSoC4/comm.c ****   switch(avid) {
 2148              		.loc 1 379 0
 2149 00d4 232A     		cmp	r2, #35
 2150 00d6 00D9     		bls	.LCB2264
 2151 00d8 52E2     		b	.L184	@long jump
 2152              	.LCB2264:
 2153 00da 101C     		mov	r0, r2
 2154 00dc FFF7FEFF 		bl	__gnu_thumb1_case_uhi
 2155              	.L191:
 2156 00e0 2400     		.2byte	(.L190-.L191)/2
 2157 00e2 3300     		.2byte	(.L192-.L191)/2
 2158 00e4 4200     		.2byte	(.L193-.L191)/2
 2159 00e6 5100     		.2byte	(.L194-.L191)/2
 2160 00e8 6000     		.2byte	(.L195-.L191)/2
 2161 00ea 6F00     		.2byte	(.L196-.L191)/2
 2162 00ec 7E00     		.2byte	(.L197-.L191)/2
 2163 00ee 8D00     		.2byte	(.L198-.L191)/2
 2164 00f0 9C00     		.2byte	(.L199-.L191)/2
 2165 00f2 AB00     		.2byte	(.L200-.L191)/2
 2166 00f4 BA00     		.2byte	(.L201-.L191)/2
 2167 00f6 C900     		.2byte	(.L202-.L191)/2
 2168 00f8 D800     		.2byte	(.L203-.L191)/2
 2169 00fa E700     		.2byte	(.L204-.L191)/2
 2170 00fc F600     		.2byte	(.L205-.L191)/2
 2171 00fe 0501     		.2byte	(.L206-.L191)/2
 2172 0100 1401     		.2byte	(.L207-.L191)/2
 2173 0102 2301     		.2byte	(.L208-.L191)/2
 2174 0104 3201     		.2byte	(.L209-.L191)/2
 2175 0106 4101     		.2byte	(.L210-.L191)/2
 2176 0108 5C01     		.2byte	(.L211-.L191)/2
 2177 010a 6B01     		.2byte	(.L212-.L191)/2
 2178 010c 7A01     		.2byte	(.L213-.L191)/2
 2179 010e 8901     		.2byte	(.L214-.L191)/2
 2180 0110 9801     		.2byte	(.L215-.L191)/2
 2181 0112 A701     		.2byte	(.L216-.L191)/2
 2182 0114 B601     		.2byte	(.L217-.L191)/2
 2183 0116 C501     		.2byte	(.L218-.L191)/2
 2184 0118 D301     		.2byte	(.L219-.L191)/2
 2185 011a E101     		.2byte	(.L220-.L191)/2
 2186 011c EF01     		.2byte	(.L221-.L191)/2
 2187 011e FD01     		.2byte	(.L222-.L191)/2
 2188 0120 0B02     		.2byte	(.L223-.L191)/2
 2189 0122 1902     		.2byte	(.L224-.L191)/2
 2190 0124 2702     		.2byte	(.L225-.L191)/2
 2191 0126 3502     		.2byte	(.L226-.L191)/2
 2192              		.p2align 1
 2193              	.L190:
 385:.\Generated_Source\PSoC4/comm.c ****     ATOM_VARIABLES
 2194              		.loc 1 385 0
ARM GAS  C:\Users\SDEVAS~1\AppData\Local\Temp\ccPhqTSe.s 			page 51


 2195 0128 281C     		mov	r0, r5
 2196 012a 9849     		ldr	r1, .L239+12
 2197 012c 3A1C     		mov	r2, r7
 2198 012e FFF7FEFF 		bl	strncmp
 2199              	.LVL340:
 2200 0132 0028     		cmp	r0, #0
 2201 0134 00D0     		beq	.LCB2279
 2202 0136 15E2     		b	.L227	@long jump
 2203              	.LCB2279:
 2204 0138 311C     		mov	r1, r6
 2205 013a 201C     		mov	r0, r4
 2206 013c FFF7FEFF 		bl	conv_str2i
 2207              	.LVL341:
 2208 0140 FFF7FEFF 		bl	setvar_sleepPeriod
 2209              	.LVL342:
 2210 0144 0EE2     		b	.L227
 2211              	.LVL343:
 2212              	.L192:
 2213 0146 281C     		mov	r0, r5
 2214 0148 9049     		ldr	r1, .L239+12
 2215 014a 3A1C     		mov	r2, r7
 2216 014c FFF7FEFF 		bl	strncmp
 2217              	.LVL344:
 2218 0150 0028     		cmp	r0, #0
 2219 0152 00D0     		beq	.LCB2302
 2220 0154 06E2     		b	.L227	@long jump
 2221              	.LCB2302:
 2222 0156 311C     		mov	r1, r6
 2223 0158 201C     		mov	r0, r4
 2224 015a FFF7FEFF 		bl	conv_str2i
 2225              	.LVL345:
 2226 015e FFF7FEFF 		bl	setvar_shutdownTime
 2227              	.LVL346:
 2228 0162 FFE1     		b	.L227
 2229              	.LVL347:
 2230              	.L193:
 2231 0164 281C     		mov	r0, r5
 2232 0166 8A49     		ldr	r1, .L239+16
 2233 0168 3A1C     		mov	r2, r7
 2234 016a FFF7FEFF 		bl	strncmp
 2235              	.LVL348:
 2236 016e 0028     		cmp	r0, #0
 2237 0170 00D0     		beq	.LCB2325
 2238 0172 F7E1     		b	.L227	@long jump
 2239              	.LCB2325:
 2240 0174 311C     		mov	r1, r6
 2241 0176 201C     		mov	r0, r4
 2242 0178 FFF7FEFF 		bl	conv_str2s
 2243              	.LVL349:
 2244 017c FFF7FEFF 		bl	setvar_test
 2245              	.LVL350:
 2246 0180 F0E1     		b	.L227
 2247              	.LVL351:
 2248              	.L194:
 2249 0182 281C     		mov	r0, r5
 2250 0184 8149     		ldr	r1, .L239+12
 2251 0186 3A1C     		mov	r2, r7
ARM GAS  C:\Users\SDEVAS~1\AppData\Local\Temp\ccPhqTSe.s 			page 52


 2252 0188 FFF7FEFF 		bl	strncmp
 2253              	.LVL352:
 2254 018c 0028     		cmp	r0, #0
 2255 018e 00D0     		beq	.LCB2348
 2256 0190 E8E1     		b	.L227	@long jump
 2257              	.LCB2348:
 2258 0192 311C     		mov	r1, r6
 2259 0194 201C     		mov	r0, r4
 2260 0196 FFF7FEFF 		bl	conv_str2i
 2261              	.LVL353:
 2262 019a FFF7FEFF 		bl	setvar_innerPressure
 2263              	.LVL354:
 2264 019e E1E1     		b	.L227
 2265              	.LVL355:
 2266              	.L195:
 2267 01a0 281C     		mov	r0, r5
 2268 01a2 7A49     		ldr	r1, .L239+12
 2269 01a4 3A1C     		mov	r2, r7
 2270 01a6 FFF7FEFF 		bl	strncmp
 2271              	.LVL356:
 2272 01aa 0028     		cmp	r0, #0
 2273 01ac 00D0     		beq	.LCB2371
 2274 01ae D9E1     		b	.L227	@long jump
 2275              	.LCB2371:
 2276 01b0 311C     		mov	r1, r6
 2277 01b2 201C     		mov	r0, r4
 2278 01b4 FFF7FEFF 		bl	conv_str2i
 2279              	.LVL357:
 2280 01b8 FFF7FEFF 		bl	setvar_outerPressure
 2281              	.LVL358:
 2282 01bc D2E1     		b	.L227
 2283              	.LVL359:
 2284              	.L196:
 2285 01be 281C     		mov	r0, r5
 2286 01c0 7249     		ldr	r1, .L239+12
 2287 01c2 3A1C     		mov	r2, r7
 2288 01c4 FFF7FEFF 		bl	strncmp
 2289              	.LVL360:
 2290 01c8 0028     		cmp	r0, #0
 2291 01ca 00D0     		beq	.LCB2394
 2292 01cc CAE1     		b	.L227	@long jump
 2293              	.LCB2394:
 2294 01ce 311C     		mov	r1, r6
 2295 01d0 201C     		mov	r0, r4
 2296 01d2 FFF7FEFF 		bl	conv_str2i
 2297              	.LVL361:
 2298 01d6 FFF7FEFF 		bl	setvar_currentFlow
 2299              	.LVL362:
 2300 01da C3E1     		b	.L227
 2301              	.LVL363:
 2302              	.L197:
 2303 01dc 281C     		mov	r0, r5
 2304 01de 6B49     		ldr	r1, .L239+12
 2305 01e0 3A1C     		mov	r2, r7
 2306 01e2 FFF7FEFF 		bl	strncmp
 2307              	.LVL364:
 2308 01e6 0028     		cmp	r0, #0
ARM GAS  C:\Users\SDEVAS~1\AppData\Local\Temp\ccPhqTSe.s 			page 53


 2309 01e8 00D0     		beq	.LCB2417
 2310 01ea BBE1     		b	.L227	@long jump
 2311              	.LCB2417:
 2312 01ec 311C     		mov	r1, r6
 2313 01ee 201C     		mov	r0, r4
 2314 01f0 FFF7FEFF 		bl	conv_str2i
 2315              	.LVL365:
 2316 01f4 FFF7FEFF 		bl	setvar_totalVolume
 2317              	.LVL366:
 2318 01f8 B4E1     		b	.L227
 2319              	.LVL367:
 2320              	.L198:
 2321 01fa 281C     		mov	r0, r5
 2322 01fc 6349     		ldr	r1, .L239+12
 2323 01fe 3A1C     		mov	r2, r7
 2324 0200 FFF7FEFF 		bl	strncmp
 2325              	.LVL368:
 2326 0204 0028     		cmp	r0, #0
 2327 0206 00D0     		beq	.LCB2440
 2328 0208 ACE1     		b	.L227	@long jump
 2329              	.LCB2440:
 2330 020a 311C     		mov	r1, r6
 2331 020c 201C     		mov	r0, r4
 2332 020e FFF7FEFF 		bl	conv_str2i
 2333              	.LVL369:
 2334 0212 FFF7FEFF 		bl	setvar_valveStatus
 2335              	.LVL370:
 2336 0216 A5E1     		b	.L227
 2337              	.LVL371:
 2338              	.L199:
 2339 0218 281C     		mov	r0, r5
 2340 021a 5C49     		ldr	r1, .L239+12
 2341 021c 3A1C     		mov	r2, r7
 2342 021e FFF7FEFF 		bl	strncmp
 2343              	.LVL372:
 2344 0222 0028     		cmp	r0, #0
 2345 0224 00D0     		beq	.LCB2463
 2346 0226 9DE1     		b	.L227	@long jump
 2347              	.LCB2463:
 2348 0228 311C     		mov	r1, r6
 2349 022a 201C     		mov	r0, r4
 2350 022c FFF7FEFF 		bl	conv_str2i
 2351              	.LVL373:
 2352 0230 FFF7FEFF 		bl	setvar_lastStartNumber
 2353              	.LVL374:
 2354 0234 96E1     		b	.L227
 2355              	.LVL375:
 2356              	.L200:
 2357 0236 281C     		mov	r0, r5
 2358 0238 5449     		ldr	r1, .L239+12
 2359 023a 3A1C     		mov	r2, r7
 2360 023c FFF7FEFF 		bl	strncmp
 2361              	.LVL376:
 2362 0240 0028     		cmp	r0, #0
 2363 0242 00D0     		beq	.LCB2486
 2364 0244 8EE1     		b	.L227	@long jump
 2365              	.LCB2486:
ARM GAS  C:\Users\SDEVAS~1\AppData\Local\Temp\ccPhqTSe.s 			page 54


 2366 0246 311C     		mov	r1, r6
 2367 0248 201C     		mov	r0, r4
 2368 024a FFF7FEFF 		bl	conv_str2i
 2369              	.LVL377:
 2370 024e FFF7FEFF 		bl	setvar_lastStartVolume
 2371              	.LVL378:
 2372 0252 87E1     		b	.L227
 2373              	.LVL379:
 2374              	.L201:
 2375 0254 281C     		mov	r0, r5
 2376 0256 4D49     		ldr	r1, .L239+12
 2377 0258 3A1C     		mov	r2, r7
 2378 025a FFF7FEFF 		bl	strncmp
 2379              	.LVL380:
 2380 025e 0028     		cmp	r0, #0
 2381 0260 00D0     		beq	.LCB2509
 2382 0262 7FE1     		b	.L227	@long jump
 2383              	.LCB2509:
 2384 0264 311C     		mov	r1, r6
 2385 0266 201C     		mov	r0, r4
 2386 0268 FFF7FEFF 		bl	conv_str2i
 2387              	.LVL381:
 2388 026c FFF7FEFF 		bl	setvar_lastStartFlow
 2389              	.LVL382:
 2390 0270 78E1     		b	.L227
 2391              	.LVL383:
 2392              	.L202:
 2393 0272 281C     		mov	r0, r5
 2394 0274 4549     		ldr	r1, .L239+12
 2395 0276 3A1C     		mov	r2, r7
 2396 0278 FFF7FEFF 		bl	strncmp
 2397              	.LVL384:
 2398 027c 0028     		cmp	r0, #0
 2399 027e 00D0     		beq	.LCB2532
 2400 0280 70E1     		b	.L227	@long jump
 2401              	.LCB2532:
 2402 0282 311C     		mov	r1, r6
 2403 0284 201C     		mov	r0, r4
 2404 0286 FFF7FEFF 		bl	conv_str2i
 2405              	.LVL385:
 2406 028a FFF7FEFF 		bl	setvar_startTime
 2407              	.LVL386:
 2408 028e 69E1     		b	.L227
 2409              	.LVL387:
 2410              	.L203:
 2411 0290 281C     		mov	r0, r5
 2412 0292 3E49     		ldr	r1, .L239+12
 2413 0294 3A1C     		mov	r2, r7
 2414 0296 FFF7FEFF 		bl	strncmp
 2415              	.LVL388:
 2416 029a 0028     		cmp	r0, #0
 2417 029c 00D0     		beq	.LCB2555
 2418 029e 61E1     		b	.L227	@long jump
 2419              	.LCB2555:
 2420 02a0 311C     		mov	r1, r6
 2421 02a2 201C     		mov	r0, r4
 2422 02a4 FFF7FEFF 		bl	conv_str2i
ARM GAS  C:\Users\SDEVAS~1\AppData\Local\Temp\ccPhqTSe.s 			page 55


 2423              	.LVL389:
 2424 02a8 FFF7FEFF 		bl	setvar_stopTime
 2425              	.LVL390:
 2426 02ac 5AE1     		b	.L227
 2427              	.LVL391:
 2428              	.L204:
 2429 02ae 281C     		mov	r0, r5
 2430 02b0 3649     		ldr	r1, .L239+12
 2431 02b2 3A1C     		mov	r2, r7
 2432 02b4 FFF7FEFF 		bl	strncmp
 2433              	.LVL392:
 2434 02b8 0028     		cmp	r0, #0
 2435 02ba 00D0     		beq	.LCB2578
 2436 02bc 52E1     		b	.L227	@long jump
 2437              	.LCB2578:
 2438 02be 311C     		mov	r1, r6
 2439 02c0 201C     		mov	r0, r4
 2440 02c2 FFF7FEFF 		bl	conv_str2i
 2441              	.LVL393:
 2442 02c6 FFF7FEFF 		bl	setvar_numStarts
 2443              	.LVL394:
 2444 02ca 4BE1     		b	.L227
 2445              	.LVL395:
 2446              	.L205:
 2447 02cc 281C     		mov	r0, r5
 2448 02ce 2F49     		ldr	r1, .L239+12
 2449 02d0 3A1C     		mov	r2, r7
 2450 02d2 FFF7FEFF 		bl	strncmp
 2451              	.LVL396:
 2452 02d6 0028     		cmp	r0, #0
 2453 02d8 00D0     		beq	.LCB2601
 2454 02da 43E1     		b	.L227	@long jump
 2455              	.LCB2601:
 2456 02dc 311C     		mov	r1, r6
 2457 02de 201C     		mov	r0, r4
 2458 02e0 FFF7FEFF 		bl	conv_str2i
 2459              	.LVL397:
 2460 02e4 FFF7FEFF 		bl	setvar_volPerStart
 2461              	.LVL398:
 2462 02e8 3CE1     		b	.L227
 2463              	.LVL399:
 2464              	.L206:
 2465 02ea 281C     		mov	r0, r5
 2466 02ec 2749     		ldr	r1, .L239+12
 2467 02ee 3A1C     		mov	r2, r7
 2468 02f0 FFF7FEFF 		bl	strncmp
 2469              	.LVL400:
 2470 02f4 0028     		cmp	r0, #0
 2471 02f6 00D0     		beq	.LCB2624
 2472 02f8 34E1     		b	.L227	@long jump
 2473              	.LCB2624:
 2474 02fa 311C     		mov	r1, r6
 2475 02fc 201C     		mov	r0, r4
 2476 02fe FFF7FEFF 		bl	conv_str2i
 2477              	.LVL401:
 2478 0302 FFF7FEFF 		bl	setvar_maxVol
 2479              	.LVL402:
ARM GAS  C:\Users\SDEVAS~1\AppData\Local\Temp\ccPhqTSe.s 			page 56


 2480 0306 2DE1     		b	.L227
 2481              	.LVL403:
 2482              	.L207:
 2483 0308 281C     		mov	r0, r5
 2484 030a 2049     		ldr	r1, .L239+12
 2485 030c 3A1C     		mov	r2, r7
 2486 030e FFF7FEFF 		bl	strncmp
 2487              	.LVL404:
 2488 0312 0028     		cmp	r0, #0
 2489 0314 00D0     		beq	.LCB2647
 2490 0316 25E1     		b	.L227	@long jump
 2491              	.LCB2647:
 2492 0318 311C     		mov	r1, r6
 2493 031a 201C     		mov	r0, r4
 2494 031c FFF7FEFF 		bl	conv_str2i
 2495              	.LVL405:
 2496 0320 FFF7FEFF 		bl	setvar_minVol
 2497              	.LVL406:
 2498 0324 1EE1     		b	.L227
 2499              	.LVL407:
 2500              	.L208:
 2501 0326 281C     		mov	r0, r5
 2502 0328 1A49     		ldr	r1, .L239+20
 2503 032a 3A1C     		mov	r2, r7
 2504 032c FFF7FEFF 		bl	strncmp
 2505              	.LVL408:
 2506 0330 0028     		cmp	r0, #0
 2507 0332 00D0     		beq	.LCB2670
 2508 0334 16E1     		b	.L227	@long jump
 2509              	.LCB2670:
 2510 0336 311C     		mov	r1, r6
 2511 0338 201C     		mov	r0, r4
 2512 033a FFF7FEFF 		bl	conv_str2ia
 2513              	.LVL409:
 2514 033e FFF7FEFF 		bl	setvar_fertigationTable0
 2515              	.LVL410:
 2516 0342 0FE1     		b	.L227
 2517              	.LVL411:
 2518              	.L209:
 2519 0344 281C     		mov	r0, r5
 2520 0346 1349     		ldr	r1, .L239+20
 2521 0348 3A1C     		mov	r2, r7
 2522 034a FFF7FEFF 		bl	strncmp
 2523              	.LVL412:
 2524 034e 0028     		cmp	r0, #0
 2525 0350 00D0     		beq	.LCB2693
 2526 0352 07E1     		b	.L227	@long jump
 2527              	.LCB2693:
 2528 0354 311C     		mov	r1, r6
 2529 0356 201C     		mov	r0, r4
 2530 0358 FFF7FEFF 		bl	conv_str2ia
 2531              	.LVL413:
 2532 035c FFF7FEFF 		bl	setvar_fertigationTable1
 2533              	.LVL414:
 2534 0360 00E1     		b	.L227
 2535              	.LVL415:
 2536              	.L210:
ARM GAS  C:\Users\SDEVAS~1\AppData\Local\Temp\ccPhqTSe.s 			page 57


 2537 0362 281C     		mov	r0, r5
 2538 0364 0B49     		ldr	r1, .L239+20
 2539 0366 3A1C     		mov	r2, r7
 2540 0368 FFF7FEFF 		bl	strncmp
 2541              	.LVL416:
 2542 036c 0028     		cmp	r0, #0
 2543 036e 00D0     		beq	.LCB2716
 2544 0370 F8E0     		b	.L227	@long jump
 2545              	.LCB2716:
 2546 0372 311C     		mov	r1, r6
 2547 0374 201C     		mov	r0, r4
 2548 0376 FFF7FEFF 		bl	conv_str2ia
 2549              	.LVL417:
 2550 037a FFF7FEFF 		bl	setvar_fertigationTable2
 2551              	.LVL418:
 2552 037e F1E0     		b	.L227
 2553              	.L240:
 2554              		.align	2
 2555              	.L239:
 2556 0380 31020000 		.word	.LC102
 2557 0384 9B080000 		.word	.LC181
 2558 0388 9D080000 		.word	.LC183
 2559 038c 9F080000 		.word	.LC185
 2560 0390 A1080000 		.word	.LC187
 2561 0394 A3080000 		.word	.LC189
 2562              	.LVL419:
 2563              	.L211:
 2564 0398 281C     		mov	r0, r5
 2565 039a 8149     		ldr	r1, .L241
 2566 039c 3A1C     		mov	r2, r7
 2567 039e FFF7FEFF 		bl	strncmp
 2568              	.LVL420:
 2569 03a2 0028     		cmp	r0, #0
 2570 03a4 00D0     		beq	.LCB2750
 2571 03a6 DDE0     		b	.L227	@long jump
 2572              	.LCB2750:
 2573 03a8 311C     		mov	r1, r6
 2574 03aa 201C     		mov	r0, r4
 2575 03ac FFF7FEFF 		bl	conv_str2ia
 2576              	.LVL421:
 2577 03b0 FFF7FEFF 		bl	setvar_fertigationTable3
 2578              	.LVL422:
 2579 03b4 D6E0     		b	.L227
 2580              	.LVL423:
 2581              	.L212:
 2582 03b6 281C     		mov	r0, r5
 2583 03b8 7949     		ldr	r1, .L241
 2584 03ba 3A1C     		mov	r2, r7
 2585 03bc FFF7FEFF 		bl	strncmp
 2586              	.LVL424:
 2587 03c0 0028     		cmp	r0, #0
 2588 03c2 00D0     		beq	.LCB2773
 2589 03c4 CEE0     		b	.L227	@long jump
 2590              	.LCB2773:
 2591 03c6 311C     		mov	r1, r6
 2592 03c8 201C     		mov	r0, r4
 2593 03ca FFF7FEFF 		bl	conv_str2ia
ARM GAS  C:\Users\SDEVAS~1\AppData\Local\Temp\ccPhqTSe.s 			page 58


 2594              	.LVL425:
 2595 03ce FFF7FEFF 		bl	setvar_fertigationTable4
 2596              	.LVL426:
 2597 03d2 C7E0     		b	.L227
 2598              	.LVL427:
 2599              	.L213:
 2600 03d4 281C     		mov	r0, r5
 2601 03d6 7249     		ldr	r1, .L241
 2602 03d8 3A1C     		mov	r2, r7
 2603 03da FFF7FEFF 		bl	strncmp
 2604              	.LVL428:
 2605 03de 0028     		cmp	r0, #0
 2606 03e0 00D0     		beq	.LCB2796
 2607 03e2 BFE0     		b	.L227	@long jump
 2608              	.LCB2796:
 2609 03e4 311C     		mov	r1, r6
 2610 03e6 201C     		mov	r0, r4
 2611 03e8 FFF7FEFF 		bl	conv_str2ia
 2612              	.LVL429:
 2613 03ec FFF7FEFF 		bl	setvar_fertigationTable5
 2614              	.LVL430:
 2615 03f0 B8E0     		b	.L227
 2616              	.LVL431:
 2617              	.L214:
 2618 03f2 281C     		mov	r0, r5
 2619 03f4 6A49     		ldr	r1, .L241
 2620 03f6 3A1C     		mov	r2, r7
 2621 03f8 FFF7FEFF 		bl	strncmp
 2622              	.LVL432:
 2623 03fc 0028     		cmp	r0, #0
 2624 03fe 00D0     		beq	.LCB2819
 2625 0400 B0E0     		b	.L227	@long jump
 2626              	.LCB2819:
 2627 0402 311C     		mov	r1, r6
 2628 0404 201C     		mov	r0, r4
 2629 0406 FFF7FEFF 		bl	conv_str2ia
 2630              	.LVL433:
 2631 040a FFF7FEFF 		bl	setvar_fertigationTable6
 2632              	.LVL434:
 2633 040e A9E0     		b	.L227
 2634              	.LVL435:
 2635              	.L215:
 2636 0410 281C     		mov	r0, r5
 2637 0412 6349     		ldr	r1, .L241
 2638 0414 3A1C     		mov	r2, r7
 2639 0416 FFF7FEFF 		bl	strncmp
 2640              	.LVL436:
 2641 041a 0028     		cmp	r0, #0
 2642 041c 00D0     		beq	.LCB2842
 2643 041e A1E0     		b	.L227	@long jump
 2644              	.LCB2842:
 2645 0420 311C     		mov	r1, r6
 2646 0422 201C     		mov	r0, r4
 2647 0424 FFF7FEFF 		bl	conv_str2ia
 2648              	.LVL437:
 2649 0428 FFF7FEFF 		bl	setvar_fertigationTable7
 2650              	.LVL438:
ARM GAS  C:\Users\SDEVAS~1\AppData\Local\Temp\ccPhqTSe.s 			page 59


 2651 042c 9AE0     		b	.L227
 2652              	.LVL439:
 2653              	.L216:
 2654 042e 281C     		mov	r0, r5
 2655 0430 5B49     		ldr	r1, .L241
 2656 0432 3A1C     		mov	r2, r7
 2657 0434 FFF7FEFF 		bl	strncmp
 2658              	.LVL440:
 2659 0438 0028     		cmp	r0, #0
 2660 043a 00D0     		beq	.LCB2865
 2661 043c 92E0     		b	.L227	@long jump
 2662              	.LCB2865:
 2663 043e 311C     		mov	r1, r6
 2664 0440 201C     		mov	r0, r4
 2665 0442 FFF7FEFF 		bl	conv_str2ia
 2666              	.LVL441:
 2667 0446 FFF7FEFF 		bl	setvar_fertigationTable8
 2668              	.LVL442:
 2669 044a 8BE0     		b	.L227
 2670              	.LVL443:
 2671              	.L217:
 2672 044c 281C     		mov	r0, r5
 2673 044e 5449     		ldr	r1, .L241
 2674 0450 3A1C     		mov	r2, r7
 2675 0452 FFF7FEFF 		bl	strncmp
 2676              	.LVL444:
 2677 0456 0028     		cmp	r0, #0
 2678 0458 00D0     		beq	.LCB2888
 2679 045a 83E0     		b	.L227	@long jump
 2680              	.LCB2888:
 2681 045c 311C     		mov	r1, r6
 2682 045e 201C     		mov	r0, r4
 2683 0460 FFF7FEFF 		bl	conv_str2ia
 2684              	.LVL445:
 2685 0464 FFF7FEFF 		bl	setvar_fertigationTable9
 2686              	.LVL446:
 2687 0468 7CE0     		b	.L227
 2688              	.LVL447:
 2689              	.L218:
 2690 046a 281C     		mov	r0, r5
 2691 046c 4D49     		ldr	r1, .L241+4
 2692 046e 3A1C     		mov	r2, r7
 2693 0470 FFF7FEFF 		bl	strncmp
 2694              	.LVL448:
 2695 0474 0028     		cmp	r0, #0
 2696 0476 75D1     		bne	.L227
 2697 0478 311C     		mov	r1, r6
 2698 047a 201C     		mov	r0, r4
 2699 047c FFF7FEFF 		bl	conv_str2i
 2700              	.LVL449:
 2701 0480 FFF7FEFF 		bl	setvar_notBefore
 2702              	.LVL450:
 2703 0484 6EE0     		b	.L227
 2704              	.LVL451:
 2705              	.L219:
 2706 0486 281C     		mov	r0, r5
 2707 0488 4649     		ldr	r1, .L241+4
ARM GAS  C:\Users\SDEVAS~1\AppData\Local\Temp\ccPhqTSe.s 			page 60


 2708 048a 3A1C     		mov	r2, r7
 2709 048c FFF7FEFF 		bl	strncmp
 2710              	.LVL452:
 2711 0490 0028     		cmp	r0, #0
 2712 0492 67D1     		bne	.L227
 2713 0494 311C     		mov	r1, r6
 2714 0496 201C     		mov	r0, r4
 2715 0498 FFF7FEFF 		bl	conv_str2i
 2716              	.LVL453:
 2717 049c FFF7FEFF 		bl	setvar_notAfter
 2718              	.LVL454:
 2719 04a0 60E0     		b	.L227
 2720              	.LVL455:
 2721              	.L220:
 2722 04a2 281C     		mov	r0, r5
 2723 04a4 3F49     		ldr	r1, .L241+4
 2724 04a6 3A1C     		mov	r2, r7
 2725 04a8 FFF7FEFF 		bl	strncmp
 2726              	.LVL456:
 2727 04ac 0028     		cmp	r0, #0
 2728 04ae 59D1     		bne	.L227
 2729 04b0 311C     		mov	r1, r6
 2730 04b2 201C     		mov	r0, r4
 2731 04b4 FFF7FEFF 		bl	conv_str2i
 2732              	.LVL457:
 2733 04b8 FFF7FEFF 		bl	setvar_dilutionFactorA
 2734              	.LVL458:
 2735 04bc 52E0     		b	.L227
 2736              	.LVL459:
 2737              	.L221:
 2738 04be 281C     		mov	r0, r5
 2739 04c0 3849     		ldr	r1, .L241+4
 2740 04c2 3A1C     		mov	r2, r7
 2741 04c4 FFF7FEFF 		bl	strncmp
 2742              	.LVL460:
 2743 04c8 0028     		cmp	r0, #0
 2744 04ca 4BD1     		bne	.L227
 2745 04cc 311C     		mov	r1, r6
 2746 04ce 201C     		mov	r0, r4
 2747 04d0 FFF7FEFF 		bl	conv_str2i
 2748              	.LVL461:
 2749 04d4 FFF7FEFF 		bl	setvar_dilutionFactorB
 2750              	.LVL462:
 2751 04d8 44E0     		b	.L227
 2752              	.LVL463:
 2753              	.L222:
 2754 04da 281C     		mov	r0, r5
 2755 04dc 3149     		ldr	r1, .L241+4
 2756 04de 3A1C     		mov	r2, r7
 2757 04e0 FFF7FEFF 		bl	strncmp
 2758              	.LVL464:
 2759 04e4 0028     		cmp	r0, #0
 2760 04e6 3DD1     		bne	.L227
 2761 04e8 311C     		mov	r1, r6
 2762 04ea 201C     		mov	r0, r4
 2763 04ec FFF7FEFF 		bl	conv_str2i
 2764              	.LVL465:
ARM GAS  C:\Users\SDEVAS~1\AppData\Local\Temp\ccPhqTSe.s 			page 61


 2765 04f0 FFF7FEFF 		bl	setvar_venturiSuctionA
 2766              	.LVL466:
 2767 04f4 36E0     		b	.L227
 2768              	.LVL467:
 2769              	.L223:
 2770 04f6 281C     		mov	r0, r5
 2771 04f8 2A49     		ldr	r1, .L241+4
 2772 04fa 3A1C     		mov	r2, r7
 2773 04fc FFF7FEFF 		bl	strncmp
 2774              	.LVL468:
 2775 0500 0028     		cmp	r0, #0
 2776 0502 2FD1     		bne	.L227
 2777 0504 311C     		mov	r1, r6
 2778 0506 201C     		mov	r0, r4
 2779 0508 FFF7FEFF 		bl	conv_str2i
 2780              	.LVL469:
 2781 050c FFF7FEFF 		bl	setvar_venturiSuctionB
 2782              	.LVL470:
 2783 0510 28E0     		b	.L227
 2784              	.LVL471:
 2785              	.L224:
 2786 0512 281C     		mov	r0, r5
 2787 0514 2349     		ldr	r1, .L241+4
 2788 0516 3A1C     		mov	r2, r7
 2789 0518 FFF7FEFF 		bl	strncmp
 2790              	.LVL472:
 2791 051c 0028     		cmp	r0, #0
 2792 051e 21D1     		bne	.L227
 2793 0520 311C     		mov	r1, r6
 2794 0522 201C     		mov	r0, r4
 2795 0524 FFF7FEFF 		bl	conv_str2i
 2796              	.LVL473:
 2797 0528 FFF7FEFF 		bl	setvar_squareMeters
 2798              	.LVL474:
 2799 052c 1AE0     		b	.L227
 2800              	.LVL475:
 2801              	.L225:
 2802 052e 281C     		mov	r0, r5
 2803 0530 1C49     		ldr	r1, .L241+4
 2804 0532 3A1C     		mov	r2, r7
 2805 0534 FFF7FEFF 		bl	strncmp
 2806              	.LVL476:
 2807 0538 0028     		cmp	r0, #0
 2808 053a 13D1     		bne	.L227
 2809 053c 311C     		mov	r1, r6
 2810 053e 201C     		mov	r0, r4
 2811 0540 FFF7FEFF 		bl	conv_str2i
 2812              	.LVL477:
 2813 0544 FFF7FEFF 		bl	setvar_lPerSqMeterPerDay
 2814              	.LVL478:
 2815 0548 0CE0     		b	.L227
 2816              	.LVL479:
 2817              	.L226:
 2818 054a 281C     		mov	r0, r5
 2819 054c 1549     		ldr	r1, .L241+4
 2820 054e 3A1C     		mov	r2, r7
 2821 0550 FFF7FEFF 		bl	strncmp
ARM GAS  C:\Users\SDEVAS~1\AppData\Local\Temp\ccPhqTSe.s 			page 62


 2822              	.LVL480:
 2823 0554 0028     		cmp	r0, #0
 2824 0556 05D1     		bne	.L227
 2825 0558 311C     		mov	r1, r6
 2826 055a 201C     		mov	r0, r4
 2827 055c FFF7FEFF 		bl	conv_str2i
 2828              	.LVL481:
 2829 0560 FFF7FEFF 		bl	setvar_cropType
 2830              	.LVL482:
 2831              	.L227:
 391:.\Generated_Source\PSoC4/comm.c ****   ADD_STATIC_STRING_TO_RESP(",\"payload\":null");
 2832              		.loc 1 391 0
 2833 0564 104C     		ldr	r4, .L241+8
 2834              	.LVL483:
 2835 0566 1149     		ldr	r1, .L241+12
 2836 0568 2068     		ldr	r0, [r4]
 2837 056a 1022     		mov	r2, #16
 2838 056c FFF7FEFF 		bl	memcpy
 2839              	.LVL484:
 2840 0570 2368     		ldr	r3, [r4]
 393:.\Generated_Source\PSoC4/comm.c ****   return COMM_FLAG_ACK;
 2841              		.loc 1 393 0
 2842 0572 0220     		mov	r0, #2
 391:.\Generated_Source\PSoC4/comm.c ****   ADD_STATIC_STRING_TO_RESP(",\"payload\":null");
 2843              		.loc 1 391 0
 2844 0574 0F33     		add	r3, r3, #15
 2845 0576 2360     		str	r3, [r4]
 2846 0578 6368     		ldr	r3, [r4, #4]
 2847 057a 0F3B     		sub	r3, r3, #15
 2848 057c 6360     		str	r3, [r4, #4]
 2849 057e 0CE0     		b	.L228
 2850              	.LVL485:
 2851              	.L184:
 395:.\Generated_Source\PSoC4/comm.c **** 	ADD_STATIC_STRING_TO_RESP(",\"payload\":null");
 2852              		.loc 1 395 0
 2853 0580 094C     		ldr	r4, .L241+8
 2854 0582 0A49     		ldr	r1, .L241+12
 2855 0584 2068     		ldr	r0, [r4]
 2856 0586 1022     		mov	r2, #16
 2857 0588 FFF7FEFF 		bl	memcpy
 2858              	.LVL486:
 2859 058c 2368     		ldr	r3, [r4]
 396:.\Generated_Source\PSoC4/comm.c **** 	return COMM_FLAG_NACK;
 2860              		.loc 1 396 0
 2861 058e 0420     		mov	r0, #4
 395:.\Generated_Source\PSoC4/comm.c **** 	ADD_STATIC_STRING_TO_RESP(",\"payload\":null");
 2862              		.loc 1 395 0
 2863 0590 0F33     		add	r3, r3, #15
 2864 0592 2360     		str	r3, [r4]
 2865 0594 6368     		ldr	r3, [r4, #4]
 2866 0596 0F3B     		sub	r3, r3, #15
 2867 0598 6360     		str	r3, [r4, #4]
 2868              	.L228:
 397:.\Generated_Source\PSoC4/comm.c **** }
 2869              		.loc 1 397 0
 2870 059a 09B0     		add	sp, sp, #36
 2871              		@ sp needed
ARM GAS  C:\Users\SDEVAS~1\AppData\Local\Temp\ccPhqTSe.s 			page 63


 2872 059c F0BD     		pop	{r4, r5, r6, r7, pc}
 2873              	.L242:
 2874 059e C046     		.align	2
 2875              	.L241:
 2876 05a0 A3080000 		.word	.LC189
 2877 05a4 9F080000 		.word	.LC185
 2878 05a8 00000000 		.word	.LANCHOR0
 2879 05ac 8B080000 		.word	.LC177
 2880              		.cfi_endproc
 2881              	.LFE62:
 2882              		.size	comm_handle_Set.part.2, .-comm_handle_Set.part.2
 2883              		.section	.text.comm_handle_Info.part.3,"ax",%progbits
 2884              		.align	1
 2885              		.code	16
 2886              		.thumb_func
 2887              		.type	comm_handle_Info.part.3, %function
 2888              	comm_handle_Info.part.3:
 2889              	.LFB63:
 399:.\Generated_Source\PSoC4/comm.c **** comm_flags_t comm_handle_Info(comm_flags_t flags, const char *payload, int payloadLen, jsmntok_t *t
 2890              		.loc 1 399 0
 2891              		.cfi_startproc
 2892              	.LVL487:
 2893 0000 10B5     		push	{r4, lr}
 2894              		.cfi_def_cfa_offset 8
 2895              		.cfi_offset 4, -8
 2896              		.cfi_offset 14, -4
 402:.\Generated_Source\PSoC4/comm.c **** 		ADD_STATIC_STRING_TO_RESP(",\"payload\":{\"oa\":[");
 2897              		.loc 1 402 0
 2898 0002 0D4C     		ldr	r4, .L244
 2899 0004 0D49     		ldr	r1, .L244+4
 2900 0006 1322     		mov	r2, #19
 2901 0008 2068     		ldr	r0, [r4]
 2902 000a FFF7FEFF 		bl	memcpy
 2903              	.LVL488:
 2904 000e 2368     		ldr	r3, [r4]
 408:.\Generated_Source\PSoC4/comm.c **** }
 2905              		.loc 1 408 0
 2906              		@ sp needed
 402:.\Generated_Source\PSoC4/comm.c **** 		ADD_STATIC_STRING_TO_RESP(",\"payload\":{\"oa\":[");
 2907              		.loc 1 402 0
 2908 0010 1233     		add	r3, r3, #18
 2909 0012 2360     		str	r3, [r4]
 2910 0014 6368     		ldr	r3, [r4, #4]
 2911 0016 123B     		sub	r3, r3, #18
 2912 0018 6360     		str	r3, [r4, #4]
 403:.\Generated_Source\PSoC4/comm.c **** 		comm_GenerateInfo();
 2913              		.loc 1 403 0
 2914 001a FFF7FEFF 		bl	comm_GenerateInfo
 2915              	.LVL489:
 404:.\Generated_Source\PSoC4/comm.c **** 		ADD_STATIC_STRING_TO_RESP("]}");
 2916              		.loc 1 404 0
 2917 001e 2068     		ldr	r0, [r4]
 2918 0020 0749     		ldr	r1, .L244+8
 2919 0022 0322     		mov	r2, #3
 2920 0024 FFF7FEFF 		bl	memcpy
 2921              	.LVL490:
 2922 0028 2368     		ldr	r3, [r4]
ARM GAS  C:\Users\SDEVAS~1\AppData\Local\Temp\ccPhqTSe.s 			page 64


 408:.\Generated_Source\PSoC4/comm.c **** }
 2923              		.loc 1 408 0
 2924 002a 0820     		mov	r0, #8
 404:.\Generated_Source\PSoC4/comm.c **** 		ADD_STATIC_STRING_TO_RESP("]}");
 2925              		.loc 1 404 0
 2926 002c 0233     		add	r3, r3, #2
 2927 002e 2360     		str	r3, [r4]
 2928 0030 6368     		ldr	r3, [r4, #4]
 2929 0032 023B     		sub	r3, r3, #2
 2930 0034 6360     		str	r3, [r4, #4]
 408:.\Generated_Source\PSoC4/comm.c **** }
 2931              		.loc 1 408 0
 2932 0036 10BD     		pop	{r4, pc}
 2933              	.L245:
 2934              		.align	2
 2935              	.L244:
 2936 0038 00000000 		.word	.LANCHOR0
 2937 003c A6080000 		.word	.LC194
 2938 0040 B9080000 		.word	.LC196
 2939              		.cfi_endproc
 2940              	.LFE63:
 2941              		.size	comm_handle_Info.part.3, .-comm_handle_Info.part.3
 2942              		.section	.text.comm_handle_Mode.part.4,"ax",%progbits
 2943              		.align	1
 2944              		.code	16
 2945              		.thumb_func
 2946              		.type	comm_handle_Mode.part.4, %function
 2947              	comm_handle_Mode.part.4:
 2948              	.LFB64:
 421:.\Generated_Source\PSoC4/comm.c **** comm_flags_t comm_handle_Mode(comm_flags_t flags, const char *payload, int payloadLen, jsmntok_t *t
 2949              		.loc 1 421 0
 2950              		.cfi_startproc
 2951              	.LVL491:
 2952              	.LDL1:
 2953 0000 10B5     		push	{r4, lr}
 2954              		.cfi_def_cfa_offset 8
 2955              		.cfi_offset 4, -8
 2956              		.cfi_offset 14, -4
 2957              	.LBB21:
 437:.\Generated_Source\PSoC4/comm.c **** 		ADD_STATIC_STRING_TO_RESP(",\"payload\":null");
 2958              		.loc 1 437 0
 2959 0002 074C     		ldr	r4, .L247
 2960 0004 0749     		ldr	r1, .L247+4
 2961 0006 2068     		ldr	r0, [r4]
 2962 0008 1022     		mov	r2, #16
 2963 000a FFF7FEFF 		bl	memcpy
 2964              	.LVL492:
 2965 000e 2368     		ldr	r3, [r4]
 2966              	.LBE21:
 441:.\Generated_Source\PSoC4/comm.c **** }
 2967              		.loc 1 441 0
 2968 0010 0420     		mov	r0, #4
 2969              	.LBB22:
 437:.\Generated_Source\PSoC4/comm.c **** 		ADD_STATIC_STRING_TO_RESP(",\"payload\":null");
 2970              		.loc 1 437 0
 2971 0012 0F33     		add	r3, r3, #15
 2972 0014 2360     		str	r3, [r4]
ARM GAS  C:\Users\SDEVAS~1\AppData\Local\Temp\ccPhqTSe.s 			page 65


 2973 0016 6368     		ldr	r3, [r4, #4]
 2974              	.LBE22:
 441:.\Generated_Source\PSoC4/comm.c **** }
 2975              		.loc 1 441 0
 2976              		@ sp needed
 2977              	.LBB23:
 437:.\Generated_Source\PSoC4/comm.c **** 		ADD_STATIC_STRING_TO_RESP(",\"payload\":null");
 2978              		.loc 1 437 0
 2979 0018 0F3B     		sub	r3, r3, #15
 2980 001a 6360     		str	r3, [r4, #4]
 2981              	.LBE23:
 441:.\Generated_Source\PSoC4/comm.c **** }
 2982              		.loc 1 441 0
 2983 001c 10BD     		pop	{r4, pc}
 2984              	.L248:
 2985 001e C046     		.align	2
 2986              	.L247:
 2987 0020 00000000 		.word	.LANCHOR0
 2988 0024 8B080000 		.word	.LC177
 2989              		.cfi_endproc
 2990              	.LFE64:
 2991              		.size	comm_handle_Mode.part.4, .-comm_handle_Mode.part.4
 2992              		.section	.text.resp_AddFlags,"ax",%progbits
 2993              		.align	1
 2994              		.global	resp_AddFlags
 2995              		.code	16
 2996              		.thumb_func
 2997              		.type	resp_AddFlags, %function
 2998              	resp_AddFlags:
 2999              	.LFB40:
 176:.\Generated_Source\PSoC4/comm.c **** void resp_AddFlags(comm_flags_t flag) {
 3000              		.loc 1 176 0
 3001              		.cfi_startproc
 3002              	.LVL493:
 3003 0000 70B5     		push	{r4, r5, r6, lr}
 3004              		.cfi_def_cfa_offset 16
 3005              		.cfi_offset 4, -16
 3006              		.cfi_offset 5, -12
 3007              		.cfi_offset 6, -8
 3008              		.cfi_offset 14, -4
 177:.\Generated_Source\PSoC4/comm.c ****   ADD_STATIC_STRING_TO_RESP(",\"flags\":\"");
 3009              		.loc 1 177 0
 3010 0002 244D     		ldr	r5, .L265
 176:.\Generated_Source\PSoC4/comm.c **** void resp_AddFlags(comm_flags_t flag) {
 3011              		.loc 1 176 0
 3012 0004 061C     		mov	r6, r0
 177:.\Generated_Source\PSoC4/comm.c ****   ADD_STATIC_STRING_TO_RESP(",\"flags\":\"");
 3013              		.loc 1 177 0
 3014 0006 2449     		ldr	r1, .L265+4
 3015 0008 2868     		ldr	r0, [r5]
 3016              	.LVL494:
 3017 000a 0B22     		mov	r2, #11
 3018 000c FFF7FEFF 		bl	memcpy
 3019              	.LVL495:
 3020 0010 2B68     		ldr	r3, [r5]
 3021 0012 6C68     		ldr	r4, [r5, #4]
 3022 0014 0A33     		add	r3, r3, #10
ARM GAS  C:\Users\SDEVAS~1\AppData\Local\Temp\ccPhqTSe.s 			page 66


 3023 0016 0A3C     		sub	r4, r4, #10
 3024              	.LBB26:
 3025              	.LBB27:
  47:.\Generated_Source\PSoC4/comm.c ****   switch(flag) {
 3026              		.loc 1 47 0
 3027 0018 701E     		sub	r0, r6, #1
 3028              	.LBE27:
 3029              	.LBE26:
 177:.\Generated_Source\PSoC4/comm.c ****   ADD_STATIC_STRING_TO_RESP(",\"flags\":\"");
 3030              		.loc 1 177 0
 3031 001a 2B60     		str	r3, [r5]
 3032 001c 6C60     		str	r4, [r5, #4]
 3033              	.LVL496:
 3034              	.LBB29:
 3035              	.LBB28:
  47:.\Generated_Source\PSoC4/comm.c ****   switch(flag) {
 3036              		.loc 1 47 0
 3037 001e 0728     		cmp	r0, #7
 3038 0020 23D8     		bhi	.L250
 3039 0022 FFF7FEFF 		bl	__gnu_thumb1_case_uqi
 3040              	.L252:
 3041 0026 04       		.byte	(.L251-.L252)/2
 3042 0027 10       		.byte	(.L253-.L252)/2
 3043 0028 0A       		.byte	(.L254-.L252)/2
 3044 0029 16       		.byte	(.L255-.L252)/2
 3045 002a 22       		.byte	(.L250-.L252)/2
 3046 002b 22       		.byte	(.L250-.L252)/2
 3047 002c 22       		.byte	(.L250-.L252)/2
 3048 002d 1C       		.byte	(.L256-.L252)/2
 3049              		.p2align 1
 3050              	.L251:
  48:.\Generated_Source\PSoC4/comm.c ****     case COMM_FLAG_REQ: memcpy(str, "REQ", len < 3 ? len : 3); return len < 3 ? len : 3;
 3051              		.loc 1 48 0
 3052 002e 032C     		cmp	r4, #3
 3053 0030 00DD     		ble	.L257
 3054 0032 0324     		mov	r4, #3
 3055              	.LVL497:
 3056              	.L257:
 3057 0034 181C     		mov	r0, r3
 3058 0036 1949     		ldr	r1, .L265+8
 3059 0038 1CE0     		b	.L264
 3060              	.LVL498:
 3061              	.L254:
  49:.\Generated_Source\PSoC4/comm.c ****     case COMM_FLAG_REQ_ACK: memcpy(str, "REQ_ACK", len < 7 ? len : 7); return len < 7 ? len : 7;
 3062              		.loc 1 49 0
 3063 003a 072C     		cmp	r4, #7
 3064 003c 00DD     		ble	.L259
 3065 003e 0724     		mov	r4, #7
 3066              	.LVL499:
 3067              	.L259:
 3068 0040 181C     		mov	r0, r3
 3069 0042 1749     		ldr	r1, .L265+12
 3070 0044 16E0     		b	.L264
 3071              	.LVL500:
 3072              	.L253:
  50:.\Generated_Source\PSoC4/comm.c ****     case COMM_FLAG_ACK: memcpy(str, "ACK", len <  3 ? len : 3); return len <  3 ? len : 3;
 3073              		.loc 1 50 0
ARM GAS  C:\Users\SDEVAS~1\AppData\Local\Temp\ccPhqTSe.s 			page 67


 3074 0046 032C     		cmp	r4, #3
 3075 0048 00DD     		ble	.L260
 3076 004a 0324     		mov	r4, #3
 3077              	.LVL501:
 3078              	.L260:
 3079 004c 181C     		mov	r0, r3
 3080 004e 1549     		ldr	r1, .L265+16
 3081 0050 10E0     		b	.L264
 3082              	.LVL502:
 3083              	.L255:
  51:.\Generated_Source\PSoC4/comm.c ****     case COMM_FLAG_NACK: memcpy(str, "NACK", len < 4 ? len : 4); return len < 4 ? len : 4;
 3084              		.loc 1 51 0
 3085 0052 042C     		cmp	r4, #4
 3086 0054 00DD     		ble	.L261
 3087 0056 0424     		mov	r4, #4
 3088              	.LVL503:
 3089              	.L261:
 3090 0058 181C     		mov	r0, r3
 3091 005a 1349     		ldr	r1, .L265+20
 3092 005c 0AE0     		b	.L264
 3093              	.LVL504:
 3094              	.L256:
  52:.\Generated_Source\PSoC4/comm.c ****     case COMM_FLAG_PUSH: memcpy(str, "PUSH", len < 4 ? len : 4); return len < 4 ? len : 4;
 3095              		.loc 1 52 0
 3096 005e 042C     		cmp	r4, #4
 3097 0060 00DD     		ble	.L262
 3098 0062 0424     		mov	r4, #4
 3099              	.LVL505:
 3100              	.L262:
 3101 0064 181C     		mov	r0, r3
 3102 0066 1149     		ldr	r1, .L265+24
 3103 0068 04E0     		b	.L264
 3104              	.LVL506:
 3105              	.L250:
  54:.\Generated_Source\PSoC4/comm.c ****     default: memcpy(str, "ERR", len < 3 ? len : 3); return len < 3 ? len : 3;
 3106              		.loc 1 54 0
 3107 006a 032C     		cmp	r4, #3
 3108 006c 00DD     		ble	.L263
 3109 006e 0324     		mov	r4, #3
 3110              	.LVL507:
 3111              	.L263:
 3112 0070 0F49     		ldr	r1, .L265+28
 3113 0072 181C     		mov	r0, r3
 3114              	.LVL508:
 3115              	.L264:
 3116 0074 221C     		mov	r2, r4
 3117 0076 FFF7FEFF 		bl	memcpy
 3118              	.LVL509:
 3119              	.LBE28:
 3120              	.LBE29:
 180:.\Generated_Source\PSoC4/comm.c ****   respEnd += r;
 3121              		.loc 1 180 0
 3122 007a 2A68     		ldr	r2, [r5]
 184:.\Generated_Source\PSoC4/comm.c **** }
 3123              		.loc 1 184 0
 3124              		@ sp needed
 180:.\Generated_Source\PSoC4/comm.c ****   respEnd += r;
ARM GAS  C:\Users\SDEVAS~1\AppData\Local\Temp\ccPhqTSe.s 			page 68


 3125              		.loc 1 180 0
 3126 007c 1319     		add	r3, r2, r4
 181:.\Generated_Source\PSoC4/comm.c ****   respFreeSpace -= r;
 3127              		.loc 1 181 0
 3128 007e 6A68     		ldr	r2, [r5, #4]
 3129 0080 141B     		sub	r4, r2, r4
 183:.\Generated_Source\PSoC4/comm.c ****   ADD_CHAR_TO_RESP('\"');
 3130              		.loc 1 183 0
 3131 0082 5A1C     		add	r2, r3, #1
 3132 0084 2A60     		str	r2, [r5]
 3133 0086 2222     		mov	r2, #34
 181:.\Generated_Source\PSoC4/comm.c ****   respFreeSpace -= r;
 3134              		.loc 1 181 0
 3135 0088 6C60     		str	r4, [r5, #4]
 183:.\Generated_Source\PSoC4/comm.c ****   ADD_CHAR_TO_RESP('\"');
 3136              		.loc 1 183 0
 3137 008a 1A70     		strb	r2, [r3]
 3138 008c 6B68     		ldr	r3, [r5, #4]
 3139 008e 013B     		sub	r3, r3, #1
 3140 0090 6B60     		str	r3, [r5, #4]
 3141              	.LVL510:
 184:.\Generated_Source\PSoC4/comm.c **** }
 3142              		.loc 1 184 0
 3143 0092 70BD     		pop	{r4, r5, r6, pc}
 3144              	.L266:
 3145              		.align	2
 3146              	.L265:
 3147 0094 00000000 		.word	.LANCHOR0
 3148 0098 BC080000 		.word	.LC201
 3149 009c C7080000 		.word	.LC203
 3150 00a0 CB080000 		.word	.LC205
 3151 00a4 D3080000 		.word	.LC207
 3152 00a8 D7080000 		.word	.LC209
 3153 00ac DC080000 		.word	.LC211
 3154 00b0 E1080000 		.word	.LC213
 3155              		.cfi_endproc
 3156              	.LFE40:
 3157              		.size	resp_AddFlags, .-resp_AddFlags
 3158              		.section	.text.validateDestinationAndParse,"ax",%progbits
 3159              		.align	1
 3160              		.global	validateDestinationAndParse
 3161              		.code	16
 3162              		.thumb_func
 3163              		.type	validateDestinationAndParse, %function
 3164              	validateDestinationAndParse:
 3165              	.LFB41:
 212:.\Generated_Source\PSoC4/comm.c **** JSON_MSG_return_t validateDestinationAndParse(const char* json, int json_len) {
 3166              		.loc 1 212 0
 3167              		.cfi_startproc
 3168              	.LVL511:
 3169 0000 F0B5     		push	{r4, r5, r6, r7, lr}
 3170              		.cfi_def_cfa_offset 20
 3171              		.cfi_offset 4, -20
 3172              		.cfi_offset 5, -16
 3173              		.cfi_offset 6, -12
 3174              		.cfi_offset 7, -8
 3175              		.cfi_offset 14, -4
ARM GAS  C:\Users\SDEVAS~1\AppData\Local\Temp\ccPhqTSe.s 			page 69


 214:.\Generated_Source\PSoC4/comm.c **** 	order = payload = msgSource = msgDest = NULL;
 3176              		.loc 1 214 0
 3177 0002 8C4E     		ldr	r6, .L304
 3178 0004 0024     		mov	r4, #0
 212:.\Generated_Source\PSoC4/comm.c **** JSON_MSG_return_t validateDestinationAndParse(const char* json, int json_len) {
 3179              		.loc 1 212 0
 3180 0006 89B0     		sub	sp, sp, #36
 3181              		.cfi_def_cfa_offset 56
 214:.\Generated_Source\PSoC4/comm.c **** 	order = payload = msgSource = msgDest = NULL;
 3182              		.loc 1 214 0
 3183 0008 7460     		str	r4, [r6, #4]
 3184 000a B460     		str	r4, [r6, #8]
 3185 000c F460     		str	r4, [r6, #12]
 3186 000e 3461     		str	r4, [r6, #16]
 215:.\Generated_Source\PSoC4/comm.c **** 	flags = COMM_FLAG_UNKNOWN;
 3187              		.loc 1 215 0
 3188 0010 3475     		strb	r4, [r6, #20]
 216:.\Generated_Source\PSoC4/comm.c ****   jsmn_init(&parser);
 3189              		.loc 1 216 0
 3190 0012 1836     		add	r6, r6, #24
 212:.\Generated_Source\PSoC4/comm.c **** JSON_MSG_return_t validateDestinationAndParse(const char* json, int json_len) {
 3191              		.loc 1 212 0
 3192 0014 0290     		str	r0, [sp, #8]
 216:.\Generated_Source\PSoC4/comm.c ****   jsmn_init(&parser);
 3193              		.loc 1 216 0
 3194 0016 301C     		mov	r0, r6
 3195              	.LVL512:
 212:.\Generated_Source\PSoC4/comm.c **** JSON_MSG_return_t validateDestinationAndParse(const char* json, int json_len) {
 3196              		.loc 1 212 0
 3197 0018 0F1C     		mov	r7, r1
 216:.\Generated_Source\PSoC4/comm.c ****   jsmn_init(&parser);
 3198              		.loc 1 216 0
 3199 001a FFF7FEFF 		bl	jsmn_init
 3200              	.LVL513:
 217:.\Generated_Source\PSoC4/comm.c ****   int r = jsmn_parse(&parser, json, json_len, tokens, JSMN_TOKENS_SIZE);
 3201              		.loc 1 217 0
 3202 001e 864D     		ldr	r5, .L304+4
 3203 0020 3C23     		mov	r3, #60
 3204 0022 0093     		str	r3, [sp]
 3205 0024 301C     		mov	r0, r6
 3206 0026 0299     		ldr	r1, [sp, #8]
 3207 0028 3A1C     		mov	r2, r7
 3208 002a 2B1C     		mov	r3, r5
 3209 002c FFF7FEFF 		bl	jsmn_parse
 3210              	.LVL514:
 218:.\Generated_Source\PSoC4/comm.c ****   if(r <= 0)
 3211              		.loc 1 218 0
 3212 0030 A042     		cmp	r0, r4
 3213 0032 01DC     		bgt	.L268
 3214              	.LVL515:
 3215              	.L270:
 219:.\Generated_Source\PSoC4/comm.c ****     return JSON_MSG_PARSE_FAILED;
 3216              		.loc 1 219 0
 3217 0034 0120     		mov	r0, #1
 3218 0036 FAE0     		b	.L269
 3219              	.LVL516:
 3220              	.L268:
ARM GAS  C:\Users\SDEVAS~1\AppData\Local\Temp\ccPhqTSe.s 			page 70


 227:.\Generated_Source\PSoC4/comm.c ****   if(tokens[0].type != JSMN_OBJECT)
 3221              		.loc 1 227 0
 3222 0038 2B78     		ldrb	r3, [r5]
 3223 003a 012B     		cmp	r3, #1
 3224 003c FAD1     		bne	.L270
 232:.\Generated_Source\PSoC4/comm.c ****   for(; i < tokens[0].size; i++) {
 3225              		.loc 1 232 0
 3226 003e ED68     		ldr	r5, [r5, #12]
 3227 0040 0494     		str	r4, [sp, #16]
 3228 0042 0695     		str	r5, [sp, #24]
 3229 0044 0393     		str	r3, [sp, #12]
 3230              	.LVL517:
 3231              	.L271:
 232:.\Generated_Source\PSoC4/comm.c ****   for(; i < tokens[0].size; i++) {
 3232              		.loc 1 232 0 is_stmt 0 discriminator 1
 3233 0046 049B     		ldr	r3, [sp, #16]
 3234 0048 0698     		ldr	r0, [sp, #24]
 3235 004a 8342     		cmp	r3, r0
 3236 004c 00DB     		blt	.LCB3524
 3237 004e D8E0     		b	.L302	@long jump
 3238              	.LCB3524:
 233:.\Generated_Source\PSoC4/comm.c ****     if(tokens[t].type != JSMN_STRING) //it should point to key
 3239              		.loc 1 233 0 is_stmt 1
 3240 0050 0398     		ldr	r0, [sp, #12]
 3241 0052 794C     		ldr	r4, .L304+4
 3242 0054 0501     		lsl	r5, r0, #4
 3243 0056 2E5D     		ldrb	r6, [r5, r4]
 3244 0058 032E     		cmp	r6, #3
 3245 005a EBD1     		bne	.L270
 236:.\Generated_Source\PSoC4/comm.c ****     if(compKey(json, &tokens[t], "destination") == 0) {
 3246              		.loc 1 236 0
 3247 005c 2D19     		add	r5, r5, r4
 3248 005e 0298     		ldr	r0, [sp, #8]
 3249 0060 291C     		mov	r1, r5
 3250 0062 764A     		ldr	r2, .L304+8
 3251 0064 FFF7FEFF 		bl	compKey
 3252              	.LVL518:
 3253 0068 039F     		ldr	r7, [sp, #12]
 3254 006a 0137     		add	r7, r7, #1
 3255 006c 0028     		cmp	r0, #0
 3256 006e 4DD1     		bne	.L272
 3257              	.LBB33:
 237:.\Generated_Source\PSoC4/comm.c ****       if(tokens[t+1].type != JSMN_OBJECT)//it should be OBJECT
 3258              		.loc 1 237 0
 3259 0070 3B01     		lsl	r3, r7, #4
 3260 0072 1A5D     		ldrb	r2, [r3, r4]
 3261 0074 012A     		cmp	r2, #1
 3262 0076 DDD1     		bne	.L270
 241:.\Generated_Source\PSoC4/comm.c ****       for(; j < tokens[t+1].size; j++) {
 3263              		.loc 1 241 0
 3264 0078 E418     		add	r4, r4, r3
 239:.\Generated_Source\PSoC4/comm.c ****       int y = t+2;
 3265              		.loc 1 239 0
 3266 007a 039E     		ldr	r6, [sp, #12]
 241:.\Generated_Source\PSoC4/comm.c ****       for(; j < tokens[t+1].size; j++) {
 3267              		.loc 1 241 0
 3268 007c E468     		ldr	r4, [r4, #12]
ARM GAS  C:\Users\SDEVAS~1\AppData\Local\Temp\ccPhqTSe.s 			page 71


 239:.\Generated_Source\PSoC4/comm.c ****       int y = t+2;
 3269              		.loc 1 239 0
 3270 007e 0236     		add	r6, r6, #2
 3271              	.LVL519:
 241:.\Generated_Source\PSoC4/comm.c ****       for(; j < tokens[t+1].size; j++) {
 3272              		.loc 1 241 0
 3273 0080 0794     		str	r4, [sp, #28]
 240:.\Generated_Source\PSoC4/comm.c ****       int j = 0;
 3274              		.loc 1 240 0
 3275 0082 0590     		str	r0, [sp, #20]
 3276              	.LVL520:
 3277              	.L273:
 241:.\Generated_Source\PSoC4/comm.c ****       for(; j < tokens[t+1].size; j++) {
 3278              		.loc 1 241 0 discriminator 1
 3279 0084 0598     		ldr	r0, [sp, #20]
 3280 0086 079A     		ldr	r2, [sp, #28]
 3281 0088 6B4D     		ldr	r5, .L304+4
 3282 008a 9042     		cmp	r0, r2
 3283 008c 33DA     		bge	.L303
 243:.\Generated_Source\PSoC4/comm.c ****         if(tokens[y].type != JSMN_STRING) //it should point to key
 3284              		.loc 1 243 0
 3285 008e 3401     		lsl	r4, r6, #4
 3286 0090 2B5D     		ldrb	r3, [r5, r4]
 3287 0092 032B     		cmp	r3, #3
 3288 0094 CED1     		bne	.L270
 246:.\Generated_Source\PSoC4/comm.c ****         if(compKey(json, &tokens[y], "atomType") == 0) {
 3289              		.loc 1 246 0
 3290 0096 2C19     		add	r4, r5, r4
 3291 0098 0298     		ldr	r0, [sp, #8]
 3292 009a 211C     		mov	r1, r4
 3293 009c 684A     		ldr	r2, .L304+12
 3294 009e FFF7FEFF 		bl	compKey
 3295              	.LVL521:
 3296 00a2 0028     		cmp	r0, #0
 3297 00a4 09D1     		bne	.L274
 248:.\Generated_Source\PSoC4/comm.c ****           if(strncmp(json + tokens[y+1].start, MY_ATOM_TYPE, tokens[y+1].end - tokens[y+1].start) !
 3298              		.loc 1 248 0
 3299 00a6 731C     		add	r3, r6, #1
 3300 00a8 1B01     		lsl	r3, r3, #4
 3301 00aa ED18     		add	r5, r5, r3
 3302 00ac 6B68     		ldr	r3, [r5, #4]
 3303 00ae 029A     		ldr	r2, [sp, #8]
 3304 00b0 6449     		ldr	r1, .L304+16
 3305 00b2 D018     		add	r0, r2, r3
 3306 00b4 AA68     		ldr	r2, [r5, #8]
 3307 00b6 D21A     		sub	r2, r2, r3
 3308 00b8 0FE0     		b	.L301
 3309              	.L274:
 251:.\Generated_Source\PSoC4/comm.c ****         } else if(compKey(json, &tokens[y], "atomId") == 0) {
 3310              		.loc 1 251 0
 3311 00ba 0298     		ldr	r0, [sp, #8]
 3312 00bc 211C     		mov	r1, r4
 3313 00be 624A     		ldr	r2, .L304+20
 3314 00c0 FFF7FEFF 		bl	compKey
 3315              	.LVL522:
 3316 00c4 0028     		cmp	r0, #0
 3317 00c6 0DD1     		bne	.L275
ARM GAS  C:\Users\SDEVAS~1\AppData\Local\Temp\ccPhqTSe.s 			page 72


 253:.\Generated_Source\PSoC4/comm.c ****           if(strncmp(json + tokens[y+1].start, MY_ATOM_ID, tokens[y+1].end - tokens[y+1].start) != 
 3318              		.loc 1 253 0
 3319 00c8 731C     		add	r3, r6, #1
 3320 00ca 1B01     		lsl	r3, r3, #4
 3321 00cc ED18     		add	r5, r5, r3
 3322 00ce 6B68     		ldr	r3, [r5, #4]
 3323 00d0 029A     		ldr	r2, [sp, #8]
 3324 00d2 5E49     		ldr	r1, .L304+24
 3325 00d4 D018     		add	r0, r2, r3
 3326 00d6 AA68     		ldr	r2, [r5, #8]
 3327 00d8 D21A     		sub	r2, r2, r3
 3328              	.L301:
 3329 00da FFF7FEFF 		bl	strncmp
 3330              	.LVL523:
 3331 00de 0028     		cmp	r0, #0
 3332 00e0 00D0     		beq	.LCB3614
 3333 00e2 A1E0     		b	.L284	@long jump
 3334              	.LCB3614:
 3335              	.L275:
 257:.\Generated_Source\PSoC4/comm.c ****         y = skipToNextTokenInLevel(tokens, ++y);
 3336              		.loc 1 257 0
 3337 00e4 711C     		add	r1, r6, #1
 3338              	.LVL524:
 3339 00e6 5448     		ldr	r0, .L304+4
 3340 00e8 FFF7FEFF 		bl	skipToNextTokenInLevel
 3341              	.LVL525:
 241:.\Generated_Source\PSoC4/comm.c ****       for(; j < tokens[t+1].size; j++) {
 3342              		.loc 1 241 0
 3343 00ec 059B     		ldr	r3, [sp, #20]
 257:.\Generated_Source\PSoC4/comm.c ****         y = skipToNextTokenInLevel(tokens, ++y);
 3344              		.loc 1 257 0
 3345 00ee 061C     		mov	r6, r0
 3346              	.LVL526:
 241:.\Generated_Source\PSoC4/comm.c ****       for(; j < tokens[t+1].size; j++) {
 3347              		.loc 1 241 0
 3348 00f0 0133     		add	r3, r3, #1
 3349 00f2 0593     		str	r3, [sp, #20]
 3350              	.LVL527:
 3351 00f4 C6E7     		b	.L273
 3352              	.LVL528:
 3353              	.L303:
 259:.\Generated_Source\PSoC4/comm.c ****       msgDest = json + tokens[t+1].start;
 3354              		.loc 1 259 0
 3355 00f6 3F01     		lsl	r7, r7, #4
 3356 00f8 ED19     		add	r5, r5, r7
 3357 00fa 6A68     		ldr	r2, [r5, #4]
 3358 00fc 0298     		ldr	r0, [sp, #8]
 3359              	.LVL529:
 3360 00fe 4D4B     		ldr	r3, .L304
 3361 0100 8118     		add	r1, r0, r2
 3362 0102 5960     		str	r1, [r3, #4]
 260:.\Generated_Source\PSoC4/comm.c ****       msgDestLen = tokens[t+1].end - tokens[t+1].start;
 3363              		.loc 1 260 0
 3364 0104 A968     		ldr	r1, [r5, #8]
 3365 0106 8A1A     		sub	r2, r1, r2
 3366 0108 5A62     		str	r2, [r3, #36]
 3367              	.LBE33:
ARM GAS  C:\Users\SDEVAS~1\AppData\Local\Temp\ccPhqTSe.s 			page 73


 3368 010a 70E0     		b	.L277
 3369              	.LVL530:
 3370              	.L272:
 261:.\Generated_Source\PSoC4/comm.c ****     } else if(compKey(json, &tokens[t], "source") == 0) {
 3371              		.loc 1 261 0
 3372 010c 0298     		ldr	r0, [sp, #8]
 3373 010e 291C     		mov	r1, r5
 3374 0110 4F4A     		ldr	r2, .L304+28
 3375 0112 FFF7FEFF 		bl	compKey
 3376              	.LVL531:
 3377 0116 0028     		cmp	r0, #0
 3378 0118 0DD1     		bne	.L278
 262:.\Generated_Source\PSoC4/comm.c ****       if(tokens[t+1].type != JSMN_OBJECT)//it should be OBJECT
 3379              		.loc 1 262 0
 3380 011a 3F01     		lsl	r7, r7, #4
 3381 011c 3B5D     		ldrb	r3, [r7, r4]
 3382 011e 012B     		cmp	r3, #1
 3383 0120 88D1     		bne	.L270
 264:.\Generated_Source\PSoC4/comm.c ****       msgSource = json + tokens[t+1].start;
 3384              		.loc 1 264 0
 3385 0122 E419     		add	r4, r4, r7
 3386 0124 6268     		ldr	r2, [r4, #4]
 3387 0126 0298     		ldr	r0, [sp, #8]
 3388 0128 424B     		ldr	r3, .L304
 3389 012a 8118     		add	r1, r0, r2
 3390 012c 9960     		str	r1, [r3, #8]
 265:.\Generated_Source\PSoC4/comm.c ****       msgSourceLen = tokens[t+1].end - tokens[t+1].start;
 3391              		.loc 1 265 0
 3392 012e A168     		ldr	r1, [r4, #8]
 3393 0130 8A1A     		sub	r2, r1, r2
 3394 0132 9A62     		str	r2, [r3, #40]
 3395 0134 5BE0     		b	.L277
 3396              	.L278:
 266:.\Generated_Source\PSoC4/comm.c ****     } else if(compKey(json, &tokens[t], "flags") == 0) {
 3397              		.loc 1 266 0
 3398 0136 0298     		ldr	r0, [sp, #8]
 3399 0138 291C     		mov	r1, r5
 3400 013a 464A     		ldr	r2, .L304+32
 3401 013c FFF7FEFF 		bl	compKey
 3402              	.LVL532:
 3403 0140 0028     		cmp	r0, #0
 3404 0142 31D1     		bne	.L279
 267:.\Generated_Source\PSoC4/comm.c ****       flags = str2flag(json + tokens[t+1].start, tokens[t+1].end - tokens[t+1].start);
 3405              		.loc 1 267 0
 3406 0144 3F01     		lsl	r7, r7, #4
 3407 0146 E419     		add	r4, r4, r7
 3408 0148 6368     		ldr	r3, [r4, #4]
 3409 014a 029A     		ldr	r2, [sp, #8]
 3410 014c A468     		ldr	r4, [r4, #8]
 3411 014e D518     		add	r5, r2, r3
 3412              	.LVL533:
 3413 0150 E41A     		sub	r4, r4, r3
 3414              	.LBB34:
 3415              	.LBB35:
  36:.\Generated_Source\PSoC4/comm.c ****   if(strncmp(str, "REQ", len) == 0) return COMM_FLAG_REQ;
 3416              		.loc 1 36 0
 3417 0152 281C     		mov	r0, r5
ARM GAS  C:\Users\SDEVAS~1\AppData\Local\Temp\ccPhqTSe.s 			page 74


 3418 0154 4049     		ldr	r1, .L304+36
 3419 0156 221C     		mov	r2, r4
 3420 0158 FFF7FEFF 		bl	strncmp
 3421              	.LVL534:
 3422 015c 0123     		mov	r3, #1
 3423 015e 0028     		cmp	r0, #0
 3424 0160 1FD0     		beq	.L280
  37:.\Generated_Source\PSoC4/comm.c ****   if(strncmp(str, "REQ_ACK", len) == 0) return COMM_FLAG_REQ_ACK;
 3425              		.loc 1 37 0
 3426 0162 281C     		mov	r0, r5
 3427 0164 3D49     		ldr	r1, .L304+40
 3428 0166 221C     		mov	r2, r4
 3429 0168 FFF7FEFF 		bl	strncmp
 3430              	.LVL535:
 3431 016c 331C     		mov	r3, r6
 3432 016e 0028     		cmp	r0, #0
 3433 0170 17D0     		beq	.L280
  38:.\Generated_Source\PSoC4/comm.c ****   if(strncmp(str, "ACK", len) == 0) return COMM_FLAG_ACK;
 3434              		.loc 1 38 0
 3435 0172 281C     		mov	r0, r5
 3436 0174 3A49     		ldr	r1, .L304+44
 3437 0176 221C     		mov	r2, r4
 3438 0178 FFF7FEFF 		bl	strncmp
 3439              	.LVL536:
 3440 017c 0223     		mov	r3, #2
 3441 017e 0028     		cmp	r0, #0
 3442 0180 0FD0     		beq	.L280
  39:.\Generated_Source\PSoC4/comm.c ****   if(strncmp(str, "NACK", len) == 0) return COMM_FLAG_NACK;
 3443              		.loc 1 39 0
 3444 0182 281C     		mov	r0, r5
 3445 0184 3749     		ldr	r1, .L304+48
 3446 0186 221C     		mov	r2, r4
 3447 0188 FFF7FEFF 		bl	strncmp
 3448              	.LVL537:
 3449 018c 0423     		mov	r3, #4
 3450 018e 0028     		cmp	r0, #0
 3451 0190 07D0     		beq	.L280
  40:.\Generated_Source\PSoC4/comm.c ****   if(strncmp(str, "PUSH", len) == 0) return COMM_FLAG_PUSH;
 3452              		.loc 1 40 0
 3453 0192 281C     		mov	r0, r5
 3454 0194 3449     		ldr	r1, .L304+52
 3455 0196 221C     		mov	r2, r4
 3456 0198 FFF7FEFF 		bl	strncmp
 3457              	.LVL538:
 3458 019c 4342     		neg	r3, r0
 3459 019e 4341     		adc	r3, r3, r0
 3460 01a0 DB00     		lsl	r3, r3, #3
 3461              	.L280:
 3462              	.LBE35:
 3463              	.LBE34:
 267:.\Generated_Source\PSoC4/comm.c ****       flags = str2flag(json + tokens[t+1].start, tokens[t+1].end - tokens[t+1].start);
 3464              		.loc 1 267 0
 3465 01a2 244A     		ldr	r2, .L304
 3466 01a4 1375     		strb	r3, [r2, #20]
 3467 01a6 22E0     		b	.L277
 3468              	.LVL539:
 3469              	.L279:
ARM GAS  C:\Users\SDEVAS~1\AppData\Local\Temp\ccPhqTSe.s 			page 75


 268:.\Generated_Source\PSoC4/comm.c ****     } else if(compKey(json, &tokens[t], "order") == 0) {
 3470              		.loc 1 268 0
 3471 01a8 0298     		ldr	r0, [sp, #8]
 3472 01aa 291C     		mov	r1, r5
 3473 01ac 2F4A     		ldr	r2, .L304+56
 3474 01ae FFF7FEFF 		bl	compKey
 3475              	.LVL540:
 3476 01b2 0028     		cmp	r0, #0
 3477 01b4 0AD1     		bne	.L281
 269:.\Generated_Source\PSoC4/comm.c ****       order = json + tokens[t+1].start;
 3478              		.loc 1 269 0
 3479 01b6 3F01     		lsl	r7, r7, #4
 3480 01b8 E419     		add	r4, r4, r7
 3481 01ba 6268     		ldr	r2, [r4, #4]
 3482 01bc 0298     		ldr	r0, [sp, #8]
 3483 01be 1D4B     		ldr	r3, .L304
 3484 01c0 8118     		add	r1, r0, r2
 3485 01c2 1961     		str	r1, [r3, #16]
 270:.\Generated_Source\PSoC4/comm.c ****       orderLen = tokens[t+1].end - tokens[t+1].start;
 3486              		.loc 1 270 0
 3487 01c4 A168     		ldr	r1, [r4, #8]
 3488 01c6 8A1A     		sub	r2, r1, r2
 3489 01c8 DA62     		str	r2, [r3, #44]
 3490 01ca 10E0     		b	.L277
 3491              	.L281:
 271:.\Generated_Source\PSoC4/comm.c ****     } else if(compKey(json, &tokens[t], "payload") == 0) {
 3492              		.loc 1 271 0
 3493 01cc 0298     		ldr	r0, [sp, #8]
 3494 01ce 291C     		mov	r1, r5
 3495 01d0 274A     		ldr	r2, .L304+60
 3496 01d2 FFF7FEFF 		bl	compKey
 3497              	.LVL541:
 3498 01d6 0028     		cmp	r0, #0
 3499 01d8 09D1     		bne	.L277
 272:.\Generated_Source\PSoC4/comm.c ****       payload = json + tokens[t+1].start;
 3500              		.loc 1 272 0
 3501 01da 3F01     		lsl	r7, r7, #4
 3502 01dc E419     		add	r4, r4, r7
 3503 01de 6268     		ldr	r2, [r4, #4]
 3504 01e0 0298     		ldr	r0, [sp, #8]
 3505 01e2 144B     		ldr	r3, .L304
 3506 01e4 8118     		add	r1, r0, r2
 3507 01e6 D960     		str	r1, [r3, #12]
 273:.\Generated_Source\PSoC4/comm.c ****       payloadLen = tokens[t+1].end - tokens[t+1].start;
 3508              		.loc 1 273 0
 3509 01e8 A168     		ldr	r1, [r4, #8]
 3510 01ea 8A1A     		sub	r2, r1, r2
 3511 01ec 1A63     		str	r2, [r3, #48]
 3512              	.L277:
 275:.\Generated_Source\PSoC4/comm.c ****     t = skipToNextTokenInLevel(tokens, ++t);
 3513              		.loc 1 275 0
 3514 01ee 0399     		ldr	r1, [sp, #12]
 3515 01f0 1148     		ldr	r0, .L304+4
 3516 01f2 0131     		add	r1, r1, #1
 3517              	.LVL542:
 3518 01f4 FFF7FEFF 		bl	skipToNextTokenInLevel
 3519              	.LVL543:
ARM GAS  C:\Users\SDEVAS~1\AppData\Local\Temp\ccPhqTSe.s 			page 76


 232:.\Generated_Source\PSoC4/comm.c ****   for(; i < tokens[0].size; i++) {
 3520              		.loc 1 232 0
 3521 01f8 049A     		ldr	r2, [sp, #16]
 275:.\Generated_Source\PSoC4/comm.c ****     t = skipToNextTokenInLevel(tokens, ++t);
 3522              		.loc 1 275 0
 3523 01fa 0390     		str	r0, [sp, #12]
 3524              	.LVL544:
 232:.\Generated_Source\PSoC4/comm.c ****   for(; i < tokens[0].size; i++) {
 3525              		.loc 1 232 0
 3526 01fc 0132     		add	r2, r2, #1
 3527 01fe 0492     		str	r2, [sp, #16]
 3528              	.LVL545:
 3529 0200 21E7     		b	.L271
 3530              	.LVL546:
 3531              	.L302:
 277:.\Generated_Source\PSoC4/comm.c ****   if(msgSource == NULL || msgDest == NULL || order == NULL || flags == COMM_FLAG_UNKNOWN || payload
 3532              		.loc 1 277 0
 3533 0202 0C4B     		ldr	r3, .L304
 3534              	.LVL547:
 3535 0204 9A68     		ldr	r2, [r3, #8]
 3536 0206 002A     		cmp	r2, #0
 3537 0208 10D0     		beq	.L292
 277:.\Generated_Source\PSoC4/comm.c ****   if(msgSource == NULL || msgDest == NULL || order == NULL || flags == COMM_FLAG_UNKNOWN || payload
 3538              		.loc 1 277 0 is_stmt 0 discriminator 1
 3539 020a 5868     		ldr	r0, [r3, #4]
 3540 020c 0028     		cmp	r0, #0
 3541 020e 0DD0     		beq	.L292
 3542 0210 1A69     		ldr	r2, [r3, #16]
 3543 0212 002A     		cmp	r2, #0
 3544 0214 0AD0     		beq	.L292
 3545 0216 1A7D     		ldrb	r2, [r3, #20]
 278:.\Generated_Source\PSoC4/comm.c ****     return JSON_MSG_INVALID_FIELDS;
 3546              		.loc 1 278 0 is_stmt 1 discriminator 1
 3547 0218 0320     		mov	r0, #3
 277:.\Generated_Source\PSoC4/comm.c ****   if(msgSource == NULL || msgDest == NULL || order == NULL || flags == COMM_FLAG_UNKNOWN || payload
 3548              		.loc 1 277 0 discriminator 1
 3549 021a 002A     		cmp	r2, #0
 3550 021c 07D0     		beq	.L269
 3551 021e DB68     		ldr	r3, [r3, #12]
 280:.\Generated_Source\PSoC4/comm.c ****   return JSON_MSG_PARSE_OK;
 3552              		.loc 1 280 0 discriminator 1
 3553 0220 0020     		mov	r0, #0
 277:.\Generated_Source\PSoC4/comm.c ****   if(msgSource == NULL || msgDest == NULL || order == NULL || flags == COMM_FLAG_UNKNOWN || payload
 3554              		.loc 1 277 0 discriminator 1
 3555 0222 8342     		cmp	r3, r0
 3556 0224 03D1     		bne	.L269
 3557 0226 01E0     		b	.L292
 3558              	.LVL548:
 3559              	.L284:
 3560              	.LBB36:
 249:.\Generated_Source\PSoC4/comm.c ****             return JSON_MSG_INVALID_DESTINATION;
 3561              		.loc 1 249 0
 3562 0228 0220     		mov	r0, #2
 3563 022a 00E0     		b	.L269
 3564              	.LVL549:
 3565              	.L292:
 3566              	.LBE36:
ARM GAS  C:\Users\SDEVAS~1\AppData\Local\Temp\ccPhqTSe.s 			page 77


 278:.\Generated_Source\PSoC4/comm.c ****     return JSON_MSG_INVALID_FIELDS;
 3567              		.loc 1 278 0
 3568 022c 0320     		mov	r0, #3
 3569              	.LVL550:
 3570              	.L269:
 281:.\Generated_Source\PSoC4/comm.c **** }
 3571              		.loc 1 281 0
 3572 022e 09B0     		add	sp, sp, #36
 3573              		@ sp needed
 3574 0230 F0BD     		pop	{r4, r5, r6, r7, pc}
 3575              	.L305:
 3576 0232 C046     		.align	2
 3577              	.L304:
 3578 0234 00000000 		.word	.LANCHOR1
 3579 0238 00000000 		.word	tokens
 3580 023c E5080000 		.word	.LC218
 3581 0240 F1080000 		.word	.LC220
 3582 0244 FA080000 		.word	.LC222
 3583 0248 FC080000 		.word	.LC224
 3584 024c 03090000 		.word	.LC226
 3585 0250 05090000 		.word	.LC228
 3586 0254 0C090000 		.word	.LC230
 3587 0258 C7080000 		.word	.LC203
 3588 025c CB080000 		.word	.LC205
 3589 0260 D3080000 		.word	.LC207
 3590 0264 D7080000 		.word	.LC209
 3591 0268 DC080000 		.word	.LC211
 3592 026c 12090000 		.word	.LC237
 3593 0270 18090000 		.word	.LC239
 3594              		.cfi_endproc
 3595              	.LFE41:
 3596              		.size	validateDestinationAndParse, .-validateDestinationAndParse
 3597              		.section	.text.comm_handle_Get,"ax",%progbits
 3598              		.align	1
 3599              		.global	comm_handle_Get
 3600              		.code	16
 3601              		.thumb_func
 3602              		.type	comm_handle_Get, %function
 3603              	comm_handle_Get:
 3604              	.LFB42:
 283:.\Generated_Source\PSoC4/comm.c **** comm_flags_t comm_handle_Get(comm_flags_t flags, const char *payload, int payloadLen, jsmntok_t *to
 3605              		.loc 1 283 0
 3606              		.cfi_startproc
 3607              	.LVL551:
 3608 0000 08B5     		push	{r3, lr}
 3609              		.cfi_def_cfa_offset 8
 3610              		.cfi_offset 3, -8
 3611              		.cfi_offset 14, -4
 284:.\Generated_Source\PSoC4/comm.c ****   switch(flags) {
 3612              		.loc 1 284 0
 3613 0002 0128     		cmp	r0, #1
 3614 0004 04D1     		bne	.L310
 3615 0006 081C     		mov	r0, r1
 3616              	.LVL552:
 3617 0008 191C     		mov	r1, r3
 3618              	.LVL553:
 3619 000a FFF7FEFF 		bl	comm_handle_Get.part.1
ARM GAS  C:\Users\SDEVAS~1\AppData\Local\Temp\ccPhqTSe.s 			page 78


 3620              	.LVL554:
 3621 000e 00E0     		b	.L307
 3622              	.LVL555:
 3623              	.L310:
 288:.\Generated_Source\PSoC4/comm.c ****   default: return COMM_FLAG_UNKNOWN;//we only handle REQ and ACK
 3624              		.loc 1 288 0
 3625 0010 0020     		mov	r0, #0
 3626              	.LVL556:
 3627              	.L307:
 337:.\Generated_Source\PSoC4/comm.c **** }
 3628              		.loc 1 337 0
 3629              		@ sp needed
 3630 0012 08BD     		pop	{r3, pc}
 3631              		.cfi_endproc
 3632              	.LFE42:
 3633              		.size	comm_handle_Get, .-comm_handle_Get
 3634              		.section	.text.comm_handle_Set,"ax",%progbits
 3635              		.align	1
 3636              		.global	comm_handle_Set
 3637              		.code	16
 3638              		.thumb_func
 3639              		.type	comm_handle_Set, %function
 3640              	comm_handle_Set:
 3641              	.LFB43:
 339:.\Generated_Source\PSoC4/comm.c **** comm_flags_t comm_handle_Set(comm_flags_t flags, const char *payload, int payloadLen, jsmntok_t *to
 3642              		.loc 1 339 0
 3643              		.cfi_startproc
 3644              	.LVL557:
 3645 0000 08B5     		push	{r3, lr}
 3646              		.cfi_def_cfa_offset 8
 3647              		.cfi_offset 3, -8
 3648              		.cfi_offset 14, -4
 342:.\Generated_Source\PSoC4/comm.c **** 		return COMM_FLAG_UNKNOWN;
 3649              		.loc 1 342 0
 3650 0002 0022     		mov	r2, #0
 3651              	.LVL558:
 340:.\Generated_Source\PSoC4/comm.c **** 	if(flags != COMM_FLAG_REQ) {
 3652              		.loc 1 340 0
 3653 0004 0128     		cmp	r0, #1
 3654 0006 04D1     		bne	.L312
 3655 0008 081C     		mov	r0, r1
 3656              	.LVL559:
 3657 000a 191C     		mov	r1, r3
 3658              	.LVL560:
 3659 000c FFF7FEFF 		bl	comm_handle_Set.part.2
 3660              	.LVL561:
 3661 0010 021C     		mov	r2, r0
 3662              	.L312:
 397:.\Generated_Source\PSoC4/comm.c **** }
 3663              		.loc 1 397 0
 3664 0012 101C     		mov	r0, r2
 3665              		@ sp needed
 3666 0014 08BD     		pop	{r3, pc}
 3667              		.cfi_endproc
 3668              	.LFE43:
 3669              		.size	comm_handle_Set, .-comm_handle_Set
 3670              		.section	.text.comm_handle_Info,"ax",%progbits
ARM GAS  C:\Users\SDEVAS~1\AppData\Local\Temp\ccPhqTSe.s 			page 79


 3671              		.align	1
 3672              		.global	comm_handle_Info
 3673              		.code	16
 3674              		.thumb_func
 3675              		.type	comm_handle_Info, %function
 3676              	comm_handle_Info:
 3677              	.LFB44:
 399:.\Generated_Source\PSoC4/comm.c **** comm_flags_t comm_handle_Info(comm_flags_t flags, const char *payload, int payloadLen, jsmntok_t *t
 3678              		.loc 1 399 0
 3679              		.cfi_startproc
 3680              	.LVL562:
 3681 0000 08B5     		push	{r3, lr}
 3682              		.cfi_def_cfa_offset 8
 3683              		.cfi_offset 3, -8
 3684              		.cfi_offset 14, -4
 399:.\Generated_Source\PSoC4/comm.c **** comm_flags_t comm_handle_Info(comm_flags_t flags, const char *payload, int payloadLen, jsmntok_t *t
 3685              		.loc 1 399 0
 3686 0002 031C     		mov	r3, r0
 3687              	.LVL563:
 407:.\Generated_Source\PSoC4/comm.c **** 	return COMM_FLAG_UNKNOWN;
 3688              		.loc 1 407 0
 3689 0004 0020     		mov	r0, #0
 3690              	.LVL564:
 400:.\Generated_Source\PSoC4/comm.c **** 	if(flags == COMM_FLAG_UNKNOWN) {
 3691              		.loc 1 400 0
 3692 0006 8342     		cmp	r3, r0
 3693 0008 01D1     		bne	.L315
 3694 000a FFF7FEFF 		bl	comm_handle_Info.part.3
 3695              	.LVL565:
 3696              	.L315:
 408:.\Generated_Source\PSoC4/comm.c **** }
 3697              		.loc 1 408 0
 3698              		@ sp needed
 3699 000e 08BD     		pop	{r3, pc}
 3700              		.cfi_endproc
 3701              	.LFE44:
 3702              		.size	comm_handle_Info, .-comm_handle_Info
 3703              		.section	.text.comm_handle_Status,"ax",%progbits
 3704              		.align	1
 3705              		.global	comm_handle_Status
 3706              		.code	16
 3707              		.thumb_func
 3708              		.type	comm_handle_Status, %function
 3709              	comm_handle_Status:
 3710              	.LFB45:
 409:.\Generated_Source\PSoC4/comm.c **** comm_flags_t comm_handle_Status(comm_flags_t flags, const char *payload, int payloadLen, jsmntok_t 
 3711              		.loc 1 409 0
 3712              		.cfi_startproc
 3713              	.LVL566:
 3714 0000 10B5     		push	{r4, lr}
 3715              		.cfi_def_cfa_offset 8
 3716              		.cfi_offset 4, -8
 3717              		.cfi_offset 14, -4
 418:.\Generated_Source\PSoC4/comm.c **** 	return COMM_FLAG_UNKNOWN;
 3718              		.loc 1 418 0
 3719 0002 0023     		mov	r3, #0
 3720              	.LVL567:
ARM GAS  C:\Users\SDEVAS~1\AppData\Local\Temp\ccPhqTSe.s 			page 80


 410:.\Generated_Source\PSoC4/comm.c **** 	if(flags == COMM_FLAG_REQ) {
 3721              		.loc 1 410 0
 3722 0004 0128     		cmp	r0, #1
 3723 0006 19D1     		bne	.L318
 412:.\Generated_Source\PSoC4/comm.c **** 		ADD_STATIC_STRING_TO_RESP(",\"payload\":{\"oa\":[");
 3724              		.loc 1 412 0
 3725 0008 0D4C     		ldr	r4, .L320
 3726 000a 0E49     		ldr	r1, .L320+4
 3727              	.LVL568:
 3728 000c 1322     		mov	r2, #19
 3729              	.LVL569:
 3730 000e 2068     		ldr	r0, [r4]
 3731              	.LVL570:
 3732 0010 FFF7FEFF 		bl	memcpy
 3733              	.LVL571:
 3734 0014 2368     		ldr	r3, [r4]
 3735 0016 1233     		add	r3, r3, #18
 3736 0018 2360     		str	r3, [r4]
 3737 001a 6368     		ldr	r3, [r4, #4]
 3738 001c 123B     		sub	r3, r3, #18
 3739 001e 6360     		str	r3, [r4, #4]
 413:.\Generated_Source\PSoC4/comm.c **** 		comm_GenerateInfo();
 3740              		.loc 1 413 0
 3741 0020 FFF7FEFF 		bl	comm_GenerateInfo
 3742              	.LVL572:
 414:.\Generated_Source\PSoC4/comm.c **** 		ADD_STATIC_STRING_TO_RESP("]}");
 3743              		.loc 1 414 0
 3744 0024 2068     		ldr	r0, [r4]
 3745 0026 0849     		ldr	r1, .L320+8
 3746 0028 0322     		mov	r2, #3
 3747 002a FFF7FEFF 		bl	memcpy
 3748              	.LVL573:
 3749 002e 2368     		ldr	r3, [r4]
 3750 0030 0233     		add	r3, r3, #2
 3751 0032 2360     		str	r3, [r4]
 3752 0034 6368     		ldr	r3, [r4, #4]
 3753 0036 023B     		sub	r3, r3, #2
 3754 0038 6360     		str	r3, [r4, #4]
 415:.\Generated_Source\PSoC4/comm.c **** 		return COMM_FLAG_REQ_ACK;
 3755              		.loc 1 415 0
 3756 003a 0323     		mov	r3, #3
 3757              	.L318:
 419:.\Generated_Source\PSoC4/comm.c **** }
 3758              		.loc 1 419 0
 3759 003c 181C     		mov	r0, r3
 3760              		@ sp needed
 3761 003e 10BD     		pop	{r4, pc}
 3762              	.L321:
 3763              		.align	2
 3764              	.L320:
 3765 0040 00000000 		.word	.LANCHOR0
 3766 0044 A6080000 		.word	.LC194
 3767 0048 B9080000 		.word	.LC196
 3768              		.cfi_endproc
 3769              	.LFE45:
 3770              		.size	comm_handle_Status, .-comm_handle_Status
 3771              		.section	.text.comm_handle_Mode,"ax",%progbits
ARM GAS  C:\Users\SDEVAS~1\AppData\Local\Temp\ccPhqTSe.s 			page 81


 3772              		.align	1
 3773              		.global	comm_handle_Mode
 3774              		.code	16
 3775              		.thumb_func
 3776              		.type	comm_handle_Mode, %function
 3777              	comm_handle_Mode:
 3778              	.LFB46:
 421:.\Generated_Source\PSoC4/comm.c **** comm_flags_t comm_handle_Mode(comm_flags_t flags, const char *payload, int payloadLen, jsmntok_t *t
 3779              		.loc 1 421 0
 3780              		.cfi_startproc
 3781              	.LVL574:
 3782 0000 10B5     		push	{r4, lr}
 3783              		.cfi_def_cfa_offset 8
 3784              		.cfi_offset 4, -8
 3785              		.cfi_offset 14, -4
 440:.\Generated_Source\PSoC4/comm.c **** 	return COMM_FLAG_UNKNOWN;
 3786              		.loc 1 440 0
 3787 0002 0023     		mov	r3, #0
 3788              	.LVL575:
 422:.\Generated_Source\PSoC4/comm.c **** 	if(flags == COMM_FLAG_REQ) {
 3789              		.loc 1 422 0
 3790 0004 0128     		cmp	r0, #1
 3791 0006 18D1     		bne	.L323
 3792              	.LBB38:
 425:.\Generated_Source\PSoC4/comm.c **** 		atom_modes_t mode = get_atom_mode_from_string(payload, payloadLen);
 3793              		.loc 1 425 0
 3794 0008 081C     		mov	r0, r1
 3795              	.LVL576:
 3796 000a 111C     		mov	r1, r2
 3797              	.LVL577:
 3798 000c FFF7FEFF 		bl	get_atom_mode_from_string
 3799              	.LVL578:
 427:.\Generated_Source\PSoC4/comm.c **** 		if(mode == INVALID_ATOM_MODE) {
 3800              		.loc 1 427 0
 3801 0010 0528     		cmp	r0, #5
 3802 0012 0FD0     		beq	.L324
 432:.\Generated_Source\PSoC4/comm.c **** 		comm_ModeChange(mode);
 3803              		.loc 1 432 0
 3804 0014 FFF7FEFF 		bl	comm_ModeChange
 3805              	.LVL579:
 434:.\Generated_Source\PSoC4/comm.c **** 		ADD_STATIC_STRING_TO_RESP(",\"payload\":null");
 3806              		.loc 1 434 0
 3807 0018 094C     		ldr	r4, .L326
 3808 001a 0A49     		ldr	r1, .L326+4
 3809 001c 2068     		ldr	r0, [r4]
 3810 001e 1022     		mov	r2, #16
 3811 0020 FFF7FEFF 		bl	memcpy
 3812              	.LVL580:
 3813 0024 2368     		ldr	r3, [r4]
 3814 0026 0F33     		add	r3, r3, #15
 3815 0028 2360     		str	r3, [r4]
 3816 002a 6368     		ldr	r3, [r4, #4]
 3817 002c 0F3B     		sub	r3, r3, #15
 3818 002e 6360     		str	r3, [r4, #4]
 435:.\Generated_Source\PSoC4/comm.c **** 		return COMM_FLAG_ACK;
 3819              		.loc 1 435 0
 3820 0030 0223     		mov	r3, #2
ARM GAS  C:\Users\SDEVAS~1\AppData\Local\Temp\ccPhqTSe.s 			page 82


 3821 0032 02E0     		b	.L323
 3822              	.LVL581:
 3823              	.L324:
 3824              	.LBE38:
 3825 0034 FFF7FEFF 		bl	comm_handle_Mode.part.4
 3826              	.LVL582:
 3827 0038 031C     		mov	r3, r0
 3828              	.L323:
 441:.\Generated_Source\PSoC4/comm.c **** }
 3829              		.loc 1 441 0
 3830 003a 181C     		mov	r0, r3
 3831              		@ sp needed
 3832 003c 10BD     		pop	{r4, pc}
 3833              	.L327:
 3834 003e C046     		.align	2
 3835              	.L326:
 3836 0040 00000000 		.word	.LANCHOR0
 3837 0044 8B080000 		.word	.LC177
 3838              		.cfi_endproc
 3839              	.LFE46:
 3840              		.size	comm_handle_Mode, .-comm_handle_Mode
 3841              		.section	.text.comm_Init,"ax",%progbits
 3842              		.align	1
 3843              		.global	comm_Init
 3844              		.code	16
 3845              		.thumb_func
 3846              		.type	comm_Init, %function
 3847              	comm_Init:
 3848              	.LFB56:
 493:.\Generated_Source\PSoC4/comm.c **** void comm_Init(void) {
 3849              		.loc 1 493 0
 3850              		.cfi_startproc
 3851 0000 70B5     		push	{r4, r5, r6, lr}
 3852              		.cfi_def_cfa_offset 16
 3853              		.cfi_offset 4, -16
 3854              		.cfi_offset 5, -12
 3855              		.cfi_offset 6, -8
 3856              		.cfi_offset 14, -4
 494:.\Generated_Source\PSoC4/comm.c **** 	memset(&comm, 0, sizeof(comm));
 3857              		.loc 1 494 0
 3858 0002 104C     		ldr	r4, .L329
 3859 0004 A222     		mov	r2, #162
 3860 0006 0021     		mov	r1, #0
 3861 0008 5200     		lsl	r2, r2, #1
 3862 000a 201C     		mov	r0, r4
 3863 000c FFF7FEFF 		bl	memset
 3864              	.LVL583:
 497:.\Generated_Source\PSoC4/comm.c ****     comm_RS485_SetCallbackOnSelectedAsSlave(rs485_selected_as_slave_callback);
 3865              		.loc 1 497 0
 3866 0010 0D48     		ldr	r0, .L329+4
 3867 0012 FFF7FEFF 		bl	comm_RS485_SetCallbackOnSelectedAsSlave
 3868              	.LVL584:
 498:.\Generated_Source\PSoC4/comm.c ****     comm_RS485_SetCallbackOnReleasedAsSlave(rs485_released_as_slave_callback);
 3869              		.loc 1 498 0
 3870 0016 0D48     		ldr	r0, .L329+8
 3871 0018 FFF7FEFF 		bl	comm_RS485_SetCallbackOnReleasedAsSlave
 3872              	.LVL585:
ARM GAS  C:\Users\SDEVAS~1\AppData\Local\Temp\ccPhqTSe.s 			page 83


 499:.\Generated_Source\PSoC4/comm.c ****     comm_RS485_SetCallbackOnSlaveReceive(rs485_receive_callback, comm.recvBuff, RECV_BUFF_LEN);
 3873              		.loc 1 499 0
 3874 001c 9625     		mov	r5, #150
 3875 001e 0C4E     		ldr	r6, .L329+12
 3876 0020 6D00     		lsl	r5, r5, #1
 3877 0022 301C     		mov	r0, r6
 3878 0024 2A1C     		mov	r2, r5
 3879 0026 211C     		mov	r1, r4
 3880 0028 FFF7FEFF 		bl	comm_RS485_SetCallbackOnSlaveReceive
 3881              	.LVL586:
 500:.\Generated_Source\PSoC4/comm.c ****     comm_RS485_SetCallbackOnMasterReceive(rs485_receive_callback, comm.recvBuff, RECV_BUFF_LEN);
 3882              		.loc 1 500 0
 3883 002c 2A1C     		mov	r2, r5
 3884 002e 301C     		mov	r0, r6
 3885 0030 211C     		mov	r1, r4
 3886 0032 FFF7FEFF 		bl	comm_RS485_SetCallbackOnMasterReceive
 3887              	.LVL587:
 501:.\Generated_Source\PSoC4/comm.c ****     comm_RS485_SetCallbackOnWake(rs485_wake_callback);
 3888              		.loc 1 501 0
 3889 0036 0748     		ldr	r0, .L329+16
 3890 0038 FFF7FEFF 		bl	comm_RS485_SetCallbackOnWake
 3891              	.LVL588:
 504:.\Generated_Source\PSoC4/comm.c **** }
 3892              		.loc 1 504 0
 3893              		@ sp needed
 503:.\Generated_Source\PSoC4/comm.c ****     comm_RS485_Init();
 3894              		.loc 1 503 0
 3895 003c FFF7FEFF 		bl	comm_RS485_Init
 3896              	.LVL589:
 504:.\Generated_Source\PSoC4/comm.c **** }
 3897              		.loc 1 504 0
 3898 0040 70BD     		pop	{r4, r5, r6, pc}
 3899              	.L330:
 3900 0042 C046     		.align	2
 3901              	.L329:
 3902 0044 00000000 		.word	comm
 3903 0048 00000000 		.word	rs485_selected_as_slave_callback
 3904 004c 00000000 		.word	rs485_released_as_slave_callback
 3905 0050 00000000 		.word	rs485_receive_callback
 3906 0054 00000000 		.word	rs485_wake_callback
 3907              		.cfi_endproc
 3908              	.LFE56:
 3909              		.size	comm_Init, .-comm_Init
 3910              		.section	.text.comm_ScheduleMessage,"ax",%progbits
 3911              		.align	1
 3912              		.global	comm_ScheduleMessage
 3913              		.code	16
 3914              		.thumb_func
 3915              		.type	comm_ScheduleMessage, %function
 3916              	comm_ScheduleMessage:
 3917              	.LFB57:
 506:.\Generated_Source\PSoC4/comm.c **** void comm_ScheduleMessage(const char *order, int orderLen, char atomType, char atomID) {
 3918              		.loc 1 506 0
 3919              		.cfi_startproc
 3920              	.LVL590:
 3921 0000 38B5     		push	{r3, r4, r5, lr}
 3922              		.cfi_def_cfa_offset 16
ARM GAS  C:\Users\SDEVAS~1\AppData\Local\Temp\ccPhqTSe.s 			page 84


 3923              		.cfi_offset 3, -16
 3924              		.cfi_offset 4, -12
 3925              		.cfi_offset 5, -8
 3926              		.cfi_offset 14, -4
 507:.\Generated_Source\PSoC4/comm.c **** 	comm.schedOrder = order;
 3927              		.loc 1 507 0
 3928 0002 0E4C     		ldr	r4, .L334
 3929 0004 251C     		mov	r5, r4
 3930 0006 FC35     		add	r5, r5, #252
 3931 0008 E863     		str	r0, [r5, #60]
 508:.\Generated_Source\PSoC4/comm.c **** 	comm.schedOrderLen = orderLen;
 3932              		.loc 1 508 0
 3933 000a 2964     		str	r1, [r5, #64]
 509:.\Generated_Source\PSoC4/comm.c **** 	comm.schedAddr = atomType == 'X' ? comm_RS485_Protocol_ARB_ADDRESS : jsonAddressToRS(atomType, ato
 3934              		.loc 1 509 0
 3935 000c 582A     		cmp	r2, #88
 3936 000e 08D0     		beq	.L333
 3937              	.LVL591:
 3938              	.LBB41:
 3939              	.LBB42:
 444:.\Generated_Source\PSoC4/comm.c **** 	return (((atomType - 'A')&0x1f) << 3) | ((atomID - '0')&0x07);
 3940              		.loc 1 444 0
 3941 0010 111C     		mov	r1, r2
 3942              	.LVL592:
 3943 0012 4139     		sub	r1, r1, #65
 3944 0014 FF20     		mov	r0, #255
 3945              	.LVL593:
 3946 0016 C900     		lsl	r1, r1, #3
 3947 0018 0140     		and	r1, r0
 3948 001a 0720     		mov	r0, #7
 3949 001c 1840     		and	r0, r3
 3950 001e 0143     		orr	r1, r0
 3951              	.LBE42:
 3952              	.LBE41:
 3953 0020 00E0     		b	.L332
 3954              	.LVL594:
 3955              	.L333:
 509:.\Generated_Source\PSoC4/comm.c **** 	comm.schedAddr = atomType == 'X' ? comm_RS485_Protocol_ARB_ADDRESS : jsonAddressToRS(atomType, ato
 3956              		.loc 1 509 0
 3957 0022 0121     		mov	r1, #1
 3958              	.LVL595:
 3959              	.L332:
 509:.\Generated_Source\PSoC4/comm.c **** 	comm.schedAddr = atomType == 'X' ? comm_RS485_Protocol_ARB_ADDRESS : jsonAddressToRS(atomType, ato
 3960              		.loc 1 509 0 is_stmt 0 discriminator 3
 3961 0024 FC34     		add	r4, r4, #252
 3962 0026 6164     		str	r1, [r4, #68]
 510:.\Generated_Source\PSoC4/comm.c **** 	*msgDestinationHolderAtomType = atomType;
 3963              		.loc 1 510 0 is_stmt 1 discriminator 3
 3964 0028 0549     		ldr	r1, .L334+4
 514:.\Generated_Source\PSoC4/comm.c **** }
 3965              		.loc 1 514 0 discriminator 3
 3966              		@ sp needed
 510:.\Generated_Source\PSoC4/comm.c **** 	*msgDestinationHolderAtomType = atomType;
 3967              		.loc 1 510 0 discriminator 3
 3968 002a 8868     		ldr	r0, [r1, #8]
 3969 002c 0270     		strb	r2, [r0]
 3970              	.LVL596:
ARM GAS  C:\Users\SDEVAS~1\AppData\Local\Temp\ccPhqTSe.s 			page 85


 511:.\Generated_Source\PSoC4/comm.c **** 	*msgDestinationHolderAtomId = atomID;
 3971              		.loc 1 511 0 discriminator 3
 3972 002e CA68     		ldr	r2, [r1, #12]
 3973              	.LVL597:
 513:.\Generated_Source\PSoC4/comm.c **** 	comm_RS485_RequestBus(rs485_bus_granted_callback);
 3974              		.loc 1 513 0 discriminator 3
 3975 0030 0448     		ldr	r0, .L334+8
 3976              	.LVL598:
 511:.\Generated_Source\PSoC4/comm.c **** 	*msgDestinationHolderAtomId = atomID;
 3977              		.loc 1 511 0 discriminator 3
 3978 0032 1370     		strb	r3, [r2]
 513:.\Generated_Source\PSoC4/comm.c **** 	comm_RS485_RequestBus(rs485_bus_granted_callback);
 3979              		.loc 1 513 0 discriminator 3
 3980 0034 FFF7FEFF 		bl	comm_RS485_RequestBus
 3981              	.LVL599:
 514:.\Generated_Source\PSoC4/comm.c **** }
 3982              		.loc 1 514 0 discriminator 3
 3983 0038 38BD     		pop	{r3, r4, r5, pc}
 3984              	.L335:
 3985 003a C046     		.align	2
 3986              	.L334:
 3987 003c 00000000 		.word	comm
 3988 0040 00000000 		.word	.LANCHOR0
 3989 0044 00000000 		.word	rs485_bus_granted_callback
 3990              		.cfi_endproc
 3991              	.LFE57:
 3992              		.size	comm_ScheduleMessage, .-comm_ScheduleMessage
 3993              		.section	.text.comm_Handler,"ax",%progbits
 3994              		.align	1
 3995              		.global	comm_Handler
 3996              		.code	16
 3997              		.thumb_func
 3998              		.type	comm_Handler, %function
 3999              	comm_Handler:
 4000              	.LFB59:
 527:.\Generated_Source\PSoC4/comm.c **** 
 528:.\Generated_Source\PSoC4/comm.c **** void comm_Handler(void) {
 4001              		.loc 1 528 0
 4002              		.cfi_startproc
 4003 0000 F0B5     		push	{r4, r5, r6, r7, lr}
 4004              		.cfi_def_cfa_offset 20
 4005              		.cfi_offset 4, -20
 4006              		.cfi_offset 5, -16
 4007              		.cfi_offset 6, -12
 4008              		.cfi_offset 7, -8
 4009              		.cfi_offset 14, -4
 529:.\Generated_Source\PSoC4/comm.c **** 	static int error_counter = 0;
 530:.\Generated_Source\PSoC4/comm.c **** 	static int timeout_counter = 0;
 531:.\Generated_Source\PSoC4/comm.c **** 	if(comm.flags.RECV) {
 4010              		.loc 1 531 0
 4011 0002 9823     		mov	r3, #152
 4012 0004 A94D     		ldr	r5, .L382
 4013 0006 5B00     		lsl	r3, r3, #1
 4014 0008 EA5C     		ldrb	r2, [r5, r3]
 528:.\Generated_Source\PSoC4/comm.c **** void comm_Handler(void) {
 4015              		.loc 1 528 0
 4016 000a 85B0     		sub	sp, sp, #20
ARM GAS  C:\Users\SDEVAS~1\AppData\Local\Temp\ccPhqTSe.s 			page 86


 4017              		.cfi_def_cfa_offset 40
 4018              		.loc 1 531 0
 4019 000c D107     		lsl	r1, r2, #31
 4020 000e 00D4     		bmi	.LCB4305
 4021 0010 B3E0     		b	.L337	@long jump
 4022              	.LCB4305:
 532:.\Generated_Source\PSoC4/comm.c **** 		//stop resending
 533:.\Generated_Source\PSoC4/comm.c **** 		comm.flags.SENT = 0;
 4023              		.loc 1 533 0
 4024 0012 0221     		mov	r1, #2
 4025 0014 8A43     		bic	r2, r1
 4026 0016 EA54     		strb	r2, [r5, r3]
 534:.\Generated_Source\PSoC4/comm.c **** 		//recv message
 535:.\Generated_Source\PSoC4/comm.c **** 		if(validateDestinationAndParse(comm.recvBuff, comm.len) == JSON_MSG_PARSE_OK) {
 4027              		.loc 1 535 0
 4028 0018 2B1C     		mov	r3, r5
 4029 001a FC33     		add	r3, r3, #252
 4030 001c 196B     		ldr	r1, [r3, #48]
 4031 001e 281C     		mov	r0, r5
 4032 0020 FFF7FEFF 		bl	validateDestinationAndParse
 4033              	.LVL600:
 4034 0024 0028     		cmp	r0, #0
 4035 0026 00D0     		beq	.LCB4316
 4036 0028 A1E0     		b	.L339	@long jump
 4037              	.LCB4316:
 536:.\Generated_Source\PSoC4/comm.c **** 			if(flags == COMM_FLAG_NACK) {
 4038              		.loc 1 536 0
 4039 002a A14C     		ldr	r4, .L382+4
 4040 002c 237D     		ldrb	r3, [r4, #20]
 4041 002e 042B     		cmp	r3, #4
 4042 0030 07D1     		bne	.L340
 537:.\Generated_Source\PSoC4/comm.c **** 				//we are in session, but receivied NACK increease error counter
 538:.\Generated_Source\PSoC4/comm.c **** 				if(error_counter++ < 3) {
 4043              		.loc 1 538 0
 4044 0032 636B     		ldr	r3, [r4, #52]
 4045 0034 5A1C     		add	r2, r3, #1
 4046 0036 6263     		str	r2, [r4, #52]
 4047 0038 022B     		cmp	r3, #2
 4048 003a 00DD     		ble	.LCB4325
 4049 003c 97E0     		b	.L339	@long jump
 4050              	.LCB4325:
 539:.\Generated_Source\PSoC4/comm.c **** 					//resend message
 540:.\Generated_Source\PSoC4/comm.c **** 					comm_RS485_SendFrame(respBuff, RESP_BUFF_LEN - respFreeSpace, rs485_frame_sent_callback);
 4051              		.loc 1 540 0
 4052 003e 9D4B     		ldr	r3, .L382+8
 4053 0040 84E0     		b	.L349
 4054              	.L340:
 4055              	.LBB61:
 541:.\Generated_Source\PSoC4/comm.c **** 				}
 542:.\Generated_Source\PSoC4/comm.c **** 			} else {
 543:.\Generated_Source\PSoC4/comm.c **** 				//reset error & timeout counter
 544:.\Generated_Source\PSoC4/comm.c **** 				error_counter = 0;
 545:.\Generated_Source\PSoC4/comm.c **** 				timeout_counter = 0;
 546:.\Generated_Source\PSoC4/comm.c **** 				resp_GenDestSrcOrder(msgSource, msgSourceLen, msgDest, msgDestLen, order, orderLen);
 4056              		.loc 1 546 0
 4057 0042 2269     		ldr	r2, [r4, #16]
 544:.\Generated_Source\PSoC4/comm.c **** 				error_counter = 0;
ARM GAS  C:\Users\SDEVAS~1\AppData\Local\Temp\ccPhqTSe.s 			page 87


 4058              		.loc 1 544 0
 4059 0044 6063     		str	r0, [r4, #52]
 545:.\Generated_Source\PSoC4/comm.c **** 				timeout_counter = 0;
 4060              		.loc 1 545 0
 4061 0046 A063     		str	r0, [r4, #56]
 4062              		.loc 1 546 0
 4063 0048 0092     		str	r2, [sp]
 4064 004a E36A     		ldr	r3, [r4, #44]
 547:.\Generated_Source\PSoC4/comm.c **** 
 548:.\Generated_Source\PSoC4/comm.c **** 				jsmn_init(&parser);
 4065              		.loc 1 548 0
 4066 004c 271C     		mov	r7, r4
 546:.\Generated_Source\PSoC4/comm.c **** 				resp_GenDestSrcOrder(msgSource, msgSourceLen, msgDest, msgDestLen, order, orderLen);
 4067              		.loc 1 546 0
 4068 004e 0193     		str	r3, [sp, #4]
 4069 0050 A16A     		ldr	r1, [r4, #40]
 4070 0052 6268     		ldr	r2, [r4, #4]
 4071 0054 636A     		ldr	r3, [r4, #36]
 4072 0056 A068     		ldr	r0, [r4, #8]
 4073              		.loc 1 548 0
 4074 0058 1837     		add	r7, r7, #24
 546:.\Generated_Source\PSoC4/comm.c **** 				resp_GenDestSrcOrder(msgSource, msgSourceLen, msgDest, msgDestLen, order, orderLen);
 4075              		.loc 1 546 0
 4076 005a FFF7FEFF 		bl	resp_GenDestSrcOrder
 4077              	.LVL601:
 4078              		.loc 1 548 0
 4079 005e 381C     		mov	r0, r7
 4080 0060 FFF7FEFF 		bl	jsmn_init
 4081              	.LVL602:
 549:.\Generated_Source\PSoC4/comm.c **** 				int r = jsmn_parse(&parser, payload, payloadLen, tokens, JSMN_TOKENS_SIZE);
 4082              		.loc 1 549 0
 4083 0064 944E     		ldr	r6, .L382+12
 4084 0066 3C23     		mov	r3, #60
 4085 0068 0093     		str	r3, [sp]
 4086 006a 381C     		mov	r0, r7
 4087 006c E168     		ldr	r1, [r4, #12]
 4088 006e 226B     		ldr	r2, [r4, #48]
 4089 0070 331C     		mov	r3, r6
 4090 0072 FFF7FEFF 		bl	jsmn_parse
 4091              	.LVL603:
 4092 0076 0390     		str	r0, [sp, #12]
 4093              	.LVL604:
 550:.\Generated_Source\PSoC4/comm.c **** 				if(r > 0) {
 4094              		.loc 1 550 0
 4095 0078 0028     		cmp	r0, #0
 4096 007a 78DD     		ble	.L339
 4097              	.LVL605:
 4098              	.LBB62:
 551:.\Generated_Source\PSoC4/comm.c **** 					comm_flags_t retflag = COMM_FLAG_UNKNOWN;
 552:.\Generated_Source\PSoC4/comm.c **** 
 553:.\Generated_Source\PSoC4/comm.c **** 					if(strncmp(order, "Set", orderLen) == 0) {
 4099              		.loc 1 553 0
 4100 007c E16A     		ldr	r1, [r4, #44]
 4101 007e 2769     		ldr	r7, [r4, #16]
 4102 0080 0291     		str	r1, [sp, #8]
 4103 0082 381C     		mov	r0, r7
 4104              	.LVL606:
ARM GAS  C:\Users\SDEVAS~1\AppData\Local\Temp\ccPhqTSe.s 			page 88


 4105 0084 8D49     		ldr	r1, .L382+16
 4106 0086 029A     		ldr	r2, [sp, #8]
 4107 0088 FFF7FEFF 		bl	strncmp
 4108              	.LVL607:
 4109 008c 0028     		cmp	r0, #0
 4110 008e 07D1     		bne	.L342
 4111              	.LBB63:
 4112              	.LBB64:
 340:.\Generated_Source\PSoC4/comm.c **** 	if(flags != COMM_FLAG_REQ) {
 4113              		.loc 1 340 0
 4114 0090 237D     		ldrb	r3, [r4, #20]
 4115              	.LBE64:
 4116              	.LBE63:
 554:.\Generated_Source\PSoC4/comm.c **** 						retflag = comm_handle_Set(flags, payload, payloadLen, tokens, r);
 4117              		.loc 1 554 0
 4118 0092 E068     		ldr	r0, [r4, #12]
 4119              	.LVL608:
 4120              	.LBB66:
 4121              	.LBB65:
 340:.\Generated_Source\PSoC4/comm.c **** 	if(flags != COMM_FLAG_REQ) {
 4122              		.loc 1 340 0
 4123 0094 012B     		cmp	r3, #1
 4124 0096 62D1     		bne	.L343
 4125 0098 311C     		mov	r1, r6
 4126 009a FFF7FEFF 		bl	comm_handle_Set.part.2
 4127              	.LVL609:
 4128 009e 3BE0     		b	.L381
 4129              	.LVL610:
 4130              	.L342:
 4131              	.LBE65:
 4132              	.LBE66:
 555:.\Generated_Source\PSoC4/comm.c **** 					} else if(strncmp(order, "Get", orderLen) == 0) {
 4133              		.loc 1 555 0
 4134 00a0 381C     		mov	r0, r7
 4135 00a2 8749     		ldr	r1, .L382+20
 4136 00a4 029A     		ldr	r2, [sp, #8]
 4137 00a6 FFF7FEFF 		bl	strncmp
 4138              	.LVL611:
 4139 00aa 0028     		cmp	r0, #0
 4140 00ac 08D1     		bne	.L345
 556:.\Generated_Source\PSoC4/comm.c **** 						retflag = comm_handle_Get(flags, payload, payloadLen, tokens, r);
 4141              		.loc 1 556 0
 4142 00ae 039B     		ldr	r3, [sp, #12]
 4143 00b0 207D     		ldrb	r0, [r4, #20]
 4144 00b2 E168     		ldr	r1, [r4, #12]
 4145 00b4 226B     		ldr	r2, [r4, #48]
 4146 00b6 0093     		str	r3, [sp]
 4147 00b8 331C     		mov	r3, r6
 4148 00ba FFF7FEFF 		bl	comm_handle_Get
 4149              	.LVL612:
 4150 00be 2BE0     		b	.L381
 4151              	.L345:
 557:.\Generated_Source\PSoC4/comm.c **** 					} else if(strncmp(order, "Info", orderLen) == 0) {
 4152              		.loc 1 557 0
 4153 00c0 381C     		mov	r0, r7
 4154 00c2 8049     		ldr	r1, .L382+24
 4155 00c4 029A     		ldr	r2, [sp, #8]
ARM GAS  C:\Users\SDEVAS~1\AppData\Local\Temp\ccPhqTSe.s 			page 89


 4156 00c6 FFF7FEFF 		bl	strncmp
 4157              	.LVL613:
 4158 00ca 0028     		cmp	r0, #0
 4159 00cc 05D1     		bne	.L346
 4160              	.LVL614:
 4161              	.LBB67:
 4162              	.LBB68:
 400:.\Generated_Source\PSoC4/comm.c **** 	if(flags == COMM_FLAG_UNKNOWN) {
 4163              		.loc 1 400 0
 4164 00ce 237D     		ldrb	r3, [r4, #20]
 4165 00d0 002B     		cmp	r3, #0
 4166 00d2 44D1     		bne	.L343
 4167 00d4 FFF7FEFF 		bl	comm_handle_Info.part.3
 4168              	.LVL615:
 4169 00d8 1EE0     		b	.L381
 4170              	.LVL616:
 4171              	.L346:
 4172              	.LBE68:
 4173              	.LBE67:
 558:.\Generated_Source\PSoC4/comm.c **** 						retflag = comm_handle_Info(flags, payload, payloadLen, tokens, r);
 559:.\Generated_Source\PSoC4/comm.c **** 					} else if(strncmp(order, "Status", orderLen) == 0) {
 4174              		.loc 1 559 0
 4175 00da 381C     		mov	r0, r7
 4176 00dc 7A49     		ldr	r1, .L382+28
 4177 00de 029A     		ldr	r2, [sp, #8]
 4178 00e0 FFF7FEFF 		bl	strncmp
 4179              	.LVL617:
 4180 00e4 0028     		cmp	r0, #0
 4181 00e6 08D1     		bne	.L347
 560:.\Generated_Source\PSoC4/comm.c **** 						retflag = comm_handle_Status(flags, payload, payloadLen, tokens, r);
 4182              		.loc 1 560 0
 4183 00e8 039B     		ldr	r3, [sp, #12]
 4184 00ea 207D     		ldrb	r0, [r4, #20]
 4185 00ec E168     		ldr	r1, [r4, #12]
 4186 00ee 226B     		ldr	r2, [r4, #48]
 4187 00f0 0093     		str	r3, [sp]
 4188 00f2 331C     		mov	r3, r6
 4189 00f4 FFF7FEFF 		bl	comm_handle_Status
 4190              	.LVL618:
 4191 00f8 0EE0     		b	.L381
 4192              	.L347:
 561:.\Generated_Source\PSoC4/comm.c **** 					} else if(strncmp(order, "Mode", orderLen) == 0) {
 4193              		.loc 1 561 0
 4194 00fa 381C     		mov	r0, r7
 4195 00fc 7349     		ldr	r1, .L382+32
 4196 00fe 029A     		ldr	r2, [sp, #8]
 4197 0100 FFF7FEFF 		bl	strncmp
 4198              	.LVL619:
 4199 0104 0028     		cmp	r0, #0
 4200 0106 2AD1     		bne	.L343
 562:.\Generated_Source\PSoC4/comm.c **** 						retflag = comm_handle_Mode(flags, payload, payloadLen, tokens, r);
 4201              		.loc 1 562 0
 4202 0108 039B     		ldr	r3, [sp, #12]
 4203 010a 207D     		ldrb	r0, [r4, #20]
 4204 010c E168     		ldr	r1, [r4, #12]
 4205 010e 226B     		ldr	r2, [r4, #48]
 4206 0110 0093     		str	r3, [sp]
ARM GAS  C:\Users\SDEVAS~1\AppData\Local\Temp\ccPhqTSe.s 			page 90


 4207 0112 331C     		mov	r3, r6
 4208 0114 FFF7FEFF 		bl	comm_handle_Mode
 4209              	.LVL620:
 4210              	.L381:
 4211 0118 041E     		sub	r4, r0, #0
 4212              	.LVL621:
 563:.\Generated_Source\PSoC4/comm.c **** 					}
 564:.\Generated_Source\PSoC4/comm.c **** 					#define X(OrderName) else if(strncmp(order, #OrderName, orderLen) == 0) { \
 565:.\Generated_Source\PSoC4/comm.c **** 						retflag = comm_handle_##OrderName(flags, payload, payloadLen, tokens, r); \
 566:.\Generated_Source\PSoC4/comm.c **** 					}
 567:.\Generated_Source\PSoC4/comm.c **** 					ATOM_ORDERS
 568:.\Generated_Source\PSoC4/comm.c **** 					#undef X
 569:.\Generated_Source\PSoC4/comm.c **** 
 570:.\Generated_Source\PSoC4/comm.c **** 					if(retflag != COMM_FLAG_UNKNOWN) {
 4213              		.loc 1 570 0
 4214 011a 20D0     		beq	.L343
 571:.\Generated_Source\PSoC4/comm.c **** 						//handler returned flag that indicates communication, we are adding it to overall payload, an
 572:.\Generated_Source\PSoC4/comm.c **** 						resp_AddFlags(retflag);
 4215              		.loc 1 572 0
 4216 011c FFF7FEFF 		bl	resp_AddFlags
 4217              	.LVL622:
 573:.\Generated_Source\PSoC4/comm.c **** 						ADD_CHAR_TO_RESP('}');
 4218              		.loc 1 573 0
 4219 0120 644B     		ldr	r3, .L382+8
 4220 0122 1A68     		ldr	r2, [r3]
 4221 0124 511C     		add	r1, r2, #1
 4222 0126 1960     		str	r1, [r3]
 4223 0128 7D21     		mov	r1, #125
 4224 012a 1170     		strb	r1, [r2]
 4225 012c 5A68     		ldr	r2, [r3, #4]
 574:.\Generated_Source\PSoC4/comm.c **** 
 575:.\Generated_Source\PSoC4/comm.c **** 						*respEnd = '\0';
 4226              		.loc 1 575 0
 4227 012e 1968     		ldr	r1, [r3]
 573:.\Generated_Source\PSoC4/comm.c **** 						ADD_CHAR_TO_RESP('}');
 4228              		.loc 1 573 0
 4229 0130 013A     		sub	r2, r2, #1
 4230 0132 5A60     		str	r2, [r3, #4]
 4231              		.loc 1 575 0
 4232 0134 0022     		mov	r2, #0
 4233 0136 0A70     		strb	r2, [r1]
 576:.\Generated_Source\PSoC4/comm.c **** 
 577:.\Generated_Source\PSoC4/comm.c **** 						if(retflag == COMM_FLAG_ACK || retflag == COMM_FLAG_NACK) {
 4234              		.loc 1 577 0
 4235 0138 022C     		cmp	r4, #2
 4236 013a 01D0     		beq	.L348
 4237              		.loc 1 577 0 is_stmt 0 discriminator 1
 4238 013c 042C     		cmp	r4, #4
 4239 013e 05D1     		bne	.L349
 4240              	.L348:
 578:.\Generated_Source\PSoC4/comm.c **** 							//this is final message from this atom
 579:.\Generated_Source\PSoC4/comm.c **** 							comm.flags.LAST_MSG = 1;
 4241              		.loc 1 579 0 is_stmt 1
 4242 0140 9822     		mov	r2, #152
 4243 0142 5200     		lsl	r2, r2, #1
 4244 0144 A95C     		ldrb	r1, [r5, r2]
 4245 0146 0820     		mov	r0, #8
ARM GAS  C:\Users\SDEVAS~1\AppData\Local\Temp\ccPhqTSe.s 			page 91


 4246 0148 0143     		orr	r1, r0
 4247 014a A954     		strb	r1, [r5, r2]
 4248              	.LVL623:
 4249              	.L349:
 580:.\Generated_Source\PSoC4/comm.c **** 						}
 581:.\Generated_Source\PSoC4/comm.c **** 
 582:.\Generated_Source\PSoC4/comm.c **** 						comm_RS485_SendFrame(respBuff, RESP_BUFF_LEN - respFreeSpace, rs485_frame_sent_callback);
 4250              		.loc 1 582 0
 4251 014c 5B68     		ldr	r3, [r3, #4]
 4252 014e 9621     		mov	r1, #150
 4253 0150 4900     		lsl	r1, r1, #1
 4254 0152 C91A     		sub	r1, r1, r3
 4255 0154 5E4A     		ldr	r2, .L382+36
 4256 0156 5F48     		ldr	r0, .L382+40
 4257 0158 FFF7FEFF 		bl	comm_RS485_SendFrame
 4258              	.LVL624:
 4259 015c 07E0     		b	.L339
 4260              	.LVL625:
 4261              	.L343:
 583:.\Generated_Source\PSoC4/comm.c **** 					} else {
 584:.\Generated_Source\PSoC4/comm.c **** 						//handler indicated that comm is over, if we are master, we should release the bus!
 585:.\Generated_Source\PSoC4/comm.c **** 						if(comm.flags.SLAVE == 0) {
 4262              		.loc 1 585 0
 4263 015e 9823     		mov	r3, #152
 4264 0160 5B00     		lsl	r3, r3, #1
 4265 0162 EB5C     		ldrb	r3, [r5, r3]
 4266 0164 5A07     		lsl	r2, r3, #29
 4267 0166 02D4     		bmi	.L339
 586:.\Generated_Source\PSoC4/comm.c **** 							comm_RS485_ReleaseSlave(rs485_slave_released_callback); //we can call this even if we are no
 4268              		.loc 1 586 0
 4269 0168 5B48     		ldr	r0, .L382+44
 4270 016a FFF7FEFF 		bl	comm_RS485_ReleaseSlave
 4271              	.LVL626:
 4272              	.L339:
 4273              	.LBE62:
 4274              	.LBE61:
 587:.\Generated_Source\PSoC4/comm.c **** 						}
 588:.\Generated_Source\PSoC4/comm.c **** 					}
 589:.\Generated_Source\PSoC4/comm.c **** 					//otherwise just wait for other events (another message or bus release?)
 590:.\Generated_Source\PSoC4/comm.c **** 				}
 591:.\Generated_Source\PSoC4/comm.c **** 			}
 592:.\Generated_Source\PSoC4/comm.c **** 		}
 593:.\Generated_Source\PSoC4/comm.c **** 		comm.flags.RECV = 0;
 4275              		.loc 1 593 0
 4276 016e 9823     		mov	r3, #152
 4277 0170 5B00     		lsl	r3, r3, #1
 4278 0172 EA5C     		ldrb	r2, [r5, r3]
 4279 0174 0121     		mov	r1, #1
 4280 0176 8A43     		bic	r2, r1
 4281 0178 EA54     		strb	r2, [r5, r3]
 4282              	.L337:
 594:.\Generated_Source\PSoC4/comm.c **** 	}
 595:.\Generated_Source\PSoC4/comm.c **** 	if(comm.flags.SENT) {
 4283              		.loc 1 595 0
 4284 017a 9826     		mov	r6, #152
 4285 017c 7600     		lsl	r6, r6, #1
 4286 017e AB5D     		ldrb	r3, [r5, r6]
ARM GAS  C:\Users\SDEVAS~1\AppData\Local\Temp\ccPhqTSe.s 			page 92


 4287 0180 9907     		lsl	r1, r3, #30
 4288 0182 23D5     		bpl	.L351
 596:.\Generated_Source\PSoC4/comm.c **** 		//message was sent,
 597:.\Generated_Source\PSoC4/comm.c **** 		if(timeout_counter > 2) {
 4289              		.loc 1 597 0
 4290 0184 4A4C     		ldr	r4, .L382+4
 4291 0186 A26B     		ldr	r2, [r4, #56]
 4292 0188 022A     		cmp	r2, #2
 4293 018a 08DD     		ble	.L352
 598:.\Generated_Source\PSoC4/comm.c **** 			//we are 3x timeouted, stop sending...
 599:.\Generated_Source\PSoC4/comm.c **** 			comm.flags.SENT = 0;
 4294              		.loc 1 599 0
 4295 018c 0222     		mov	r2, #2
 4296 018e 9343     		bic	r3, r2
 4297 0190 AB55     		strb	r3, [r5, r6]
 600:.\Generated_Source\PSoC4/comm.c **** 			//if we are MASTER here, well, release bus
 601:.\Generated_Source\PSoC4/comm.c **** 			if(comm.flags.SLAVE == 0) {
 4298              		.loc 1 601 0
 4299 0192 5907     		lsl	r1, r3, #29
 4300 0194 1AD4     		bmi	.L351
 602:.\Generated_Source\PSoC4/comm.c **** 				comm_RS485_ReleaseSlave(rs485_slave_released_callback);
 4301              		.loc 1 602 0
 4302 0196 5048     		ldr	r0, .L382+44
 4303 0198 FFF7FEFF 		bl	comm_RS485_ReleaseSlave
 4304              	.LVL627:
 4305 019c 16E0     		b	.L351
 4306              	.L352:
 603:.\Generated_Source\PSoC4/comm.c **** 			}
 604:.\Generated_Source\PSoC4/comm.c **** 		} else if(SysTimer_GetTicks() - sendingTicks > 3000) {
 4307              		.loc 1 604 0
 4308 019e FFF7FEFF 		bl	SysTimer_GetTicks
 4309              	.LVL628:
 4310 01a2 2268     		ldr	r2, [r4]
 4311 01a4 4D4B     		ldr	r3, .L382+48
 4312 01a6 801A     		sub	r0, r0, r2
 4313 01a8 9842     		cmp	r0, r3
 4314 01aa 0FD9     		bls	.L351
 605:.\Generated_Source\PSoC4/comm.c **** 			//we've got timeout, resend frame
 606:.\Generated_Source\PSoC4/comm.c **** 			comm.flags.SENT = 0;
 4315              		.loc 1 606 0
 4316 01ac AB5D     		ldrb	r3, [r5, r6]
 4317 01ae 0222     		mov	r2, #2
 4318 01b0 9343     		bic	r3, r2
 4319 01b2 AB55     		strb	r3, [r5, r6]
 607:.\Generated_Source\PSoC4/comm.c **** 			timeout_counter++;
 4320              		.loc 1 607 0
 4321 01b4 A36B     		ldr	r3, [r4, #56]
 608:.\Generated_Source\PSoC4/comm.c **** 			comm_RS485_SendFrame(respBuff, RESP_BUFF_LEN - respFreeSpace, rs485_frame_sent_callback);
 4322              		.loc 1 608 0
 4323 01b6 9621     		mov	r1, #150
 607:.\Generated_Source\PSoC4/comm.c **** 			timeout_counter++;
 4324              		.loc 1 607 0
 4325 01b8 0133     		add	r3, r3, #1
 4326 01ba A363     		str	r3, [r4, #56]
 4327              		.loc 1 608 0
 4328 01bc 3D4B     		ldr	r3, .L382+8
 4329 01be 4900     		lsl	r1, r1, #1
ARM GAS  C:\Users\SDEVAS~1\AppData\Local\Temp\ccPhqTSe.s 			page 93


 4330 01c0 5B68     		ldr	r3, [r3, #4]
 4331 01c2 4448     		ldr	r0, .L382+40
 4332 01c4 C91A     		sub	r1, r1, r3
 4333 01c6 424A     		ldr	r2, .L382+36
 4334 01c8 FFF7FEFF 		bl	comm_RS485_SendFrame
 4335              	.LVL629:
 4336              	.L351:
 609:.\Generated_Source\PSoC4/comm.c **** 		}
 610:.\Generated_Source\PSoC4/comm.c **** 	}
 611:.\Generated_Source\PSoC4/comm.c **** 	switch(comm.state) {
 4337              		.loc 1 611 0
 4338 01cc 9A23     		mov	r3, #154
 4339 01ce 5B00     		lsl	r3, r3, #1
 4340 01d0 EB5C     		ldrb	r3, [r5, r3]
 4341 01d2 022B     		cmp	r3, #2
 4342 01d4 0AD0     		beq	.L355
 4343 01d6 032B     		cmp	r3, #3
 4344 01d8 5FD0     		beq	.L356
 4345 01da 012B     		cmp	r3, #1
 4346 01dc 60D1     		bne	.L354
 4347              	.LBB69:
 612:.\Generated_Source\PSoC4/comm.c **** 	case COMM_STATE_BUS_GRANTED:
 613:.\Generated_Source\PSoC4/comm.c **** 		comm_RS485_SelectSlave(comm.schedAddr, rs485_slave_selected_callback);
 4348              		.loc 1 613 0
 4349 01de 2B1C     		mov	r3, r5
 4350 01e0 FC33     		add	r3, r3, #252
 4351 01e2 586C     		ldr	r0, [r3, #68]
 4352 01e4 3E49     		ldr	r1, .L382+52
 4353 01e6 FFF7FEFF 		bl	comm_RS485_SelectSlave
 4354              	.LVL630:
 614:.\Generated_Source\PSoC4/comm.c **** 		break;
 4355              		.loc 1 614 0
 4356 01ea 59E0     		b	.L354
 4357              	.L355:
 615:.\Generated_Source\PSoC4/comm.c **** 	case COMM_STATE_SLAVE_SELECTED:
 616:.\Generated_Source\PSoC4/comm.c **** 		//reset error & timeout counter
 617:.\Generated_Source\PSoC4/comm.c **** 		error_counter = 0;
 4358              		.loc 1 617 0
 4359 01ec 304B     		ldr	r3, .L382+4
 618:.\Generated_Source\PSoC4/comm.c **** 		timeout_counter = 0;
 619:.\Generated_Source\PSoC4/comm.c **** 		resp_GenDestSrcOrder(msgDestinationHolder, sizeof(msgDestinationHolder) - 1,
 4360              		.loc 1 619 0
 4361 01ee 2E1C     		mov	r6, r5
 4362 01f0 FC36     		add	r6, r6, #252
 617:.\Generated_Source\PSoC4/comm.c **** 		error_counter = 0;
 4363              		.loc 1 617 0
 4364 01f2 0022     		mov	r2, #0
 4365 01f4 5A63     		str	r2, [r3, #52]
 618:.\Generated_Source\PSoC4/comm.c **** 		timeout_counter = 0;
 4366              		.loc 1 618 0
 4367 01f6 9A63     		str	r2, [r3, #56]
 4368              		.loc 1 619 0
 4369 01f8 F36B     		ldr	r3, [r6, #60]
 4370 01fa 2E4C     		ldr	r4, .L382+8
 4371 01fc 0093     		str	r3, [sp]
 4372 01fe 316C     		ldr	r1, [r6, #64]
 4373 0200 201C     		mov	r0, r4
ARM GAS  C:\Users\SDEVAS~1\AppData\Local\Temp\ccPhqTSe.s 			page 94


 4374 0202 0191     		str	r1, [sp, #4]
 4375 0204 1B21     		mov	r1, #27
 4376 0206 1030     		add	r0, r0, #16
 4377 0208 364A     		ldr	r2, .L382+56
 4378 020a 0B1C     		mov	r3, r1
 4379 020c FFF7FEFF 		bl	resp_GenDestSrcOrder
 4380              	.LVL631:
 620:.\Generated_Source\PSoC4/comm.c **** 				MSG_SOURCE_HOLDER, sizeof(MSG_SOURCE_HOLDER) - 1,
 621:.\Generated_Source\PSoC4/comm.c **** 				comm.schedOrder, comm.schedOrderLen);
 622:.\Generated_Source\PSoC4/comm.c **** 
 623:.\Generated_Source\PSoC4/comm.c **** 		comm_flags_t retflag = COMM_FLAG_UNKNOWN;
 624:.\Generated_Source\PSoC4/comm.c **** 
 625:.\Generated_Source\PSoC4/comm.c **** 		if(strncmp(comm.schedOrder, "Set", comm.schedOrderLen) == 0) {
 4381              		.loc 1 625 0
 4382 0210 F76B     		ldr	r7, [r6, #60]
 4383 0212 366C     		ldr	r6, [r6, #64]
 4384 0214 381C     		mov	r0, r7
 4385 0216 2949     		ldr	r1, .L382+16
 4386 0218 321C     		mov	r2, r6
 4387 021a FFF7FEFF 		bl	strncmp
 4388              	.LVL632:
 4389 021e 0028     		cmp	r0, #0
 4390 0220 37D0     		beq	.L358
 626:.\Generated_Source\PSoC4/comm.c **** 			retflag = comm_handle_Set(COMM_FLAG_UNKNOWN, NULL, 0, NULL, 0);
 627:.\Generated_Source\PSoC4/comm.c **** 		} else if(strncmp(comm.schedOrder, "Get", comm.schedOrderLen) == 0) {
 4391              		.loc 1 627 0
 4392 0222 381C     		mov	r0, r7
 4393 0224 2649     		ldr	r1, .L382+20
 4394 0226 321C     		mov	r2, r6
 4395 0228 FFF7FEFF 		bl	strncmp
 4396              	.LVL633:
 4397 022c 0028     		cmp	r0, #0
 4398 022e 30D0     		beq	.L358
 628:.\Generated_Source\PSoC4/comm.c **** 			retflag = comm_handle_Get(COMM_FLAG_UNKNOWN, NULL, 0, NULL, 0);
 629:.\Generated_Source\PSoC4/comm.c **** 		} else if(strncmp(comm.schedOrder, "Info", comm.schedOrderLen) == 0) {
 4399              		.loc 1 629 0
 4400 0230 381C     		mov	r0, r7
 4401 0232 2449     		ldr	r1, .L382+24
 4402 0234 321C     		mov	r2, r6
 4403 0236 FFF7FEFF 		bl	strncmp
 4404              	.LVL634:
 4405 023a 0028     		cmp	r0, #0
 4406 023c 04D1     		bne	.L359
 4407              	.L361:
 4408              	.LVL635:
 4409              	.LBB70:
 4410              	.LBB71:
 4411 023e FFF7FEFF 		bl	comm_handle_Info.part.3
 4412              	.LVL636:
 4413 0242 061E     		sub	r6, r0, #0
 4414              	.LVL637:
 4415              	.LBE71:
 4416              	.LBE70:
 630:.\Generated_Source\PSoC4/comm.c **** 			retflag = comm_handle_Info(COMM_FLAG_UNKNOWN, NULL, 0, NULL, 0);
 631:.\Generated_Source\PSoC4/comm.c **** 		} else if(strncmp(comm.schedOrder, "Status", comm.schedOrderLen) == 0) {
 632:.\Generated_Source\PSoC4/comm.c **** 			retflag = comm_handle_Info(COMM_FLAG_UNKNOWN, NULL, 0, NULL, 0);
 633:.\Generated_Source\PSoC4/comm.c **** 		} else if(strncmp(comm.schedOrder, "Mode", comm.schedOrderLen) == 0) {
ARM GAS  C:\Users\SDEVAS~1\AppData\Local\Temp\ccPhqTSe.s 			page 95


 634:.\Generated_Source\PSoC4/comm.c **** 			retflag = comm_handle_Mode(COMM_FLAG_UNKNOWN, NULL, 0, NULL, 0);
 635:.\Generated_Source\PSoC4/comm.c **** 		}
 636:.\Generated_Source\PSoC4/comm.c **** 		#define X(OrderName) else if(strncmp(comm.schedOrder, #OrderName, comm.schedOrderLen) == 0) { \
 637:.\Generated_Source\PSoC4/comm.c **** 			retflag = comm_handle_##OrderName(COMM_FLAG_UNKNOWN, NULL, 0, NULL, 0); \
 638:.\Generated_Source\PSoC4/comm.c **** 		}
 639:.\Generated_Source\PSoC4/comm.c **** 		ATOM_ORDERS
 640:.\Generated_Source\PSoC4/comm.c **** 		#undef X
 641:.\Generated_Source\PSoC4/comm.c **** 
 642:.\Generated_Source\PSoC4/comm.c **** 		if(retflag != COMM_FLAG_UNKNOWN) {
 4417              		.loc 1 642 0
 4418 0244 08D1     		bne	.L360
 4419 0246 24E0     		b	.L358
 4420              	.LVL638:
 4421              	.L359:
 631:.\Generated_Source\PSoC4/comm.c **** 		} else if(strncmp(comm.schedOrder, "Status", comm.schedOrderLen) == 0) {
 4422              		.loc 1 631 0
 4423 0248 381C     		mov	r0, r7
 4424 024a 1F49     		ldr	r1, .L382+28
 4425 024c 321C     		mov	r2, r6
 4426 024e FFF7FEFF 		bl	strncmp
 4427              	.LVL639:
 4428 0252 0028     		cmp	r0, #0
 4429 0254 1DD1     		bne	.L358
 4430 0256 F2E7     		b	.L361
 4431              	.LVL640:
 4432              	.L360:
 643:.\Generated_Source\PSoC4/comm.c **** 			//handler returned flag that indicates communication, we are adding it to overall payload, and s
 644:.\Generated_Source\PSoC4/comm.c **** 			resp_AddFlags(retflag);
 4433              		.loc 1 644 0
 4434 0258 FFF7FEFF 		bl	resp_AddFlags
 4435              	.LVL641:
 645:.\Generated_Source\PSoC4/comm.c **** 			ADD_CHAR_TO_RESP('}');
 4436              		.loc 1 645 0
 4437 025c 2368     		ldr	r3, [r4]
 4438 025e 5A1C     		add	r2, r3, #1
 4439 0260 2260     		str	r2, [r4]
 4440 0262 7D22     		mov	r2, #125
 4441 0264 1A70     		strb	r2, [r3]
 4442 0266 6368     		ldr	r3, [r4, #4]
 646:.\Generated_Source\PSoC4/comm.c **** 
 647:.\Generated_Source\PSoC4/comm.c **** 			*respEnd = '\0';
 4443              		.loc 1 647 0
 4444 0268 2268     		ldr	r2, [r4]
 645:.\Generated_Source\PSoC4/comm.c **** 			ADD_CHAR_TO_RESP('}');
 4445              		.loc 1 645 0
 4446 026a 013B     		sub	r3, r3, #1
 4447 026c 6360     		str	r3, [r4, #4]
 4448              		.loc 1 647 0
 4449 026e 0023     		mov	r3, #0
 4450 0270 1370     		strb	r3, [r2]
 648:.\Generated_Source\PSoC4/comm.c **** 
 649:.\Generated_Source\PSoC4/comm.c **** 			if(retflag == COMM_FLAG_PUSH) {
 4451              		.loc 1 649 0
 4452 0272 082E     		cmp	r6, #8
 4453 0274 04D1     		bne	.L362
 650:.\Generated_Source\PSoC4/comm.c **** 				//we dont care about ACKs...
 651:.\Generated_Source\PSoC4/comm.c **** 				comm.flags.LAST_MSG = 1;
ARM GAS  C:\Users\SDEVAS~1\AppData\Local\Temp\ccPhqTSe.s 			page 96


 4454              		.loc 1 651 0
 4455 0276 9823     		mov	r3, #152
 4456 0278 5B00     		lsl	r3, r3, #1
 4457 027a EA5C     		ldrb	r2, [r5, r3]
 4458 027c 1643     		orr	r6, r2
 4459              	.LVL642:
 4460 027e EE54     		strb	r6, [r5, r3]
 4461              	.L362:
 652:.\Generated_Source\PSoC4/comm.c **** 			}
 653:.\Generated_Source\PSoC4/comm.c **** 			comm_RS485_SendFrame(respBuff, RESP_BUFF_LEN - respFreeSpace, rs485_frame_sent_callback);
 4462              		.loc 1 653 0
 4463 0280 6368     		ldr	r3, [r4, #4]
 4464 0282 9621     		mov	r1, #150
 4465 0284 4900     		lsl	r1, r1, #1
 4466 0286 C91A     		sub	r1, r1, r3
 4467 0288 114A     		ldr	r2, .L382+36
 4468 028a 1248     		ldr	r0, .L382+40
 4469 028c FFF7FEFF 		bl	comm_RS485_SendFrame
 4470              	.LVL643:
 4471 0290 06E0     		b	.L354
 4472              	.LVL644:
 4473              	.L358:
 654:.\Generated_Source\PSoC4/comm.c **** 		} else {
 655:.\Generated_Source\PSoC4/comm.c **** 			//this is defeneatly error, but release slave
 656:.\Generated_Source\PSoC4/comm.c **** 			comm_RS485_ReleaseSlave(rs485_slave_released_callback);
 4474              		.loc 1 656 0
 4475 0292 1148     		ldr	r0, .L382+44
 4476 0294 FFF7FEFF 		bl	comm_RS485_ReleaseSlave
 4477              	.LVL645:
 4478 0298 02E0     		b	.L354
 4479              	.L356:
 657:.\Generated_Source\PSoC4/comm.c **** 		}
 658:.\Generated_Source\PSoC4/comm.c **** 
 659:.\Generated_Source\PSoC4/comm.c **** 		break;
 660:.\Generated_Source\PSoC4/comm.c **** 	case COMM_STATE_SLAVE_RELEASED:
 661:.\Generated_Source\PSoC4/comm.c **** 		comm_RS485_ReleaseBus(rs485_bus_released_callback);
 4480              		.loc 1 661 0
 4481 029a 1348     		ldr	r0, .L382+60
 4482 029c FFF7FEFF 		bl	comm_RS485_ReleaseBus
 4483              	.LVL646:
 4484              	.L354:
 4485              	.LBE69:
 662:.\Generated_Source\PSoC4/comm.c **** 		break;
 663:.\Generated_Source\PSoC4/comm.c **** 	case COMM_STATE_BUS_RELEASED:
 664:.\Generated_Source\PSoC4/comm.c **** 	default:
 665:.\Generated_Source\PSoC4/comm.c **** 		break;
 666:.\Generated_Source\PSoC4/comm.c **** 	}
 667:.\Generated_Source\PSoC4/comm.c **** 	comm.state = COMM_STATE_IDLE;
 4486              		.loc 1 667 0
 4487 02a0 9A23     		mov	r3, #154
 4488 02a2 0022     		mov	r2, #0
 4489 02a4 5B00     		lsl	r3, r3, #1
 4490 02a6 EA54     		strb	r2, [r5, r3]
 668:.\Generated_Source\PSoC4/comm.c **** }
 4491              		.loc 1 668 0
 4492 02a8 05B0     		add	sp, sp, #20
 4493              		@ sp needed
ARM GAS  C:\Users\SDEVAS~1\AppData\Local\Temp\ccPhqTSe.s 			page 97


 4494 02aa F0BD     		pop	{r4, r5, r6, r7, pc}
 4495              	.L383:
 4496              		.align	2
 4497              	.L382:
 4498 02ac 00000000 		.word	comm
 4499 02b0 00000000 		.word	.LANCHOR1
 4500 02b4 00000000 		.word	.LANCHOR0
 4501 02b8 00000000 		.word	tokens
 4502 02bc 20090000 		.word	.LC262
 4503 02c0 24090000 		.word	.LC264
 4504 02c4 28090000 		.word	.LC266
 4505 02c8 2D090000 		.word	.LC268
 4506 02cc 34090000 		.word	.LC270
 4507 02d0 00000000 		.word	rs485_frame_sent_callback
 4508 02d4 00000000 		.word	respBuff
 4509 02d8 00000000 		.word	rs485_slave_released_callback
 4510 02dc B80B0000 		.word	3000
 4511 02e0 00000000 		.word	rs485_slave_selected_callback
 4512 02e4 39090000 		.word	.LC274
 4513 02e8 00000000 		.word	rs485_bus_released_callback
 4514              		.cfi_endproc
 4515              	.LFE59:
 4516              		.size	comm_Handler, .-comm_Handler
 4517              		.comm	tokens,960,4
 4518              		.global	msgDestinationHolderAtomId
 4519              		.global	msgDestinationHolderAtomType
 4520              		.global	msgDestinationHolder
 4521              		.global	respFreeSpace
 4522              		.global	respEnd
 4523              		.comm	respBuff,300,1
 4524              		.comm	comm,324,4
 4525              		.section	.rodata.str1.1,"aMS",%progbits,1
 4526              	.LC11:
 4527 0000 7B226465 		.ascii	"{\"destination\":\000"
 4527      7374696E 
 4527      6174696F 
 4527      6E223A00 
 4528              	.LC15:
 4529 0010 2C22736F 		.ascii	",\"source\":\000"
 4529      75726365 
 4529      223A00
 4530              	.LC17:
 4531 001b 2C226F72 		.ascii	",\"order\":\"\000"
 4531      64657222 
 4531      3A2200
 4532              	.LC19:
 4533 0026 736C6565 		.ascii	"sleepPeriod\000"
 4533      70506572 
 4533      696F6400 
 4534              	.LC21:
 4535 0032 73687574 		.ascii	"shutdownTime\000"
 4535      646F776E 
 4535      54696D65 
 4535      00
 4536              	.LC23:
 4537 003f 74657374 		.ascii	"test\000"
 4537      00
ARM GAS  C:\Users\SDEVAS~1\AppData\Local\Temp\ccPhqTSe.s 			page 98


 4538              	.LC25:
 4539 0044 696E6E65 		.ascii	"innerPressure\000"
 4539      72507265 
 4539      73737572 
 4539      6500
 4540              	.LC27:
 4541 0052 6F757465 		.ascii	"outerPressure\000"
 4541      72507265 
 4541      73737572 
 4541      6500
 4542              	.LC29:
 4543 0060 63757272 		.ascii	"currentFlow\000"
 4543      656E7446 
 4543      6C6F7700 
 4544              	.LC31:
 4545 006c 746F7461 		.ascii	"totalVolume\000"
 4545      6C566F6C 
 4545      756D6500 
 4546              	.LC33:
 4547 0078 76616C76 		.ascii	"valveStatus\000"
 4547      65537461 
 4547      74757300 
 4548              	.LC35:
 4549 0084 6C617374 		.ascii	"lastStartNumber\000"
 4549      53746172 
 4549      744E756D 
 4549      62657200 
 4550              	.LC37:
 4551 0094 6C617374 		.ascii	"lastStartVolume\000"
 4551      53746172 
 4551      74566F6C 
 4551      756D6500 
 4552              	.LC39:
 4553 00a4 6C617374 		.ascii	"lastStartFlow\000"
 4553      53746172 
 4553      74466C6F 
 4553      7700
 4554              	.LC41:
 4555 00b2 73746172 		.ascii	"startTime\000"
 4555      7454696D 
 4555      6500
 4556              	.LC43:
 4557 00bc 73746F70 		.ascii	"stopTime\000"
 4557      54696D65 
 4557      00
 4558              	.LC45:
 4559 00c5 6E756D53 		.ascii	"numStarts\000"
 4559      74617274 
 4559      7300
 4560              	.LC47:
 4561 00cf 766F6C50 		.ascii	"volPerStart\000"
 4561      65725374 
 4561      61727400 
 4562              	.LC49:
 4563 00db 6D617856 		.ascii	"maxVol\000"
 4563      6F6C00
 4564              	.LC51:
ARM GAS  C:\Users\SDEVAS~1\AppData\Local\Temp\ccPhqTSe.s 			page 99


 4565 00e2 6D696E56 		.ascii	"minVol\000"
 4565      6F6C00
 4566              	.LC53:
 4567 00e9 66657274 		.ascii	"fertigationTable0\000"
 4567      69676174 
 4567      696F6E54 
 4567      61626C65 
 4567      3000
 4568              	.LC55:
 4569 00fb 66657274 		.ascii	"fertigationTable1\000"
 4569      69676174 
 4569      696F6E54 
 4569      61626C65 
 4569      3100
 4570              	.LC57:
 4571 010d 66657274 		.ascii	"fertigationTable2\000"
 4571      69676174 
 4571      696F6E54 
 4571      61626C65 
 4571      3200
 4572              	.LC59:
 4573 011f 66657274 		.ascii	"fertigationTable3\000"
 4573      69676174 
 4573      696F6E54 
 4573      61626C65 
 4573      3300
 4574              	.LC61:
 4575 0131 66657274 		.ascii	"fertigationTable4\000"
 4575      69676174 
 4575      696F6E54 
 4575      61626C65 
 4575      3400
 4576              	.LC63:
 4577 0143 66657274 		.ascii	"fertigationTable5\000"
 4577      69676174 
 4577      696F6E54 
 4577      61626C65 
 4577      3500
 4578              	.LC65:
 4579 0155 66657274 		.ascii	"fertigationTable6\000"
 4579      69676174 
 4579      696F6E54 
 4579      61626C65 
 4579      3600
 4580              	.LC67:
 4581 0167 66657274 		.ascii	"fertigationTable7\000"
 4581      69676174 
 4581      696F6E54 
 4581      61626C65 
 4581      3700
 4582              	.LC69:
 4583 0179 66657274 		.ascii	"fertigationTable8\000"
 4583      69676174 
 4583      696F6E54 
 4583      61626C65 
 4583      3800
 4584              	.LC71:
ARM GAS  C:\Users\SDEVAS~1\AppData\Local\Temp\ccPhqTSe.s 			page 100


 4585 018b 66657274 		.ascii	"fertigationTable9\000"
 4585      69676174 
 4585      696F6E54 
 4585      61626C65 
 4585      3900
 4586              	.LC73:
 4587 019d 6E6F7442 		.ascii	"notBefore\000"
 4587      65666F72 
 4587      6500
 4588              	.LC75:
 4589 01a7 6E6F7441 		.ascii	"notAfter\000"
 4589      66746572 
 4589      00
 4590              	.LC77:
 4591 01b0 64696C75 		.ascii	"dilutionFactorA\000"
 4591      74696F6E 
 4591      46616374 
 4591      6F724100 
 4592              	.LC79:
 4593 01c0 64696C75 		.ascii	"dilutionFactorB\000"
 4593      74696F6E 
 4593      46616374 
 4593      6F724200 
 4594              	.LC81:
 4595 01d0 76656E74 		.ascii	"venturiSuctionA\000"
 4595      75726953 
 4595      75637469 
 4595      6F6E4100 
 4596              	.LC83:
 4597 01e0 76656E74 		.ascii	"venturiSuctionB\000"
 4597      75726953 
 4597      75637469 
 4597      6F6E4200 
 4598              	.LC85:
 4599 01f0 73717561 		.ascii	"squareMeters\000"
 4599      72654D65 
 4599      74657273 
 4599      00
 4600              	.LC87:
 4601 01fd 6C506572 		.ascii	"lPerSqMeterPerDay\000"
 4601      53714D65 
 4601      74657250 
 4601      65724461 
 4601      7900
 4602              	.LC89:
 4603 020f 63726F70 		.ascii	"cropType\000"
 4603      54797065 
 4603      00
 4604              	.LC91:
 4605 0218 53746172 		.ascii	"Start\000"
 4605      7400
 4606              	.LC93:
 4607 021e 54657374 		.ascii	"Test\000"
 4607      00
 4608              	.LC95:
 4609 0223 49646C65 		.ascii	"Idle\000"
 4609      00
ARM GAS  C:\Users\SDEVAS~1\AppData\Local\Temp\ccPhqTSe.s 			page 101


 4610              	.LC97:
 4611 0228 53687574 		.ascii	"Shutdown\000"
 4611      646F776E 
 4611      00
 4612              	.LC102:
 4613 0231 6E00     		.ascii	"n\000"
 4614              	.LC105:
 4615 0233 2C227061 		.ascii	",\"payload\":{\"n\":\"sleepPeriod\",\"t\":\"i\",\"v"
 4615      796C6F61 
 4615      64223A7B 
 4615      226E223A 
 4615      22736C65 
 4616 025b 223A00   		.ascii	"\":\000"
 4617              	.LC107:
 4618 025e 2C227061 		.ascii	",\"payload\":{\"n\":\"shutdownTime\",\"t\":\"i\",\""
 4618      796C6F61 
 4618      64223A7B 
 4618      226E223A 
 4618      22736875 
 4619 0286 76223A00 		.ascii	"v\":\000"
 4620              	.LC109:
 4621 028a 2C227061 		.ascii	",\"payload\":{\"n\":\"test\",\"t\":\"s\",\"v\":\000"
 4621      796C6F61 
 4621      64223A7B 
 4621      226E223A 
 4621      22746573 
 4622              	.LC111:
 4623 02ae 2C227061 		.ascii	",\"payload\":{\"n\":\"innerPressure\",\"t\":\"i\",\""
 4623      796C6F61 
 4623      64223A7B 
 4623      226E223A 
 4623      22696E6E 
 4624 02d7 76223A00 		.ascii	"v\":\000"
 4625              	.LC113:
 4626 02db 2C227061 		.ascii	",\"payload\":{\"n\":\"outerPressure\",\"t\":\"i\",\""
 4626      796C6F61 
 4626      64223A7B 
 4626      226E223A 
 4626      226F7574 
 4627 0304 76223A00 		.ascii	"v\":\000"
 4628              	.LC115:
 4629 0308 2C227061 		.ascii	",\"payload\":{\"n\":\"currentFlow\",\"t\":\"i\",\"v"
 4629      796C6F61 
 4629      64223A7B 
 4629      226E223A 
 4629      22637572 
 4630 0330 223A00   		.ascii	"\":\000"
 4631              	.LC117:
 4632 0333 2C227061 		.ascii	",\"payload\":{\"n\":\"totalVolume\",\"t\":\"i\",\"v"
 4632      796C6F61 
 4632      64223A7B 
 4632      226E223A 
 4632      22746F74 
 4633 035b 223A00   		.ascii	"\":\000"
 4634              	.LC119:
 4635 035e 2C227061 		.ascii	",\"payload\":{\"n\":\"valveStatus\",\"t\":\"i\",\"v"
 4635      796C6F61 
ARM GAS  C:\Users\SDEVAS~1\AppData\Local\Temp\ccPhqTSe.s 			page 102


 4635      64223A7B 
 4635      226E223A 
 4635      2276616C 
 4636 0386 223A00   		.ascii	"\":\000"
 4637              	.LC121:
 4638 0389 2C227061 		.ascii	",\"payload\":{\"n\":\"lastStartNumber\",\"t\":\"i\""
 4638      796C6F61 
 4638      64223A7B 
 4638      226E223A 
 4638      226C6173 
 4639 03b2 2C227622 		.ascii	",\"v\":\000"
 4639      3A00
 4640              	.LC123:
 4641 03b8 2C227061 		.ascii	",\"payload\":{\"n\":\"lastStartVolume\",\"t\":\"i\""
 4641      796C6F61 
 4641      64223A7B 
 4641      226E223A 
 4641      226C6173 
 4642 03e1 2C227622 		.ascii	",\"v\":\000"
 4642      3A00
 4643              	.LC125:
 4644 03e7 2C227061 		.ascii	",\"payload\":{\"n\":\"lastStartFlow\",\"t\":\"i\",\""
 4644      796C6F61 
 4644      64223A7B 
 4644      226E223A 
 4644      226C6173 
 4645 0410 76223A00 		.ascii	"v\":\000"
 4646              	.LC127:
 4647 0414 2C227061 		.ascii	",\"payload\":{\"n\":\"startTime\",\"t\":\"i\",\"v\""
 4647      796C6F61 
 4647      64223A7B 
 4647      226E223A 
 4647      22737461 
 4648 043b 3A00     		.ascii	":\000"
 4649              	.LC129:
 4650 043d 2C227061 		.ascii	",\"payload\":{\"n\":\"stopTime\",\"t\":\"i\",\"v\":"
 4650      796C6F61 
 4650      64223A7B 
 4650      226E223A 
 4650      2273746F 
 4651 0464 00       		.ascii	"\000"
 4652              	.LC131:
 4653 0465 2C227061 		.ascii	",\"payload\":{\"n\":\"numStarts\",\"t\":\"i\",\"v\""
 4653      796C6F61 
 4653      64223A7B 
 4653      226E223A 
 4653      226E756D 
 4654 048c 3A00     		.ascii	":\000"
 4655              	.LC133:
 4656 048e 2C227061 		.ascii	",\"payload\":{\"n\":\"volPerStart\",\"t\":\"i\",\"v"
 4656      796C6F61 
 4656      64223A7B 
 4656      226E223A 
 4656      22766F6C 
 4657 04b6 223A00   		.ascii	"\":\000"
 4658              	.LC135:
 4659 04b9 2C227061 		.ascii	",\"payload\":{\"n\":\"maxVol\",\"t\":\"i\",\"v\":\000"
ARM GAS  C:\Users\SDEVAS~1\AppData\Local\Temp\ccPhqTSe.s 			page 103


 4659      796C6F61 
 4659      64223A7B 
 4659      226E223A 
 4659      226D6178 
 4660              	.LC137:
 4661 04df 2C227061 		.ascii	",\"payload\":{\"n\":\"minVol\",\"t\":\"i\",\"v\":\000"
 4661      796C6F61 
 4661      64223A7B 
 4661      226E223A 
 4661      226D696E 
 4662              	.LC139:
 4663 0505 2C227061 		.ascii	",\"payload\":{\"n\":\"fertigationTable0\",\"t\":\"i"
 4663      796C6F61 
 4663      64223A7B 
 4663      226E223A 
 4663      22666572 
 4664 052f 61222C22 		.ascii	"a\",\"v\":\000"
 4664      76223A00 
 4665              	.LC141:
 4666 0537 2C227061 		.ascii	",\"payload\":{\"n\":\"fertigationTable1\",\"t\":\"i"
 4666      796C6F61 
 4666      64223A7B 
 4666      226E223A 
 4666      22666572 
 4667 0561 61222C22 		.ascii	"a\",\"v\":\000"
 4667      76223A00 
 4668              	.LC143:
 4669 0569 2C227061 		.ascii	",\"payload\":{\"n\":\"fertigationTable2\",\"t\":\"i"
 4669      796C6F61 
 4669      64223A7B 
 4669      226E223A 
 4669      22666572 
 4670 0593 61222C22 		.ascii	"a\",\"v\":\000"
 4670      76223A00 
 4671              	.LC145:
 4672 059b 2C227061 		.ascii	",\"payload\":{\"n\":\"fertigationTable3\",\"t\":\"i"
 4672      796C6F61 
 4672      64223A7B 
 4672      226E223A 
 4672      22666572 
 4673 05c5 61222C22 		.ascii	"a\",\"v\":\000"
 4673      76223A00 
 4674              	.LC147:
 4675 05cd 2C227061 		.ascii	",\"payload\":{\"n\":\"fertigationTable4\",\"t\":\"i"
 4675      796C6F61 
 4675      64223A7B 
 4675      226E223A 
 4675      22666572 
 4676 05f7 61222C22 		.ascii	"a\",\"v\":\000"
 4676      76223A00 
 4677              	.LC149:
 4678 05ff 2C227061 		.ascii	",\"payload\":{\"n\":\"fertigationTable5\",\"t\":\"i"
 4678      796C6F61 
 4678      64223A7B 
 4678      226E223A 
 4678      22666572 
 4679 0629 61222C22 		.ascii	"a\",\"v\":\000"
ARM GAS  C:\Users\SDEVAS~1\AppData\Local\Temp\ccPhqTSe.s 			page 104


 4679      76223A00 
 4680              	.LC151:
 4681 0631 2C227061 		.ascii	",\"payload\":{\"n\":\"fertigationTable6\",\"t\":\"i"
 4681      796C6F61 
 4681      64223A7B 
 4681      226E223A 
 4681      22666572 
 4682 065b 61222C22 		.ascii	"a\",\"v\":\000"
 4682      76223A00 
 4683              	.LC153:
 4684 0663 2C227061 		.ascii	",\"payload\":{\"n\":\"fertigationTable7\",\"t\":\"i"
 4684      796C6F61 
 4684      64223A7B 
 4684      226E223A 
 4684      22666572 
 4685 068d 61222C22 		.ascii	"a\",\"v\":\000"
 4685      76223A00 
 4686              	.LC155:
 4687 0695 2C227061 		.ascii	",\"payload\":{\"n\":\"fertigationTable8\",\"t\":\"i"
 4687      796C6F61 
 4687      64223A7B 
 4687      226E223A 
 4687      22666572 
 4688 06bf 61222C22 		.ascii	"a\",\"v\":\000"
 4688      76223A00 
 4689              	.LC157:
 4690 06c7 2C227061 		.ascii	",\"payload\":{\"n\":\"fertigationTable9\",\"t\":\"i"
 4690      796C6F61 
 4690      64223A7B 
 4690      226E223A 
 4690      22666572 
 4691 06f1 61222C22 		.ascii	"a\",\"v\":\000"
 4691      76223A00 
 4692              	.LC159:
 4693 06f9 2C227061 		.ascii	",\"payload\":{\"n\":\"notBefore\",\"t\":\"i\",\"v\""
 4693      796C6F61 
 4693      64223A7B 
 4693      226E223A 
 4693      226E6F74 
 4694 0720 3A00     		.ascii	":\000"
 4695              	.LC161:
 4696 0722 2C227061 		.ascii	",\"payload\":{\"n\":\"notAfter\",\"t\":\"i\",\"v\":"
 4696      796C6F61 
 4696      64223A7B 
 4696      226E223A 
 4696      226E6F74 
 4697 0749 00       		.ascii	"\000"
 4698              	.LC163:
 4699 074a 2C227061 		.ascii	",\"payload\":{\"n\":\"dilutionFactorA\",\"t\":\"i\""
 4699      796C6F61 
 4699      64223A7B 
 4699      226E223A 
 4699      2264696C 
 4700 0773 2C227622 		.ascii	",\"v\":\000"
 4700      3A00
 4701              	.LC165:
 4702 0779 2C227061 		.ascii	",\"payload\":{\"n\":\"dilutionFactorB\",\"t\":\"i\""
ARM GAS  C:\Users\SDEVAS~1\AppData\Local\Temp\ccPhqTSe.s 			page 105


 4702      796C6F61 
 4702      64223A7B 
 4702      226E223A 
 4702      2264696C 
 4703 07a2 2C227622 		.ascii	",\"v\":\000"
 4703      3A00
 4704              	.LC167:
 4705 07a8 2C227061 		.ascii	",\"payload\":{\"n\":\"venturiSuctionA\",\"t\":\"i\""
 4705      796C6F61 
 4705      64223A7B 
 4705      226E223A 
 4705      2276656E 
 4706 07d1 2C227622 		.ascii	",\"v\":\000"
 4706      3A00
 4707              	.LC169:
 4708 07d7 2C227061 		.ascii	",\"payload\":{\"n\":\"venturiSuctionB\",\"t\":\"i\""
 4708      796C6F61 
 4708      64223A7B 
 4708      226E223A 
 4708      2276656E 
 4709 0800 2C227622 		.ascii	",\"v\":\000"
 4709      3A00
 4710              	.LC171:
 4711 0806 2C227061 		.ascii	",\"payload\":{\"n\":\"squareMeters\",\"t\":\"i\",\""
 4711      796C6F61 
 4711      64223A7B 
 4711      226E223A 
 4711      22737175 
 4712 082e 76223A00 		.ascii	"v\":\000"
 4713              	.LC173:
 4714 0832 2C227061 		.ascii	",\"payload\":{\"n\":\"lPerSqMeterPerDay\",\"t\":\"i"
 4714      796C6F61 
 4714      64223A7B 
 4714      226E223A 
 4714      226C5065 
 4715 085c 222C2276 		.ascii	"\",\"v\":\000"
 4715      223A00
 4716              	.LC175:
 4717 0863 2C227061 		.ascii	",\"payload\":{\"n\":\"cropType\",\"t\":\"i\",\"v\":"
 4717      796C6F61 
 4717      64223A7B 
 4717      226E223A 
 4717      2263726F 
 4718 088a 00       		.ascii	"\000"
 4719              	.LC177:
 4720 088b 2C227061 		.ascii	",\"payload\":null\000"
 4720      796C6F61 
 4720      64223A6E 
 4720      756C6C00 
 4721              	.LC181:
 4722 089b 7400     		.ascii	"t\000"
 4723              	.LC183:
 4724 089d 7600     		.ascii	"v\000"
 4725              	.LC185:
 4726 089f 6900     		.ascii	"i\000"
 4727              	.LC187:
 4728 08a1 7300     		.ascii	"s\000"
ARM GAS  C:\Users\SDEVAS~1\AppData\Local\Temp\ccPhqTSe.s 			page 106


 4729              	.LC189:
 4730 08a3 696100   		.ascii	"ia\000"
 4731              	.LC194:
 4732 08a6 2C227061 		.ascii	",\"payload\":{\"oa\":[\000"
 4732      796C6F61 
 4732      64223A7B 
 4732      226F6122 
 4732      3A5B00
 4733              	.LC196:
 4734 08b9 5D7D00   		.ascii	"]}\000"
 4735              	.LC201:
 4736 08bc 2C22666C 		.ascii	",\"flags\":\"\000"
 4736      61677322 
 4736      3A2200
 4737              	.LC203:
 4738 08c7 52455100 		.ascii	"REQ\000"
 4739              	.LC205:
 4740 08cb 5245515F 		.ascii	"REQ_ACK\000"
 4740      41434B00 
 4741              	.LC207:
 4742 08d3 41434B00 		.ascii	"ACK\000"
 4743              	.LC209:
 4744 08d7 4E41434B 		.ascii	"NACK\000"
 4744      00
 4745              	.LC211:
 4746 08dc 50555348 		.ascii	"PUSH\000"
 4746      00
 4747              	.LC213:
 4748 08e1 45525200 		.ascii	"ERR\000"
 4749              	.LC218:
 4750 08e5 64657374 		.ascii	"destination\000"
 4750      696E6174 
 4750      696F6E00 
 4751              	.LC220:
 4752 08f1 61746F6D 		.ascii	"atomType\000"
 4752      54797065 
 4752      00
 4753              	.LC222:
 4754 08fa 5700     		.ascii	"W\000"
 4755              	.LC224:
 4756 08fc 61746F6D 		.ascii	"atomId\000"
 4756      496400
 4757              	.LC226:
 4758 0903 3000     		.ascii	"0\000"
 4759              	.LC228:
 4760 0905 736F7572 		.ascii	"source\000"
 4760      636500
 4761              	.LC230:
 4762 090c 666C6167 		.ascii	"flags\000"
 4762      7300
 4763              	.LC237:
 4764 0912 6F726465 		.ascii	"order\000"
 4764      7200
 4765              	.LC239:
 4766 0918 7061796C 		.ascii	"payload\000"
 4766      6F616400 
 4767              	.LC262:
ARM GAS  C:\Users\SDEVAS~1\AppData\Local\Temp\ccPhqTSe.s 			page 107


 4768 0920 53657400 		.ascii	"Set\000"
 4769              	.LC264:
 4770 0924 47657400 		.ascii	"Get\000"
 4771              	.LC266:
 4772 0928 496E666F 		.ascii	"Info\000"
 4772      00
 4773              	.LC268:
 4774 092d 53746174 		.ascii	"Status\000"
 4774      757300
 4775              	.LC270:
 4776 0934 4D6F6465 		.ascii	"Mode\000"
 4776      00
 4777              	.LC274:
 4778 0939 7B226174 		.ascii	"{\"atomType\":\"W\",\"atomId\":0}\000"
 4778      6F6D5479 
 4778      7065223A 
 4778      2257222C 
 4778      2261746F 
 4779              		.data
 4780              		.align	2
 4781              		.set	.LANCHOR0,. + 0
 4782              		.type	respEnd, %object
 4783              		.size	respEnd, 4
 4784              	respEnd:
 4785 0000 00000000 		.word	respBuff
 4786              		.type	respFreeSpace, %object
 4787              		.size	respFreeSpace, 4
 4788              	respFreeSpace:
 4789 0004 2C010000 		.word	300
 4790              		.type	msgDestinationHolderAtomType, %object
 4791              		.size	msgDestinationHolderAtomType, 4
 4792              	msgDestinationHolderAtomType:
 4793 0008 0D000000 		.word	msgDestinationHolder+13
 4794              		.type	msgDestinationHolderAtomId, %object
 4795              		.size	msgDestinationHolderAtomId, 4
 4796              	msgDestinationHolderAtomId:
 4797 000c 19000000 		.word	msgDestinationHolder+25
 4798              		.type	msgDestinationHolder, %object
 4799              		.size	msgDestinationHolder, 28
 4800              	msgDestinationHolder:
 4801 0010 7B226174 		.ascii	"{\"atomType\":\"X\",\"atomId\":0}\000"
 4801      6F6D5479 
 4801      7065223A 
 4801      2258222C 
 4801      2261746F 
 4802              		.bss
 4803              		.align	2
 4804              		.set	.LANCHOR1,. + 0
 4805              		.type	sendingTicks, %object
 4806              		.size	sendingTicks, 4
 4807              	sendingTicks:
 4808 0000 00000000 		.space	4
 4809              		.type	msgDest, %object
 4810              		.size	msgDest, 4
 4811              	msgDest:
 4812 0004 00000000 		.space	4
 4813              		.type	msgSource, %object
ARM GAS  C:\Users\SDEVAS~1\AppData\Local\Temp\ccPhqTSe.s 			page 108


 4814              		.size	msgSource, 4
 4815              	msgSource:
 4816 0008 00000000 		.space	4
 4817              		.type	payload, %object
 4818              		.size	payload, 4
 4819              	payload:
 4820 000c 00000000 		.space	4
 4821              		.type	order, %object
 4822              		.size	order, 4
 4823              	order:
 4824 0010 00000000 		.space	4
 4825              		.type	flags, %object
 4826              		.size	flags, 1
 4827              	flags:
 4828 0014 00       		.space	1
 4829 0015 000000   		.space	3
 4830              		.type	parser, %object
 4831              		.size	parser, 12
 4832              	parser:
 4833 0018 00000000 		.space	12
 4833      00000000 
 4833      00000000 
 4834              		.type	msgDestLen, %object
 4835              		.size	msgDestLen, 4
 4836              	msgDestLen:
 4837 0024 00000000 		.space	4
 4838              		.type	msgSourceLen, %object
 4839              		.size	msgSourceLen, 4
 4840              	msgSourceLen:
 4841 0028 00000000 		.space	4
 4842              		.type	orderLen, %object
 4843              		.size	orderLen, 4
 4844              	orderLen:
 4845 002c 00000000 		.space	4
 4846              		.type	payloadLen, %object
 4847              		.size	payloadLen, 4
 4848              	payloadLen:
 4849 0030 00000000 		.space	4
 4850              		.type	error_counter.6372, %object
 4851              		.size	error_counter.6372, 4
 4852              	error_counter.6372:
 4853 0034 00000000 		.space	4
 4854              		.type	timeout_counter.6373, %object
 4855              		.size	timeout_counter.6373, 4
 4856              	timeout_counter.6373:
 4857 0038 00000000 		.space	4
 4858              		.weak	conv_str2ia
 4859              		.weak	conv_ia2str
 4860              		.text
 4861              	.Letext0:
 4862              		.file 2 "c:\\program files (x86)\\cypress\\psoc creator\\3.2\\psoc creator\\import\\gnu\\arm\\4.8.
 4863              		.file 3 "c:\\program files (x86)\\cypress\\psoc creator\\3.2\\psoc creator\\import\\gnu\\arm\\4.8.
 4864              		.file 4 "Generated_Source\\PSoC4/cytypes.h"
 4865              		.file 5 "c:\\program files (x86)\\cypress\\psoc creator\\3.2\\psoc creator\\import\\gnu\\arm\\4.8.
 4866              		.file 6 "Generated_Source\\PSoC4/comm_RS485.h"
 4867              		.file 7 "Generated_Source\\PSoC4/comm_jsmn.h"
 4868              		.file 8 "Generated_Source\\PSoC4/comm.h"
ARM GAS  C:\Users\SDEVAS~1\AppData\Local\Temp\ccPhqTSe.s 			page 109


 4869              		.file 9 "c:\\program files (x86)\\cypress\\psoc creator\\3.2\\psoc creator\\import\\gnu\\arm\\4.8.
 4870              		.file 10 "Generated_Source\\PSoC4/comm_conv.h"
 4871              		.section	.debug_info,"",%progbits
 4872              	.Ldebug_info0:
 4873 0000 E9370000 		.4byte	0x37e9
 4874 0004 0400     		.2byte	0x4
 4875 0006 00000000 		.4byte	.Ldebug_abbrev0
 4876 000a 04       		.byte	0x4
 4877 000b 01       		.uleb128 0x1
 4878 000c 94010000 		.4byte	.LASF291
 4879 0010 01       		.byte	0x1
 4880 0011 47130000 		.4byte	.LASF292
 4881 0015 1D060000 		.4byte	.LASF293
 4882 0019 68000000 		.4byte	.Ldebug_ranges0+0x68
 4883 001d 00000000 		.4byte	0
 4884 0021 00000000 		.4byte	.Ldebug_line0
 4885 0025 02       		.uleb128 0x2
 4886 0026 01       		.byte	0x1
 4887 0027 06       		.byte	0x6
 4888 0028 06140000 		.4byte	.LASF0
 4889 002c 02       		.uleb128 0x2
 4890 002d 01       		.byte	0x1
 4891 002e 08       		.byte	0x8
 4892 002f BC110000 		.4byte	.LASF1
 4893 0033 02       		.uleb128 0x2
 4894 0034 02       		.byte	0x2
 4895 0035 05       		.byte	0x5
 4896 0036 540F0000 		.4byte	.LASF2
 4897 003a 02       		.uleb128 0x2
 4898 003b 02       		.byte	0x2
 4899 003c 07       		.byte	0x7
 4900 003d 4D140000 		.4byte	.LASF3
 4901 0041 02       		.uleb128 0x2
 4902 0042 04       		.byte	0x4
 4903 0043 05       		.byte	0x5
 4904 0044 810F0000 		.4byte	.LASF4
 4905 0048 03       		.uleb128 0x3
 4906 0049 CA110000 		.4byte	.LASF9
 4907 004d 02       		.byte	0x2
 4908 004e 38       		.byte	0x38
 4909 004f 53000000 		.4byte	0x53
 4910 0053 02       		.uleb128 0x2
 4911 0054 04       		.byte	0x4
 4912 0055 07       		.byte	0x7
 4913 0056 98100000 		.4byte	.LASF5
 4914 005a 02       		.uleb128 0x2
 4915 005b 08       		.byte	0x8
 4916 005c 05       		.byte	0x5
 4917 005d 890A0000 		.4byte	.LASF6
 4918 0061 02       		.uleb128 0x2
 4919 0062 08       		.byte	0x8
 4920 0063 07       		.byte	0x7
 4921 0064 3A050000 		.4byte	.LASF7
 4922 0068 04       		.uleb128 0x4
 4923 0069 04       		.byte	0x4
 4924 006a 05       		.byte	0x5
 4925 006b 696E7400 		.ascii	"int\000"
ARM GAS  C:\Users\SDEVAS~1\AppData\Local\Temp\ccPhqTSe.s 			page 110


 4926 006f 02       		.uleb128 0x2
 4927 0070 04       		.byte	0x4
 4928 0071 07       		.byte	0x7
 4929 0072 4D010000 		.4byte	.LASF8
 4930 0076 03       		.uleb128 0x3
 4931 0077 56040000 		.4byte	.LASF10
 4932 007b 03       		.byte	0x3
 4933 007c 42       		.byte	0x42
 4934 007d 48000000 		.4byte	0x48
 4935 0081 03       		.uleb128 0x3
 4936 0082 EE140000 		.4byte	.LASF11
 4937 0086 04       		.byte	0x4
 4938 0087 B3       		.byte	0xb3
 4939 0088 2C000000 		.4byte	0x2c
 4940 008c 03       		.uleb128 0x3
 4941 008d C40B0000 		.4byte	.LASF12
 4942 0091 04       		.byte	0x4
 4943 0092 B5       		.byte	0xb5
 4944 0093 53000000 		.4byte	0x53
 4945 0097 02       		.uleb128 0x2
 4946 0098 04       		.byte	0x4
 4947 0099 04       		.byte	0x4
 4948 009a C2040000 		.4byte	.LASF13
 4949 009e 02       		.uleb128 0x2
 4950 009f 08       		.byte	0x8
 4951 00a0 04       		.byte	0x4
 4952 00a1 F4140000 		.4byte	.LASF14
 4953 00a5 02       		.uleb128 0x2
 4954 00a6 01       		.byte	0x1
 4955 00a7 08       		.byte	0x8
 4956 00a8 20080000 		.4byte	.LASF15
 4957 00ac 05       		.uleb128 0x5
 4958 00ad 04       		.byte	0x4
 4959 00ae B2000000 		.4byte	0xb2
 4960 00b2 06       		.uleb128 0x6
 4961 00b3 03       		.uleb128 0x3
 4962 00b4 86060000 		.4byte	.LASF16
 4963 00b8 05       		.byte	0x5
 4964 00b9 D4       		.byte	0xd4
 4965 00ba 6F000000 		.4byte	0x6f
 4966 00be 02       		.uleb128 0x2
 4967 00bf 04       		.byte	0x4
 4968 00c0 07       		.byte	0x7
 4969 00c1 77100000 		.4byte	.LASF17
 4970 00c5 07       		.uleb128 0x7
 4971 00c6 04       		.byte	0x4
 4972 00c7 05       		.uleb128 0x5
 4973 00c8 04       		.byte	0x4
 4974 00c9 A5000000 		.4byte	0xa5
 4975 00cd 05       		.uleb128 0x5
 4976 00ce 04       		.byte	0x4
 4977 00cf D3000000 		.4byte	0xd3
 4978 00d3 08       		.uleb128 0x8
 4979 00d4 A5000000 		.4byte	0xa5
 4980 00d8 03       		.uleb128 0x3
 4981 00d9 10020000 		.4byte	.LASF18
 4982 00dd 06       		.byte	0x6
ARM GAS  C:\Users\SDEVAS~1\AppData\Local\Temp\ccPhqTSe.s 			page 111


 4983 00de 1B       		.byte	0x1b
 4984 00df E3000000 		.4byte	0xe3
 4985 00e3 05       		.uleb128 0x5
 4986 00e4 04       		.byte	0x4
 4987 00e5 E9000000 		.4byte	0xe9
 4988 00e9 09       		.uleb128 0x9
 4989 00ea F4000000 		.4byte	0xf4
 4990 00ee 0A       		.uleb128 0xa
 4991 00ef 81000000 		.4byte	0x81
 4992 00f3 00       		.byte	0
 4993 00f4 0B       		.uleb128 0xb
 4994 00f5 01       		.byte	0x1
 4995 00f6 06       		.byte	0x6
 4996 00f7 28       		.byte	0x28
 4997 00f8 0F010000 		.4byte	0x10f
 4998 00fc 0C       		.uleb128 0xc
 4999 00fd A2120000 		.4byte	.LASF19
 5000 0101 00       		.sleb128 0
 5001 0102 0C       		.uleb128 0xc
 5002 0103 2A050000 		.4byte	.LASF20
 5003 0107 01       		.sleb128 1
 5004 0108 0C       		.uleb128 0xc
 5005 0109 AB150000 		.4byte	.LASF21
 5006 010d 02       		.sleb128 2
 5007 010e 00       		.byte	0
 5008 010f 03       		.uleb128 0x3
 5009 0110 D20D0000 		.4byte	.LASF22
 5010 0114 06       		.byte	0x6
 5011 0115 30       		.byte	0x30
 5012 0116 F4000000 		.4byte	0xf4
 5013 011a 03       		.uleb128 0x3
 5014 011b 7C030000 		.4byte	.LASF23
 5015 011f 06       		.byte	0x6
 5016 0120 36       		.byte	0x36
 5017 0121 8C000000 		.4byte	0x8c
 5018 0125 03       		.uleb128 0x3
 5019 0126 D2070000 		.4byte	.LASF24
 5020 012a 06       		.byte	0x6
 5021 012b 3A       		.byte	0x3a
 5022 012c 30010000 		.4byte	0x130
 5023 0130 05       		.uleb128 0x5
 5024 0131 04       		.byte	0x4
 5025 0132 36010000 		.4byte	0x136
 5026 0136 09       		.uleb128 0x9
 5027 0137 46010000 		.4byte	0x146
 5028 013b 0A       		.uleb128 0xa
 5029 013c C7000000 		.4byte	0xc7
 5030 0140 0A       		.uleb128 0xa
 5031 0141 8C000000 		.4byte	0x8c
 5032 0145 00       		.byte	0
 5033 0146 03       		.uleb128 0x3
 5034 0147 340E0000 		.4byte	.LASF25
 5035 014b 06       		.byte	0x6
 5036 014c 43       		.byte	0x43
 5037 014d 30010000 		.4byte	0x130
 5038 0151 03       		.uleb128 0x3
 5039 0152 55020000 		.4byte	.LASF26
ARM GAS  C:\Users\SDEVAS~1\AppData\Local\Temp\ccPhqTSe.s 			page 112


 5040 0156 06       		.byte	0x6
 5041 0157 4D       		.byte	0x4d
 5042 0158 AC000000 		.4byte	0xac
 5043 015c 03       		.uleb128 0x3
 5044 015d F30E0000 		.4byte	.LASF27
 5045 0161 06       		.byte	0x6
 5046 0162 54       		.byte	0x54
 5047 0163 AC000000 		.4byte	0xac
 5048 0167 03       		.uleb128 0x3
 5049 0168 9D050000 		.4byte	.LASF28
 5050 016c 06       		.byte	0x6
 5051 016d 5B       		.byte	0x5b
 5052 016e AC000000 		.4byte	0xac
 5053 0172 03       		.uleb128 0x3
 5054 0173 5E0F0000 		.4byte	.LASF29
 5055 0177 06       		.byte	0x6
 5056 0178 62       		.byte	0x62
 5057 0179 AC000000 		.4byte	0xac
 5058 017d 03       		.uleb128 0x3
 5059 017e EB080000 		.4byte	.LASF30
 5060 0182 06       		.byte	0x6
 5061 0183 6A       		.byte	0x6a
 5062 0184 88010000 		.4byte	0x188
 5063 0188 05       		.uleb128 0x5
 5064 0189 04       		.byte	0x4
 5065 018a 8E010000 		.4byte	0x18e
 5066 018e 09       		.uleb128 0x9
 5067 018f 99010000 		.4byte	0x199
 5068 0193 0A       		.uleb128 0xa
 5069 0194 1A010000 		.4byte	0x11a
 5070 0198 00       		.byte	0
 5071 0199 03       		.uleb128 0x3
 5072 019a 1E120000 		.4byte	.LASF31
 5073 019e 06       		.byte	0x6
 5074 019f 71       		.byte	0x71
 5075 01a0 AC000000 		.4byte	0xac
 5076 01a4 0B       		.uleb128 0xb
 5077 01a5 01       		.byte	0x1
 5078 01a6 07       		.byte	0x7
 5079 01a7 18       		.byte	0x18
 5080 01a8 C5010000 		.4byte	0x1c5
 5081 01ac 0C       		.uleb128 0xc
 5082 01ad 19130000 		.4byte	.LASF32
 5083 01b1 00       		.sleb128 0
 5084 01b2 0C       		.uleb128 0xc
 5085 01b3 970A0000 		.4byte	.LASF33
 5086 01b7 01       		.sleb128 1
 5087 01b8 0C       		.uleb128 0xc
 5088 01b9 FE020000 		.4byte	.LASF34
 5089 01bd 02       		.sleb128 2
 5090 01be 0C       		.uleb128 0xc
 5091 01bf 010C0000 		.4byte	.LASF35
 5092 01c3 03       		.sleb128 3
 5093 01c4 00       		.byte	0
 5094 01c5 03       		.uleb128 0x3
 5095 01c6 EE070000 		.4byte	.LASF36
 5096 01ca 07       		.byte	0x7
ARM GAS  C:\Users\SDEVAS~1\AppData\Local\Temp\ccPhqTSe.s 			page 113


 5097 01cb 1D       		.byte	0x1d
 5098 01cc A4010000 		.4byte	0x1a4
 5099 01d0 0B       		.uleb128 0xb
 5100 01d1 01       		.byte	0x1
 5101 01d2 07       		.byte	0x7
 5102 01d3 1F       		.byte	0x1f
 5103 01d4 EB010000 		.4byte	0x1eb
 5104 01d8 0C       		.uleb128 0xc
 5105 01d9 E90D0000 		.4byte	.LASF37
 5106 01dd 7F       		.sleb128 -1
 5107 01de 0C       		.uleb128 0xc
 5108 01df C7020000 		.4byte	.LASF38
 5109 01e3 7E       		.sleb128 -2
 5110 01e4 0C       		.uleb128 0xc
 5111 01e5 8A0F0000 		.4byte	.LASF39
 5112 01e9 7D       		.sleb128 -3
 5113 01ea 00       		.byte	0
 5114 01eb 03       		.uleb128 0x3
 5115 01ec 0A0E0000 		.4byte	.LASF40
 5116 01f0 07       		.byte	0x7
 5117 01f1 26       		.byte	0x26
 5118 01f2 D0010000 		.4byte	0x1d0
 5119 01f6 0D       		.uleb128 0xd
 5120 01f7 10       		.byte	0x10
 5121 01f8 07       		.byte	0x7
 5122 01f9 2E       		.byte	0x2e
 5123 01fa 2F020000 		.4byte	0x22f
 5124 01fe 0E       		.uleb128 0xe
 5125 01ff A7110000 		.4byte	.LASF41
 5126 0203 07       		.byte	0x7
 5127 0204 2F       		.byte	0x2f
 5128 0205 C5010000 		.4byte	0x1c5
 5129 0209 00       		.byte	0
 5130 020a 0E       		.uleb128 0xe
 5131 020b 25100000 		.4byte	.LASF42
 5132 020f 07       		.byte	0x7
 5133 0210 30       		.byte	0x30
 5134 0211 68000000 		.4byte	0x68
 5135 0215 04       		.byte	0x4
 5136 0216 0F       		.uleb128 0xf
 5137 0217 656E6400 		.ascii	"end\000"
 5138 021b 07       		.byte	0x7
 5139 021c 31       		.byte	0x31
 5140 021d 68000000 		.4byte	0x68
 5141 0221 08       		.byte	0x8
 5142 0222 0E       		.uleb128 0xe
 5143 0223 A60B0000 		.4byte	.LASF43
 5144 0227 07       		.byte	0x7
 5145 0228 32       		.byte	0x32
 5146 0229 68000000 		.4byte	0x68
 5147 022d 0C       		.byte	0xc
 5148 022e 00       		.byte	0
 5149 022f 03       		.uleb128 0x3
 5150 0230 F4020000 		.4byte	.LASF44
 5151 0234 07       		.byte	0x7
 5152 0235 36       		.byte	0x36
 5153 0236 F6010000 		.4byte	0x1f6
ARM GAS  C:\Users\SDEVAS~1\AppData\Local\Temp\ccPhqTSe.s 			page 114


 5154 023a 0D       		.uleb128 0xd
 5155 023b 0C       		.byte	0xc
 5156 023c 07       		.byte	0x7
 5157 023d 3C       		.byte	0x3c
 5158 023e 67020000 		.4byte	0x267
 5159 0242 0F       		.uleb128 0xf
 5160 0243 706F7300 		.ascii	"pos\000"
 5161 0247 07       		.byte	0x7
 5162 0248 3D       		.byte	0x3d
 5163 0249 6F000000 		.4byte	0x6f
 5164 024d 00       		.byte	0
 5165 024e 0E       		.uleb128 0xe
 5166 024f 270C0000 		.4byte	.LASF45
 5167 0253 07       		.byte	0x7
 5168 0254 3E       		.byte	0x3e
 5169 0255 6F000000 		.4byte	0x6f
 5170 0259 04       		.byte	0x4
 5171 025a 0E       		.uleb128 0xe
 5172 025b FD100000 		.4byte	.LASF46
 5173 025f 07       		.byte	0x7
 5174 0260 3F       		.byte	0x3f
 5175 0261 68000000 		.4byte	0x68
 5176 0265 08       		.byte	0x8
 5177 0266 00       		.byte	0
 5178 0267 03       		.uleb128 0x3
 5179 0268 33010000 		.4byte	.LASF47
 5180 026c 07       		.byte	0x7
 5181 026d 40       		.byte	0x40
 5182 026e 3A020000 		.4byte	0x23a
 5183 0272 0D       		.uleb128 0xd
 5184 0273 04       		.byte	0x4
 5185 0274 08       		.byte	0x8
 5186 0275 31       		.byte	0x31
 5187 0276 B7020000 		.4byte	0x2b7
 5188 027a 10       		.uleb128 0x10
 5189 027b F00F0000 		.4byte	.LASF48
 5190 027f 08       		.byte	0x8
 5191 0280 32       		.byte	0x32
 5192 0281 8C000000 		.4byte	0x8c
 5193 0285 04       		.byte	0x4
 5194 0286 01       		.byte	0x1
 5195 0287 1F       		.byte	0x1f
 5196 0288 00       		.byte	0
 5197 0289 10       		.uleb128 0x10
 5198 028a 50000000 		.4byte	.LASF49
 5199 028e 08       		.byte	0x8
 5200 028f 33       		.byte	0x33
 5201 0290 8C000000 		.4byte	0x8c
 5202 0294 04       		.byte	0x4
 5203 0295 01       		.byte	0x1
 5204 0296 1E       		.byte	0x1e
 5205 0297 00       		.byte	0
 5206 0298 10       		.uleb128 0x10
 5207 0299 73070000 		.4byte	.LASF50
 5208 029d 08       		.byte	0x8
 5209 029e 34       		.byte	0x34
 5210 029f 8C000000 		.4byte	0x8c
ARM GAS  C:\Users\SDEVAS~1\AppData\Local\Temp\ccPhqTSe.s 			page 115


 5211 02a3 04       		.byte	0x4
 5212 02a4 01       		.byte	0x1
 5213 02a5 1D       		.byte	0x1d
 5214 02a6 00       		.byte	0
 5215 02a7 10       		.uleb128 0x10
 5216 02a8 94050000 		.4byte	.LASF51
 5217 02ac 08       		.byte	0x8
 5218 02ad 35       		.byte	0x35
 5219 02ae 8C000000 		.4byte	0x8c
 5220 02b2 04       		.byte	0x4
 5221 02b3 01       		.byte	0x1
 5222 02b4 1C       		.byte	0x1c
 5223 02b5 00       		.byte	0
 5224 02b6 00       		.byte	0
 5225 02b7 0B       		.uleb128 0xb
 5226 02b8 01       		.byte	0x1
 5227 02b9 08       		.byte	0x8
 5228 02ba 37       		.byte	0x37
 5229 02bb DE020000 		.4byte	0x2de
 5230 02bf 0C       		.uleb128 0xc
 5231 02c0 3D040000 		.4byte	.LASF52
 5232 02c4 00       		.sleb128 0
 5233 02c5 0C       		.uleb128 0xc
 5234 02c6 64080000 		.4byte	.LASF53
 5235 02ca 01       		.sleb128 1
 5236 02cb 0C       		.uleb128 0xc
 5237 02cc 8D110000 		.4byte	.LASF54
 5238 02d0 02       		.sleb128 2
 5239 02d1 0C       		.uleb128 0xc
 5240 02d2 DC130000 		.4byte	.LASF55
 5241 02d6 03       		.sleb128 3
 5242 02d7 0C       		.uleb128 0xc
 5243 02d8 4C080000 		.4byte	.LASF56
 5244 02dc 04       		.sleb128 4
 5245 02dd 00       		.byte	0
 5246 02de 11       		.uleb128 0x11
 5247 02df 4401     		.2byte	0x144
 5248 02e1 08       		.byte	0x8
 5249 02e2 2E       		.byte	0x2e
 5250 02e3 42030000 		.4byte	0x342
 5251 02e7 0E       		.uleb128 0xe
 5252 02e8 4D040000 		.4byte	.LASF57
 5253 02ec 08       		.byte	0x8
 5254 02ed 2F       		.byte	0x2f
 5255 02ee 42030000 		.4byte	0x342
 5256 02f2 00       		.byte	0
 5257 02f3 12       		.uleb128 0x12
 5258 02f4 6C656E00 		.ascii	"len\000"
 5259 02f8 08       		.byte	0x8
 5260 02f9 30       		.byte	0x30
 5261 02fa 8C000000 		.4byte	0x8c
 5262 02fe 2C01     		.2byte	0x12c
 5263 0300 13       		.uleb128 0x13
 5264 0301 BE000000 		.4byte	.LASF58
 5265 0305 08       		.byte	0x8
 5266 0306 36       		.byte	0x36
 5267 0307 72020000 		.4byte	0x272
ARM GAS  C:\Users\SDEVAS~1\AppData\Local\Temp\ccPhqTSe.s 			page 116


 5268 030b 3001     		.2byte	0x130
 5269 030d 13       		.uleb128 0x13
 5270 030e 41130000 		.4byte	.LASF59
 5271 0312 08       		.byte	0x8
 5272 0313 3D       		.byte	0x3d
 5273 0314 B7020000 		.4byte	0x2b7
 5274 0318 3401     		.2byte	0x134
 5275 031a 13       		.uleb128 0x13
 5276 031b C8040000 		.4byte	.LASF60
 5277 031f 08       		.byte	0x8
 5278 0320 3E       		.byte	0x3e
 5279 0321 CD000000 		.4byte	0xcd
 5280 0325 3801     		.2byte	0x138
 5281 0327 13       		.uleb128 0x13
 5282 0328 06110000 		.4byte	.LASF61
 5283 032c 08       		.byte	0x8
 5284 032d 3F       		.byte	0x3f
 5285 032e 68000000 		.4byte	0x68
 5286 0332 3C01     		.2byte	0x13c
 5287 0334 13       		.uleb128 0x13
 5288 0335 FB030000 		.4byte	.LASF62
 5289 0339 08       		.byte	0x8
 5290 033a 40       		.byte	0x40
 5291 033b 1A010000 		.4byte	0x11a
 5292 033f 4001     		.2byte	0x140
 5293 0341 00       		.byte	0
 5294 0342 14       		.uleb128 0x14
 5295 0343 A5000000 		.4byte	0xa5
 5296 0347 53030000 		.4byte	0x353
 5297 034b 15       		.uleb128 0x15
 5298 034c BE000000 		.4byte	0xbe
 5299 0350 2B01     		.2byte	0x12b
 5300 0352 00       		.byte	0
 5301 0353 03       		.uleb128 0x3
 5302 0354 8D040000 		.4byte	.LASF63
 5303 0358 08       		.byte	0x8
 5304 0359 41       		.byte	0x41
 5305 035a DE020000 		.4byte	0x2de
 5306 035e 0B       		.uleb128 0xb
 5307 035f 01       		.byte	0x1
 5308 0360 08       		.byte	0x8
 5309 0361 44       		.byte	0x44
 5310 0362 8B030000 		.4byte	0x38b
 5311 0366 0C       		.uleb128 0xc
 5312 0367 1B0A0000 		.4byte	.LASF64
 5313 036b 00       		.sleb128 0
 5314 036c 0C       		.uleb128 0xc
 5315 036d BB130000 		.4byte	.LASF65
 5316 0371 01       		.sleb128 1
 5317 0372 0C       		.uleb128 0xc
 5318 0373 1D000000 		.4byte	.LASF66
 5319 0377 02       		.sleb128 2
 5320 0378 0C       		.uleb128 0xc
 5321 0379 66040000 		.4byte	.LASF67
 5322 037d 03       		.sleb128 3
 5323 037e 0C       		.uleb128 0xc
 5324 037f 3F090000 		.4byte	.LASF68
ARM GAS  C:\Users\SDEVAS~1\AppData\Local\Temp\ccPhqTSe.s 			page 117


 5325 0383 04       		.sleb128 4
 5326 0384 0C       		.uleb128 0xc
 5327 0385 7E0C0000 		.4byte	.LASF69
 5328 0389 08       		.sleb128 8
 5329 038a 00       		.byte	0
 5330 038b 03       		.uleb128 0x3
 5331 038c 8F020000 		.4byte	.LASF70
 5332 0390 08       		.byte	0x8
 5333 0391 4B       		.byte	0x4b
 5334 0392 5E030000 		.4byte	0x35e
 5335 0396 0B       		.uleb128 0xb
 5336 0397 01       		.byte	0x1
 5337 0398 08       		.byte	0x8
 5338 0399 6B       		.byte	0x6b
 5339 039a C3030000 		.4byte	0x3c3
 5340 039e 0C       		.uleb128 0xc
 5341 039f FE110000 		.4byte	.LASF71
 5342 03a3 00       		.sleb128 0
 5343 03a4 0C       		.uleb128 0xc
 5344 03a5 9C020000 		.4byte	.LASF72
 5345 03a9 01       		.sleb128 1
 5346 03aa 0C       		.uleb128 0xc
 5347 03ab 9C130000 		.4byte	.LASF73
 5348 03af 02       		.sleb128 2
 5349 03b0 0C       		.uleb128 0xc
 5350 03b1 C5080000 		.4byte	.LASF74
 5351 03b5 03       		.sleb128 3
 5352 03b6 0C       		.uleb128 0xc
 5353 03b7 BE060000 		.4byte	.LASF75
 5354 03bb 04       		.sleb128 4
 5355 03bc 0C       		.uleb128 0xc
 5356 03bd 45030000 		.4byte	.LASF76
 5357 03c1 05       		.sleb128 5
 5358 03c2 00       		.byte	0
 5359 03c3 03       		.uleb128 0x3
 5360 03c4 650B0000 		.4byte	.LASF77
 5361 03c8 08       		.byte	0x8
 5362 03c9 71       		.byte	0x71
 5363 03ca 96030000 		.4byte	0x396
 5364 03ce 0B       		.uleb128 0xb
 5365 03cf 01       		.byte	0x1
 5366 03d0 01       		.byte	0x1
 5367 03d1 4B       		.byte	0x4b
 5368 03d2 BB040000 		.4byte	0x4bb
 5369 03d6 0C       		.uleb128 0xc
 5370 03d7 0D0C0000 		.4byte	.LASF78
 5371 03db 00       		.sleb128 0
 5372 03dc 0C       		.uleb128 0xc
 5373 03dd A7040000 		.4byte	.LASF79
 5374 03e1 01       		.sleb128 1
 5375 03e2 0C       		.uleb128 0xc
 5376 03e3 A2070000 		.4byte	.LASF80
 5377 03e7 02       		.sleb128 2
 5378 03e8 0C       		.uleb128 0xc
 5379 03e9 2F0D0000 		.4byte	.LASF81
 5380 03ed 03       		.sleb128 3
 5381 03ee 0C       		.uleb128 0xc
ARM GAS  C:\Users\SDEVAS~1\AppData\Local\Temp\ccPhqTSe.s 			page 118


 5382 03ef D2140000 		.4byte	.LASF82
 5383 03f3 04       		.sleb128 4
 5384 03f4 0C       		.uleb128 0xc
 5385 03f5 E10C0000 		.4byte	.LASF83
 5386 03f9 05       		.sleb128 5
 5387 03fa 0C       		.uleb128 0xc
 5388 03fb 5A010000 		.4byte	.LASF84
 5389 03ff 06       		.sleb128 6
 5390 0400 0C       		.uleb128 0xc
 5391 0401 19010000 		.4byte	.LASF85
 5392 0405 07       		.sleb128 7
 5393 0406 0C       		.uleb128 0xc
 5394 0407 21090000 		.4byte	.LASF86
 5395 040b 08       		.sleb128 8
 5396 040c 0C       		.uleb128 0xc
 5397 040d 2D110000 		.4byte	.LASF87
 5398 0411 09       		.sleb128 9
 5399 0412 0C       		.uleb128 0xc
 5400 0413 610D0000 		.4byte	.LASF88
 5401 0417 0A       		.sleb128 10
 5402 0418 0C       		.uleb128 0xc
 5403 0419 E7040000 		.4byte	.LASF89
 5404 041d 0B       		.sleb128 11
 5405 041e 0C       		.uleb128 0xc
 5406 041f A8080000 		.4byte	.LASF90
 5407 0423 0C       		.sleb128 12
 5408 0424 0C       		.uleb128 0xc
 5409 0425 A70D0000 		.4byte	.LASF91
 5410 0429 0D       		.sleb128 13
 5411 042a 0C       		.uleb128 0xc
 5412 042b 75020000 		.4byte	.LASF92
 5413 042f 0E       		.sleb128 14
 5414 0430 0C       		.uleb128 0xc
 5415 0431 740A0000 		.4byte	.LASF93
 5416 0435 0F       		.sleb128 15
 5417 0436 0C       		.uleb128 0xc
 5418 0437 AA140000 		.4byte	.LASF94
 5419 043b 10       		.sleb128 16
 5420 043c 0C       		.uleb128 0xc
 5421 043d 140E0000 		.4byte	.LASF95
 5422 0441 11       		.sleb128 17
 5423 0442 0C       		.uleb128 0xc
 5424 0443 26070000 		.4byte	.LASF96
 5425 0447 12       		.sleb128 18
 5426 0448 0C       		.uleb128 0xc
 5427 0449 530E0000 		.4byte	.LASF97
 5428 044d 13       		.sleb128 19
 5429 044e 0C       		.uleb128 0xc
 5430 044f 730E0000 		.4byte	.LASF98
 5431 0453 14       		.sleb128 20
 5432 0454 0C       		.uleb128 0xc
 5433 0455 930E0000 		.4byte	.LASF99
 5434 0459 15       		.sleb128 21
 5435 045a 0C       		.uleb128 0xc
 5436 045b B30E0000 		.4byte	.LASF100
 5437 045f 16       		.sleb128 22
 5438 0460 0C       		.uleb128 0xc
ARM GAS  C:\Users\SDEVAS~1\AppData\Local\Temp\ccPhqTSe.s 			page 119


 5439 0461 D30E0000 		.4byte	.LASF101
 5440 0465 17       		.sleb128 23
 5441 0466 0C       		.uleb128 0xc
 5442 0467 53070000 		.4byte	.LASF102
 5443 046b 18       		.sleb128 24
 5444 046c 0C       		.uleb128 0xc
 5445 046d 140F0000 		.4byte	.LASF103
 5446 0471 19       		.sleb128 25
 5447 0472 0C       		.uleb128 0xc
 5448 0473 340F0000 		.4byte	.LASF104
 5449 0477 1A       		.sleb128 26
 5450 0478 0C       		.uleb128 0xc
 5451 0479 80100000 		.4byte	.LASF105
 5452 047d 1B       		.sleb128 27
 5453 047e 0C       		.uleb128 0xc
 5454 047f 8F0B0000 		.4byte	.LASF106
 5455 0483 1C       		.sleb128 28
 5456 0484 0C       		.uleb128 0xc
 5457 0485 13150000 		.4byte	.LASF107
 5458 0489 1D       		.sleb128 29
 5459 048a 0C       		.uleb128 0xc
 5460 048b 31150000 		.4byte	.LASF108
 5461 048f 1E       		.sleb128 30
 5462 0490 0C       		.uleb128 0xc
 5463 0491 4F150000 		.4byte	.LASF109
 5464 0495 1F       		.sleb128 31
 5465 0496 0C       		.uleb128 0xc
 5466 0497 6D150000 		.4byte	.LASF110
 5467 049b 20       		.sleb128 32
 5468 049c 0C       		.uleb128 0xc
 5469 049d 630C0000 		.4byte	.LASF111
 5470 04a1 21       		.sleb128 33
 5471 04a2 0C       		.uleb128 0xc
 5472 04a3 E10B0000 		.4byte	.LASF112
 5473 04a7 22       		.sleb128 34
 5474 04a8 0C       		.uleb128 0xc
 5475 04a9 E1000000 		.4byte	.LASF113
 5476 04ad 23       		.sleb128 35
 5477 04ae 0C       		.uleb128 0xc
 5478 04af A0030000 		.4byte	.LASF114
 5479 04b3 24       		.sleb128 36
 5480 04b4 0C       		.uleb128 0xc
 5481 04b5 CB0B0000 		.4byte	.LASF115
 5482 04b9 25       		.sleb128 37
 5483 04ba 00       		.byte	0
 5484 04bb 03       		.uleb128 0x3
 5485 04bc AA000000 		.4byte	.LASF116
 5486 04c0 01       		.byte	0x1
 5487 04c1 51       		.byte	0x51
 5488 04c2 CE030000 		.4byte	0x3ce
 5489 04c6 0B       		.uleb128 0xb
 5490 04c7 01       		.byte	0x1
 5491 04c8 01       		.byte	0x1
 5492 04c9 BA       		.byte	0xba
 5493 04ca ED040000 		.4byte	0x4ed
 5494 04ce 0C       		.uleb128 0xc
 5495 04cf 59060000 		.4byte	.LASF117
ARM GAS  C:\Users\SDEVAS~1\AppData\Local\Temp\ccPhqTSe.s 			page 120


 5496 04d3 00       		.sleb128 0
 5497 04d4 0C       		.uleb128 0xc
 5498 04d5 29020000 		.4byte	.LASF118
 5499 04d9 01       		.sleb128 1
 5500 04da 0C       		.uleb128 0xc
 5501 04db C4000000 		.4byte	.LASF119
 5502 04df 02       		.sleb128 2
 5503 04e0 0C       		.uleb128 0xc
 5504 04e1 D5110000 		.4byte	.LASF120
 5505 04e5 03       		.sleb128 3
 5506 04e6 0C       		.uleb128 0xc
 5507 04e7 DA030000 		.4byte	.LASF121
 5508 04eb 04       		.sleb128 4
 5509 04ec 00       		.byte	0
 5510 04ed 03       		.uleb128 0x3
 5511 04ee 96080000 		.4byte	.LASF122
 5512 04f2 01       		.byte	0x1
 5513 04f3 C0       		.byte	0xc0
 5514 04f4 C6040000 		.4byte	0x4c6
 5515 04f8 16       		.uleb128 0x16
 5516 04f9 12140000 		.4byte	.LASF191
 5517 04fd 01       		.byte	0x1
 5518 04fe 0602     		.2byte	0x206
 5519 0500 01       		.byte	0x1
 5520 0501 1E050000 		.4byte	0x51e
 5521 0505 17       		.uleb128 0x17
 5522 0506 54060000 		.4byte	.LASF123
 5523 050a 01       		.byte	0x1
 5524 050b 0602     		.2byte	0x206
 5525 050d C7000000 		.4byte	0xc7
 5526 0511 18       		.uleb128 0x18
 5527 0512 6C656E00 		.ascii	"len\000"
 5528 0516 01       		.byte	0x1
 5529 0517 0602     		.2byte	0x206
 5530 0519 8C000000 		.4byte	0x8c
 5531 051d 00       		.byte	0
 5532 051e 19       		.uleb128 0x19
 5533 051f F6130000 		.4byte	.LASF129
 5534 0523 01       		.byte	0x1
 5535 0524 1B01     		.2byte	0x11b
 5536 0526 8B030000 		.4byte	0x38b
 5537 052a 01       		.byte	0x1
 5538 052b A0050000 		.4byte	0x5a0
 5539 052f 17       		.uleb128 0x17
 5540 0530 BE000000 		.4byte	.LASF58
 5541 0534 01       		.byte	0x1
 5542 0535 1B01     		.2byte	0x11b
 5543 0537 8B030000 		.4byte	0x38b
 5544 053b 17       		.uleb128 0x17
 5545 053c 92060000 		.4byte	.LASF124
 5546 0540 01       		.byte	0x1
 5547 0541 1B01     		.2byte	0x11b
 5548 0543 CD000000 		.4byte	0xcd
 5549 0547 17       		.uleb128 0x17
 5550 0548 A10F0000 		.4byte	.LASF125
 5551 054c 01       		.byte	0x1
 5552 054d 1B01     		.2byte	0x11b
ARM GAS  C:\Users\SDEVAS~1\AppData\Local\Temp\ccPhqTSe.s 			page 121


 5553 054f 68000000 		.4byte	0x68
 5554 0553 17       		.uleb128 0x17
 5555 0554 5F040000 		.4byte	.LASF126
 5556 0558 01       		.byte	0x1
 5557 0559 1B01     		.2byte	0x11b
 5558 055b A0050000 		.4byte	0x5a0
 5559 055f 17       		.uleb128 0x17
 5560 0560 9A060000 		.4byte	.LASF127
 5561 0564 01       		.byte	0x1
 5562 0565 1B01     		.2byte	0x11b
 5563 0567 68000000 		.4byte	0x68
 5564 056b 1A       		.uleb128 0x1a
 5565 056c 08150000 		.4byte	.LASF131
 5566 0570 01       		.byte	0x1
 5567 0571 4E01     		.2byte	0x14e
 5568 0573 1B       		.uleb128 0x1b
 5569 0574 7400     		.ascii	"t\000"
 5570 0576 01       		.byte	0x1
 5571 0577 2801     		.2byte	0x128
 5572 0579 68000000 		.4byte	0x68
 5573 057d 1C       		.uleb128 0x1c
 5574 057e 8D060000 		.4byte	.LASF128
 5575 0582 01       		.byte	0x1
 5576 0583 2901     		.2byte	0x129
 5577 0585 BB040000 		.4byte	0x4bb
 5578 0589 1B       		.uleb128 0x1b
 5579 058a 6900     		.ascii	"i\000"
 5580 058c 01       		.byte	0x1
 5581 058d 2A01     		.2byte	0x12a
 5582 058f 68000000 		.4byte	0x68
 5583 0593 1B       		.uleb128 0x1b
 5584 0594 746D7000 		.ascii	"tmp\000"
 5585 0598 01       		.byte	0x1
 5586 0599 3C01     		.2byte	0x13c
 5587 059b 68000000 		.4byte	0x68
 5588 059f 00       		.byte	0
 5589 05a0 05       		.uleb128 0x5
 5590 05a1 04       		.byte	0x4
 5591 05a2 2F020000 		.4byte	0x22f
 5592 05a6 19       		.uleb128 0x19
 5593 05a7 F9070000 		.4byte	.LASF130
 5594 05ab 01       		.byte	0x1
 5595 05ac 5301     		.2byte	0x153
 5596 05ae 8B030000 		.4byte	0x38b
 5597 05b2 01       		.byte	0x1
 5598 05b3 4C060000 		.4byte	0x64c
 5599 05b7 17       		.uleb128 0x17
 5600 05b8 BE000000 		.4byte	.LASF58
 5601 05bc 01       		.byte	0x1
 5602 05bd 5301     		.2byte	0x153
 5603 05bf 8B030000 		.4byte	0x38b
 5604 05c3 17       		.uleb128 0x17
 5605 05c4 92060000 		.4byte	.LASF124
 5606 05c8 01       		.byte	0x1
 5607 05c9 5301     		.2byte	0x153
 5608 05cb CD000000 		.4byte	0xcd
 5609 05cf 17       		.uleb128 0x17
ARM GAS  C:\Users\SDEVAS~1\AppData\Local\Temp\ccPhqTSe.s 			page 122


 5610 05d0 A10F0000 		.4byte	.LASF125
 5611 05d4 01       		.byte	0x1
 5612 05d5 5301     		.2byte	0x153
 5613 05d7 68000000 		.4byte	0x68
 5614 05db 17       		.uleb128 0x17
 5615 05dc 5F040000 		.4byte	.LASF126
 5616 05e0 01       		.byte	0x1
 5617 05e1 5301     		.2byte	0x153
 5618 05e3 A0050000 		.4byte	0x5a0
 5619 05e7 17       		.uleb128 0x17
 5620 05e8 9A060000 		.4byte	.LASF127
 5621 05ec 01       		.byte	0x1
 5622 05ed 5301     		.2byte	0x153
 5623 05ef 68000000 		.4byte	0x68
 5624 05f3 1A       		.uleb128 0x1a
 5625 05f4 08150000 		.4byte	.LASF131
 5626 05f8 01       		.byte	0x1
 5627 05f9 8A01     		.2byte	0x18a
 5628 05fb 1B       		.uleb128 0x1b
 5629 05fc 7400     		.ascii	"t\000"
 5630 05fe 01       		.byte	0x1
 5631 05ff 5D01     		.2byte	0x15d
 5632 0601 68000000 		.4byte	0x68
 5633 0605 1C       		.uleb128 0x1c
 5634 0606 8D060000 		.4byte	.LASF128
 5635 060a 01       		.byte	0x1
 5636 060b 5E01     		.2byte	0x15e
 5637 060d BB040000 		.4byte	0x4bb
 5638 0611 1C       		.uleb128 0x1c
 5639 0612 D3050000 		.4byte	.LASF132
 5640 0616 01       		.byte	0x1
 5641 0617 5F01     		.2byte	0x15f
 5642 0619 CD000000 		.4byte	0xcd
 5643 061d 1C       		.uleb128 0x1c
 5644 061e 8B010000 		.4byte	.LASF133
 5645 0622 01       		.byte	0x1
 5646 0623 6001     		.2byte	0x160
 5647 0625 68000000 		.4byte	0x68
 5648 0629 1C       		.uleb128 0x1c
 5649 062a A7110000 		.4byte	.LASF41
 5650 062e 01       		.byte	0x1
 5651 062f 6101     		.2byte	0x161
 5652 0631 CD000000 		.4byte	0xcd
 5653 0635 1C       		.uleb128 0x1c
 5654 0636 870B0000 		.4byte	.LASF134
 5655 063a 01       		.byte	0x1
 5656 063b 6201     		.2byte	0x162
 5657 063d 68000000 		.4byte	0x68
 5658 0641 1B       		.uleb128 0x1b
 5659 0642 6900     		.ascii	"i\000"
 5660 0644 01       		.byte	0x1
 5661 0645 6301     		.2byte	0x163
 5662 0647 68000000 		.4byte	0x68
 5663 064b 00       		.byte	0
 5664 064c 19       		.uleb128 0x19
 5665 064d 55000000 		.4byte	.LASF135
 5666 0651 01       		.byte	0x1
ARM GAS  C:\Users\SDEVAS~1\AppData\Local\Temp\ccPhqTSe.s 			page 123


 5667 0652 8F01     		.2byte	0x18f
 5668 0654 8B030000 		.4byte	0x38b
 5669 0658 01       		.byte	0x1
 5670 0659 9A060000 		.4byte	0x69a
 5671 065d 17       		.uleb128 0x17
 5672 065e BE000000 		.4byte	.LASF58
 5673 0662 01       		.byte	0x1
 5674 0663 8F01     		.2byte	0x18f
 5675 0665 8B030000 		.4byte	0x38b
 5676 0669 17       		.uleb128 0x17
 5677 066a 92060000 		.4byte	.LASF124
 5678 066e 01       		.byte	0x1
 5679 066f 8F01     		.2byte	0x18f
 5680 0671 CD000000 		.4byte	0xcd
 5681 0675 17       		.uleb128 0x17
 5682 0676 A10F0000 		.4byte	.LASF125
 5683 067a 01       		.byte	0x1
 5684 067b 8F01     		.2byte	0x18f
 5685 067d 68000000 		.4byte	0x68
 5686 0681 17       		.uleb128 0x17
 5687 0682 5F040000 		.4byte	.LASF126
 5688 0686 01       		.byte	0x1
 5689 0687 8F01     		.2byte	0x18f
 5690 0689 A0050000 		.4byte	0x5a0
 5691 068d 17       		.uleb128 0x17
 5692 068e 9A060000 		.4byte	.LASF127
 5693 0692 01       		.byte	0x1
 5694 0693 8F01     		.2byte	0x18f
 5695 0695 68000000 		.4byte	0x68
 5696 0699 00       		.byte	0
 5697 069a 19       		.uleb128 0x19
 5698 069b 2B000000 		.4byte	.LASF136
 5699 069f 01       		.byte	0x1
 5700 06a0 A501     		.2byte	0x1a5
 5701 06a2 8B030000 		.4byte	0x38b
 5702 06a6 01       		.byte	0x1
 5703 06a7 FE060000 		.4byte	0x6fe
 5704 06ab 17       		.uleb128 0x17
 5705 06ac BE000000 		.4byte	.LASF58
 5706 06b0 01       		.byte	0x1
 5707 06b1 A501     		.2byte	0x1a5
 5708 06b3 8B030000 		.4byte	0x38b
 5709 06b7 17       		.uleb128 0x17
 5710 06b8 92060000 		.4byte	.LASF124
 5711 06bc 01       		.byte	0x1
 5712 06bd A501     		.2byte	0x1a5
 5713 06bf CD000000 		.4byte	0xcd
 5714 06c3 17       		.uleb128 0x17
 5715 06c4 A10F0000 		.4byte	.LASF125
 5716 06c8 01       		.byte	0x1
 5717 06c9 A501     		.2byte	0x1a5
 5718 06cb 68000000 		.4byte	0x68
 5719 06cf 17       		.uleb128 0x17
 5720 06d0 5F040000 		.4byte	.LASF126
 5721 06d4 01       		.byte	0x1
 5722 06d5 A501     		.2byte	0x1a5
 5723 06d7 A0050000 		.4byte	0x5a0
ARM GAS  C:\Users\SDEVAS~1\AppData\Local\Temp\ccPhqTSe.s 			page 124


 5724 06db 17       		.uleb128 0x17
 5725 06dc 9A060000 		.4byte	.LASF127
 5726 06e0 01       		.byte	0x1
 5727 06e1 A501     		.2byte	0x1a5
 5728 06e3 68000000 		.4byte	0x68
 5729 06e7 1A       		.uleb128 0x1a
 5730 06e8 08150000 		.4byte	.LASF131
 5731 06ec 01       		.byte	0x1
 5732 06ed B401     		.2byte	0x1b4
 5733 06ef 1D       		.uleb128 0x1d
 5734 06f0 1C       		.uleb128 0x1c
 5735 06f1 D0060000 		.4byte	.LASF137
 5736 06f5 01       		.byte	0x1
 5737 06f6 A901     		.2byte	0x1a9
 5738 06f8 C3030000 		.4byte	0x3c3
 5739 06fc 00       		.byte	0
 5740 06fd 00       		.byte	0
 5741 06fe 1E       		.uleb128 0x1e
 5742 06ff 74010000 		.4byte	.LASF152
 5743 0703 01       		.byte	0x1
 5744 0704 82       		.byte	0x82
 5745 0705 68000000 		.4byte	0x68
 5746 0709 00000000 		.4byte	.LFB38
 5747 070d 22000000 		.4byte	.LFE38-.LFB38
 5748 0711 01       		.uleb128 0x1
 5749 0712 9C       		.byte	0x9c
 5750 0713 4F070000 		.4byte	0x74f
 5751 0717 1F       		.uleb128 0x1f
 5752 0718 5F040000 		.4byte	.LASF126
 5753 071c 01       		.byte	0x1
 5754 071d 82       		.byte	0x82
 5755 071e A0050000 		.4byte	0x5a0
 5756 0722 00000000 		.4byte	.LLST0
 5757 0726 1F       		.uleb128 0x1f
 5758 0727 A2140000 		.4byte	.LASF138
 5759 072b 01       		.byte	0x1
 5760 072c 82       		.byte	0x82
 5761 072d 68000000 		.4byte	0x68
 5762 0731 21000000 		.4byte	.LLST1
 5763 0735 20       		.uleb128 0x20
 5764 0736 0C000000 		.4byte	.LBB16
 5765 073a 10000000 		.4byte	.LBE16-.LBB16
 5766 073e 21       		.uleb128 0x21
 5767 073f 31040000 		.4byte	.LASF164
 5768 0743 01       		.byte	0x1
 5769 0744 85       		.byte	0x85
 5770 0745 68000000 		.4byte	0x68
 5771 0749 3F000000 		.4byte	.LLST2
 5772 074d 00       		.byte	0
 5773 074e 00       		.byte	0
 5774 074f 22       		.uleb128 0x22
 5775 0750 2C140000 		.4byte	.LASF140
 5776 0754 01       		.byte	0x1
 5777 0755 C501     		.2byte	0x1c5
 5778 0757 00000000 		.4byte	.LFB48
 5779 075b 14000000 		.4byte	.LFE48-.LFB48
 5780 075f 01       		.uleb128 0x1
ARM GAS  C:\Users\SDEVAS~1\AppData\Local\Temp\ccPhqTSe.s 			page 125


 5781 0760 9C       		.byte	0x9c
 5782 0761 76070000 		.4byte	0x776
 5783 0765 23       		.uleb128 0x23
 5784 0766 A4000000 		.4byte	.LASF139
 5785 076a 01       		.byte	0x1
 5786 076b C501     		.2byte	0x1c5
 5787 076d 1A010000 		.4byte	0x11a
 5788 0771 52000000 		.4byte	.LLST3
 5789 0775 00       		.byte	0
 5790 0776 24       		.uleb128 0x24
 5791 0777 67130000 		.4byte	.LASF142
 5792 077b 01       		.byte	0x1
 5793 077c C801     		.2byte	0x1c8
 5794 077e 00000000 		.4byte	.LFB49
 5795 0782 14000000 		.4byte	.LFE49-.LFB49
 5796 0786 01       		.uleb128 0x1
 5797 0787 9C       		.byte	0x9c
 5798 0788 22       		.uleb128 0x22
 5799 0789 05040000 		.4byte	.LASF141
 5800 078d 01       		.byte	0x1
 5801 078e CD01     		.2byte	0x1cd
 5802 0790 00000000 		.4byte	.LFB50
 5803 0794 1C000000 		.4byte	.LFE50-.LFB50
 5804 0798 01       		.uleb128 0x1
 5805 0799 9C       		.byte	0x9c
 5806 079a BF070000 		.4byte	0x7bf
 5807 079e 23       		.uleb128 0x23
 5808 079f 54060000 		.4byte	.LASF123
 5809 07a3 01       		.byte	0x1
 5810 07a4 CD01     		.2byte	0x1cd
 5811 07a6 C7000000 		.4byte	0xc7
 5812 07aa 73000000 		.4byte	.LLST4
 5813 07ae 25       		.uleb128 0x25
 5814 07af 6C656E00 		.ascii	"len\000"
 5815 07b3 01       		.byte	0x1
 5816 07b4 CD01     		.2byte	0x1cd
 5817 07b6 8C000000 		.4byte	0x8c
 5818 07ba 94000000 		.4byte	.LLST5
 5819 07be 00       		.byte	0
 5820 07bf 24       		.uleb128 0x24
 5821 07c0 0F0B0000 		.4byte	.LASF143
 5822 07c4 01       		.byte	0x1
 5823 07c5 E001     		.2byte	0x1e0
 5824 07c7 00000000 		.4byte	.LFB52
 5825 07cb 10000000 		.4byte	.LFE52-.LFB52
 5826 07cf 01       		.uleb128 0x1
 5827 07d0 9C       		.byte	0x9c
 5828 07d1 24       		.uleb128 0x24
 5829 07d2 FD090000 		.4byte	.LASF144
 5830 07d6 01       		.byte	0x1
 5831 07d7 E301     		.2byte	0x1e3
 5832 07d9 00000000 		.4byte	.LFB53
 5833 07dd 10000000 		.4byte	.LFE53-.LFB53
 5834 07e1 01       		.uleb128 0x1
 5835 07e2 9C       		.byte	0x9c
 5836 07e3 24       		.uleb128 0x24
 5837 07e4 C0150000 		.4byte	.LASF145
ARM GAS  C:\Users\SDEVAS~1\AppData\Local\Temp\ccPhqTSe.s 			page 126


 5838 07e8 01       		.byte	0x1
 5839 07e9 E601     		.2byte	0x1e6
 5840 07eb 00000000 		.4byte	.LFB54
 5841 07ef 10000000 		.4byte	.LFE54-.LFB54
 5842 07f3 01       		.uleb128 0x1
 5843 07f4 9C       		.byte	0x9c
 5844 07f5 24       		.uleb128 0x24
 5845 07f6 AB020000 		.4byte	.LASF146
 5846 07fa 01       		.byte	0x1
 5847 07fb E901     		.2byte	0x1e9
 5848 07fd 00000000 		.4byte	.LFB55
 5849 0801 10000000 		.4byte	.LFE55-.LFB55
 5850 0805 01       		.uleb128 0x1
 5851 0806 9C       		.byte	0x9c
 5852 0807 26       		.uleb128 0x26
 5853 0808 720B0000 		.4byte	.LASF294
 5854 080c 01       		.byte	0x1
 5855 080d 8F       		.byte	0x8f
 5856 080e 00000000 		.4byte	.LFB39
 5857 0812 B0000000 		.4byte	.LFE39-.LFB39
 5858 0816 01       		.uleb128 0x1
 5859 0817 9C       		.byte	0x9c
 5860 0818 2F090000 		.4byte	0x92f
 5861 081c 1F       		.uleb128 0x1f
 5862 081d DE150000 		.4byte	.LASF147
 5863 0821 01       		.byte	0x1
 5864 0822 90       		.byte	0x90
 5865 0823 CD000000 		.4byte	0xcd
 5866 0827 B6000000 		.4byte	.LLST6
 5867 082b 1F       		.uleb128 0x1f
 5868 082c 66000000 		.4byte	.LASF148
 5869 0830 01       		.byte	0x1
 5870 0831 90       		.byte	0x90
 5871 0832 68000000 		.4byte	0x68
 5872 0836 D5000000 		.4byte	.LLST7
 5873 083a 27       		.uleb128 0x27
 5874 083b 73726300 		.ascii	"src\000"
 5875 083f 01       		.byte	0x1
 5876 0840 91       		.byte	0x91
 5877 0841 CD000000 		.4byte	0xcd
 5878 0845 01010000 		.4byte	.LLST8
 5879 0849 1F       		.uleb128 0x1f
 5880 084a B5070000 		.4byte	.LASF149
 5881 084e 01       		.byte	0x1
 5882 084f 91       		.byte	0x91
 5883 0850 68000000 		.4byte	0x68
 5884 0854 20010000 		.4byte	.LLST9
 5885 0858 28       		.uleb128 0x28
 5886 0859 BF080000 		.4byte	.LASF150
 5887 085d 01       		.byte	0x1
 5888 085e 92       		.byte	0x92
 5889 085f CD000000 		.4byte	0xcd
 5890 0863 02       		.uleb128 0x2
 5891 0864 91       		.byte	0x91
 5892 0865 00       		.sleb128 0
 5893 0866 28       		.uleb128 0x28
 5894 0867 D5060000 		.4byte	.LASF151
ARM GAS  C:\Users\SDEVAS~1\AppData\Local\Temp\ccPhqTSe.s 			page 127


 5895 086b 01       		.byte	0x1
 5896 086c 92       		.byte	0x92
 5897 086d 68000000 		.4byte	0x68
 5898 0871 02       		.uleb128 0x2
 5899 0872 91       		.byte	0x91
 5900 0873 04       		.sleb128 4
 5901 0874 29       		.uleb128 0x29
 5902 0875 16000000 		.4byte	.LVL15
 5903 0879 96310000 		.4byte	0x3196
 5904 087d 96080000 		.4byte	0x896
 5905 0881 2A       		.uleb128 0x2a
 5906 0882 01       		.uleb128 0x1
 5907 0883 52       		.byte	0x52
 5908 0884 01       		.uleb128 0x1
 5909 0885 40       		.byte	0x40
 5910 0886 2A       		.uleb128 0x2a
 5911 0887 01       		.uleb128 0x1
 5912 0888 51       		.byte	0x51
 5913 0889 05       		.uleb128 0x5
 5914 088a 03       		.byte	0x3
 5915 088b 00000000 		.4byte	.LC11
 5916 088f 2A       		.uleb128 0x2a
 5917 0890 01       		.uleb128 0x1
 5918 0891 50       		.byte	0x50
 5919 0892 02       		.uleb128 0x2
 5920 0893 76       		.byte	0x76
 5921 0894 00       		.sleb128 0
 5922 0895 00       		.byte	0
 5923 0896 29       		.uleb128 0x29
 5924 0897 2C000000 		.4byte	.LVL16
 5925 089b 96310000 		.4byte	0x3196
 5926 089f B7080000 		.4byte	0x8b7
 5927 08a3 2A       		.uleb128 0x2a
 5928 08a4 01       		.uleb128 0x1
 5929 08a5 52       		.byte	0x52
 5930 08a6 02       		.uleb128 0x2
 5931 08a7 77       		.byte	0x77
 5932 08a8 00       		.sleb128 0
 5933 08a9 2A       		.uleb128 0x2a
 5934 08aa 01       		.uleb128 0x1
 5935 08ab 51       		.byte	0x51
 5936 08ac 03       		.uleb128 0x3
 5937 08ad 91       		.byte	0x91
 5938 08ae 60       		.sleb128 -32
 5939 08af 06       		.byte	0x6
 5940 08b0 2A       		.uleb128 0x2a
 5941 08b1 01       		.uleb128 0x1
 5942 08b2 50       		.byte	0x50
 5943 08b3 02       		.uleb128 0x2
 5944 08b4 76       		.byte	0x76
 5945 08b5 00       		.sleb128 0
 5946 08b6 00       		.byte	0
 5947 08b7 29       		.uleb128 0x29
 5948 08b8 42000000 		.4byte	.LVL18
 5949 08bc 96310000 		.4byte	0x3196
 5950 08c0 DE080000 		.4byte	0x8de
 5951 08c4 2A       		.uleb128 0x2a
ARM GAS  C:\Users\SDEVAS~1\AppData\Local\Temp\ccPhqTSe.s 			page 128


 5952 08c5 01       		.uleb128 0x1
 5953 08c6 52       		.byte	0x52
 5954 08c7 02       		.uleb128 0x2
 5955 08c8 77       		.byte	0x77
 5956 08c9 00       		.sleb128 0
 5957 08ca 2A       		.uleb128 0x2a
 5958 08cb 01       		.uleb128 0x1
 5959 08cc 51       		.byte	0x51
 5960 08cd 05       		.uleb128 0x5
 5961 08ce 03       		.byte	0x3
 5962 08cf 10000000 		.4byte	.LC15
 5963 08d3 2A       		.uleb128 0x2a
 5964 08d4 01       		.uleb128 0x1
 5965 08d5 50       		.byte	0x50
 5966 08d6 06       		.uleb128 0x6
 5967 08d7 76       		.byte	0x76
 5968 08d8 00       		.sleb128 0
 5969 08d9 F3       		.byte	0xf3
 5970 08da 01       		.uleb128 0x1
 5971 08db 51       		.byte	0x51
 5972 08dc 22       		.byte	0x22
 5973 08dd 00       		.byte	0
 5974 08de 29       		.uleb128 0x29
 5975 08df 56000000 		.4byte	.LVL19
 5976 08e3 96310000 		.4byte	0x3196
 5977 08e7 F9080000 		.4byte	0x8f9
 5978 08eb 2A       		.uleb128 0x2a
 5979 08ec 01       		.uleb128 0x1
 5980 08ed 52       		.byte	0x52
 5981 08ee 02       		.uleb128 0x2
 5982 08ef 75       		.byte	0x75
 5983 08f0 00       		.sleb128 0
 5984 08f1 2A       		.uleb128 0x2a
 5985 08f2 01       		.uleb128 0x1
 5986 08f3 51       		.byte	0x51
 5987 08f4 03       		.uleb128 0x3
 5988 08f5 91       		.byte	0x91
 5989 08f6 64       		.sleb128 -28
 5990 08f7 06       		.byte	0x6
 5991 08f8 00       		.byte	0
 5992 08f9 29       		.uleb128 0x29
 5993 08fa 6A000000 		.4byte	.LVL20
 5994 08fe 96310000 		.4byte	0x3196
 5995 0902 16090000 		.4byte	0x916
 5996 0906 2A       		.uleb128 0x2a
 5997 0907 01       		.uleb128 0x1
 5998 0908 52       		.byte	0x52
 5999 0909 02       		.uleb128 0x2
 6000 090a 77       		.byte	0x77
 6001 090b 00       		.sleb128 0
 6002 090c 2A       		.uleb128 0x2a
 6003 090d 01       		.uleb128 0x1
 6004 090e 51       		.byte	0x51
 6005 090f 05       		.uleb128 0x5
 6006 0910 03       		.byte	0x3
 6007 0911 1B000000 		.4byte	.LC17
 6008 0915 00       		.byte	0
ARM GAS  C:\Users\SDEVAS~1\AppData\Local\Temp\ccPhqTSe.s 			page 129


 6009 0916 2B       		.uleb128 0x2b
 6010 0917 7E000000 		.4byte	.LVL21
 6011 091b 96310000 		.4byte	0x3196
 6012 091f 2A       		.uleb128 0x2a
 6013 0920 01       		.uleb128 0x1
 6014 0921 52       		.byte	0x52
 6015 0922 03       		.uleb128 0x3
 6016 0923 91       		.byte	0x91
 6017 0924 04       		.sleb128 4
 6018 0925 06       		.byte	0x6
 6019 0926 2A       		.uleb128 0x2a
 6020 0927 01       		.uleb128 0x1
 6021 0928 51       		.byte	0x51
 6022 0929 03       		.uleb128 0x3
 6023 092a 91       		.byte	0x91
 6024 092b 00       		.sleb128 0
 6025 092c 06       		.byte	0x6
 6026 092d 00       		.byte	0
 6027 092e 00       		.byte	0
 6028 092f 1E       		.uleb128 0x1e
 6029 0930 00000000 		.4byte	.LASF153
 6030 0934 01       		.byte	0x1
 6031 0935 7C       		.byte	0x7c
 6032 0936 68000000 		.4byte	0x68
 6033 093a 00000000 		.4byte	.LFB37
 6034 093e 26000000 		.4byte	.LFE37-.LFB37
 6035 0942 01       		.uleb128 0x1
 6036 0943 9C       		.byte	0x9c
 6037 0944 8B090000 		.4byte	0x98b
 6038 0948 1F       		.uleb128 0x1f
 6039 0949 F50F0000 		.4byte	.LASF154
 6040 094d 01       		.byte	0x1
 6041 094e 7C       		.byte	0x7c
 6042 094f CD000000 		.4byte	0xcd
 6043 0953 4C010000 		.4byte	.LLST10
 6044 0957 27       		.uleb128 0x27
 6045 0958 7400     		.ascii	"t\000"
 6046 095a 01       		.byte	0x1
 6047 095b 7C       		.byte	0x7c
 6048 095c A0050000 		.4byte	0x5a0
 6049 0960 86010000 		.4byte	.LLST11
 6050 0964 27       		.uleb128 0x27
 6051 0965 6B657900 		.ascii	"key\000"
 6052 0969 01       		.byte	0x1
 6053 096a 7C       		.byte	0x7c
 6054 096b CD000000 		.4byte	0xcd
 6055 096f CB010000 		.4byte	.LLST12
 6056 0973 2B       		.uleb128 0x2b
 6057 0974 1A000000 		.4byte	.LVL28
 6058 0978 BA310000 		.4byte	0x31ba
 6059 097c 2A       		.uleb128 0x2a
 6060 097d 01       		.uleb128 0x1
 6061 097e 52       		.byte	0x52
 6062 097f 02       		.uleb128 0x2
 6063 0980 74       		.byte	0x74
 6064 0981 00       		.sleb128 0
 6065 0982 2A       		.uleb128 0x2a
ARM GAS  C:\Users\SDEVAS~1\AppData\Local\Temp\ccPhqTSe.s 			page 130


 6066 0983 01       		.uleb128 0x1
 6067 0984 51       		.byte	0x51
 6068 0985 03       		.uleb128 0x3
 6069 0986 F3       		.byte	0xf3
 6070 0987 01       		.uleb128 0x1
 6071 0988 52       		.byte	0x52
 6072 0989 00       		.byte	0
 6073 098a 00       		.byte	0
 6074 098b 1E       		.uleb128 0x1e
 6075 098c F8000000 		.4byte	.LASF155
 6076 0990 01       		.byte	0x1
 6077 0991 58       		.byte	0x58
 6078 0992 BB040000 		.4byte	0x4bb
 6079 0996 00000000 		.4byte	.LFB35
 6080 099a 04030000 		.4byte	.LFE35-.LFB35
 6081 099e 01       		.uleb128 0x1
 6082 099f 9C       		.byte	0x9c
 6083 09a0 AB0E0000 		.4byte	0xeab
 6084 09a4 27       		.uleb128 0x27
 6085 09a5 73747200 		.ascii	"str\000"
 6086 09a9 01       		.byte	0x1
 6087 09aa 58       		.byte	0x58
 6088 09ab CD000000 		.4byte	0xcd
 6089 09af 10020000 		.4byte	.LLST13
 6090 09b3 27       		.uleb128 0x27
 6091 09b4 6C656E00 		.ascii	"len\000"
 6092 09b8 01       		.byte	0x1
 6093 09b9 58       		.byte	0x58
 6094 09ba 68000000 		.4byte	0x68
 6095 09be 3C020000 		.4byte	.LLST14
 6096 09c2 29       		.uleb128 0x29
 6097 09c3 0E000000 		.4byte	.LVL33
 6098 09c7 BA310000 		.4byte	0x31ba
 6099 09cb E5090000 		.4byte	0x9e5
 6100 09cf 2A       		.uleb128 0x2a
 6101 09d0 01       		.uleb128 0x1
 6102 09d1 52       		.byte	0x52
 6103 09d2 02       		.uleb128 0x2
 6104 09d3 74       		.byte	0x74
 6105 09d4 00       		.sleb128 0
 6106 09d5 2A       		.uleb128 0x2a
 6107 09d6 01       		.uleb128 0x1
 6108 09d7 51       		.byte	0x51
 6109 09d8 05       		.uleb128 0x5
 6110 09d9 03       		.byte	0x3
 6111 09da 26000000 		.4byte	.LC19
 6112 09de 2A       		.uleb128 0x2a
 6113 09df 01       		.uleb128 0x1
 6114 09e0 50       		.byte	0x50
 6115 09e1 02       		.uleb128 0x2
 6116 09e2 75       		.byte	0x75
 6117 09e3 00       		.sleb128 0
 6118 09e4 00       		.byte	0
 6119 09e5 29       		.uleb128 0x29
 6120 09e6 20000000 		.4byte	.LVL34
 6121 09ea BA310000 		.4byte	0x31ba
 6122 09ee 080A0000 		.4byte	0xa08
ARM GAS  C:\Users\SDEVAS~1\AppData\Local\Temp\ccPhqTSe.s 			page 131


 6123 09f2 2A       		.uleb128 0x2a
 6124 09f3 01       		.uleb128 0x1
 6125 09f4 52       		.byte	0x52
 6126 09f5 02       		.uleb128 0x2
 6127 09f6 74       		.byte	0x74
 6128 09f7 00       		.sleb128 0
 6129 09f8 2A       		.uleb128 0x2a
 6130 09f9 01       		.uleb128 0x1
 6131 09fa 51       		.byte	0x51
 6132 09fb 05       		.uleb128 0x5
 6133 09fc 03       		.byte	0x3
 6134 09fd 32000000 		.4byte	.LC21
 6135 0a01 2A       		.uleb128 0x2a
 6136 0a02 01       		.uleb128 0x1
 6137 0a03 50       		.byte	0x50
 6138 0a04 02       		.uleb128 0x2
 6139 0a05 75       		.byte	0x75
 6140 0a06 00       		.sleb128 0
 6141 0a07 00       		.byte	0
 6142 0a08 29       		.uleb128 0x29
 6143 0a09 32000000 		.4byte	.LVL35
 6144 0a0d BA310000 		.4byte	0x31ba
 6145 0a11 2B0A0000 		.4byte	0xa2b
 6146 0a15 2A       		.uleb128 0x2a
 6147 0a16 01       		.uleb128 0x1
 6148 0a17 52       		.byte	0x52
 6149 0a18 02       		.uleb128 0x2
 6150 0a19 74       		.byte	0x74
 6151 0a1a 00       		.sleb128 0
 6152 0a1b 2A       		.uleb128 0x2a
 6153 0a1c 01       		.uleb128 0x1
 6154 0a1d 51       		.byte	0x51
 6155 0a1e 05       		.uleb128 0x5
 6156 0a1f 03       		.byte	0x3
 6157 0a20 3F000000 		.4byte	.LC23
 6158 0a24 2A       		.uleb128 0x2a
 6159 0a25 01       		.uleb128 0x1
 6160 0a26 50       		.byte	0x50
 6161 0a27 02       		.uleb128 0x2
 6162 0a28 75       		.byte	0x75
 6163 0a29 00       		.sleb128 0
 6164 0a2a 00       		.byte	0
 6165 0a2b 29       		.uleb128 0x29
 6166 0a2c 44000000 		.4byte	.LVL36
 6167 0a30 BA310000 		.4byte	0x31ba
 6168 0a34 4E0A0000 		.4byte	0xa4e
 6169 0a38 2A       		.uleb128 0x2a
 6170 0a39 01       		.uleb128 0x1
 6171 0a3a 52       		.byte	0x52
 6172 0a3b 02       		.uleb128 0x2
 6173 0a3c 74       		.byte	0x74
 6174 0a3d 00       		.sleb128 0
 6175 0a3e 2A       		.uleb128 0x2a
 6176 0a3f 01       		.uleb128 0x1
 6177 0a40 51       		.byte	0x51
 6178 0a41 05       		.uleb128 0x5
 6179 0a42 03       		.byte	0x3
ARM GAS  C:\Users\SDEVAS~1\AppData\Local\Temp\ccPhqTSe.s 			page 132


 6180 0a43 44000000 		.4byte	.LC25
 6181 0a47 2A       		.uleb128 0x2a
 6182 0a48 01       		.uleb128 0x1
 6183 0a49 50       		.byte	0x50
 6184 0a4a 02       		.uleb128 0x2
 6185 0a4b 75       		.byte	0x75
 6186 0a4c 00       		.sleb128 0
 6187 0a4d 00       		.byte	0
 6188 0a4e 29       		.uleb128 0x29
 6189 0a4f 56000000 		.4byte	.LVL37
 6190 0a53 BA310000 		.4byte	0x31ba
 6191 0a57 710A0000 		.4byte	0xa71
 6192 0a5b 2A       		.uleb128 0x2a
 6193 0a5c 01       		.uleb128 0x1
 6194 0a5d 52       		.byte	0x52
 6195 0a5e 02       		.uleb128 0x2
 6196 0a5f 74       		.byte	0x74
 6197 0a60 00       		.sleb128 0
 6198 0a61 2A       		.uleb128 0x2a
 6199 0a62 01       		.uleb128 0x1
 6200 0a63 51       		.byte	0x51
 6201 0a64 05       		.uleb128 0x5
 6202 0a65 03       		.byte	0x3
 6203 0a66 52000000 		.4byte	.LC27
 6204 0a6a 2A       		.uleb128 0x2a
 6205 0a6b 01       		.uleb128 0x1
 6206 0a6c 50       		.byte	0x50
 6207 0a6d 02       		.uleb128 0x2
 6208 0a6e 75       		.byte	0x75
 6209 0a6f 00       		.sleb128 0
 6210 0a70 00       		.byte	0
 6211 0a71 29       		.uleb128 0x29
 6212 0a72 68000000 		.4byte	.LVL38
 6213 0a76 BA310000 		.4byte	0x31ba
 6214 0a7a 940A0000 		.4byte	0xa94
 6215 0a7e 2A       		.uleb128 0x2a
 6216 0a7f 01       		.uleb128 0x1
 6217 0a80 52       		.byte	0x52
 6218 0a81 02       		.uleb128 0x2
 6219 0a82 74       		.byte	0x74
 6220 0a83 00       		.sleb128 0
 6221 0a84 2A       		.uleb128 0x2a
 6222 0a85 01       		.uleb128 0x1
 6223 0a86 51       		.byte	0x51
 6224 0a87 05       		.uleb128 0x5
 6225 0a88 03       		.byte	0x3
 6226 0a89 60000000 		.4byte	.LC29
 6227 0a8d 2A       		.uleb128 0x2a
 6228 0a8e 01       		.uleb128 0x1
 6229 0a8f 50       		.byte	0x50
 6230 0a90 02       		.uleb128 0x2
 6231 0a91 75       		.byte	0x75
 6232 0a92 00       		.sleb128 0
 6233 0a93 00       		.byte	0
 6234 0a94 29       		.uleb128 0x29
 6235 0a95 7A000000 		.4byte	.LVL39
 6236 0a99 BA310000 		.4byte	0x31ba
ARM GAS  C:\Users\SDEVAS~1\AppData\Local\Temp\ccPhqTSe.s 			page 133


 6237 0a9d B70A0000 		.4byte	0xab7
 6238 0aa1 2A       		.uleb128 0x2a
 6239 0aa2 01       		.uleb128 0x1
 6240 0aa3 52       		.byte	0x52
 6241 0aa4 02       		.uleb128 0x2
 6242 0aa5 74       		.byte	0x74
 6243 0aa6 00       		.sleb128 0
 6244 0aa7 2A       		.uleb128 0x2a
 6245 0aa8 01       		.uleb128 0x1
 6246 0aa9 51       		.byte	0x51
 6247 0aaa 05       		.uleb128 0x5
 6248 0aab 03       		.byte	0x3
 6249 0aac 6C000000 		.4byte	.LC31
 6250 0ab0 2A       		.uleb128 0x2a
 6251 0ab1 01       		.uleb128 0x1
 6252 0ab2 50       		.byte	0x50
 6253 0ab3 02       		.uleb128 0x2
 6254 0ab4 75       		.byte	0x75
 6255 0ab5 00       		.sleb128 0
 6256 0ab6 00       		.byte	0
 6257 0ab7 29       		.uleb128 0x29
 6258 0ab8 8C000000 		.4byte	.LVL40
 6259 0abc BA310000 		.4byte	0x31ba
 6260 0ac0 DA0A0000 		.4byte	0xada
 6261 0ac4 2A       		.uleb128 0x2a
 6262 0ac5 01       		.uleb128 0x1
 6263 0ac6 52       		.byte	0x52
 6264 0ac7 02       		.uleb128 0x2
 6265 0ac8 74       		.byte	0x74
 6266 0ac9 00       		.sleb128 0
 6267 0aca 2A       		.uleb128 0x2a
 6268 0acb 01       		.uleb128 0x1
 6269 0acc 51       		.byte	0x51
 6270 0acd 05       		.uleb128 0x5
 6271 0ace 03       		.byte	0x3
 6272 0acf 78000000 		.4byte	.LC33
 6273 0ad3 2A       		.uleb128 0x2a
 6274 0ad4 01       		.uleb128 0x1
 6275 0ad5 50       		.byte	0x50
 6276 0ad6 02       		.uleb128 0x2
 6277 0ad7 75       		.byte	0x75
 6278 0ad8 00       		.sleb128 0
 6279 0ad9 00       		.byte	0
 6280 0ada 29       		.uleb128 0x29
 6281 0adb 9E000000 		.4byte	.LVL41
 6282 0adf BA310000 		.4byte	0x31ba
 6283 0ae3 FD0A0000 		.4byte	0xafd
 6284 0ae7 2A       		.uleb128 0x2a
 6285 0ae8 01       		.uleb128 0x1
 6286 0ae9 52       		.byte	0x52
 6287 0aea 02       		.uleb128 0x2
 6288 0aeb 74       		.byte	0x74
 6289 0aec 00       		.sleb128 0
 6290 0aed 2A       		.uleb128 0x2a
 6291 0aee 01       		.uleb128 0x1
 6292 0aef 51       		.byte	0x51
 6293 0af0 05       		.uleb128 0x5
ARM GAS  C:\Users\SDEVAS~1\AppData\Local\Temp\ccPhqTSe.s 			page 134


 6294 0af1 03       		.byte	0x3
 6295 0af2 84000000 		.4byte	.LC35
 6296 0af6 2A       		.uleb128 0x2a
 6297 0af7 01       		.uleb128 0x1
 6298 0af8 50       		.byte	0x50
 6299 0af9 02       		.uleb128 0x2
 6300 0afa 75       		.byte	0x75
 6301 0afb 00       		.sleb128 0
 6302 0afc 00       		.byte	0
 6303 0afd 29       		.uleb128 0x29
 6304 0afe B0000000 		.4byte	.LVL42
 6305 0b02 BA310000 		.4byte	0x31ba
 6306 0b06 200B0000 		.4byte	0xb20
 6307 0b0a 2A       		.uleb128 0x2a
 6308 0b0b 01       		.uleb128 0x1
 6309 0b0c 52       		.byte	0x52
 6310 0b0d 02       		.uleb128 0x2
 6311 0b0e 74       		.byte	0x74
 6312 0b0f 00       		.sleb128 0
 6313 0b10 2A       		.uleb128 0x2a
 6314 0b11 01       		.uleb128 0x1
 6315 0b12 51       		.byte	0x51
 6316 0b13 05       		.uleb128 0x5
 6317 0b14 03       		.byte	0x3
 6318 0b15 94000000 		.4byte	.LC37
 6319 0b19 2A       		.uleb128 0x2a
 6320 0b1a 01       		.uleb128 0x1
 6321 0b1b 50       		.byte	0x50
 6322 0b1c 02       		.uleb128 0x2
 6323 0b1d 75       		.byte	0x75
 6324 0b1e 00       		.sleb128 0
 6325 0b1f 00       		.byte	0
 6326 0b20 29       		.uleb128 0x29
 6327 0b21 C2000000 		.4byte	.LVL43
 6328 0b25 BA310000 		.4byte	0x31ba
 6329 0b29 430B0000 		.4byte	0xb43
 6330 0b2d 2A       		.uleb128 0x2a
 6331 0b2e 01       		.uleb128 0x1
 6332 0b2f 52       		.byte	0x52
 6333 0b30 02       		.uleb128 0x2
 6334 0b31 74       		.byte	0x74
 6335 0b32 00       		.sleb128 0
 6336 0b33 2A       		.uleb128 0x2a
 6337 0b34 01       		.uleb128 0x1
 6338 0b35 51       		.byte	0x51
 6339 0b36 05       		.uleb128 0x5
 6340 0b37 03       		.byte	0x3
 6341 0b38 A4000000 		.4byte	.LC39
 6342 0b3c 2A       		.uleb128 0x2a
 6343 0b3d 01       		.uleb128 0x1
 6344 0b3e 50       		.byte	0x50
 6345 0b3f 02       		.uleb128 0x2
 6346 0b40 75       		.byte	0x75
 6347 0b41 00       		.sleb128 0
 6348 0b42 00       		.byte	0
 6349 0b43 29       		.uleb128 0x29
 6350 0b44 D4000000 		.4byte	.LVL44
ARM GAS  C:\Users\SDEVAS~1\AppData\Local\Temp\ccPhqTSe.s 			page 135


 6351 0b48 BA310000 		.4byte	0x31ba
 6352 0b4c 660B0000 		.4byte	0xb66
 6353 0b50 2A       		.uleb128 0x2a
 6354 0b51 01       		.uleb128 0x1
 6355 0b52 52       		.byte	0x52
 6356 0b53 02       		.uleb128 0x2
 6357 0b54 74       		.byte	0x74
 6358 0b55 00       		.sleb128 0
 6359 0b56 2A       		.uleb128 0x2a
 6360 0b57 01       		.uleb128 0x1
 6361 0b58 51       		.byte	0x51
 6362 0b59 05       		.uleb128 0x5
 6363 0b5a 03       		.byte	0x3
 6364 0b5b B2000000 		.4byte	.LC41
 6365 0b5f 2A       		.uleb128 0x2a
 6366 0b60 01       		.uleb128 0x1
 6367 0b61 50       		.byte	0x50
 6368 0b62 02       		.uleb128 0x2
 6369 0b63 75       		.byte	0x75
 6370 0b64 00       		.sleb128 0
 6371 0b65 00       		.byte	0
 6372 0b66 29       		.uleb128 0x29
 6373 0b67 E6000000 		.4byte	.LVL45
 6374 0b6b BA310000 		.4byte	0x31ba
 6375 0b6f 890B0000 		.4byte	0xb89
 6376 0b73 2A       		.uleb128 0x2a
 6377 0b74 01       		.uleb128 0x1
 6378 0b75 52       		.byte	0x52
 6379 0b76 02       		.uleb128 0x2
 6380 0b77 74       		.byte	0x74
 6381 0b78 00       		.sleb128 0
 6382 0b79 2A       		.uleb128 0x2a
 6383 0b7a 01       		.uleb128 0x1
 6384 0b7b 51       		.byte	0x51
 6385 0b7c 05       		.uleb128 0x5
 6386 0b7d 03       		.byte	0x3
 6387 0b7e BC000000 		.4byte	.LC43
 6388 0b82 2A       		.uleb128 0x2a
 6389 0b83 01       		.uleb128 0x1
 6390 0b84 50       		.byte	0x50
 6391 0b85 02       		.uleb128 0x2
 6392 0b86 75       		.byte	0x75
 6393 0b87 00       		.sleb128 0
 6394 0b88 00       		.byte	0
 6395 0b89 29       		.uleb128 0x29
 6396 0b8a F8000000 		.4byte	.LVL46
 6397 0b8e BA310000 		.4byte	0x31ba
 6398 0b92 AC0B0000 		.4byte	0xbac
 6399 0b96 2A       		.uleb128 0x2a
 6400 0b97 01       		.uleb128 0x1
 6401 0b98 52       		.byte	0x52
 6402 0b99 02       		.uleb128 0x2
 6403 0b9a 74       		.byte	0x74
 6404 0b9b 00       		.sleb128 0
 6405 0b9c 2A       		.uleb128 0x2a
 6406 0b9d 01       		.uleb128 0x1
 6407 0b9e 51       		.byte	0x51
ARM GAS  C:\Users\SDEVAS~1\AppData\Local\Temp\ccPhqTSe.s 			page 136


 6408 0b9f 05       		.uleb128 0x5
 6409 0ba0 03       		.byte	0x3
 6410 0ba1 C5000000 		.4byte	.LC45
 6411 0ba5 2A       		.uleb128 0x2a
 6412 0ba6 01       		.uleb128 0x1
 6413 0ba7 50       		.byte	0x50
 6414 0ba8 02       		.uleb128 0x2
 6415 0ba9 75       		.byte	0x75
 6416 0baa 00       		.sleb128 0
 6417 0bab 00       		.byte	0
 6418 0bac 29       		.uleb128 0x29
 6419 0bad 0A010000 		.4byte	.LVL47
 6420 0bb1 BA310000 		.4byte	0x31ba
 6421 0bb5 CF0B0000 		.4byte	0xbcf
 6422 0bb9 2A       		.uleb128 0x2a
 6423 0bba 01       		.uleb128 0x1
 6424 0bbb 52       		.byte	0x52
 6425 0bbc 02       		.uleb128 0x2
 6426 0bbd 74       		.byte	0x74
 6427 0bbe 00       		.sleb128 0
 6428 0bbf 2A       		.uleb128 0x2a
 6429 0bc0 01       		.uleb128 0x1
 6430 0bc1 51       		.byte	0x51
 6431 0bc2 05       		.uleb128 0x5
 6432 0bc3 03       		.byte	0x3
 6433 0bc4 CF000000 		.4byte	.LC47
 6434 0bc8 2A       		.uleb128 0x2a
 6435 0bc9 01       		.uleb128 0x1
 6436 0bca 50       		.byte	0x50
 6437 0bcb 02       		.uleb128 0x2
 6438 0bcc 75       		.byte	0x75
 6439 0bcd 00       		.sleb128 0
 6440 0bce 00       		.byte	0
 6441 0bcf 29       		.uleb128 0x29
 6442 0bd0 1C010000 		.4byte	.LVL48
 6443 0bd4 BA310000 		.4byte	0x31ba
 6444 0bd8 F20B0000 		.4byte	0xbf2
 6445 0bdc 2A       		.uleb128 0x2a
 6446 0bdd 01       		.uleb128 0x1
 6447 0bde 52       		.byte	0x52
 6448 0bdf 02       		.uleb128 0x2
 6449 0be0 74       		.byte	0x74
 6450 0be1 00       		.sleb128 0
 6451 0be2 2A       		.uleb128 0x2a
 6452 0be3 01       		.uleb128 0x1
 6453 0be4 51       		.byte	0x51
 6454 0be5 05       		.uleb128 0x5
 6455 0be6 03       		.byte	0x3
 6456 0be7 DB000000 		.4byte	.LC49
 6457 0beb 2A       		.uleb128 0x2a
 6458 0bec 01       		.uleb128 0x1
 6459 0bed 50       		.byte	0x50
 6460 0bee 02       		.uleb128 0x2
 6461 0bef 75       		.byte	0x75
 6462 0bf0 00       		.sleb128 0
 6463 0bf1 00       		.byte	0
 6464 0bf2 29       		.uleb128 0x29
ARM GAS  C:\Users\SDEVAS~1\AppData\Local\Temp\ccPhqTSe.s 			page 137


 6465 0bf3 2E010000 		.4byte	.LVL49
 6466 0bf7 BA310000 		.4byte	0x31ba
 6467 0bfb 150C0000 		.4byte	0xc15
 6468 0bff 2A       		.uleb128 0x2a
 6469 0c00 01       		.uleb128 0x1
 6470 0c01 52       		.byte	0x52
 6471 0c02 02       		.uleb128 0x2
 6472 0c03 74       		.byte	0x74
 6473 0c04 00       		.sleb128 0
 6474 0c05 2A       		.uleb128 0x2a
 6475 0c06 01       		.uleb128 0x1
 6476 0c07 51       		.byte	0x51
 6477 0c08 05       		.uleb128 0x5
 6478 0c09 03       		.byte	0x3
 6479 0c0a E2000000 		.4byte	.LC51
 6480 0c0e 2A       		.uleb128 0x2a
 6481 0c0f 01       		.uleb128 0x1
 6482 0c10 50       		.byte	0x50
 6483 0c11 02       		.uleb128 0x2
 6484 0c12 75       		.byte	0x75
 6485 0c13 00       		.sleb128 0
 6486 0c14 00       		.byte	0
 6487 0c15 29       		.uleb128 0x29
 6488 0c16 40010000 		.4byte	.LVL50
 6489 0c1a BA310000 		.4byte	0x31ba
 6490 0c1e 380C0000 		.4byte	0xc38
 6491 0c22 2A       		.uleb128 0x2a
 6492 0c23 01       		.uleb128 0x1
 6493 0c24 52       		.byte	0x52
 6494 0c25 02       		.uleb128 0x2
 6495 0c26 74       		.byte	0x74
 6496 0c27 00       		.sleb128 0
 6497 0c28 2A       		.uleb128 0x2a
 6498 0c29 01       		.uleb128 0x1
 6499 0c2a 51       		.byte	0x51
 6500 0c2b 05       		.uleb128 0x5
 6501 0c2c 03       		.byte	0x3
 6502 0c2d E9000000 		.4byte	.LC53
 6503 0c31 2A       		.uleb128 0x2a
 6504 0c32 01       		.uleb128 0x1
 6505 0c33 50       		.byte	0x50
 6506 0c34 02       		.uleb128 0x2
 6507 0c35 75       		.byte	0x75
 6508 0c36 00       		.sleb128 0
 6509 0c37 00       		.byte	0
 6510 0c38 29       		.uleb128 0x29
 6511 0c39 52010000 		.4byte	.LVL51
 6512 0c3d BA310000 		.4byte	0x31ba
 6513 0c41 5B0C0000 		.4byte	0xc5b
 6514 0c45 2A       		.uleb128 0x2a
 6515 0c46 01       		.uleb128 0x1
 6516 0c47 52       		.byte	0x52
 6517 0c48 02       		.uleb128 0x2
 6518 0c49 74       		.byte	0x74
 6519 0c4a 00       		.sleb128 0
 6520 0c4b 2A       		.uleb128 0x2a
 6521 0c4c 01       		.uleb128 0x1
ARM GAS  C:\Users\SDEVAS~1\AppData\Local\Temp\ccPhqTSe.s 			page 138


 6522 0c4d 51       		.byte	0x51
 6523 0c4e 05       		.uleb128 0x5
 6524 0c4f 03       		.byte	0x3
 6525 0c50 FB000000 		.4byte	.LC55
 6526 0c54 2A       		.uleb128 0x2a
 6527 0c55 01       		.uleb128 0x1
 6528 0c56 50       		.byte	0x50
 6529 0c57 02       		.uleb128 0x2
 6530 0c58 75       		.byte	0x75
 6531 0c59 00       		.sleb128 0
 6532 0c5a 00       		.byte	0
 6533 0c5b 29       		.uleb128 0x29
 6534 0c5c 64010000 		.4byte	.LVL52
 6535 0c60 BA310000 		.4byte	0x31ba
 6536 0c64 7E0C0000 		.4byte	0xc7e
 6537 0c68 2A       		.uleb128 0x2a
 6538 0c69 01       		.uleb128 0x1
 6539 0c6a 52       		.byte	0x52
 6540 0c6b 02       		.uleb128 0x2
 6541 0c6c 74       		.byte	0x74
 6542 0c6d 00       		.sleb128 0
 6543 0c6e 2A       		.uleb128 0x2a
 6544 0c6f 01       		.uleb128 0x1
 6545 0c70 51       		.byte	0x51
 6546 0c71 05       		.uleb128 0x5
 6547 0c72 03       		.byte	0x3
 6548 0c73 0D010000 		.4byte	.LC57
 6549 0c77 2A       		.uleb128 0x2a
 6550 0c78 01       		.uleb128 0x1
 6551 0c79 50       		.byte	0x50
 6552 0c7a 02       		.uleb128 0x2
 6553 0c7b 75       		.byte	0x75
 6554 0c7c 00       		.sleb128 0
 6555 0c7d 00       		.byte	0
 6556 0c7e 29       		.uleb128 0x29
 6557 0c7f 76010000 		.4byte	.LVL53
 6558 0c83 BA310000 		.4byte	0x31ba
 6559 0c87 A10C0000 		.4byte	0xca1
 6560 0c8b 2A       		.uleb128 0x2a
 6561 0c8c 01       		.uleb128 0x1
 6562 0c8d 52       		.byte	0x52
 6563 0c8e 02       		.uleb128 0x2
 6564 0c8f 74       		.byte	0x74
 6565 0c90 00       		.sleb128 0
 6566 0c91 2A       		.uleb128 0x2a
 6567 0c92 01       		.uleb128 0x1
 6568 0c93 51       		.byte	0x51
 6569 0c94 05       		.uleb128 0x5
 6570 0c95 03       		.byte	0x3
 6571 0c96 1F010000 		.4byte	.LC59
 6572 0c9a 2A       		.uleb128 0x2a
 6573 0c9b 01       		.uleb128 0x1
 6574 0c9c 50       		.byte	0x50
 6575 0c9d 02       		.uleb128 0x2
 6576 0c9e 75       		.byte	0x75
 6577 0c9f 00       		.sleb128 0
 6578 0ca0 00       		.byte	0
ARM GAS  C:\Users\SDEVAS~1\AppData\Local\Temp\ccPhqTSe.s 			page 139


 6579 0ca1 29       		.uleb128 0x29
 6580 0ca2 86010000 		.4byte	.LVL54
 6581 0ca6 BA310000 		.4byte	0x31ba
 6582 0caa C40C0000 		.4byte	0xcc4
 6583 0cae 2A       		.uleb128 0x2a
 6584 0caf 01       		.uleb128 0x1
 6585 0cb0 52       		.byte	0x52
 6586 0cb1 02       		.uleb128 0x2
 6587 0cb2 74       		.byte	0x74
 6588 0cb3 00       		.sleb128 0
 6589 0cb4 2A       		.uleb128 0x2a
 6590 0cb5 01       		.uleb128 0x1
 6591 0cb6 51       		.byte	0x51
 6592 0cb7 05       		.uleb128 0x5
 6593 0cb8 03       		.byte	0x3
 6594 0cb9 31010000 		.4byte	.LC61
 6595 0cbd 2A       		.uleb128 0x2a
 6596 0cbe 01       		.uleb128 0x1
 6597 0cbf 50       		.byte	0x50
 6598 0cc0 02       		.uleb128 0x2
 6599 0cc1 75       		.byte	0x75
 6600 0cc2 00       		.sleb128 0
 6601 0cc3 00       		.byte	0
 6602 0cc4 29       		.uleb128 0x29
 6603 0cc5 96010000 		.4byte	.LVL55
 6604 0cc9 BA310000 		.4byte	0x31ba
 6605 0ccd E70C0000 		.4byte	0xce7
 6606 0cd1 2A       		.uleb128 0x2a
 6607 0cd2 01       		.uleb128 0x1
 6608 0cd3 52       		.byte	0x52
 6609 0cd4 02       		.uleb128 0x2
 6610 0cd5 74       		.byte	0x74
 6611 0cd6 00       		.sleb128 0
 6612 0cd7 2A       		.uleb128 0x2a
 6613 0cd8 01       		.uleb128 0x1
 6614 0cd9 51       		.byte	0x51
 6615 0cda 05       		.uleb128 0x5
 6616 0cdb 03       		.byte	0x3
 6617 0cdc 43010000 		.4byte	.LC63
 6618 0ce0 2A       		.uleb128 0x2a
 6619 0ce1 01       		.uleb128 0x1
 6620 0ce2 50       		.byte	0x50
 6621 0ce3 02       		.uleb128 0x2
 6622 0ce4 75       		.byte	0x75
 6623 0ce5 00       		.sleb128 0
 6624 0ce6 00       		.byte	0
 6625 0ce7 29       		.uleb128 0x29
 6626 0ce8 A6010000 		.4byte	.LVL56
 6627 0cec BA310000 		.4byte	0x31ba
 6628 0cf0 0A0D0000 		.4byte	0xd0a
 6629 0cf4 2A       		.uleb128 0x2a
 6630 0cf5 01       		.uleb128 0x1
 6631 0cf6 52       		.byte	0x52
 6632 0cf7 02       		.uleb128 0x2
 6633 0cf8 74       		.byte	0x74
 6634 0cf9 00       		.sleb128 0
 6635 0cfa 2A       		.uleb128 0x2a
ARM GAS  C:\Users\SDEVAS~1\AppData\Local\Temp\ccPhqTSe.s 			page 140


 6636 0cfb 01       		.uleb128 0x1
 6637 0cfc 51       		.byte	0x51
 6638 0cfd 05       		.uleb128 0x5
 6639 0cfe 03       		.byte	0x3
 6640 0cff 55010000 		.4byte	.LC65
 6641 0d03 2A       		.uleb128 0x2a
 6642 0d04 01       		.uleb128 0x1
 6643 0d05 50       		.byte	0x50
 6644 0d06 02       		.uleb128 0x2
 6645 0d07 75       		.byte	0x75
 6646 0d08 00       		.sleb128 0
 6647 0d09 00       		.byte	0
 6648 0d0a 29       		.uleb128 0x29
 6649 0d0b B6010000 		.4byte	.LVL57
 6650 0d0f BA310000 		.4byte	0x31ba
 6651 0d13 2D0D0000 		.4byte	0xd2d
 6652 0d17 2A       		.uleb128 0x2a
 6653 0d18 01       		.uleb128 0x1
 6654 0d19 52       		.byte	0x52
 6655 0d1a 02       		.uleb128 0x2
 6656 0d1b 74       		.byte	0x74
 6657 0d1c 00       		.sleb128 0
 6658 0d1d 2A       		.uleb128 0x2a
 6659 0d1e 01       		.uleb128 0x1
 6660 0d1f 51       		.byte	0x51
 6661 0d20 05       		.uleb128 0x5
 6662 0d21 03       		.byte	0x3
 6663 0d22 67010000 		.4byte	.LC67
 6664 0d26 2A       		.uleb128 0x2a
 6665 0d27 01       		.uleb128 0x1
 6666 0d28 50       		.byte	0x50
 6667 0d29 02       		.uleb128 0x2
 6668 0d2a 75       		.byte	0x75
 6669 0d2b 00       		.sleb128 0
 6670 0d2c 00       		.byte	0
 6671 0d2d 29       		.uleb128 0x29
 6672 0d2e C6010000 		.4byte	.LVL58
 6673 0d32 BA310000 		.4byte	0x31ba
 6674 0d36 500D0000 		.4byte	0xd50
 6675 0d3a 2A       		.uleb128 0x2a
 6676 0d3b 01       		.uleb128 0x1
 6677 0d3c 52       		.byte	0x52
 6678 0d3d 02       		.uleb128 0x2
 6679 0d3e 74       		.byte	0x74
 6680 0d3f 00       		.sleb128 0
 6681 0d40 2A       		.uleb128 0x2a
 6682 0d41 01       		.uleb128 0x1
 6683 0d42 51       		.byte	0x51
 6684 0d43 05       		.uleb128 0x5
 6685 0d44 03       		.byte	0x3
 6686 0d45 79010000 		.4byte	.LC69
 6687 0d49 2A       		.uleb128 0x2a
 6688 0d4a 01       		.uleb128 0x1
 6689 0d4b 50       		.byte	0x50
 6690 0d4c 02       		.uleb128 0x2
 6691 0d4d 75       		.byte	0x75
 6692 0d4e 00       		.sleb128 0
ARM GAS  C:\Users\SDEVAS~1\AppData\Local\Temp\ccPhqTSe.s 			page 141


 6693 0d4f 00       		.byte	0
 6694 0d50 29       		.uleb128 0x29
 6695 0d51 D6010000 		.4byte	.LVL59
 6696 0d55 BA310000 		.4byte	0x31ba
 6697 0d59 730D0000 		.4byte	0xd73
 6698 0d5d 2A       		.uleb128 0x2a
 6699 0d5e 01       		.uleb128 0x1
 6700 0d5f 52       		.byte	0x52
 6701 0d60 02       		.uleb128 0x2
 6702 0d61 74       		.byte	0x74
 6703 0d62 00       		.sleb128 0
 6704 0d63 2A       		.uleb128 0x2a
 6705 0d64 01       		.uleb128 0x1
 6706 0d65 51       		.byte	0x51
 6707 0d66 05       		.uleb128 0x5
 6708 0d67 03       		.byte	0x3
 6709 0d68 8B010000 		.4byte	.LC71
 6710 0d6c 2A       		.uleb128 0x2a
 6711 0d6d 01       		.uleb128 0x1
 6712 0d6e 50       		.byte	0x50
 6713 0d6f 02       		.uleb128 0x2
 6714 0d70 75       		.byte	0x75
 6715 0d71 00       		.sleb128 0
 6716 0d72 00       		.byte	0
 6717 0d73 29       		.uleb128 0x29
 6718 0d74 E6010000 		.4byte	.LVL60
 6719 0d78 BA310000 		.4byte	0x31ba
 6720 0d7c 960D0000 		.4byte	0xd96
 6721 0d80 2A       		.uleb128 0x2a
 6722 0d81 01       		.uleb128 0x1
 6723 0d82 52       		.byte	0x52
 6724 0d83 02       		.uleb128 0x2
 6725 0d84 74       		.byte	0x74
 6726 0d85 00       		.sleb128 0
 6727 0d86 2A       		.uleb128 0x2a
 6728 0d87 01       		.uleb128 0x1
 6729 0d88 51       		.byte	0x51
 6730 0d89 05       		.uleb128 0x5
 6731 0d8a 03       		.byte	0x3
 6732 0d8b 9D010000 		.4byte	.LC73
 6733 0d8f 2A       		.uleb128 0x2a
 6734 0d90 01       		.uleb128 0x1
 6735 0d91 50       		.byte	0x50
 6736 0d92 02       		.uleb128 0x2
 6737 0d93 75       		.byte	0x75
 6738 0d94 00       		.sleb128 0
 6739 0d95 00       		.byte	0
 6740 0d96 29       		.uleb128 0x29
 6741 0d97 F6010000 		.4byte	.LVL61
 6742 0d9b BA310000 		.4byte	0x31ba
 6743 0d9f B90D0000 		.4byte	0xdb9
 6744 0da3 2A       		.uleb128 0x2a
 6745 0da4 01       		.uleb128 0x1
 6746 0da5 52       		.byte	0x52
 6747 0da6 02       		.uleb128 0x2
 6748 0da7 74       		.byte	0x74
 6749 0da8 00       		.sleb128 0
ARM GAS  C:\Users\SDEVAS~1\AppData\Local\Temp\ccPhqTSe.s 			page 142


 6750 0da9 2A       		.uleb128 0x2a
 6751 0daa 01       		.uleb128 0x1
 6752 0dab 51       		.byte	0x51
 6753 0dac 05       		.uleb128 0x5
 6754 0dad 03       		.byte	0x3
 6755 0dae A7010000 		.4byte	.LC75
 6756 0db2 2A       		.uleb128 0x2a
 6757 0db3 01       		.uleb128 0x1
 6758 0db4 50       		.byte	0x50
 6759 0db5 02       		.uleb128 0x2
 6760 0db6 75       		.byte	0x75
 6761 0db7 00       		.sleb128 0
 6762 0db8 00       		.byte	0
 6763 0db9 29       		.uleb128 0x29
 6764 0dba 06020000 		.4byte	.LVL62
 6765 0dbe BA310000 		.4byte	0x31ba
 6766 0dc2 DC0D0000 		.4byte	0xddc
 6767 0dc6 2A       		.uleb128 0x2a
 6768 0dc7 01       		.uleb128 0x1
 6769 0dc8 52       		.byte	0x52
 6770 0dc9 02       		.uleb128 0x2
 6771 0dca 74       		.byte	0x74
 6772 0dcb 00       		.sleb128 0
 6773 0dcc 2A       		.uleb128 0x2a
 6774 0dcd 01       		.uleb128 0x1
 6775 0dce 51       		.byte	0x51
 6776 0dcf 05       		.uleb128 0x5
 6777 0dd0 03       		.byte	0x3
 6778 0dd1 B0010000 		.4byte	.LC77
 6779 0dd5 2A       		.uleb128 0x2a
 6780 0dd6 01       		.uleb128 0x1
 6781 0dd7 50       		.byte	0x50
 6782 0dd8 02       		.uleb128 0x2
 6783 0dd9 75       		.byte	0x75
 6784 0dda 00       		.sleb128 0
 6785 0ddb 00       		.byte	0
 6786 0ddc 29       		.uleb128 0x29
 6787 0ddd 16020000 		.4byte	.LVL63
 6788 0de1 BA310000 		.4byte	0x31ba
 6789 0de5 FF0D0000 		.4byte	0xdff
 6790 0de9 2A       		.uleb128 0x2a
 6791 0dea 01       		.uleb128 0x1
 6792 0deb 52       		.byte	0x52
 6793 0dec 02       		.uleb128 0x2
 6794 0ded 74       		.byte	0x74
 6795 0dee 00       		.sleb128 0
 6796 0def 2A       		.uleb128 0x2a
 6797 0df0 01       		.uleb128 0x1
 6798 0df1 51       		.byte	0x51
 6799 0df2 05       		.uleb128 0x5
 6800 0df3 03       		.byte	0x3
 6801 0df4 C0010000 		.4byte	.LC79
 6802 0df8 2A       		.uleb128 0x2a
 6803 0df9 01       		.uleb128 0x1
 6804 0dfa 50       		.byte	0x50
 6805 0dfb 02       		.uleb128 0x2
 6806 0dfc 75       		.byte	0x75
ARM GAS  C:\Users\SDEVAS~1\AppData\Local\Temp\ccPhqTSe.s 			page 143


 6807 0dfd 00       		.sleb128 0
 6808 0dfe 00       		.byte	0
 6809 0dff 29       		.uleb128 0x29
 6810 0e00 26020000 		.4byte	.LVL64
 6811 0e04 BA310000 		.4byte	0x31ba
 6812 0e08 220E0000 		.4byte	0xe22
 6813 0e0c 2A       		.uleb128 0x2a
 6814 0e0d 01       		.uleb128 0x1
 6815 0e0e 52       		.byte	0x52
 6816 0e0f 02       		.uleb128 0x2
 6817 0e10 74       		.byte	0x74
 6818 0e11 00       		.sleb128 0
 6819 0e12 2A       		.uleb128 0x2a
 6820 0e13 01       		.uleb128 0x1
 6821 0e14 51       		.byte	0x51
 6822 0e15 05       		.uleb128 0x5
 6823 0e16 03       		.byte	0x3
 6824 0e17 D0010000 		.4byte	.LC81
 6825 0e1b 2A       		.uleb128 0x2a
 6826 0e1c 01       		.uleb128 0x1
 6827 0e1d 50       		.byte	0x50
 6828 0e1e 02       		.uleb128 0x2
 6829 0e1f 75       		.byte	0x75
 6830 0e20 00       		.sleb128 0
 6831 0e21 00       		.byte	0
 6832 0e22 29       		.uleb128 0x29
 6833 0e23 36020000 		.4byte	.LVL65
 6834 0e27 BA310000 		.4byte	0x31ba
 6835 0e2b 450E0000 		.4byte	0xe45
 6836 0e2f 2A       		.uleb128 0x2a
 6837 0e30 01       		.uleb128 0x1
 6838 0e31 52       		.byte	0x52
 6839 0e32 02       		.uleb128 0x2
 6840 0e33 74       		.byte	0x74
 6841 0e34 00       		.sleb128 0
 6842 0e35 2A       		.uleb128 0x2a
 6843 0e36 01       		.uleb128 0x1
 6844 0e37 51       		.byte	0x51
 6845 0e38 05       		.uleb128 0x5
 6846 0e39 03       		.byte	0x3
 6847 0e3a E0010000 		.4byte	.LC83
 6848 0e3e 2A       		.uleb128 0x2a
 6849 0e3f 01       		.uleb128 0x1
 6850 0e40 50       		.byte	0x50
 6851 0e41 02       		.uleb128 0x2
 6852 0e42 75       		.byte	0x75
 6853 0e43 00       		.sleb128 0
 6854 0e44 00       		.byte	0
 6855 0e45 29       		.uleb128 0x29
 6856 0e46 46020000 		.4byte	.LVL66
 6857 0e4a BA310000 		.4byte	0x31ba
 6858 0e4e 680E0000 		.4byte	0xe68
 6859 0e52 2A       		.uleb128 0x2a
 6860 0e53 01       		.uleb128 0x1
 6861 0e54 52       		.byte	0x52
 6862 0e55 02       		.uleb128 0x2
 6863 0e56 74       		.byte	0x74
ARM GAS  C:\Users\SDEVAS~1\AppData\Local\Temp\ccPhqTSe.s 			page 144


 6864 0e57 00       		.sleb128 0
 6865 0e58 2A       		.uleb128 0x2a
 6866 0e59 01       		.uleb128 0x1
 6867 0e5a 51       		.byte	0x51
 6868 0e5b 05       		.uleb128 0x5
 6869 0e5c 03       		.byte	0x3
 6870 0e5d F0010000 		.4byte	.LC85
 6871 0e61 2A       		.uleb128 0x2a
 6872 0e62 01       		.uleb128 0x1
 6873 0e63 50       		.byte	0x50
 6874 0e64 02       		.uleb128 0x2
 6875 0e65 75       		.byte	0x75
 6876 0e66 00       		.sleb128 0
 6877 0e67 00       		.byte	0
 6878 0e68 29       		.uleb128 0x29
 6879 0e69 56020000 		.4byte	.LVL67
 6880 0e6d BA310000 		.4byte	0x31ba
 6881 0e71 8B0E0000 		.4byte	0xe8b
 6882 0e75 2A       		.uleb128 0x2a
 6883 0e76 01       		.uleb128 0x1
 6884 0e77 52       		.byte	0x52
 6885 0e78 02       		.uleb128 0x2
 6886 0e79 74       		.byte	0x74
 6887 0e7a 00       		.sleb128 0
 6888 0e7b 2A       		.uleb128 0x2a
 6889 0e7c 01       		.uleb128 0x1
 6890 0e7d 51       		.byte	0x51
 6891 0e7e 05       		.uleb128 0x5
 6892 0e7f 03       		.byte	0x3
 6893 0e80 FD010000 		.4byte	.LC87
 6894 0e84 2A       		.uleb128 0x2a
 6895 0e85 01       		.uleb128 0x1
 6896 0e86 50       		.byte	0x50
 6897 0e87 02       		.uleb128 0x2
 6898 0e88 75       		.byte	0x75
 6899 0e89 00       		.sleb128 0
 6900 0e8a 00       		.byte	0
 6901 0e8b 2B       		.uleb128 0x2b
 6902 0e8c 66020000 		.4byte	.LVL68
 6903 0e90 BA310000 		.4byte	0x31ba
 6904 0e94 2A       		.uleb128 0x2a
 6905 0e95 01       		.uleb128 0x1
 6906 0e96 52       		.byte	0x52
 6907 0e97 02       		.uleb128 0x2
 6908 0e98 74       		.byte	0x74
 6909 0e99 00       		.sleb128 0
 6910 0e9a 2A       		.uleb128 0x2a
 6911 0e9b 01       		.uleb128 0x1
 6912 0e9c 51       		.byte	0x51
 6913 0e9d 05       		.uleb128 0x5
 6914 0e9e 03       		.byte	0x3
 6915 0e9f 0F020000 		.4byte	.LC89
 6916 0ea3 2A       		.uleb128 0x2a
 6917 0ea4 01       		.uleb128 0x1
 6918 0ea5 50       		.byte	0x50
 6919 0ea6 02       		.uleb128 0x2
 6920 0ea7 75       		.byte	0x75
ARM GAS  C:\Users\SDEVAS~1\AppData\Local\Temp\ccPhqTSe.s 			page 145


 6921 0ea8 00       		.sleb128 0
 6922 0ea9 00       		.byte	0
 6923 0eaa 00       		.byte	0
 6924 0eab 1E       		.uleb128 0x1e
 6925 0eac D2100000 		.4byte	.LASF156
 6926 0eb0 01       		.byte	0x1
 6927 0eb1 70       		.byte	0x70
 6928 0eb2 C3030000 		.4byte	0x3c3
 6929 0eb6 00000000 		.4byte	.LFB36
 6930 0eba 5C000000 		.4byte	.LFE36-.LFB36
 6931 0ebe 01       		.uleb128 0x1
 6932 0ebf 9C       		.byte	0x9c
 6933 0ec0 6B0F0000 		.4byte	0xf6b
 6934 0ec4 27       		.uleb128 0x27
 6935 0ec5 73747200 		.ascii	"str\000"
 6936 0ec9 01       		.byte	0x1
 6937 0eca 70       		.byte	0x70
 6938 0ecb CD000000 		.4byte	0xcd
 6939 0ecf 73020000 		.4byte	.LLST15
 6940 0ed3 27       		.uleb128 0x27
 6941 0ed4 6C656E00 		.ascii	"len\000"
 6942 0ed8 01       		.byte	0x1
 6943 0ed9 70       		.byte	0x70
 6944 0eda 68000000 		.4byte	0x68
 6945 0ede 9F020000 		.4byte	.LLST16
 6946 0ee2 29       		.uleb128 0x29
 6947 0ee3 0E000000 		.4byte	.LVL73
 6948 0ee7 BA310000 		.4byte	0x31ba
 6949 0eeb 050F0000 		.4byte	0xf05
 6950 0eef 2A       		.uleb128 0x2a
 6951 0ef0 01       		.uleb128 0x1
 6952 0ef1 52       		.byte	0x52
 6953 0ef2 02       		.uleb128 0x2
 6954 0ef3 74       		.byte	0x74
 6955 0ef4 00       		.sleb128 0
 6956 0ef5 2A       		.uleb128 0x2a
 6957 0ef6 01       		.uleb128 0x1
 6958 0ef7 51       		.byte	0x51
 6959 0ef8 05       		.uleb128 0x5
 6960 0ef9 03       		.byte	0x3
 6961 0efa 18020000 		.4byte	.LC91
 6962 0efe 2A       		.uleb128 0x2a
 6963 0eff 01       		.uleb128 0x1
 6964 0f00 50       		.byte	0x50
 6965 0f01 02       		.uleb128 0x2
 6966 0f02 75       		.byte	0x75
 6967 0f03 00       		.sleb128 0
 6968 0f04 00       		.byte	0
 6969 0f05 29       		.uleb128 0x29
 6970 0f06 1E000000 		.4byte	.LVL74
 6971 0f0a BA310000 		.4byte	0x31ba
 6972 0f0e 280F0000 		.4byte	0xf28
 6973 0f12 2A       		.uleb128 0x2a
 6974 0f13 01       		.uleb128 0x1
 6975 0f14 52       		.byte	0x52
 6976 0f15 02       		.uleb128 0x2
 6977 0f16 74       		.byte	0x74
ARM GAS  C:\Users\SDEVAS~1\AppData\Local\Temp\ccPhqTSe.s 			page 146


 6978 0f17 00       		.sleb128 0
 6979 0f18 2A       		.uleb128 0x2a
 6980 0f19 01       		.uleb128 0x1
 6981 0f1a 51       		.byte	0x51
 6982 0f1b 05       		.uleb128 0x5
 6983 0f1c 03       		.byte	0x3
 6984 0f1d 1E020000 		.4byte	.LC93
 6985 0f21 2A       		.uleb128 0x2a
 6986 0f22 01       		.uleb128 0x1
 6987 0f23 50       		.byte	0x50
 6988 0f24 02       		.uleb128 0x2
 6989 0f25 75       		.byte	0x75
 6990 0f26 00       		.sleb128 0
 6991 0f27 00       		.byte	0
 6992 0f28 29       		.uleb128 0x29
 6993 0f29 2E000000 		.4byte	.LVL75
 6994 0f2d BA310000 		.4byte	0x31ba
 6995 0f31 4B0F0000 		.4byte	0xf4b
 6996 0f35 2A       		.uleb128 0x2a
 6997 0f36 01       		.uleb128 0x1
 6998 0f37 52       		.byte	0x52
 6999 0f38 02       		.uleb128 0x2
 7000 0f39 74       		.byte	0x74
 7001 0f3a 00       		.sleb128 0
 7002 0f3b 2A       		.uleb128 0x2a
 7003 0f3c 01       		.uleb128 0x1
 7004 0f3d 51       		.byte	0x51
 7005 0f3e 05       		.uleb128 0x5
 7006 0f3f 03       		.byte	0x3
 7007 0f40 23020000 		.4byte	.LC95
 7008 0f44 2A       		.uleb128 0x2a
 7009 0f45 01       		.uleb128 0x1
 7010 0f46 50       		.byte	0x50
 7011 0f47 02       		.uleb128 0x2
 7012 0f48 75       		.byte	0x75
 7013 0f49 00       		.sleb128 0
 7014 0f4a 00       		.byte	0
 7015 0f4b 2B       		.uleb128 0x2b
 7016 0f4c 3E000000 		.4byte	.LVL76
 7017 0f50 BA310000 		.4byte	0x31ba
 7018 0f54 2A       		.uleb128 0x2a
 7019 0f55 01       		.uleb128 0x1
 7020 0f56 52       		.byte	0x52
 7021 0f57 02       		.uleb128 0x2
 7022 0f58 74       		.byte	0x74
 7023 0f59 00       		.sleb128 0
 7024 0f5a 2A       		.uleb128 0x2a
 7025 0f5b 01       		.uleb128 0x1
 7026 0f5c 51       		.byte	0x51
 7027 0f5d 05       		.uleb128 0x5
 7028 0f5e 03       		.byte	0x3
 7029 0f5f 28020000 		.4byte	.LC97
 7030 0f63 2A       		.uleb128 0x2a
 7031 0f64 01       		.uleb128 0x1
 7032 0f65 50       		.byte	0x50
 7033 0f66 02       		.uleb128 0x2
 7034 0f67 75       		.byte	0x75
ARM GAS  C:\Users\SDEVAS~1\AppData\Local\Temp\ccPhqTSe.s 			page 147


 7035 0f68 00       		.sleb128 0
 7036 0f69 00       		.byte	0
 7037 0f6a 00       		.byte	0
 7038 0f6b 22       		.uleb128 0x22
 7039 0f6c D3040000 		.4byte	.LASF157
 7040 0f70 01       		.byte	0x1
 7041 0f71 D201     		.2byte	0x1d2
 7042 0f73 00000000 		.4byte	.LFB51
 7043 0f77 12000000 		.4byte	.LFE51-.LFB51
 7044 0f7b 01       		.uleb128 0x1
 7045 0f7c 9C       		.byte	0x9c
 7046 0f7d A40F0000 		.4byte	0xfa4
 7047 0f81 23       		.uleb128 0x23
 7048 0f82 59100000 		.4byte	.LASF158
 7049 0f86 01       		.byte	0x1
 7050 0f87 D201     		.2byte	0x1d2
 7051 0f89 81000000 		.4byte	0x81
 7052 0f8d D6020000 		.4byte	.LLST17
 7053 0f91 2C       		.uleb128 0x2c
 7054 0f92 0A000000 		.4byte	.LVL80
 7055 0f96 D9310000 		.4byte	0x31d9
 7056 0f9a 2C       		.uleb128 0x2c
 7057 0f9b 10000000 		.4byte	.LVL82
 7058 0f9f E0310000 		.4byte	0x31e0
 7059 0fa3 00       		.byte	0
 7060 0fa4 2D       		.uleb128 0x2d
 7061 0fa5 F8040000 		.4byte	0x4f8
 7062 0fa9 00000000 		.4byte	.LFB58
 7063 0fad 3C000000 		.4byte	.LFE58-.LFB58
 7064 0fb1 01       		.uleb128 0x1
 7065 0fb2 9C       		.byte	0x9c
 7066 0fb3 06100000 		.4byte	0x1006
 7067 0fb7 2E       		.uleb128 0x2e
 7068 0fb8 05050000 		.4byte	0x505
 7069 0fbc 10030000 		.4byte	.LLST18
 7070 0fc0 2E       		.uleb128 0x2e
 7071 0fc1 11050000 		.4byte	0x511
 7072 0fc5 4A030000 		.4byte	.LLST19
 7073 0fc9 2F       		.uleb128 0x2f
 7074 0fca 0E000000 		.4byte	.LBB19
 7075 0fce 0E000000 		.4byte	.LBE19-.LBB19
 7076 0fd2 FC0F0000 		.4byte	0xffc
 7077 0fd6 2E       		.uleb128 0x2e
 7078 0fd7 05050000 		.4byte	0x505
 7079 0fdb 84030000 		.4byte	.LLST20
 7080 0fdf 2E       		.uleb128 0x2e
 7081 0fe0 11050000 		.4byte	0x511
 7082 0fe4 A5030000 		.4byte	.LLST21
 7083 0fe8 2B       		.uleb128 0x2b
 7084 0fe9 1A000000 		.4byte	.LVL86
 7085 0fed E7310000 		.4byte	0x31e7
 7086 0ff1 2A       		.uleb128 0x2a
 7087 0ff2 01       		.uleb128 0x1
 7088 0ff3 50       		.byte	0x50
 7089 0ff4 05       		.uleb128 0x5
 7090 0ff5 03       		.byte	0x3
 7091 0ff6 00000000 		.4byte	rs485_slave_released_callback
ARM GAS  C:\Users\SDEVAS~1\AppData\Local\Temp\ccPhqTSe.s 			page 148


 7092 0ffa 00       		.byte	0
 7093 0ffb 00       		.byte	0
 7094 0ffc 2C       		.uleb128 0x2c
 7095 0ffd 20000000 		.4byte	.LVL88
 7096 1001 FC310000 		.4byte	0x31fc
 7097 1005 00       		.byte	0
 7098 1006 2D       		.uleb128 0x2d
 7099 1007 1E050000 		.4byte	0x51e
 7100 100b 00000000 		.4byte	.LFB61
 7101 100f 94050000 		.4byte	.LFE61-.LFB61
 7102 1013 01       		.uleb128 0x1
 7103 1014 9C       		.byte	0x9c
 7104 1015 86160000 		.4byte	0x1686
 7105 1019 2E       		.uleb128 0x2e
 7106 101a 3B050000 		.4byte	0x53b
 7107 101e C6030000 		.4byte	.LLST22
 7108 1022 2E       		.uleb128 0x2e
 7109 1023 53050000 		.4byte	0x553
 7110 1027 F2030000 		.4byte	.LLST23
 7111 102b 30       		.uleb128 0x30
 7112 102c 6B050000 		.4byte	0x56b
 7113 1030 46050000 		.4byte	.L129
 7114 1034 31       		.uleb128 0x31
 7115 1035 73050000 		.4byte	0x573
 7116 1039 37040000 		.4byte	.LLST24
 7117 103d 31       		.uleb128 0x31
 7118 103e 7D050000 		.4byte	0x57d
 7119 1042 F9050000 		.4byte	.LLST25
 7120 1046 31       		.uleb128 0x31
 7121 1047 89050000 		.4byte	0x589
 7122 104b 98070000 		.4byte	.LLST26
 7123 104f 31       		.uleb128 0x31
 7124 1050 93050000 		.4byte	0x593
 7125 1054 44090000 		.4byte	.LLST27
 7126 1058 32       		.uleb128 0x32
 7127 1059 5F050000 		.4byte	0x55f
 7128 105d 06       		.uleb128 0x6
 7129 105e FA       		.byte	0xfa
 7130 105f 5F050000 		.4byte	0x55f
 7131 1063 9F       		.byte	0x9f
 7132 1064 32       		.uleb128 0x32
 7133 1065 47050000 		.4byte	0x547
 7134 1069 06       		.uleb128 0x6
 7135 106a FA       		.byte	0xfa
 7136 106b 47050000 		.4byte	0x547
 7137 106f 9F       		.byte	0x9f
 7138 1070 32       		.uleb128 0x32
 7139 1071 2F050000 		.4byte	0x52f
 7140 1075 06       		.uleb128 0x6
 7141 1076 FA       		.byte	0xfa
 7142 1077 2F050000 		.4byte	0x52f
 7143 107b 9F       		.byte	0x9f
 7144 107c 29       		.uleb128 0x29
 7145 107d 30000000 		.4byte	.LVL91
 7146 1081 2F090000 		.4byte	0x92f
 7147 1085 A4100000 		.4byte	0x10a4
 7148 1089 2A       		.uleb128 0x2a
ARM GAS  C:\Users\SDEVAS~1\AppData\Local\Temp\ccPhqTSe.s 			page 149


 7149 108a 01       		.uleb128 0x1
 7150 108b 52       		.byte	0x52
 7151 108c 05       		.uleb128 0x5
 7152 108d 03       		.byte	0x3
 7153 108e 31020000 		.4byte	.LC102
 7154 1092 2A       		.uleb128 0x2a
 7155 1093 01       		.uleb128 0x1
 7156 1094 51       		.byte	0x51
 7157 1095 07       		.uleb128 0x7
 7158 1096 76       		.byte	0x76
 7159 1097 00       		.sleb128 0
 7160 1098 34       		.byte	0x34
 7161 1099 24       		.byte	0x24
 7162 109a 74       		.byte	0x74
 7163 109b 00       		.sleb128 0
 7164 109c 22       		.byte	0x22
 7165 109d 2A       		.uleb128 0x2a
 7166 109e 01       		.uleb128 0x1
 7167 109f 50       		.byte	0x50
 7168 10a0 02       		.uleb128 0x2
 7169 10a1 77       		.byte	0x77
 7170 10a2 00       		.sleb128 0
 7171 10a3 00       		.byte	0
 7172 10a4 2C       		.uleb128 0x2c
 7173 10a5 46000000 		.4byte	.LVL93
 7174 10a9 8B090000 		.4byte	0x98b
 7175 10ad 29       		.uleb128 0x29
 7176 10ae 52000000 		.4byte	.LVL95
 7177 10b2 FE060000 		.4byte	0x6fe
 7178 10b6 C7100000 		.4byte	0x10c7
 7179 10ba 2A       		.uleb128 0x2a
 7180 10bb 01       		.uleb128 0x1
 7181 10bc 51       		.byte	0x51
 7182 10bd 02       		.uleb128 0x2
 7183 10be 76       		.byte	0x76
 7184 10bf 01       		.sleb128 1
 7185 10c0 2A       		.uleb128 0x2a
 7186 10c1 01       		.uleb128 0x1
 7187 10c2 50       		.byte	0x50
 7188 10c3 02       		.uleb128 0x2
 7189 10c4 74       		.byte	0x74
 7190 10c5 00       		.sleb128 0
 7191 10c6 00       		.byte	0
 7192 10c7 29       		.uleb128 0x29
 7193 10c8 B6000000 		.4byte	.LVL100
 7194 10cc 96310000 		.4byte	0x3196
 7195 10d0 E4100000 		.4byte	0x10e4
 7196 10d4 2A       		.uleb128 0x2a
 7197 10d5 01       		.uleb128 0x1
 7198 10d6 52       		.byte	0x52
 7199 10d7 02       		.uleb128 0x2
 7200 10d8 08       		.byte	0x8
 7201 10d9 2B       		.byte	0x2b
 7202 10da 2A       		.uleb128 0x2a
 7203 10db 01       		.uleb128 0x1
 7204 10dc 51       		.byte	0x51
 7205 10dd 05       		.uleb128 0x5
ARM GAS  C:\Users\SDEVAS~1\AppData\Local\Temp\ccPhqTSe.s 			page 150


 7206 10de 03       		.byte	0x3
 7207 10df 33020000 		.4byte	.LC105
 7208 10e3 00       		.byte	0
 7209 10e4 2C       		.uleb128 0x2c
 7210 10e5 C6000000 		.4byte	.LVL103
 7211 10e9 07320000 		.4byte	0x3207
 7212 10ed 29       		.uleb128 0x29
 7213 10ee D2000000 		.4byte	.LVL106
 7214 10f2 96310000 		.4byte	0x3196
 7215 10f6 0A110000 		.4byte	0x110a
 7216 10fa 2A       		.uleb128 0x2a
 7217 10fb 01       		.uleb128 0x1
 7218 10fc 52       		.byte	0x52
 7219 10fd 02       		.uleb128 0x2
 7220 10fe 08       		.byte	0x8
 7221 10ff 2C       		.byte	0x2c
 7222 1100 2A       		.uleb128 0x2a
 7223 1101 01       		.uleb128 0x1
 7224 1102 51       		.byte	0x51
 7225 1103 05       		.uleb128 0x5
 7226 1104 03       		.byte	0x3
 7227 1105 5E020000 		.4byte	.LC107
 7228 1109 00       		.byte	0
 7229 110a 2C       		.uleb128 0x2c
 7230 110b E2000000 		.4byte	.LVL109
 7231 110f 12320000 		.4byte	0x3212
 7232 1113 29       		.uleb128 0x29
 7233 1114 EE000000 		.4byte	.LVL112
 7234 1118 96310000 		.4byte	0x3196
 7235 111c 30110000 		.4byte	0x1130
 7236 1120 2A       		.uleb128 0x2a
 7237 1121 01       		.uleb128 0x1
 7238 1122 52       		.byte	0x52
 7239 1123 02       		.uleb128 0x2
 7240 1124 08       		.byte	0x8
 7241 1125 24       		.byte	0x24
 7242 1126 2A       		.uleb128 0x2a
 7243 1127 01       		.uleb128 0x1
 7244 1128 51       		.byte	0x51
 7245 1129 05       		.uleb128 0x5
 7246 112a 03       		.byte	0x3
 7247 112b 8A020000 		.4byte	.LC109
 7248 112f 00       		.byte	0
 7249 1130 2C       		.uleb128 0x2c
 7250 1131 FE000000 		.4byte	.LVL115
 7251 1135 1D320000 		.4byte	0x321d
 7252 1139 29       		.uleb128 0x29
 7253 113a 08010000 		.4byte	.LVL116
 7254 113e 28320000 		.4byte	0x3228
 7255 1142 53110000 		.4byte	0x1153
 7256 1146 2A       		.uleb128 0x2a
 7257 1147 01       		.uleb128 0x1
 7258 1148 51       		.byte	0x51
 7259 1149 02       		.uleb128 0x2
 7260 114a 75       		.byte	0x75
 7261 114b 00       		.sleb128 0
 7262 114c 2A       		.uleb128 0x2a
ARM GAS  C:\Users\SDEVAS~1\AppData\Local\Temp\ccPhqTSe.s 			page 151


 7263 114d 01       		.uleb128 0x1
 7264 114e 50       		.byte	0x50
 7265 114f 02       		.uleb128 0x2
 7266 1150 76       		.byte	0x76
 7267 1151 00       		.sleb128 0
 7268 1152 00       		.byte	0
 7269 1153 29       		.uleb128 0x29
 7270 1154 14010000 		.4byte	.LVL119
 7271 1158 96310000 		.4byte	0x3196
 7272 115c 70110000 		.4byte	0x1170
 7273 1160 2A       		.uleb128 0x2a
 7274 1161 01       		.uleb128 0x1
 7275 1162 52       		.byte	0x52
 7276 1163 02       		.uleb128 0x2
 7277 1164 08       		.byte	0x8
 7278 1165 2D       		.byte	0x2d
 7279 1166 2A       		.uleb128 0x2a
 7280 1167 01       		.uleb128 0x1
 7281 1168 51       		.byte	0x51
 7282 1169 05       		.uleb128 0x5
 7283 116a 03       		.byte	0x3
 7284 116b AE020000 		.4byte	.LC111
 7285 116f 00       		.byte	0
 7286 1170 2C       		.uleb128 0x2c
 7287 1171 24010000 		.4byte	.LVL122
 7288 1175 47320000 		.4byte	0x3247
 7289 1179 29       		.uleb128 0x29
 7290 117a 30010000 		.4byte	.LVL125
 7291 117e 96310000 		.4byte	0x3196
 7292 1182 96110000 		.4byte	0x1196
 7293 1186 2A       		.uleb128 0x2a
 7294 1187 01       		.uleb128 0x1
 7295 1188 52       		.byte	0x52
 7296 1189 02       		.uleb128 0x2
 7297 118a 08       		.byte	0x8
 7298 118b 2D       		.byte	0x2d
 7299 118c 2A       		.uleb128 0x2a
 7300 118d 01       		.uleb128 0x1
 7301 118e 51       		.byte	0x51
 7302 118f 05       		.uleb128 0x5
 7303 1190 03       		.byte	0x3
 7304 1191 DB020000 		.4byte	.LC113
 7305 1195 00       		.byte	0
 7306 1196 2C       		.uleb128 0x2c
 7307 1197 40010000 		.4byte	.LVL128
 7308 119b 52320000 		.4byte	0x3252
 7309 119f 29       		.uleb128 0x29
 7310 11a0 4C010000 		.4byte	.LVL131
 7311 11a4 96310000 		.4byte	0x3196
 7312 11a8 BC110000 		.4byte	0x11bc
 7313 11ac 2A       		.uleb128 0x2a
 7314 11ad 01       		.uleb128 0x1
 7315 11ae 52       		.byte	0x52
 7316 11af 02       		.uleb128 0x2
 7317 11b0 08       		.byte	0x8
 7318 11b1 2B       		.byte	0x2b
 7319 11b2 2A       		.uleb128 0x2a
ARM GAS  C:\Users\SDEVAS~1\AppData\Local\Temp\ccPhqTSe.s 			page 152


 7320 11b3 01       		.uleb128 0x1
 7321 11b4 51       		.byte	0x51
 7322 11b5 05       		.uleb128 0x5
 7323 11b6 03       		.byte	0x3
 7324 11b7 08030000 		.4byte	.LC115
 7325 11bb 00       		.byte	0
 7326 11bc 2C       		.uleb128 0x2c
 7327 11bd 5C010000 		.4byte	.LVL134
 7328 11c1 5D320000 		.4byte	0x325d
 7329 11c5 29       		.uleb128 0x29
 7330 11c6 68010000 		.4byte	.LVL137
 7331 11ca 96310000 		.4byte	0x3196
 7332 11ce E2110000 		.4byte	0x11e2
 7333 11d2 2A       		.uleb128 0x2a
 7334 11d3 01       		.uleb128 0x1
 7335 11d4 52       		.byte	0x52
 7336 11d5 02       		.uleb128 0x2
 7337 11d6 08       		.byte	0x8
 7338 11d7 2B       		.byte	0x2b
 7339 11d8 2A       		.uleb128 0x2a
 7340 11d9 01       		.uleb128 0x1
 7341 11da 51       		.byte	0x51
 7342 11db 05       		.uleb128 0x5
 7343 11dc 03       		.byte	0x3
 7344 11dd 33030000 		.4byte	.LC117
 7345 11e1 00       		.byte	0
 7346 11e2 2C       		.uleb128 0x2c
 7347 11e3 78010000 		.4byte	.LVL140
 7348 11e7 68320000 		.4byte	0x3268
 7349 11eb 29       		.uleb128 0x29
 7350 11ec 84010000 		.4byte	.LVL143
 7351 11f0 96310000 		.4byte	0x3196
 7352 11f4 08120000 		.4byte	0x1208
 7353 11f8 2A       		.uleb128 0x2a
 7354 11f9 01       		.uleb128 0x1
 7355 11fa 52       		.byte	0x52
 7356 11fb 02       		.uleb128 0x2
 7357 11fc 08       		.byte	0x8
 7358 11fd 2B       		.byte	0x2b
 7359 11fe 2A       		.uleb128 0x2a
 7360 11ff 01       		.uleb128 0x1
 7361 1200 51       		.byte	0x51
 7362 1201 05       		.uleb128 0x5
 7363 1202 03       		.byte	0x3
 7364 1203 5E030000 		.4byte	.LC119
 7365 1207 00       		.byte	0
 7366 1208 2C       		.uleb128 0x2c
 7367 1209 94010000 		.4byte	.LVL146
 7368 120d 73320000 		.4byte	0x3273
 7369 1211 29       		.uleb128 0x29
 7370 1212 A0010000 		.4byte	.LVL149
 7371 1216 96310000 		.4byte	0x3196
 7372 121a 2E120000 		.4byte	0x122e
 7373 121e 2A       		.uleb128 0x2a
 7374 121f 01       		.uleb128 0x1
 7375 1220 52       		.byte	0x52
 7376 1221 02       		.uleb128 0x2
ARM GAS  C:\Users\SDEVAS~1\AppData\Local\Temp\ccPhqTSe.s 			page 153


 7377 1222 08       		.byte	0x8
 7378 1223 2F       		.byte	0x2f
 7379 1224 2A       		.uleb128 0x2a
 7380 1225 01       		.uleb128 0x1
 7381 1226 51       		.byte	0x51
 7382 1227 05       		.uleb128 0x5
 7383 1228 03       		.byte	0x3
 7384 1229 89030000 		.4byte	.LC121
 7385 122d 00       		.byte	0
 7386 122e 2C       		.uleb128 0x2c
 7387 122f B0010000 		.4byte	.LVL152
 7388 1233 7E320000 		.4byte	0x327e
 7389 1237 29       		.uleb128 0x29
 7390 1238 BC010000 		.4byte	.LVL155
 7391 123c 96310000 		.4byte	0x3196
 7392 1240 54120000 		.4byte	0x1254
 7393 1244 2A       		.uleb128 0x2a
 7394 1245 01       		.uleb128 0x1
 7395 1246 52       		.byte	0x52
 7396 1247 02       		.uleb128 0x2
 7397 1248 08       		.byte	0x8
 7398 1249 2F       		.byte	0x2f
 7399 124a 2A       		.uleb128 0x2a
 7400 124b 01       		.uleb128 0x1
 7401 124c 51       		.byte	0x51
 7402 124d 05       		.uleb128 0x5
 7403 124e 03       		.byte	0x3
 7404 124f B8030000 		.4byte	.LC123
 7405 1253 00       		.byte	0
 7406 1254 2C       		.uleb128 0x2c
 7407 1255 CC010000 		.4byte	.LVL158
 7408 1259 89320000 		.4byte	0x3289
 7409 125d 29       		.uleb128 0x29
 7410 125e D8010000 		.4byte	.LVL161
 7411 1262 96310000 		.4byte	0x3196
 7412 1266 7A120000 		.4byte	0x127a
 7413 126a 2A       		.uleb128 0x2a
 7414 126b 01       		.uleb128 0x1
 7415 126c 52       		.byte	0x52
 7416 126d 02       		.uleb128 0x2
 7417 126e 08       		.byte	0x8
 7418 126f 2D       		.byte	0x2d
 7419 1270 2A       		.uleb128 0x2a
 7420 1271 01       		.uleb128 0x1
 7421 1272 51       		.byte	0x51
 7422 1273 05       		.uleb128 0x5
 7423 1274 03       		.byte	0x3
 7424 1275 E7030000 		.4byte	.LC125
 7425 1279 00       		.byte	0
 7426 127a 2C       		.uleb128 0x2c
 7427 127b E8010000 		.4byte	.LVL164
 7428 127f 94320000 		.4byte	0x3294
 7429 1283 29       		.uleb128 0x29
 7430 1284 F4010000 		.4byte	.LVL167
 7431 1288 96310000 		.4byte	0x3196
 7432 128c A0120000 		.4byte	0x12a0
 7433 1290 2A       		.uleb128 0x2a
ARM GAS  C:\Users\SDEVAS~1\AppData\Local\Temp\ccPhqTSe.s 			page 154


 7434 1291 01       		.uleb128 0x1
 7435 1292 52       		.byte	0x52
 7436 1293 02       		.uleb128 0x2
 7437 1294 08       		.byte	0x8
 7438 1295 29       		.byte	0x29
 7439 1296 2A       		.uleb128 0x2a
 7440 1297 01       		.uleb128 0x1
 7441 1298 51       		.byte	0x51
 7442 1299 05       		.uleb128 0x5
 7443 129a 03       		.byte	0x3
 7444 129b 14040000 		.4byte	.LC127
 7445 129f 00       		.byte	0
 7446 12a0 2C       		.uleb128 0x2c
 7447 12a1 04020000 		.4byte	.LVL170
 7448 12a5 9F320000 		.4byte	0x329f
 7449 12a9 29       		.uleb128 0x29
 7450 12aa 10020000 		.4byte	.LVL173
 7451 12ae 96310000 		.4byte	0x3196
 7452 12b2 C6120000 		.4byte	0x12c6
 7453 12b6 2A       		.uleb128 0x2a
 7454 12b7 01       		.uleb128 0x1
 7455 12b8 52       		.byte	0x52
 7456 12b9 02       		.uleb128 0x2
 7457 12ba 08       		.byte	0x8
 7458 12bb 28       		.byte	0x28
 7459 12bc 2A       		.uleb128 0x2a
 7460 12bd 01       		.uleb128 0x1
 7461 12be 51       		.byte	0x51
 7462 12bf 05       		.uleb128 0x5
 7463 12c0 03       		.byte	0x3
 7464 12c1 3D040000 		.4byte	.LC129
 7465 12c5 00       		.byte	0
 7466 12c6 2C       		.uleb128 0x2c
 7467 12c7 20020000 		.4byte	.LVL176
 7468 12cb AA320000 		.4byte	0x32aa
 7469 12cf 29       		.uleb128 0x29
 7470 12d0 2C020000 		.4byte	.LVL179
 7471 12d4 96310000 		.4byte	0x3196
 7472 12d8 EC120000 		.4byte	0x12ec
 7473 12dc 2A       		.uleb128 0x2a
 7474 12dd 01       		.uleb128 0x1
 7475 12de 52       		.byte	0x52
 7476 12df 02       		.uleb128 0x2
 7477 12e0 08       		.byte	0x8
 7478 12e1 29       		.byte	0x29
 7479 12e2 2A       		.uleb128 0x2a
 7480 12e3 01       		.uleb128 0x1
 7481 12e4 51       		.byte	0x51
 7482 12e5 05       		.uleb128 0x5
 7483 12e6 03       		.byte	0x3
 7484 12e7 65040000 		.4byte	.LC131
 7485 12eb 00       		.byte	0
 7486 12ec 2C       		.uleb128 0x2c
 7487 12ed 3C020000 		.4byte	.LVL182
 7488 12f1 B5320000 		.4byte	0x32b5
 7489 12f5 29       		.uleb128 0x29
 7490 12f6 48020000 		.4byte	.LVL185
ARM GAS  C:\Users\SDEVAS~1\AppData\Local\Temp\ccPhqTSe.s 			page 155


 7491 12fa 96310000 		.4byte	0x3196
 7492 12fe 12130000 		.4byte	0x1312
 7493 1302 2A       		.uleb128 0x2a
 7494 1303 01       		.uleb128 0x1
 7495 1304 52       		.byte	0x52
 7496 1305 02       		.uleb128 0x2
 7497 1306 08       		.byte	0x8
 7498 1307 2B       		.byte	0x2b
 7499 1308 2A       		.uleb128 0x2a
 7500 1309 01       		.uleb128 0x1
 7501 130a 51       		.byte	0x51
 7502 130b 05       		.uleb128 0x5
 7503 130c 03       		.byte	0x3
 7504 130d 8E040000 		.4byte	.LC133
 7505 1311 00       		.byte	0
 7506 1312 2C       		.uleb128 0x2c
 7507 1313 58020000 		.4byte	.LVL188
 7508 1317 C0320000 		.4byte	0x32c0
 7509 131b 29       		.uleb128 0x29
 7510 131c 64020000 		.4byte	.LVL191
 7511 1320 96310000 		.4byte	0x3196
 7512 1324 38130000 		.4byte	0x1338
 7513 1328 2A       		.uleb128 0x2a
 7514 1329 01       		.uleb128 0x1
 7515 132a 52       		.byte	0x52
 7516 132b 02       		.uleb128 0x2
 7517 132c 08       		.byte	0x8
 7518 132d 26       		.byte	0x26
 7519 132e 2A       		.uleb128 0x2a
 7520 132f 01       		.uleb128 0x1
 7521 1330 51       		.byte	0x51
 7522 1331 05       		.uleb128 0x5
 7523 1332 03       		.byte	0x3
 7524 1333 B9040000 		.4byte	.LC135
 7525 1337 00       		.byte	0
 7526 1338 2C       		.uleb128 0x2c
 7527 1339 74020000 		.4byte	.LVL194
 7528 133d CB320000 		.4byte	0x32cb
 7529 1341 29       		.uleb128 0x29
 7530 1342 80020000 		.4byte	.LVL197
 7531 1346 96310000 		.4byte	0x3196
 7532 134a 5E130000 		.4byte	0x135e
 7533 134e 2A       		.uleb128 0x2a
 7534 134f 01       		.uleb128 0x1
 7535 1350 52       		.byte	0x52
 7536 1351 02       		.uleb128 0x2
 7537 1352 08       		.byte	0x8
 7538 1353 26       		.byte	0x26
 7539 1354 2A       		.uleb128 0x2a
 7540 1355 01       		.uleb128 0x1
 7541 1356 51       		.byte	0x51
 7542 1357 05       		.uleb128 0x5
 7543 1358 03       		.byte	0x3
 7544 1359 DF040000 		.4byte	.LC137
 7545 135d 00       		.byte	0
 7546 135e 2C       		.uleb128 0x2c
 7547 135f 90020000 		.4byte	.LVL200
ARM GAS  C:\Users\SDEVAS~1\AppData\Local\Temp\ccPhqTSe.s 			page 156


 7548 1363 D6320000 		.4byte	0x32d6
 7549 1367 29       		.uleb128 0x29
 7550 1368 9C020000 		.4byte	.LVL203
 7551 136c 96310000 		.4byte	0x3196
 7552 1370 84130000 		.4byte	0x1384
 7553 1374 2A       		.uleb128 0x2a
 7554 1375 01       		.uleb128 0x1
 7555 1376 52       		.byte	0x52
 7556 1377 02       		.uleb128 0x2
 7557 1378 08       		.byte	0x8
 7558 1379 32       		.byte	0x32
 7559 137a 2A       		.uleb128 0x2a
 7560 137b 01       		.uleb128 0x1
 7561 137c 51       		.byte	0x51
 7562 137d 05       		.uleb128 0x5
 7563 137e 03       		.byte	0x3
 7564 137f 05050000 		.4byte	.LC139
 7565 1383 00       		.byte	0
 7566 1384 2C       		.uleb128 0x2c
 7567 1385 AC020000 		.4byte	.LVL206
 7568 1389 E1320000 		.4byte	0x32e1
 7569 138d 29       		.uleb128 0x29
 7570 138e B8020000 		.4byte	.LVL209
 7571 1392 96310000 		.4byte	0x3196
 7572 1396 AA130000 		.4byte	0x13aa
 7573 139a 2A       		.uleb128 0x2a
 7574 139b 01       		.uleb128 0x1
 7575 139c 52       		.byte	0x52
 7576 139d 02       		.uleb128 0x2
 7577 139e 08       		.byte	0x8
 7578 139f 32       		.byte	0x32
 7579 13a0 2A       		.uleb128 0x2a
 7580 13a1 01       		.uleb128 0x1
 7581 13a2 51       		.byte	0x51
 7582 13a3 05       		.uleb128 0x5
 7583 13a4 03       		.byte	0x3
 7584 13a5 37050000 		.4byte	.LC141
 7585 13a9 00       		.byte	0
 7586 13aa 2C       		.uleb128 0x2c
 7587 13ab C8020000 		.4byte	.LVL212
 7588 13af F2320000 		.4byte	0x32f2
 7589 13b3 29       		.uleb128 0x29
 7590 13b4 D4020000 		.4byte	.LVL215
 7591 13b8 96310000 		.4byte	0x3196
 7592 13bc D0130000 		.4byte	0x13d0
 7593 13c0 2A       		.uleb128 0x2a
 7594 13c1 01       		.uleb128 0x1
 7595 13c2 52       		.byte	0x52
 7596 13c3 02       		.uleb128 0x2
 7597 13c4 08       		.byte	0x8
 7598 13c5 32       		.byte	0x32
 7599 13c6 2A       		.uleb128 0x2a
 7600 13c7 01       		.uleb128 0x1
 7601 13c8 51       		.byte	0x51
 7602 13c9 05       		.uleb128 0x5
 7603 13ca 03       		.byte	0x3
 7604 13cb 69050000 		.4byte	.LC143
ARM GAS  C:\Users\SDEVAS~1\AppData\Local\Temp\ccPhqTSe.s 			page 157


 7605 13cf 00       		.byte	0
 7606 13d0 2C       		.uleb128 0x2c
 7607 13d1 E4020000 		.4byte	.LVL218
 7608 13d5 FD320000 		.4byte	0x32fd
 7609 13d9 29       		.uleb128 0x29
 7610 13da F0020000 		.4byte	.LVL221
 7611 13de 96310000 		.4byte	0x3196
 7612 13e2 F6130000 		.4byte	0x13f6
 7613 13e6 2A       		.uleb128 0x2a
 7614 13e7 01       		.uleb128 0x1
 7615 13e8 52       		.byte	0x52
 7616 13e9 02       		.uleb128 0x2
 7617 13ea 08       		.byte	0x8
 7618 13eb 32       		.byte	0x32
 7619 13ec 2A       		.uleb128 0x2a
 7620 13ed 01       		.uleb128 0x1
 7621 13ee 51       		.byte	0x51
 7622 13ef 05       		.uleb128 0x5
 7623 13f0 03       		.byte	0x3
 7624 13f1 9B050000 		.4byte	.LC145
 7625 13f5 00       		.byte	0
 7626 13f6 2C       		.uleb128 0x2c
 7627 13f7 00030000 		.4byte	.LVL224
 7628 13fb 08330000 		.4byte	0x3308
 7629 13ff 29       		.uleb128 0x29
 7630 1400 0C030000 		.4byte	.LVL227
 7631 1404 96310000 		.4byte	0x3196
 7632 1408 1C140000 		.4byte	0x141c
 7633 140c 2A       		.uleb128 0x2a
 7634 140d 01       		.uleb128 0x1
 7635 140e 52       		.byte	0x52
 7636 140f 02       		.uleb128 0x2
 7637 1410 08       		.byte	0x8
 7638 1411 32       		.byte	0x32
 7639 1412 2A       		.uleb128 0x2a
 7640 1413 01       		.uleb128 0x1
 7641 1414 51       		.byte	0x51
 7642 1415 05       		.uleb128 0x5
 7643 1416 03       		.byte	0x3
 7644 1417 CD050000 		.4byte	.LC147
 7645 141b 00       		.byte	0
 7646 141c 2C       		.uleb128 0x2c
 7647 141d 1C030000 		.4byte	.LVL230
 7648 1421 13330000 		.4byte	0x3313
 7649 1425 29       		.uleb128 0x29
 7650 1426 28030000 		.4byte	.LVL233
 7651 142a 96310000 		.4byte	0x3196
 7652 142e 42140000 		.4byte	0x1442
 7653 1432 2A       		.uleb128 0x2a
 7654 1433 01       		.uleb128 0x1
 7655 1434 52       		.byte	0x52
 7656 1435 02       		.uleb128 0x2
 7657 1436 08       		.byte	0x8
 7658 1437 32       		.byte	0x32
 7659 1438 2A       		.uleb128 0x2a
 7660 1439 01       		.uleb128 0x1
 7661 143a 51       		.byte	0x51
ARM GAS  C:\Users\SDEVAS~1\AppData\Local\Temp\ccPhqTSe.s 			page 158


 7662 143b 05       		.uleb128 0x5
 7663 143c 03       		.byte	0x3
 7664 143d FF050000 		.4byte	.LC149
 7665 1441 00       		.byte	0
 7666 1442 2C       		.uleb128 0x2c
 7667 1443 38030000 		.4byte	.LVL236
 7668 1447 1E330000 		.4byte	0x331e
 7669 144b 29       		.uleb128 0x29
 7670 144c 44030000 		.4byte	.LVL239
 7671 1450 96310000 		.4byte	0x3196
 7672 1454 68140000 		.4byte	0x1468
 7673 1458 2A       		.uleb128 0x2a
 7674 1459 01       		.uleb128 0x1
 7675 145a 52       		.byte	0x52
 7676 145b 02       		.uleb128 0x2
 7677 145c 08       		.byte	0x8
 7678 145d 32       		.byte	0x32
 7679 145e 2A       		.uleb128 0x2a
 7680 145f 01       		.uleb128 0x1
 7681 1460 51       		.byte	0x51
 7682 1461 05       		.uleb128 0x5
 7683 1462 03       		.byte	0x3
 7684 1463 31060000 		.4byte	.LC151
 7685 1467 00       		.byte	0
 7686 1468 2C       		.uleb128 0x2c
 7687 1469 54030000 		.4byte	.LVL242
 7688 146d 29330000 		.4byte	0x3329
 7689 1471 29       		.uleb128 0x29
 7690 1472 60030000 		.4byte	.LVL245
 7691 1476 96310000 		.4byte	0x3196
 7692 147a 8E140000 		.4byte	0x148e
 7693 147e 2A       		.uleb128 0x2a
 7694 147f 01       		.uleb128 0x1
 7695 1480 52       		.byte	0x52
 7696 1481 02       		.uleb128 0x2
 7697 1482 08       		.byte	0x8
 7698 1483 32       		.byte	0x32
 7699 1484 2A       		.uleb128 0x2a
 7700 1485 01       		.uleb128 0x1
 7701 1486 51       		.byte	0x51
 7702 1487 05       		.uleb128 0x5
 7703 1488 03       		.byte	0x3
 7704 1489 63060000 		.4byte	.LC153
 7705 148d 00       		.byte	0
 7706 148e 2C       		.uleb128 0x2c
 7707 148f 70030000 		.4byte	.LVL248
 7708 1493 34330000 		.4byte	0x3334
 7709 1497 29       		.uleb128 0x29
 7710 1498 7C030000 		.4byte	.LVL251
 7711 149c 96310000 		.4byte	0x3196
 7712 14a0 B4140000 		.4byte	0x14b4
 7713 14a4 2A       		.uleb128 0x2a
 7714 14a5 01       		.uleb128 0x1
 7715 14a6 52       		.byte	0x52
 7716 14a7 02       		.uleb128 0x2
 7717 14a8 08       		.byte	0x8
 7718 14a9 32       		.byte	0x32
ARM GAS  C:\Users\SDEVAS~1\AppData\Local\Temp\ccPhqTSe.s 			page 159


 7719 14aa 2A       		.uleb128 0x2a
 7720 14ab 01       		.uleb128 0x1
 7721 14ac 51       		.byte	0x51
 7722 14ad 05       		.uleb128 0x5
 7723 14ae 03       		.byte	0x3
 7724 14af 95060000 		.4byte	.LC155
 7725 14b3 00       		.byte	0
 7726 14b4 2C       		.uleb128 0x2c
 7727 14b5 8C030000 		.4byte	.LVL254
 7728 14b9 3F330000 		.4byte	0x333f
 7729 14bd 29       		.uleb128 0x29
 7730 14be 0A040000 		.4byte	.LVL257
 7731 14c2 96310000 		.4byte	0x3196
 7732 14c6 DA140000 		.4byte	0x14da
 7733 14ca 2A       		.uleb128 0x2a
 7734 14cb 01       		.uleb128 0x1
 7735 14cc 52       		.byte	0x52
 7736 14cd 02       		.uleb128 0x2
 7737 14ce 08       		.byte	0x8
 7738 14cf 32       		.byte	0x32
 7739 14d0 2A       		.uleb128 0x2a
 7740 14d1 01       		.uleb128 0x1
 7741 14d2 51       		.byte	0x51
 7742 14d3 05       		.uleb128 0x5
 7743 14d4 03       		.byte	0x3
 7744 14d5 C7060000 		.4byte	.LC157
 7745 14d9 00       		.byte	0
 7746 14da 2C       		.uleb128 0x2c
 7747 14db 1A040000 		.4byte	.LVL260
 7748 14df 4A330000 		.4byte	0x334a
 7749 14e3 29       		.uleb128 0x29
 7750 14e4 24040000 		.4byte	.LVL261
 7751 14e8 55330000 		.4byte	0x3355
 7752 14ec FD140000 		.4byte	0x14fd
 7753 14f0 2A       		.uleb128 0x2a
 7754 14f1 01       		.uleb128 0x1
 7755 14f2 51       		.byte	0x51
 7756 14f3 02       		.uleb128 0x2
 7757 14f4 75       		.byte	0x75
 7758 14f5 00       		.sleb128 0
 7759 14f6 2A       		.uleb128 0x2a
 7760 14f7 01       		.uleb128 0x1
 7761 14f8 50       		.byte	0x50
 7762 14f9 02       		.uleb128 0x2
 7763 14fa 76       		.byte	0x76
 7764 14fb 00       		.sleb128 0
 7765 14fc 00       		.byte	0
 7766 14fd 29       		.uleb128 0x29
 7767 14fe 30040000 		.4byte	.LVL264
 7768 1502 96310000 		.4byte	0x3196
 7769 1506 1A150000 		.4byte	0x151a
 7770 150a 2A       		.uleb128 0x2a
 7771 150b 01       		.uleb128 0x1
 7772 150c 52       		.byte	0x52
 7773 150d 02       		.uleb128 0x2
 7774 150e 08       		.byte	0x8
 7775 150f 29       		.byte	0x29
ARM GAS  C:\Users\SDEVAS~1\AppData\Local\Temp\ccPhqTSe.s 			page 160


 7776 1510 2A       		.uleb128 0x2a
 7777 1511 01       		.uleb128 0x1
 7778 1512 51       		.byte	0x51
 7779 1513 05       		.uleb128 0x5
 7780 1514 03       		.byte	0x3
 7781 1515 F9060000 		.4byte	.LC159
 7782 1519 00       		.byte	0
 7783 151a 2C       		.uleb128 0x2c
 7784 151b 40040000 		.4byte	.LVL267
 7785 151f 74330000 		.4byte	0x3374
 7786 1523 29       		.uleb128 0x29
 7787 1524 4C040000 		.4byte	.LVL270
 7788 1528 96310000 		.4byte	0x3196
 7789 152c 40150000 		.4byte	0x1540
 7790 1530 2A       		.uleb128 0x2a
 7791 1531 01       		.uleb128 0x1
 7792 1532 52       		.byte	0x52
 7793 1533 02       		.uleb128 0x2
 7794 1534 08       		.byte	0x8
 7795 1535 28       		.byte	0x28
 7796 1536 2A       		.uleb128 0x2a
 7797 1537 01       		.uleb128 0x1
 7798 1538 51       		.byte	0x51
 7799 1539 05       		.uleb128 0x5
 7800 153a 03       		.byte	0x3
 7801 153b 22070000 		.4byte	.LC161
 7802 153f 00       		.byte	0
 7803 1540 2C       		.uleb128 0x2c
 7804 1541 5C040000 		.4byte	.LVL273
 7805 1545 7F330000 		.4byte	0x337f
 7806 1549 29       		.uleb128 0x29
 7807 154a 68040000 		.4byte	.LVL276
 7808 154e 96310000 		.4byte	0x3196
 7809 1552 66150000 		.4byte	0x1566
 7810 1556 2A       		.uleb128 0x2a
 7811 1557 01       		.uleb128 0x1
 7812 1558 52       		.byte	0x52
 7813 1559 02       		.uleb128 0x2
 7814 155a 08       		.byte	0x8
 7815 155b 2F       		.byte	0x2f
 7816 155c 2A       		.uleb128 0x2a
 7817 155d 01       		.uleb128 0x1
 7818 155e 51       		.byte	0x51
 7819 155f 05       		.uleb128 0x5
 7820 1560 03       		.byte	0x3
 7821 1561 4A070000 		.4byte	.LC163
 7822 1565 00       		.byte	0
 7823 1566 2C       		.uleb128 0x2c
 7824 1567 78040000 		.4byte	.LVL279
 7825 156b 8A330000 		.4byte	0x338a
 7826 156f 29       		.uleb128 0x29
 7827 1570 84040000 		.4byte	.LVL282
 7828 1574 96310000 		.4byte	0x3196
 7829 1578 8C150000 		.4byte	0x158c
 7830 157c 2A       		.uleb128 0x2a
 7831 157d 01       		.uleb128 0x1
 7832 157e 52       		.byte	0x52
ARM GAS  C:\Users\SDEVAS~1\AppData\Local\Temp\ccPhqTSe.s 			page 161


 7833 157f 02       		.uleb128 0x2
 7834 1580 08       		.byte	0x8
 7835 1581 2F       		.byte	0x2f
 7836 1582 2A       		.uleb128 0x2a
 7837 1583 01       		.uleb128 0x1
 7838 1584 51       		.byte	0x51
 7839 1585 05       		.uleb128 0x5
 7840 1586 03       		.byte	0x3
 7841 1587 79070000 		.4byte	.LC165
 7842 158b 00       		.byte	0
 7843 158c 2C       		.uleb128 0x2c
 7844 158d 94040000 		.4byte	.LVL285
 7845 1591 95330000 		.4byte	0x3395
 7846 1595 29       		.uleb128 0x29
 7847 1596 A0040000 		.4byte	.LVL288
 7848 159a 96310000 		.4byte	0x3196
 7849 159e B2150000 		.4byte	0x15b2
 7850 15a2 2A       		.uleb128 0x2a
 7851 15a3 01       		.uleb128 0x1
 7852 15a4 52       		.byte	0x52
 7853 15a5 02       		.uleb128 0x2
 7854 15a6 08       		.byte	0x8
 7855 15a7 2F       		.byte	0x2f
 7856 15a8 2A       		.uleb128 0x2a
 7857 15a9 01       		.uleb128 0x1
 7858 15aa 51       		.byte	0x51
 7859 15ab 05       		.uleb128 0x5
 7860 15ac 03       		.byte	0x3
 7861 15ad A8070000 		.4byte	.LC167
 7862 15b1 00       		.byte	0
 7863 15b2 2C       		.uleb128 0x2c
 7864 15b3 B0040000 		.4byte	.LVL291
 7865 15b7 A0330000 		.4byte	0x33a0
 7866 15bb 29       		.uleb128 0x29
 7867 15bc BC040000 		.4byte	.LVL294
 7868 15c0 96310000 		.4byte	0x3196
 7869 15c4 D8150000 		.4byte	0x15d8
 7870 15c8 2A       		.uleb128 0x2a
 7871 15c9 01       		.uleb128 0x1
 7872 15ca 52       		.byte	0x52
 7873 15cb 02       		.uleb128 0x2
 7874 15cc 08       		.byte	0x8
 7875 15cd 2F       		.byte	0x2f
 7876 15ce 2A       		.uleb128 0x2a
 7877 15cf 01       		.uleb128 0x1
 7878 15d0 51       		.byte	0x51
 7879 15d1 05       		.uleb128 0x5
 7880 15d2 03       		.byte	0x3
 7881 15d3 D7070000 		.4byte	.LC169
 7882 15d7 00       		.byte	0
 7883 15d8 2C       		.uleb128 0x2c
 7884 15d9 CC040000 		.4byte	.LVL297
 7885 15dd AB330000 		.4byte	0x33ab
 7886 15e1 29       		.uleb128 0x29
 7887 15e2 D8040000 		.4byte	.LVL300
 7888 15e6 96310000 		.4byte	0x3196
 7889 15ea FE150000 		.4byte	0x15fe
ARM GAS  C:\Users\SDEVAS~1\AppData\Local\Temp\ccPhqTSe.s 			page 162


 7890 15ee 2A       		.uleb128 0x2a
 7891 15ef 01       		.uleb128 0x1
 7892 15f0 52       		.byte	0x52
 7893 15f1 02       		.uleb128 0x2
 7894 15f2 08       		.byte	0x8
 7895 15f3 2C       		.byte	0x2c
 7896 15f4 2A       		.uleb128 0x2a
 7897 15f5 01       		.uleb128 0x1
 7898 15f6 51       		.byte	0x51
 7899 15f7 05       		.uleb128 0x5
 7900 15f8 03       		.byte	0x3
 7901 15f9 06080000 		.4byte	.LC171
 7902 15fd 00       		.byte	0
 7903 15fe 2C       		.uleb128 0x2c
 7904 15ff E8040000 		.4byte	.LVL303
 7905 1603 B6330000 		.4byte	0x33b6
 7906 1607 29       		.uleb128 0x29
 7907 1608 F4040000 		.4byte	.LVL306
 7908 160c 96310000 		.4byte	0x3196
 7909 1610 24160000 		.4byte	0x1624
 7910 1614 2A       		.uleb128 0x2a
 7911 1615 01       		.uleb128 0x1
 7912 1616 52       		.byte	0x52
 7913 1617 02       		.uleb128 0x2
 7914 1618 08       		.byte	0x8
 7915 1619 31       		.byte	0x31
 7916 161a 2A       		.uleb128 0x2a
 7917 161b 01       		.uleb128 0x1
 7918 161c 51       		.byte	0x51
 7919 161d 05       		.uleb128 0x5
 7920 161e 03       		.byte	0x3
 7921 161f 32080000 		.4byte	.LC173
 7922 1623 00       		.byte	0
 7923 1624 2C       		.uleb128 0x2c
 7924 1625 04050000 		.4byte	.LVL309
 7925 1629 C1330000 		.4byte	0x33c1
 7926 162d 29       		.uleb128 0x29
 7927 162e 10050000 		.4byte	.LVL312
 7928 1632 96310000 		.4byte	0x3196
 7929 1636 4A160000 		.4byte	0x164a
 7930 163a 2A       		.uleb128 0x2a
 7931 163b 01       		.uleb128 0x1
 7932 163c 52       		.byte	0x52
 7933 163d 02       		.uleb128 0x2
 7934 163e 08       		.byte	0x8
 7935 163f 28       		.byte	0x28
 7936 1640 2A       		.uleb128 0x2a
 7937 1641 01       		.uleb128 0x1
 7938 1642 51       		.byte	0x51
 7939 1643 05       		.uleb128 0x5
 7940 1644 03       		.byte	0x3
 7941 1645 63080000 		.4byte	.LC175
 7942 1649 00       		.byte	0
 7943 164a 2C       		.uleb128 0x2c
 7944 164b 20050000 		.4byte	.LVL315
 7945 164f CC330000 		.4byte	0x33cc
 7946 1653 29       		.uleb128 0x29
ARM GAS  C:\Users\SDEVAS~1\AppData\Local\Temp\ccPhqTSe.s 			page 163


 7947 1654 2A050000 		.4byte	.LVL316
 7948 1658 D7330000 		.4byte	0x33d7
 7949 165c 6D160000 		.4byte	0x166d
 7950 1660 2A       		.uleb128 0x2a
 7951 1661 01       		.uleb128 0x1
 7952 1662 51       		.byte	0x51
 7953 1663 02       		.uleb128 0x2
 7954 1664 75       		.byte	0x75
 7955 1665 00       		.sleb128 0
 7956 1666 2A       		.uleb128 0x2a
 7957 1667 01       		.uleb128 0x1
 7958 1668 50       		.byte	0x50
 7959 1669 02       		.uleb128 0x2
 7960 166a 76       		.byte	0x76
 7961 166b 00       		.sleb128 0
 7962 166c 00       		.byte	0
 7963 166d 2B       		.uleb128 0x2b
 7964 166e 52050000 		.4byte	.LVL318
 7965 1672 96310000 		.4byte	0x3196
 7966 1676 2A       		.uleb128 0x2a
 7967 1677 01       		.uleb128 0x1
 7968 1678 52       		.byte	0x52
 7969 1679 01       		.uleb128 0x1
 7970 167a 40       		.byte	0x40
 7971 167b 2A       		.uleb128 0x2a
 7972 167c 01       		.uleb128 0x1
 7973 167d 51       		.byte	0x51
 7974 167e 05       		.uleb128 0x5
 7975 167f 03       		.byte	0x3
 7976 1680 8B080000 		.4byte	.LC177
 7977 1684 00       		.byte	0
 7978 1685 00       		.byte	0
 7979 1686 2D       		.uleb128 0x2d
 7980 1687 A6050000 		.4byte	0x5a6
 7981 168b 00000000 		.4byte	.LFB62
 7982 168f B0050000 		.4byte	.LFE62-.LFB62
 7983 1693 01       		.uleb128 0x1
 7984 1694 9C       		.byte	0x9c
 7985 1695 BA210000 		.4byte	0x21ba
 7986 1699 2E       		.uleb128 0x2e
 7987 169a C3050000 		.4byte	0x5c3
 7988 169e 91090000 		.4byte	.LLST28
 7989 16a2 2E       		.uleb128 0x2e
 7990 16a3 DB050000 		.4byte	0x5db
 7991 16a7 B0090000 		.4byte	.LLST29
 7992 16ab 30       		.uleb128 0x30
 7993 16ac F3050000 		.4byte	0x5f3
 7994 16b0 80050000 		.4byte	.L184
 7995 16b4 31       		.uleb128 0x31
 7996 16b5 FB050000 		.4byte	0x5fb
 7997 16b9 CF090000 		.4byte	.LLST30
 7998 16bd 31       		.uleb128 0x31
 7999 16be 05060000 		.4byte	0x605
 8000 16c2 150A0000 		.4byte	.LLST31
 8001 16c6 31       		.uleb128 0x31
 8002 16c7 11060000 		.4byte	0x611
 8003 16cb 400A0000 		.4byte	.LLST32
ARM GAS  C:\Users\SDEVAS~1\AppData\Local\Temp\ccPhqTSe.s 			page 164


 8004 16cf 31       		.uleb128 0x31
 8005 16d0 1D060000 		.4byte	0x61d
 8006 16d4 530A0000 		.4byte	.LLST33
 8007 16d8 31       		.uleb128 0x31
 8008 16d9 29060000 		.4byte	0x629
 8009 16dd 710A0000 		.4byte	.LLST34
 8010 16e1 31       		.uleb128 0x31
 8011 16e2 35060000 		.4byte	0x635
 8012 16e6 840A0000 		.4byte	.LLST35
 8013 16ea 31       		.uleb128 0x31
 8014 16eb 41060000 		.4byte	0x641
 8015 16ef A20A0000 		.4byte	.LLST36
 8016 16f3 32       		.uleb128 0x32
 8017 16f4 E7050000 		.4byte	0x5e7
 8018 16f8 06       		.uleb128 0x6
 8019 16f9 FA       		.byte	0xfa
 8020 16fa E7050000 		.4byte	0x5e7
 8021 16fe 9F       		.byte	0x9f
 8022 16ff 32       		.uleb128 0x32
 8023 1700 CF050000 		.4byte	0x5cf
 8024 1704 06       		.uleb128 0x6
 8025 1705 FA       		.byte	0xfa
 8026 1706 CF050000 		.4byte	0x5cf
 8027 170a 9F       		.byte	0x9f
 8028 170b 32       		.uleb128 0x32
 8029 170c B7050000 		.4byte	0x5b7
 8030 1710 06       		.uleb128 0x6
 8031 1711 FA       		.byte	0xfa
 8032 1712 B7050000 		.4byte	0x5b7
 8033 1716 9F       		.byte	0x9f
 8034 1717 29       		.uleb128 0x29
 8035 1718 4C000000 		.4byte	.LVL323
 8036 171c 2F090000 		.4byte	0x92f
 8037 1720 3C170000 		.4byte	0x173c
 8038 1724 2A       		.uleb128 0x2a
 8039 1725 01       		.uleb128 0x1
 8040 1726 52       		.byte	0x52
 8041 1727 05       		.uleb128 0x5
 8042 1728 03       		.byte	0x3
 8043 1729 31020000 		.4byte	.LC102
 8044 172d 2A       		.uleb128 0x2a
 8045 172e 01       		.uleb128 0x1
 8046 172f 51       		.byte	0x51
 8047 1730 03       		.uleb128 0x3
 8048 1731 91       		.byte	0x91
 8049 1732 58       		.sleb128 -40
 8050 1733 06       		.byte	0x6
 8051 1734 2A       		.uleb128 0x2a
 8052 1735 01       		.uleb128 0x1
 8053 1736 50       		.byte	0x50
 8054 1737 03       		.uleb128 0x3
 8055 1738 91       		.byte	0x91
 8056 1739 50       		.sleb128 -48
 8057 173a 06       		.byte	0x6
 8058 173b 00       		.byte	0
 8059 173c 2C       		.uleb128 0x2c
 8060 173d 66000000 		.4byte	.LVL324
ARM GAS  C:\Users\SDEVAS~1\AppData\Local\Temp\ccPhqTSe.s 			page 165


 8061 1741 8B090000 		.4byte	0x98b
 8062 1745 29       		.uleb128 0x29
 8063 1746 74000000 		.4byte	.LVL327
 8064 174a 2F090000 		.4byte	0x92f
 8065 174e 6A170000 		.4byte	0x176a
 8066 1752 2A       		.uleb128 0x2a
 8067 1753 01       		.uleb128 0x1
 8068 1754 52       		.byte	0x52
 8069 1755 05       		.uleb128 0x5
 8070 1756 03       		.byte	0x3
 8071 1757 9B080000 		.4byte	.LC181
 8072 175b 2A       		.uleb128 0x2a
 8073 175c 01       		.uleb128 0x1
 8074 175d 51       		.byte	0x51
 8075 175e 03       		.uleb128 0x3
 8076 175f 91       		.byte	0x91
 8077 1760 58       		.sleb128 -40
 8078 1761 06       		.byte	0x6
 8079 1762 2A       		.uleb128 0x2a
 8080 1763 01       		.uleb128 0x1
 8081 1764 50       		.byte	0x50
 8082 1765 03       		.uleb128 0x3
 8083 1766 91       		.byte	0x91
 8084 1767 50       		.sleb128 -48
 8085 1768 06       		.byte	0x6
 8086 1769 00       		.byte	0
 8087 176a 29       		.uleb128 0x29
 8088 176b 96000000 		.4byte	.LVL331
 8089 176f 2F090000 		.4byte	0x92f
 8090 1773 8F170000 		.4byte	0x178f
 8091 1777 2A       		.uleb128 0x2a
 8092 1778 01       		.uleb128 0x1
 8093 1779 52       		.byte	0x52
 8094 177a 05       		.uleb128 0x5
 8095 177b 03       		.byte	0x3
 8096 177c 9D080000 		.4byte	.LC183
 8097 1780 2A       		.uleb128 0x2a
 8098 1781 01       		.uleb128 0x1
 8099 1782 51       		.byte	0x51
 8100 1783 03       		.uleb128 0x3
 8101 1784 91       		.byte	0x91
 8102 1785 58       		.sleb128 -40
 8103 1786 06       		.byte	0x6
 8104 1787 2A       		.uleb128 0x2a
 8105 1788 01       		.uleb128 0x1
 8106 1789 50       		.byte	0x50
 8107 178a 03       		.uleb128 0x3
 8108 178b 91       		.byte	0x91
 8109 178c 50       		.sleb128 -48
 8110 178d 06       		.byte	0x6
 8111 178e 00       		.byte	0
 8112 178f 29       		.uleb128 0x29
 8113 1790 B6000000 		.4byte	.LVL336
 8114 1794 FE060000 		.4byte	0x6fe
 8115 1798 AD170000 		.4byte	0x17ad
 8116 179c 2A       		.uleb128 0x2a
 8117 179d 01       		.uleb128 0x1
ARM GAS  C:\Users\SDEVAS~1\AppData\Local\Temp\ccPhqTSe.s 			page 166


 8118 179e 51       		.byte	0x51
 8119 179f 05       		.uleb128 0x5
 8120 17a0 91       		.byte	0x91
 8121 17a1 60       		.sleb128 -32
 8122 17a2 06       		.byte	0x6
 8123 17a3 23       		.byte	0x23
 8124 17a4 01       		.uleb128 0x1
 8125 17a5 2A       		.uleb128 0x2a
 8126 17a6 01       		.uleb128 0x1
 8127 17a7 50       		.byte	0x50
 8128 17a8 03       		.uleb128 0x3
 8129 17a9 91       		.byte	0x91
 8130 17aa 4C       		.sleb128 -52
 8131 17ab 06       		.byte	0x6
 8132 17ac 00       		.byte	0
 8133 17ad 29       		.uleb128 0x29
 8134 17ae 32010000 		.4byte	.LVL340
 8135 17b2 BA310000 		.4byte	0x31ba
 8136 17b6 D0170000 		.4byte	0x17d0
 8137 17ba 2A       		.uleb128 0x2a
 8138 17bb 01       		.uleb128 0x1
 8139 17bc 52       		.byte	0x52
 8140 17bd 02       		.uleb128 0x2
 8141 17be 77       		.byte	0x77
 8142 17bf 00       		.sleb128 0
 8143 17c0 2A       		.uleb128 0x2a
 8144 17c1 01       		.uleb128 0x1
 8145 17c2 51       		.byte	0x51
 8146 17c3 05       		.uleb128 0x5
 8147 17c4 03       		.byte	0x3
 8148 17c5 9F080000 		.4byte	.LC185
 8149 17c9 2A       		.uleb128 0x2a
 8150 17ca 01       		.uleb128 0x1
 8151 17cb 50       		.byte	0x50
 8152 17cc 02       		.uleb128 0x2
 8153 17cd 75       		.byte	0x75
 8154 17ce 00       		.sleb128 0
 8155 17cf 00       		.byte	0
 8156 17d0 29       		.uleb128 0x29
 8157 17d1 40010000 		.4byte	.LVL341
 8158 17d5 F6330000 		.4byte	0x33f6
 8159 17d9 EA170000 		.4byte	0x17ea
 8160 17dd 2A       		.uleb128 0x2a
 8161 17de 01       		.uleb128 0x1
 8162 17df 51       		.byte	0x51
 8163 17e0 02       		.uleb128 0x2
 8164 17e1 76       		.byte	0x76
 8165 17e2 00       		.sleb128 0
 8166 17e3 2A       		.uleb128 0x2a
 8167 17e4 01       		.uleb128 0x1
 8168 17e5 50       		.byte	0x50
 8169 17e6 02       		.uleb128 0x2
 8170 17e7 74       		.byte	0x74
 8171 17e8 00       		.sleb128 0
 8172 17e9 00       		.byte	0
 8173 17ea 2C       		.uleb128 0x2c
 8174 17eb 44010000 		.4byte	.LVL342
ARM GAS  C:\Users\SDEVAS~1\AppData\Local\Temp\ccPhqTSe.s 			page 167


 8175 17ef 10340000 		.4byte	0x3410
 8176 17f3 29       		.uleb128 0x29
 8177 17f4 50010000 		.4byte	.LVL344
 8178 17f8 BA310000 		.4byte	0x31ba
 8179 17fc 16180000 		.4byte	0x1816
 8180 1800 2A       		.uleb128 0x2a
 8181 1801 01       		.uleb128 0x1
 8182 1802 52       		.byte	0x52
 8183 1803 02       		.uleb128 0x2
 8184 1804 77       		.byte	0x77
 8185 1805 00       		.sleb128 0
 8186 1806 2A       		.uleb128 0x2a
 8187 1807 01       		.uleb128 0x1
 8188 1808 51       		.byte	0x51
 8189 1809 05       		.uleb128 0x5
 8190 180a 03       		.byte	0x3
 8191 180b 9F080000 		.4byte	.LC185
 8192 180f 2A       		.uleb128 0x2a
 8193 1810 01       		.uleb128 0x1
 8194 1811 50       		.byte	0x50
 8195 1812 02       		.uleb128 0x2
 8196 1813 75       		.byte	0x75
 8197 1814 00       		.sleb128 0
 8198 1815 00       		.byte	0
 8199 1816 29       		.uleb128 0x29
 8200 1817 5E010000 		.4byte	.LVL345
 8201 181b F6330000 		.4byte	0x33f6
 8202 181f 30180000 		.4byte	0x1830
 8203 1823 2A       		.uleb128 0x2a
 8204 1824 01       		.uleb128 0x1
 8205 1825 51       		.byte	0x51
 8206 1826 02       		.uleb128 0x2
 8207 1827 76       		.byte	0x76
 8208 1828 00       		.sleb128 0
 8209 1829 2A       		.uleb128 0x2a
 8210 182a 01       		.uleb128 0x1
 8211 182b 50       		.byte	0x50
 8212 182c 02       		.uleb128 0x2
 8213 182d 74       		.byte	0x74
 8214 182e 00       		.sleb128 0
 8215 182f 00       		.byte	0
 8216 1830 2C       		.uleb128 0x2c
 8217 1831 62010000 		.4byte	.LVL346
 8218 1835 21340000 		.4byte	0x3421
 8219 1839 29       		.uleb128 0x29
 8220 183a 6E010000 		.4byte	.LVL348
 8221 183e BA310000 		.4byte	0x31ba
 8222 1842 5C180000 		.4byte	0x185c
 8223 1846 2A       		.uleb128 0x2a
 8224 1847 01       		.uleb128 0x1
 8225 1848 52       		.byte	0x52
 8226 1849 02       		.uleb128 0x2
 8227 184a 77       		.byte	0x77
 8228 184b 00       		.sleb128 0
 8229 184c 2A       		.uleb128 0x2a
 8230 184d 01       		.uleb128 0x1
 8231 184e 51       		.byte	0x51
ARM GAS  C:\Users\SDEVAS~1\AppData\Local\Temp\ccPhqTSe.s 			page 168


 8232 184f 05       		.uleb128 0x5
 8233 1850 03       		.byte	0x3
 8234 1851 A1080000 		.4byte	.LC187
 8235 1855 2A       		.uleb128 0x2a
 8236 1856 01       		.uleb128 0x1
 8237 1857 50       		.byte	0x50
 8238 1858 02       		.uleb128 0x2
 8239 1859 75       		.byte	0x75
 8240 185a 00       		.sleb128 0
 8241 185b 00       		.byte	0
 8242 185c 29       		.uleb128 0x29
 8243 185d 7C010000 		.4byte	.LVL349
 8244 1861 32340000 		.4byte	0x3432
 8245 1865 76180000 		.4byte	0x1876
 8246 1869 2A       		.uleb128 0x2a
 8247 186a 01       		.uleb128 0x1
 8248 186b 51       		.byte	0x51
 8249 186c 02       		.uleb128 0x2
 8250 186d 76       		.byte	0x76
 8251 186e 00       		.sleb128 0
 8252 186f 2A       		.uleb128 0x2a
 8253 1870 01       		.uleb128 0x1
 8254 1871 50       		.byte	0x50
 8255 1872 02       		.uleb128 0x2
 8256 1873 74       		.byte	0x74
 8257 1874 00       		.sleb128 0
 8258 1875 00       		.byte	0
 8259 1876 2C       		.uleb128 0x2c
 8260 1877 80010000 		.4byte	.LVL350
 8261 187b 4C340000 		.4byte	0x344c
 8262 187f 29       		.uleb128 0x29
 8263 1880 8C010000 		.4byte	.LVL352
 8264 1884 BA310000 		.4byte	0x31ba
 8265 1888 A2180000 		.4byte	0x18a2
 8266 188c 2A       		.uleb128 0x2a
 8267 188d 01       		.uleb128 0x1
 8268 188e 52       		.byte	0x52
 8269 188f 02       		.uleb128 0x2
 8270 1890 77       		.byte	0x77
 8271 1891 00       		.sleb128 0
 8272 1892 2A       		.uleb128 0x2a
 8273 1893 01       		.uleb128 0x1
 8274 1894 51       		.byte	0x51
 8275 1895 05       		.uleb128 0x5
 8276 1896 03       		.byte	0x3
 8277 1897 9F080000 		.4byte	.LC185
 8278 189b 2A       		.uleb128 0x2a
 8279 189c 01       		.uleb128 0x1
 8280 189d 50       		.byte	0x50
 8281 189e 02       		.uleb128 0x2
 8282 189f 75       		.byte	0x75
 8283 18a0 00       		.sleb128 0
 8284 18a1 00       		.byte	0
 8285 18a2 29       		.uleb128 0x29
 8286 18a3 9A010000 		.4byte	.LVL353
 8287 18a7 F6330000 		.4byte	0x33f6
 8288 18ab BC180000 		.4byte	0x18bc
ARM GAS  C:\Users\SDEVAS~1\AppData\Local\Temp\ccPhqTSe.s 			page 169


 8289 18af 2A       		.uleb128 0x2a
 8290 18b0 01       		.uleb128 0x1
 8291 18b1 51       		.byte	0x51
 8292 18b2 02       		.uleb128 0x2
 8293 18b3 76       		.byte	0x76
 8294 18b4 00       		.sleb128 0
 8295 18b5 2A       		.uleb128 0x2a
 8296 18b6 01       		.uleb128 0x1
 8297 18b7 50       		.byte	0x50
 8298 18b8 02       		.uleb128 0x2
 8299 18b9 74       		.byte	0x74
 8300 18ba 00       		.sleb128 0
 8301 18bb 00       		.byte	0
 8302 18bc 2C       		.uleb128 0x2c
 8303 18bd 9E010000 		.4byte	.LVL354
 8304 18c1 5D340000 		.4byte	0x345d
 8305 18c5 29       		.uleb128 0x29
 8306 18c6 AA010000 		.4byte	.LVL356
 8307 18ca BA310000 		.4byte	0x31ba
 8308 18ce E8180000 		.4byte	0x18e8
 8309 18d2 2A       		.uleb128 0x2a
 8310 18d3 01       		.uleb128 0x1
 8311 18d4 52       		.byte	0x52
 8312 18d5 02       		.uleb128 0x2
 8313 18d6 77       		.byte	0x77
 8314 18d7 00       		.sleb128 0
 8315 18d8 2A       		.uleb128 0x2a
 8316 18d9 01       		.uleb128 0x1
 8317 18da 51       		.byte	0x51
 8318 18db 05       		.uleb128 0x5
 8319 18dc 03       		.byte	0x3
 8320 18dd 9F080000 		.4byte	.LC185
 8321 18e1 2A       		.uleb128 0x2a
 8322 18e2 01       		.uleb128 0x1
 8323 18e3 50       		.byte	0x50
 8324 18e4 02       		.uleb128 0x2
 8325 18e5 75       		.byte	0x75
 8326 18e6 00       		.sleb128 0
 8327 18e7 00       		.byte	0
 8328 18e8 29       		.uleb128 0x29
 8329 18e9 B8010000 		.4byte	.LVL357
 8330 18ed F6330000 		.4byte	0x33f6
 8331 18f1 02190000 		.4byte	0x1902
 8332 18f5 2A       		.uleb128 0x2a
 8333 18f6 01       		.uleb128 0x1
 8334 18f7 51       		.byte	0x51
 8335 18f8 02       		.uleb128 0x2
 8336 18f9 76       		.byte	0x76
 8337 18fa 00       		.sleb128 0
 8338 18fb 2A       		.uleb128 0x2a
 8339 18fc 01       		.uleb128 0x1
 8340 18fd 50       		.byte	0x50
 8341 18fe 02       		.uleb128 0x2
 8342 18ff 74       		.byte	0x74
 8343 1900 00       		.sleb128 0
 8344 1901 00       		.byte	0
 8345 1902 2C       		.uleb128 0x2c
ARM GAS  C:\Users\SDEVAS~1\AppData\Local\Temp\ccPhqTSe.s 			page 170


 8346 1903 BC010000 		.4byte	.LVL358
 8347 1907 6E340000 		.4byte	0x346e
 8348 190b 29       		.uleb128 0x29
 8349 190c C8010000 		.4byte	.LVL360
 8350 1910 BA310000 		.4byte	0x31ba
 8351 1914 2E190000 		.4byte	0x192e
 8352 1918 2A       		.uleb128 0x2a
 8353 1919 01       		.uleb128 0x1
 8354 191a 52       		.byte	0x52
 8355 191b 02       		.uleb128 0x2
 8356 191c 77       		.byte	0x77
 8357 191d 00       		.sleb128 0
 8358 191e 2A       		.uleb128 0x2a
 8359 191f 01       		.uleb128 0x1
 8360 1920 51       		.byte	0x51
 8361 1921 05       		.uleb128 0x5
 8362 1922 03       		.byte	0x3
 8363 1923 9F080000 		.4byte	.LC185
 8364 1927 2A       		.uleb128 0x2a
 8365 1928 01       		.uleb128 0x1
 8366 1929 50       		.byte	0x50
 8367 192a 02       		.uleb128 0x2
 8368 192b 75       		.byte	0x75
 8369 192c 00       		.sleb128 0
 8370 192d 00       		.byte	0
 8371 192e 29       		.uleb128 0x29
 8372 192f D6010000 		.4byte	.LVL361
 8373 1933 F6330000 		.4byte	0x33f6
 8374 1937 48190000 		.4byte	0x1948
 8375 193b 2A       		.uleb128 0x2a
 8376 193c 01       		.uleb128 0x1
 8377 193d 51       		.byte	0x51
 8378 193e 02       		.uleb128 0x2
 8379 193f 76       		.byte	0x76
 8380 1940 00       		.sleb128 0
 8381 1941 2A       		.uleb128 0x2a
 8382 1942 01       		.uleb128 0x1
 8383 1943 50       		.byte	0x50
 8384 1944 02       		.uleb128 0x2
 8385 1945 74       		.byte	0x74
 8386 1946 00       		.sleb128 0
 8387 1947 00       		.byte	0
 8388 1948 2C       		.uleb128 0x2c
 8389 1949 DA010000 		.4byte	.LVL362
 8390 194d 7F340000 		.4byte	0x347f
 8391 1951 29       		.uleb128 0x29
 8392 1952 E6010000 		.4byte	.LVL364
 8393 1956 BA310000 		.4byte	0x31ba
 8394 195a 74190000 		.4byte	0x1974
 8395 195e 2A       		.uleb128 0x2a
 8396 195f 01       		.uleb128 0x1
 8397 1960 52       		.byte	0x52
 8398 1961 02       		.uleb128 0x2
 8399 1962 77       		.byte	0x77
 8400 1963 00       		.sleb128 0
 8401 1964 2A       		.uleb128 0x2a
 8402 1965 01       		.uleb128 0x1
ARM GAS  C:\Users\SDEVAS~1\AppData\Local\Temp\ccPhqTSe.s 			page 171


 8403 1966 51       		.byte	0x51
 8404 1967 05       		.uleb128 0x5
 8405 1968 03       		.byte	0x3
 8406 1969 9F080000 		.4byte	.LC185
 8407 196d 2A       		.uleb128 0x2a
 8408 196e 01       		.uleb128 0x1
 8409 196f 50       		.byte	0x50
 8410 1970 02       		.uleb128 0x2
 8411 1971 75       		.byte	0x75
 8412 1972 00       		.sleb128 0
 8413 1973 00       		.byte	0
 8414 1974 29       		.uleb128 0x29
 8415 1975 F4010000 		.4byte	.LVL365
 8416 1979 F6330000 		.4byte	0x33f6
 8417 197d 8E190000 		.4byte	0x198e
 8418 1981 2A       		.uleb128 0x2a
 8419 1982 01       		.uleb128 0x1
 8420 1983 51       		.byte	0x51
 8421 1984 02       		.uleb128 0x2
 8422 1985 76       		.byte	0x76
 8423 1986 00       		.sleb128 0
 8424 1987 2A       		.uleb128 0x2a
 8425 1988 01       		.uleb128 0x1
 8426 1989 50       		.byte	0x50
 8427 198a 02       		.uleb128 0x2
 8428 198b 74       		.byte	0x74
 8429 198c 00       		.sleb128 0
 8430 198d 00       		.byte	0
 8431 198e 2C       		.uleb128 0x2c
 8432 198f F8010000 		.4byte	.LVL366
 8433 1993 90340000 		.4byte	0x3490
 8434 1997 29       		.uleb128 0x29
 8435 1998 04020000 		.4byte	.LVL368
 8436 199c BA310000 		.4byte	0x31ba
 8437 19a0 BA190000 		.4byte	0x19ba
 8438 19a4 2A       		.uleb128 0x2a
 8439 19a5 01       		.uleb128 0x1
 8440 19a6 52       		.byte	0x52
 8441 19a7 02       		.uleb128 0x2
 8442 19a8 77       		.byte	0x77
 8443 19a9 00       		.sleb128 0
 8444 19aa 2A       		.uleb128 0x2a
 8445 19ab 01       		.uleb128 0x1
 8446 19ac 51       		.byte	0x51
 8447 19ad 05       		.uleb128 0x5
 8448 19ae 03       		.byte	0x3
 8449 19af 9F080000 		.4byte	.LC185
 8450 19b3 2A       		.uleb128 0x2a
 8451 19b4 01       		.uleb128 0x1
 8452 19b5 50       		.byte	0x50
 8453 19b6 02       		.uleb128 0x2
 8454 19b7 75       		.byte	0x75
 8455 19b8 00       		.sleb128 0
 8456 19b9 00       		.byte	0
 8457 19ba 29       		.uleb128 0x29
 8458 19bb 12020000 		.4byte	.LVL369
 8459 19bf F6330000 		.4byte	0x33f6
ARM GAS  C:\Users\SDEVAS~1\AppData\Local\Temp\ccPhqTSe.s 			page 172


 8460 19c3 D4190000 		.4byte	0x19d4
 8461 19c7 2A       		.uleb128 0x2a
 8462 19c8 01       		.uleb128 0x1
 8463 19c9 51       		.byte	0x51
 8464 19ca 02       		.uleb128 0x2
 8465 19cb 76       		.byte	0x76
 8466 19cc 00       		.sleb128 0
 8467 19cd 2A       		.uleb128 0x2a
 8468 19ce 01       		.uleb128 0x1
 8469 19cf 50       		.byte	0x50
 8470 19d0 02       		.uleb128 0x2
 8471 19d1 74       		.byte	0x74
 8472 19d2 00       		.sleb128 0
 8473 19d3 00       		.byte	0
 8474 19d4 2C       		.uleb128 0x2c
 8475 19d5 16020000 		.4byte	.LVL370
 8476 19d9 A1340000 		.4byte	0x34a1
 8477 19dd 29       		.uleb128 0x29
 8478 19de 22020000 		.4byte	.LVL372
 8479 19e2 BA310000 		.4byte	0x31ba
 8480 19e6 001A0000 		.4byte	0x1a00
 8481 19ea 2A       		.uleb128 0x2a
 8482 19eb 01       		.uleb128 0x1
 8483 19ec 52       		.byte	0x52
 8484 19ed 02       		.uleb128 0x2
 8485 19ee 77       		.byte	0x77
 8486 19ef 00       		.sleb128 0
 8487 19f0 2A       		.uleb128 0x2a
 8488 19f1 01       		.uleb128 0x1
 8489 19f2 51       		.byte	0x51
 8490 19f3 05       		.uleb128 0x5
 8491 19f4 03       		.byte	0x3
 8492 19f5 9F080000 		.4byte	.LC185
 8493 19f9 2A       		.uleb128 0x2a
 8494 19fa 01       		.uleb128 0x1
 8495 19fb 50       		.byte	0x50
 8496 19fc 02       		.uleb128 0x2
 8497 19fd 75       		.byte	0x75
 8498 19fe 00       		.sleb128 0
 8499 19ff 00       		.byte	0
 8500 1a00 29       		.uleb128 0x29
 8501 1a01 30020000 		.4byte	.LVL373
 8502 1a05 F6330000 		.4byte	0x33f6
 8503 1a09 1A1A0000 		.4byte	0x1a1a
 8504 1a0d 2A       		.uleb128 0x2a
 8505 1a0e 01       		.uleb128 0x1
 8506 1a0f 51       		.byte	0x51
 8507 1a10 02       		.uleb128 0x2
 8508 1a11 76       		.byte	0x76
 8509 1a12 00       		.sleb128 0
 8510 1a13 2A       		.uleb128 0x2a
 8511 1a14 01       		.uleb128 0x1
 8512 1a15 50       		.byte	0x50
 8513 1a16 02       		.uleb128 0x2
 8514 1a17 74       		.byte	0x74
 8515 1a18 00       		.sleb128 0
 8516 1a19 00       		.byte	0
ARM GAS  C:\Users\SDEVAS~1\AppData\Local\Temp\ccPhqTSe.s 			page 173


 8517 1a1a 2C       		.uleb128 0x2c
 8518 1a1b 34020000 		.4byte	.LVL374
 8519 1a1f B2340000 		.4byte	0x34b2
 8520 1a23 29       		.uleb128 0x29
 8521 1a24 40020000 		.4byte	.LVL376
 8522 1a28 BA310000 		.4byte	0x31ba
 8523 1a2c 461A0000 		.4byte	0x1a46
 8524 1a30 2A       		.uleb128 0x2a
 8525 1a31 01       		.uleb128 0x1
 8526 1a32 52       		.byte	0x52
 8527 1a33 02       		.uleb128 0x2
 8528 1a34 77       		.byte	0x77
 8529 1a35 00       		.sleb128 0
 8530 1a36 2A       		.uleb128 0x2a
 8531 1a37 01       		.uleb128 0x1
 8532 1a38 51       		.byte	0x51
 8533 1a39 05       		.uleb128 0x5
 8534 1a3a 03       		.byte	0x3
 8535 1a3b 9F080000 		.4byte	.LC185
 8536 1a3f 2A       		.uleb128 0x2a
 8537 1a40 01       		.uleb128 0x1
 8538 1a41 50       		.byte	0x50
 8539 1a42 02       		.uleb128 0x2
 8540 1a43 75       		.byte	0x75
 8541 1a44 00       		.sleb128 0
 8542 1a45 00       		.byte	0
 8543 1a46 29       		.uleb128 0x29
 8544 1a47 4E020000 		.4byte	.LVL377
 8545 1a4b F6330000 		.4byte	0x33f6
 8546 1a4f 601A0000 		.4byte	0x1a60
 8547 1a53 2A       		.uleb128 0x2a
 8548 1a54 01       		.uleb128 0x1
 8549 1a55 51       		.byte	0x51
 8550 1a56 02       		.uleb128 0x2
 8551 1a57 76       		.byte	0x76
 8552 1a58 00       		.sleb128 0
 8553 1a59 2A       		.uleb128 0x2a
 8554 1a5a 01       		.uleb128 0x1
 8555 1a5b 50       		.byte	0x50
 8556 1a5c 02       		.uleb128 0x2
 8557 1a5d 74       		.byte	0x74
 8558 1a5e 00       		.sleb128 0
 8559 1a5f 00       		.byte	0
 8560 1a60 2C       		.uleb128 0x2c
 8561 1a61 52020000 		.4byte	.LVL378
 8562 1a65 C3340000 		.4byte	0x34c3
 8563 1a69 29       		.uleb128 0x29
 8564 1a6a 5E020000 		.4byte	.LVL380
 8565 1a6e BA310000 		.4byte	0x31ba
 8566 1a72 8C1A0000 		.4byte	0x1a8c
 8567 1a76 2A       		.uleb128 0x2a
 8568 1a77 01       		.uleb128 0x1
 8569 1a78 52       		.byte	0x52
 8570 1a79 02       		.uleb128 0x2
 8571 1a7a 77       		.byte	0x77
 8572 1a7b 00       		.sleb128 0
 8573 1a7c 2A       		.uleb128 0x2a
ARM GAS  C:\Users\SDEVAS~1\AppData\Local\Temp\ccPhqTSe.s 			page 174


 8574 1a7d 01       		.uleb128 0x1
 8575 1a7e 51       		.byte	0x51
 8576 1a7f 05       		.uleb128 0x5
 8577 1a80 03       		.byte	0x3
 8578 1a81 9F080000 		.4byte	.LC185
 8579 1a85 2A       		.uleb128 0x2a
 8580 1a86 01       		.uleb128 0x1
 8581 1a87 50       		.byte	0x50
 8582 1a88 02       		.uleb128 0x2
 8583 1a89 75       		.byte	0x75
 8584 1a8a 00       		.sleb128 0
 8585 1a8b 00       		.byte	0
 8586 1a8c 29       		.uleb128 0x29
 8587 1a8d 6C020000 		.4byte	.LVL381
 8588 1a91 F6330000 		.4byte	0x33f6
 8589 1a95 A61A0000 		.4byte	0x1aa6
 8590 1a99 2A       		.uleb128 0x2a
 8591 1a9a 01       		.uleb128 0x1
 8592 1a9b 51       		.byte	0x51
 8593 1a9c 02       		.uleb128 0x2
 8594 1a9d 76       		.byte	0x76
 8595 1a9e 00       		.sleb128 0
 8596 1a9f 2A       		.uleb128 0x2a
 8597 1aa0 01       		.uleb128 0x1
 8598 1aa1 50       		.byte	0x50
 8599 1aa2 02       		.uleb128 0x2
 8600 1aa3 74       		.byte	0x74
 8601 1aa4 00       		.sleb128 0
 8602 1aa5 00       		.byte	0
 8603 1aa6 2C       		.uleb128 0x2c
 8604 1aa7 70020000 		.4byte	.LVL382
 8605 1aab D4340000 		.4byte	0x34d4
 8606 1aaf 29       		.uleb128 0x29
 8607 1ab0 7C020000 		.4byte	.LVL384
 8608 1ab4 BA310000 		.4byte	0x31ba
 8609 1ab8 D21A0000 		.4byte	0x1ad2
 8610 1abc 2A       		.uleb128 0x2a
 8611 1abd 01       		.uleb128 0x1
 8612 1abe 52       		.byte	0x52
 8613 1abf 02       		.uleb128 0x2
 8614 1ac0 77       		.byte	0x77
 8615 1ac1 00       		.sleb128 0
 8616 1ac2 2A       		.uleb128 0x2a
 8617 1ac3 01       		.uleb128 0x1
 8618 1ac4 51       		.byte	0x51
 8619 1ac5 05       		.uleb128 0x5
 8620 1ac6 03       		.byte	0x3
 8621 1ac7 9F080000 		.4byte	.LC185
 8622 1acb 2A       		.uleb128 0x2a
 8623 1acc 01       		.uleb128 0x1
 8624 1acd 50       		.byte	0x50
 8625 1ace 02       		.uleb128 0x2
 8626 1acf 75       		.byte	0x75
 8627 1ad0 00       		.sleb128 0
 8628 1ad1 00       		.byte	0
 8629 1ad2 29       		.uleb128 0x29
 8630 1ad3 8A020000 		.4byte	.LVL385
ARM GAS  C:\Users\SDEVAS~1\AppData\Local\Temp\ccPhqTSe.s 			page 175


 8631 1ad7 F6330000 		.4byte	0x33f6
 8632 1adb EC1A0000 		.4byte	0x1aec
 8633 1adf 2A       		.uleb128 0x2a
 8634 1ae0 01       		.uleb128 0x1
 8635 1ae1 51       		.byte	0x51
 8636 1ae2 02       		.uleb128 0x2
 8637 1ae3 76       		.byte	0x76
 8638 1ae4 00       		.sleb128 0
 8639 1ae5 2A       		.uleb128 0x2a
 8640 1ae6 01       		.uleb128 0x1
 8641 1ae7 50       		.byte	0x50
 8642 1ae8 02       		.uleb128 0x2
 8643 1ae9 74       		.byte	0x74
 8644 1aea 00       		.sleb128 0
 8645 1aeb 00       		.byte	0
 8646 1aec 2C       		.uleb128 0x2c
 8647 1aed 8E020000 		.4byte	.LVL386
 8648 1af1 E5340000 		.4byte	0x34e5
 8649 1af5 29       		.uleb128 0x29
 8650 1af6 9A020000 		.4byte	.LVL388
 8651 1afa BA310000 		.4byte	0x31ba
 8652 1afe 181B0000 		.4byte	0x1b18
 8653 1b02 2A       		.uleb128 0x2a
 8654 1b03 01       		.uleb128 0x1
 8655 1b04 52       		.byte	0x52
 8656 1b05 02       		.uleb128 0x2
 8657 1b06 77       		.byte	0x77
 8658 1b07 00       		.sleb128 0
 8659 1b08 2A       		.uleb128 0x2a
 8660 1b09 01       		.uleb128 0x1
 8661 1b0a 51       		.byte	0x51
 8662 1b0b 05       		.uleb128 0x5
 8663 1b0c 03       		.byte	0x3
 8664 1b0d 9F080000 		.4byte	.LC185
 8665 1b11 2A       		.uleb128 0x2a
 8666 1b12 01       		.uleb128 0x1
 8667 1b13 50       		.byte	0x50
 8668 1b14 02       		.uleb128 0x2
 8669 1b15 75       		.byte	0x75
 8670 1b16 00       		.sleb128 0
 8671 1b17 00       		.byte	0
 8672 1b18 29       		.uleb128 0x29
 8673 1b19 A8020000 		.4byte	.LVL389
 8674 1b1d F6330000 		.4byte	0x33f6
 8675 1b21 321B0000 		.4byte	0x1b32
 8676 1b25 2A       		.uleb128 0x2a
 8677 1b26 01       		.uleb128 0x1
 8678 1b27 51       		.byte	0x51
 8679 1b28 02       		.uleb128 0x2
 8680 1b29 76       		.byte	0x76
 8681 1b2a 00       		.sleb128 0
 8682 1b2b 2A       		.uleb128 0x2a
 8683 1b2c 01       		.uleb128 0x1
 8684 1b2d 50       		.byte	0x50
 8685 1b2e 02       		.uleb128 0x2
 8686 1b2f 74       		.byte	0x74
 8687 1b30 00       		.sleb128 0
ARM GAS  C:\Users\SDEVAS~1\AppData\Local\Temp\ccPhqTSe.s 			page 176


 8688 1b31 00       		.byte	0
 8689 1b32 2C       		.uleb128 0x2c
 8690 1b33 AC020000 		.4byte	.LVL390
 8691 1b37 F6340000 		.4byte	0x34f6
 8692 1b3b 29       		.uleb128 0x29
 8693 1b3c B8020000 		.4byte	.LVL392
 8694 1b40 BA310000 		.4byte	0x31ba
 8695 1b44 5E1B0000 		.4byte	0x1b5e
 8696 1b48 2A       		.uleb128 0x2a
 8697 1b49 01       		.uleb128 0x1
 8698 1b4a 52       		.byte	0x52
 8699 1b4b 02       		.uleb128 0x2
 8700 1b4c 77       		.byte	0x77
 8701 1b4d 00       		.sleb128 0
 8702 1b4e 2A       		.uleb128 0x2a
 8703 1b4f 01       		.uleb128 0x1
 8704 1b50 51       		.byte	0x51
 8705 1b51 05       		.uleb128 0x5
 8706 1b52 03       		.byte	0x3
 8707 1b53 9F080000 		.4byte	.LC185
 8708 1b57 2A       		.uleb128 0x2a
 8709 1b58 01       		.uleb128 0x1
 8710 1b59 50       		.byte	0x50
 8711 1b5a 02       		.uleb128 0x2
 8712 1b5b 75       		.byte	0x75
 8713 1b5c 00       		.sleb128 0
 8714 1b5d 00       		.byte	0
 8715 1b5e 29       		.uleb128 0x29
 8716 1b5f C6020000 		.4byte	.LVL393
 8717 1b63 F6330000 		.4byte	0x33f6
 8718 1b67 781B0000 		.4byte	0x1b78
 8719 1b6b 2A       		.uleb128 0x2a
 8720 1b6c 01       		.uleb128 0x1
 8721 1b6d 51       		.byte	0x51
 8722 1b6e 02       		.uleb128 0x2
 8723 1b6f 76       		.byte	0x76
 8724 1b70 00       		.sleb128 0
 8725 1b71 2A       		.uleb128 0x2a
 8726 1b72 01       		.uleb128 0x1
 8727 1b73 50       		.byte	0x50
 8728 1b74 02       		.uleb128 0x2
 8729 1b75 74       		.byte	0x74
 8730 1b76 00       		.sleb128 0
 8731 1b77 00       		.byte	0
 8732 1b78 2C       		.uleb128 0x2c
 8733 1b79 CA020000 		.4byte	.LVL394
 8734 1b7d 07350000 		.4byte	0x3507
 8735 1b81 29       		.uleb128 0x29
 8736 1b82 D6020000 		.4byte	.LVL396
 8737 1b86 BA310000 		.4byte	0x31ba
 8738 1b8a A41B0000 		.4byte	0x1ba4
 8739 1b8e 2A       		.uleb128 0x2a
 8740 1b8f 01       		.uleb128 0x1
 8741 1b90 52       		.byte	0x52
 8742 1b91 02       		.uleb128 0x2
 8743 1b92 77       		.byte	0x77
 8744 1b93 00       		.sleb128 0
ARM GAS  C:\Users\SDEVAS~1\AppData\Local\Temp\ccPhqTSe.s 			page 177


 8745 1b94 2A       		.uleb128 0x2a
 8746 1b95 01       		.uleb128 0x1
 8747 1b96 51       		.byte	0x51
 8748 1b97 05       		.uleb128 0x5
 8749 1b98 03       		.byte	0x3
 8750 1b99 9F080000 		.4byte	.LC185
 8751 1b9d 2A       		.uleb128 0x2a
 8752 1b9e 01       		.uleb128 0x1
 8753 1b9f 50       		.byte	0x50
 8754 1ba0 02       		.uleb128 0x2
 8755 1ba1 75       		.byte	0x75
 8756 1ba2 00       		.sleb128 0
 8757 1ba3 00       		.byte	0
 8758 1ba4 29       		.uleb128 0x29
 8759 1ba5 E4020000 		.4byte	.LVL397
 8760 1ba9 F6330000 		.4byte	0x33f6
 8761 1bad BE1B0000 		.4byte	0x1bbe
 8762 1bb1 2A       		.uleb128 0x2a
 8763 1bb2 01       		.uleb128 0x1
 8764 1bb3 51       		.byte	0x51
 8765 1bb4 02       		.uleb128 0x2
 8766 1bb5 76       		.byte	0x76
 8767 1bb6 00       		.sleb128 0
 8768 1bb7 2A       		.uleb128 0x2a
 8769 1bb8 01       		.uleb128 0x1
 8770 1bb9 50       		.byte	0x50
 8771 1bba 02       		.uleb128 0x2
 8772 1bbb 74       		.byte	0x74
 8773 1bbc 00       		.sleb128 0
 8774 1bbd 00       		.byte	0
 8775 1bbe 2C       		.uleb128 0x2c
 8776 1bbf E8020000 		.4byte	.LVL398
 8777 1bc3 18350000 		.4byte	0x3518
 8778 1bc7 29       		.uleb128 0x29
 8779 1bc8 F4020000 		.4byte	.LVL400
 8780 1bcc BA310000 		.4byte	0x31ba
 8781 1bd0 EA1B0000 		.4byte	0x1bea
 8782 1bd4 2A       		.uleb128 0x2a
 8783 1bd5 01       		.uleb128 0x1
 8784 1bd6 52       		.byte	0x52
 8785 1bd7 02       		.uleb128 0x2
 8786 1bd8 77       		.byte	0x77
 8787 1bd9 00       		.sleb128 0
 8788 1bda 2A       		.uleb128 0x2a
 8789 1bdb 01       		.uleb128 0x1
 8790 1bdc 51       		.byte	0x51
 8791 1bdd 05       		.uleb128 0x5
 8792 1bde 03       		.byte	0x3
 8793 1bdf 9F080000 		.4byte	.LC185
 8794 1be3 2A       		.uleb128 0x2a
 8795 1be4 01       		.uleb128 0x1
 8796 1be5 50       		.byte	0x50
 8797 1be6 02       		.uleb128 0x2
 8798 1be7 75       		.byte	0x75
 8799 1be8 00       		.sleb128 0
 8800 1be9 00       		.byte	0
 8801 1bea 29       		.uleb128 0x29
ARM GAS  C:\Users\SDEVAS~1\AppData\Local\Temp\ccPhqTSe.s 			page 178


 8802 1beb 02030000 		.4byte	.LVL401
 8803 1bef F6330000 		.4byte	0x33f6
 8804 1bf3 041C0000 		.4byte	0x1c04
 8805 1bf7 2A       		.uleb128 0x2a
 8806 1bf8 01       		.uleb128 0x1
 8807 1bf9 51       		.byte	0x51
 8808 1bfa 02       		.uleb128 0x2
 8809 1bfb 76       		.byte	0x76
 8810 1bfc 00       		.sleb128 0
 8811 1bfd 2A       		.uleb128 0x2a
 8812 1bfe 01       		.uleb128 0x1
 8813 1bff 50       		.byte	0x50
 8814 1c00 02       		.uleb128 0x2
 8815 1c01 74       		.byte	0x74
 8816 1c02 00       		.sleb128 0
 8817 1c03 00       		.byte	0
 8818 1c04 2C       		.uleb128 0x2c
 8819 1c05 06030000 		.4byte	.LVL402
 8820 1c09 29350000 		.4byte	0x3529
 8821 1c0d 29       		.uleb128 0x29
 8822 1c0e 12030000 		.4byte	.LVL404
 8823 1c12 BA310000 		.4byte	0x31ba
 8824 1c16 301C0000 		.4byte	0x1c30
 8825 1c1a 2A       		.uleb128 0x2a
 8826 1c1b 01       		.uleb128 0x1
 8827 1c1c 52       		.byte	0x52
 8828 1c1d 02       		.uleb128 0x2
 8829 1c1e 77       		.byte	0x77
 8830 1c1f 00       		.sleb128 0
 8831 1c20 2A       		.uleb128 0x2a
 8832 1c21 01       		.uleb128 0x1
 8833 1c22 51       		.byte	0x51
 8834 1c23 05       		.uleb128 0x5
 8835 1c24 03       		.byte	0x3
 8836 1c25 9F080000 		.4byte	.LC185
 8837 1c29 2A       		.uleb128 0x2a
 8838 1c2a 01       		.uleb128 0x1
 8839 1c2b 50       		.byte	0x50
 8840 1c2c 02       		.uleb128 0x2
 8841 1c2d 75       		.byte	0x75
 8842 1c2e 00       		.sleb128 0
 8843 1c2f 00       		.byte	0
 8844 1c30 29       		.uleb128 0x29
 8845 1c31 20030000 		.4byte	.LVL405
 8846 1c35 F6330000 		.4byte	0x33f6
 8847 1c39 4A1C0000 		.4byte	0x1c4a
 8848 1c3d 2A       		.uleb128 0x2a
 8849 1c3e 01       		.uleb128 0x1
 8850 1c3f 51       		.byte	0x51
 8851 1c40 02       		.uleb128 0x2
 8852 1c41 76       		.byte	0x76
 8853 1c42 00       		.sleb128 0
 8854 1c43 2A       		.uleb128 0x2a
 8855 1c44 01       		.uleb128 0x1
 8856 1c45 50       		.byte	0x50
 8857 1c46 02       		.uleb128 0x2
 8858 1c47 74       		.byte	0x74
ARM GAS  C:\Users\SDEVAS~1\AppData\Local\Temp\ccPhqTSe.s 			page 179


 8859 1c48 00       		.sleb128 0
 8860 1c49 00       		.byte	0
 8861 1c4a 2C       		.uleb128 0x2c
 8862 1c4b 24030000 		.4byte	.LVL406
 8863 1c4f 3A350000 		.4byte	0x353a
 8864 1c53 29       		.uleb128 0x29
 8865 1c54 30030000 		.4byte	.LVL408
 8866 1c58 BA310000 		.4byte	0x31ba
 8867 1c5c 761C0000 		.4byte	0x1c76
 8868 1c60 2A       		.uleb128 0x2a
 8869 1c61 01       		.uleb128 0x1
 8870 1c62 52       		.byte	0x52
 8871 1c63 02       		.uleb128 0x2
 8872 1c64 77       		.byte	0x77
 8873 1c65 00       		.sleb128 0
 8874 1c66 2A       		.uleb128 0x2a
 8875 1c67 01       		.uleb128 0x1
 8876 1c68 51       		.byte	0x51
 8877 1c69 05       		.uleb128 0x5
 8878 1c6a 03       		.byte	0x3
 8879 1c6b A3080000 		.4byte	.LC189
 8880 1c6f 2A       		.uleb128 0x2a
 8881 1c70 01       		.uleb128 0x1
 8882 1c71 50       		.byte	0x50
 8883 1c72 02       		.uleb128 0x2
 8884 1c73 75       		.byte	0x75
 8885 1c74 00       		.sleb128 0
 8886 1c75 00       		.byte	0
 8887 1c76 29       		.uleb128 0x29
 8888 1c77 3E030000 		.4byte	.LVL409
 8889 1c7b 4B350000 		.4byte	0x354b
 8890 1c7f 901C0000 		.4byte	0x1c90
 8891 1c83 2A       		.uleb128 0x2a
 8892 1c84 01       		.uleb128 0x1
 8893 1c85 51       		.byte	0x51
 8894 1c86 02       		.uleb128 0x2
 8895 1c87 76       		.byte	0x76
 8896 1c88 00       		.sleb128 0
 8897 1c89 2A       		.uleb128 0x2a
 8898 1c8a 01       		.uleb128 0x1
 8899 1c8b 50       		.byte	0x50
 8900 1c8c 02       		.uleb128 0x2
 8901 1c8d 74       		.byte	0x74
 8902 1c8e 00       		.sleb128 0
 8903 1c8f 00       		.byte	0
 8904 1c90 2C       		.uleb128 0x2c
 8905 1c91 42030000 		.4byte	.LVL410
 8906 1c95 65350000 		.4byte	0x3565
 8907 1c99 29       		.uleb128 0x29
 8908 1c9a 4E030000 		.4byte	.LVL412
 8909 1c9e BA310000 		.4byte	0x31ba
 8910 1ca2 BC1C0000 		.4byte	0x1cbc
 8911 1ca6 2A       		.uleb128 0x2a
 8912 1ca7 01       		.uleb128 0x1
 8913 1ca8 52       		.byte	0x52
 8914 1ca9 02       		.uleb128 0x2
 8915 1caa 77       		.byte	0x77
ARM GAS  C:\Users\SDEVAS~1\AppData\Local\Temp\ccPhqTSe.s 			page 180


 8916 1cab 00       		.sleb128 0
 8917 1cac 2A       		.uleb128 0x2a
 8918 1cad 01       		.uleb128 0x1
 8919 1cae 51       		.byte	0x51
 8920 1caf 05       		.uleb128 0x5
 8921 1cb0 03       		.byte	0x3
 8922 1cb1 A3080000 		.4byte	.LC189
 8923 1cb5 2A       		.uleb128 0x2a
 8924 1cb6 01       		.uleb128 0x1
 8925 1cb7 50       		.byte	0x50
 8926 1cb8 02       		.uleb128 0x2
 8927 1cb9 75       		.byte	0x75
 8928 1cba 00       		.sleb128 0
 8929 1cbb 00       		.byte	0
 8930 1cbc 29       		.uleb128 0x29
 8931 1cbd 5C030000 		.4byte	.LVL413
 8932 1cc1 4B350000 		.4byte	0x354b
 8933 1cc5 D61C0000 		.4byte	0x1cd6
 8934 1cc9 2A       		.uleb128 0x2a
 8935 1cca 01       		.uleb128 0x1
 8936 1ccb 51       		.byte	0x51
 8937 1ccc 02       		.uleb128 0x2
 8938 1ccd 76       		.byte	0x76
 8939 1cce 00       		.sleb128 0
 8940 1ccf 2A       		.uleb128 0x2a
 8941 1cd0 01       		.uleb128 0x1
 8942 1cd1 50       		.byte	0x50
 8943 1cd2 02       		.uleb128 0x2
 8944 1cd3 74       		.byte	0x74
 8945 1cd4 00       		.sleb128 0
 8946 1cd5 00       		.byte	0
 8947 1cd6 2C       		.uleb128 0x2c
 8948 1cd7 60030000 		.4byte	.LVL414
 8949 1cdb 76350000 		.4byte	0x3576
 8950 1cdf 29       		.uleb128 0x29
 8951 1ce0 6C030000 		.4byte	.LVL416
 8952 1ce4 BA310000 		.4byte	0x31ba
 8953 1ce8 021D0000 		.4byte	0x1d02
 8954 1cec 2A       		.uleb128 0x2a
 8955 1ced 01       		.uleb128 0x1
 8956 1cee 52       		.byte	0x52
 8957 1cef 02       		.uleb128 0x2
 8958 1cf0 77       		.byte	0x77
 8959 1cf1 00       		.sleb128 0
 8960 1cf2 2A       		.uleb128 0x2a
 8961 1cf3 01       		.uleb128 0x1
 8962 1cf4 51       		.byte	0x51
 8963 1cf5 05       		.uleb128 0x5
 8964 1cf6 03       		.byte	0x3
 8965 1cf7 A3080000 		.4byte	.LC189
 8966 1cfb 2A       		.uleb128 0x2a
 8967 1cfc 01       		.uleb128 0x1
 8968 1cfd 50       		.byte	0x50
 8969 1cfe 02       		.uleb128 0x2
 8970 1cff 75       		.byte	0x75
 8971 1d00 00       		.sleb128 0
 8972 1d01 00       		.byte	0
ARM GAS  C:\Users\SDEVAS~1\AppData\Local\Temp\ccPhqTSe.s 			page 181


 8973 1d02 29       		.uleb128 0x29
 8974 1d03 7A030000 		.4byte	.LVL417
 8975 1d07 4B350000 		.4byte	0x354b
 8976 1d0b 1C1D0000 		.4byte	0x1d1c
 8977 1d0f 2A       		.uleb128 0x2a
 8978 1d10 01       		.uleb128 0x1
 8979 1d11 51       		.byte	0x51
 8980 1d12 02       		.uleb128 0x2
 8981 1d13 76       		.byte	0x76
 8982 1d14 00       		.sleb128 0
 8983 1d15 2A       		.uleb128 0x2a
 8984 1d16 01       		.uleb128 0x1
 8985 1d17 50       		.byte	0x50
 8986 1d18 02       		.uleb128 0x2
 8987 1d19 74       		.byte	0x74
 8988 1d1a 00       		.sleb128 0
 8989 1d1b 00       		.byte	0
 8990 1d1c 2C       		.uleb128 0x2c
 8991 1d1d 7E030000 		.4byte	.LVL418
 8992 1d21 87350000 		.4byte	0x3587
 8993 1d25 29       		.uleb128 0x29
 8994 1d26 A2030000 		.4byte	.LVL420
 8995 1d2a BA310000 		.4byte	0x31ba
 8996 1d2e 481D0000 		.4byte	0x1d48
 8997 1d32 2A       		.uleb128 0x2a
 8998 1d33 01       		.uleb128 0x1
 8999 1d34 52       		.byte	0x52
 9000 1d35 02       		.uleb128 0x2
 9001 1d36 77       		.byte	0x77
 9002 1d37 00       		.sleb128 0
 9003 1d38 2A       		.uleb128 0x2a
 9004 1d39 01       		.uleb128 0x1
 9005 1d3a 51       		.byte	0x51
 9006 1d3b 05       		.uleb128 0x5
 9007 1d3c 03       		.byte	0x3
 9008 1d3d A3080000 		.4byte	.LC189
 9009 1d41 2A       		.uleb128 0x2a
 9010 1d42 01       		.uleb128 0x1
 9011 1d43 50       		.byte	0x50
 9012 1d44 02       		.uleb128 0x2
 9013 1d45 75       		.byte	0x75
 9014 1d46 00       		.sleb128 0
 9015 1d47 00       		.byte	0
 9016 1d48 29       		.uleb128 0x29
 9017 1d49 B0030000 		.4byte	.LVL421
 9018 1d4d 4B350000 		.4byte	0x354b
 9019 1d51 621D0000 		.4byte	0x1d62
 9020 1d55 2A       		.uleb128 0x2a
 9021 1d56 01       		.uleb128 0x1
 9022 1d57 51       		.byte	0x51
 9023 1d58 02       		.uleb128 0x2
 9024 1d59 76       		.byte	0x76
 9025 1d5a 00       		.sleb128 0
 9026 1d5b 2A       		.uleb128 0x2a
 9027 1d5c 01       		.uleb128 0x1
 9028 1d5d 50       		.byte	0x50
 9029 1d5e 02       		.uleb128 0x2
ARM GAS  C:\Users\SDEVAS~1\AppData\Local\Temp\ccPhqTSe.s 			page 182


 9030 1d5f 74       		.byte	0x74
 9031 1d60 00       		.sleb128 0
 9032 1d61 00       		.byte	0
 9033 1d62 2C       		.uleb128 0x2c
 9034 1d63 B4030000 		.4byte	.LVL422
 9035 1d67 98350000 		.4byte	0x3598
 9036 1d6b 29       		.uleb128 0x29
 9037 1d6c C0030000 		.4byte	.LVL424
 9038 1d70 BA310000 		.4byte	0x31ba
 9039 1d74 8E1D0000 		.4byte	0x1d8e
 9040 1d78 2A       		.uleb128 0x2a
 9041 1d79 01       		.uleb128 0x1
 9042 1d7a 52       		.byte	0x52
 9043 1d7b 02       		.uleb128 0x2
 9044 1d7c 77       		.byte	0x77
 9045 1d7d 00       		.sleb128 0
 9046 1d7e 2A       		.uleb128 0x2a
 9047 1d7f 01       		.uleb128 0x1
 9048 1d80 51       		.byte	0x51
 9049 1d81 05       		.uleb128 0x5
 9050 1d82 03       		.byte	0x3
 9051 1d83 A3080000 		.4byte	.LC189
 9052 1d87 2A       		.uleb128 0x2a
 9053 1d88 01       		.uleb128 0x1
 9054 1d89 50       		.byte	0x50
 9055 1d8a 02       		.uleb128 0x2
 9056 1d8b 75       		.byte	0x75
 9057 1d8c 00       		.sleb128 0
 9058 1d8d 00       		.byte	0
 9059 1d8e 29       		.uleb128 0x29
 9060 1d8f CE030000 		.4byte	.LVL425
 9061 1d93 4B350000 		.4byte	0x354b
 9062 1d97 A81D0000 		.4byte	0x1da8
 9063 1d9b 2A       		.uleb128 0x2a
 9064 1d9c 01       		.uleb128 0x1
 9065 1d9d 51       		.byte	0x51
 9066 1d9e 02       		.uleb128 0x2
 9067 1d9f 76       		.byte	0x76
 9068 1da0 00       		.sleb128 0
 9069 1da1 2A       		.uleb128 0x2a
 9070 1da2 01       		.uleb128 0x1
 9071 1da3 50       		.byte	0x50
 9072 1da4 02       		.uleb128 0x2
 9073 1da5 74       		.byte	0x74
 9074 1da6 00       		.sleb128 0
 9075 1da7 00       		.byte	0
 9076 1da8 2C       		.uleb128 0x2c
 9077 1da9 D2030000 		.4byte	.LVL426
 9078 1dad A9350000 		.4byte	0x35a9
 9079 1db1 29       		.uleb128 0x29
 9080 1db2 DE030000 		.4byte	.LVL428
 9081 1db6 BA310000 		.4byte	0x31ba
 9082 1dba D41D0000 		.4byte	0x1dd4
 9083 1dbe 2A       		.uleb128 0x2a
 9084 1dbf 01       		.uleb128 0x1
 9085 1dc0 52       		.byte	0x52
 9086 1dc1 02       		.uleb128 0x2
ARM GAS  C:\Users\SDEVAS~1\AppData\Local\Temp\ccPhqTSe.s 			page 183


 9087 1dc2 77       		.byte	0x77
 9088 1dc3 00       		.sleb128 0
 9089 1dc4 2A       		.uleb128 0x2a
 9090 1dc5 01       		.uleb128 0x1
 9091 1dc6 51       		.byte	0x51
 9092 1dc7 05       		.uleb128 0x5
 9093 1dc8 03       		.byte	0x3
 9094 1dc9 A3080000 		.4byte	.LC189
 9095 1dcd 2A       		.uleb128 0x2a
 9096 1dce 01       		.uleb128 0x1
 9097 1dcf 50       		.byte	0x50
 9098 1dd0 02       		.uleb128 0x2
 9099 1dd1 75       		.byte	0x75
 9100 1dd2 00       		.sleb128 0
 9101 1dd3 00       		.byte	0
 9102 1dd4 29       		.uleb128 0x29
 9103 1dd5 EC030000 		.4byte	.LVL429
 9104 1dd9 4B350000 		.4byte	0x354b
 9105 1ddd EE1D0000 		.4byte	0x1dee
 9106 1de1 2A       		.uleb128 0x2a
 9107 1de2 01       		.uleb128 0x1
 9108 1de3 51       		.byte	0x51
 9109 1de4 02       		.uleb128 0x2
 9110 1de5 76       		.byte	0x76
 9111 1de6 00       		.sleb128 0
 9112 1de7 2A       		.uleb128 0x2a
 9113 1de8 01       		.uleb128 0x1
 9114 1de9 50       		.byte	0x50
 9115 1dea 02       		.uleb128 0x2
 9116 1deb 74       		.byte	0x74
 9117 1dec 00       		.sleb128 0
 9118 1ded 00       		.byte	0
 9119 1dee 2C       		.uleb128 0x2c
 9120 1def F0030000 		.4byte	.LVL430
 9121 1df3 BA350000 		.4byte	0x35ba
 9122 1df7 29       		.uleb128 0x29
 9123 1df8 FC030000 		.4byte	.LVL432
 9124 1dfc BA310000 		.4byte	0x31ba
 9125 1e00 1A1E0000 		.4byte	0x1e1a
 9126 1e04 2A       		.uleb128 0x2a
 9127 1e05 01       		.uleb128 0x1
 9128 1e06 52       		.byte	0x52
 9129 1e07 02       		.uleb128 0x2
 9130 1e08 77       		.byte	0x77
 9131 1e09 00       		.sleb128 0
 9132 1e0a 2A       		.uleb128 0x2a
 9133 1e0b 01       		.uleb128 0x1
 9134 1e0c 51       		.byte	0x51
 9135 1e0d 05       		.uleb128 0x5
 9136 1e0e 03       		.byte	0x3
 9137 1e0f A3080000 		.4byte	.LC189
 9138 1e13 2A       		.uleb128 0x2a
 9139 1e14 01       		.uleb128 0x1
 9140 1e15 50       		.byte	0x50
 9141 1e16 02       		.uleb128 0x2
 9142 1e17 75       		.byte	0x75
 9143 1e18 00       		.sleb128 0
ARM GAS  C:\Users\SDEVAS~1\AppData\Local\Temp\ccPhqTSe.s 			page 184


 9144 1e19 00       		.byte	0
 9145 1e1a 29       		.uleb128 0x29
 9146 1e1b 0A040000 		.4byte	.LVL433
 9147 1e1f 4B350000 		.4byte	0x354b
 9148 1e23 341E0000 		.4byte	0x1e34
 9149 1e27 2A       		.uleb128 0x2a
 9150 1e28 01       		.uleb128 0x1
 9151 1e29 51       		.byte	0x51
 9152 1e2a 02       		.uleb128 0x2
 9153 1e2b 76       		.byte	0x76
 9154 1e2c 00       		.sleb128 0
 9155 1e2d 2A       		.uleb128 0x2a
 9156 1e2e 01       		.uleb128 0x1
 9157 1e2f 50       		.byte	0x50
 9158 1e30 02       		.uleb128 0x2
 9159 1e31 74       		.byte	0x74
 9160 1e32 00       		.sleb128 0
 9161 1e33 00       		.byte	0
 9162 1e34 2C       		.uleb128 0x2c
 9163 1e35 0E040000 		.4byte	.LVL434
 9164 1e39 CB350000 		.4byte	0x35cb
 9165 1e3d 29       		.uleb128 0x29
 9166 1e3e 1A040000 		.4byte	.LVL436
 9167 1e42 BA310000 		.4byte	0x31ba
 9168 1e46 601E0000 		.4byte	0x1e60
 9169 1e4a 2A       		.uleb128 0x2a
 9170 1e4b 01       		.uleb128 0x1
 9171 1e4c 52       		.byte	0x52
 9172 1e4d 02       		.uleb128 0x2
 9173 1e4e 77       		.byte	0x77
 9174 1e4f 00       		.sleb128 0
 9175 1e50 2A       		.uleb128 0x2a
 9176 1e51 01       		.uleb128 0x1
 9177 1e52 51       		.byte	0x51
 9178 1e53 05       		.uleb128 0x5
 9179 1e54 03       		.byte	0x3
 9180 1e55 A3080000 		.4byte	.LC189
 9181 1e59 2A       		.uleb128 0x2a
 9182 1e5a 01       		.uleb128 0x1
 9183 1e5b 50       		.byte	0x50
 9184 1e5c 02       		.uleb128 0x2
 9185 1e5d 75       		.byte	0x75
 9186 1e5e 00       		.sleb128 0
 9187 1e5f 00       		.byte	0
 9188 1e60 29       		.uleb128 0x29
 9189 1e61 28040000 		.4byte	.LVL437
 9190 1e65 4B350000 		.4byte	0x354b
 9191 1e69 7A1E0000 		.4byte	0x1e7a
 9192 1e6d 2A       		.uleb128 0x2a
 9193 1e6e 01       		.uleb128 0x1
 9194 1e6f 51       		.byte	0x51
 9195 1e70 02       		.uleb128 0x2
 9196 1e71 76       		.byte	0x76
 9197 1e72 00       		.sleb128 0
 9198 1e73 2A       		.uleb128 0x2a
 9199 1e74 01       		.uleb128 0x1
 9200 1e75 50       		.byte	0x50
ARM GAS  C:\Users\SDEVAS~1\AppData\Local\Temp\ccPhqTSe.s 			page 185


 9201 1e76 02       		.uleb128 0x2
 9202 1e77 74       		.byte	0x74
 9203 1e78 00       		.sleb128 0
 9204 1e79 00       		.byte	0
 9205 1e7a 2C       		.uleb128 0x2c
 9206 1e7b 2C040000 		.4byte	.LVL438
 9207 1e7f DC350000 		.4byte	0x35dc
 9208 1e83 29       		.uleb128 0x29
 9209 1e84 38040000 		.4byte	.LVL440
 9210 1e88 BA310000 		.4byte	0x31ba
 9211 1e8c A61E0000 		.4byte	0x1ea6
 9212 1e90 2A       		.uleb128 0x2a
 9213 1e91 01       		.uleb128 0x1
 9214 1e92 52       		.byte	0x52
 9215 1e93 02       		.uleb128 0x2
 9216 1e94 77       		.byte	0x77
 9217 1e95 00       		.sleb128 0
 9218 1e96 2A       		.uleb128 0x2a
 9219 1e97 01       		.uleb128 0x1
 9220 1e98 51       		.byte	0x51
 9221 1e99 05       		.uleb128 0x5
 9222 1e9a 03       		.byte	0x3
 9223 1e9b A3080000 		.4byte	.LC189
 9224 1e9f 2A       		.uleb128 0x2a
 9225 1ea0 01       		.uleb128 0x1
 9226 1ea1 50       		.byte	0x50
 9227 1ea2 02       		.uleb128 0x2
 9228 1ea3 75       		.byte	0x75
 9229 1ea4 00       		.sleb128 0
 9230 1ea5 00       		.byte	0
 9231 1ea6 29       		.uleb128 0x29
 9232 1ea7 46040000 		.4byte	.LVL441
 9233 1eab 4B350000 		.4byte	0x354b
 9234 1eaf C01E0000 		.4byte	0x1ec0
 9235 1eb3 2A       		.uleb128 0x2a
 9236 1eb4 01       		.uleb128 0x1
 9237 1eb5 51       		.byte	0x51
 9238 1eb6 02       		.uleb128 0x2
 9239 1eb7 76       		.byte	0x76
 9240 1eb8 00       		.sleb128 0
 9241 1eb9 2A       		.uleb128 0x2a
 9242 1eba 01       		.uleb128 0x1
 9243 1ebb 50       		.byte	0x50
 9244 1ebc 02       		.uleb128 0x2
 9245 1ebd 74       		.byte	0x74
 9246 1ebe 00       		.sleb128 0
 9247 1ebf 00       		.byte	0
 9248 1ec0 2C       		.uleb128 0x2c
 9249 1ec1 4A040000 		.4byte	.LVL442
 9250 1ec5 ED350000 		.4byte	0x35ed
 9251 1ec9 29       		.uleb128 0x29
 9252 1eca 56040000 		.4byte	.LVL444
 9253 1ece BA310000 		.4byte	0x31ba
 9254 1ed2 EC1E0000 		.4byte	0x1eec
 9255 1ed6 2A       		.uleb128 0x2a
 9256 1ed7 01       		.uleb128 0x1
 9257 1ed8 52       		.byte	0x52
ARM GAS  C:\Users\SDEVAS~1\AppData\Local\Temp\ccPhqTSe.s 			page 186


 9258 1ed9 02       		.uleb128 0x2
 9259 1eda 77       		.byte	0x77
 9260 1edb 00       		.sleb128 0
 9261 1edc 2A       		.uleb128 0x2a
 9262 1edd 01       		.uleb128 0x1
 9263 1ede 51       		.byte	0x51
 9264 1edf 05       		.uleb128 0x5
 9265 1ee0 03       		.byte	0x3
 9266 1ee1 A3080000 		.4byte	.LC189
 9267 1ee5 2A       		.uleb128 0x2a
 9268 1ee6 01       		.uleb128 0x1
 9269 1ee7 50       		.byte	0x50
 9270 1ee8 02       		.uleb128 0x2
 9271 1ee9 75       		.byte	0x75
 9272 1eea 00       		.sleb128 0
 9273 1eeb 00       		.byte	0
 9274 1eec 29       		.uleb128 0x29
 9275 1eed 64040000 		.4byte	.LVL445
 9276 1ef1 4B350000 		.4byte	0x354b
 9277 1ef5 061F0000 		.4byte	0x1f06
 9278 1ef9 2A       		.uleb128 0x2a
 9279 1efa 01       		.uleb128 0x1
 9280 1efb 51       		.byte	0x51
 9281 1efc 02       		.uleb128 0x2
 9282 1efd 76       		.byte	0x76
 9283 1efe 00       		.sleb128 0
 9284 1eff 2A       		.uleb128 0x2a
 9285 1f00 01       		.uleb128 0x1
 9286 1f01 50       		.byte	0x50
 9287 1f02 02       		.uleb128 0x2
 9288 1f03 74       		.byte	0x74
 9289 1f04 00       		.sleb128 0
 9290 1f05 00       		.byte	0
 9291 1f06 2C       		.uleb128 0x2c
 9292 1f07 68040000 		.4byte	.LVL446
 9293 1f0b FE350000 		.4byte	0x35fe
 9294 1f0f 29       		.uleb128 0x29
 9295 1f10 74040000 		.4byte	.LVL448
 9296 1f14 BA310000 		.4byte	0x31ba
 9297 1f18 321F0000 		.4byte	0x1f32
 9298 1f1c 2A       		.uleb128 0x2a
 9299 1f1d 01       		.uleb128 0x1
 9300 1f1e 52       		.byte	0x52
 9301 1f1f 02       		.uleb128 0x2
 9302 1f20 77       		.byte	0x77
 9303 1f21 00       		.sleb128 0
 9304 1f22 2A       		.uleb128 0x2a
 9305 1f23 01       		.uleb128 0x1
 9306 1f24 51       		.byte	0x51
 9307 1f25 05       		.uleb128 0x5
 9308 1f26 03       		.byte	0x3
 9309 1f27 9F080000 		.4byte	.LC185
 9310 1f2b 2A       		.uleb128 0x2a
 9311 1f2c 01       		.uleb128 0x1
 9312 1f2d 50       		.byte	0x50
 9313 1f2e 02       		.uleb128 0x2
 9314 1f2f 75       		.byte	0x75
ARM GAS  C:\Users\SDEVAS~1\AppData\Local\Temp\ccPhqTSe.s 			page 187


 9315 1f30 00       		.sleb128 0
 9316 1f31 00       		.byte	0
 9317 1f32 29       		.uleb128 0x29
 9318 1f33 80040000 		.4byte	.LVL449
 9319 1f37 F6330000 		.4byte	0x33f6
 9320 1f3b 4C1F0000 		.4byte	0x1f4c
 9321 1f3f 2A       		.uleb128 0x2a
 9322 1f40 01       		.uleb128 0x1
 9323 1f41 51       		.byte	0x51
 9324 1f42 02       		.uleb128 0x2
 9325 1f43 76       		.byte	0x76
 9326 1f44 00       		.sleb128 0
 9327 1f45 2A       		.uleb128 0x2a
 9328 1f46 01       		.uleb128 0x1
 9329 1f47 50       		.byte	0x50
 9330 1f48 02       		.uleb128 0x2
 9331 1f49 74       		.byte	0x74
 9332 1f4a 00       		.sleb128 0
 9333 1f4b 00       		.byte	0
 9334 1f4c 2C       		.uleb128 0x2c
 9335 1f4d 84040000 		.4byte	.LVL450
 9336 1f51 0F360000 		.4byte	0x360f
 9337 1f55 29       		.uleb128 0x29
 9338 1f56 90040000 		.4byte	.LVL452
 9339 1f5a BA310000 		.4byte	0x31ba
 9340 1f5e 781F0000 		.4byte	0x1f78
 9341 1f62 2A       		.uleb128 0x2a
 9342 1f63 01       		.uleb128 0x1
 9343 1f64 52       		.byte	0x52
 9344 1f65 02       		.uleb128 0x2
 9345 1f66 77       		.byte	0x77
 9346 1f67 00       		.sleb128 0
 9347 1f68 2A       		.uleb128 0x2a
 9348 1f69 01       		.uleb128 0x1
 9349 1f6a 51       		.byte	0x51
 9350 1f6b 05       		.uleb128 0x5
 9351 1f6c 03       		.byte	0x3
 9352 1f6d 9F080000 		.4byte	.LC185
 9353 1f71 2A       		.uleb128 0x2a
 9354 1f72 01       		.uleb128 0x1
 9355 1f73 50       		.byte	0x50
 9356 1f74 02       		.uleb128 0x2
 9357 1f75 75       		.byte	0x75
 9358 1f76 00       		.sleb128 0
 9359 1f77 00       		.byte	0
 9360 1f78 29       		.uleb128 0x29
 9361 1f79 9C040000 		.4byte	.LVL453
 9362 1f7d F6330000 		.4byte	0x33f6
 9363 1f81 921F0000 		.4byte	0x1f92
 9364 1f85 2A       		.uleb128 0x2a
 9365 1f86 01       		.uleb128 0x1
 9366 1f87 51       		.byte	0x51
 9367 1f88 02       		.uleb128 0x2
 9368 1f89 76       		.byte	0x76
 9369 1f8a 00       		.sleb128 0
 9370 1f8b 2A       		.uleb128 0x2a
 9371 1f8c 01       		.uleb128 0x1
ARM GAS  C:\Users\SDEVAS~1\AppData\Local\Temp\ccPhqTSe.s 			page 188


 9372 1f8d 50       		.byte	0x50
 9373 1f8e 02       		.uleb128 0x2
 9374 1f8f 74       		.byte	0x74
 9375 1f90 00       		.sleb128 0
 9376 1f91 00       		.byte	0
 9377 1f92 2C       		.uleb128 0x2c
 9378 1f93 A0040000 		.4byte	.LVL454
 9379 1f97 20360000 		.4byte	0x3620
 9380 1f9b 29       		.uleb128 0x29
 9381 1f9c AC040000 		.4byte	.LVL456
 9382 1fa0 BA310000 		.4byte	0x31ba
 9383 1fa4 BE1F0000 		.4byte	0x1fbe
 9384 1fa8 2A       		.uleb128 0x2a
 9385 1fa9 01       		.uleb128 0x1
 9386 1faa 52       		.byte	0x52
 9387 1fab 02       		.uleb128 0x2
 9388 1fac 77       		.byte	0x77
 9389 1fad 00       		.sleb128 0
 9390 1fae 2A       		.uleb128 0x2a
 9391 1faf 01       		.uleb128 0x1
 9392 1fb0 51       		.byte	0x51
 9393 1fb1 05       		.uleb128 0x5
 9394 1fb2 03       		.byte	0x3
 9395 1fb3 9F080000 		.4byte	.LC185
 9396 1fb7 2A       		.uleb128 0x2a
 9397 1fb8 01       		.uleb128 0x1
 9398 1fb9 50       		.byte	0x50
 9399 1fba 02       		.uleb128 0x2
 9400 1fbb 75       		.byte	0x75
 9401 1fbc 00       		.sleb128 0
 9402 1fbd 00       		.byte	0
 9403 1fbe 29       		.uleb128 0x29
 9404 1fbf B8040000 		.4byte	.LVL457
 9405 1fc3 F6330000 		.4byte	0x33f6
 9406 1fc7 D81F0000 		.4byte	0x1fd8
 9407 1fcb 2A       		.uleb128 0x2a
 9408 1fcc 01       		.uleb128 0x1
 9409 1fcd 51       		.byte	0x51
 9410 1fce 02       		.uleb128 0x2
 9411 1fcf 76       		.byte	0x76
 9412 1fd0 00       		.sleb128 0
 9413 1fd1 2A       		.uleb128 0x2a
 9414 1fd2 01       		.uleb128 0x1
 9415 1fd3 50       		.byte	0x50
 9416 1fd4 02       		.uleb128 0x2
 9417 1fd5 74       		.byte	0x74
 9418 1fd6 00       		.sleb128 0
 9419 1fd7 00       		.byte	0
 9420 1fd8 2C       		.uleb128 0x2c
 9421 1fd9 BC040000 		.4byte	.LVL458
 9422 1fdd 31360000 		.4byte	0x3631
 9423 1fe1 29       		.uleb128 0x29
 9424 1fe2 C8040000 		.4byte	.LVL460
 9425 1fe6 BA310000 		.4byte	0x31ba
 9426 1fea 04200000 		.4byte	0x2004
 9427 1fee 2A       		.uleb128 0x2a
 9428 1fef 01       		.uleb128 0x1
ARM GAS  C:\Users\SDEVAS~1\AppData\Local\Temp\ccPhqTSe.s 			page 189


 9429 1ff0 52       		.byte	0x52
 9430 1ff1 02       		.uleb128 0x2
 9431 1ff2 77       		.byte	0x77
 9432 1ff3 00       		.sleb128 0
 9433 1ff4 2A       		.uleb128 0x2a
 9434 1ff5 01       		.uleb128 0x1
 9435 1ff6 51       		.byte	0x51
 9436 1ff7 05       		.uleb128 0x5
 9437 1ff8 03       		.byte	0x3
 9438 1ff9 9F080000 		.4byte	.LC185
 9439 1ffd 2A       		.uleb128 0x2a
 9440 1ffe 01       		.uleb128 0x1
 9441 1fff 50       		.byte	0x50
 9442 2000 02       		.uleb128 0x2
 9443 2001 75       		.byte	0x75
 9444 2002 00       		.sleb128 0
 9445 2003 00       		.byte	0
 9446 2004 29       		.uleb128 0x29
 9447 2005 D4040000 		.4byte	.LVL461
 9448 2009 F6330000 		.4byte	0x33f6
 9449 200d 1E200000 		.4byte	0x201e
 9450 2011 2A       		.uleb128 0x2a
 9451 2012 01       		.uleb128 0x1
 9452 2013 51       		.byte	0x51
 9453 2014 02       		.uleb128 0x2
 9454 2015 76       		.byte	0x76
 9455 2016 00       		.sleb128 0
 9456 2017 2A       		.uleb128 0x2a
 9457 2018 01       		.uleb128 0x1
 9458 2019 50       		.byte	0x50
 9459 201a 02       		.uleb128 0x2
 9460 201b 74       		.byte	0x74
 9461 201c 00       		.sleb128 0
 9462 201d 00       		.byte	0
 9463 201e 2C       		.uleb128 0x2c
 9464 201f D8040000 		.4byte	.LVL462
 9465 2023 42360000 		.4byte	0x3642
 9466 2027 29       		.uleb128 0x29
 9467 2028 E4040000 		.4byte	.LVL464
 9468 202c BA310000 		.4byte	0x31ba
 9469 2030 4A200000 		.4byte	0x204a
 9470 2034 2A       		.uleb128 0x2a
 9471 2035 01       		.uleb128 0x1
 9472 2036 52       		.byte	0x52
 9473 2037 02       		.uleb128 0x2
 9474 2038 77       		.byte	0x77
 9475 2039 00       		.sleb128 0
 9476 203a 2A       		.uleb128 0x2a
 9477 203b 01       		.uleb128 0x1
 9478 203c 51       		.byte	0x51
 9479 203d 05       		.uleb128 0x5
 9480 203e 03       		.byte	0x3
 9481 203f 9F080000 		.4byte	.LC185
 9482 2043 2A       		.uleb128 0x2a
 9483 2044 01       		.uleb128 0x1
 9484 2045 50       		.byte	0x50
 9485 2046 02       		.uleb128 0x2
ARM GAS  C:\Users\SDEVAS~1\AppData\Local\Temp\ccPhqTSe.s 			page 190


 9486 2047 75       		.byte	0x75
 9487 2048 00       		.sleb128 0
 9488 2049 00       		.byte	0
 9489 204a 29       		.uleb128 0x29
 9490 204b F0040000 		.4byte	.LVL465
 9491 204f F6330000 		.4byte	0x33f6
 9492 2053 64200000 		.4byte	0x2064
 9493 2057 2A       		.uleb128 0x2a
 9494 2058 01       		.uleb128 0x1
 9495 2059 51       		.byte	0x51
 9496 205a 02       		.uleb128 0x2
 9497 205b 76       		.byte	0x76
 9498 205c 00       		.sleb128 0
 9499 205d 2A       		.uleb128 0x2a
 9500 205e 01       		.uleb128 0x1
 9501 205f 50       		.byte	0x50
 9502 2060 02       		.uleb128 0x2
 9503 2061 74       		.byte	0x74
 9504 2062 00       		.sleb128 0
 9505 2063 00       		.byte	0
 9506 2064 2C       		.uleb128 0x2c
 9507 2065 F4040000 		.4byte	.LVL466
 9508 2069 53360000 		.4byte	0x3653
 9509 206d 29       		.uleb128 0x29
 9510 206e 00050000 		.4byte	.LVL468
 9511 2072 BA310000 		.4byte	0x31ba
 9512 2076 90200000 		.4byte	0x2090
 9513 207a 2A       		.uleb128 0x2a
 9514 207b 01       		.uleb128 0x1
 9515 207c 52       		.byte	0x52
 9516 207d 02       		.uleb128 0x2
 9517 207e 77       		.byte	0x77
 9518 207f 00       		.sleb128 0
 9519 2080 2A       		.uleb128 0x2a
 9520 2081 01       		.uleb128 0x1
 9521 2082 51       		.byte	0x51
 9522 2083 05       		.uleb128 0x5
 9523 2084 03       		.byte	0x3
 9524 2085 9F080000 		.4byte	.LC185
 9525 2089 2A       		.uleb128 0x2a
 9526 208a 01       		.uleb128 0x1
 9527 208b 50       		.byte	0x50
 9528 208c 02       		.uleb128 0x2
 9529 208d 75       		.byte	0x75
 9530 208e 00       		.sleb128 0
 9531 208f 00       		.byte	0
 9532 2090 29       		.uleb128 0x29
 9533 2091 0C050000 		.4byte	.LVL469
 9534 2095 F6330000 		.4byte	0x33f6
 9535 2099 AA200000 		.4byte	0x20aa
 9536 209d 2A       		.uleb128 0x2a
 9537 209e 01       		.uleb128 0x1
 9538 209f 51       		.byte	0x51
 9539 20a0 02       		.uleb128 0x2
 9540 20a1 76       		.byte	0x76
 9541 20a2 00       		.sleb128 0
 9542 20a3 2A       		.uleb128 0x2a
ARM GAS  C:\Users\SDEVAS~1\AppData\Local\Temp\ccPhqTSe.s 			page 191


 9543 20a4 01       		.uleb128 0x1
 9544 20a5 50       		.byte	0x50
 9545 20a6 02       		.uleb128 0x2
 9546 20a7 74       		.byte	0x74
 9547 20a8 00       		.sleb128 0
 9548 20a9 00       		.byte	0
 9549 20aa 2C       		.uleb128 0x2c
 9550 20ab 10050000 		.4byte	.LVL470
 9551 20af 64360000 		.4byte	0x3664
 9552 20b3 29       		.uleb128 0x29
 9553 20b4 1C050000 		.4byte	.LVL472
 9554 20b8 BA310000 		.4byte	0x31ba
 9555 20bc D6200000 		.4byte	0x20d6
 9556 20c0 2A       		.uleb128 0x2a
 9557 20c1 01       		.uleb128 0x1
 9558 20c2 52       		.byte	0x52
 9559 20c3 02       		.uleb128 0x2
 9560 20c4 77       		.byte	0x77
 9561 20c5 00       		.sleb128 0
 9562 20c6 2A       		.uleb128 0x2a
 9563 20c7 01       		.uleb128 0x1
 9564 20c8 51       		.byte	0x51
 9565 20c9 05       		.uleb128 0x5
 9566 20ca 03       		.byte	0x3
 9567 20cb 9F080000 		.4byte	.LC185
 9568 20cf 2A       		.uleb128 0x2a
 9569 20d0 01       		.uleb128 0x1
 9570 20d1 50       		.byte	0x50
 9571 20d2 02       		.uleb128 0x2
 9572 20d3 75       		.byte	0x75
 9573 20d4 00       		.sleb128 0
 9574 20d5 00       		.byte	0
 9575 20d6 29       		.uleb128 0x29
 9576 20d7 28050000 		.4byte	.LVL473
 9577 20db F6330000 		.4byte	0x33f6
 9578 20df F0200000 		.4byte	0x20f0
 9579 20e3 2A       		.uleb128 0x2a
 9580 20e4 01       		.uleb128 0x1
 9581 20e5 51       		.byte	0x51
 9582 20e6 02       		.uleb128 0x2
 9583 20e7 76       		.byte	0x76
 9584 20e8 00       		.sleb128 0
 9585 20e9 2A       		.uleb128 0x2a
 9586 20ea 01       		.uleb128 0x1
 9587 20eb 50       		.byte	0x50
 9588 20ec 02       		.uleb128 0x2
 9589 20ed 74       		.byte	0x74
 9590 20ee 00       		.sleb128 0
 9591 20ef 00       		.byte	0
 9592 20f0 2C       		.uleb128 0x2c
 9593 20f1 2C050000 		.4byte	.LVL474
 9594 20f5 75360000 		.4byte	0x3675
 9595 20f9 29       		.uleb128 0x29
 9596 20fa 38050000 		.4byte	.LVL476
 9597 20fe BA310000 		.4byte	0x31ba
 9598 2102 1C210000 		.4byte	0x211c
 9599 2106 2A       		.uleb128 0x2a
ARM GAS  C:\Users\SDEVAS~1\AppData\Local\Temp\ccPhqTSe.s 			page 192


 9600 2107 01       		.uleb128 0x1
 9601 2108 52       		.byte	0x52
 9602 2109 02       		.uleb128 0x2
 9603 210a 77       		.byte	0x77
 9604 210b 00       		.sleb128 0
 9605 210c 2A       		.uleb128 0x2a
 9606 210d 01       		.uleb128 0x1
 9607 210e 51       		.byte	0x51
 9608 210f 05       		.uleb128 0x5
 9609 2110 03       		.byte	0x3
 9610 2111 9F080000 		.4byte	.LC185
 9611 2115 2A       		.uleb128 0x2a
 9612 2116 01       		.uleb128 0x1
 9613 2117 50       		.byte	0x50
 9614 2118 02       		.uleb128 0x2
 9615 2119 75       		.byte	0x75
 9616 211a 00       		.sleb128 0
 9617 211b 00       		.byte	0
 9618 211c 29       		.uleb128 0x29
 9619 211d 44050000 		.4byte	.LVL477
 9620 2121 F6330000 		.4byte	0x33f6
 9621 2125 36210000 		.4byte	0x2136
 9622 2129 2A       		.uleb128 0x2a
 9623 212a 01       		.uleb128 0x1
 9624 212b 51       		.byte	0x51
 9625 212c 02       		.uleb128 0x2
 9626 212d 76       		.byte	0x76
 9627 212e 00       		.sleb128 0
 9628 212f 2A       		.uleb128 0x2a
 9629 2130 01       		.uleb128 0x1
 9630 2131 50       		.byte	0x50
 9631 2132 02       		.uleb128 0x2
 9632 2133 74       		.byte	0x74
 9633 2134 00       		.sleb128 0
 9634 2135 00       		.byte	0
 9635 2136 2C       		.uleb128 0x2c
 9636 2137 48050000 		.4byte	.LVL478
 9637 213b 86360000 		.4byte	0x3686
 9638 213f 29       		.uleb128 0x29
 9639 2140 54050000 		.4byte	.LVL480
 9640 2144 BA310000 		.4byte	0x31ba
 9641 2148 62210000 		.4byte	0x2162
 9642 214c 2A       		.uleb128 0x2a
 9643 214d 01       		.uleb128 0x1
 9644 214e 52       		.byte	0x52
 9645 214f 02       		.uleb128 0x2
 9646 2150 77       		.byte	0x77
 9647 2151 00       		.sleb128 0
 9648 2152 2A       		.uleb128 0x2a
 9649 2153 01       		.uleb128 0x1
 9650 2154 51       		.byte	0x51
 9651 2155 05       		.uleb128 0x5
 9652 2156 03       		.byte	0x3
 9653 2157 9F080000 		.4byte	.LC185
 9654 215b 2A       		.uleb128 0x2a
 9655 215c 01       		.uleb128 0x1
 9656 215d 50       		.byte	0x50
ARM GAS  C:\Users\SDEVAS~1\AppData\Local\Temp\ccPhqTSe.s 			page 193


 9657 215e 02       		.uleb128 0x2
 9658 215f 75       		.byte	0x75
 9659 2160 00       		.sleb128 0
 9660 2161 00       		.byte	0
 9661 2162 29       		.uleb128 0x29
 9662 2163 60050000 		.4byte	.LVL481
 9663 2167 F6330000 		.4byte	0x33f6
 9664 216b 7C210000 		.4byte	0x217c
 9665 216f 2A       		.uleb128 0x2a
 9666 2170 01       		.uleb128 0x1
 9667 2171 51       		.byte	0x51
 9668 2172 02       		.uleb128 0x2
 9669 2173 76       		.byte	0x76
 9670 2174 00       		.sleb128 0
 9671 2175 2A       		.uleb128 0x2a
 9672 2176 01       		.uleb128 0x1
 9673 2177 50       		.byte	0x50
 9674 2178 02       		.uleb128 0x2
 9675 2179 74       		.byte	0x74
 9676 217a 00       		.sleb128 0
 9677 217b 00       		.byte	0
 9678 217c 2C       		.uleb128 0x2c
 9679 217d 64050000 		.4byte	.LVL482
 9680 2181 97360000 		.4byte	0x3697
 9681 2185 29       		.uleb128 0x29
 9682 2186 70050000 		.4byte	.LVL484
 9683 218a 96310000 		.4byte	0x3196
 9684 218e A1210000 		.4byte	0x21a1
 9685 2192 2A       		.uleb128 0x2a
 9686 2193 01       		.uleb128 0x1
 9687 2194 52       		.byte	0x52
 9688 2195 01       		.uleb128 0x1
 9689 2196 40       		.byte	0x40
 9690 2197 2A       		.uleb128 0x2a
 9691 2198 01       		.uleb128 0x1
 9692 2199 51       		.byte	0x51
 9693 219a 05       		.uleb128 0x5
 9694 219b 03       		.byte	0x3
 9695 219c 8B080000 		.4byte	.LC177
 9696 21a0 00       		.byte	0
 9697 21a1 2B       		.uleb128 0x2b
 9698 21a2 8C050000 		.4byte	.LVL486
 9699 21a6 96310000 		.4byte	0x3196
 9700 21aa 2A       		.uleb128 0x2a
 9701 21ab 01       		.uleb128 0x1
 9702 21ac 52       		.byte	0x52
 9703 21ad 01       		.uleb128 0x1
 9704 21ae 40       		.byte	0x40
 9705 21af 2A       		.uleb128 0x2a
 9706 21b0 01       		.uleb128 0x1
 9707 21b1 51       		.byte	0x51
 9708 21b2 05       		.uleb128 0x5
 9709 21b3 03       		.byte	0x3
 9710 21b4 8B080000 		.4byte	.LC177
 9711 21b8 00       		.byte	0
 9712 21b9 00       		.byte	0
 9713 21ba 2D       		.uleb128 0x2d
ARM GAS  C:\Users\SDEVAS~1\AppData\Local\Temp\ccPhqTSe.s 			page 194


 9714 21bb 4C060000 		.4byte	0x64c
 9715 21bf 00000000 		.4byte	.LFB63
 9716 21c3 44000000 		.4byte	.LFE63-.LFB63
 9717 21c7 01       		.uleb128 0x1
 9718 21c8 9C       		.byte	0x9c
 9719 21c9 47220000 		.4byte	0x2247
 9720 21cd 32       		.uleb128 0x32
 9721 21ce 8D060000 		.4byte	0x68d
 9722 21d2 06       		.uleb128 0x6
 9723 21d3 FA       		.byte	0xfa
 9724 21d4 8D060000 		.4byte	0x68d
 9725 21d8 9F       		.byte	0x9f
 9726 21d9 32       		.uleb128 0x32
 9727 21da 81060000 		.4byte	0x681
 9728 21de 06       		.uleb128 0x6
 9729 21df FA       		.byte	0xfa
 9730 21e0 81060000 		.4byte	0x681
 9731 21e4 9F       		.byte	0x9f
 9732 21e5 32       		.uleb128 0x32
 9733 21e6 75060000 		.4byte	0x675
 9734 21ea 06       		.uleb128 0x6
 9735 21eb FA       		.byte	0xfa
 9736 21ec 75060000 		.4byte	0x675
 9737 21f0 9F       		.byte	0x9f
 9738 21f1 32       		.uleb128 0x32
 9739 21f2 69060000 		.4byte	0x669
 9740 21f6 06       		.uleb128 0x6
 9741 21f7 FA       		.byte	0xfa
 9742 21f8 69060000 		.4byte	0x669
 9743 21fc 9F       		.byte	0x9f
 9744 21fd 32       		.uleb128 0x32
 9745 21fe 5D060000 		.4byte	0x65d
 9746 2202 06       		.uleb128 0x6
 9747 2203 FA       		.byte	0xfa
 9748 2204 5D060000 		.4byte	0x65d
 9749 2208 9F       		.byte	0x9f
 9750 2209 29       		.uleb128 0x29
 9751 220a 0E000000 		.4byte	.LVL488
 9752 220e 96310000 		.4byte	0x3196
 9753 2212 25220000 		.4byte	0x2225
 9754 2216 2A       		.uleb128 0x2a
 9755 2217 01       		.uleb128 0x1
 9756 2218 52       		.byte	0x52
 9757 2219 01       		.uleb128 0x1
 9758 221a 43       		.byte	0x43
 9759 221b 2A       		.uleb128 0x2a
 9760 221c 01       		.uleb128 0x1
 9761 221d 51       		.byte	0x51
 9762 221e 05       		.uleb128 0x5
 9763 221f 03       		.byte	0x3
 9764 2220 A6080000 		.4byte	.LC194
 9765 2224 00       		.byte	0
 9766 2225 2C       		.uleb128 0x2c
 9767 2226 1E000000 		.4byte	.LVL489
 9768 222a A8360000 		.4byte	0x36a8
 9769 222e 2B       		.uleb128 0x2b
 9770 222f 28000000 		.4byte	.LVL490
ARM GAS  C:\Users\SDEVAS~1\AppData\Local\Temp\ccPhqTSe.s 			page 195


 9771 2233 96310000 		.4byte	0x3196
 9772 2237 2A       		.uleb128 0x2a
 9773 2238 01       		.uleb128 0x1
 9774 2239 52       		.byte	0x52
 9775 223a 01       		.uleb128 0x1
 9776 223b 33       		.byte	0x33
 9777 223c 2A       		.uleb128 0x2a
 9778 223d 01       		.uleb128 0x1
 9779 223e 51       		.byte	0x51
 9780 223f 05       		.uleb128 0x5
 9781 2240 03       		.byte	0x3
 9782 2241 B9080000 		.4byte	.LC196
 9783 2245 00       		.byte	0
 9784 2246 00       		.byte	0
 9785 2247 2D       		.uleb128 0x2d
 9786 2248 9A060000 		.4byte	0x69a
 9787 224c 00000000 		.4byte	.LFB64
 9788 2250 28000000 		.4byte	.LFE64-.LFB64
 9789 2254 01       		.uleb128 0x1
 9790 2255 9C       		.byte	0x9c
 9791 2256 C3220000 		.4byte	0x22c3
 9792 225a 30       		.uleb128 0x30
 9793 225b E7060000 		.4byte	0x6e7
 9794 225f 00000000 		.4byte	.LDL1
 9795 2263 32       		.uleb128 0x32
 9796 2264 DB060000 		.4byte	0x6db
 9797 2268 06       		.uleb128 0x6
 9798 2269 FA       		.byte	0xfa
 9799 226a DB060000 		.4byte	0x6db
 9800 226e 9F       		.byte	0x9f
 9801 226f 32       		.uleb128 0x32
 9802 2270 CF060000 		.4byte	0x6cf
 9803 2274 06       		.uleb128 0x6
 9804 2275 FA       		.byte	0xfa
 9805 2276 CF060000 		.4byte	0x6cf
 9806 227a 9F       		.byte	0x9f
 9807 227b 32       		.uleb128 0x32
 9808 227c C3060000 		.4byte	0x6c3
 9809 2280 06       		.uleb128 0x6
 9810 2281 FA       		.byte	0xfa
 9811 2282 C3060000 		.4byte	0x6c3
 9812 2286 9F       		.byte	0x9f
 9813 2287 32       		.uleb128 0x32
 9814 2288 B7060000 		.4byte	0x6b7
 9815 228c 06       		.uleb128 0x6
 9816 228d FA       		.byte	0xfa
 9817 228e B7060000 		.4byte	0x6b7
 9818 2292 9F       		.byte	0x9f
 9819 2293 32       		.uleb128 0x32
 9820 2294 AB060000 		.4byte	0x6ab
 9821 2298 06       		.uleb128 0x6
 9822 2299 FA       		.byte	0xfa
 9823 229a AB060000 		.4byte	0x6ab
 9824 229e 9F       		.byte	0x9f
 9825 229f 33       		.uleb128 0x33
 9826 22a0 00000000 		.4byte	.Ldebug_ranges0+0
 9827 22a4 34       		.uleb128 0x34
ARM GAS  C:\Users\SDEVAS~1\AppData\Local\Temp\ccPhqTSe.s 			page 196


 9828 22a5 F0060000 		.4byte	0x6f0
 9829 22a9 2B       		.uleb128 0x2b
 9830 22aa 0E000000 		.4byte	.LVL492
 9831 22ae 96310000 		.4byte	0x3196
 9832 22b2 2A       		.uleb128 0x2a
 9833 22b3 01       		.uleb128 0x1
 9834 22b4 52       		.byte	0x52
 9835 22b5 01       		.uleb128 0x1
 9836 22b6 40       		.byte	0x40
 9837 22b7 2A       		.uleb128 0x2a
 9838 22b8 01       		.uleb128 0x1
 9839 22b9 51       		.byte	0x51
 9840 22ba 05       		.uleb128 0x5
 9841 22bb 03       		.byte	0x3
 9842 22bc 8B080000 		.4byte	.LC177
 9843 22c0 00       		.byte	0
 9844 22c1 00       		.byte	0
 9845 22c2 00       		.byte	0
 9846 22c3 35       		.uleb128 0x35
 9847 22c4 E20F0000 		.4byte	.LASF161
 9848 22c8 01       		.byte	0x1
 9849 22c9 2E       		.byte	0x2e
 9850 22ca 68000000 		.4byte	0x68
 9851 22ce 01       		.byte	0x1
 9852 22cf F5220000 		.4byte	0x22f5
 9853 22d3 36       		.uleb128 0x36
 9854 22d4 73747200 		.ascii	"str\000"
 9855 22d8 01       		.byte	0x1
 9856 22d9 2E       		.byte	0x2e
 9857 22da C7000000 		.4byte	0xc7
 9858 22de 36       		.uleb128 0x36
 9859 22df 6C656E00 		.ascii	"len\000"
 9860 22e3 01       		.byte	0x1
 9861 22e4 2E       		.byte	0x2e
 9862 22e5 68000000 		.4byte	0x68
 9863 22e9 37       		.uleb128 0x37
 9864 22ea EB0F0000 		.4byte	.LASF159
 9865 22ee 01       		.byte	0x1
 9866 22ef 2E       		.byte	0x2e
 9867 22f0 8B030000 		.4byte	0x38b
 9868 22f4 00       		.byte	0
 9869 22f5 38       		.uleb128 0x38
 9870 22f6 430B0000 		.4byte	.LASF160
 9871 22fa 01       		.byte	0x1
 9872 22fb B0       		.byte	0xb0
 9873 22fc 00000000 		.4byte	.LFB40
 9874 2300 B4000000 		.4byte	.LFE40-.LFB40
 9875 2304 01       		.uleb128 0x1
 9876 2305 9C       		.byte	0x9c
 9877 2306 7A230000 		.4byte	0x237a
 9878 230a 1F       		.uleb128 0x1f
 9879 230b EB0F0000 		.4byte	.LASF159
 9880 230f 01       		.byte	0x1
 9881 2310 B0       		.byte	0xb0
 9882 2311 8B030000 		.4byte	0x38b
 9883 2315 FD0D0000 		.4byte	.LLST37
 9884 2319 39       		.uleb128 0x39
ARM GAS  C:\Users\SDEVAS~1\AppData\Local\Temp\ccPhqTSe.s 			page 197


 9885 231a 7200     		.ascii	"r\000"
 9886 231c 01       		.byte	0x1
 9887 231d B3       		.byte	0xb3
 9888 231e 68000000 		.4byte	0x68
 9889 2322 3A       		.uleb128 0x3a
 9890 2323 C3220000 		.4byte	0x22c3
 9891 2327 18000000 		.4byte	.LBB26
 9892 232b 20000000 		.4byte	.Ldebug_ranges0+0x20
 9893 232f 01       		.byte	0x1
 9894 2330 B3       		.byte	0xb3
 9895 2331 61230000 		.4byte	0x2361
 9896 2335 2E       		.uleb128 0x2e
 9897 2336 E9220000 		.4byte	0x22e9
 9898 233a 1E0E0000 		.4byte	.LLST38
 9899 233e 2E       		.uleb128 0x2e
 9900 233f DE220000 		.4byte	0x22de
 9901 2343 310E0000 		.4byte	.LLST39
 9902 2347 2E       		.uleb128 0x2e
 9903 2348 D3220000 		.4byte	0x22d3
 9904 234c D50E0000 		.4byte	.LLST40
 9905 2350 2B       		.uleb128 0x2b
 9906 2351 7A000000 		.4byte	.LVL509
 9907 2355 96310000 		.4byte	0x3196
 9908 2359 2A       		.uleb128 0x2a
 9909 235a 01       		.uleb128 0x1
 9910 235b 52       		.byte	0x52
 9911 235c 02       		.uleb128 0x2
 9912 235d 74       		.byte	0x74
 9913 235e 00       		.sleb128 0
 9914 235f 00       		.byte	0
 9915 2360 00       		.byte	0
 9916 2361 2B       		.uleb128 0x2b
 9917 2362 10000000 		.4byte	.LVL495
 9918 2366 96310000 		.4byte	0x3196
 9919 236a 2A       		.uleb128 0x2a
 9920 236b 01       		.uleb128 0x1
 9921 236c 52       		.byte	0x52
 9922 236d 01       		.uleb128 0x1
 9923 236e 3B       		.byte	0x3b
 9924 236f 2A       		.uleb128 0x2a
 9925 2370 01       		.uleb128 0x1
 9926 2371 51       		.byte	0x51
 9927 2372 05       		.uleb128 0x5
 9928 2373 03       		.byte	0x3
 9929 2374 BC080000 		.4byte	.LC201
 9930 2378 00       		.byte	0
 9931 2379 00       		.byte	0
 9932 237a 35       		.uleb128 0x35
 9933 237b D8020000 		.4byte	.LASF162
 9934 237f 01       		.byte	0x1
 9935 2380 23       		.byte	0x23
 9936 2381 8B030000 		.4byte	0x38b
 9937 2385 01       		.byte	0x1
 9938 2386 A1230000 		.4byte	0x23a1
 9939 238a 36       		.uleb128 0x36
 9940 238b 73747200 		.ascii	"str\000"
 9941 238f 01       		.byte	0x1
ARM GAS  C:\Users\SDEVAS~1\AppData\Local\Temp\ccPhqTSe.s 			page 198


 9942 2390 23       		.byte	0x23
 9943 2391 CD000000 		.4byte	0xcd
 9944 2395 36       		.uleb128 0x36
 9945 2396 6C656E00 		.ascii	"len\000"
 9946 239a 01       		.byte	0x1
 9947 239b 23       		.byte	0x23
 9948 239c 68000000 		.4byte	0x68
 9949 23a0 00       		.byte	0
 9950 23a1 3B       		.uleb128 0x3b
 9951 23a2 30080000 		.4byte	.LASF165
 9952 23a6 01       		.byte	0x1
 9953 23a7 D4       		.byte	0xd4
 9954 23a8 ED040000 		.4byte	0x4ed
 9955 23ac 00000000 		.4byte	.LFB41
 9956 23b0 74020000 		.4byte	.LFE41-.LFB41
 9957 23b4 01       		.uleb128 0x1
 9958 23b5 9C       		.byte	0x9c
 9959 23b6 72260000 		.4byte	0x2672
 9960 23ba 1F       		.uleb128 0x1f
 9961 23bb F50F0000 		.4byte	.LASF154
 9962 23bf 01       		.byte	0x1
 9963 23c0 D4       		.byte	0xd4
 9964 23c1 CD000000 		.4byte	0xcd
 9965 23c5 F30E0000 		.4byte	.LLST41
 9966 23c9 1F       		.uleb128 0x1f
 9967 23ca A4060000 		.4byte	.LASF163
 9968 23ce 01       		.byte	0x1
 9969 23cf D4       		.byte	0xd4
 9970 23d0 68000000 		.4byte	0x68
 9971 23d4 120F0000 		.4byte	.LLST42
 9972 23d8 3C       		.uleb128 0x3c
 9973 23d9 7200     		.ascii	"r\000"
 9974 23db 01       		.byte	0x1
 9975 23dc D9       		.byte	0xd9
 9976 23dd 68000000 		.4byte	0x68
 9977 23e1 570F0000 		.4byte	.LLST43
 9978 23e5 3C       		.uleb128 0x3c
 9979 23e6 7400     		.ascii	"t\000"
 9980 23e8 01       		.byte	0x1
 9981 23e9 E6       		.byte	0xe6
 9982 23ea 68000000 		.4byte	0x68
 9983 23ee 810F0000 		.4byte	.LLST44
 9984 23f2 3C       		.uleb128 0x3c
 9985 23f3 6900     		.ascii	"i\000"
 9986 23f5 01       		.byte	0x1
 9987 23f6 E7       		.byte	0xe7
 9988 23f7 68000000 		.4byte	0x68
 9989 23fb C70F0000 		.4byte	.LLST45
 9990 23ff 3D       		.uleb128 0x3d
 9991 2400 38000000 		.4byte	.Ldebug_ranges0+0x38
 9992 2404 8D240000 		.4byte	0x248d
 9993 2408 3C       		.uleb128 0x3c
 9994 2409 7900     		.ascii	"y\000"
 9995 240b 01       		.byte	0x1
 9996 240c EF       		.byte	0xef
 9997 240d 68000000 		.4byte	0x68
 9998 2411 FD0F0000 		.4byte	.LLST46
ARM GAS  C:\Users\SDEVAS~1\AppData\Local\Temp\ccPhqTSe.s 			page 199


 9999 2415 3C       		.uleb128 0x3c
 10000 2416 6A00     		.ascii	"j\000"
 10001 2418 01       		.byte	0x1
 10002 2419 F0       		.byte	0xf0
 10003 241a 68000000 		.4byte	0x68
 10004 241e 49100000 		.4byte	.LLST47
 10005 2422 29       		.uleb128 0x29
 10006 2423 A2000000 		.4byte	.LVL521
 10007 2427 2F090000 		.4byte	0x92f
 10008 242b 46240000 		.4byte	0x2446
 10009 242f 2A       		.uleb128 0x2a
 10010 2430 01       		.uleb128 0x1
 10011 2431 52       		.byte	0x52
 10012 2432 05       		.uleb128 0x5
 10013 2433 03       		.byte	0x3
 10014 2434 F1080000 		.4byte	.LC220
 10015 2438 2A       		.uleb128 0x2a
 10016 2439 01       		.uleb128 0x1
 10017 243a 51       		.byte	0x51
 10018 243b 02       		.uleb128 0x2
 10019 243c 74       		.byte	0x74
 10020 243d 00       		.sleb128 0
 10021 243e 2A       		.uleb128 0x2a
 10022 243f 01       		.uleb128 0x1
 10023 2440 50       		.byte	0x50
 10024 2441 03       		.uleb128 0x3
 10025 2442 91       		.byte	0x91
 10026 2443 50       		.sleb128 -48
 10027 2444 06       		.byte	0x6
 10028 2445 00       		.byte	0
 10029 2446 29       		.uleb128 0x29
 10030 2447 C4000000 		.4byte	.LVL522
 10031 244b 2F090000 		.4byte	0x92f
 10032 244f 6A240000 		.4byte	0x246a
 10033 2453 2A       		.uleb128 0x2a
 10034 2454 01       		.uleb128 0x1
 10035 2455 52       		.byte	0x52
 10036 2456 05       		.uleb128 0x5
 10037 2457 03       		.byte	0x3
 10038 2458 FC080000 		.4byte	.LC224
 10039 245c 2A       		.uleb128 0x2a
 10040 245d 01       		.uleb128 0x1
 10041 245e 51       		.byte	0x51
 10042 245f 02       		.uleb128 0x2
 10043 2460 74       		.byte	0x74
 10044 2461 00       		.sleb128 0
 10045 2462 2A       		.uleb128 0x2a
 10046 2463 01       		.uleb128 0x1
 10047 2464 50       		.byte	0x50
 10048 2465 03       		.uleb128 0x3
 10049 2466 91       		.byte	0x91
 10050 2467 50       		.sleb128 -48
 10051 2468 06       		.byte	0x6
 10052 2469 00       		.byte	0
 10053 246a 2C       		.uleb128 0x2c
 10054 246b DE000000 		.4byte	.LVL523
 10055 246f BA310000 		.4byte	0x31ba
ARM GAS  C:\Users\SDEVAS~1\AppData\Local\Temp\ccPhqTSe.s 			page 200


 10056 2473 2B       		.uleb128 0x2b
 10057 2474 EC000000 		.4byte	.LVL525
 10058 2478 FE060000 		.4byte	0x6fe
 10059 247c 2A       		.uleb128 0x2a
 10060 247d 01       		.uleb128 0x1
 10061 247e 51       		.byte	0x51
 10062 247f 02       		.uleb128 0x2
 10063 2480 76       		.byte	0x76
 10064 2481 01       		.sleb128 1
 10065 2482 2A       		.uleb128 0x2a
 10066 2483 01       		.uleb128 0x1
 10067 2484 50       		.byte	0x50
 10068 2485 05       		.uleb128 0x5
 10069 2486 03       		.byte	0x3
 10070 2487 00000000 		.4byte	tokens
 10071 248b 00       		.byte	0
 10072 248c 00       		.byte	0
 10073 248d 3E       		.uleb128 0x3e
 10074 248e 7A230000 		.4byte	0x237a
 10075 2492 52010000 		.4byte	.LBB34
 10076 2496 50000000 		.4byte	.LBE34-.LBB34
 10077 249a 01       		.byte	0x1
 10078 249b 0B01     		.2byte	0x10b
 10079 249d 5F250000 		.4byte	0x255f
 10080 24a1 2E       		.uleb128 0x2e
 10081 24a2 95230000 		.4byte	0x2395
 10082 24a6 97100000 		.4byte	.LLST48
 10083 24aa 2E       		.uleb128 0x2e
 10084 24ab 8A230000 		.4byte	0x238a
 10085 24af BB100000 		.4byte	.LLST49
 10086 24b3 29       		.uleb128 0x29
 10087 24b4 5C010000 		.4byte	.LVL534
 10088 24b8 BA310000 		.4byte	0x31ba
 10089 24bc D6240000 		.4byte	0x24d6
 10090 24c0 2A       		.uleb128 0x2a
 10091 24c1 01       		.uleb128 0x1
 10092 24c2 52       		.byte	0x52
 10093 24c3 02       		.uleb128 0x2
 10094 24c4 74       		.byte	0x74
 10095 24c5 00       		.sleb128 0
 10096 24c6 2A       		.uleb128 0x2a
 10097 24c7 01       		.uleb128 0x1
 10098 24c8 51       		.byte	0x51
 10099 24c9 05       		.uleb128 0x5
 10100 24ca 03       		.byte	0x3
 10101 24cb C7080000 		.4byte	.LC203
 10102 24cf 2A       		.uleb128 0x2a
 10103 24d0 01       		.uleb128 0x1
 10104 24d1 50       		.byte	0x50
 10105 24d2 02       		.uleb128 0x2
 10106 24d3 75       		.byte	0x75
 10107 24d4 00       		.sleb128 0
 10108 24d5 00       		.byte	0
 10109 24d6 29       		.uleb128 0x29
 10110 24d7 6C010000 		.4byte	.LVL535
 10111 24db BA310000 		.4byte	0x31ba
 10112 24df F9240000 		.4byte	0x24f9
ARM GAS  C:\Users\SDEVAS~1\AppData\Local\Temp\ccPhqTSe.s 			page 201


 10113 24e3 2A       		.uleb128 0x2a
 10114 24e4 01       		.uleb128 0x1
 10115 24e5 52       		.byte	0x52
 10116 24e6 02       		.uleb128 0x2
 10117 24e7 74       		.byte	0x74
 10118 24e8 00       		.sleb128 0
 10119 24e9 2A       		.uleb128 0x2a
 10120 24ea 01       		.uleb128 0x1
 10121 24eb 51       		.byte	0x51
 10122 24ec 05       		.uleb128 0x5
 10123 24ed 03       		.byte	0x3
 10124 24ee CB080000 		.4byte	.LC205
 10125 24f2 2A       		.uleb128 0x2a
 10126 24f3 01       		.uleb128 0x1
 10127 24f4 50       		.byte	0x50
 10128 24f5 02       		.uleb128 0x2
 10129 24f6 75       		.byte	0x75
 10130 24f7 00       		.sleb128 0
 10131 24f8 00       		.byte	0
 10132 24f9 29       		.uleb128 0x29
 10133 24fa 7C010000 		.4byte	.LVL536
 10134 24fe BA310000 		.4byte	0x31ba
 10135 2502 1C250000 		.4byte	0x251c
 10136 2506 2A       		.uleb128 0x2a
 10137 2507 01       		.uleb128 0x1
 10138 2508 52       		.byte	0x52
 10139 2509 02       		.uleb128 0x2
 10140 250a 74       		.byte	0x74
 10141 250b 00       		.sleb128 0
 10142 250c 2A       		.uleb128 0x2a
 10143 250d 01       		.uleb128 0x1
 10144 250e 51       		.byte	0x51
 10145 250f 05       		.uleb128 0x5
 10146 2510 03       		.byte	0x3
 10147 2511 D3080000 		.4byte	.LC207
 10148 2515 2A       		.uleb128 0x2a
 10149 2516 01       		.uleb128 0x1
 10150 2517 50       		.byte	0x50
 10151 2518 02       		.uleb128 0x2
 10152 2519 75       		.byte	0x75
 10153 251a 00       		.sleb128 0
 10154 251b 00       		.byte	0
 10155 251c 29       		.uleb128 0x29
 10156 251d 8C010000 		.4byte	.LVL537
 10157 2521 BA310000 		.4byte	0x31ba
 10158 2525 3F250000 		.4byte	0x253f
 10159 2529 2A       		.uleb128 0x2a
 10160 252a 01       		.uleb128 0x1
 10161 252b 52       		.byte	0x52
 10162 252c 02       		.uleb128 0x2
 10163 252d 74       		.byte	0x74
 10164 252e 00       		.sleb128 0
 10165 252f 2A       		.uleb128 0x2a
 10166 2530 01       		.uleb128 0x1
 10167 2531 51       		.byte	0x51
 10168 2532 05       		.uleb128 0x5
 10169 2533 03       		.byte	0x3
ARM GAS  C:\Users\SDEVAS~1\AppData\Local\Temp\ccPhqTSe.s 			page 202


 10170 2534 D7080000 		.4byte	.LC209
 10171 2538 2A       		.uleb128 0x2a
 10172 2539 01       		.uleb128 0x1
 10173 253a 50       		.byte	0x50
 10174 253b 02       		.uleb128 0x2
 10175 253c 75       		.byte	0x75
 10176 253d 00       		.sleb128 0
 10177 253e 00       		.byte	0
 10178 253f 2B       		.uleb128 0x2b
 10179 2540 9C010000 		.4byte	.LVL538
 10180 2544 BA310000 		.4byte	0x31ba
 10181 2548 2A       		.uleb128 0x2a
 10182 2549 01       		.uleb128 0x1
 10183 254a 52       		.byte	0x52
 10184 254b 02       		.uleb128 0x2
 10185 254c 74       		.byte	0x74
 10186 254d 00       		.sleb128 0
 10187 254e 2A       		.uleb128 0x2a
 10188 254f 01       		.uleb128 0x1
 10189 2550 51       		.byte	0x51
 10190 2551 05       		.uleb128 0x5
 10191 2552 03       		.byte	0x3
 10192 2553 DC080000 		.4byte	.LC211
 10193 2557 2A       		.uleb128 0x2a
 10194 2558 01       		.uleb128 0x1
 10195 2559 50       		.byte	0x50
 10196 255a 02       		.uleb128 0x2
 10197 255b 75       		.byte	0x75
 10198 255c 00       		.sleb128 0
 10199 255d 00       		.byte	0
 10200 255e 00       		.byte	0
 10201 255f 29       		.uleb128 0x29
 10202 2560 1E000000 		.4byte	.LVL513
 10203 2564 AF360000 		.4byte	0x36af
 10204 2568 73250000 		.4byte	0x2573
 10205 256c 2A       		.uleb128 0x2a
 10206 256d 01       		.uleb128 0x1
 10207 256e 50       		.byte	0x50
 10208 256f 02       		.uleb128 0x2
 10209 2570 76       		.byte	0x76
 10210 2571 00       		.sleb128 0
 10211 2572 00       		.byte	0
 10212 2573 29       		.uleb128 0x29
 10213 2574 30000000 		.4byte	.LVL514
 10214 2578 C6360000 		.4byte	0x36c6
 10215 257c A1250000 		.4byte	0x25a1
 10216 2580 2A       		.uleb128 0x2a
 10217 2581 01       		.uleb128 0x1
 10218 2582 53       		.byte	0x53
 10219 2583 02       		.uleb128 0x2
 10220 2584 75       		.byte	0x75
 10221 2585 00       		.sleb128 0
 10222 2586 2A       		.uleb128 0x2a
 10223 2587 01       		.uleb128 0x1
 10224 2588 52       		.byte	0x52
 10225 2589 02       		.uleb128 0x2
 10226 258a 77       		.byte	0x77
ARM GAS  C:\Users\SDEVAS~1\AppData\Local\Temp\ccPhqTSe.s 			page 203


 10227 258b 00       		.sleb128 0
 10228 258c 2A       		.uleb128 0x2a
 10229 258d 01       		.uleb128 0x1
 10230 258e 51       		.byte	0x51
 10231 258f 03       		.uleb128 0x3
 10232 2590 91       		.byte	0x91
 10233 2591 50       		.sleb128 -48
 10234 2592 06       		.byte	0x6
 10235 2593 2A       		.uleb128 0x2a
 10236 2594 01       		.uleb128 0x1
 10237 2595 50       		.byte	0x50
 10238 2596 02       		.uleb128 0x2
 10239 2597 76       		.byte	0x76
 10240 2598 00       		.sleb128 0
 10241 2599 2A       		.uleb128 0x2a
 10242 259a 02       		.uleb128 0x2
 10243 259b 7D       		.byte	0x7d
 10244 259c 00       		.sleb128 0
 10245 259d 02       		.uleb128 0x2
 10246 259e 08       		.byte	0x8
 10247 259f 3C       		.byte	0x3c
 10248 25a0 00       		.byte	0
 10249 25a1 29       		.uleb128 0x29
 10250 25a2 68000000 		.4byte	.LVL518
 10251 25a6 2F090000 		.4byte	0x92f
 10252 25aa C5250000 		.4byte	0x25c5
 10253 25ae 2A       		.uleb128 0x2a
 10254 25af 01       		.uleb128 0x1
 10255 25b0 52       		.byte	0x52
 10256 25b1 05       		.uleb128 0x5
 10257 25b2 03       		.byte	0x3
 10258 25b3 E5080000 		.4byte	.LC218
 10259 25b7 2A       		.uleb128 0x2a
 10260 25b8 01       		.uleb128 0x1
 10261 25b9 51       		.byte	0x51
 10262 25ba 02       		.uleb128 0x2
 10263 25bb 75       		.byte	0x75
 10264 25bc 00       		.sleb128 0
 10265 25bd 2A       		.uleb128 0x2a
 10266 25be 01       		.uleb128 0x1
 10267 25bf 50       		.byte	0x50
 10268 25c0 03       		.uleb128 0x3
 10269 25c1 91       		.byte	0x91
 10270 25c2 50       		.sleb128 -48
 10271 25c3 06       		.byte	0x6
 10272 25c4 00       		.byte	0
 10273 25c5 29       		.uleb128 0x29
 10274 25c6 16010000 		.4byte	.LVL531
 10275 25ca 2F090000 		.4byte	0x92f
 10276 25ce E9250000 		.4byte	0x25e9
 10277 25d2 2A       		.uleb128 0x2a
 10278 25d3 01       		.uleb128 0x1
 10279 25d4 52       		.byte	0x52
 10280 25d5 05       		.uleb128 0x5
 10281 25d6 03       		.byte	0x3
 10282 25d7 05090000 		.4byte	.LC228
 10283 25db 2A       		.uleb128 0x2a
ARM GAS  C:\Users\SDEVAS~1\AppData\Local\Temp\ccPhqTSe.s 			page 204


 10284 25dc 01       		.uleb128 0x1
 10285 25dd 51       		.byte	0x51
 10286 25de 02       		.uleb128 0x2
 10287 25df 75       		.byte	0x75
 10288 25e0 00       		.sleb128 0
 10289 25e1 2A       		.uleb128 0x2a
 10290 25e2 01       		.uleb128 0x1
 10291 25e3 50       		.byte	0x50
 10292 25e4 03       		.uleb128 0x3
 10293 25e5 91       		.byte	0x91
 10294 25e6 50       		.sleb128 -48
 10295 25e7 06       		.byte	0x6
 10296 25e8 00       		.byte	0
 10297 25e9 29       		.uleb128 0x29
 10298 25ea 40010000 		.4byte	.LVL532
 10299 25ee 2F090000 		.4byte	0x92f
 10300 25f2 0D260000 		.4byte	0x260d
 10301 25f6 2A       		.uleb128 0x2a
 10302 25f7 01       		.uleb128 0x1
 10303 25f8 52       		.byte	0x52
 10304 25f9 05       		.uleb128 0x5
 10305 25fa 03       		.byte	0x3
 10306 25fb 0C090000 		.4byte	.LC230
 10307 25ff 2A       		.uleb128 0x2a
 10308 2600 01       		.uleb128 0x1
 10309 2601 51       		.byte	0x51
 10310 2602 02       		.uleb128 0x2
 10311 2603 75       		.byte	0x75
 10312 2604 00       		.sleb128 0
 10313 2605 2A       		.uleb128 0x2a
 10314 2606 01       		.uleb128 0x1
 10315 2607 50       		.byte	0x50
 10316 2608 03       		.uleb128 0x3
 10317 2609 91       		.byte	0x91
 10318 260a 50       		.sleb128 -48
 10319 260b 06       		.byte	0x6
 10320 260c 00       		.byte	0
 10321 260d 29       		.uleb128 0x29
 10322 260e B2010000 		.4byte	.LVL540
 10323 2612 2F090000 		.4byte	0x92f
 10324 2616 31260000 		.4byte	0x2631
 10325 261a 2A       		.uleb128 0x2a
 10326 261b 01       		.uleb128 0x1
 10327 261c 52       		.byte	0x52
 10328 261d 05       		.uleb128 0x5
 10329 261e 03       		.byte	0x3
 10330 261f 12090000 		.4byte	.LC237
 10331 2623 2A       		.uleb128 0x2a
 10332 2624 01       		.uleb128 0x1
 10333 2625 51       		.byte	0x51
 10334 2626 02       		.uleb128 0x2
 10335 2627 75       		.byte	0x75
 10336 2628 00       		.sleb128 0
 10337 2629 2A       		.uleb128 0x2a
 10338 262a 01       		.uleb128 0x1
 10339 262b 50       		.byte	0x50
 10340 262c 03       		.uleb128 0x3
ARM GAS  C:\Users\SDEVAS~1\AppData\Local\Temp\ccPhqTSe.s 			page 205


 10341 262d 91       		.byte	0x91
 10342 262e 50       		.sleb128 -48
 10343 262f 06       		.byte	0x6
 10344 2630 00       		.byte	0
 10345 2631 29       		.uleb128 0x29
 10346 2632 D6010000 		.4byte	.LVL541
 10347 2636 2F090000 		.4byte	0x92f
 10348 263a 55260000 		.4byte	0x2655
 10349 263e 2A       		.uleb128 0x2a
 10350 263f 01       		.uleb128 0x1
 10351 2640 52       		.byte	0x52
 10352 2641 05       		.uleb128 0x5
 10353 2642 03       		.byte	0x3
 10354 2643 18090000 		.4byte	.LC239
 10355 2647 2A       		.uleb128 0x2a
 10356 2648 01       		.uleb128 0x1
 10357 2649 51       		.byte	0x51
 10358 264a 02       		.uleb128 0x2
 10359 264b 75       		.byte	0x75
 10360 264c 00       		.sleb128 0
 10361 264d 2A       		.uleb128 0x2a
 10362 264e 01       		.uleb128 0x1
 10363 264f 50       		.byte	0x50
 10364 2650 03       		.uleb128 0x3
 10365 2651 91       		.byte	0x91
 10366 2652 50       		.sleb128 -48
 10367 2653 06       		.byte	0x6
 10368 2654 00       		.byte	0
 10369 2655 2B       		.uleb128 0x2b
 10370 2656 F8010000 		.4byte	.LVL543
 10371 265a FE060000 		.4byte	0x6fe
 10372 265e 2A       		.uleb128 0x2a
 10373 265f 01       		.uleb128 0x1
 10374 2660 51       		.byte	0x51
 10375 2661 05       		.uleb128 0x5
 10376 2662 91       		.byte	0x91
 10377 2663 54       		.sleb128 -44
 10378 2664 06       		.byte	0x6
 10379 2665 23       		.byte	0x23
 10380 2666 01       		.uleb128 0x1
 10381 2667 2A       		.uleb128 0x2a
 10382 2668 01       		.uleb128 0x1
 10383 2669 50       		.byte	0x50
 10384 266a 05       		.uleb128 0x5
 10385 266b 03       		.byte	0x3
 10386 266c 00000000 		.4byte	tokens
 10387 2670 00       		.byte	0
 10388 2671 00       		.byte	0
 10389 2672 2D       		.uleb128 0x2d
 10390 2673 1E050000 		.4byte	0x51e
 10391 2677 00000000 		.4byte	.LFB42
 10392 267b 14000000 		.4byte	.LFE42-.LFB42
 10393 267f 01       		.uleb128 0x1
 10394 2680 9C       		.byte	0x9c
 10395 2681 FC260000 		.4byte	0x26fc
 10396 2685 2E       		.uleb128 0x2e
 10397 2686 2F050000 		.4byte	0x52f
ARM GAS  C:\Users\SDEVAS~1\AppData\Local\Temp\ccPhqTSe.s 			page 206


 10398 268a CE100000 		.4byte	.LLST50
 10399 268e 2E       		.uleb128 0x2e
 10400 268f 3B050000 		.4byte	0x53b
 10401 2693 08110000 		.4byte	.LLST51
 10402 2697 2E       		.uleb128 0x2e
 10403 2698 47050000 		.4byte	0x547
 10404 269c 4D110000 		.4byte	.LLST52
 10405 26a0 2E       		.uleb128 0x2e
 10406 26a1 53050000 		.4byte	0x553
 10407 26a5 87110000 		.4byte	.LLST53
 10408 26a9 32       		.uleb128 0x32
 10409 26aa 5F050000 		.4byte	0x55f
 10410 26ae 02       		.uleb128 0x2
 10411 26af 91       		.byte	0x91
 10412 26b0 00       		.sleb128 0
 10413 26b1 3F       		.uleb128 0x3f
 10414 26b2 6B050000 		.4byte	0x56b
 10415 26b6 34       		.uleb128 0x34
 10416 26b7 73050000 		.4byte	0x573
 10417 26bb 34       		.uleb128 0x34
 10418 26bc 7D050000 		.4byte	0x57d
 10419 26c0 34       		.uleb128 0x34
 10420 26c1 89050000 		.4byte	0x589
 10421 26c5 34       		.uleb128 0x34
 10422 26c6 93050000 		.4byte	0x593
 10423 26ca 2B       		.uleb128 0x2b
 10424 26cb 0E000000 		.4byte	.LVL554
 10425 26cf 06100000 		.4byte	0x1006
 10426 26d3 2A       		.uleb128 0x2a
 10427 26d4 01       		.uleb128 0x1
 10428 26d5 51       		.byte	0x51
 10429 26d6 03       		.uleb128 0x3
 10430 26d7 F3       		.byte	0xf3
 10431 26d8 01       		.uleb128 0x1
 10432 26d9 53       		.byte	0x53
 10433 26da 2A       		.uleb128 0x2a
 10434 26db 01       		.uleb128 0x1
 10435 26dc 50       		.byte	0x50
 10436 26dd 03       		.uleb128 0x3
 10437 26de F3       		.byte	0xf3
 10438 26df 01       		.uleb128 0x1
 10439 26e0 51       		.byte	0x51
 10440 26e1 40       		.uleb128 0x40
 10441 26e2 2F050000 		.4byte	0x52f
 10442 26e6 01       		.uleb128 0x1
 10443 26e7 31       		.byte	0x31
 10444 26e8 40       		.uleb128 0x40
 10445 26e9 47050000 		.4byte	0x547
 10446 26ed 03       		.uleb128 0x3
 10447 26ee F3       		.byte	0xf3
 10448 26ef 01       		.uleb128 0x1
 10449 26f0 52       		.byte	0x52
 10450 26f1 40       		.uleb128 0x40
 10451 26f2 5F050000 		.4byte	0x55f
 10452 26f6 03       		.uleb128 0x3
 10453 26f7 91       		.byte	0x91
 10454 26f8 00       		.sleb128 0
ARM GAS  C:\Users\SDEVAS~1\AppData\Local\Temp\ccPhqTSe.s 			page 207


 10455 26f9 06       		.byte	0x6
 10456 26fa 00       		.byte	0
 10457 26fb 00       		.byte	0
 10458 26fc 2D       		.uleb128 0x2d
 10459 26fd A6050000 		.4byte	0x5a6
 10460 2701 00000000 		.4byte	.LFB43
 10461 2705 16000000 		.4byte	.LFE43-.LFB43
 10462 2709 01       		.uleb128 0x1
 10463 270a 9C       		.byte	0x9c
 10464 270b 95270000 		.4byte	0x2795
 10465 270f 2E       		.uleb128 0x2e
 10466 2710 B7050000 		.4byte	0x5b7
 10467 2714 C1110000 		.4byte	.LLST54
 10468 2718 2E       		.uleb128 0x2e
 10469 2719 C3050000 		.4byte	0x5c3
 10470 271d E2110000 		.4byte	.LLST55
 10471 2721 2E       		.uleb128 0x2e
 10472 2722 CF050000 		.4byte	0x5cf
 10473 2726 0E120000 		.4byte	.LLST56
 10474 272a 2E       		.uleb128 0x2e
 10475 272b DB050000 		.4byte	0x5db
 10476 272f 2F120000 		.4byte	.LLST57
 10477 2733 32       		.uleb128 0x32
 10478 2734 E7050000 		.4byte	0x5e7
 10479 2738 02       		.uleb128 0x2
 10480 2739 91       		.byte	0x91
 10481 273a 00       		.sleb128 0
 10482 273b 3F       		.uleb128 0x3f
 10483 273c F3050000 		.4byte	0x5f3
 10484 2740 34       		.uleb128 0x34
 10485 2741 FB050000 		.4byte	0x5fb
 10486 2745 34       		.uleb128 0x34
 10487 2746 05060000 		.4byte	0x605
 10488 274a 34       		.uleb128 0x34
 10489 274b 11060000 		.4byte	0x611
 10490 274f 34       		.uleb128 0x34
 10491 2750 1D060000 		.4byte	0x61d
 10492 2754 34       		.uleb128 0x34
 10493 2755 29060000 		.4byte	0x629
 10494 2759 34       		.uleb128 0x34
 10495 275a 35060000 		.4byte	0x635
 10496 275e 34       		.uleb128 0x34
 10497 275f 41060000 		.4byte	0x641
 10498 2763 2B       		.uleb128 0x2b
 10499 2764 10000000 		.4byte	.LVL561
 10500 2768 86160000 		.4byte	0x1686
 10501 276c 2A       		.uleb128 0x2a
 10502 276d 01       		.uleb128 0x1
 10503 276e 51       		.byte	0x51
 10504 276f 03       		.uleb128 0x3
 10505 2770 F3       		.byte	0xf3
 10506 2771 01       		.uleb128 0x1
 10507 2772 53       		.byte	0x53
 10508 2773 2A       		.uleb128 0x2a
 10509 2774 01       		.uleb128 0x1
 10510 2775 50       		.byte	0x50
 10511 2776 03       		.uleb128 0x3
ARM GAS  C:\Users\SDEVAS~1\AppData\Local\Temp\ccPhqTSe.s 			page 208


 10512 2777 F3       		.byte	0xf3
 10513 2778 01       		.uleb128 0x1
 10514 2779 51       		.byte	0x51
 10515 277a 40       		.uleb128 0x40
 10516 277b B7050000 		.4byte	0x5b7
 10517 277f 01       		.uleb128 0x1
 10518 2780 31       		.byte	0x31
 10519 2781 40       		.uleb128 0x40
 10520 2782 CF050000 		.4byte	0x5cf
 10521 2786 03       		.uleb128 0x3
 10522 2787 F3       		.byte	0xf3
 10523 2788 01       		.uleb128 0x1
 10524 2789 52       		.byte	0x52
 10525 278a 40       		.uleb128 0x40
 10526 278b E7050000 		.4byte	0x5e7
 10527 278f 03       		.uleb128 0x3
 10528 2790 91       		.byte	0x91
 10529 2791 00       		.sleb128 0
 10530 2792 06       		.byte	0x6
 10531 2793 00       		.byte	0
 10532 2794 00       		.byte	0
 10533 2795 2D       		.uleb128 0x2d
 10534 2796 4C060000 		.4byte	0x64c
 10535 279a 00000000 		.4byte	.LFB44
 10536 279e 10000000 		.4byte	.LFE44-.LFB44
 10537 27a2 01       		.uleb128 0x1
 10538 27a3 9C       		.byte	0x9c
 10539 27a4 0A280000 		.4byte	0x280a
 10540 27a8 2E       		.uleb128 0x2e
 10541 27a9 5D060000 		.4byte	0x65d
 10542 27ad 50120000 		.4byte	.LLST58
 10543 27b1 2E       		.uleb128 0x2e
 10544 27b2 69060000 		.4byte	0x669
 10545 27b6 71120000 		.4byte	.LLST59
 10546 27ba 2E       		.uleb128 0x2e
 10547 27bb 75060000 		.4byte	0x675
 10548 27bf 92120000 		.4byte	.LLST60
 10549 27c3 2E       		.uleb128 0x2e
 10550 27c4 81060000 		.4byte	0x681
 10551 27c8 B3120000 		.4byte	.LLST61
 10552 27cc 32       		.uleb128 0x32
 10553 27cd 8D060000 		.4byte	0x68d
 10554 27d1 02       		.uleb128 0x2
 10555 27d2 91       		.byte	0x91
 10556 27d3 00       		.sleb128 0
 10557 27d4 2B       		.uleb128 0x2b
 10558 27d5 0E000000 		.4byte	.LVL565
 10559 27d9 BA210000 		.4byte	0x21ba
 10560 27dd 40       		.uleb128 0x40
 10561 27de 5D060000 		.4byte	0x65d
 10562 27e2 01       		.uleb128 0x1
 10563 27e3 30       		.byte	0x30
 10564 27e4 40       		.uleb128 0x40
 10565 27e5 69060000 		.4byte	0x669
 10566 27e9 03       		.uleb128 0x3
 10567 27ea F3       		.byte	0xf3
 10568 27eb 01       		.uleb128 0x1
ARM GAS  C:\Users\SDEVAS~1\AppData\Local\Temp\ccPhqTSe.s 			page 209


 10569 27ec 51       		.byte	0x51
 10570 27ed 40       		.uleb128 0x40
 10571 27ee 75060000 		.4byte	0x675
 10572 27f2 03       		.uleb128 0x3
 10573 27f3 F3       		.byte	0xf3
 10574 27f4 01       		.uleb128 0x1
 10575 27f5 52       		.byte	0x52
 10576 27f6 40       		.uleb128 0x40
 10577 27f7 81060000 		.4byte	0x681
 10578 27fb 03       		.uleb128 0x3
 10579 27fc F3       		.byte	0xf3
 10580 27fd 01       		.uleb128 0x1
 10581 27fe 53       		.byte	0x53
 10582 27ff 40       		.uleb128 0x40
 10583 2800 8D060000 		.4byte	0x68d
 10584 2804 03       		.uleb128 0x3
 10585 2805 91       		.byte	0x91
 10586 2806 00       		.sleb128 0
 10587 2807 06       		.byte	0x6
 10588 2808 00       		.byte	0
 10589 2809 00       		.byte	0
 10590 280a 41       		.uleb128 0x41
 10591 280b 580A0000 		.4byte	.LASF166
 10592 280f 01       		.byte	0x1
 10593 2810 9901     		.2byte	0x199
 10594 2812 8B030000 		.4byte	0x38b
 10595 2816 00000000 		.4byte	.LFB45
 10596 281a 4C000000 		.4byte	.LFE45-.LFB45
 10597 281e 01       		.uleb128 0x1
 10598 281f 9C       		.byte	0x9c
 10599 2820 B1280000 		.4byte	0x28b1
 10600 2824 23       		.uleb128 0x23
 10601 2825 BE000000 		.4byte	.LASF58
 10602 2829 01       		.byte	0x1
 10603 282a 9901     		.2byte	0x199
 10604 282c 8B030000 		.4byte	0x38b
 10605 2830 D4120000 		.4byte	.LLST62
 10606 2834 23       		.uleb128 0x23
 10607 2835 92060000 		.4byte	.LASF124
 10608 2839 01       		.byte	0x1
 10609 283a 9901     		.2byte	0x199
 10610 283c CD000000 		.4byte	0xcd
 10611 2840 F5120000 		.4byte	.LLST63
 10612 2844 23       		.uleb128 0x23
 10613 2845 A10F0000 		.4byte	.LASF125
 10614 2849 01       		.byte	0x1
 10615 284a 9901     		.2byte	0x199
 10616 284c 68000000 		.4byte	0x68
 10617 2850 16130000 		.4byte	.LLST64
 10618 2854 23       		.uleb128 0x23
 10619 2855 5F040000 		.4byte	.LASF126
 10620 2859 01       		.byte	0x1
 10621 285a 9901     		.2byte	0x199
 10622 285c A0050000 		.4byte	0x5a0
 10623 2860 37130000 		.4byte	.LLST65
 10624 2864 42       		.uleb128 0x42
 10625 2865 9A060000 		.4byte	.LASF127
ARM GAS  C:\Users\SDEVAS~1\AppData\Local\Temp\ccPhqTSe.s 			page 210


 10626 2869 01       		.byte	0x1
 10627 286a 9901     		.2byte	0x199
 10628 286c 68000000 		.4byte	0x68
 10629 2870 02       		.uleb128 0x2
 10630 2871 91       		.byte	0x91
 10631 2872 00       		.sleb128 0
 10632 2873 29       		.uleb128 0x29
 10633 2874 14000000 		.4byte	.LVL571
 10634 2878 96310000 		.4byte	0x3196
 10635 287c 8F280000 		.4byte	0x288f
 10636 2880 2A       		.uleb128 0x2a
 10637 2881 01       		.uleb128 0x1
 10638 2882 52       		.byte	0x52
 10639 2883 01       		.uleb128 0x1
 10640 2884 43       		.byte	0x43
 10641 2885 2A       		.uleb128 0x2a
 10642 2886 01       		.uleb128 0x1
 10643 2887 51       		.byte	0x51
 10644 2888 05       		.uleb128 0x5
 10645 2889 03       		.byte	0x3
 10646 288a A6080000 		.4byte	.LC194
 10647 288e 00       		.byte	0
 10648 288f 2C       		.uleb128 0x2c
 10649 2890 24000000 		.4byte	.LVL572
 10650 2894 A8360000 		.4byte	0x36a8
 10651 2898 2B       		.uleb128 0x2b
 10652 2899 2E000000 		.4byte	.LVL573
 10653 289d 96310000 		.4byte	0x3196
 10654 28a1 2A       		.uleb128 0x2a
 10655 28a2 01       		.uleb128 0x1
 10656 28a3 52       		.byte	0x52
 10657 28a4 01       		.uleb128 0x1
 10658 28a5 33       		.byte	0x33
 10659 28a6 2A       		.uleb128 0x2a
 10660 28a7 01       		.uleb128 0x1
 10661 28a8 51       		.byte	0x51
 10662 28a9 05       		.uleb128 0x5
 10663 28aa 03       		.byte	0x3
 10664 28ab B9080000 		.4byte	.LC196
 10665 28af 00       		.byte	0
 10666 28b0 00       		.byte	0
 10667 28b1 2D       		.uleb128 0x2d
 10668 28b2 9A060000 		.4byte	0x69a
 10669 28b6 00000000 		.4byte	.LFB46
 10670 28ba 48000000 		.4byte	.LFE46-.LFB46
 10671 28be 01       		.uleb128 0x1
 10672 28bf 9C       		.byte	0x9c
 10673 28c0 83290000 		.4byte	0x2983
 10674 28c4 2E       		.uleb128 0x2e
 10675 28c5 AB060000 		.4byte	0x6ab
 10676 28c9 58130000 		.4byte	.LLST66
 10677 28cd 2E       		.uleb128 0x2e
 10678 28ce B7060000 		.4byte	0x6b7
 10679 28d2 79130000 		.4byte	.LLST67
 10680 28d6 2E       		.uleb128 0x2e
 10681 28d7 C3060000 		.4byte	0x6c3
 10682 28db A5130000 		.4byte	.LLST68
ARM GAS  C:\Users\SDEVAS~1\AppData\Local\Temp\ccPhqTSe.s 			page 211


 10683 28df 2E       		.uleb128 0x2e
 10684 28e0 CF060000 		.4byte	0x6cf
 10685 28e4 C6130000 		.4byte	.LLST69
 10686 28e8 32       		.uleb128 0x32
 10687 28e9 DB060000 		.4byte	0x6db
 10688 28ed 02       		.uleb128 0x2
 10689 28ee 91       		.byte	0x91
 10690 28ef 00       		.sleb128 0
 10691 28f0 30       		.uleb128 0x30
 10692 28f1 E7060000 		.4byte	0x6e7
 10693 28f5 34000000 		.4byte	.L324
 10694 28f9 2F       		.uleb128 0x2f
 10695 28fa 08000000 		.4byte	.LBB38
 10696 28fe 2C000000 		.4byte	.LBE38-.LBB38
 10697 2902 4D290000 		.4byte	0x294d
 10698 2906 31       		.uleb128 0x31
 10699 2907 F0060000 		.4byte	0x6f0
 10700 290b E7130000 		.4byte	.LLST70
 10701 290f 29       		.uleb128 0x29
 10702 2910 10000000 		.4byte	.LVL578
 10703 2914 AB0E0000 		.4byte	0xeab
 10704 2918 2B290000 		.4byte	0x292b
 10705 291c 2A       		.uleb128 0x2a
 10706 291d 01       		.uleb128 0x1
 10707 291e 51       		.byte	0x51
 10708 291f 03       		.uleb128 0x3
 10709 2920 F3       		.byte	0xf3
 10710 2921 01       		.uleb128 0x1
 10711 2922 52       		.byte	0x52
 10712 2923 2A       		.uleb128 0x2a
 10713 2924 01       		.uleb128 0x1
 10714 2925 50       		.byte	0x50
 10715 2926 03       		.uleb128 0x3
 10716 2927 F3       		.byte	0xf3
 10717 2928 01       		.uleb128 0x1
 10718 2929 51       		.byte	0x51
 10719 292a 00       		.byte	0
 10720 292b 2C       		.uleb128 0x2c
 10721 292c 18000000 		.4byte	.LVL579
 10722 2930 EF360000 		.4byte	0x36ef
 10723 2934 2B       		.uleb128 0x2b
 10724 2935 24000000 		.4byte	.LVL580
 10725 2939 96310000 		.4byte	0x3196
 10726 293d 2A       		.uleb128 0x2a
 10727 293e 01       		.uleb128 0x1
 10728 293f 52       		.byte	0x52
 10729 2940 01       		.uleb128 0x1
 10730 2941 40       		.byte	0x40
 10731 2942 2A       		.uleb128 0x2a
 10732 2943 01       		.uleb128 0x1
 10733 2944 51       		.byte	0x51
 10734 2945 05       		.uleb128 0x5
 10735 2946 03       		.byte	0x3
 10736 2947 8B080000 		.4byte	.LC177
 10737 294b 00       		.byte	0
 10738 294c 00       		.byte	0
 10739 294d 2B       		.uleb128 0x2b
ARM GAS  C:\Users\SDEVAS~1\AppData\Local\Temp\ccPhqTSe.s 			page 212


 10740 294e 38000000 		.4byte	.LVL582
 10741 2952 47220000 		.4byte	0x2247
 10742 2956 40       		.uleb128 0x40
 10743 2957 AB060000 		.4byte	0x6ab
 10744 295b 01       		.uleb128 0x1
 10745 295c 31       		.byte	0x31
 10746 295d 40       		.uleb128 0x40
 10747 295e B7060000 		.4byte	0x6b7
 10748 2962 03       		.uleb128 0x3
 10749 2963 F3       		.byte	0xf3
 10750 2964 01       		.uleb128 0x1
 10751 2965 51       		.byte	0x51
 10752 2966 40       		.uleb128 0x40
 10753 2967 C3060000 		.4byte	0x6c3
 10754 296b 03       		.uleb128 0x3
 10755 296c F3       		.byte	0xf3
 10756 296d 01       		.uleb128 0x1
 10757 296e 52       		.byte	0x52
 10758 296f 40       		.uleb128 0x40
 10759 2970 CF060000 		.4byte	0x6cf
 10760 2974 03       		.uleb128 0x3
 10761 2975 F3       		.byte	0xf3
 10762 2976 01       		.uleb128 0x1
 10763 2977 53       		.byte	0x53
 10764 2978 40       		.uleb128 0x40
 10765 2979 DB060000 		.4byte	0x6db
 10766 297d 03       		.uleb128 0x3
 10767 297e 91       		.byte	0x91
 10768 297f 00       		.sleb128 0
 10769 2980 06       		.byte	0x6
 10770 2981 00       		.byte	0
 10771 2982 00       		.byte	0
 10772 2983 22       		.uleb128 0x22
 10773 2984 09030000 		.4byte	.LASF167
 10774 2988 01       		.byte	0x1
 10775 2989 ED01     		.2byte	0x1ed
 10776 298b 00000000 		.4byte	.LFB56
 10777 298f 58000000 		.4byte	.LFE56-.LFB56
 10778 2993 01       		.uleb128 0x1
 10779 2994 9C       		.byte	0x9c
 10780 2995 482A0000 		.4byte	0x2a48
 10781 2999 29       		.uleb128 0x29
 10782 299a 10000000 		.4byte	.LVL583
 10783 299e 00370000 		.4byte	0x3700
 10784 29a2 B9290000 		.4byte	0x29b9
 10785 29a6 2A       		.uleb128 0x2a
 10786 29a7 01       		.uleb128 0x1
 10787 29a8 52       		.byte	0x52
 10788 29a9 03       		.uleb128 0x3
 10789 29aa 0A       		.byte	0xa
 10790 29ab 4401     		.2byte	0x144
 10791 29ad 2A       		.uleb128 0x2a
 10792 29ae 01       		.uleb128 0x1
 10793 29af 51       		.byte	0x51
 10794 29b0 01       		.uleb128 0x1
 10795 29b1 30       		.byte	0x30
 10796 29b2 2A       		.uleb128 0x2a
ARM GAS  C:\Users\SDEVAS~1\AppData\Local\Temp\ccPhqTSe.s 			page 213


 10797 29b3 01       		.uleb128 0x1
 10798 29b4 50       		.byte	0x50
 10799 29b5 02       		.uleb128 0x2
 10800 29b6 74       		.byte	0x74
 10801 29b7 00       		.sleb128 0
 10802 29b8 00       		.byte	0
 10803 29b9 29       		.uleb128 0x29
 10804 29ba 16000000 		.4byte	.LVL584
 10805 29be 1D370000 		.4byte	0x371d
 10806 29c2 D0290000 		.4byte	0x29d0
 10807 29c6 2A       		.uleb128 0x2a
 10808 29c7 01       		.uleb128 0x1
 10809 29c8 50       		.byte	0x50
 10810 29c9 05       		.uleb128 0x5
 10811 29ca 03       		.byte	0x3
 10812 29cb 00000000 		.4byte	rs485_selected_as_slave_callback
 10813 29cf 00       		.byte	0
 10814 29d0 29       		.uleb128 0x29
 10815 29d1 1C000000 		.4byte	.LVL585
 10816 29d5 2E370000 		.4byte	0x372e
 10817 29d9 E7290000 		.4byte	0x29e7
 10818 29dd 2A       		.uleb128 0x2a
 10819 29de 01       		.uleb128 0x1
 10820 29df 50       		.byte	0x50
 10821 29e0 05       		.uleb128 0x5
 10822 29e1 03       		.byte	0x3
 10823 29e2 00000000 		.4byte	rs485_released_as_slave_callback
 10824 29e6 00       		.byte	0
 10825 29e7 29       		.uleb128 0x29
 10826 29e8 2C000000 		.4byte	.LVL586
 10827 29ec 3F370000 		.4byte	0x373f
 10828 29f0 072A0000 		.4byte	0x2a07
 10829 29f4 2A       		.uleb128 0x2a
 10830 29f5 01       		.uleb128 0x1
 10831 29f6 52       		.byte	0x52
 10832 29f7 02       		.uleb128 0x2
 10833 29f8 75       		.byte	0x75
 10834 29f9 00       		.sleb128 0
 10835 29fa 2A       		.uleb128 0x2a
 10836 29fb 01       		.uleb128 0x1
 10837 29fc 51       		.byte	0x51
 10838 29fd 02       		.uleb128 0x2
 10839 29fe 74       		.byte	0x74
 10840 29ff 00       		.sleb128 0
 10841 2a00 2A       		.uleb128 0x2a
 10842 2a01 01       		.uleb128 0x1
 10843 2a02 50       		.byte	0x50
 10844 2a03 02       		.uleb128 0x2
 10845 2a04 76       		.byte	0x76
 10846 2a05 00       		.sleb128 0
 10847 2a06 00       		.byte	0
 10848 2a07 29       		.uleb128 0x29
 10849 2a08 36000000 		.4byte	.LVL587
 10850 2a0c 5A370000 		.4byte	0x375a
 10851 2a10 272A0000 		.4byte	0x2a27
 10852 2a14 2A       		.uleb128 0x2a
 10853 2a15 01       		.uleb128 0x1
ARM GAS  C:\Users\SDEVAS~1\AppData\Local\Temp\ccPhqTSe.s 			page 214


 10854 2a16 52       		.byte	0x52
 10855 2a17 02       		.uleb128 0x2
 10856 2a18 75       		.byte	0x75
 10857 2a19 00       		.sleb128 0
 10858 2a1a 2A       		.uleb128 0x2a
 10859 2a1b 01       		.uleb128 0x1
 10860 2a1c 51       		.byte	0x51
 10861 2a1d 02       		.uleb128 0x2
 10862 2a1e 74       		.byte	0x74
 10863 2a1f 00       		.sleb128 0
 10864 2a20 2A       		.uleb128 0x2a
 10865 2a21 01       		.uleb128 0x1
 10866 2a22 50       		.byte	0x50
 10867 2a23 02       		.uleb128 0x2
 10868 2a24 76       		.byte	0x76
 10869 2a25 00       		.sleb128 0
 10870 2a26 00       		.byte	0
 10871 2a27 29       		.uleb128 0x29
 10872 2a28 3C000000 		.4byte	.LVL588
 10873 2a2c 75370000 		.4byte	0x3775
 10874 2a30 3E2A0000 		.4byte	0x2a3e
 10875 2a34 2A       		.uleb128 0x2a
 10876 2a35 01       		.uleb128 0x1
 10877 2a36 50       		.byte	0x50
 10878 2a37 05       		.uleb128 0x5
 10879 2a38 03       		.byte	0x3
 10880 2a39 00000000 		.4byte	rs485_wake_callback
 10881 2a3d 00       		.byte	0
 10882 2a3e 2C       		.uleb128 0x2c
 10883 2a3f 40000000 		.4byte	.LVL589
 10884 2a43 86370000 		.4byte	0x3786
 10885 2a47 00       		.byte	0
 10886 2a48 43       		.uleb128 0x43
 10887 2a49 60100000 		.4byte	.LASF168
 10888 2a4d 01       		.byte	0x1
 10889 2a4e BB01     		.2byte	0x1bb
 10890 2a50 1A010000 		.4byte	0x11a
 10891 2a54 01       		.byte	0x1
 10892 2a55 722A0000 		.4byte	0x2a72
 10893 2a59 17       		.uleb128 0x17
 10894 2a5a 6B0A0000 		.4byte	.LASF169
 10895 2a5e 01       		.byte	0x1
 10896 2a5f BB01     		.2byte	0x1bb
 10897 2a61 A5000000 		.4byte	0xa5
 10898 2a65 17       		.uleb128 0x17
 10899 2a66 70100000 		.4byte	.LASF170
 10900 2a6a 01       		.byte	0x1
 10901 2a6b BB01     		.2byte	0x1bb
 10902 2a6d A5000000 		.4byte	0xa5
 10903 2a71 00       		.byte	0
 10904 2a72 22       		.uleb128 0x22
 10905 2a73 7D0D0000 		.4byte	.LASF171
 10906 2a77 01       		.byte	0x1
 10907 2a78 FA01     		.2byte	0x1fa
 10908 2a7a 00000000 		.4byte	.LFB57
 10909 2a7e 48000000 		.4byte	.LFE57-.LFB57
 10910 2a82 01       		.uleb128 0x1
ARM GAS  C:\Users\SDEVAS~1\AppData\Local\Temp\ccPhqTSe.s 			page 215


 10911 2a83 9C       		.byte	0x9c
 10912 2a84 032B0000 		.4byte	0x2b03
 10913 2a88 23       		.uleb128 0x23
 10914 2a89 BF080000 		.4byte	.LASF150
 10915 2a8d 01       		.byte	0x1
 10916 2a8e FA01     		.2byte	0x1fa
 10917 2a90 CD000000 		.4byte	0xcd
 10918 2a94 05140000 		.4byte	.LLST71
 10919 2a98 23       		.uleb128 0x23
 10920 2a99 D5060000 		.4byte	.LASF151
 10921 2a9d 01       		.byte	0x1
 10922 2a9e FA01     		.2byte	0x1fa
 10923 2aa0 68000000 		.4byte	0x68
 10924 2aa4 4F140000 		.4byte	.LLST72
 10925 2aa8 23       		.uleb128 0x23
 10926 2aa9 6B0A0000 		.4byte	.LASF169
 10927 2aad 01       		.byte	0x1
 10928 2aae FA01     		.2byte	0x1fa
 10929 2ab0 A5000000 		.4byte	0xa5
 10930 2ab4 99140000 		.4byte	.LLST73
 10931 2ab8 23       		.uleb128 0x23
 10932 2ab9 70100000 		.4byte	.LASF170
 10933 2abd 01       		.byte	0x1
 10934 2abe FA01     		.2byte	0x1fa
 10935 2ac0 A5000000 		.4byte	0xa5
 10936 2ac4 C6140000 		.4byte	.LLST74
 10937 2ac8 3E       		.uleb128 0x3e
 10938 2ac9 482A0000 		.4byte	0x2a48
 10939 2acd 10000000 		.4byte	.LBB41
 10940 2ad1 10000000 		.4byte	.LBE41-.LBB41
 10941 2ad5 01       		.byte	0x1
 10942 2ad6 FD01     		.2byte	0x1fd
 10943 2ad8 EF2A0000 		.4byte	0x2aef
 10944 2adc 2E       		.uleb128 0x2e
 10945 2add 652A0000 		.4byte	0x2a65
 10946 2ae1 E7140000 		.4byte	.LLST75
 10947 2ae5 2E       		.uleb128 0x2e
 10948 2ae6 592A0000 		.4byte	0x2a59
 10949 2aea FA140000 		.4byte	.LLST76
 10950 2aee 00       		.byte	0
 10951 2aef 2B       		.uleb128 0x2b
 10952 2af0 38000000 		.4byte	.LVL599
 10953 2af4 8D370000 		.4byte	0x378d
 10954 2af8 2A       		.uleb128 0x2a
 10955 2af9 01       		.uleb128 0x1
 10956 2afa 50       		.byte	0x50
 10957 2afb 05       		.uleb128 0x5
 10958 2afc 03       		.byte	0x3
 10959 2afd 00000000 		.4byte	rs485_bus_granted_callback
 10960 2b01 00       		.byte	0
 10961 2b02 00       		.byte	0
 10962 2b03 22       		.uleb128 0x22
 10963 2b04 B6030000 		.4byte	.LASF172
 10964 2b08 01       		.byte	0x1
 10965 2b09 1002     		.2byte	0x210
 10966 2b0b 00000000 		.4byte	.LFB59
 10967 2b0f EC020000 		.4byte	.LFE59-.LFB59
ARM GAS  C:\Users\SDEVAS~1\AppData\Local\Temp\ccPhqTSe.s 			page 216


 10968 2b13 01       		.uleb128 0x1
 10969 2b14 9C       		.byte	0x9c
 10970 2b15 F22F0000 		.4byte	0x2ff2
 10971 2b19 44       		.uleb128 0x44
 10972 2b1a 49120000 		.4byte	.LASF173
 10973 2b1e 01       		.byte	0x1
 10974 2b1f 1102     		.2byte	0x211
 10975 2b21 68000000 		.4byte	0x68
 10976 2b25 05       		.uleb128 0x5
 10977 2b26 03       		.byte	0x3
 10978 2b27 34000000 		.4byte	error_counter.6372
 10979 2b2b 44       		.uleb128 0x44
 10980 2b2c D20F0000 		.4byte	.LASF174
 10981 2b30 01       		.byte	0x1
 10982 2b31 1202     		.2byte	0x212
 10983 2b33 68000000 		.4byte	0x68
 10984 2b37 05       		.uleb128 0x5
 10985 2b38 03       		.byte	0x3
 10986 2b39 38000000 		.4byte	timeout_counter.6373
 10987 2b3d 2F       		.uleb128 0x2f
 10988 2b3e 42000000 		.4byte	.LBB61
 10989 2b42 2C010000 		.4byte	.LBE61-.LBB61
 10990 2b46 F72D0000 		.4byte	0x2df7
 10991 2b4a 45       		.uleb128 0x45
 10992 2b4b 7200     		.ascii	"r\000"
 10993 2b4d 01       		.byte	0x1
 10994 2b4e 2502     		.2byte	0x225
 10995 2b50 68000000 		.4byte	0x68
 10996 2b54 0D150000 		.4byte	.LLST77
 10997 2b58 2F       		.uleb128 0x2f
 10998 2b59 7C000000 		.4byte	.LBB62
 10999 2b5d F2000000 		.4byte	.LBE62-.LBB62
 11000 2b61 BC2D0000 		.4byte	0x2dbc
 11001 2b65 46       		.uleb128 0x46
 11002 2b66 94130000 		.4byte	.LASF175
 11003 2b6a 01       		.byte	0x1
 11004 2b6b 2702     		.2byte	0x227
 11005 2b6d 8B030000 		.4byte	0x38b
 11006 2b71 38150000 		.4byte	.LLST78
 11007 2b75 47       		.uleb128 0x47
 11008 2b76 A6050000 		.4byte	0x5a6
 11009 2b7a 90000000 		.4byte	.LBB63
 11010 2b7e 50000000 		.4byte	.Ldebug_ranges0+0x50
 11011 2b82 01       		.byte	0x1
 11012 2b83 2A02     		.2byte	0x22a
 11013 2b85 052C0000 		.4byte	0x2c05
 11014 2b89 2E       		.uleb128 0x2e
 11015 2b8a E7050000 		.4byte	0x5e7
 11016 2b8e 62150000 		.4byte	.LLST79
 11017 2b92 2E       		.uleb128 0x2e
 11018 2b93 DB050000 		.4byte	0x5db
 11019 2b97 76150000 		.4byte	.LLST80
 11020 2b9b 2E       		.uleb128 0x2e
 11021 2b9c CF050000 		.4byte	0x5cf
 11022 2ba0 8E150000 		.4byte	.LLST81
 11023 2ba4 2E       		.uleb128 0x2e
 11024 2ba5 C3050000 		.4byte	0x5c3
ARM GAS  C:\Users\SDEVAS~1\AppData\Local\Temp\ccPhqTSe.s 			page 217


 11025 2ba9 A5150000 		.4byte	.LLST82
 11026 2bad 2E       		.uleb128 0x2e
 11027 2bae B7050000 		.4byte	0x5b7
 11028 2bb2 B8150000 		.4byte	.LLST83
 11029 2bb6 33       		.uleb128 0x33
 11030 2bb7 50000000 		.4byte	.Ldebug_ranges0+0x50
 11031 2bbb 3F       		.uleb128 0x3f
 11032 2bbc F3050000 		.4byte	0x5f3
 11033 2bc0 34       		.uleb128 0x34
 11034 2bc1 FB050000 		.4byte	0x5fb
 11035 2bc5 34       		.uleb128 0x34
 11036 2bc6 05060000 		.4byte	0x605
 11037 2bca 34       		.uleb128 0x34
 11038 2bcb 11060000 		.4byte	0x611
 11039 2bcf 34       		.uleb128 0x34
 11040 2bd0 1D060000 		.4byte	0x61d
 11041 2bd4 34       		.uleb128 0x34
 11042 2bd5 29060000 		.4byte	0x629
 11043 2bd9 34       		.uleb128 0x34
 11044 2bda 35060000 		.4byte	0x635
 11045 2bde 34       		.uleb128 0x34
 11046 2bdf 41060000 		.4byte	0x641
 11047 2be3 2B       		.uleb128 0x2b
 11048 2be4 9E000000 		.4byte	.LVL609
 11049 2be8 86160000 		.4byte	0x1686
 11050 2bec 2A       		.uleb128 0x2a
 11051 2bed 01       		.uleb128 0x1
 11052 2bee 51       		.byte	0x51
 11053 2bef 02       		.uleb128 0x2
 11054 2bf0 76       		.byte	0x76
 11055 2bf1 00       		.sleb128 0
 11056 2bf2 40       		.uleb128 0x40
 11057 2bf3 B7050000 		.4byte	0x5b7
 11058 2bf7 01       		.uleb128 0x1
 11059 2bf8 31       		.byte	0x31
 11060 2bf9 40       		.uleb128 0x40
 11061 2bfa E7050000 		.4byte	0x5e7
 11062 2bfe 03       		.uleb128 0x3
 11063 2bff 91       		.byte	0x91
 11064 2c00 64       		.sleb128 -28
 11065 2c01 06       		.byte	0x6
 11066 2c02 00       		.byte	0
 11067 2c03 00       		.byte	0
 11068 2c04 00       		.byte	0
 11069 2c05 3E       		.uleb128 0x3e
 11070 2c06 4C060000 		.4byte	0x64c
 11071 2c0a CE000000 		.4byte	.LBB67
 11072 2c0e 0C000000 		.4byte	.LBE67-.LBB67
 11073 2c12 01       		.byte	0x1
 11074 2c13 2E02     		.2byte	0x22e
 11075 2c15 6C2C0000 		.4byte	0x2c6c
 11076 2c19 2E       		.uleb128 0x2e
 11077 2c1a 8D060000 		.4byte	0x68d
 11078 2c1e CF150000 		.4byte	.LLST84
 11079 2c22 2E       		.uleb128 0x2e
 11080 2c23 81060000 		.4byte	0x681
 11081 2c27 E3150000 		.4byte	.LLST85
ARM GAS  C:\Users\SDEVAS~1\AppData\Local\Temp\ccPhqTSe.s 			page 218


 11082 2c2b 2E       		.uleb128 0x2e
 11083 2c2c 75060000 		.4byte	0x675
 11084 2c30 FB150000 		.4byte	.LLST86
 11085 2c34 2E       		.uleb128 0x2e
 11086 2c35 69060000 		.4byte	0x669
 11087 2c39 12160000 		.4byte	.LLST87
 11088 2c3d 2E       		.uleb128 0x2e
 11089 2c3e 5D060000 		.4byte	0x65d
 11090 2c42 29160000 		.4byte	.LLST88
 11091 2c46 2B       		.uleb128 0x2b
 11092 2c47 D8000000 		.4byte	.LVL615
 11093 2c4b BA210000 		.4byte	0x21ba
 11094 2c4f 40       		.uleb128 0x40
 11095 2c50 5D060000 		.4byte	0x65d
 11096 2c54 01       		.uleb128 0x1
 11097 2c55 30       		.byte	0x30
 11098 2c56 40       		.uleb128 0x40
 11099 2c57 81060000 		.4byte	0x681
 11100 2c5b 05       		.uleb128 0x5
 11101 2c5c 03       		.byte	0x3
 11102 2c5d 00000000 		.4byte	tokens
 11103 2c61 40       		.uleb128 0x40
 11104 2c62 8D060000 		.4byte	0x68d
 11105 2c66 03       		.uleb128 0x3
 11106 2c67 91       		.byte	0x91
 11107 2c68 64       		.sleb128 -28
 11108 2c69 06       		.byte	0x6
 11109 2c6a 00       		.byte	0
 11110 2c6b 00       		.byte	0
 11111 2c6c 29       		.uleb128 0x29
 11112 2c6d 8C000000 		.4byte	.LVL607
 11113 2c71 BA310000 		.4byte	0x31ba
 11114 2c75 902C0000 		.4byte	0x2c90
 11115 2c79 2A       		.uleb128 0x2a
 11116 2c7a 01       		.uleb128 0x1
 11117 2c7b 52       		.byte	0x52
 11118 2c7c 03       		.uleb128 0x3
 11119 2c7d 91       		.byte	0x91
 11120 2c7e 60       		.sleb128 -32
 11121 2c7f 06       		.byte	0x6
 11122 2c80 2A       		.uleb128 0x2a
 11123 2c81 01       		.uleb128 0x1
 11124 2c82 51       		.byte	0x51
 11125 2c83 05       		.uleb128 0x5
 11126 2c84 03       		.byte	0x3
 11127 2c85 20090000 		.4byte	.LC262
 11128 2c89 2A       		.uleb128 0x2a
 11129 2c8a 01       		.uleb128 0x1
 11130 2c8b 50       		.byte	0x50
 11131 2c8c 02       		.uleb128 0x2
 11132 2c8d 77       		.byte	0x77
 11133 2c8e 00       		.sleb128 0
 11134 2c8f 00       		.byte	0
 11135 2c90 29       		.uleb128 0x29
 11136 2c91 AA000000 		.4byte	.LVL611
 11137 2c95 BA310000 		.4byte	0x31ba
 11138 2c99 B42C0000 		.4byte	0x2cb4
ARM GAS  C:\Users\SDEVAS~1\AppData\Local\Temp\ccPhqTSe.s 			page 219


 11139 2c9d 2A       		.uleb128 0x2a
 11140 2c9e 01       		.uleb128 0x1
 11141 2c9f 52       		.byte	0x52
 11142 2ca0 03       		.uleb128 0x3
 11143 2ca1 91       		.byte	0x91
 11144 2ca2 60       		.sleb128 -32
 11145 2ca3 06       		.byte	0x6
 11146 2ca4 2A       		.uleb128 0x2a
 11147 2ca5 01       		.uleb128 0x1
 11148 2ca6 51       		.byte	0x51
 11149 2ca7 05       		.uleb128 0x5
 11150 2ca8 03       		.byte	0x3
 11151 2ca9 24090000 		.4byte	.LC264
 11152 2cad 2A       		.uleb128 0x2a
 11153 2cae 01       		.uleb128 0x1
 11154 2caf 50       		.byte	0x50
 11155 2cb0 02       		.uleb128 0x2
 11156 2cb1 77       		.byte	0x77
 11157 2cb2 00       		.sleb128 0
 11158 2cb3 00       		.byte	0
 11159 2cb4 29       		.uleb128 0x29
 11160 2cb5 BE000000 		.4byte	.LVL612
 11161 2cb9 1E050000 		.4byte	0x51e
 11162 2cbd D02C0000 		.4byte	0x2cd0
 11163 2cc1 2A       		.uleb128 0x2a
 11164 2cc2 01       		.uleb128 0x1
 11165 2cc3 53       		.byte	0x53
 11166 2cc4 02       		.uleb128 0x2
 11167 2cc5 76       		.byte	0x76
 11168 2cc6 00       		.sleb128 0
 11169 2cc7 2A       		.uleb128 0x2a
 11170 2cc8 02       		.uleb128 0x2
 11171 2cc9 7D       		.byte	0x7d
 11172 2cca 00       		.sleb128 0
 11173 2ccb 03       		.uleb128 0x3
 11174 2ccc 91       		.byte	0x91
 11175 2ccd 64       		.sleb128 -28
 11176 2cce 06       		.byte	0x6
 11177 2ccf 00       		.byte	0
 11178 2cd0 29       		.uleb128 0x29
 11179 2cd1 CA000000 		.4byte	.LVL613
 11180 2cd5 BA310000 		.4byte	0x31ba
 11181 2cd9 F42C0000 		.4byte	0x2cf4
 11182 2cdd 2A       		.uleb128 0x2a
 11183 2cde 01       		.uleb128 0x1
 11184 2cdf 52       		.byte	0x52
 11185 2ce0 03       		.uleb128 0x3
 11186 2ce1 91       		.byte	0x91
 11187 2ce2 60       		.sleb128 -32
 11188 2ce3 06       		.byte	0x6
 11189 2ce4 2A       		.uleb128 0x2a
 11190 2ce5 01       		.uleb128 0x1
 11191 2ce6 51       		.byte	0x51
 11192 2ce7 05       		.uleb128 0x5
 11193 2ce8 03       		.byte	0x3
 11194 2ce9 28090000 		.4byte	.LC266
 11195 2ced 2A       		.uleb128 0x2a
ARM GAS  C:\Users\SDEVAS~1\AppData\Local\Temp\ccPhqTSe.s 			page 220


 11196 2cee 01       		.uleb128 0x1
 11197 2cef 50       		.byte	0x50
 11198 2cf0 02       		.uleb128 0x2
 11199 2cf1 77       		.byte	0x77
 11200 2cf2 00       		.sleb128 0
 11201 2cf3 00       		.byte	0
 11202 2cf4 29       		.uleb128 0x29
 11203 2cf5 E4000000 		.4byte	.LVL617
 11204 2cf9 BA310000 		.4byte	0x31ba
 11205 2cfd 182D0000 		.4byte	0x2d18
 11206 2d01 2A       		.uleb128 0x2a
 11207 2d02 01       		.uleb128 0x1
 11208 2d03 52       		.byte	0x52
 11209 2d04 03       		.uleb128 0x3
 11210 2d05 91       		.byte	0x91
 11211 2d06 60       		.sleb128 -32
 11212 2d07 06       		.byte	0x6
 11213 2d08 2A       		.uleb128 0x2a
 11214 2d09 01       		.uleb128 0x1
 11215 2d0a 51       		.byte	0x51
 11216 2d0b 05       		.uleb128 0x5
 11217 2d0c 03       		.byte	0x3
 11218 2d0d 2D090000 		.4byte	.LC268
 11219 2d11 2A       		.uleb128 0x2a
 11220 2d12 01       		.uleb128 0x1
 11221 2d13 50       		.byte	0x50
 11222 2d14 02       		.uleb128 0x2
 11223 2d15 77       		.byte	0x77
 11224 2d16 00       		.sleb128 0
 11225 2d17 00       		.byte	0
 11226 2d18 29       		.uleb128 0x29
 11227 2d19 F8000000 		.4byte	.LVL618
 11228 2d1d 0A280000 		.4byte	0x280a
 11229 2d21 342D0000 		.4byte	0x2d34
 11230 2d25 2A       		.uleb128 0x2a
 11231 2d26 01       		.uleb128 0x1
 11232 2d27 53       		.byte	0x53
 11233 2d28 02       		.uleb128 0x2
 11234 2d29 76       		.byte	0x76
 11235 2d2a 00       		.sleb128 0
 11236 2d2b 2A       		.uleb128 0x2a
 11237 2d2c 02       		.uleb128 0x2
 11238 2d2d 7D       		.byte	0x7d
 11239 2d2e 00       		.sleb128 0
 11240 2d2f 03       		.uleb128 0x3
 11241 2d30 91       		.byte	0x91
 11242 2d31 64       		.sleb128 -28
 11243 2d32 06       		.byte	0x6
 11244 2d33 00       		.byte	0
 11245 2d34 29       		.uleb128 0x29
 11246 2d35 04010000 		.4byte	.LVL619
 11247 2d39 BA310000 		.4byte	0x31ba
 11248 2d3d 582D0000 		.4byte	0x2d58
 11249 2d41 2A       		.uleb128 0x2a
 11250 2d42 01       		.uleb128 0x1
 11251 2d43 52       		.byte	0x52
 11252 2d44 03       		.uleb128 0x3
ARM GAS  C:\Users\SDEVAS~1\AppData\Local\Temp\ccPhqTSe.s 			page 221


 11253 2d45 91       		.byte	0x91
 11254 2d46 60       		.sleb128 -32
 11255 2d47 06       		.byte	0x6
 11256 2d48 2A       		.uleb128 0x2a
 11257 2d49 01       		.uleb128 0x1
 11258 2d4a 51       		.byte	0x51
 11259 2d4b 05       		.uleb128 0x5
 11260 2d4c 03       		.byte	0x3
 11261 2d4d 34090000 		.4byte	.LC270
 11262 2d51 2A       		.uleb128 0x2a
 11263 2d52 01       		.uleb128 0x1
 11264 2d53 50       		.byte	0x50
 11265 2d54 02       		.uleb128 0x2
 11266 2d55 77       		.byte	0x77
 11267 2d56 00       		.sleb128 0
 11268 2d57 00       		.byte	0
 11269 2d58 29       		.uleb128 0x29
 11270 2d59 18010000 		.4byte	.LVL620
 11271 2d5d 9A060000 		.4byte	0x69a
 11272 2d61 742D0000 		.4byte	0x2d74
 11273 2d65 2A       		.uleb128 0x2a
 11274 2d66 01       		.uleb128 0x1
 11275 2d67 53       		.byte	0x53
 11276 2d68 02       		.uleb128 0x2
 11277 2d69 76       		.byte	0x76
 11278 2d6a 00       		.sleb128 0
 11279 2d6b 2A       		.uleb128 0x2a
 11280 2d6c 02       		.uleb128 0x2
 11281 2d6d 7D       		.byte	0x7d
 11282 2d6e 00       		.sleb128 0
 11283 2d6f 03       		.uleb128 0x3
 11284 2d70 91       		.byte	0x91
 11285 2d71 64       		.sleb128 -28
 11286 2d72 06       		.byte	0x6
 11287 2d73 00       		.byte	0
 11288 2d74 29       		.uleb128 0x29
 11289 2d75 20010000 		.4byte	.LVL622
 11290 2d79 F5220000 		.4byte	0x22f5
 11291 2d7d 882D0000 		.4byte	0x2d88
 11292 2d81 2A       		.uleb128 0x2a
 11293 2d82 01       		.uleb128 0x1
 11294 2d83 50       		.byte	0x50
 11295 2d84 02       		.uleb128 0x2
 11296 2d85 74       		.byte	0x74
 11297 2d86 00       		.sleb128 0
 11298 2d87 00       		.byte	0
 11299 2d88 29       		.uleb128 0x29
 11300 2d89 5C010000 		.4byte	.LVL624
 11301 2d8d A2370000 		.4byte	0x37a2
 11302 2d91 A82D0000 		.4byte	0x2da8
 11303 2d95 2A       		.uleb128 0x2a
 11304 2d96 01       		.uleb128 0x1
 11305 2d97 52       		.byte	0x52
 11306 2d98 05       		.uleb128 0x5
 11307 2d99 03       		.byte	0x3
 11308 2d9a 00000000 		.4byte	rs485_frame_sent_callback
 11309 2d9e 2A       		.uleb128 0x2a
ARM GAS  C:\Users\SDEVAS~1\AppData\Local\Temp\ccPhqTSe.s 			page 222


 11310 2d9f 01       		.uleb128 0x1
 11311 2da0 50       		.byte	0x50
 11312 2da1 05       		.uleb128 0x5
 11313 2da2 03       		.byte	0x3
 11314 2da3 00000000 		.4byte	respBuff
 11315 2da7 00       		.byte	0
 11316 2da8 2B       		.uleb128 0x2b
 11317 2da9 6E010000 		.4byte	.LVL626
 11318 2dad E7310000 		.4byte	0x31e7
 11319 2db1 2A       		.uleb128 0x2a
 11320 2db2 01       		.uleb128 0x1
 11321 2db3 50       		.byte	0x50
 11322 2db4 05       		.uleb128 0x5
 11323 2db5 03       		.byte	0x3
 11324 2db6 00000000 		.4byte	rs485_slave_released_callback
 11325 2dba 00       		.byte	0
 11326 2dbb 00       		.byte	0
 11327 2dbc 2C       		.uleb128 0x2c
 11328 2dbd 5E000000 		.4byte	.LVL601
 11329 2dc1 07080000 		.4byte	0x807
 11330 2dc5 29       		.uleb128 0x29
 11331 2dc6 64000000 		.4byte	.LVL602
 11332 2dca AF360000 		.4byte	0x36af
 11333 2dce D92D0000 		.4byte	0x2dd9
 11334 2dd2 2A       		.uleb128 0x2a
 11335 2dd3 01       		.uleb128 0x1
 11336 2dd4 50       		.byte	0x50
 11337 2dd5 02       		.uleb128 0x2
 11338 2dd6 77       		.byte	0x77
 11339 2dd7 00       		.sleb128 0
 11340 2dd8 00       		.byte	0
 11341 2dd9 2B       		.uleb128 0x2b
 11342 2dda 76000000 		.4byte	.LVL603
 11343 2dde C6360000 		.4byte	0x36c6
 11344 2de2 2A       		.uleb128 0x2a
 11345 2de3 01       		.uleb128 0x1
 11346 2de4 53       		.byte	0x53
 11347 2de5 02       		.uleb128 0x2
 11348 2de6 76       		.byte	0x76
 11349 2de7 00       		.sleb128 0
 11350 2de8 2A       		.uleb128 0x2a
 11351 2de9 01       		.uleb128 0x1
 11352 2dea 50       		.byte	0x50
 11353 2deb 02       		.uleb128 0x2
 11354 2dec 77       		.byte	0x77
 11355 2ded 00       		.sleb128 0
 11356 2dee 2A       		.uleb128 0x2a
 11357 2def 02       		.uleb128 0x2
 11358 2df0 7D       		.byte	0x7d
 11359 2df1 00       		.sleb128 0
 11360 2df2 02       		.uleb128 0x2
 11361 2df3 08       		.byte	0x8
 11362 2df4 3C       		.byte	0x3c
 11363 2df5 00       		.byte	0
 11364 2df6 00       		.byte	0
 11365 2df7 2F       		.uleb128 0x2f
 11366 2df8 DE010000 		.4byte	.LBB69
ARM GAS  C:\Users\SDEVAS~1\AppData\Local\Temp\ccPhqTSe.s 			page 223


 11367 2dfc C2000000 		.4byte	.LBE69-.LBB69
 11368 2e00 A12F0000 		.4byte	0x2fa1
 11369 2e04 46       		.uleb128 0x46
 11370 2e05 94130000 		.4byte	.LASF175
 11371 2e09 01       		.byte	0x1
 11372 2e0a 6F02     		.2byte	0x26f
 11373 2e0c 8B030000 		.4byte	0x38b
 11374 2e10 40160000 		.4byte	.LLST89
 11375 2e14 3E       		.uleb128 0x3e
 11376 2e15 4C060000 		.4byte	0x64c
 11377 2e19 3E020000 		.4byte	.LBB70
 11378 2e1d 06000000 		.4byte	.LBE70-.LBB70
 11379 2e21 01       		.byte	0x1
 11380 2e22 7602     		.2byte	0x276
 11381 2e24 832E0000 		.4byte	0x2e83
 11382 2e28 2E       		.uleb128 0x2e
 11383 2e29 8D060000 		.4byte	0x68d
 11384 2e2d 81160000 		.4byte	.LLST90
 11385 2e31 2E       		.uleb128 0x2e
 11386 2e32 81060000 		.4byte	0x681
 11387 2e36 81160000 		.4byte	.LLST90
 11388 2e3a 2E       		.uleb128 0x2e
 11389 2e3b 75060000 		.4byte	0x675
 11390 2e3f 81160000 		.4byte	.LLST90
 11391 2e43 2E       		.uleb128 0x2e
 11392 2e44 69060000 		.4byte	0x669
 11393 2e48 81160000 		.4byte	.LLST90
 11394 2e4c 2E       		.uleb128 0x2e
 11395 2e4d 5D060000 		.4byte	0x65d
 11396 2e51 81160000 		.4byte	.LLST90
 11397 2e55 2B       		.uleb128 0x2b
 11398 2e56 42020000 		.4byte	.LVL636
 11399 2e5a BA210000 		.4byte	0x21ba
 11400 2e5e 40       		.uleb128 0x40
 11401 2e5f 5D060000 		.4byte	0x65d
 11402 2e63 01       		.uleb128 0x1
 11403 2e64 30       		.byte	0x30
 11404 2e65 40       		.uleb128 0x40
 11405 2e66 69060000 		.4byte	0x669
 11406 2e6a 01       		.uleb128 0x1
 11407 2e6b 30       		.byte	0x30
 11408 2e6c 40       		.uleb128 0x40
 11409 2e6d 75060000 		.4byte	0x675
 11410 2e71 01       		.uleb128 0x1
 11411 2e72 30       		.byte	0x30
 11412 2e73 40       		.uleb128 0x40
 11413 2e74 81060000 		.4byte	0x681
 11414 2e78 01       		.uleb128 0x1
 11415 2e79 30       		.byte	0x30
 11416 2e7a 40       		.uleb128 0x40
 11417 2e7b 8D060000 		.4byte	0x68d
 11418 2e7f 01       		.uleb128 0x1
 11419 2e80 30       		.byte	0x30
 11420 2e81 00       		.byte	0
 11421 2e82 00       		.byte	0
 11422 2e83 29       		.uleb128 0x29
 11423 2e84 EA010000 		.4byte	.LVL630
ARM GAS  C:\Users\SDEVAS~1\AppData\Local\Temp\ccPhqTSe.s 			page 224


 11424 2e88 C1370000 		.4byte	0x37c1
 11425 2e8c 9A2E0000 		.4byte	0x2e9a
 11426 2e90 2A       		.uleb128 0x2a
 11427 2e91 01       		.uleb128 0x1
 11428 2e92 51       		.byte	0x51
 11429 2e93 05       		.uleb128 0x5
 11430 2e94 03       		.byte	0x3
 11431 2e95 00000000 		.4byte	rs485_slave_selected_callback
 11432 2e99 00       		.byte	0
 11433 2e9a 29       		.uleb128 0x29
 11434 2e9b 10020000 		.4byte	.LVL631
 11435 2e9f 07080000 		.4byte	0x807
 11436 2ea3 C12E0000 		.4byte	0x2ec1
 11437 2ea7 2A       		.uleb128 0x2a
 11438 2ea8 01       		.uleb128 0x1
 11439 2ea9 53       		.byte	0x53
 11440 2eaa 01       		.uleb128 0x1
 11441 2eab 4B       		.byte	0x4b
 11442 2eac 2A       		.uleb128 0x2a
 11443 2ead 01       		.uleb128 0x1
 11444 2eae 52       		.byte	0x52
 11445 2eaf 05       		.uleb128 0x5
 11446 2eb0 03       		.byte	0x3
 11447 2eb1 39090000 		.4byte	.LC274
 11448 2eb5 2A       		.uleb128 0x2a
 11449 2eb6 01       		.uleb128 0x1
 11450 2eb7 51       		.byte	0x51
 11451 2eb8 01       		.uleb128 0x1
 11452 2eb9 4B       		.byte	0x4b
 11453 2eba 2A       		.uleb128 0x2a
 11454 2ebb 01       		.uleb128 0x1
 11455 2ebc 50       		.byte	0x50
 11456 2ebd 02       		.uleb128 0x2
 11457 2ebe 74       		.byte	0x74
 11458 2ebf 10       		.sleb128 16
 11459 2ec0 00       		.byte	0
 11460 2ec1 29       		.uleb128 0x29
 11461 2ec2 1E020000 		.4byte	.LVL632
 11462 2ec6 BA310000 		.4byte	0x31ba
 11463 2eca E42E0000 		.4byte	0x2ee4
 11464 2ece 2A       		.uleb128 0x2a
 11465 2ecf 01       		.uleb128 0x1
 11466 2ed0 52       		.byte	0x52
 11467 2ed1 02       		.uleb128 0x2
 11468 2ed2 76       		.byte	0x76
 11469 2ed3 00       		.sleb128 0
 11470 2ed4 2A       		.uleb128 0x2a
 11471 2ed5 01       		.uleb128 0x1
 11472 2ed6 51       		.byte	0x51
 11473 2ed7 05       		.uleb128 0x5
 11474 2ed8 03       		.byte	0x3
 11475 2ed9 20090000 		.4byte	.LC262
 11476 2edd 2A       		.uleb128 0x2a
 11477 2ede 01       		.uleb128 0x1
 11478 2edf 50       		.byte	0x50
 11479 2ee0 02       		.uleb128 0x2
 11480 2ee1 77       		.byte	0x77
ARM GAS  C:\Users\SDEVAS~1\AppData\Local\Temp\ccPhqTSe.s 			page 225


 11481 2ee2 00       		.sleb128 0
 11482 2ee3 00       		.byte	0
 11483 2ee4 29       		.uleb128 0x29
 11484 2ee5 2C020000 		.4byte	.LVL633
 11485 2ee9 BA310000 		.4byte	0x31ba
 11486 2eed 072F0000 		.4byte	0x2f07
 11487 2ef1 2A       		.uleb128 0x2a
 11488 2ef2 01       		.uleb128 0x1
 11489 2ef3 52       		.byte	0x52
 11490 2ef4 02       		.uleb128 0x2
 11491 2ef5 76       		.byte	0x76
 11492 2ef6 00       		.sleb128 0
 11493 2ef7 2A       		.uleb128 0x2a
 11494 2ef8 01       		.uleb128 0x1
 11495 2ef9 51       		.byte	0x51
 11496 2efa 05       		.uleb128 0x5
 11497 2efb 03       		.byte	0x3
 11498 2efc 24090000 		.4byte	.LC264
 11499 2f00 2A       		.uleb128 0x2a
 11500 2f01 01       		.uleb128 0x1
 11501 2f02 50       		.byte	0x50
 11502 2f03 02       		.uleb128 0x2
 11503 2f04 77       		.byte	0x77
 11504 2f05 00       		.sleb128 0
 11505 2f06 00       		.byte	0
 11506 2f07 29       		.uleb128 0x29
 11507 2f08 3A020000 		.4byte	.LVL634
 11508 2f0c BA310000 		.4byte	0x31ba
 11509 2f10 2A2F0000 		.4byte	0x2f2a
 11510 2f14 2A       		.uleb128 0x2a
 11511 2f15 01       		.uleb128 0x1
 11512 2f16 52       		.byte	0x52
 11513 2f17 02       		.uleb128 0x2
 11514 2f18 76       		.byte	0x76
 11515 2f19 00       		.sleb128 0
 11516 2f1a 2A       		.uleb128 0x2a
 11517 2f1b 01       		.uleb128 0x1
 11518 2f1c 51       		.byte	0x51
 11519 2f1d 05       		.uleb128 0x5
 11520 2f1e 03       		.byte	0x3
 11521 2f1f 28090000 		.4byte	.LC266
 11522 2f23 2A       		.uleb128 0x2a
 11523 2f24 01       		.uleb128 0x1
 11524 2f25 50       		.byte	0x50
 11525 2f26 02       		.uleb128 0x2
 11526 2f27 77       		.byte	0x77
 11527 2f28 00       		.sleb128 0
 11528 2f29 00       		.byte	0
 11529 2f2a 29       		.uleb128 0x29
 11530 2f2b 52020000 		.4byte	.LVL639
 11531 2f2f BA310000 		.4byte	0x31ba
 11532 2f33 4D2F0000 		.4byte	0x2f4d
 11533 2f37 2A       		.uleb128 0x2a
 11534 2f38 01       		.uleb128 0x1
 11535 2f39 52       		.byte	0x52
 11536 2f3a 02       		.uleb128 0x2
 11537 2f3b 76       		.byte	0x76
ARM GAS  C:\Users\SDEVAS~1\AppData\Local\Temp\ccPhqTSe.s 			page 226


 11538 2f3c 00       		.sleb128 0
 11539 2f3d 2A       		.uleb128 0x2a
 11540 2f3e 01       		.uleb128 0x1
 11541 2f3f 51       		.byte	0x51
 11542 2f40 05       		.uleb128 0x5
 11543 2f41 03       		.byte	0x3
 11544 2f42 2D090000 		.4byte	.LC268
 11545 2f46 2A       		.uleb128 0x2a
 11546 2f47 01       		.uleb128 0x1
 11547 2f48 50       		.byte	0x50
 11548 2f49 02       		.uleb128 0x2
 11549 2f4a 77       		.byte	0x77
 11550 2f4b 00       		.sleb128 0
 11551 2f4c 00       		.byte	0
 11552 2f4d 2C       		.uleb128 0x2c
 11553 2f4e 5C020000 		.4byte	.LVL641
 11554 2f52 F5220000 		.4byte	0x22f5
 11555 2f56 29       		.uleb128 0x29
 11556 2f57 90020000 		.4byte	.LVL643
 11557 2f5b A2370000 		.4byte	0x37a2
 11558 2f5f 762F0000 		.4byte	0x2f76
 11559 2f63 2A       		.uleb128 0x2a
 11560 2f64 01       		.uleb128 0x1
 11561 2f65 52       		.byte	0x52
 11562 2f66 05       		.uleb128 0x5
 11563 2f67 03       		.byte	0x3
 11564 2f68 00000000 		.4byte	rs485_frame_sent_callback
 11565 2f6c 2A       		.uleb128 0x2a
 11566 2f6d 01       		.uleb128 0x1
 11567 2f6e 50       		.byte	0x50
 11568 2f6f 05       		.uleb128 0x5
 11569 2f70 03       		.byte	0x3
 11570 2f71 00000000 		.4byte	respBuff
 11571 2f75 00       		.byte	0
 11572 2f76 29       		.uleb128 0x29
 11573 2f77 98020000 		.4byte	.LVL645
 11574 2f7b E7310000 		.4byte	0x31e7
 11575 2f7f 8D2F0000 		.4byte	0x2f8d
 11576 2f83 2A       		.uleb128 0x2a
 11577 2f84 01       		.uleb128 0x1
 11578 2f85 50       		.byte	0x50
 11579 2f86 05       		.uleb128 0x5
 11580 2f87 03       		.byte	0x3
 11581 2f88 00000000 		.4byte	rs485_slave_released_callback
 11582 2f8c 00       		.byte	0
 11583 2f8d 2B       		.uleb128 0x2b
 11584 2f8e A0020000 		.4byte	.LVL646
 11585 2f92 DB370000 		.4byte	0x37db
 11586 2f96 2A       		.uleb128 0x2a
 11587 2f97 01       		.uleb128 0x1
 11588 2f98 50       		.byte	0x50
 11589 2f99 05       		.uleb128 0x5
 11590 2f9a 03       		.byte	0x3
 11591 2f9b 00000000 		.4byte	rs485_bus_released_callback
 11592 2f9f 00       		.byte	0
 11593 2fa0 00       		.byte	0
 11594 2fa1 29       		.uleb128 0x29
ARM GAS  C:\Users\SDEVAS~1\AppData\Local\Temp\ccPhqTSe.s 			page 227


 11595 2fa2 24000000 		.4byte	.LVL600
 11596 2fa6 A1230000 		.4byte	0x23a1
 11597 2faa B52F0000 		.4byte	0x2fb5
 11598 2fae 2A       		.uleb128 0x2a
 11599 2faf 01       		.uleb128 0x1
 11600 2fb0 50       		.byte	0x50
 11601 2fb1 02       		.uleb128 0x2
 11602 2fb2 75       		.byte	0x75
 11603 2fb3 00       		.sleb128 0
 11604 2fb4 00       		.byte	0
 11605 2fb5 29       		.uleb128 0x29
 11606 2fb6 9C010000 		.4byte	.LVL627
 11607 2fba E7310000 		.4byte	0x31e7
 11608 2fbe CC2F0000 		.4byte	0x2fcc
 11609 2fc2 2A       		.uleb128 0x2a
 11610 2fc3 01       		.uleb128 0x1
 11611 2fc4 50       		.byte	0x50
 11612 2fc5 05       		.uleb128 0x5
 11613 2fc6 03       		.byte	0x3
 11614 2fc7 00000000 		.4byte	rs485_slave_released_callback
 11615 2fcb 00       		.byte	0
 11616 2fcc 2C       		.uleb128 0x2c
 11617 2fcd A2010000 		.4byte	.LVL628
 11618 2fd1 FC310000 		.4byte	0x31fc
 11619 2fd5 2B       		.uleb128 0x2b
 11620 2fd6 CC010000 		.4byte	.LVL629
 11621 2fda A2370000 		.4byte	0x37a2
 11622 2fde 2A       		.uleb128 0x2a
 11623 2fdf 01       		.uleb128 0x1
 11624 2fe0 52       		.byte	0x52
 11625 2fe1 05       		.uleb128 0x5
 11626 2fe2 03       		.byte	0x3
 11627 2fe3 00000000 		.4byte	rs485_frame_sent_callback
 11628 2fe7 2A       		.uleb128 0x2a
 11629 2fe8 01       		.uleb128 0x1
 11630 2fe9 50       		.byte	0x50
 11631 2fea 05       		.uleb128 0x5
 11632 2feb 03       		.byte	0x3
 11633 2fec 00000000 		.4byte	respBuff
 11634 2ff0 00       		.byte	0
 11635 2ff1 00       		.byte	0
 11636 2ff2 14       		.uleb128 0x14
 11637 2ff3 CD000000 		.4byte	0xcd
 11638 2ff7 02300000 		.4byte	0x3002
 11639 2ffb 48       		.uleb128 0x48
 11640 2ffc BE000000 		.4byte	0xbe
 11641 3000 23       		.byte	0x23
 11642 3001 00       		.byte	0
 11643 3002 49       		.uleb128 0x49
 11644 3003 03060000 		.4byte	.LASF176
 11645 3007 01       		.byte	0x1
 11646 3008 53       		.byte	0x53
 11647 3009 0D300000 		.4byte	0x300d
 11648 300d 08       		.uleb128 0x8
 11649 300e F22F0000 		.4byte	0x2ff2
 11650 3012 14       		.uleb128 0x14
 11651 3013 CD000000 		.4byte	0xcd
ARM GAS  C:\Users\SDEVAS~1\AppData\Local\Temp\ccPhqTSe.s 			page 228


 11652 3017 22300000 		.4byte	0x3022
 11653 301b 48       		.uleb128 0x48
 11654 301c BE000000 		.4byte	0xbe
 11655 3020 03       		.byte	0x3
 11656 3021 00       		.byte	0
 11657 3022 49       		.uleb128 0x49
 11658 3023 C9130000 		.4byte	.LASF177
 11659 3027 01       		.byte	0x1
 11660 3028 6B       		.byte	0x6b
 11661 3029 2D300000 		.4byte	0x302d
 11662 302d 08       		.uleb128 0x8
 11663 302e 12300000 		.4byte	0x3012
 11664 3032 4A       		.uleb128 0x4a
 11665 3033 BE000000 		.4byte	.LASF58
 11666 3037 01       		.byte	0x1
 11667 3038 C2       		.byte	0xc2
 11668 3039 8B030000 		.4byte	0x38b
 11669 303d 05       		.uleb128 0x5
 11670 303e 03       		.byte	0x3
 11671 303f 14000000 		.4byte	flags
 11672 3043 4A       		.uleb128 0x4a
 11673 3044 BF080000 		.4byte	.LASF150
 11674 3048 01       		.byte	0x1
 11675 3049 C3       		.byte	0xc3
 11676 304a CD000000 		.4byte	0xcd
 11677 304e 05       		.uleb128 0x5
 11678 304f 03       		.byte	0x3
 11679 3050 10000000 		.4byte	order
 11680 3054 4A       		.uleb128 0x4a
 11681 3055 D5060000 		.4byte	.LASF151
 11682 3059 01       		.byte	0x1
 11683 305a C4       		.byte	0xc4
 11684 305b 68000000 		.4byte	0x68
 11685 305f 05       		.uleb128 0x5
 11686 3060 03       		.byte	0x3
 11687 3061 2C000000 		.4byte	orderLen
 11688 3065 4A       		.uleb128 0x4a
 11689 3066 92060000 		.4byte	.LASF124
 11690 306a 01       		.byte	0x1
 11691 306b C5       		.byte	0xc5
 11692 306c CD000000 		.4byte	0xcd
 11693 3070 05       		.uleb128 0x5
 11694 3071 03       		.byte	0x3
 11695 3072 0C000000 		.4byte	payload
 11696 3076 4A       		.uleb128 0x4a
 11697 3077 A10F0000 		.4byte	.LASF125
 11698 307b 01       		.byte	0x1
 11699 307c C6       		.byte	0xc6
 11700 307d 68000000 		.4byte	0x68
 11701 3081 05       		.uleb128 0x5
 11702 3082 03       		.byte	0x3
 11703 3083 30000000 		.4byte	payloadLen
 11704 3087 4A       		.uleb128 0x4a
 11705 3088 6B060000 		.4byte	.LASF178
 11706 308c 01       		.byte	0x1
 11707 308d C8       		.byte	0xc8
 11708 308e CD000000 		.4byte	0xcd
ARM GAS  C:\Users\SDEVAS~1\AppData\Local\Temp\ccPhqTSe.s 			page 229


 11709 3092 05       		.uleb128 0x5
 11710 3093 03       		.byte	0x3
 11711 3094 08000000 		.4byte	msgSource
 11712 3098 4A       		.uleb128 0x4a
 11713 3099 FB140000 		.4byte	.LASF179
 11714 309d 01       		.byte	0x1
 11715 309e C9       		.byte	0xc9
 11716 309f 68000000 		.4byte	0x68
 11717 30a3 05       		.uleb128 0x5
 11718 30a4 03       		.byte	0x3
 11719 30a5 28000000 		.4byte	msgSourceLen
 11720 30a9 4A       		.uleb128 0x4a
 11721 30aa 75140000 		.4byte	.LASF180
 11722 30ae 01       		.byte	0x1
 11723 30af CA       		.byte	0xca
 11724 30b0 CD000000 		.4byte	0xcd
 11725 30b4 05       		.uleb128 0x5
 11726 30b5 03       		.byte	0x3
 11727 30b6 04000000 		.4byte	msgDest
 11728 30ba 4A       		.uleb128 0x4a
 11729 30bb 89050000 		.4byte	.LASF181
 11730 30bf 01       		.byte	0x1
 11731 30c0 CB       		.byte	0xcb
 11732 30c1 68000000 		.4byte	0x68
 11733 30c5 05       		.uleb128 0x5
 11734 30c6 03       		.byte	0x3
 11735 30c7 24000000 		.4byte	msgDestLen
 11736 30cb 4A       		.uleb128 0x4a
 11737 30cc 9D000000 		.4byte	.LASF182
 11738 30d0 01       		.byte	0x1
 11739 30d1 CE       		.byte	0xce
 11740 30d2 67020000 		.4byte	0x267
 11741 30d6 05       		.uleb128 0x5
 11742 30d7 03       		.byte	0x3
 11743 30d8 18000000 		.4byte	parser
 11744 30dc 44       		.uleb128 0x44
 11745 30dd 46070000 		.4byte	.LASF183
 11746 30e1 01       		.byte	0x1
 11747 30e2 0502     		.2byte	0x205
 11748 30e4 76000000 		.4byte	0x76
 11749 30e8 05       		.uleb128 0x5
 11750 30e9 03       		.byte	0x3
 11751 30ea 00000000 		.4byte	sendingTicks
 11752 30ee 4B       		.uleb128 0x4b
 11753 30ef 88040000 		.4byte	.LASF184
 11754 30f3 01       		.byte	0x1
 11755 30f4 13       		.byte	0x13
 11756 30f5 53030000 		.4byte	0x353
 11757 30f9 05       		.uleb128 0x5
 11758 30fa 03       		.byte	0x3
 11759 30fb 00000000 		.4byte	comm
 11760 30ff 4B       		.uleb128 0x4b
 11761 3100 8B150000 		.4byte	.LASF185
 11762 3104 01       		.byte	0x1
 11763 3105 15       		.byte	0x15
 11764 3106 42030000 		.4byte	0x342
 11765 310a 05       		.uleb128 0x5
ARM GAS  C:\Users\SDEVAS~1\AppData\Local\Temp\ccPhqTSe.s 			page 230


 11766 310b 03       		.byte	0x3
 11767 310c 00000000 		.4byte	respBuff
 11768 3110 4B       		.uleb128 0x4b
 11769 3111 CA070000 		.4byte	.LASF186
 11770 3115 01       		.byte	0x1
 11771 3116 16       		.byte	0x16
 11772 3117 C7000000 		.4byte	0xc7
 11773 311b 05       		.uleb128 0x5
 11774 311c 03       		.byte	0x3
 11775 311d 00000000 		.4byte	respEnd
 11776 3121 4B       		.uleb128 0x4b
 11777 3122 BC070000 		.4byte	.LASF187
 11778 3126 01       		.byte	0x1
 11779 3127 17       		.byte	0x17
 11780 3128 68000000 		.4byte	0x68
 11781 312c 05       		.uleb128 0x5
 11782 312d 03       		.byte	0x3
 11783 312e 00000000 		.4byte	respFreeSpace
 11784 3132 14       		.uleb128 0x14
 11785 3133 A5000000 		.4byte	0xa5
 11786 3137 42310000 		.4byte	0x3142
 11787 313b 48       		.uleb128 0x48
 11788 313c BE000000 		.4byte	0xbe
 11789 3140 1B       		.byte	0x1b
 11790 3141 00       		.byte	0
 11791 3142 4B       		.uleb128 0x4b
 11792 3143 64110000 		.4byte	.LASF188
 11793 3147 01       		.byte	0x1
 11794 3148 1C       		.byte	0x1c
 11795 3149 32310000 		.4byte	0x3132
 11796 314d 05       		.uleb128 0x5
 11797 314e 03       		.byte	0x3
 11798 314f 00000000 		.4byte	msgDestinationHolder
 11799 3153 4B       		.uleb128 0x4b
 11800 3154 460C0000 		.4byte	.LASF189
 11801 3158 01       		.byte	0x1
 11802 3159 1D       		.byte	0x1d
 11803 315a C7000000 		.4byte	0xc7
 11804 315e 05       		.uleb128 0x5
 11805 315f 03       		.byte	0x3
 11806 3160 00000000 		.4byte	msgDestinationHolderAtomType
 11807 3164 4B       		.uleb128 0x4b
 11808 3165 7B080000 		.4byte	.LASF190
 11809 3169 01       		.byte	0x1
 11810 316a 1E       		.byte	0x1e
 11811 316b C7000000 		.4byte	0xc7
 11812 316f 05       		.uleb128 0x5
 11813 3170 03       		.byte	0x3
 11814 3171 00000000 		.4byte	msgDestinationHolderAtomId
 11815 3175 14       		.uleb128 0x14
 11816 3176 2F020000 		.4byte	0x22f
 11817 317a 85310000 		.4byte	0x3185
 11818 317e 48       		.uleb128 0x48
 11819 317f BE000000 		.4byte	0xbe
 11820 3183 3B       		.byte	0x3b
 11821 3184 00       		.byte	0
 11822 3185 4B       		.uleb128 0x4b
ARM GAS  C:\Users\SDEVAS~1\AppData\Local\Temp\ccPhqTSe.s 			page 231


 11823 3186 5F040000 		.4byte	.LASF126
 11824 318a 01       		.byte	0x1
 11825 318b CF       		.byte	0xcf
 11826 318c 75310000 		.4byte	0x3175
 11827 3190 05       		.uleb128 0x5
 11828 3191 03       		.byte	0x3
 11829 3192 00000000 		.4byte	tokens
 11830 3196 4C       		.uleb128 0x4c
 11831 3197 7D140000 		.4byte	.LASF192
 11832 319b C5000000 		.4byte	0xc5
 11833 319f B3310000 		.4byte	0x31b3
 11834 31a3 0A       		.uleb128 0xa
 11835 31a4 C5000000 		.4byte	0xc5
 11836 31a8 0A       		.uleb128 0xa
 11837 31a9 B3310000 		.4byte	0x31b3
 11838 31ad 0A       		.uleb128 0xa
 11839 31ae BE000000 		.4byte	0xbe
 11840 31b2 00       		.byte	0
 11841 31b3 05       		.uleb128 0x5
 11842 31b4 04       		.byte	0x4
 11843 31b5 B9310000 		.4byte	0x31b9
 11844 31b9 4D       		.uleb128 0x4d
 11845 31ba 4E       		.uleb128 0x4e
 11846 31bb 95000000 		.4byte	.LASF193
 11847 31bf 09       		.byte	0x9
 11848 31c0 23       		.byte	0x23
 11849 31c1 68000000 		.4byte	0x68
 11850 31c5 D9310000 		.4byte	0x31d9
 11851 31c9 0A       		.uleb128 0xa
 11852 31ca CD000000 		.4byte	0xcd
 11853 31ce 0A       		.uleb128 0xa
 11854 31cf CD000000 		.4byte	0xcd
 11855 31d3 0A       		.uleb128 0xa
 11856 31d4 B3000000 		.4byte	0xb3
 11857 31d8 00       		.byte	0
 11858 31d9 4F       		.uleb128 0x4f
 11859 31da 4B0D0000 		.4byte	.LASF194
 11860 31de 01       		.byte	0x1
 11861 31df 0F       		.byte	0xf
 11862 31e0 4F       		.uleb128 0x4f
 11863 31e1 14050000 		.4byte	.LASF195
 11864 31e5 01       		.byte	0x1
 11865 31e6 10       		.byte	0x10
 11866 31e7 4E       		.uleb128 0x4e
 11867 31e8 400A0000 		.4byte	.LASF196
 11868 31ec 06       		.byte	0x6
 11869 31ed B7       		.byte	0xb7
 11870 31ee 0F010000 		.4byte	0x10f
 11871 31f2 FC310000 		.4byte	0x31fc
 11872 31f6 0A       		.uleb128 0xa
 11873 31f7 72010000 		.4byte	0x172
 11874 31fb 00       		.byte	0
 11875 31fc 50       		.uleb128 0x50
 11876 31fd 83000000 		.4byte	.LASF197
 11877 3201 01       		.byte	0x1
 11878 3202 11       		.byte	0x11
 11879 3203 76000000 		.4byte	0x76
ARM GAS  C:\Users\SDEVAS~1\AppData\Local\Temp\ccPhqTSe.s 			page 232


 11880 3207 50       		.uleb128 0x50
 11881 3208 D8080000 		.4byte	.LASF198
 11882 320c 01       		.byte	0x1
 11883 320d 62       		.byte	0x62
 11884 320e 68000000 		.4byte	0x68
 11885 3212 50       		.uleb128 0x50
 11886 3213 510B0000 		.4byte	.LASF199
 11887 3217 01       		.byte	0x1
 11888 3218 62       		.byte	0x62
 11889 3219 68000000 		.4byte	0x68
 11890 321d 50       		.uleb128 0x50
 11891 321e 04100000 		.4byte	.LASF200
 11892 3222 01       		.byte	0x1
 11893 3223 62       		.byte	0x62
 11894 3224 C7000000 		.4byte	0xc7
 11895 3228 4E       		.uleb128 0x4e
 11896 3229 84140000 		.4byte	.LASF201
 11897 322d 0A       		.byte	0xa
 11898 322e 05       		.byte	0x5
 11899 322f 68000000 		.4byte	0x68
 11900 3233 47320000 		.4byte	0x3247
 11901 3237 0A       		.uleb128 0xa
 11902 3238 C7000000 		.4byte	0xc7
 11903 323c 0A       		.uleb128 0xa
 11904 323d 68000000 		.4byte	0x68
 11905 3241 0A       		.uleb128 0xa
 11906 3242 C7000000 		.4byte	0xc7
 11907 3246 00       		.byte	0
 11908 3247 50       		.uleb128 0x50
 11909 3248 920D0000 		.4byte	.LASF202
 11910 324c 01       		.byte	0x1
 11911 324d 62       		.byte	0x62
 11912 324e 68000000 		.4byte	0x68
 11913 3252 50       		.uleb128 0x50
 11914 3253 1C040000 		.4byte	.LASF203
 11915 3257 01       		.byte	0x1
 11916 3258 62       		.byte	0x62
 11917 3259 68000000 		.4byte	0x68
 11918 325d 50       		.uleb128 0x50
 11919 325e 2D0A0000 		.4byte	.LASF204
 11920 3262 01       		.byte	0x1
 11921 3263 62       		.byte	0x62
 11922 3264 68000000 		.4byte	0x68
 11923 3268 50       		.uleb128 0x50
 11924 3269 BF140000 		.4byte	.LASF205
 11925 326d 01       		.byte	0x1
 11926 326e 62       		.byte	0x62
 11927 326f 68000000 		.4byte	0x68
 11928 3273 50       		.uleb128 0x50
 11929 3274 8F140000 		.4byte	.LASF206
 11930 3278 01       		.byte	0x1
 11931 3279 62       		.byte	0x62
 11932 327a 68000000 		.4byte	0x68
 11933 327e 50       		.uleb128 0x50
 11934 327f 94150000 		.4byte	.LASF207
 11935 3283 01       		.byte	0x1
 11936 3284 62       		.byte	0x62
ARM GAS  C:\Users\SDEVAS~1\AppData\Local\Temp\ccPhqTSe.s 			page 233


 11937 3285 68000000 		.4byte	0x68
 11938 3289 50       		.uleb128 0x50
 11939 328a 09080000 		.4byte	.LASF208
 11940 328e 01       		.byte	0x1
 11941 328f 62       		.byte	0x62
 11942 3290 68000000 		.4byte	0x68
 11943 3294 50       		.uleb128 0x50
 11944 3295 10100000 		.4byte	.LASF209
 11945 3299 01       		.byte	0x1
 11946 329a 62       		.byte	0x62
 11947 329b 68000000 		.4byte	0x68
 11948 329f 50       		.uleb128 0x50
 11949 32a0 EC100000 		.4byte	.LASF210
 11950 32a4 01       		.byte	0x1
 11951 32a5 62       		.byte	0x62
 11952 32a6 68000000 		.4byte	0x68
 11953 32aa 50       		.uleb128 0x50
 11954 32ab 78040000 		.4byte	.LASF211
 11955 32af 01       		.byte	0x1
 11956 32b0 62       		.byte	0x62
 11957 32b1 68000000 		.4byte	0x68
 11958 32b5 50       		.uleb128 0x50
 11959 32b6 ED110000 		.4byte	.LASF212
 11960 32ba 01       		.byte	0x1
 11961 32bb 62       		.byte	0x62
 11962 32bc 68000000 		.4byte	0x68
 11963 32c0 50       		.uleb128 0x50
 11964 32c1 94040000 		.4byte	.LASF213
 11965 32c5 01       		.byte	0x1
 11966 32c6 62       		.byte	0x62
 11967 32c7 68000000 		.4byte	0x68
 11968 32cb 50       		.uleb128 0x50
 11969 32cc DE060000 		.4byte	.LASF214
 11970 32d0 01       		.byte	0x1
 11971 32d1 62       		.byte	0x62
 11972 32d2 68000000 		.4byte	0x68
 11973 32d6 50       		.uleb128 0x50
 11974 32d7 3F010000 		.4byte	.LASF215
 11975 32db 01       		.byte	0x1
 11976 32dc 62       		.byte	0x62
 11977 32dd 68000000 		.4byte	0x68
 11978 32e1 50       		.uleb128 0x50
 11979 32e2 08090000 		.4byte	.LASF216
 11980 32e6 01       		.byte	0x1
 11981 32e7 62       		.byte	0x62
 11982 32e8 EC320000 		.4byte	0x32ec
 11983 32ec 05       		.uleb128 0x5
 11984 32ed 04       		.byte	0x4
 11985 32ee 68000000 		.4byte	0x68
 11986 32f2 50       		.uleb128 0x50
 11987 32f3 13030000 		.4byte	.LASF217
 11988 32f7 01       		.byte	0x1
 11989 32f8 62       		.byte	0x62
 11990 32f9 EC320000 		.4byte	0x32ec
 11991 32fd 50       		.uleb128 0x50
 11992 32fe 2C030000 		.4byte	.LASF218
 11993 3302 01       		.byte	0x1
ARM GAS  C:\Users\SDEVAS~1\AppData\Local\Temp\ccPhqTSe.s 			page 234


 11994 3303 62       		.byte	0x62
 11995 3304 EC320000 		.4byte	0x32ec
 11996 3308 50       		.uleb128 0x50
 11997 3309 4E090000 		.4byte	.LASF219
 11998 330d 01       		.byte	0x1
 11999 330e 62       		.byte	0x62
 12000 330f EC320000 		.4byte	0x32ec
 12001 3313 50       		.uleb128 0x50
 12002 3314 67090000 		.4byte	.LASF220
 12003 3318 01       		.byte	0x1
 12004 3319 62       		.byte	0x62
 12005 331a EC320000 		.4byte	0x32ec
 12006 331e 50       		.uleb128 0x50
 12007 331f 80090000 		.4byte	.LASF221
 12008 3323 01       		.byte	0x1
 12009 3324 62       		.byte	0x62
 12010 3325 EC320000 		.4byte	0x32ec
 12011 3329 50       		.uleb128 0x50
 12012 332a 99090000 		.4byte	.LASF222
 12013 332e 01       		.byte	0x1
 12014 332f 62       		.byte	0x62
 12015 3330 EC320000 		.4byte	0x32ec
 12016 3334 50       		.uleb128 0x50
 12017 3335 B2090000 		.4byte	.LASF223
 12018 3339 01       		.byte	0x1
 12019 333a 62       		.byte	0x62
 12020 333b EC320000 		.4byte	0x32ec
 12021 333f 50       		.uleb128 0x50
 12022 3340 CB090000 		.4byte	.LASF224
 12023 3344 01       		.byte	0x1
 12024 3345 62       		.byte	0x62
 12025 3346 EC320000 		.4byte	0x32ec
 12026 334a 50       		.uleb128 0x50
 12027 334b E4090000 		.4byte	.LASF225
 12028 334f 01       		.byte	0x1
 12029 3350 62       		.byte	0x62
 12030 3351 EC320000 		.4byte	0x32ec
 12031 3355 4E       		.uleb128 0x4e
 12032 3356 03070000 		.4byte	.LASF226
 12033 335a 0A       		.byte	0xa
 12034 335b 1A       		.byte	0x1a
 12035 335c 68000000 		.4byte	0x68
 12036 3360 74330000 		.4byte	0x3374
 12037 3364 0A       		.uleb128 0xa
 12038 3365 C7000000 		.4byte	0xc7
 12039 3369 0A       		.uleb128 0xa
 12040 336a 68000000 		.4byte	0x68
 12041 336e 0A       		.uleb128 0xa
 12042 336f EC320000 		.4byte	0x32ec
 12043 3373 00       		.byte	0
 12044 3374 50       		.uleb128 0x50
 12045 3375 8F030000 		.4byte	.LASF227
 12046 3379 01       		.byte	0x1
 12047 337a 62       		.byte	0x62
 12048 337b 68000000 		.4byte	0x68
 12049 337f 50       		.uleb128 0x50
 12050 3380 0E120000 		.4byte	.LASF228
ARM GAS  C:\Users\SDEVAS~1\AppData\Local\Temp\ccPhqTSe.s 			page 235


 12051 3384 01       		.byte	0x1
 12052 3385 62       		.byte	0x62
 12053 3386 68000000 		.4byte	0x68
 12054 338a 50       		.uleb128 0x50
 12055 338b 2F0C0000 		.4byte	.LASF229
 12056 338f 01       		.byte	0x1
 12057 3390 62       		.byte	0x62
 12058 3391 68000000 		.4byte	0x68
 12059 3395 50       		.uleb128 0x50
 12060 3396 EC060000 		.4byte	.LASF230
 12061 339a 01       		.byte	0x1
 12062 339b 62       		.byte	0x62
 12063 339c 68000000 		.4byte	0x68
 12064 33a0 50       		.uleb128 0x50
 12065 33a1 8D0C0000 		.4byte	.LASF231
 12066 33a5 01       		.byte	0x1
 12067 33a6 62       		.byte	0x62
 12068 33a7 68000000 		.4byte	0x68
 12069 33ab 50       		.uleb128 0x50
 12070 33ac A40C0000 		.4byte	.LASF232
 12071 33b0 01       		.byte	0x1
 12072 33b1 62       		.byte	0x62
 12073 33b2 68000000 		.4byte	0x68
 12074 33b6 50       		.uleb128 0x50
 12075 33b7 3C000000 		.4byte	.LASF233
 12076 33bb 01       		.byte	0x1
 12077 33bc 62       		.byte	0x62
 12078 33bd 68000000 		.4byte	0x68
 12079 33c1 50       		.uleb128 0x50
 12080 33c2 79070000 		.4byte	.LASF234
 12081 33c6 01       		.byte	0x1
 12082 33c7 62       		.byte	0x62
 12083 33c8 68000000 		.4byte	0x68
 12084 33cc 50       		.uleb128 0x50
 12085 33cd AC110000 		.4byte	.LASF235
 12086 33d1 01       		.byte	0x1
 12087 33d2 62       		.byte	0x62
 12088 33d3 68000000 		.4byte	0x68
 12089 33d7 4E       		.uleb128 0x4e
 12090 33d8 25080000 		.4byte	.LASF236
 12091 33dc 0A       		.byte	0xa
 12092 33dd 04       		.byte	0x4
 12093 33de 68000000 		.4byte	0x68
 12094 33e2 F6330000 		.4byte	0x33f6
 12095 33e6 0A       		.uleb128 0xa
 12096 33e7 C7000000 		.4byte	0xc7
 12097 33eb 0A       		.uleb128 0xa
 12098 33ec 68000000 		.4byte	0x68
 12099 33f0 0A       		.uleb128 0xa
 12100 33f1 68000000 		.4byte	0x68
 12101 33f5 00       		.byte	0
 12102 33f6 4E       		.uleb128 0x4e
 12103 33f7 61050000 		.4byte	.LASF237
 12104 33fb 0A       		.byte	0xa
 12105 33fc 09       		.byte	0x9
 12106 33fd 68000000 		.4byte	0x68
 12107 3401 10340000 		.4byte	0x3410
ARM GAS  C:\Users\SDEVAS~1\AppData\Local\Temp\ccPhqTSe.s 			page 236


 12108 3405 0A       		.uleb128 0xa
 12109 3406 CD000000 		.4byte	0xcd
 12110 340a 0A       		.uleb128 0xa
 12111 340b 68000000 		.4byte	0x68
 12112 340f 00       		.byte	0
 12113 3410 51       		.uleb128 0x51
 12114 3411 E1020000 		.4byte	.LASF238
 12115 3415 01       		.byte	0x1
 12116 3416 62       		.byte	0x62
 12117 3417 21340000 		.4byte	0x3421
 12118 341b 0A       		.uleb128 0xa
 12119 341c 68000000 		.4byte	0x68
 12120 3420 00       		.byte	0
 12121 3421 51       		.uleb128 0x51
 12122 3422 79110000 		.4byte	.LASF239
 12123 3426 01       		.byte	0x1
 12124 3427 62       		.byte	0x62
 12125 3428 32340000 		.4byte	0x3432
 12126 342c 0A       		.uleb128 0xa
 12127 342d 68000000 		.4byte	0x68
 12128 3431 00       		.byte	0
 12129 3432 4E       		.uleb128 0x4e
 12130 3433 7E050000 		.4byte	.LASF240
 12131 3437 0A       		.byte	0xa
 12132 3438 0A       		.byte	0xa
 12133 3439 C7000000 		.4byte	0xc7
 12134 343d 4C340000 		.4byte	0x344c
 12135 3441 0A       		.uleb128 0xa
 12136 3442 CD000000 		.4byte	0xcd
 12137 3446 0A       		.uleb128 0xa
 12138 3447 68000000 		.4byte	0x68
 12139 344b 00       		.byte	0
 12140 344c 51       		.uleb128 0x51
 12141 344d FB0C0000 		.4byte	.LASF241
 12142 3451 01       		.byte	0x1
 12143 3452 62       		.byte	0x62
 12144 3453 5D340000 		.4byte	0x345d
 12145 3457 0A       		.uleb128 0xa
 12146 3458 C7000000 		.4byte	0xc7
 12147 345c 00       		.byte	0
 12148 345d 51       		.uleb128 0x51
 12149 345e 60140000 		.4byte	.LASF242
 12150 3462 01       		.byte	0x1
 12151 3463 62       		.byte	0x62
 12152 3464 6E340000 		.4byte	0x346e
 12153 3468 0A       		.uleb128 0xa
 12154 3469 68000000 		.4byte	0x68
 12155 346d 00       		.byte	0
 12156 346e 51       		.uleb128 0x51
 12157 346f FF040000 		.4byte	.LASF243
 12158 3473 01       		.byte	0x1
 12159 3474 62       		.byte	0x62
 12160 3475 7F340000 		.4byte	0x347f
 12161 3479 0A       		.uleb128 0xa
 12162 347a 68000000 		.4byte	0x68
 12163 347e 00       		.byte	0
 12164 347f 51       		.uleb128 0x51
ARM GAS  C:\Users\SDEVAS~1\AppData\Local\Temp\ccPhqTSe.s 			page 237


 12165 3480 C0050000 		.4byte	.LASF244
 12166 3484 01       		.byte	0x1
 12167 3485 62       		.byte	0x62
 12168 3486 90340000 		.4byte	0x3490
 12169 348a 0A       		.uleb128 0xa
 12170 348b 68000000 		.4byte	0x68
 12171 348f 00       		.byte	0
 12172 3490 51       		.uleb128 0x51
 12173 3491 CE0C0000 		.4byte	.LASF245
 12174 3495 01       		.byte	0x1
 12175 3496 62       		.byte	0x62
 12176 3497 A1340000 		.4byte	0x34a1
 12177 349b 0A       		.uleb128 0xa
 12178 349c 68000000 		.4byte	0x68
 12179 34a0 00       		.byte	0
 12180 34a1 51       		.uleb128 0x51
 12181 34a2 BB0C0000 		.4byte	.LASF246
 12182 34a6 01       		.byte	0x1
 12183 34a7 62       		.byte	0x62
 12184 34a8 B2340000 		.4byte	0x34b2
 12185 34ac 0A       		.uleb128 0xa
 12186 34ad 68000000 		.4byte	0x68
 12187 34b1 00       		.byte	0
 12188 34b2 51       		.uleb128 0x51
 12189 34b3 E3150000 		.4byte	.LASF247
 12190 34b7 01       		.byte	0x1
 12191 34b8 62       		.byte	0x62
 12192 34b9 C3340000 		.4byte	0x34c3
 12193 34bd 0A       		.uleb128 0xa
 12194 34be 68000000 		.4byte	0x68
 12195 34c2 00       		.byte	0
 12196 34c3 51       		.uleb128 0x51
 12197 34c4 0F070000 		.4byte	.LASF248
 12198 34c8 01       		.byte	0x1
 12199 34c9 62       		.byte	0x62
 12200 34ca D4340000 		.4byte	0x34d4
 12201 34ce 0A       		.uleb128 0xa
 12202 34cf 68000000 		.4byte	0x68
 12203 34d3 00       		.byte	0
 12204 34d4 51       		.uleb128 0x51
 12205 34d5 6E000000 		.4byte	.LASF249
 12206 34d9 01       		.byte	0x1
 12207 34da 62       		.byte	0x62
 12208 34db E5340000 		.4byte	0x34e5
 12209 34df 0A       		.uleb128 0xa
 12210 34e0 68000000 		.4byte	0x68
 12211 34e4 00       		.byte	0
 12212 34e5 51       		.uleb128 0x51
 12213 34e6 48100000 		.4byte	.LASF250
 12214 34ea 01       		.byte	0x1
 12215 34eb 62       		.byte	0x62
 12216 34ec F6340000 		.4byte	0x34f6
 12217 34f0 0A       		.uleb128 0xa
 12218 34f1 68000000 		.4byte	0x68
 12219 34f5 00       		.byte	0
 12220 34f6 51       		.uleb128 0x51
 12221 34f7 FF0A0000 		.4byte	.LASF251
ARM GAS  C:\Users\SDEVAS~1\AppData\Local\Temp\ccPhqTSe.s 			page 238


 12222 34fb 01       		.byte	0x1
 12223 34fc 62       		.byte	0x62
 12224 34fd 07350000 		.4byte	0x3507
 12225 3501 0A       		.uleb128 0xa
 12226 3502 68000000 		.4byte	0x68
 12227 3506 00       		.byte	0
 12228 3507 51       		.uleb128 0x51
 12229 3508 AD060000 		.4byte	.LASF252
 12230 350c 01       		.byte	0x1
 12231 350d 62       		.byte	0x62
 12232 350e 18350000 		.4byte	0x3518
 12233 3512 0A       		.uleb128 0xa
 12234 3513 68000000 		.4byte	0x68
 12235 3517 00       		.byte	0
 12236 3518 51       		.uleb128 0x51
 12237 3519 BF0D0000 		.4byte	.LASF253
 12238 351d 01       		.byte	0x1
 12239 351e 62       		.byte	0x62
 12240 351f 29350000 		.4byte	0x3529
 12241 3523 0A       		.uleb128 0xa
 12242 3524 68000000 		.4byte	0x68
 12243 3528 00       		.byte	0
 12244 3529 51       		.uleb128 0x51
 12245 352a AB0B0000 		.4byte	.LASF254
 12246 352e 01       		.byte	0x1
 12247 352f 62       		.byte	0x62
 12248 3530 3A350000 		.4byte	0x353a
 12249 3534 0A       		.uleb128 0xa
 12250 3535 68000000 		.4byte	0x68
 12251 3539 00       		.byte	0
 12252 353a 51       		.uleb128 0x51
 12253 353b 3B120000 		.4byte	.LASF255
 12254 353f 01       		.byte	0x1
 12255 3540 62       		.byte	0x62
 12256 3541 4B350000 		.4byte	0x354b
 12257 3545 0A       		.uleb128 0xa
 12258 3546 68000000 		.4byte	0x68
 12259 354a 00       		.byte	0
 12260 354b 4E       		.uleb128 0x4e
 12261 354c 88130000 		.4byte	.LASF256
 12262 3550 0A       		.byte	0xa
 12263 3551 1A       		.byte	0x1a
 12264 3552 EC320000 		.4byte	0x32ec
 12265 3556 65350000 		.4byte	0x3565
 12266 355a 0A       		.uleb128 0xa
 12267 355b CD000000 		.4byte	0xcd
 12268 355f 0A       		.uleb128 0xa
 12269 3560 68000000 		.4byte	0x68
 12270 3564 00       		.byte	0
 12271 3565 51       		.uleb128 0x51
 12272 3566 57120000 		.4byte	.LASF257
 12273 356a 01       		.byte	0x1
 12274 356b 62       		.byte	0x62
 12275 356c 76350000 		.4byte	0x3576
 12276 3570 0A       		.uleb128 0xa
 12277 3571 EC320000 		.4byte	0x32ec
 12278 3575 00       		.byte	0
ARM GAS  C:\Users\SDEVAS~1\AppData\Local\Temp\ccPhqTSe.s 			page 239


 12279 3576 51       		.uleb128 0x51
 12280 3577 70120000 		.4byte	.LASF258
 12281 357b 01       		.byte	0x1
 12282 357c 62       		.byte	0x62
 12283 357d 87350000 		.4byte	0x3587
 12284 3581 0A       		.uleb128 0xa
 12285 3582 EC320000 		.4byte	0x32ec
 12286 3586 00       		.byte	0
 12287 3587 51       		.uleb128 0x51
 12288 3588 89120000 		.4byte	.LASF259
 12289 358c 01       		.byte	0x1
 12290 358d 62       		.byte	0x62
 12291 358e 98350000 		.4byte	0x3598
 12292 3592 0A       		.uleb128 0xa
 12293 3593 EC320000 		.4byte	0x32ec
 12294 3597 00       		.byte	0
 12295 3598 51       		.uleb128 0x51
 12296 3599 4B110000 		.4byte	.LASF260
 12297 359d 01       		.byte	0x1
 12298 359e 62       		.byte	0x62
 12299 359f A9350000 		.4byte	0x35a9
 12300 35a3 0A       		.uleb128 0xa
 12301 35a4 EC320000 		.4byte	0x32ec
 12302 35a8 00       		.byte	0
 12303 35a9 51       		.uleb128 0x51
 12304 35aa B5120000 		.4byte	.LASF261
 12305 35ae 01       		.byte	0x1
 12306 35af 62       		.byte	0x62
 12307 35b0 BA350000 		.4byte	0x35ba
 12308 35b4 0A       		.uleb128 0xa
 12309 35b5 EC320000 		.4byte	0x32ec
 12310 35b9 00       		.byte	0
 12311 35ba 51       		.uleb128 0x51
 12312 35bb CE120000 		.4byte	.LASF262
 12313 35bf 01       		.byte	0x1
 12314 35c0 62       		.byte	0x62
 12315 35c1 CB350000 		.4byte	0x35cb
 12316 35c5 0A       		.uleb128 0xa
 12317 35c6 EC320000 		.4byte	0x32ec
 12318 35ca 00       		.byte	0
 12319 35cb 51       		.uleb128 0x51
 12320 35cc E7120000 		.4byte	.LASF263
 12321 35d0 01       		.byte	0x1
 12322 35d1 62       		.byte	0x62
 12323 35d2 DC350000 		.4byte	0x35dc
 12324 35d6 0A       		.uleb128 0xa
 12325 35d7 EC320000 		.4byte	0x32ec
 12326 35db 00       		.byte	0
 12327 35dc 51       		.uleb128 0x51
 12328 35dd 00130000 		.4byte	.LASF264
 12329 35e1 01       		.byte	0x1
 12330 35e2 62       		.byte	0x62
 12331 35e3 ED350000 		.4byte	0x35ed
 12332 35e7 0A       		.uleb128 0xa
 12333 35e8 EC320000 		.4byte	0x32ec
 12334 35ec 00       		.byte	0
 12335 35ed 51       		.uleb128 0x51
ARM GAS  C:\Users\SDEVAS~1\AppData\Local\Temp\ccPhqTSe.s 			page 240


 12336 35ee 14110000 		.4byte	.LASF265
 12337 35f2 01       		.byte	0x1
 12338 35f3 62       		.byte	0x62
 12339 35f4 FE350000 		.4byte	0x35fe
 12340 35f8 0A       		.uleb128 0xa
 12341 35f9 EC320000 		.4byte	0x32ec
 12342 35fd 00       		.byte	0
 12343 35fe 51       		.uleb128 0x51
 12344 35ff 28130000 		.4byte	.LASF266
 12345 3603 01       		.byte	0x1
 12346 3604 62       		.byte	0x62
 12347 3605 0F360000 		.4byte	0x360f
 12348 3609 0A       		.uleb128 0xa
 12349 360a EC320000 		.4byte	0x32ec
 12350 360e 00       		.byte	0
 12351 360f 51       		.uleb128 0x51
 12352 3610 75060000 		.4byte	.LASF267
 12353 3614 01       		.byte	0x1
 12354 3615 62       		.byte	0x62
 12355 3616 20360000 		.4byte	0x3620
 12356 361a 0A       		.uleb128 0xa
 12357 361b 68000000 		.4byte	0x68
 12358 361f 00       		.byte	0
 12359 3620 51       		.uleb128 0x51
 12360 3621 FA0D0000 		.4byte	.LASF268
 12361 3625 01       		.byte	0x1
 12362 3626 62       		.byte	0x62
 12363 3627 31360000 		.4byte	0x3631
 12364 362b 0A       		.uleb128 0xa
 12365 362c 68000000 		.4byte	0x68
 12366 3630 00       		.byte	0
 12367 3631 51       		.uleb128 0x51
 12368 3632 A30A0000 		.4byte	.LASF269
 12369 3636 01       		.byte	0x1
 12370 3637 62       		.byte	0x62
 12371 3638 42360000 		.4byte	0x3642
 12372 363c 0A       		.uleb128 0xa
 12373 363d 68000000 		.4byte	0x68
 12374 3641 00       		.byte	0
 12375 3642 51       		.uleb128 0x51
 12376 3643 BA0A0000 		.4byte	.LASF270
 12377 3647 01       		.byte	0x1
 12378 3648 62       		.byte	0x62
 12379 3649 53360000 		.4byte	0x3653
 12380 364d 0A       		.uleb128 0xa
 12381 364e 68000000 		.4byte	0x68
 12382 3652 00       		.byte	0
 12383 3653 51       		.uleb128 0x51
 12384 3654 D10A0000 		.4byte	.LASF271
 12385 3658 01       		.byte	0x1
 12386 3659 62       		.byte	0x62
 12387 365a 64360000 		.4byte	0x3664
 12388 365e 0A       		.uleb128 0xa
 12389 365f 68000000 		.4byte	0x68
 12390 3663 00       		.byte	0
 12391 3664 51       		.uleb128 0x51
 12392 3665 E80A0000 		.4byte	.LASF272
ARM GAS  C:\Users\SDEVAS~1\AppData\Local\Temp\ccPhqTSe.s 			page 241


 12393 3669 01       		.byte	0x1
 12394 366a 62       		.byte	0x62
 12395 366b 75360000 		.4byte	0x3675
 12396 366f 0A       		.uleb128 0xa
 12397 3670 68000000 		.4byte	0x68
 12398 3674 00       		.byte	0
 12399 3675 51       		.uleb128 0x51
 12400 3676 EF050000 		.4byte	.LASF273
 12401 367a 01       		.byte	0x1
 12402 367b 62       		.byte	0x62
 12403 367c 86360000 		.4byte	0x3686
 12404 3680 0A       		.uleb128 0xa
 12405 3681 68000000 		.4byte	0x68
 12406 3685 00       		.byte	0
 12407 3686 51       		.uleb128 0x51
 12408 3687 2A0B0000 		.4byte	.LASF274
 12409 368b 01       		.byte	0x1
 12410 368c 62       		.byte	0x62
 12411 368d 97360000 		.4byte	0x3697
 12412 3691 0A       		.uleb128 0xa
 12413 3692 68000000 		.4byte	0x68
 12414 3696 00       		.byte	0
 12415 3697 51       		.uleb128 0x51
 12416 3698 51050000 		.4byte	.LASF275
 12417 369c 01       		.byte	0x1
 12418 369d 62       		.byte	0x62
 12419 369e A8360000 		.4byte	0x36a8
 12420 36a2 0A       		.uleb128 0xa
 12421 36a3 68000000 		.4byte	0x68
 12422 36a7 00       		.byte	0
 12423 36a8 4F       		.uleb128 0x4f
 12424 36a9 6C050000 		.4byte	.LASF276
 12425 36ad 08       		.byte	0x8
 12426 36ae 8C       		.byte	0x8c
 12427 36af 51       		.uleb128 0x51
 12428 36b0 FA0F0000 		.4byte	.LASF277
 12429 36b4 07       		.byte	0x7
 12430 36b5 45       		.byte	0x45
 12431 36b6 C0360000 		.4byte	0x36c0
 12432 36ba 0A       		.uleb128 0xa
 12433 36bb C0360000 		.4byte	0x36c0
 12434 36bf 00       		.byte	0
 12435 36c0 05       		.uleb128 0x5
 12436 36c1 04       		.byte	0x4
 12437 36c2 67020000 		.4byte	0x267
 12438 36c6 4E       		.uleb128 0x4e
 12439 36c7 B90B0000 		.4byte	.LASF278
 12440 36cb 07       		.byte	0x7
 12441 36cc 4B       		.byte	0x4b
 12442 36cd EB010000 		.4byte	0x1eb
 12443 36d1 EF360000 		.4byte	0x36ef
 12444 36d5 0A       		.uleb128 0xa
 12445 36d6 C0360000 		.4byte	0x36c0
 12446 36da 0A       		.uleb128 0xa
 12447 36db CD000000 		.4byte	0xcd
 12448 36df 0A       		.uleb128 0xa
 12449 36e0 B3000000 		.4byte	0xb3
ARM GAS  C:\Users\SDEVAS~1\AppData\Local\Temp\ccPhqTSe.s 			page 242


 12450 36e4 0A       		.uleb128 0xa
 12451 36e5 A0050000 		.4byte	0x5a0
 12452 36e9 0A       		.uleb128 0xa
 12453 36ea 6F000000 		.4byte	0x6f
 12454 36ee 00       		.byte	0
 12455 36ef 51       		.uleb128 0x51
 12456 36f0 92070000 		.4byte	.LASF279
 12457 36f4 08       		.byte	0x8
 12458 36f5 8D       		.byte	0x8d
 12459 36f6 00370000 		.4byte	0x3700
 12460 36fa 0A       		.uleb128 0xa
 12461 36fb C3030000 		.4byte	0x3c3
 12462 36ff 00       		.byte	0
 12463 3700 4C       		.uleb128 0x4c
 12464 3701 9A0F0000 		.4byte	.LASF280
 12465 3705 C5000000 		.4byte	0xc5
 12466 3709 1D370000 		.4byte	0x371d
 12467 370d 0A       		.uleb128 0xa
 12468 370e C5000000 		.4byte	0xc5
 12469 3712 0A       		.uleb128 0xa
 12470 3713 68000000 		.4byte	0x68
 12471 3717 0A       		.uleb128 0xa
 12472 3718 BE000000 		.4byte	0xbe
 12473 371c 00       		.byte	0
 12474 371d 51       		.uleb128 0x51
 12475 371e 070D0000 		.4byte	.LASF281
 12476 3722 06       		.byte	0x6
 12477 3723 7F       		.byte	0x7f
 12478 3724 2E370000 		.4byte	0x372e
 12479 3728 0A       		.uleb128 0xa
 12480 3729 7D010000 		.4byte	0x17d
 12481 372d 00       		.byte	0
 12482 372e 51       		.uleb128 0x51
 12483 372f AA100000 		.4byte	.LASF282
 12484 3733 06       		.byte	0x6
 12485 3734 84       		.byte	0x84
 12486 3735 3F370000 		.4byte	0x373f
 12487 3739 0A       		.uleb128 0xa
 12488 373a 99010000 		.4byte	0x199
 12489 373e 00       		.byte	0
 12490 373f 51       		.uleb128 0x51
 12491 3740 57030000 		.4byte	.LASF283
 12492 3744 06       		.byte	0x6
 12493 3745 88       		.byte	0x88
 12494 3746 5A370000 		.4byte	0x375a
 12495 374a 0A       		.uleb128 0xa
 12496 374b 25010000 		.4byte	0x125
 12497 374f 0A       		.uleb128 0xa
 12498 3750 C7000000 		.4byte	0xc7
 12499 3754 0A       		.uleb128 0xa
 12500 3755 8C000000 		.4byte	0x8c
 12501 3759 00       		.byte	0
 12502 375a 51       		.uleb128 0x51
 12503 375b AC0F0000 		.4byte	.LASF284
 12504 375f 06       		.byte	0x6
 12505 3760 8E       		.byte	0x8e
 12506 3761 75370000 		.4byte	0x3775
ARM GAS  C:\Users\SDEVAS~1\AppData\Local\Temp\ccPhqTSe.s 			page 243


 12507 3765 0A       		.uleb128 0xa
 12508 3766 25010000 		.4byte	0x125
 12509 376a 0A       		.uleb128 0xa
 12510 376b C7000000 		.4byte	0xc7
 12511 376f 0A       		.uleb128 0xa
 12512 3770 8C000000 		.4byte	0x8c
 12513 3774 00       		.byte	0
 12514 3775 51       		.uleb128 0x51
 12515 3776 2B100000 		.4byte	.LASF285
 12516 377a 06       		.byte	0x6
 12517 377b 1C       		.byte	0x1c
 12518 377c 86370000 		.4byte	0x3786
 12519 3780 0A       		.uleb128 0xa
 12520 3781 D8000000 		.4byte	0xd8
 12521 3785 00       		.byte	0
 12522 3786 4F       		.uleb128 0x4f
 12523 3787 AB130000 		.4byte	.LASF286
 12524 378b 06       		.byte	0x6
 12525 378c 7A       		.byte	0x7a
 12526 378d 4E       		.uleb128 0x4e
 12527 378e 3F020000 		.4byte	.LASF287
 12528 3792 06       		.byte	0x6
 12529 3793 A7       		.byte	0xa7
 12530 3794 0F010000 		.4byte	0x10f
 12531 3798 A2370000 		.4byte	0x37a2
 12532 379c 0A       		.uleb128 0xa
 12533 379d 51010000 		.4byte	0x151
 12534 37a1 00       		.byte	0
 12535 37a2 4E       		.uleb128 0x4e
 12536 37a3 08000000 		.4byte	.LASF288
 12537 37a7 06       		.byte	0x6
 12538 37a8 9C       		.byte	0x9c
 12539 37a9 0F010000 		.4byte	0x10f
 12540 37ad C1370000 		.4byte	0x37c1
 12541 37b1 0A       		.uleb128 0xa
 12542 37b2 C7000000 		.4byte	0xc7
 12543 37b6 0A       		.uleb128 0xa
 12544 37b7 8C000000 		.4byte	0x8c
 12545 37bb 0A       		.uleb128 0xa
 12546 37bc 46010000 		.4byte	0x146
 12547 37c0 00       		.byte	0
 12548 37c1 4E       		.uleb128 0x4e
 12549 37c2 C3030000 		.4byte	.LASF289
 12550 37c6 06       		.byte	0x6
 12551 37c7 AE       		.byte	0xae
 12552 37c8 0F010000 		.4byte	0x10f
 12553 37cc DB370000 		.4byte	0x37db
 12554 37d0 0A       		.uleb128 0xa
 12555 37d1 1A010000 		.4byte	0x11a
 12556 37d5 0A       		.uleb128 0xa
 12557 37d6 67010000 		.4byte	0x167
 12558 37da 00       		.byte	0
 12559 37db 52       		.uleb128 0x52
 12560 37dc D9050000 		.4byte	.LASF290
 12561 37e0 06       		.byte	0x6
 12562 37e1 BE       		.byte	0xbe
 12563 37e2 0F010000 		.4byte	0x10f
ARM GAS  C:\Users\SDEVAS~1\AppData\Local\Temp\ccPhqTSe.s 			page 244


 12564 37e6 0A       		.uleb128 0xa
 12565 37e7 5C010000 		.4byte	0x15c
 12566 37eb 00       		.byte	0
 12567 37ec 00       		.byte	0
 12568              		.section	.debug_abbrev,"",%progbits
 12569              	.Ldebug_abbrev0:
 12570 0000 01       		.uleb128 0x1
 12571 0001 11       		.uleb128 0x11
 12572 0002 01       		.byte	0x1
 12573 0003 25       		.uleb128 0x25
 12574 0004 0E       		.uleb128 0xe
 12575 0005 13       		.uleb128 0x13
 12576 0006 0B       		.uleb128 0xb
 12577 0007 03       		.uleb128 0x3
 12578 0008 0E       		.uleb128 0xe
 12579 0009 1B       		.uleb128 0x1b
 12580 000a 0E       		.uleb128 0xe
 12581 000b 55       		.uleb128 0x55
 12582 000c 17       		.uleb128 0x17
 12583 000d 11       		.uleb128 0x11
 12584 000e 01       		.uleb128 0x1
 12585 000f 10       		.uleb128 0x10
 12586 0010 17       		.uleb128 0x17
 12587 0011 00       		.byte	0
 12588 0012 00       		.byte	0
 12589 0013 02       		.uleb128 0x2
 12590 0014 24       		.uleb128 0x24
 12591 0015 00       		.byte	0
 12592 0016 0B       		.uleb128 0xb
 12593 0017 0B       		.uleb128 0xb
 12594 0018 3E       		.uleb128 0x3e
 12595 0019 0B       		.uleb128 0xb
 12596 001a 03       		.uleb128 0x3
 12597 001b 0E       		.uleb128 0xe
 12598 001c 00       		.byte	0
 12599 001d 00       		.byte	0
 12600 001e 03       		.uleb128 0x3
 12601 001f 16       		.uleb128 0x16
 12602 0020 00       		.byte	0
 12603 0021 03       		.uleb128 0x3
 12604 0022 0E       		.uleb128 0xe
 12605 0023 3A       		.uleb128 0x3a
 12606 0024 0B       		.uleb128 0xb
 12607 0025 3B       		.uleb128 0x3b
 12608 0026 0B       		.uleb128 0xb
 12609 0027 49       		.uleb128 0x49
 12610 0028 13       		.uleb128 0x13
 12611 0029 00       		.byte	0
 12612 002a 00       		.byte	0
 12613 002b 04       		.uleb128 0x4
 12614 002c 24       		.uleb128 0x24
 12615 002d 00       		.byte	0
 12616 002e 0B       		.uleb128 0xb
 12617 002f 0B       		.uleb128 0xb
 12618 0030 3E       		.uleb128 0x3e
 12619 0031 0B       		.uleb128 0xb
 12620 0032 03       		.uleb128 0x3
ARM GAS  C:\Users\SDEVAS~1\AppData\Local\Temp\ccPhqTSe.s 			page 245


 12621 0033 08       		.uleb128 0x8
 12622 0034 00       		.byte	0
 12623 0035 00       		.byte	0
 12624 0036 05       		.uleb128 0x5
 12625 0037 0F       		.uleb128 0xf
 12626 0038 00       		.byte	0
 12627 0039 0B       		.uleb128 0xb
 12628 003a 0B       		.uleb128 0xb
 12629 003b 49       		.uleb128 0x49
 12630 003c 13       		.uleb128 0x13
 12631 003d 00       		.byte	0
 12632 003e 00       		.byte	0
 12633 003f 06       		.uleb128 0x6
 12634 0040 15       		.uleb128 0x15
 12635 0041 00       		.byte	0
 12636 0042 27       		.uleb128 0x27
 12637 0043 19       		.uleb128 0x19
 12638 0044 00       		.byte	0
 12639 0045 00       		.byte	0
 12640 0046 07       		.uleb128 0x7
 12641 0047 0F       		.uleb128 0xf
 12642 0048 00       		.byte	0
 12643 0049 0B       		.uleb128 0xb
 12644 004a 0B       		.uleb128 0xb
 12645 004b 00       		.byte	0
 12646 004c 00       		.byte	0
 12647 004d 08       		.uleb128 0x8
 12648 004e 26       		.uleb128 0x26
 12649 004f 00       		.byte	0
 12650 0050 49       		.uleb128 0x49
 12651 0051 13       		.uleb128 0x13
 12652 0052 00       		.byte	0
 12653 0053 00       		.byte	0
 12654 0054 09       		.uleb128 0x9
 12655 0055 15       		.uleb128 0x15
 12656 0056 01       		.byte	0x1
 12657 0057 27       		.uleb128 0x27
 12658 0058 19       		.uleb128 0x19
 12659 0059 01       		.uleb128 0x1
 12660 005a 13       		.uleb128 0x13
 12661 005b 00       		.byte	0
 12662 005c 00       		.byte	0
 12663 005d 0A       		.uleb128 0xa
 12664 005e 05       		.uleb128 0x5
 12665 005f 00       		.byte	0
 12666 0060 49       		.uleb128 0x49
 12667 0061 13       		.uleb128 0x13
 12668 0062 00       		.byte	0
 12669 0063 00       		.byte	0
 12670 0064 0B       		.uleb128 0xb
 12671 0065 04       		.uleb128 0x4
 12672 0066 01       		.byte	0x1
 12673 0067 0B       		.uleb128 0xb
 12674 0068 0B       		.uleb128 0xb
 12675 0069 3A       		.uleb128 0x3a
 12676 006a 0B       		.uleb128 0xb
 12677 006b 3B       		.uleb128 0x3b
ARM GAS  C:\Users\SDEVAS~1\AppData\Local\Temp\ccPhqTSe.s 			page 246


 12678 006c 0B       		.uleb128 0xb
 12679 006d 01       		.uleb128 0x1
 12680 006e 13       		.uleb128 0x13
 12681 006f 00       		.byte	0
 12682 0070 00       		.byte	0
 12683 0071 0C       		.uleb128 0xc
 12684 0072 28       		.uleb128 0x28
 12685 0073 00       		.byte	0
 12686 0074 03       		.uleb128 0x3
 12687 0075 0E       		.uleb128 0xe
 12688 0076 1C       		.uleb128 0x1c
 12689 0077 0D       		.uleb128 0xd
 12690 0078 00       		.byte	0
 12691 0079 00       		.byte	0
 12692 007a 0D       		.uleb128 0xd
 12693 007b 13       		.uleb128 0x13
 12694 007c 01       		.byte	0x1
 12695 007d 0B       		.uleb128 0xb
 12696 007e 0B       		.uleb128 0xb
 12697 007f 3A       		.uleb128 0x3a
 12698 0080 0B       		.uleb128 0xb
 12699 0081 3B       		.uleb128 0x3b
 12700 0082 0B       		.uleb128 0xb
 12701 0083 01       		.uleb128 0x1
 12702 0084 13       		.uleb128 0x13
 12703 0085 00       		.byte	0
 12704 0086 00       		.byte	0
 12705 0087 0E       		.uleb128 0xe
 12706 0088 0D       		.uleb128 0xd
 12707 0089 00       		.byte	0
 12708 008a 03       		.uleb128 0x3
 12709 008b 0E       		.uleb128 0xe
 12710 008c 3A       		.uleb128 0x3a
 12711 008d 0B       		.uleb128 0xb
 12712 008e 3B       		.uleb128 0x3b
 12713 008f 0B       		.uleb128 0xb
 12714 0090 49       		.uleb128 0x49
 12715 0091 13       		.uleb128 0x13
 12716 0092 38       		.uleb128 0x38
 12717 0093 0B       		.uleb128 0xb
 12718 0094 00       		.byte	0
 12719 0095 00       		.byte	0
 12720 0096 0F       		.uleb128 0xf
 12721 0097 0D       		.uleb128 0xd
 12722 0098 00       		.byte	0
 12723 0099 03       		.uleb128 0x3
 12724 009a 08       		.uleb128 0x8
 12725 009b 3A       		.uleb128 0x3a
 12726 009c 0B       		.uleb128 0xb
 12727 009d 3B       		.uleb128 0x3b
 12728 009e 0B       		.uleb128 0xb
 12729 009f 49       		.uleb128 0x49
 12730 00a0 13       		.uleb128 0x13
 12731 00a1 38       		.uleb128 0x38
 12732 00a2 0B       		.uleb128 0xb
 12733 00a3 00       		.byte	0
 12734 00a4 00       		.byte	0
ARM GAS  C:\Users\SDEVAS~1\AppData\Local\Temp\ccPhqTSe.s 			page 247


 12735 00a5 10       		.uleb128 0x10
 12736 00a6 0D       		.uleb128 0xd
 12737 00a7 00       		.byte	0
 12738 00a8 03       		.uleb128 0x3
 12739 00a9 0E       		.uleb128 0xe
 12740 00aa 3A       		.uleb128 0x3a
 12741 00ab 0B       		.uleb128 0xb
 12742 00ac 3B       		.uleb128 0x3b
 12743 00ad 0B       		.uleb128 0xb
 12744 00ae 49       		.uleb128 0x49
 12745 00af 13       		.uleb128 0x13
 12746 00b0 0B       		.uleb128 0xb
 12747 00b1 0B       		.uleb128 0xb
 12748 00b2 0D       		.uleb128 0xd
 12749 00b3 0B       		.uleb128 0xb
 12750 00b4 0C       		.uleb128 0xc
 12751 00b5 0B       		.uleb128 0xb
 12752 00b6 38       		.uleb128 0x38
 12753 00b7 0B       		.uleb128 0xb
 12754 00b8 00       		.byte	0
 12755 00b9 00       		.byte	0
 12756 00ba 11       		.uleb128 0x11
 12757 00bb 13       		.uleb128 0x13
 12758 00bc 01       		.byte	0x1
 12759 00bd 0B       		.uleb128 0xb
 12760 00be 05       		.uleb128 0x5
 12761 00bf 3A       		.uleb128 0x3a
 12762 00c0 0B       		.uleb128 0xb
 12763 00c1 3B       		.uleb128 0x3b
 12764 00c2 0B       		.uleb128 0xb
 12765 00c3 01       		.uleb128 0x1
 12766 00c4 13       		.uleb128 0x13
 12767 00c5 00       		.byte	0
 12768 00c6 00       		.byte	0
 12769 00c7 12       		.uleb128 0x12
 12770 00c8 0D       		.uleb128 0xd
 12771 00c9 00       		.byte	0
 12772 00ca 03       		.uleb128 0x3
 12773 00cb 08       		.uleb128 0x8
 12774 00cc 3A       		.uleb128 0x3a
 12775 00cd 0B       		.uleb128 0xb
 12776 00ce 3B       		.uleb128 0x3b
 12777 00cf 0B       		.uleb128 0xb
 12778 00d0 49       		.uleb128 0x49
 12779 00d1 13       		.uleb128 0x13
 12780 00d2 38       		.uleb128 0x38
 12781 00d3 05       		.uleb128 0x5
 12782 00d4 00       		.byte	0
 12783 00d5 00       		.byte	0
 12784 00d6 13       		.uleb128 0x13
 12785 00d7 0D       		.uleb128 0xd
 12786 00d8 00       		.byte	0
 12787 00d9 03       		.uleb128 0x3
 12788 00da 0E       		.uleb128 0xe
 12789 00db 3A       		.uleb128 0x3a
 12790 00dc 0B       		.uleb128 0xb
 12791 00dd 3B       		.uleb128 0x3b
ARM GAS  C:\Users\SDEVAS~1\AppData\Local\Temp\ccPhqTSe.s 			page 248


 12792 00de 0B       		.uleb128 0xb
 12793 00df 49       		.uleb128 0x49
 12794 00e0 13       		.uleb128 0x13
 12795 00e1 38       		.uleb128 0x38
 12796 00e2 05       		.uleb128 0x5
 12797 00e3 00       		.byte	0
 12798 00e4 00       		.byte	0
 12799 00e5 14       		.uleb128 0x14
 12800 00e6 01       		.uleb128 0x1
 12801 00e7 01       		.byte	0x1
 12802 00e8 49       		.uleb128 0x49
 12803 00e9 13       		.uleb128 0x13
 12804 00ea 01       		.uleb128 0x1
 12805 00eb 13       		.uleb128 0x13
 12806 00ec 00       		.byte	0
 12807 00ed 00       		.byte	0
 12808 00ee 15       		.uleb128 0x15
 12809 00ef 21       		.uleb128 0x21
 12810 00f0 00       		.byte	0
 12811 00f1 49       		.uleb128 0x49
 12812 00f2 13       		.uleb128 0x13
 12813 00f3 2F       		.uleb128 0x2f
 12814 00f4 05       		.uleb128 0x5
 12815 00f5 00       		.byte	0
 12816 00f6 00       		.byte	0
 12817 00f7 16       		.uleb128 0x16
 12818 00f8 2E       		.uleb128 0x2e
 12819 00f9 01       		.byte	0x1
 12820 00fa 3F       		.uleb128 0x3f
 12821 00fb 19       		.uleb128 0x19
 12822 00fc 03       		.uleb128 0x3
 12823 00fd 0E       		.uleb128 0xe
 12824 00fe 3A       		.uleb128 0x3a
 12825 00ff 0B       		.uleb128 0xb
 12826 0100 3B       		.uleb128 0x3b
 12827 0101 05       		.uleb128 0x5
 12828 0102 27       		.uleb128 0x27
 12829 0103 19       		.uleb128 0x19
 12830 0104 20       		.uleb128 0x20
 12831 0105 0B       		.uleb128 0xb
 12832 0106 01       		.uleb128 0x1
 12833 0107 13       		.uleb128 0x13
 12834 0108 00       		.byte	0
 12835 0109 00       		.byte	0
 12836 010a 17       		.uleb128 0x17
 12837 010b 05       		.uleb128 0x5
 12838 010c 00       		.byte	0
 12839 010d 03       		.uleb128 0x3
 12840 010e 0E       		.uleb128 0xe
 12841 010f 3A       		.uleb128 0x3a
 12842 0110 0B       		.uleb128 0xb
 12843 0111 3B       		.uleb128 0x3b
 12844 0112 05       		.uleb128 0x5
 12845 0113 49       		.uleb128 0x49
 12846 0114 13       		.uleb128 0x13
 12847 0115 00       		.byte	0
 12848 0116 00       		.byte	0
ARM GAS  C:\Users\SDEVAS~1\AppData\Local\Temp\ccPhqTSe.s 			page 249


 12849 0117 18       		.uleb128 0x18
 12850 0118 05       		.uleb128 0x5
 12851 0119 00       		.byte	0
 12852 011a 03       		.uleb128 0x3
 12853 011b 08       		.uleb128 0x8
 12854 011c 3A       		.uleb128 0x3a
 12855 011d 0B       		.uleb128 0xb
 12856 011e 3B       		.uleb128 0x3b
 12857 011f 05       		.uleb128 0x5
 12858 0120 49       		.uleb128 0x49
 12859 0121 13       		.uleb128 0x13
 12860 0122 00       		.byte	0
 12861 0123 00       		.byte	0
 12862 0124 19       		.uleb128 0x19
 12863 0125 2E       		.uleb128 0x2e
 12864 0126 01       		.byte	0x1
 12865 0127 3F       		.uleb128 0x3f
 12866 0128 19       		.uleb128 0x19
 12867 0129 03       		.uleb128 0x3
 12868 012a 0E       		.uleb128 0xe
 12869 012b 3A       		.uleb128 0x3a
 12870 012c 0B       		.uleb128 0xb
 12871 012d 3B       		.uleb128 0x3b
 12872 012e 05       		.uleb128 0x5
 12873 012f 27       		.uleb128 0x27
 12874 0130 19       		.uleb128 0x19
 12875 0131 49       		.uleb128 0x49
 12876 0132 13       		.uleb128 0x13
 12877 0133 20       		.uleb128 0x20
 12878 0134 0B       		.uleb128 0xb
 12879 0135 01       		.uleb128 0x1
 12880 0136 13       		.uleb128 0x13
 12881 0137 00       		.byte	0
 12882 0138 00       		.byte	0
 12883 0139 1A       		.uleb128 0x1a
 12884 013a 0A       		.uleb128 0xa
 12885 013b 00       		.byte	0
 12886 013c 03       		.uleb128 0x3
 12887 013d 0E       		.uleb128 0xe
 12888 013e 3A       		.uleb128 0x3a
 12889 013f 0B       		.uleb128 0xb
 12890 0140 3B       		.uleb128 0x3b
 12891 0141 05       		.uleb128 0x5
 12892 0142 00       		.byte	0
 12893 0143 00       		.byte	0
 12894 0144 1B       		.uleb128 0x1b
 12895 0145 34       		.uleb128 0x34
 12896 0146 00       		.byte	0
 12897 0147 03       		.uleb128 0x3
 12898 0148 08       		.uleb128 0x8
 12899 0149 3A       		.uleb128 0x3a
 12900 014a 0B       		.uleb128 0xb
 12901 014b 3B       		.uleb128 0x3b
 12902 014c 05       		.uleb128 0x5
 12903 014d 49       		.uleb128 0x49
 12904 014e 13       		.uleb128 0x13
 12905 014f 00       		.byte	0
ARM GAS  C:\Users\SDEVAS~1\AppData\Local\Temp\ccPhqTSe.s 			page 250


 12906 0150 00       		.byte	0
 12907 0151 1C       		.uleb128 0x1c
 12908 0152 34       		.uleb128 0x34
 12909 0153 00       		.byte	0
 12910 0154 03       		.uleb128 0x3
 12911 0155 0E       		.uleb128 0xe
 12912 0156 3A       		.uleb128 0x3a
 12913 0157 0B       		.uleb128 0xb
 12914 0158 3B       		.uleb128 0x3b
 12915 0159 05       		.uleb128 0x5
 12916 015a 49       		.uleb128 0x49
 12917 015b 13       		.uleb128 0x13
 12918 015c 00       		.byte	0
 12919 015d 00       		.byte	0
 12920 015e 1D       		.uleb128 0x1d
 12921 015f 0B       		.uleb128 0xb
 12922 0160 01       		.byte	0x1
 12923 0161 00       		.byte	0
 12924 0162 00       		.byte	0
 12925 0163 1E       		.uleb128 0x1e
 12926 0164 2E       		.uleb128 0x2e
 12927 0165 01       		.byte	0x1
 12928 0166 03       		.uleb128 0x3
 12929 0167 0E       		.uleb128 0xe
 12930 0168 3A       		.uleb128 0x3a
 12931 0169 0B       		.uleb128 0xb
 12932 016a 3B       		.uleb128 0x3b
 12933 016b 0B       		.uleb128 0xb
 12934 016c 27       		.uleb128 0x27
 12935 016d 19       		.uleb128 0x19
 12936 016e 49       		.uleb128 0x49
 12937 016f 13       		.uleb128 0x13
 12938 0170 11       		.uleb128 0x11
 12939 0171 01       		.uleb128 0x1
 12940 0172 12       		.uleb128 0x12
 12941 0173 06       		.uleb128 0x6
 12942 0174 40       		.uleb128 0x40
 12943 0175 18       		.uleb128 0x18
 12944 0176 9742     		.uleb128 0x2117
 12945 0178 19       		.uleb128 0x19
 12946 0179 01       		.uleb128 0x1
 12947 017a 13       		.uleb128 0x13
 12948 017b 00       		.byte	0
 12949 017c 00       		.byte	0
 12950 017d 1F       		.uleb128 0x1f
 12951 017e 05       		.uleb128 0x5
 12952 017f 00       		.byte	0
 12953 0180 03       		.uleb128 0x3
 12954 0181 0E       		.uleb128 0xe
 12955 0182 3A       		.uleb128 0x3a
 12956 0183 0B       		.uleb128 0xb
 12957 0184 3B       		.uleb128 0x3b
 12958 0185 0B       		.uleb128 0xb
 12959 0186 49       		.uleb128 0x49
 12960 0187 13       		.uleb128 0x13
 12961 0188 02       		.uleb128 0x2
 12962 0189 17       		.uleb128 0x17
ARM GAS  C:\Users\SDEVAS~1\AppData\Local\Temp\ccPhqTSe.s 			page 251


 12963 018a 00       		.byte	0
 12964 018b 00       		.byte	0
 12965 018c 20       		.uleb128 0x20
 12966 018d 0B       		.uleb128 0xb
 12967 018e 01       		.byte	0x1
 12968 018f 11       		.uleb128 0x11
 12969 0190 01       		.uleb128 0x1
 12970 0191 12       		.uleb128 0x12
 12971 0192 06       		.uleb128 0x6
 12972 0193 00       		.byte	0
 12973 0194 00       		.byte	0
 12974 0195 21       		.uleb128 0x21
 12975 0196 34       		.uleb128 0x34
 12976 0197 00       		.byte	0
 12977 0198 03       		.uleb128 0x3
 12978 0199 0E       		.uleb128 0xe
 12979 019a 3A       		.uleb128 0x3a
 12980 019b 0B       		.uleb128 0xb
 12981 019c 3B       		.uleb128 0x3b
 12982 019d 0B       		.uleb128 0xb
 12983 019e 49       		.uleb128 0x49
 12984 019f 13       		.uleb128 0x13
 12985 01a0 02       		.uleb128 0x2
 12986 01a1 17       		.uleb128 0x17
 12987 01a2 00       		.byte	0
 12988 01a3 00       		.byte	0
 12989 01a4 22       		.uleb128 0x22
 12990 01a5 2E       		.uleb128 0x2e
 12991 01a6 01       		.byte	0x1
 12992 01a7 3F       		.uleb128 0x3f
 12993 01a8 19       		.uleb128 0x19
 12994 01a9 03       		.uleb128 0x3
 12995 01aa 0E       		.uleb128 0xe
 12996 01ab 3A       		.uleb128 0x3a
 12997 01ac 0B       		.uleb128 0xb
 12998 01ad 3B       		.uleb128 0x3b
 12999 01ae 05       		.uleb128 0x5
 13000 01af 27       		.uleb128 0x27
 13001 01b0 19       		.uleb128 0x19
 13002 01b1 11       		.uleb128 0x11
 13003 01b2 01       		.uleb128 0x1
 13004 01b3 12       		.uleb128 0x12
 13005 01b4 06       		.uleb128 0x6
 13006 01b5 40       		.uleb128 0x40
 13007 01b6 18       		.uleb128 0x18
 13008 01b7 9742     		.uleb128 0x2117
 13009 01b9 19       		.uleb128 0x19
 13010 01ba 01       		.uleb128 0x1
 13011 01bb 13       		.uleb128 0x13
 13012 01bc 00       		.byte	0
 13013 01bd 00       		.byte	0
 13014 01be 23       		.uleb128 0x23
 13015 01bf 05       		.uleb128 0x5
 13016 01c0 00       		.byte	0
 13017 01c1 03       		.uleb128 0x3
 13018 01c2 0E       		.uleb128 0xe
 13019 01c3 3A       		.uleb128 0x3a
ARM GAS  C:\Users\SDEVAS~1\AppData\Local\Temp\ccPhqTSe.s 			page 252


 13020 01c4 0B       		.uleb128 0xb
 13021 01c5 3B       		.uleb128 0x3b
 13022 01c6 05       		.uleb128 0x5
 13023 01c7 49       		.uleb128 0x49
 13024 01c8 13       		.uleb128 0x13
 13025 01c9 02       		.uleb128 0x2
 13026 01ca 17       		.uleb128 0x17
 13027 01cb 00       		.byte	0
 13028 01cc 00       		.byte	0
 13029 01cd 24       		.uleb128 0x24
 13030 01ce 2E       		.uleb128 0x2e
 13031 01cf 00       		.byte	0
 13032 01d0 3F       		.uleb128 0x3f
 13033 01d1 19       		.uleb128 0x19
 13034 01d2 03       		.uleb128 0x3
 13035 01d3 0E       		.uleb128 0xe
 13036 01d4 3A       		.uleb128 0x3a
 13037 01d5 0B       		.uleb128 0xb
 13038 01d6 3B       		.uleb128 0x3b
 13039 01d7 05       		.uleb128 0x5
 13040 01d8 27       		.uleb128 0x27
 13041 01d9 19       		.uleb128 0x19
 13042 01da 11       		.uleb128 0x11
 13043 01db 01       		.uleb128 0x1
 13044 01dc 12       		.uleb128 0x12
 13045 01dd 06       		.uleb128 0x6
 13046 01de 40       		.uleb128 0x40
 13047 01df 18       		.uleb128 0x18
 13048 01e0 9742     		.uleb128 0x2117
 13049 01e2 19       		.uleb128 0x19
 13050 01e3 00       		.byte	0
 13051 01e4 00       		.byte	0
 13052 01e5 25       		.uleb128 0x25
 13053 01e6 05       		.uleb128 0x5
 13054 01e7 00       		.byte	0
 13055 01e8 03       		.uleb128 0x3
 13056 01e9 08       		.uleb128 0x8
 13057 01ea 3A       		.uleb128 0x3a
 13058 01eb 0B       		.uleb128 0xb
 13059 01ec 3B       		.uleb128 0x3b
 13060 01ed 05       		.uleb128 0x5
 13061 01ee 49       		.uleb128 0x49
 13062 01ef 13       		.uleb128 0x13
 13063 01f0 02       		.uleb128 0x2
 13064 01f1 17       		.uleb128 0x17
 13065 01f2 00       		.byte	0
 13066 01f3 00       		.byte	0
 13067 01f4 26       		.uleb128 0x26
 13068 01f5 2E       		.uleb128 0x2e
 13069 01f6 01       		.byte	0x1
 13070 01f7 03       		.uleb128 0x3
 13071 01f8 0E       		.uleb128 0xe
 13072 01f9 3A       		.uleb128 0x3a
 13073 01fa 0B       		.uleb128 0xb
 13074 01fb 3B       		.uleb128 0x3b
 13075 01fc 0B       		.uleb128 0xb
 13076 01fd 27       		.uleb128 0x27
ARM GAS  C:\Users\SDEVAS~1\AppData\Local\Temp\ccPhqTSe.s 			page 253


 13077 01fe 19       		.uleb128 0x19
 13078 01ff 11       		.uleb128 0x11
 13079 0200 01       		.uleb128 0x1
 13080 0201 12       		.uleb128 0x12
 13081 0202 06       		.uleb128 0x6
 13082 0203 40       		.uleb128 0x40
 13083 0204 18       		.uleb128 0x18
 13084 0205 9742     		.uleb128 0x2117
 13085 0207 19       		.uleb128 0x19
 13086 0208 01       		.uleb128 0x1
 13087 0209 13       		.uleb128 0x13
 13088 020a 00       		.byte	0
 13089 020b 00       		.byte	0
 13090 020c 27       		.uleb128 0x27
 13091 020d 05       		.uleb128 0x5
 13092 020e 00       		.byte	0
 13093 020f 03       		.uleb128 0x3
 13094 0210 08       		.uleb128 0x8
 13095 0211 3A       		.uleb128 0x3a
 13096 0212 0B       		.uleb128 0xb
 13097 0213 3B       		.uleb128 0x3b
 13098 0214 0B       		.uleb128 0xb
 13099 0215 49       		.uleb128 0x49
 13100 0216 13       		.uleb128 0x13
 13101 0217 02       		.uleb128 0x2
 13102 0218 17       		.uleb128 0x17
 13103 0219 00       		.byte	0
 13104 021a 00       		.byte	0
 13105 021b 28       		.uleb128 0x28
 13106 021c 05       		.uleb128 0x5
 13107 021d 00       		.byte	0
 13108 021e 03       		.uleb128 0x3
 13109 021f 0E       		.uleb128 0xe
 13110 0220 3A       		.uleb128 0x3a
 13111 0221 0B       		.uleb128 0xb
 13112 0222 3B       		.uleb128 0x3b
 13113 0223 0B       		.uleb128 0xb
 13114 0224 49       		.uleb128 0x49
 13115 0225 13       		.uleb128 0x13
 13116 0226 02       		.uleb128 0x2
 13117 0227 18       		.uleb128 0x18
 13118 0228 00       		.byte	0
 13119 0229 00       		.byte	0
 13120 022a 29       		.uleb128 0x29
 13121 022b 898201   		.uleb128 0x4109
 13122 022e 01       		.byte	0x1
 13123 022f 11       		.uleb128 0x11
 13124 0230 01       		.uleb128 0x1
 13125 0231 31       		.uleb128 0x31
 13126 0232 13       		.uleb128 0x13
 13127 0233 01       		.uleb128 0x1
 13128 0234 13       		.uleb128 0x13
 13129 0235 00       		.byte	0
 13130 0236 00       		.byte	0
 13131 0237 2A       		.uleb128 0x2a
 13132 0238 8A8201   		.uleb128 0x410a
 13133 023b 00       		.byte	0
ARM GAS  C:\Users\SDEVAS~1\AppData\Local\Temp\ccPhqTSe.s 			page 254


 13134 023c 02       		.uleb128 0x2
 13135 023d 18       		.uleb128 0x18
 13136 023e 9142     		.uleb128 0x2111
 13137 0240 18       		.uleb128 0x18
 13138 0241 00       		.byte	0
 13139 0242 00       		.byte	0
 13140 0243 2B       		.uleb128 0x2b
 13141 0244 898201   		.uleb128 0x4109
 13142 0247 01       		.byte	0x1
 13143 0248 11       		.uleb128 0x11
 13144 0249 01       		.uleb128 0x1
 13145 024a 31       		.uleb128 0x31
 13146 024b 13       		.uleb128 0x13
 13147 024c 00       		.byte	0
 13148 024d 00       		.byte	0
 13149 024e 2C       		.uleb128 0x2c
 13150 024f 898201   		.uleb128 0x4109
 13151 0252 00       		.byte	0
 13152 0253 11       		.uleb128 0x11
 13153 0254 01       		.uleb128 0x1
 13154 0255 31       		.uleb128 0x31
 13155 0256 13       		.uleb128 0x13
 13156 0257 00       		.byte	0
 13157 0258 00       		.byte	0
 13158 0259 2D       		.uleb128 0x2d
 13159 025a 2E       		.uleb128 0x2e
 13160 025b 01       		.byte	0x1
 13161 025c 31       		.uleb128 0x31
 13162 025d 13       		.uleb128 0x13
 13163 025e 11       		.uleb128 0x11
 13164 025f 01       		.uleb128 0x1
 13165 0260 12       		.uleb128 0x12
 13166 0261 06       		.uleb128 0x6
 13167 0262 40       		.uleb128 0x40
 13168 0263 18       		.uleb128 0x18
 13169 0264 9742     		.uleb128 0x2117
 13170 0266 19       		.uleb128 0x19
 13171 0267 01       		.uleb128 0x1
 13172 0268 13       		.uleb128 0x13
 13173 0269 00       		.byte	0
 13174 026a 00       		.byte	0
 13175 026b 2E       		.uleb128 0x2e
 13176 026c 05       		.uleb128 0x5
 13177 026d 00       		.byte	0
 13178 026e 31       		.uleb128 0x31
 13179 026f 13       		.uleb128 0x13
 13180 0270 02       		.uleb128 0x2
 13181 0271 17       		.uleb128 0x17
 13182 0272 00       		.byte	0
 13183 0273 00       		.byte	0
 13184 0274 2F       		.uleb128 0x2f
 13185 0275 0B       		.uleb128 0xb
 13186 0276 01       		.byte	0x1
 13187 0277 11       		.uleb128 0x11
 13188 0278 01       		.uleb128 0x1
 13189 0279 12       		.uleb128 0x12
 13190 027a 06       		.uleb128 0x6
ARM GAS  C:\Users\SDEVAS~1\AppData\Local\Temp\ccPhqTSe.s 			page 255


 13191 027b 01       		.uleb128 0x1
 13192 027c 13       		.uleb128 0x13
 13193 027d 00       		.byte	0
 13194 027e 00       		.byte	0
 13195 027f 30       		.uleb128 0x30
 13196 0280 0A       		.uleb128 0xa
 13197 0281 00       		.byte	0
 13198 0282 31       		.uleb128 0x31
 13199 0283 13       		.uleb128 0x13
 13200 0284 11       		.uleb128 0x11
 13201 0285 01       		.uleb128 0x1
 13202 0286 00       		.byte	0
 13203 0287 00       		.byte	0
 13204 0288 31       		.uleb128 0x31
 13205 0289 34       		.uleb128 0x34
 13206 028a 00       		.byte	0
 13207 028b 31       		.uleb128 0x31
 13208 028c 13       		.uleb128 0x13
 13209 028d 02       		.uleb128 0x2
 13210 028e 17       		.uleb128 0x17
 13211 028f 00       		.byte	0
 13212 0290 00       		.byte	0
 13213 0291 32       		.uleb128 0x32
 13214 0292 05       		.uleb128 0x5
 13215 0293 00       		.byte	0
 13216 0294 31       		.uleb128 0x31
 13217 0295 13       		.uleb128 0x13
 13218 0296 02       		.uleb128 0x2
 13219 0297 18       		.uleb128 0x18
 13220 0298 00       		.byte	0
 13221 0299 00       		.byte	0
 13222 029a 33       		.uleb128 0x33
 13223 029b 0B       		.uleb128 0xb
 13224 029c 01       		.byte	0x1
 13225 029d 55       		.uleb128 0x55
 13226 029e 17       		.uleb128 0x17
 13227 029f 00       		.byte	0
 13228 02a0 00       		.byte	0
 13229 02a1 34       		.uleb128 0x34
 13230 02a2 34       		.uleb128 0x34
 13231 02a3 00       		.byte	0
 13232 02a4 31       		.uleb128 0x31
 13233 02a5 13       		.uleb128 0x13
 13234 02a6 00       		.byte	0
 13235 02a7 00       		.byte	0
 13236 02a8 35       		.uleb128 0x35
 13237 02a9 2E       		.uleb128 0x2e
 13238 02aa 01       		.byte	0x1
 13239 02ab 03       		.uleb128 0x3
 13240 02ac 0E       		.uleb128 0xe
 13241 02ad 3A       		.uleb128 0x3a
 13242 02ae 0B       		.uleb128 0xb
 13243 02af 3B       		.uleb128 0x3b
 13244 02b0 0B       		.uleb128 0xb
 13245 02b1 27       		.uleb128 0x27
 13246 02b2 19       		.uleb128 0x19
 13247 02b3 49       		.uleb128 0x49
ARM GAS  C:\Users\SDEVAS~1\AppData\Local\Temp\ccPhqTSe.s 			page 256


 13248 02b4 13       		.uleb128 0x13
 13249 02b5 20       		.uleb128 0x20
 13250 02b6 0B       		.uleb128 0xb
 13251 02b7 01       		.uleb128 0x1
 13252 02b8 13       		.uleb128 0x13
 13253 02b9 00       		.byte	0
 13254 02ba 00       		.byte	0
 13255 02bb 36       		.uleb128 0x36
 13256 02bc 05       		.uleb128 0x5
 13257 02bd 00       		.byte	0
 13258 02be 03       		.uleb128 0x3
 13259 02bf 08       		.uleb128 0x8
 13260 02c0 3A       		.uleb128 0x3a
 13261 02c1 0B       		.uleb128 0xb
 13262 02c2 3B       		.uleb128 0x3b
 13263 02c3 0B       		.uleb128 0xb
 13264 02c4 49       		.uleb128 0x49
 13265 02c5 13       		.uleb128 0x13
 13266 02c6 00       		.byte	0
 13267 02c7 00       		.byte	0
 13268 02c8 37       		.uleb128 0x37
 13269 02c9 05       		.uleb128 0x5
 13270 02ca 00       		.byte	0
 13271 02cb 03       		.uleb128 0x3
 13272 02cc 0E       		.uleb128 0xe
 13273 02cd 3A       		.uleb128 0x3a
 13274 02ce 0B       		.uleb128 0xb
 13275 02cf 3B       		.uleb128 0x3b
 13276 02d0 0B       		.uleb128 0xb
 13277 02d1 49       		.uleb128 0x49
 13278 02d2 13       		.uleb128 0x13
 13279 02d3 00       		.byte	0
 13280 02d4 00       		.byte	0
 13281 02d5 38       		.uleb128 0x38
 13282 02d6 2E       		.uleb128 0x2e
 13283 02d7 01       		.byte	0x1
 13284 02d8 3F       		.uleb128 0x3f
 13285 02d9 19       		.uleb128 0x19
 13286 02da 03       		.uleb128 0x3
 13287 02db 0E       		.uleb128 0xe
 13288 02dc 3A       		.uleb128 0x3a
 13289 02dd 0B       		.uleb128 0xb
 13290 02de 3B       		.uleb128 0x3b
 13291 02df 0B       		.uleb128 0xb
 13292 02e0 27       		.uleb128 0x27
 13293 02e1 19       		.uleb128 0x19
 13294 02e2 11       		.uleb128 0x11
 13295 02e3 01       		.uleb128 0x1
 13296 02e4 12       		.uleb128 0x12
 13297 02e5 06       		.uleb128 0x6
 13298 02e6 40       		.uleb128 0x40
 13299 02e7 18       		.uleb128 0x18
 13300 02e8 9742     		.uleb128 0x2117
 13301 02ea 19       		.uleb128 0x19
 13302 02eb 01       		.uleb128 0x1
 13303 02ec 13       		.uleb128 0x13
 13304 02ed 00       		.byte	0
ARM GAS  C:\Users\SDEVAS~1\AppData\Local\Temp\ccPhqTSe.s 			page 257


 13305 02ee 00       		.byte	0
 13306 02ef 39       		.uleb128 0x39
 13307 02f0 34       		.uleb128 0x34
 13308 02f1 00       		.byte	0
 13309 02f2 03       		.uleb128 0x3
 13310 02f3 08       		.uleb128 0x8
 13311 02f4 3A       		.uleb128 0x3a
 13312 02f5 0B       		.uleb128 0xb
 13313 02f6 3B       		.uleb128 0x3b
 13314 02f7 0B       		.uleb128 0xb
 13315 02f8 49       		.uleb128 0x49
 13316 02f9 13       		.uleb128 0x13
 13317 02fa 00       		.byte	0
 13318 02fb 00       		.byte	0
 13319 02fc 3A       		.uleb128 0x3a
 13320 02fd 1D       		.uleb128 0x1d
 13321 02fe 01       		.byte	0x1
 13322 02ff 31       		.uleb128 0x31
 13323 0300 13       		.uleb128 0x13
 13324 0301 52       		.uleb128 0x52
 13325 0302 01       		.uleb128 0x1
 13326 0303 55       		.uleb128 0x55
 13327 0304 17       		.uleb128 0x17
 13328 0305 58       		.uleb128 0x58
 13329 0306 0B       		.uleb128 0xb
 13330 0307 59       		.uleb128 0x59
 13331 0308 0B       		.uleb128 0xb
 13332 0309 01       		.uleb128 0x1
 13333 030a 13       		.uleb128 0x13
 13334 030b 00       		.byte	0
 13335 030c 00       		.byte	0
 13336 030d 3B       		.uleb128 0x3b
 13337 030e 2E       		.uleb128 0x2e
 13338 030f 01       		.byte	0x1
 13339 0310 3F       		.uleb128 0x3f
 13340 0311 19       		.uleb128 0x19
 13341 0312 03       		.uleb128 0x3
 13342 0313 0E       		.uleb128 0xe
 13343 0314 3A       		.uleb128 0x3a
 13344 0315 0B       		.uleb128 0xb
 13345 0316 3B       		.uleb128 0x3b
 13346 0317 0B       		.uleb128 0xb
 13347 0318 27       		.uleb128 0x27
 13348 0319 19       		.uleb128 0x19
 13349 031a 49       		.uleb128 0x49
 13350 031b 13       		.uleb128 0x13
 13351 031c 11       		.uleb128 0x11
 13352 031d 01       		.uleb128 0x1
 13353 031e 12       		.uleb128 0x12
 13354 031f 06       		.uleb128 0x6
 13355 0320 40       		.uleb128 0x40
 13356 0321 18       		.uleb128 0x18
 13357 0322 9742     		.uleb128 0x2117
 13358 0324 19       		.uleb128 0x19
 13359 0325 01       		.uleb128 0x1
 13360 0326 13       		.uleb128 0x13
 13361 0327 00       		.byte	0
ARM GAS  C:\Users\SDEVAS~1\AppData\Local\Temp\ccPhqTSe.s 			page 258


 13362 0328 00       		.byte	0
 13363 0329 3C       		.uleb128 0x3c
 13364 032a 34       		.uleb128 0x34
 13365 032b 00       		.byte	0
 13366 032c 03       		.uleb128 0x3
 13367 032d 08       		.uleb128 0x8
 13368 032e 3A       		.uleb128 0x3a
 13369 032f 0B       		.uleb128 0xb
 13370 0330 3B       		.uleb128 0x3b
 13371 0331 0B       		.uleb128 0xb
 13372 0332 49       		.uleb128 0x49
 13373 0333 13       		.uleb128 0x13
 13374 0334 02       		.uleb128 0x2
 13375 0335 17       		.uleb128 0x17
 13376 0336 00       		.byte	0
 13377 0337 00       		.byte	0
 13378 0338 3D       		.uleb128 0x3d
 13379 0339 0B       		.uleb128 0xb
 13380 033a 01       		.byte	0x1
 13381 033b 55       		.uleb128 0x55
 13382 033c 17       		.uleb128 0x17
 13383 033d 01       		.uleb128 0x1
 13384 033e 13       		.uleb128 0x13
 13385 033f 00       		.byte	0
 13386 0340 00       		.byte	0
 13387 0341 3E       		.uleb128 0x3e
 13388 0342 1D       		.uleb128 0x1d
 13389 0343 01       		.byte	0x1
 13390 0344 31       		.uleb128 0x31
 13391 0345 13       		.uleb128 0x13
 13392 0346 11       		.uleb128 0x11
 13393 0347 01       		.uleb128 0x1
 13394 0348 12       		.uleb128 0x12
 13395 0349 06       		.uleb128 0x6
 13396 034a 58       		.uleb128 0x58
 13397 034b 0B       		.uleb128 0xb
 13398 034c 59       		.uleb128 0x59
 13399 034d 05       		.uleb128 0x5
 13400 034e 01       		.uleb128 0x1
 13401 034f 13       		.uleb128 0x13
 13402 0350 00       		.byte	0
 13403 0351 00       		.byte	0
 13404 0352 3F       		.uleb128 0x3f
 13405 0353 0A       		.uleb128 0xa
 13406 0354 00       		.byte	0
 13407 0355 31       		.uleb128 0x31
 13408 0356 13       		.uleb128 0x13
 13409 0357 00       		.byte	0
 13410 0358 00       		.byte	0
 13411 0359 40       		.uleb128 0x40
 13412 035a 8A8201   		.uleb128 0x410a
 13413 035d 00       		.byte	0
 13414 035e 31       		.uleb128 0x31
 13415 035f 13       		.uleb128 0x13
 13416 0360 9142     		.uleb128 0x2111
 13417 0362 18       		.uleb128 0x18
 13418 0363 00       		.byte	0
ARM GAS  C:\Users\SDEVAS~1\AppData\Local\Temp\ccPhqTSe.s 			page 259


 13419 0364 00       		.byte	0
 13420 0365 41       		.uleb128 0x41
 13421 0366 2E       		.uleb128 0x2e
 13422 0367 01       		.byte	0x1
 13423 0368 3F       		.uleb128 0x3f
 13424 0369 19       		.uleb128 0x19
 13425 036a 03       		.uleb128 0x3
 13426 036b 0E       		.uleb128 0xe
 13427 036c 3A       		.uleb128 0x3a
 13428 036d 0B       		.uleb128 0xb
 13429 036e 3B       		.uleb128 0x3b
 13430 036f 05       		.uleb128 0x5
 13431 0370 27       		.uleb128 0x27
 13432 0371 19       		.uleb128 0x19
 13433 0372 49       		.uleb128 0x49
 13434 0373 13       		.uleb128 0x13
 13435 0374 11       		.uleb128 0x11
 13436 0375 01       		.uleb128 0x1
 13437 0376 12       		.uleb128 0x12
 13438 0377 06       		.uleb128 0x6
 13439 0378 40       		.uleb128 0x40
 13440 0379 18       		.uleb128 0x18
 13441 037a 9742     		.uleb128 0x2117
 13442 037c 19       		.uleb128 0x19
 13443 037d 01       		.uleb128 0x1
 13444 037e 13       		.uleb128 0x13
 13445 037f 00       		.byte	0
 13446 0380 00       		.byte	0
 13447 0381 42       		.uleb128 0x42
 13448 0382 05       		.uleb128 0x5
 13449 0383 00       		.byte	0
 13450 0384 03       		.uleb128 0x3
 13451 0385 0E       		.uleb128 0xe
 13452 0386 3A       		.uleb128 0x3a
 13453 0387 0B       		.uleb128 0xb
 13454 0388 3B       		.uleb128 0x3b
 13455 0389 05       		.uleb128 0x5
 13456 038a 49       		.uleb128 0x49
 13457 038b 13       		.uleb128 0x13
 13458 038c 02       		.uleb128 0x2
 13459 038d 18       		.uleb128 0x18
 13460 038e 00       		.byte	0
 13461 038f 00       		.byte	0
 13462 0390 43       		.uleb128 0x43
 13463 0391 2E       		.uleb128 0x2e
 13464 0392 01       		.byte	0x1
 13465 0393 03       		.uleb128 0x3
 13466 0394 0E       		.uleb128 0xe
 13467 0395 3A       		.uleb128 0x3a
 13468 0396 0B       		.uleb128 0xb
 13469 0397 3B       		.uleb128 0x3b
 13470 0398 05       		.uleb128 0x5
 13471 0399 27       		.uleb128 0x27
 13472 039a 19       		.uleb128 0x19
 13473 039b 49       		.uleb128 0x49
 13474 039c 13       		.uleb128 0x13
 13475 039d 20       		.uleb128 0x20
ARM GAS  C:\Users\SDEVAS~1\AppData\Local\Temp\ccPhqTSe.s 			page 260


 13476 039e 0B       		.uleb128 0xb
 13477 039f 01       		.uleb128 0x1
 13478 03a0 13       		.uleb128 0x13
 13479 03a1 00       		.byte	0
 13480 03a2 00       		.byte	0
 13481 03a3 44       		.uleb128 0x44
 13482 03a4 34       		.uleb128 0x34
 13483 03a5 00       		.byte	0
 13484 03a6 03       		.uleb128 0x3
 13485 03a7 0E       		.uleb128 0xe
 13486 03a8 3A       		.uleb128 0x3a
 13487 03a9 0B       		.uleb128 0xb
 13488 03aa 3B       		.uleb128 0x3b
 13489 03ab 05       		.uleb128 0x5
 13490 03ac 49       		.uleb128 0x49
 13491 03ad 13       		.uleb128 0x13
 13492 03ae 02       		.uleb128 0x2
 13493 03af 18       		.uleb128 0x18
 13494 03b0 00       		.byte	0
 13495 03b1 00       		.byte	0
 13496 03b2 45       		.uleb128 0x45
 13497 03b3 34       		.uleb128 0x34
 13498 03b4 00       		.byte	0
 13499 03b5 03       		.uleb128 0x3
 13500 03b6 08       		.uleb128 0x8
 13501 03b7 3A       		.uleb128 0x3a
 13502 03b8 0B       		.uleb128 0xb
 13503 03b9 3B       		.uleb128 0x3b
 13504 03ba 05       		.uleb128 0x5
 13505 03bb 49       		.uleb128 0x49
 13506 03bc 13       		.uleb128 0x13
 13507 03bd 02       		.uleb128 0x2
 13508 03be 17       		.uleb128 0x17
 13509 03bf 00       		.byte	0
 13510 03c0 00       		.byte	0
 13511 03c1 46       		.uleb128 0x46
 13512 03c2 34       		.uleb128 0x34
 13513 03c3 00       		.byte	0
 13514 03c4 03       		.uleb128 0x3
 13515 03c5 0E       		.uleb128 0xe
 13516 03c6 3A       		.uleb128 0x3a
 13517 03c7 0B       		.uleb128 0xb
 13518 03c8 3B       		.uleb128 0x3b
 13519 03c9 05       		.uleb128 0x5
 13520 03ca 49       		.uleb128 0x49
 13521 03cb 13       		.uleb128 0x13
 13522 03cc 02       		.uleb128 0x2
 13523 03cd 17       		.uleb128 0x17
 13524 03ce 00       		.byte	0
 13525 03cf 00       		.byte	0
 13526 03d0 47       		.uleb128 0x47
 13527 03d1 1D       		.uleb128 0x1d
 13528 03d2 01       		.byte	0x1
 13529 03d3 31       		.uleb128 0x31
 13530 03d4 13       		.uleb128 0x13
 13531 03d5 52       		.uleb128 0x52
 13532 03d6 01       		.uleb128 0x1
ARM GAS  C:\Users\SDEVAS~1\AppData\Local\Temp\ccPhqTSe.s 			page 261


 13533 03d7 55       		.uleb128 0x55
 13534 03d8 17       		.uleb128 0x17
 13535 03d9 58       		.uleb128 0x58
 13536 03da 0B       		.uleb128 0xb
 13537 03db 59       		.uleb128 0x59
 13538 03dc 05       		.uleb128 0x5
 13539 03dd 01       		.uleb128 0x1
 13540 03de 13       		.uleb128 0x13
 13541 03df 00       		.byte	0
 13542 03e0 00       		.byte	0
 13543 03e1 48       		.uleb128 0x48
 13544 03e2 21       		.uleb128 0x21
 13545 03e3 00       		.byte	0
 13546 03e4 49       		.uleb128 0x49
 13547 03e5 13       		.uleb128 0x13
 13548 03e6 2F       		.uleb128 0x2f
 13549 03e7 0B       		.uleb128 0xb
 13550 03e8 00       		.byte	0
 13551 03e9 00       		.byte	0
 13552 03ea 49       		.uleb128 0x49
 13553 03eb 34       		.uleb128 0x34
 13554 03ec 00       		.byte	0
 13555 03ed 03       		.uleb128 0x3
 13556 03ee 0E       		.uleb128 0xe
 13557 03ef 3A       		.uleb128 0x3a
 13558 03f0 0B       		.uleb128 0xb
 13559 03f1 3B       		.uleb128 0x3b
 13560 03f2 0B       		.uleb128 0xb
 13561 03f3 49       		.uleb128 0x49
 13562 03f4 13       		.uleb128 0x13
 13563 03f5 00       		.byte	0
 13564 03f6 00       		.byte	0
 13565 03f7 4A       		.uleb128 0x4a
 13566 03f8 34       		.uleb128 0x34
 13567 03f9 00       		.byte	0
 13568 03fa 03       		.uleb128 0x3
 13569 03fb 0E       		.uleb128 0xe
 13570 03fc 3A       		.uleb128 0x3a
 13571 03fd 0B       		.uleb128 0xb
 13572 03fe 3B       		.uleb128 0x3b
 13573 03ff 0B       		.uleb128 0xb
 13574 0400 49       		.uleb128 0x49
 13575 0401 13       		.uleb128 0x13
 13576 0402 02       		.uleb128 0x2
 13577 0403 18       		.uleb128 0x18
 13578 0404 00       		.byte	0
 13579 0405 00       		.byte	0
 13580 0406 4B       		.uleb128 0x4b
 13581 0407 34       		.uleb128 0x34
 13582 0408 00       		.byte	0
 13583 0409 03       		.uleb128 0x3
 13584 040a 0E       		.uleb128 0xe
 13585 040b 3A       		.uleb128 0x3a
 13586 040c 0B       		.uleb128 0xb
 13587 040d 3B       		.uleb128 0x3b
 13588 040e 0B       		.uleb128 0xb
 13589 040f 49       		.uleb128 0x49
ARM GAS  C:\Users\SDEVAS~1\AppData\Local\Temp\ccPhqTSe.s 			page 262


 13590 0410 13       		.uleb128 0x13
 13591 0411 3F       		.uleb128 0x3f
 13592 0412 19       		.uleb128 0x19
 13593 0413 02       		.uleb128 0x2
 13594 0414 18       		.uleb128 0x18
 13595 0415 00       		.byte	0
 13596 0416 00       		.byte	0
 13597 0417 4C       		.uleb128 0x4c
 13598 0418 2E       		.uleb128 0x2e
 13599 0419 01       		.byte	0x1
 13600 041a 3F       		.uleb128 0x3f
 13601 041b 19       		.uleb128 0x19
 13602 041c 03       		.uleb128 0x3
 13603 041d 0E       		.uleb128 0xe
 13604 041e 27       		.uleb128 0x27
 13605 041f 19       		.uleb128 0x19
 13606 0420 49       		.uleb128 0x49
 13607 0421 13       		.uleb128 0x13
 13608 0422 34       		.uleb128 0x34
 13609 0423 19       		.uleb128 0x19
 13610 0424 3C       		.uleb128 0x3c
 13611 0425 19       		.uleb128 0x19
 13612 0426 01       		.uleb128 0x1
 13613 0427 13       		.uleb128 0x13
 13614 0428 00       		.byte	0
 13615 0429 00       		.byte	0
 13616 042a 4D       		.uleb128 0x4d
 13617 042b 26       		.uleb128 0x26
 13618 042c 00       		.byte	0
 13619 042d 00       		.byte	0
 13620 042e 00       		.byte	0
 13621 042f 4E       		.uleb128 0x4e
 13622 0430 2E       		.uleb128 0x2e
 13623 0431 01       		.byte	0x1
 13624 0432 3F       		.uleb128 0x3f
 13625 0433 19       		.uleb128 0x19
 13626 0434 03       		.uleb128 0x3
 13627 0435 0E       		.uleb128 0xe
 13628 0436 3A       		.uleb128 0x3a
 13629 0437 0B       		.uleb128 0xb
 13630 0438 3B       		.uleb128 0x3b
 13631 0439 0B       		.uleb128 0xb
 13632 043a 27       		.uleb128 0x27
 13633 043b 19       		.uleb128 0x19
 13634 043c 49       		.uleb128 0x49
 13635 043d 13       		.uleb128 0x13
 13636 043e 3C       		.uleb128 0x3c
 13637 043f 19       		.uleb128 0x19
 13638 0440 01       		.uleb128 0x1
 13639 0441 13       		.uleb128 0x13
 13640 0442 00       		.byte	0
 13641 0443 00       		.byte	0
 13642 0444 4F       		.uleb128 0x4f
 13643 0445 2E       		.uleb128 0x2e
 13644 0446 00       		.byte	0
 13645 0447 3F       		.uleb128 0x3f
 13646 0448 19       		.uleb128 0x19
ARM GAS  C:\Users\SDEVAS~1\AppData\Local\Temp\ccPhqTSe.s 			page 263


 13647 0449 03       		.uleb128 0x3
 13648 044a 0E       		.uleb128 0xe
 13649 044b 3A       		.uleb128 0x3a
 13650 044c 0B       		.uleb128 0xb
 13651 044d 3B       		.uleb128 0x3b
 13652 044e 0B       		.uleb128 0xb
 13653 044f 27       		.uleb128 0x27
 13654 0450 19       		.uleb128 0x19
 13655 0451 3C       		.uleb128 0x3c
 13656 0452 19       		.uleb128 0x19
 13657 0453 00       		.byte	0
 13658 0454 00       		.byte	0
 13659 0455 50       		.uleb128 0x50
 13660 0456 2E       		.uleb128 0x2e
 13661 0457 00       		.byte	0
 13662 0458 3F       		.uleb128 0x3f
 13663 0459 19       		.uleb128 0x19
 13664 045a 03       		.uleb128 0x3
 13665 045b 0E       		.uleb128 0xe
 13666 045c 3A       		.uleb128 0x3a
 13667 045d 0B       		.uleb128 0xb
 13668 045e 3B       		.uleb128 0x3b
 13669 045f 0B       		.uleb128 0xb
 13670 0460 27       		.uleb128 0x27
 13671 0461 19       		.uleb128 0x19
 13672 0462 49       		.uleb128 0x49
 13673 0463 13       		.uleb128 0x13
 13674 0464 3C       		.uleb128 0x3c
 13675 0465 19       		.uleb128 0x19
 13676 0466 00       		.byte	0
 13677 0467 00       		.byte	0
 13678 0468 51       		.uleb128 0x51
 13679 0469 2E       		.uleb128 0x2e
 13680 046a 01       		.byte	0x1
 13681 046b 3F       		.uleb128 0x3f
 13682 046c 19       		.uleb128 0x19
 13683 046d 03       		.uleb128 0x3
 13684 046e 0E       		.uleb128 0xe
 13685 046f 3A       		.uleb128 0x3a
 13686 0470 0B       		.uleb128 0xb
 13687 0471 3B       		.uleb128 0x3b
 13688 0472 0B       		.uleb128 0xb
 13689 0473 27       		.uleb128 0x27
 13690 0474 19       		.uleb128 0x19
 13691 0475 3C       		.uleb128 0x3c
 13692 0476 19       		.uleb128 0x19
 13693 0477 01       		.uleb128 0x1
 13694 0478 13       		.uleb128 0x13
 13695 0479 00       		.byte	0
 13696 047a 00       		.byte	0
 13697 047b 52       		.uleb128 0x52
 13698 047c 2E       		.uleb128 0x2e
 13699 047d 01       		.byte	0x1
 13700 047e 3F       		.uleb128 0x3f
 13701 047f 19       		.uleb128 0x19
 13702 0480 03       		.uleb128 0x3
 13703 0481 0E       		.uleb128 0xe
ARM GAS  C:\Users\SDEVAS~1\AppData\Local\Temp\ccPhqTSe.s 			page 264


 13704 0482 3A       		.uleb128 0x3a
 13705 0483 0B       		.uleb128 0xb
 13706 0484 3B       		.uleb128 0x3b
 13707 0485 0B       		.uleb128 0xb
 13708 0486 27       		.uleb128 0x27
 13709 0487 19       		.uleb128 0x19
 13710 0488 49       		.uleb128 0x49
 13711 0489 13       		.uleb128 0x13
 13712 048a 3C       		.uleb128 0x3c
 13713 048b 19       		.uleb128 0x19
 13714 048c 00       		.byte	0
 13715 048d 00       		.byte	0
 13716 048e 00       		.byte	0
 13717              		.section	.debug_loc,"",%progbits
 13718              	.Ldebug_loc0:
 13719              	.LLST0:
 13720 0000 00000000 		.4byte	.LVL0
 13721 0004 20000000 		.4byte	.LVL5
 13722 0008 0100     		.2byte	0x1
 13723 000a 50       		.byte	0x50
 13724 000b 20000000 		.4byte	.LVL5
 13725 000f 22000000 		.4byte	.LFE38
 13726 0013 0400     		.2byte	0x4
 13727 0015 F3       		.byte	0xf3
 13728 0016 01       		.uleb128 0x1
 13729 0017 50       		.byte	0x50
 13730 0018 9F       		.byte	0x9f
 13731 0019 00000000 		.4byte	0
 13732 001d 00000000 		.4byte	0
 13733              	.LLST1:
 13734 0021 00000000 		.4byte	.LVL0
 13735 0025 10000000 		.4byte	.LVL2
 13736 0029 0100     		.2byte	0x1
 13737 002b 51       		.byte	0x51
 13738 002c 10000000 		.4byte	.LVL2
 13739 0030 22000000 		.4byte	.LFE38
 13740 0034 0100     		.2byte	0x1
 13741 0036 51       		.byte	0x51
 13742 0037 00000000 		.4byte	0
 13743 003b 00000000 		.4byte	0
 13744              	.LLST2:
 13745 003f 0E000000 		.4byte	.LVL1
 13746 0043 1C000000 		.4byte	.LVL3
 13747 0047 0100     		.2byte	0x1
 13748 0049 52       		.byte	0x52
 13749 004a 00000000 		.4byte	0
 13750 004e 00000000 		.4byte	0
 13751              	.LLST3:
 13752 0052 00000000 		.4byte	.LVL6
 13753 0056 0A000000 		.4byte	.LVL7
 13754 005a 0100     		.2byte	0x1
 13755 005c 50       		.byte	0x50
 13756 005d 0A000000 		.4byte	.LVL7
 13757 0061 14000000 		.4byte	.LFE48
 13758 0065 0400     		.2byte	0x4
 13759 0067 F3       		.byte	0xf3
 13760 0068 01       		.uleb128 0x1
ARM GAS  C:\Users\SDEVAS~1\AppData\Local\Temp\ccPhqTSe.s 			page 265


 13761 0069 50       		.byte	0x50
 13762 006a 9F       		.byte	0x9f
 13763 006b 00000000 		.4byte	0
 13764 006f 00000000 		.4byte	0
 13765              	.LLST4:
 13766 0073 00000000 		.4byte	.LVL8
 13767 0077 04000000 		.4byte	.LVL9
 13768 007b 0100     		.2byte	0x1
 13769 007d 50       		.byte	0x50
 13770 007e 04000000 		.4byte	.LVL9
 13771 0082 1C000000 		.4byte	.LFE50
 13772 0086 0400     		.2byte	0x4
 13773 0088 F3       		.byte	0xf3
 13774 0089 01       		.uleb128 0x1
 13775 008a 50       		.byte	0x50
 13776 008b 9F       		.byte	0x9f
 13777 008c 00000000 		.4byte	0
 13778 0090 00000000 		.4byte	0
 13779              	.LLST5:
 13780 0094 00000000 		.4byte	.LVL8
 13781 0098 10000000 		.4byte	.LVL10
 13782 009c 0100     		.2byte	0x1
 13783 009e 51       		.byte	0x51
 13784 009f 10000000 		.4byte	.LVL10
 13785 00a3 1C000000 		.4byte	.LFE50
 13786 00a7 0500     		.2byte	0x5
 13787 00a9 03       		.byte	0x3
 13788 00aa 2C010000 		.4byte	comm+300
 13789 00ae 00000000 		.4byte	0
 13790 00b2 00000000 		.4byte	0
 13791              	.LLST6:
 13792 00b6 00000000 		.4byte	.LVL11
 13793 00ba 0C000000 		.4byte	.LVL12
 13794 00be 0100     		.2byte	0x1
 13795 00c0 50       		.byte	0x50
 13796 00c1 0C000000 		.4byte	.LVL12
 13797 00c5 B0000000 		.4byte	.LFE39
 13798 00c9 0200     		.2byte	0x2
 13799 00cb 91       		.byte	0x91
 13800 00cc 60       		.sleb128 -32
 13801 00cd 00000000 		.4byte	0
 13802 00d1 00000000 		.4byte	0
 13803              	.LLST7:
 13804 00d5 00000000 		.4byte	.LVL11
 13805 00d9 0E000000 		.4byte	.LVL13
 13806 00dd 0100     		.2byte	0x1
 13807 00df 51       		.byte	0x51
 13808 00e0 0E000000 		.4byte	.LVL13
 13809 00e4 36000000 		.4byte	.LVL17
 13810 00e8 0100     		.2byte	0x1
 13811 00ea 57       		.byte	0x57
 13812 00eb 36000000 		.4byte	.LVL17
 13813 00ef B0000000 		.4byte	.LFE39
 13814 00f3 0400     		.2byte	0x4
 13815 00f5 F3       		.byte	0xf3
 13816 00f6 01       		.uleb128 0x1
 13817 00f7 51       		.byte	0x51
ARM GAS  C:\Users\SDEVAS~1\AppData\Local\Temp\ccPhqTSe.s 			page 266


 13818 00f8 9F       		.byte	0x9f
 13819 00f9 00000000 		.4byte	0
 13820 00fd 00000000 		.4byte	0
 13821              	.LLST8:
 13822 0101 00000000 		.4byte	.LVL11
 13823 0105 10000000 		.4byte	.LVL14
 13824 0109 0100     		.2byte	0x1
 13825 010b 52       		.byte	0x52
 13826 010c 10000000 		.4byte	.LVL14
 13827 0110 B0000000 		.4byte	.LFE39
 13828 0114 0200     		.2byte	0x2
 13829 0116 91       		.byte	0x91
 13830 0117 64       		.sleb128 -28
 13831 0118 00000000 		.4byte	0
 13832 011c 00000000 		.4byte	0
 13833              	.LLST9:
 13834 0120 00000000 		.4byte	.LVL11
 13835 0124 15000000 		.4byte	.LVL15-1
 13836 0128 0100     		.2byte	0x1
 13837 012a 53       		.byte	0x53
 13838 012b 15000000 		.4byte	.LVL15-1
 13839 012f 88000000 		.4byte	.LVL22
 13840 0133 0100     		.2byte	0x1
 13841 0135 55       		.byte	0x55
 13842 0136 88000000 		.4byte	.LVL22
 13843 013a B0000000 		.4byte	.LFE39
 13844 013e 0400     		.2byte	0x4
 13845 0140 F3       		.byte	0xf3
 13846 0141 01       		.uleb128 0x1
 13847 0142 53       		.byte	0x53
 13848 0143 9F       		.byte	0x9f
 13849 0144 00000000 		.4byte	0
 13850 0148 00000000 		.4byte	0
 13851              	.LLST10:
 13852 014c 00000000 		.4byte	.LVL23
 13853 0150 10000000 		.4byte	.LVL26
 13854 0154 0100     		.2byte	0x1
 13855 0156 50       		.byte	0x50
 13856 0157 10000000 		.4byte	.LVL26
 13857 015b 20000000 		.4byte	.LVL29
 13858 015f 0400     		.2byte	0x4
 13859 0161 F3       		.byte	0xf3
 13860 0162 01       		.uleb128 0x1
 13861 0163 50       		.byte	0x50
 13862 0164 9F       		.byte	0x9f
 13863 0165 20000000 		.4byte	.LVL29
 13864 0169 22000000 		.4byte	.LVL30
 13865 016d 0100     		.2byte	0x1
 13866 016f 50       		.byte	0x50
 13867 0170 22000000 		.4byte	.LVL30
 13868 0174 26000000 		.4byte	.LFE37
 13869 0178 0400     		.2byte	0x4
 13870 017a F3       		.byte	0xf3
 13871 017b 01       		.uleb128 0x1
 13872 017c 50       		.byte	0x50
 13873 017d 9F       		.byte	0x9f
 13874 017e 00000000 		.4byte	0
ARM GAS  C:\Users\SDEVAS~1\AppData\Local\Temp\ccPhqTSe.s 			page 267


 13875 0182 00000000 		.4byte	0
 13876              	.LLST11:
 13877 0186 00000000 		.4byte	.LVL23
 13878 018a 04000000 		.4byte	.LVL24
 13879 018e 0100     		.2byte	0x1
 13880 0190 51       		.byte	0x51
 13881 0191 04000000 		.4byte	.LVL24
 13882 0195 0E000000 		.4byte	.LVL25
 13883 0199 0100     		.2byte	0x1
 13884 019b 53       		.byte	0x53
 13885 019c 0E000000 		.4byte	.LVL25
 13886 01a0 20000000 		.4byte	.LVL29
 13887 01a4 0400     		.2byte	0x4
 13888 01a6 F3       		.byte	0xf3
 13889 01a7 01       		.uleb128 0x1
 13890 01a8 51       		.byte	0x51
 13891 01a9 9F       		.byte	0x9f
 13892 01aa 20000000 		.4byte	.LVL29
 13893 01ae 22000000 		.4byte	.LVL30
 13894 01b2 0100     		.2byte	0x1
 13895 01b4 53       		.byte	0x53
 13896 01b5 22000000 		.4byte	.LVL30
 13897 01b9 26000000 		.4byte	.LFE37
 13898 01bd 0400     		.2byte	0x4
 13899 01bf F3       		.byte	0xf3
 13900 01c0 01       		.uleb128 0x1
 13901 01c1 51       		.byte	0x51
 13902 01c2 9F       		.byte	0x9f
 13903 01c3 00000000 		.4byte	0
 13904 01c7 00000000 		.4byte	0
 13905              	.LLST12:
 13906 01cb 00000000 		.4byte	.LVL23
 13907 01cf 16000000 		.4byte	.LVL27
 13908 01d3 0100     		.2byte	0x1
 13909 01d5 52       		.byte	0x52
 13910 01d6 16000000 		.4byte	.LVL27
 13911 01da 19000000 		.4byte	.LVL28-1
 13912 01de 0100     		.2byte	0x1
 13913 01e0 51       		.byte	0x51
 13914 01e1 19000000 		.4byte	.LVL28-1
 13915 01e5 20000000 		.4byte	.LVL29
 13916 01e9 0400     		.2byte	0x4
 13917 01eb F3       		.byte	0xf3
 13918 01ec 01       		.uleb128 0x1
 13919 01ed 52       		.byte	0x52
 13920 01ee 9F       		.byte	0x9f
 13921 01ef 20000000 		.4byte	.LVL29
 13922 01f3 22000000 		.4byte	.LVL30
 13923 01f7 0100     		.2byte	0x1
 13924 01f9 52       		.byte	0x52
 13925 01fa 22000000 		.4byte	.LVL30
 13926 01fe 26000000 		.4byte	.LFE37
 13927 0202 0400     		.2byte	0x4
 13928 0204 F3       		.byte	0xf3
 13929 0205 01       		.uleb128 0x1
 13930 0206 52       		.byte	0x52
 13931 0207 9F       		.byte	0x9f
ARM GAS  C:\Users\SDEVAS~1\AppData\Local\Temp\ccPhqTSe.s 			page 268


 13932 0208 00000000 		.4byte	0
 13933 020c 00000000 		.4byte	0
 13934              	.LLST13:
 13935 0210 00000000 		.4byte	.LVL31
 13936 0214 0D000000 		.4byte	.LVL33-1
 13937 0218 0100     		.2byte	0x1
 13938 021a 50       		.byte	0x50
 13939 021b 0D000000 		.4byte	.LVL33-1
 13940 021f 70020000 		.4byte	.LVL70
 13941 0223 0100     		.2byte	0x1
 13942 0225 55       		.byte	0x55
 13943 0226 70020000 		.4byte	.LVL70
 13944 022a 04030000 		.4byte	.LFE35
 13945 022e 0400     		.2byte	0x4
 13946 0230 F3       		.byte	0xf3
 13947 0231 01       		.uleb128 0x1
 13948 0232 50       		.byte	0x50
 13949 0233 9F       		.byte	0x9f
 13950 0234 00000000 		.4byte	0
 13951 0238 00000000 		.4byte	0
 13952              	.LLST14:
 13953 023c 00000000 		.4byte	.LVL31
 13954 0240 08000000 		.4byte	.LVL32
 13955 0244 0100     		.2byte	0x1
 13956 0246 51       		.byte	0x51
 13957 0247 08000000 		.4byte	.LVL32
 13958 024b 0D000000 		.4byte	.LVL33-1
 13959 024f 0100     		.2byte	0x1
 13960 0251 52       		.byte	0x52
 13961 0252 0D000000 		.4byte	.LVL33-1
 13962 0256 70020000 		.4byte	.LVL69
 13963 025a 0100     		.2byte	0x1
 13964 025c 54       		.byte	0x54
 13965 025d 70020000 		.4byte	.LVL69
 13966 0261 04030000 		.4byte	.LFE35
 13967 0265 0400     		.2byte	0x4
 13968 0267 F3       		.byte	0xf3
 13969 0268 01       		.uleb128 0x1
 13970 0269 51       		.byte	0x51
 13971 026a 9F       		.byte	0x9f
 13972 026b 00000000 		.4byte	0
 13973 026f 00000000 		.4byte	0
 13974              	.LLST15:
 13975 0273 00000000 		.4byte	.LVL71
 13976 0277 0D000000 		.4byte	.LVL73-1
 13977 027b 0100     		.2byte	0x1
 13978 027d 50       		.byte	0x50
 13979 027e 0D000000 		.4byte	.LVL73-1
 13980 0282 48000000 		.4byte	.LVL78
 13981 0286 0100     		.2byte	0x1
 13982 0288 55       		.byte	0x55
 13983 0289 48000000 		.4byte	.LVL78
 13984 028d 5C000000 		.4byte	.LFE36
 13985 0291 0400     		.2byte	0x4
 13986 0293 F3       		.byte	0xf3
 13987 0294 01       		.uleb128 0x1
 13988 0295 50       		.byte	0x50
ARM GAS  C:\Users\SDEVAS~1\AppData\Local\Temp\ccPhqTSe.s 			page 269


 13989 0296 9F       		.byte	0x9f
 13990 0297 00000000 		.4byte	0
 13991 029b 00000000 		.4byte	0
 13992              	.LLST16:
 13993 029f 00000000 		.4byte	.LVL71
 13994 02a3 08000000 		.4byte	.LVL72
 13995 02a7 0100     		.2byte	0x1
 13996 02a9 51       		.byte	0x51
 13997 02aa 08000000 		.4byte	.LVL72
 13998 02ae 0D000000 		.4byte	.LVL73-1
 13999 02b2 0100     		.2byte	0x1
 14000 02b4 52       		.byte	0x52
 14001 02b5 0D000000 		.4byte	.LVL73-1
 14002 02b9 48000000 		.4byte	.LVL77
 14003 02bd 0100     		.2byte	0x1
 14004 02bf 54       		.byte	0x54
 14005 02c0 48000000 		.4byte	.LVL77
 14006 02c4 5C000000 		.4byte	.LFE36
 14007 02c8 0400     		.2byte	0x4
 14008 02ca F3       		.byte	0xf3
 14009 02cb 01       		.uleb128 0x1
 14010 02cc 51       		.byte	0x51
 14011 02cd 9F       		.byte	0x9f
 14012 02ce 00000000 		.4byte	0
 14013 02d2 00000000 		.4byte	0
 14014              	.LLST17:
 14015 02d6 00000000 		.4byte	.LVL79
 14016 02da 09000000 		.4byte	.LVL80-1
 14017 02de 0100     		.2byte	0x1
 14018 02e0 50       		.byte	0x50
 14019 02e1 09000000 		.4byte	.LVL80-1
 14020 02e5 0C000000 		.4byte	.LVL81
 14021 02e9 0400     		.2byte	0x4
 14022 02eb F3       		.byte	0xf3
 14023 02ec 01       		.uleb128 0x1
 14024 02ed 50       		.byte	0x50
 14025 02ee 9F       		.byte	0x9f
 14026 02ef 0C000000 		.4byte	.LVL81
 14027 02f3 0F000000 		.4byte	.LVL82-1
 14028 02f7 0100     		.2byte	0x1
 14029 02f9 50       		.byte	0x50
 14030 02fa 0F000000 		.4byte	.LVL82-1
 14031 02fe 12000000 		.4byte	.LFE51
 14032 0302 0400     		.2byte	0x4
 14033 0304 F3       		.byte	0xf3
 14034 0305 01       		.uleb128 0x1
 14035 0306 50       		.byte	0x50
 14036 0307 9F       		.byte	0x9f
 14037 0308 00000000 		.4byte	0
 14038 030c 00000000 		.4byte	0
 14039              	.LLST18:
 14040 0310 00000000 		.4byte	.LVL83
 14041 0314 14000000 		.4byte	.LVL85
 14042 0318 0100     		.2byte	0x1
 14043 031a 50       		.byte	0x50
 14044 031b 14000000 		.4byte	.LVL85
 14045 031f 1C000000 		.4byte	.LVL87
ARM GAS  C:\Users\SDEVAS~1\AppData\Local\Temp\ccPhqTSe.s 			page 270


 14046 0323 0400     		.2byte	0x4
 14047 0325 F3       		.byte	0xf3
 14048 0326 01       		.uleb128 0x1
 14049 0327 50       		.byte	0x50
 14050 0328 9F       		.byte	0x9f
 14051 0329 1C000000 		.4byte	.LVL87
 14052 032d 1F000000 		.4byte	.LVL88-1
 14053 0331 0100     		.2byte	0x1
 14054 0333 50       		.byte	0x50
 14055 0334 1F000000 		.4byte	.LVL88-1
 14056 0338 3C000000 		.4byte	.LFE58
 14057 033c 0400     		.2byte	0x4
 14058 033e F3       		.byte	0xf3
 14059 033f 01       		.uleb128 0x1
 14060 0340 50       		.byte	0x50
 14061 0341 9F       		.byte	0x9f
 14062 0342 00000000 		.4byte	0
 14063 0346 00000000 		.4byte	0
 14064              	.LLST19:
 14065 034a 00000000 		.4byte	.LVL83
 14066 034e 19000000 		.4byte	.LVL86-1
 14067 0352 0100     		.2byte	0x1
 14068 0354 51       		.byte	0x51
 14069 0355 19000000 		.4byte	.LVL86-1
 14070 0359 1C000000 		.4byte	.LVL87
 14071 035d 0400     		.2byte	0x4
 14072 035f F3       		.byte	0xf3
 14073 0360 01       		.uleb128 0x1
 14074 0361 51       		.byte	0x51
 14075 0362 9F       		.byte	0x9f
 14076 0363 1C000000 		.4byte	.LVL87
 14077 0367 1F000000 		.4byte	.LVL88-1
 14078 036b 0100     		.2byte	0x1
 14079 036d 51       		.byte	0x51
 14080 036e 1F000000 		.4byte	.LVL88-1
 14081 0372 3C000000 		.4byte	.LFE58
 14082 0376 0400     		.2byte	0x4
 14083 0378 F3       		.byte	0xf3
 14084 0379 01       		.uleb128 0x1
 14085 037a 51       		.byte	0x51
 14086 037b 9F       		.byte	0x9f
 14087 037c 00000000 		.4byte	0
 14088 0380 00000000 		.4byte	0
 14089              	.LLST20:
 14090 0384 0E000000 		.4byte	.LVL84
 14091 0388 14000000 		.4byte	.LVL85
 14092 038c 0100     		.2byte	0x1
 14093 038e 50       		.byte	0x50
 14094 038f 14000000 		.4byte	.LVL85
 14095 0393 1C000000 		.4byte	.LVL87
 14096 0397 0400     		.2byte	0x4
 14097 0399 F3       		.byte	0xf3
 14098 039a 01       		.uleb128 0x1
 14099 039b 50       		.byte	0x50
 14100 039c 9F       		.byte	0x9f
 14101 039d 00000000 		.4byte	0
 14102 03a1 00000000 		.4byte	0
ARM GAS  C:\Users\SDEVAS~1\AppData\Local\Temp\ccPhqTSe.s 			page 271


 14103              	.LLST21:
 14104 03a5 0E000000 		.4byte	.LVL84
 14105 03a9 19000000 		.4byte	.LVL86-1
 14106 03ad 0100     		.2byte	0x1
 14107 03af 51       		.byte	0x51
 14108 03b0 19000000 		.4byte	.LVL86-1
 14109 03b4 1C000000 		.4byte	.LVL87
 14110 03b8 0400     		.2byte	0x4
 14111 03ba F3       		.byte	0xf3
 14112 03bb 01       		.uleb128 0x1
 14113 03bc 51       		.byte	0x51
 14114 03bd 9F       		.byte	0x9f
 14115 03be 00000000 		.4byte	0
 14116 03c2 00000000 		.4byte	0
 14117              	.LLST22:
 14118 03c6 00000000 		.4byte	.LVL89
 14119 03ca 14000000 		.4byte	.LVL90
 14120 03ce 0100     		.2byte	0x1
 14121 03d0 50       		.byte	0x50
 14122 03d1 14000000 		.4byte	.LVL90
 14123 03d5 60050000 		.4byte	.LVL319
 14124 03d9 0100     		.2byte	0x1
 14125 03db 57       		.byte	0x57
 14126 03dc 60050000 		.4byte	.LVL319
 14127 03e0 94050000 		.4byte	.LFE61
 14128 03e4 0400     		.2byte	0x4
 14129 03e6 F3       		.byte	0xf3
 14130 03e7 01       		.uleb128 0x1
 14131 03e8 50       		.byte	0x50
 14132 03e9 9F       		.byte	0x9f
 14133 03ea 00000000 		.4byte	0
 14134 03ee 00000000 		.4byte	0
 14135              	.LLST23:
 14136 03f2 00000000 		.4byte	.LVL89
 14137 03f6 14000000 		.4byte	.LVL90
 14138 03fa 0100     		.2byte	0x1
 14139 03fc 51       		.byte	0x51
 14140 03fd 14000000 		.4byte	.LVL90
 14141 0401 3A000000 		.4byte	.LVL92
 14142 0405 0100     		.2byte	0x1
 14143 0407 54       		.byte	0x54
 14144 0408 3A000000 		.4byte	.LVL92
 14145 040c 4C000000 		.4byte	.LVL94
 14146 0410 0400     		.2byte	0x4
 14147 0412 F3       		.byte	0xf3
 14148 0413 01       		.uleb128 0x1
 14149 0414 51       		.byte	0x51
 14150 0415 9F       		.byte	0x9f
 14151 0416 4C000000 		.4byte	.LVL94
 14152 041a 58000000 		.4byte	.LVL98
 14153 041e 0100     		.2byte	0x1
 14154 0420 54       		.byte	0x54
 14155 0421 58000000 		.4byte	.LVL98
 14156 0425 94050000 		.4byte	.LFE61
 14157 0429 0400     		.2byte	0x4
 14158 042b F3       		.byte	0xf3
 14159 042c 01       		.uleb128 0x1
ARM GAS  C:\Users\SDEVAS~1\AppData\Local\Temp\ccPhqTSe.s 			page 272


 14160 042d 51       		.byte	0x51
 14161 042e 9F       		.byte	0x9f
 14162 042f 00000000 		.4byte	0
 14163 0433 00000000 		.4byte	0
 14164              	.LLST24:
 14165 0437 14000000 		.4byte	.LVL90
 14166 043b 4C000000 		.4byte	.LVL94
 14167 043f 0100     		.2byte	0x1
 14168 0441 56       		.byte	0x56
 14169 0442 4C000000 		.4byte	.LVL94
 14170 0446 51000000 		.4byte	.LVL95-1
 14171 044a 0100     		.2byte	0x1
 14172 044c 51       		.byte	0x51
 14173 044d 51000000 		.4byte	.LVL95-1
 14174 0451 56000000 		.4byte	.LVL97
 14175 0455 0300     		.2byte	0x3
 14176 0457 76       		.byte	0x76
 14177 0458 01       		.sleb128 1
 14178 0459 9F       		.byte	0x9f
 14179 045a 56000000 		.4byte	.LVL97
 14180 045e 58000000 		.4byte	.LVL98
 14181 0462 0100     		.2byte	0x1
 14182 0464 50       		.byte	0x50
 14183 0465 58000000 		.4byte	.LVL98
 14184 0469 B8000000 		.4byte	.LVL101
 14185 046d 0100     		.2byte	0x1
 14186 046f 56       		.byte	0x56
 14187 0470 C8000000 		.4byte	.LVL104
 14188 0474 D4000000 		.4byte	.LVL107
 14189 0478 0100     		.2byte	0x1
 14190 047a 56       		.byte	0x56
 14191 047b E4000000 		.4byte	.LVL110
 14192 047f F0000000 		.4byte	.LVL113
 14193 0483 0100     		.2byte	0x1
 14194 0485 56       		.byte	0x56
 14195 0486 0A010000 		.4byte	.LVL117
 14196 048a 16010000 		.4byte	.LVL120
 14197 048e 0100     		.2byte	0x1
 14198 0490 56       		.byte	0x56
 14199 0491 26010000 		.4byte	.LVL123
 14200 0495 32010000 		.4byte	.LVL126
 14201 0499 0100     		.2byte	0x1
 14202 049b 56       		.byte	0x56
 14203 049c 42010000 		.4byte	.LVL129
 14204 04a0 4E010000 		.4byte	.LVL132
 14205 04a4 0100     		.2byte	0x1
 14206 04a6 56       		.byte	0x56
 14207 04a7 5E010000 		.4byte	.LVL135
 14208 04ab 6A010000 		.4byte	.LVL138
 14209 04af 0100     		.2byte	0x1
 14210 04b1 56       		.byte	0x56
 14211 04b2 7A010000 		.4byte	.LVL141
 14212 04b6 86010000 		.4byte	.LVL144
 14213 04ba 0100     		.2byte	0x1
 14214 04bc 56       		.byte	0x56
 14215 04bd 96010000 		.4byte	.LVL147
 14216 04c1 A2010000 		.4byte	.LVL150
ARM GAS  C:\Users\SDEVAS~1\AppData\Local\Temp\ccPhqTSe.s 			page 273


 14217 04c5 0100     		.2byte	0x1
 14218 04c7 56       		.byte	0x56
 14219 04c8 B2010000 		.4byte	.LVL153
 14220 04cc BE010000 		.4byte	.LVL156
 14221 04d0 0100     		.2byte	0x1
 14222 04d2 56       		.byte	0x56
 14223 04d3 CE010000 		.4byte	.LVL159
 14224 04d7 DA010000 		.4byte	.LVL162
 14225 04db 0100     		.2byte	0x1
 14226 04dd 56       		.byte	0x56
 14227 04de EA010000 		.4byte	.LVL165
 14228 04e2 F6010000 		.4byte	.LVL168
 14229 04e6 0100     		.2byte	0x1
 14230 04e8 56       		.byte	0x56
 14231 04e9 06020000 		.4byte	.LVL171
 14232 04ed 12020000 		.4byte	.LVL174
 14233 04f1 0100     		.2byte	0x1
 14234 04f3 56       		.byte	0x56
 14235 04f4 22020000 		.4byte	.LVL177
 14236 04f8 2E020000 		.4byte	.LVL180
 14237 04fc 0100     		.2byte	0x1
 14238 04fe 56       		.byte	0x56
 14239 04ff 3E020000 		.4byte	.LVL183
 14240 0503 4A020000 		.4byte	.LVL186
 14241 0507 0100     		.2byte	0x1
 14242 0509 56       		.byte	0x56
 14243 050a 5A020000 		.4byte	.LVL189
 14244 050e 66020000 		.4byte	.LVL192
 14245 0512 0100     		.2byte	0x1
 14246 0514 56       		.byte	0x56
 14247 0515 76020000 		.4byte	.LVL195
 14248 0519 82020000 		.4byte	.LVL198
 14249 051d 0100     		.2byte	0x1
 14250 051f 56       		.byte	0x56
 14251 0520 92020000 		.4byte	.LVL201
 14252 0524 9E020000 		.4byte	.LVL204
 14253 0528 0100     		.2byte	0x1
 14254 052a 56       		.byte	0x56
 14255 052b AE020000 		.4byte	.LVL207
 14256 052f BA020000 		.4byte	.LVL210
 14257 0533 0100     		.2byte	0x1
 14258 0535 56       		.byte	0x56
 14259 0536 CA020000 		.4byte	.LVL213
 14260 053a D6020000 		.4byte	.LVL216
 14261 053e 0100     		.2byte	0x1
 14262 0540 56       		.byte	0x56
 14263 0541 E6020000 		.4byte	.LVL219
 14264 0545 F2020000 		.4byte	.LVL222
 14265 0549 0100     		.2byte	0x1
 14266 054b 56       		.byte	0x56
 14267 054c 02030000 		.4byte	.LVL225
 14268 0550 0E030000 		.4byte	.LVL228
 14269 0554 0100     		.2byte	0x1
 14270 0556 56       		.byte	0x56
 14271 0557 1E030000 		.4byte	.LVL231
 14272 055b 2A030000 		.4byte	.LVL234
 14273 055f 0100     		.2byte	0x1
ARM GAS  C:\Users\SDEVAS~1\AppData\Local\Temp\ccPhqTSe.s 			page 274


 14274 0561 56       		.byte	0x56
 14275 0562 3A030000 		.4byte	.LVL237
 14276 0566 46030000 		.4byte	.LVL240
 14277 056a 0100     		.2byte	0x1
 14278 056c 56       		.byte	0x56
 14279 056d 56030000 		.4byte	.LVL243
 14280 0571 62030000 		.4byte	.LVL246
 14281 0575 0100     		.2byte	0x1
 14282 0577 56       		.byte	0x56
 14283 0578 72030000 		.4byte	.LVL249
 14284 057c 7E030000 		.4byte	.LVL252
 14285 0580 0100     		.2byte	0x1
 14286 0582 56       		.byte	0x56
 14287 0583 00040000 		.4byte	.LVL255
 14288 0587 0C040000 		.4byte	.LVL258
 14289 058b 0100     		.2byte	0x1
 14290 058d 56       		.byte	0x56
 14291 058e 26040000 		.4byte	.LVL262
 14292 0592 32040000 		.4byte	.LVL265
 14293 0596 0100     		.2byte	0x1
 14294 0598 56       		.byte	0x56
 14295 0599 42040000 		.4byte	.LVL268
 14296 059d 4E040000 		.4byte	.LVL271
 14297 05a1 0100     		.2byte	0x1
 14298 05a3 56       		.byte	0x56
 14299 05a4 5E040000 		.4byte	.LVL274
 14300 05a8 6A040000 		.4byte	.LVL277
 14301 05ac 0100     		.2byte	0x1
 14302 05ae 56       		.byte	0x56
 14303 05af 7A040000 		.4byte	.LVL280
 14304 05b3 86040000 		.4byte	.LVL283
 14305 05b7 0100     		.2byte	0x1
 14306 05b9 56       		.byte	0x56
 14307 05ba 96040000 		.4byte	.LVL286
 14308 05be A2040000 		.4byte	.LVL289
 14309 05c2 0100     		.2byte	0x1
 14310 05c4 56       		.byte	0x56
 14311 05c5 B2040000 		.4byte	.LVL292
 14312 05c9 BE040000 		.4byte	.LVL295
 14313 05cd 0100     		.2byte	0x1
 14314 05cf 56       		.byte	0x56
 14315 05d0 CE040000 		.4byte	.LVL298
 14316 05d4 DA040000 		.4byte	.LVL301
 14317 05d8 0100     		.2byte	0x1
 14318 05da 56       		.byte	0x56
 14319 05db EA040000 		.4byte	.LVL304
 14320 05df F6040000 		.4byte	.LVL307
 14321 05e3 0100     		.2byte	0x1
 14322 05e5 56       		.byte	0x56
 14323 05e6 06050000 		.4byte	.LVL310
 14324 05ea 12050000 		.4byte	.LVL313
 14325 05ee 0100     		.2byte	0x1
 14326 05f0 56       		.byte	0x56
 14327 05f1 00000000 		.4byte	0
 14328 05f5 00000000 		.4byte	0
 14329              	.LLST25:
 14330 05f9 46000000 		.4byte	.LVL93
ARM GAS  C:\Users\SDEVAS~1\AppData\Local\Temp\ccPhqTSe.s 			page 275


 14331 05fd 4C000000 		.4byte	.LVL94
 14332 0601 0100     		.2byte	0x1
 14333 0603 50       		.byte	0x50
 14334 0604 58000000 		.4byte	.LVL98
 14335 0608 AE000000 		.4byte	.LVL99
 14336 060c 0100     		.2byte	0x1
 14337 060e 50       		.byte	0x50
 14338 060f C8000000 		.4byte	.LVL104
 14339 0613 CA000000 		.4byte	.LVL105
 14340 0617 0100     		.2byte	0x1
 14341 0619 50       		.byte	0x50
 14342 061a E4000000 		.4byte	.LVL110
 14343 061e EA000000 		.4byte	.LVL111
 14344 0622 0100     		.2byte	0x1
 14345 0624 50       		.byte	0x50
 14346 0625 0A010000 		.4byte	.LVL117
 14347 0629 0C010000 		.4byte	.LVL118
 14348 062d 0100     		.2byte	0x1
 14349 062f 50       		.byte	0x50
 14350 0630 26010000 		.4byte	.LVL123
 14351 0634 28010000 		.4byte	.LVL124
 14352 0638 0100     		.2byte	0x1
 14353 063a 50       		.byte	0x50
 14354 063b 42010000 		.4byte	.LVL129
 14355 063f 44010000 		.4byte	.LVL130
 14356 0643 0100     		.2byte	0x1
 14357 0645 50       		.byte	0x50
 14358 0646 5E010000 		.4byte	.LVL135
 14359 064a 60010000 		.4byte	.LVL136
 14360 064e 0100     		.2byte	0x1
 14361 0650 50       		.byte	0x50
 14362 0651 7A010000 		.4byte	.LVL141
 14363 0655 7C010000 		.4byte	.LVL142
 14364 0659 0100     		.2byte	0x1
 14365 065b 50       		.byte	0x50
 14366 065c 96010000 		.4byte	.LVL147
 14367 0660 98010000 		.4byte	.LVL148
 14368 0664 0100     		.2byte	0x1
 14369 0666 50       		.byte	0x50
 14370 0667 B2010000 		.4byte	.LVL153
 14371 066b B4010000 		.4byte	.LVL154
 14372 066f 0100     		.2byte	0x1
 14373 0671 50       		.byte	0x50
 14374 0672 CE010000 		.4byte	.LVL159
 14375 0676 D0010000 		.4byte	.LVL160
 14376 067a 0100     		.2byte	0x1
 14377 067c 50       		.byte	0x50
 14378 067d EA010000 		.4byte	.LVL165
 14379 0681 EC010000 		.4byte	.LVL166
 14380 0685 0100     		.2byte	0x1
 14381 0687 50       		.byte	0x50
 14382 0688 06020000 		.4byte	.LVL171
 14383 068c 08020000 		.4byte	.LVL172
 14384 0690 0100     		.2byte	0x1
 14385 0692 50       		.byte	0x50
 14386 0693 22020000 		.4byte	.LVL177
 14387 0697 24020000 		.4byte	.LVL178
ARM GAS  C:\Users\SDEVAS~1\AppData\Local\Temp\ccPhqTSe.s 			page 276


 14388 069b 0100     		.2byte	0x1
 14389 069d 50       		.byte	0x50
 14390 069e 3E020000 		.4byte	.LVL183
 14391 06a2 40020000 		.4byte	.LVL184
 14392 06a6 0100     		.2byte	0x1
 14393 06a8 50       		.byte	0x50
 14394 06a9 5A020000 		.4byte	.LVL189
 14395 06ad 5C020000 		.4byte	.LVL190
 14396 06b1 0100     		.2byte	0x1
 14397 06b3 50       		.byte	0x50
 14398 06b4 76020000 		.4byte	.LVL195
 14399 06b8 78020000 		.4byte	.LVL196
 14400 06bc 0100     		.2byte	0x1
 14401 06be 50       		.byte	0x50
 14402 06bf 92020000 		.4byte	.LVL201
 14403 06c3 94020000 		.4byte	.LVL202
 14404 06c7 0100     		.2byte	0x1
 14405 06c9 50       		.byte	0x50
 14406 06ca AE020000 		.4byte	.LVL207
 14407 06ce B0020000 		.4byte	.LVL208
 14408 06d2 0100     		.2byte	0x1
 14409 06d4 50       		.byte	0x50
 14410 06d5 CA020000 		.4byte	.LVL213
 14411 06d9 CC020000 		.4byte	.LVL214
 14412 06dd 0100     		.2byte	0x1
 14413 06df 50       		.byte	0x50
 14414 06e0 E6020000 		.4byte	.LVL219
 14415 06e4 E8020000 		.4byte	.LVL220
 14416 06e8 0100     		.2byte	0x1
 14417 06ea 50       		.byte	0x50
 14418 06eb 02030000 		.4byte	.LVL225
 14419 06ef 04030000 		.4byte	.LVL226
 14420 06f3 0100     		.2byte	0x1
 14421 06f5 50       		.byte	0x50
 14422 06f6 1E030000 		.4byte	.LVL231
 14423 06fa 20030000 		.4byte	.LVL232
 14424 06fe 0100     		.2byte	0x1
 14425 0700 50       		.byte	0x50
 14426 0701 3A030000 		.4byte	.LVL237
 14427 0705 3C030000 		.4byte	.LVL238
 14428 0709 0100     		.2byte	0x1
 14429 070b 50       		.byte	0x50
 14430 070c 56030000 		.4byte	.LVL243
 14431 0710 58030000 		.4byte	.LVL244
 14432 0714 0100     		.2byte	0x1
 14433 0716 50       		.byte	0x50
 14434 0717 72030000 		.4byte	.LVL249
 14435 071b 74030000 		.4byte	.LVL250
 14436 071f 0100     		.2byte	0x1
 14437 0721 50       		.byte	0x50
 14438 0722 00040000 		.4byte	.LVL255
 14439 0726 02040000 		.4byte	.LVL256
 14440 072a 0100     		.2byte	0x1
 14441 072c 50       		.byte	0x50
 14442 072d 26040000 		.4byte	.LVL262
 14443 0731 28040000 		.4byte	.LVL263
 14444 0735 0100     		.2byte	0x1
ARM GAS  C:\Users\SDEVAS~1\AppData\Local\Temp\ccPhqTSe.s 			page 277


 14445 0737 50       		.byte	0x50
 14446 0738 42040000 		.4byte	.LVL268
 14447 073c 44040000 		.4byte	.LVL269
 14448 0740 0100     		.2byte	0x1
 14449 0742 50       		.byte	0x50
 14450 0743 5E040000 		.4byte	.LVL274
 14451 0747 60040000 		.4byte	.LVL275
 14452 074b 0100     		.2byte	0x1
 14453 074d 50       		.byte	0x50
 14454 074e 7A040000 		.4byte	.LVL280
 14455 0752 7C040000 		.4byte	.LVL281
 14456 0756 0100     		.2byte	0x1
 14457 0758 50       		.byte	0x50
 14458 0759 96040000 		.4byte	.LVL286
 14459 075d 98040000 		.4byte	.LVL287
 14460 0761 0100     		.2byte	0x1
 14461 0763 50       		.byte	0x50
 14462 0764 B2040000 		.4byte	.LVL292
 14463 0768 B4040000 		.4byte	.LVL293
 14464 076c 0100     		.2byte	0x1
 14465 076e 50       		.byte	0x50
 14466 076f CE040000 		.4byte	.LVL298
 14467 0773 D0040000 		.4byte	.LVL299
 14468 0777 0100     		.2byte	0x1
 14469 0779 50       		.byte	0x50
 14470 077a EA040000 		.4byte	.LVL304
 14471 077e EC040000 		.4byte	.LVL305
 14472 0782 0100     		.2byte	0x1
 14473 0784 50       		.byte	0x50
 14474 0785 06050000 		.4byte	.LVL310
 14475 0789 08050000 		.4byte	.LVL311
 14476 078d 0100     		.2byte	0x1
 14477 078f 50       		.byte	0x50
 14478 0790 00000000 		.4byte	0
 14479 0794 00000000 		.4byte	0
 14480              	.LLST26:
 14481 0798 14000000 		.4byte	.LVL90
 14482 079c 54000000 		.4byte	.LVL96
 14483 07a0 0100     		.2byte	0x1
 14484 07a2 55       		.byte	0x55
 14485 07a3 54000000 		.4byte	.LVL96
 14486 07a7 56000000 		.4byte	.LVL97
 14487 07ab 0300     		.2byte	0x3
 14488 07ad 75       		.byte	0x75
 14489 07ae 7F       		.sleb128 -1
 14490 07af 9F       		.byte	0x9f
 14491 07b0 56000000 		.4byte	.LVL97
 14492 07b4 BA000000 		.4byte	.LVL102
 14493 07b8 0100     		.2byte	0x1
 14494 07ba 55       		.byte	0x55
 14495 07bb C8000000 		.4byte	.LVL104
 14496 07bf D6000000 		.4byte	.LVL108
 14497 07c3 0100     		.2byte	0x1
 14498 07c5 55       		.byte	0x55
 14499 07c6 E4000000 		.4byte	.LVL110
 14500 07ca F2000000 		.4byte	.LVL114
 14501 07ce 0100     		.2byte	0x1
ARM GAS  C:\Users\SDEVAS~1\AppData\Local\Temp\ccPhqTSe.s 			page 278


 14502 07d0 55       		.byte	0x55
 14503 07d1 0A010000 		.4byte	.LVL117
 14504 07d5 18010000 		.4byte	.LVL121
 14505 07d9 0100     		.2byte	0x1
 14506 07db 55       		.byte	0x55
 14507 07dc 26010000 		.4byte	.LVL123
 14508 07e0 34010000 		.4byte	.LVL127
 14509 07e4 0100     		.2byte	0x1
 14510 07e6 55       		.byte	0x55
 14511 07e7 42010000 		.4byte	.LVL129
 14512 07eb 50010000 		.4byte	.LVL133
 14513 07ef 0100     		.2byte	0x1
 14514 07f1 55       		.byte	0x55
 14515 07f2 5E010000 		.4byte	.LVL135
 14516 07f6 6C010000 		.4byte	.LVL139
 14517 07fa 0100     		.2byte	0x1
 14518 07fc 55       		.byte	0x55
 14519 07fd 7A010000 		.4byte	.LVL141
 14520 0801 88010000 		.4byte	.LVL145
 14521 0805 0100     		.2byte	0x1
 14522 0807 55       		.byte	0x55
 14523 0808 96010000 		.4byte	.LVL147
 14524 080c A4010000 		.4byte	.LVL151
 14525 0810 0100     		.2byte	0x1
 14526 0812 55       		.byte	0x55
 14527 0813 B2010000 		.4byte	.LVL153
 14528 0817 C0010000 		.4byte	.LVL157
 14529 081b 0100     		.2byte	0x1
 14530 081d 55       		.byte	0x55
 14531 081e CE010000 		.4byte	.LVL159
 14532 0822 DC010000 		.4byte	.LVL163
 14533 0826 0100     		.2byte	0x1
 14534 0828 55       		.byte	0x55
 14535 0829 EA010000 		.4byte	.LVL165
 14536 082d F8010000 		.4byte	.LVL169
 14537 0831 0100     		.2byte	0x1
 14538 0833 55       		.byte	0x55
 14539 0834 06020000 		.4byte	.LVL171
 14540 0838 14020000 		.4byte	.LVL175
 14541 083c 0100     		.2byte	0x1
 14542 083e 55       		.byte	0x55
 14543 083f 22020000 		.4byte	.LVL177
 14544 0843 30020000 		.4byte	.LVL181
 14545 0847 0100     		.2byte	0x1
 14546 0849 55       		.byte	0x55
 14547 084a 3E020000 		.4byte	.LVL183
 14548 084e 4C020000 		.4byte	.LVL187
 14549 0852 0100     		.2byte	0x1
 14550 0854 55       		.byte	0x55
 14551 0855 5A020000 		.4byte	.LVL189
 14552 0859 68020000 		.4byte	.LVL193
 14553 085d 0100     		.2byte	0x1
 14554 085f 55       		.byte	0x55
 14555 0860 76020000 		.4byte	.LVL195
 14556 0864 84020000 		.4byte	.LVL199
 14557 0868 0100     		.2byte	0x1
 14558 086a 55       		.byte	0x55
ARM GAS  C:\Users\SDEVAS~1\AppData\Local\Temp\ccPhqTSe.s 			page 279


 14559 086b 92020000 		.4byte	.LVL201
 14560 086f A0020000 		.4byte	.LVL205
 14561 0873 0100     		.2byte	0x1
 14562 0875 55       		.byte	0x55
 14563 0876 AE020000 		.4byte	.LVL207
 14564 087a BC020000 		.4byte	.LVL211
 14565 087e 0100     		.2byte	0x1
 14566 0880 55       		.byte	0x55
 14567 0881 CA020000 		.4byte	.LVL213
 14568 0885 D8020000 		.4byte	.LVL217
 14569 0889 0100     		.2byte	0x1
 14570 088b 55       		.byte	0x55
 14571 088c E6020000 		.4byte	.LVL219
 14572 0890 F4020000 		.4byte	.LVL223
 14573 0894 0100     		.2byte	0x1
 14574 0896 55       		.byte	0x55
 14575 0897 02030000 		.4byte	.LVL225
 14576 089b 10030000 		.4byte	.LVL229
 14577 089f 0100     		.2byte	0x1
 14578 08a1 55       		.byte	0x55
 14579 08a2 1E030000 		.4byte	.LVL231
 14580 08a6 2C030000 		.4byte	.LVL235
 14581 08aa 0100     		.2byte	0x1
 14582 08ac 55       		.byte	0x55
 14583 08ad 3A030000 		.4byte	.LVL237
 14584 08b1 48030000 		.4byte	.LVL241
 14585 08b5 0100     		.2byte	0x1
 14586 08b7 55       		.byte	0x55
 14587 08b8 56030000 		.4byte	.LVL243
 14588 08bc 64030000 		.4byte	.LVL247
 14589 08c0 0100     		.2byte	0x1
 14590 08c2 55       		.byte	0x55
 14591 08c3 72030000 		.4byte	.LVL249
 14592 08c7 80030000 		.4byte	.LVL253
 14593 08cb 0100     		.2byte	0x1
 14594 08cd 55       		.byte	0x55
 14595 08ce 00040000 		.4byte	.LVL255
 14596 08d2 0E040000 		.4byte	.LVL259
 14597 08d6 0100     		.2byte	0x1
 14598 08d8 55       		.byte	0x55
 14599 08d9 26040000 		.4byte	.LVL262
 14600 08dd 34040000 		.4byte	.LVL266
 14601 08e1 0100     		.2byte	0x1
 14602 08e3 55       		.byte	0x55
 14603 08e4 42040000 		.4byte	.LVL268
 14604 08e8 50040000 		.4byte	.LVL272
 14605 08ec 0100     		.2byte	0x1
 14606 08ee 55       		.byte	0x55
 14607 08ef 5E040000 		.4byte	.LVL274
 14608 08f3 6C040000 		.4byte	.LVL278
 14609 08f7 0100     		.2byte	0x1
 14610 08f9 55       		.byte	0x55
 14611 08fa 7A040000 		.4byte	.LVL280
 14612 08fe 88040000 		.4byte	.LVL284
 14613 0902 0100     		.2byte	0x1
 14614 0904 55       		.byte	0x55
 14615 0905 96040000 		.4byte	.LVL286
ARM GAS  C:\Users\SDEVAS~1\AppData\Local\Temp\ccPhqTSe.s 			page 280


 14616 0909 A4040000 		.4byte	.LVL290
 14617 090d 0100     		.2byte	0x1
 14618 090f 55       		.byte	0x55
 14619 0910 B2040000 		.4byte	.LVL292
 14620 0914 C0040000 		.4byte	.LVL296
 14621 0918 0100     		.2byte	0x1
 14622 091a 55       		.byte	0x55
 14623 091b CE040000 		.4byte	.LVL298
 14624 091f DC040000 		.4byte	.LVL302
 14625 0923 0100     		.2byte	0x1
 14626 0925 55       		.byte	0x55
 14627 0926 EA040000 		.4byte	.LVL304
 14628 092a F8040000 		.4byte	.LVL308
 14629 092e 0100     		.2byte	0x1
 14630 0930 55       		.byte	0x55
 14631 0931 06050000 		.4byte	.LVL310
 14632 0935 14050000 		.4byte	.LVL314
 14633 0939 0100     		.2byte	0x1
 14634 093b 55       		.byte	0x55
 14635 093c 00000000 		.4byte	0
 14636 0940 00000000 		.4byte	0
 14637              	.LLST27:
 14638 0944 58000000 		.4byte	.LVL98
 14639 0948 08010000 		.4byte	.LVL116
 14640 094c 0200     		.2byte	0x2
 14641 094e 30       		.byte	0x30
 14642 094f 9F       		.byte	0x9f
 14643 0950 08010000 		.4byte	.LVL116
 14644 0954 0A010000 		.4byte	.LVL117
 14645 0958 0100     		.2byte	0x1
 14646 095a 50       		.byte	0x50
 14647 095b 0A010000 		.4byte	.LVL117
 14648 095f 24040000 		.4byte	.LVL261
 14649 0963 0200     		.2byte	0x2
 14650 0965 30       		.byte	0x30
 14651 0966 9F       		.byte	0x9f
 14652 0967 24040000 		.4byte	.LVL261
 14653 096b 26040000 		.4byte	.LVL262
 14654 096f 0100     		.2byte	0x1
 14655 0971 50       		.byte	0x50
 14656 0972 26040000 		.4byte	.LVL262
 14657 0976 2A050000 		.4byte	.LVL316
 14658 097a 0200     		.2byte	0x2
 14659 097c 30       		.byte	0x30
 14660 097d 9F       		.byte	0x9f
 14661 097e 2A050000 		.4byte	.LVL316
 14662 0982 32050000 		.4byte	.LVL317
 14663 0986 0100     		.2byte	0x1
 14664 0988 50       		.byte	0x50
 14665 0989 00000000 		.4byte	0
 14666 098d 00000000 		.4byte	0
 14667              	.LLST28:
 14668 0991 00000000 		.4byte	.LVL320
 14669 0995 26000000 		.4byte	.LVL322
 14670 0999 0100     		.2byte	0x1
 14671 099b 50       		.byte	0x50
 14672 099c 26000000 		.4byte	.LVL322
ARM GAS  C:\Users\SDEVAS~1\AppData\Local\Temp\ccPhqTSe.s 			page 281


 14673 09a0 B0050000 		.4byte	.LFE62
 14674 09a4 0200     		.2byte	0x2
 14675 09a6 91       		.byte	0x91
 14676 09a7 50       		.sleb128 -48
 14677 09a8 00000000 		.4byte	0
 14678 09ac 00000000 		.4byte	0
 14679              	.LLST29:
 14680 09b0 00000000 		.4byte	.LVL320
 14681 09b4 12000000 		.4byte	.LVL321
 14682 09b8 0100     		.2byte	0x1
 14683 09ba 51       		.byte	0x51
 14684 09bb 12000000 		.4byte	.LVL321
 14685 09bf B0050000 		.4byte	.LFE62
 14686 09c3 0200     		.2byte	0x2
 14687 09c5 91       		.byte	0x91
 14688 09c6 4C       		.sleb128 -52
 14689 09c7 00000000 		.4byte	0
 14690 09cb 00000000 		.4byte	0
 14691              	.LLST30:
 14692 09cf 26000000 		.4byte	.LVL322
 14693 09d3 B2000000 		.4byte	.LVL335
 14694 09d7 0200     		.2byte	0x2
 14695 09d9 91       		.byte	0x91
 14696 09da 60       		.sleb128 -32
 14697 09db B2000000 		.4byte	.LVL335
 14698 09df B5000000 		.4byte	.LVL336-1
 14699 09e3 0100     		.2byte	0x1
 14700 09e5 51       		.byte	0x51
 14701 09e6 B5000000 		.4byte	.LVL336-1
 14702 09ea BA000000 		.4byte	.LVL337
 14703 09ee 0600     		.2byte	0x6
 14704 09f0 91       		.byte	0x91
 14705 09f1 60       		.sleb128 -32
 14706 09f2 06       		.byte	0x6
 14707 09f3 23       		.byte	0x23
 14708 09f4 01       		.uleb128 0x1
 14709 09f5 9F       		.byte	0x9f
 14710 09f6 BA000000 		.4byte	.LVL337
 14711 09fa C0000000 		.4byte	.LVL339
 14712 09fe 0100     		.2byte	0x1
 14713 0a00 50       		.byte	0x50
 14714 0a01 C0000000 		.4byte	.LVL339
 14715 0a05 80050000 		.4byte	.LVL485
 14716 0a09 0200     		.2byte	0x2
 14717 0a0b 91       		.byte	0x91
 14718 0a0c 60       		.sleb128 -32
 14719 0a0d 00000000 		.4byte	0
 14720 0a11 00000000 		.4byte	0
 14721              	.LLST31:
 14722 0a15 26000000 		.4byte	.LVL322
 14723 0a19 68000000 		.4byte	.LVL325
 14724 0a1d 0200     		.2byte	0x2
 14725 0a1f 91       		.byte	0x91
 14726 0a20 5C       		.sleb128 -36
 14727 0a21 68000000 		.4byte	.LVL325
 14728 0a25 6A000000 		.4byte	.LVL326
 14729 0a29 0100     		.2byte	0x1
ARM GAS  C:\Users\SDEVAS~1\AppData\Local\Temp\ccPhqTSe.s 			page 282


 14730 0a2b 50       		.byte	0x50
 14731 0a2c 6A000000 		.4byte	.LVL326
 14732 0a30 80050000 		.4byte	.LVL485
 14733 0a34 0200     		.2byte	0x2
 14734 0a36 91       		.byte	0x91
 14735 0a37 5C       		.sleb128 -36
 14736 0a38 00000000 		.4byte	0
 14737 0a3c 00000000 		.4byte	0
 14738              	.LLST32:
 14739 0a40 26000000 		.4byte	.LVL322
 14740 0a44 66050000 		.4byte	.LVL483
 14741 0a48 0100     		.2byte	0x1
 14742 0a4a 54       		.byte	0x54
 14743 0a4b 00000000 		.4byte	0
 14744 0a4f 00000000 		.4byte	0
 14745              	.LLST33:
 14746 0a53 26000000 		.4byte	.LVL322
 14747 0a57 A8000000 		.4byte	.LVL332
 14748 0a5b 0100     		.2byte	0x1
 14749 0a5d 56       		.byte	0x56
 14750 0a5e AC000000 		.4byte	.LVL334
 14751 0a62 80050000 		.4byte	.LVL485
 14752 0a66 0100     		.2byte	0x1
 14753 0a68 56       		.byte	0x56
 14754 0a69 00000000 		.4byte	0
 14755 0a6d 00000000 		.4byte	0
 14756              	.LLST34:
 14757 0a71 26000000 		.4byte	.LVL322
 14758 0a75 80050000 		.4byte	.LVL485
 14759 0a79 0100     		.2byte	0x1
 14760 0a7b 55       		.byte	0x55
 14761 0a7c 00000000 		.4byte	0
 14762 0a80 00000000 		.4byte	0
 14763              	.LLST35:
 14764 0a84 26000000 		.4byte	.LVL322
 14765 0a88 86000000 		.4byte	.LVL328
 14766 0a8c 0100     		.2byte	0x1
 14767 0a8e 57       		.byte	0x57
 14768 0a8f 8A000000 		.4byte	.LVL330
 14769 0a93 80050000 		.4byte	.LVL485
 14770 0a97 0100     		.2byte	0x1
 14771 0a99 57       		.byte	0x57
 14772 0a9a 00000000 		.4byte	0
 14773 0a9e 00000000 		.4byte	0
 14774              	.LLST36:
 14775 0aa2 26000000 		.4byte	.LVL322
 14776 0aa6 BE000000 		.4byte	.LVL338
 14777 0aaa 0200     		.2byte	0x2
 14778 0aac 7D       		.byte	0x7d
 14779 0aad 00       		.sleb128 0
 14780 0aae BE000000 		.4byte	.LVL338
 14781 0ab2 C0000000 		.4byte	.LVL339
 14782 0ab6 0100     		.2byte	0x1
 14783 0ab8 52       		.byte	0x52
 14784 0ab9 C0000000 		.4byte	.LVL339
 14785 0abd 31010000 		.4byte	.LVL340-1
 14786 0ac1 0100     		.2byte	0x1
ARM GAS  C:\Users\SDEVAS~1\AppData\Local\Temp\ccPhqTSe.s 			page 283


 14787 0ac3 53       		.byte	0x53
 14788 0ac4 31010000 		.4byte	.LVL340-1
 14789 0ac8 46010000 		.4byte	.LVL343
 14790 0acc 0200     		.2byte	0x2
 14791 0ace 7D       		.byte	0x7d
 14792 0acf 00       		.sleb128 0
 14793 0ad0 46010000 		.4byte	.LVL343
 14794 0ad4 4F010000 		.4byte	.LVL344-1
 14795 0ad8 0100     		.2byte	0x1
 14796 0ada 53       		.byte	0x53
 14797 0adb 4F010000 		.4byte	.LVL344-1
 14798 0adf 64010000 		.4byte	.LVL347
 14799 0ae3 0200     		.2byte	0x2
 14800 0ae5 7D       		.byte	0x7d
 14801 0ae6 00       		.sleb128 0
 14802 0ae7 64010000 		.4byte	.LVL347
 14803 0aeb 6D010000 		.4byte	.LVL348-1
 14804 0aef 0100     		.2byte	0x1
 14805 0af1 53       		.byte	0x53
 14806 0af2 6D010000 		.4byte	.LVL348-1
 14807 0af6 82010000 		.4byte	.LVL351
 14808 0afa 0200     		.2byte	0x2
 14809 0afc 7D       		.byte	0x7d
 14810 0afd 00       		.sleb128 0
 14811 0afe 82010000 		.4byte	.LVL351
 14812 0b02 8B010000 		.4byte	.LVL352-1
 14813 0b06 0100     		.2byte	0x1
 14814 0b08 53       		.byte	0x53
 14815 0b09 8B010000 		.4byte	.LVL352-1
 14816 0b0d A0010000 		.4byte	.LVL355
 14817 0b11 0200     		.2byte	0x2
 14818 0b13 7D       		.byte	0x7d
 14819 0b14 00       		.sleb128 0
 14820 0b15 A0010000 		.4byte	.LVL355
 14821 0b19 A9010000 		.4byte	.LVL356-1
 14822 0b1d 0100     		.2byte	0x1
 14823 0b1f 53       		.byte	0x53
 14824 0b20 A9010000 		.4byte	.LVL356-1
 14825 0b24 BE010000 		.4byte	.LVL359
 14826 0b28 0200     		.2byte	0x2
 14827 0b2a 7D       		.byte	0x7d
 14828 0b2b 00       		.sleb128 0
 14829 0b2c BE010000 		.4byte	.LVL359
 14830 0b30 C7010000 		.4byte	.LVL360-1
 14831 0b34 0100     		.2byte	0x1
 14832 0b36 53       		.byte	0x53
 14833 0b37 C7010000 		.4byte	.LVL360-1
 14834 0b3b DC010000 		.4byte	.LVL363
 14835 0b3f 0200     		.2byte	0x2
 14836 0b41 7D       		.byte	0x7d
 14837 0b42 00       		.sleb128 0
 14838 0b43 DC010000 		.4byte	.LVL363
 14839 0b47 E5010000 		.4byte	.LVL364-1
 14840 0b4b 0100     		.2byte	0x1
 14841 0b4d 53       		.byte	0x53
 14842 0b4e E5010000 		.4byte	.LVL364-1
 14843 0b52 FA010000 		.4byte	.LVL367
ARM GAS  C:\Users\SDEVAS~1\AppData\Local\Temp\ccPhqTSe.s 			page 284


 14844 0b56 0200     		.2byte	0x2
 14845 0b58 7D       		.byte	0x7d
 14846 0b59 00       		.sleb128 0
 14847 0b5a FA010000 		.4byte	.LVL367
 14848 0b5e 03020000 		.4byte	.LVL368-1
 14849 0b62 0100     		.2byte	0x1
 14850 0b64 53       		.byte	0x53
 14851 0b65 03020000 		.4byte	.LVL368-1
 14852 0b69 18020000 		.4byte	.LVL371
 14853 0b6d 0200     		.2byte	0x2
 14854 0b6f 7D       		.byte	0x7d
 14855 0b70 00       		.sleb128 0
 14856 0b71 18020000 		.4byte	.LVL371
 14857 0b75 21020000 		.4byte	.LVL372-1
 14858 0b79 0100     		.2byte	0x1
 14859 0b7b 53       		.byte	0x53
 14860 0b7c 21020000 		.4byte	.LVL372-1
 14861 0b80 36020000 		.4byte	.LVL375
 14862 0b84 0200     		.2byte	0x2
 14863 0b86 7D       		.byte	0x7d
 14864 0b87 00       		.sleb128 0
 14865 0b88 36020000 		.4byte	.LVL375
 14866 0b8c 3F020000 		.4byte	.LVL376-1
 14867 0b90 0100     		.2byte	0x1
 14868 0b92 53       		.byte	0x53
 14869 0b93 3F020000 		.4byte	.LVL376-1
 14870 0b97 54020000 		.4byte	.LVL379
 14871 0b9b 0200     		.2byte	0x2
 14872 0b9d 7D       		.byte	0x7d
 14873 0b9e 00       		.sleb128 0
 14874 0b9f 54020000 		.4byte	.LVL379
 14875 0ba3 5D020000 		.4byte	.LVL380-1
 14876 0ba7 0100     		.2byte	0x1
 14877 0ba9 53       		.byte	0x53
 14878 0baa 5D020000 		.4byte	.LVL380-1
 14879 0bae 72020000 		.4byte	.LVL383
 14880 0bb2 0200     		.2byte	0x2
 14881 0bb4 7D       		.byte	0x7d
 14882 0bb5 00       		.sleb128 0
 14883 0bb6 72020000 		.4byte	.LVL383
 14884 0bba 7B020000 		.4byte	.LVL384-1
 14885 0bbe 0100     		.2byte	0x1
 14886 0bc0 53       		.byte	0x53
 14887 0bc1 7B020000 		.4byte	.LVL384-1
 14888 0bc5 90020000 		.4byte	.LVL387
 14889 0bc9 0200     		.2byte	0x2
 14890 0bcb 7D       		.byte	0x7d
 14891 0bcc 00       		.sleb128 0
 14892 0bcd 90020000 		.4byte	.LVL387
 14893 0bd1 99020000 		.4byte	.LVL388-1
 14894 0bd5 0100     		.2byte	0x1
 14895 0bd7 53       		.byte	0x53
 14896 0bd8 99020000 		.4byte	.LVL388-1
 14897 0bdc AE020000 		.4byte	.LVL391
 14898 0be0 0200     		.2byte	0x2
 14899 0be2 7D       		.byte	0x7d
 14900 0be3 00       		.sleb128 0
ARM GAS  C:\Users\SDEVAS~1\AppData\Local\Temp\ccPhqTSe.s 			page 285


 14901 0be4 AE020000 		.4byte	.LVL391
 14902 0be8 B7020000 		.4byte	.LVL392-1
 14903 0bec 0100     		.2byte	0x1
 14904 0bee 53       		.byte	0x53
 14905 0bef B7020000 		.4byte	.LVL392-1
 14906 0bf3 CC020000 		.4byte	.LVL395
 14907 0bf7 0200     		.2byte	0x2
 14908 0bf9 7D       		.byte	0x7d
 14909 0bfa 00       		.sleb128 0
 14910 0bfb CC020000 		.4byte	.LVL395
 14911 0bff D5020000 		.4byte	.LVL396-1
 14912 0c03 0100     		.2byte	0x1
 14913 0c05 53       		.byte	0x53
 14914 0c06 D5020000 		.4byte	.LVL396-1
 14915 0c0a EA020000 		.4byte	.LVL399
 14916 0c0e 0200     		.2byte	0x2
 14917 0c10 7D       		.byte	0x7d
 14918 0c11 00       		.sleb128 0
 14919 0c12 EA020000 		.4byte	.LVL399
 14920 0c16 F3020000 		.4byte	.LVL400-1
 14921 0c1a 0100     		.2byte	0x1
 14922 0c1c 53       		.byte	0x53
 14923 0c1d F3020000 		.4byte	.LVL400-1
 14924 0c21 08030000 		.4byte	.LVL403
 14925 0c25 0200     		.2byte	0x2
 14926 0c27 7D       		.byte	0x7d
 14927 0c28 00       		.sleb128 0
 14928 0c29 08030000 		.4byte	.LVL403
 14929 0c2d 11030000 		.4byte	.LVL404-1
 14930 0c31 0100     		.2byte	0x1
 14931 0c33 53       		.byte	0x53
 14932 0c34 11030000 		.4byte	.LVL404-1
 14933 0c38 26030000 		.4byte	.LVL407
 14934 0c3c 0200     		.2byte	0x2
 14935 0c3e 7D       		.byte	0x7d
 14936 0c3f 00       		.sleb128 0
 14937 0c40 26030000 		.4byte	.LVL407
 14938 0c44 2F030000 		.4byte	.LVL408-1
 14939 0c48 0100     		.2byte	0x1
 14940 0c4a 53       		.byte	0x53
 14941 0c4b 2F030000 		.4byte	.LVL408-1
 14942 0c4f 44030000 		.4byte	.LVL411
 14943 0c53 0200     		.2byte	0x2
 14944 0c55 7D       		.byte	0x7d
 14945 0c56 00       		.sleb128 0
 14946 0c57 44030000 		.4byte	.LVL411
 14947 0c5b 4D030000 		.4byte	.LVL412-1
 14948 0c5f 0100     		.2byte	0x1
 14949 0c61 53       		.byte	0x53
 14950 0c62 4D030000 		.4byte	.LVL412-1
 14951 0c66 62030000 		.4byte	.LVL415
 14952 0c6a 0200     		.2byte	0x2
 14953 0c6c 7D       		.byte	0x7d
 14954 0c6d 00       		.sleb128 0
 14955 0c6e 62030000 		.4byte	.LVL415
 14956 0c72 6B030000 		.4byte	.LVL416-1
 14957 0c76 0100     		.2byte	0x1
ARM GAS  C:\Users\SDEVAS~1\AppData\Local\Temp\ccPhqTSe.s 			page 286


 14958 0c78 53       		.byte	0x53
 14959 0c79 6B030000 		.4byte	.LVL416-1
 14960 0c7d 98030000 		.4byte	.LVL419
 14961 0c81 0200     		.2byte	0x2
 14962 0c83 7D       		.byte	0x7d
 14963 0c84 00       		.sleb128 0
 14964 0c85 98030000 		.4byte	.LVL419
 14965 0c89 A1030000 		.4byte	.LVL420-1
 14966 0c8d 0100     		.2byte	0x1
 14967 0c8f 53       		.byte	0x53
 14968 0c90 A1030000 		.4byte	.LVL420-1
 14969 0c94 B6030000 		.4byte	.LVL423
 14970 0c98 0200     		.2byte	0x2
 14971 0c9a 7D       		.byte	0x7d
 14972 0c9b 00       		.sleb128 0
 14973 0c9c B6030000 		.4byte	.LVL423
 14974 0ca0 BF030000 		.4byte	.LVL424-1
 14975 0ca4 0100     		.2byte	0x1
 14976 0ca6 53       		.byte	0x53
 14977 0ca7 BF030000 		.4byte	.LVL424-1
 14978 0cab D4030000 		.4byte	.LVL427
 14979 0caf 0200     		.2byte	0x2
 14980 0cb1 7D       		.byte	0x7d
 14981 0cb2 00       		.sleb128 0
 14982 0cb3 D4030000 		.4byte	.LVL427
 14983 0cb7 DD030000 		.4byte	.LVL428-1
 14984 0cbb 0100     		.2byte	0x1
 14985 0cbd 53       		.byte	0x53
 14986 0cbe DD030000 		.4byte	.LVL428-1
 14987 0cc2 F2030000 		.4byte	.LVL431
 14988 0cc6 0200     		.2byte	0x2
 14989 0cc8 7D       		.byte	0x7d
 14990 0cc9 00       		.sleb128 0
 14991 0cca F2030000 		.4byte	.LVL431
 14992 0cce FB030000 		.4byte	.LVL432-1
 14993 0cd2 0100     		.2byte	0x1
 14994 0cd4 53       		.byte	0x53
 14995 0cd5 FB030000 		.4byte	.LVL432-1
 14996 0cd9 10040000 		.4byte	.LVL435
 14997 0cdd 0200     		.2byte	0x2
 14998 0cdf 7D       		.byte	0x7d
 14999 0ce0 00       		.sleb128 0
 15000 0ce1 10040000 		.4byte	.LVL435
 15001 0ce5 19040000 		.4byte	.LVL436-1
 15002 0ce9 0100     		.2byte	0x1
 15003 0ceb 53       		.byte	0x53
 15004 0cec 19040000 		.4byte	.LVL436-1
 15005 0cf0 2E040000 		.4byte	.LVL439
 15006 0cf4 0200     		.2byte	0x2
 15007 0cf6 7D       		.byte	0x7d
 15008 0cf7 00       		.sleb128 0
 15009 0cf8 2E040000 		.4byte	.LVL439
 15010 0cfc 37040000 		.4byte	.LVL440-1
 15011 0d00 0100     		.2byte	0x1
 15012 0d02 53       		.byte	0x53
 15013 0d03 37040000 		.4byte	.LVL440-1
 15014 0d07 4C040000 		.4byte	.LVL443
ARM GAS  C:\Users\SDEVAS~1\AppData\Local\Temp\ccPhqTSe.s 			page 287


 15015 0d0b 0200     		.2byte	0x2
 15016 0d0d 7D       		.byte	0x7d
 15017 0d0e 00       		.sleb128 0
 15018 0d0f 4C040000 		.4byte	.LVL443
 15019 0d13 55040000 		.4byte	.LVL444-1
 15020 0d17 0100     		.2byte	0x1
 15021 0d19 53       		.byte	0x53
 15022 0d1a 55040000 		.4byte	.LVL444-1
 15023 0d1e 6A040000 		.4byte	.LVL447
 15024 0d22 0200     		.2byte	0x2
 15025 0d24 7D       		.byte	0x7d
 15026 0d25 00       		.sleb128 0
 15027 0d26 6A040000 		.4byte	.LVL447
 15028 0d2a 73040000 		.4byte	.LVL448-1
 15029 0d2e 0100     		.2byte	0x1
 15030 0d30 53       		.byte	0x53
 15031 0d31 73040000 		.4byte	.LVL448-1
 15032 0d35 86040000 		.4byte	.LVL451
 15033 0d39 0200     		.2byte	0x2
 15034 0d3b 7D       		.byte	0x7d
 15035 0d3c 00       		.sleb128 0
 15036 0d3d 86040000 		.4byte	.LVL451
 15037 0d41 8F040000 		.4byte	.LVL452-1
 15038 0d45 0100     		.2byte	0x1
 15039 0d47 53       		.byte	0x53
 15040 0d48 8F040000 		.4byte	.LVL452-1
 15041 0d4c A2040000 		.4byte	.LVL455
 15042 0d50 0200     		.2byte	0x2
 15043 0d52 7D       		.byte	0x7d
 15044 0d53 00       		.sleb128 0
 15045 0d54 A2040000 		.4byte	.LVL455
 15046 0d58 AB040000 		.4byte	.LVL456-1
 15047 0d5c 0100     		.2byte	0x1
 15048 0d5e 53       		.byte	0x53
 15049 0d5f AB040000 		.4byte	.LVL456-1
 15050 0d63 BE040000 		.4byte	.LVL459
 15051 0d67 0200     		.2byte	0x2
 15052 0d69 7D       		.byte	0x7d
 15053 0d6a 00       		.sleb128 0
 15054 0d6b BE040000 		.4byte	.LVL459
 15055 0d6f C7040000 		.4byte	.LVL460-1
 15056 0d73 0100     		.2byte	0x1
 15057 0d75 53       		.byte	0x53
 15058 0d76 C7040000 		.4byte	.LVL460-1
 15059 0d7a DA040000 		.4byte	.LVL463
 15060 0d7e 0200     		.2byte	0x2
 15061 0d80 7D       		.byte	0x7d
 15062 0d81 00       		.sleb128 0
 15063 0d82 DA040000 		.4byte	.LVL463
 15064 0d86 E3040000 		.4byte	.LVL464-1
 15065 0d8a 0100     		.2byte	0x1
 15066 0d8c 53       		.byte	0x53
 15067 0d8d E3040000 		.4byte	.LVL464-1
 15068 0d91 F6040000 		.4byte	.LVL467
 15069 0d95 0200     		.2byte	0x2
 15070 0d97 7D       		.byte	0x7d
 15071 0d98 00       		.sleb128 0
ARM GAS  C:\Users\SDEVAS~1\AppData\Local\Temp\ccPhqTSe.s 			page 288


 15072 0d99 F6040000 		.4byte	.LVL467
 15073 0d9d FF040000 		.4byte	.LVL468-1
 15074 0da1 0100     		.2byte	0x1
 15075 0da3 53       		.byte	0x53
 15076 0da4 FF040000 		.4byte	.LVL468-1
 15077 0da8 12050000 		.4byte	.LVL471
 15078 0dac 0200     		.2byte	0x2
 15079 0dae 7D       		.byte	0x7d
 15080 0daf 00       		.sleb128 0
 15081 0db0 12050000 		.4byte	.LVL471
 15082 0db4 1B050000 		.4byte	.LVL472-1
 15083 0db8 0100     		.2byte	0x1
 15084 0dba 53       		.byte	0x53
 15085 0dbb 1B050000 		.4byte	.LVL472-1
 15086 0dbf 2E050000 		.4byte	.LVL475
 15087 0dc3 0200     		.2byte	0x2
 15088 0dc5 7D       		.byte	0x7d
 15089 0dc6 00       		.sleb128 0
 15090 0dc7 2E050000 		.4byte	.LVL475
 15091 0dcb 37050000 		.4byte	.LVL476-1
 15092 0dcf 0100     		.2byte	0x1
 15093 0dd1 53       		.byte	0x53
 15094 0dd2 37050000 		.4byte	.LVL476-1
 15095 0dd6 4A050000 		.4byte	.LVL479
 15096 0dda 0200     		.2byte	0x2
 15097 0ddc 7D       		.byte	0x7d
 15098 0ddd 00       		.sleb128 0
 15099 0dde 4A050000 		.4byte	.LVL479
 15100 0de2 53050000 		.4byte	.LVL480-1
 15101 0de6 0100     		.2byte	0x1
 15102 0de8 53       		.byte	0x53
 15103 0de9 53050000 		.4byte	.LVL480-1
 15104 0ded 80050000 		.4byte	.LVL485
 15105 0df1 0200     		.2byte	0x2
 15106 0df3 7D       		.byte	0x7d
 15107 0df4 00       		.sleb128 0
 15108 0df5 00000000 		.4byte	0
 15109 0df9 00000000 		.4byte	0
 15110              	.LLST37:
 15111 0dfd 00000000 		.4byte	.LVL493
 15112 0e01 0A000000 		.4byte	.LVL494
 15113 0e05 0100     		.2byte	0x1
 15114 0e07 50       		.byte	0x50
 15115 0e08 0A000000 		.4byte	.LVL494
 15116 0e0c B4000000 		.4byte	.LFE40
 15117 0e10 0400     		.2byte	0x4
 15118 0e12 F3       		.byte	0xf3
 15119 0e13 01       		.uleb128 0x1
 15120 0e14 50       		.byte	0x50
 15121 0e15 9F       		.byte	0x9f
 15122 0e16 00000000 		.4byte	0
 15123 0e1a 00000000 		.4byte	0
 15124              	.LLST38:
 15125 0e1e 1E000000 		.4byte	.LVL496
 15126 0e22 92000000 		.4byte	.LVL510
 15127 0e26 0100     		.2byte	0x1
 15128 0e28 56       		.byte	0x56
ARM GAS  C:\Users\SDEVAS~1\AppData\Local\Temp\ccPhqTSe.s 			page 289


 15129 0e29 00000000 		.4byte	0
 15130 0e2d 00000000 		.4byte	0
 15131              	.LLST39:
 15132 0e31 1E000000 		.4byte	.LVL496
 15133 0e35 34000000 		.4byte	.LVL497
 15134 0e39 0100     		.2byte	0x1
 15135 0e3b 54       		.byte	0x54
 15136 0e3c 34000000 		.4byte	.LVL497
 15137 0e40 3A000000 		.4byte	.LVL498
 15138 0e44 0500     		.2byte	0x5
 15139 0e46 03       		.byte	0x3
 15140 0e47 00000000 		.4byte	respFreeSpace
 15141 0e4b 3A000000 		.4byte	.LVL498
 15142 0e4f 40000000 		.4byte	.LVL499
 15143 0e53 0100     		.2byte	0x1
 15144 0e55 54       		.byte	0x54
 15145 0e56 40000000 		.4byte	.LVL499
 15146 0e5a 46000000 		.4byte	.LVL500
 15147 0e5e 0500     		.2byte	0x5
 15148 0e60 03       		.byte	0x3
 15149 0e61 00000000 		.4byte	respFreeSpace
 15150 0e65 46000000 		.4byte	.LVL500
 15151 0e69 4C000000 		.4byte	.LVL501
 15152 0e6d 0100     		.2byte	0x1
 15153 0e6f 54       		.byte	0x54
 15154 0e70 4C000000 		.4byte	.LVL501
 15155 0e74 52000000 		.4byte	.LVL502
 15156 0e78 0500     		.2byte	0x5
 15157 0e7a 03       		.byte	0x3
 15158 0e7b 00000000 		.4byte	respFreeSpace
 15159 0e7f 52000000 		.4byte	.LVL502
 15160 0e83 58000000 		.4byte	.LVL503
 15161 0e87 0100     		.2byte	0x1
 15162 0e89 54       		.byte	0x54
 15163 0e8a 58000000 		.4byte	.LVL503
 15164 0e8e 5E000000 		.4byte	.LVL504
 15165 0e92 0500     		.2byte	0x5
 15166 0e94 03       		.byte	0x3
 15167 0e95 00000000 		.4byte	respFreeSpace
 15168 0e99 5E000000 		.4byte	.LVL504
 15169 0e9d 64000000 		.4byte	.LVL505
 15170 0ea1 0100     		.2byte	0x1
 15171 0ea3 54       		.byte	0x54
 15172 0ea4 64000000 		.4byte	.LVL505
 15173 0ea8 6A000000 		.4byte	.LVL506
 15174 0eac 0500     		.2byte	0x5
 15175 0eae 03       		.byte	0x3
 15176 0eaf 00000000 		.4byte	respFreeSpace
 15177 0eb3 6A000000 		.4byte	.LVL506
 15178 0eb7 70000000 		.4byte	.LVL507
 15179 0ebb 0100     		.2byte	0x1
 15180 0ebd 54       		.byte	0x54
 15181 0ebe 70000000 		.4byte	.LVL507
 15182 0ec2 79000000 		.4byte	.LVL509-1
 15183 0ec6 0500     		.2byte	0x5
 15184 0ec8 03       		.byte	0x3
 15185 0ec9 00000000 		.4byte	respFreeSpace
ARM GAS  C:\Users\SDEVAS~1\AppData\Local\Temp\ccPhqTSe.s 			page 290


 15186 0ecd 00000000 		.4byte	0
 15187 0ed1 00000000 		.4byte	0
 15188              	.LLST40:
 15189 0ed5 1E000000 		.4byte	.LVL496
 15190 0ed9 74000000 		.4byte	.LVL508
 15191 0edd 0100     		.2byte	0x1
 15192 0edf 53       		.byte	0x53
 15193 0ee0 74000000 		.4byte	.LVL508
 15194 0ee4 79000000 		.4byte	.LVL509-1
 15195 0ee8 0100     		.2byte	0x1
 15196 0eea 50       		.byte	0x50
 15197 0eeb 00000000 		.4byte	0
 15198 0eef 00000000 		.4byte	0
 15199              	.LLST41:
 15200 0ef3 00000000 		.4byte	.LVL511
 15201 0ef7 18000000 		.4byte	.LVL512
 15202 0efb 0100     		.2byte	0x1
 15203 0efd 50       		.byte	0x50
 15204 0efe 18000000 		.4byte	.LVL512
 15205 0f02 74020000 		.4byte	.LFE41
 15206 0f06 0200     		.2byte	0x2
 15207 0f08 91       		.byte	0x91
 15208 0f09 50       		.sleb128 -48
 15209 0f0a 00000000 		.4byte	0
 15210 0f0e 00000000 		.4byte	0
 15211              	.LLST42:
 15212 0f12 00000000 		.4byte	.LVL511
 15213 0f16 1D000000 		.4byte	.LVL513-1
 15214 0f1a 0100     		.2byte	0x1
 15215 0f1c 51       		.byte	0x51
 15216 0f1d 1D000000 		.4byte	.LVL513-1
 15217 0f21 34000000 		.4byte	.LVL515
 15218 0f25 0100     		.2byte	0x1
 15219 0f27 57       		.byte	0x57
 15220 0f28 34000000 		.4byte	.LVL515
 15221 0f2c 38000000 		.4byte	.LVL516
 15222 0f30 0400     		.2byte	0x4
 15223 0f32 F3       		.byte	0xf3
 15224 0f33 01       		.uleb128 0x1
 15225 0f34 51       		.byte	0x51
 15226 0f35 9F       		.byte	0x9f
 15227 0f36 38000000 		.4byte	.LVL516
 15228 0f3a 46000000 		.4byte	.LVL517
 15229 0f3e 0100     		.2byte	0x1
 15230 0f40 57       		.byte	0x57
 15231 0f41 46000000 		.4byte	.LVL517
 15232 0f45 74020000 		.4byte	.LFE41
 15233 0f49 0400     		.2byte	0x4
 15234 0f4b F3       		.byte	0xf3
 15235 0f4c 01       		.uleb128 0x1
 15236 0f4d 51       		.byte	0x51
 15237 0f4e 9F       		.byte	0x9f
 15238 0f4f 00000000 		.4byte	0
 15239 0f53 00000000 		.4byte	0
 15240              	.LLST43:
 15241 0f57 30000000 		.4byte	.LVL514
 15242 0f5b 34000000 		.4byte	.LVL515
ARM GAS  C:\Users\SDEVAS~1\AppData\Local\Temp\ccPhqTSe.s 			page 291


 15243 0f5f 0700     		.2byte	0x7
 15244 0f61 70       		.byte	0x70
 15245 0f62 00       		.sleb128 0
 15246 0f63 48       		.byte	0x48
 15247 0f64 24       		.byte	0x24
 15248 0f65 48       		.byte	0x48
 15249 0f66 26       		.byte	0x26
 15250 0f67 9F       		.byte	0x9f
 15251 0f68 38000000 		.4byte	.LVL516
 15252 0f6c 46000000 		.4byte	.LVL517
 15253 0f70 0700     		.2byte	0x7
 15254 0f72 70       		.byte	0x70
 15255 0f73 00       		.sleb128 0
 15256 0f74 48       		.byte	0x48
 15257 0f75 24       		.byte	0x24
 15258 0f76 48       		.byte	0x48
 15259 0f77 26       		.byte	0x26
 15260 0f78 9F       		.byte	0x9f
 15261 0f79 00000000 		.4byte	0
 15262 0f7d 00000000 		.4byte	0
 15263              	.LLST44:
 15264 0f81 46000000 		.4byte	.LVL517
 15265 0f85 F4010000 		.4byte	.LVL542
 15266 0f89 0200     		.2byte	0x2
 15267 0f8b 91       		.byte	0x91
 15268 0f8c 54       		.sleb128 -44
 15269 0f8d F4010000 		.4byte	.LVL542
 15270 0f91 F7010000 		.4byte	.LVL543-1
 15271 0f95 0100     		.2byte	0x1
 15272 0f97 51       		.byte	0x51
 15273 0f98 F7010000 		.4byte	.LVL543-1
 15274 0f9c FC010000 		.4byte	.LVL544
 15275 0fa0 0600     		.2byte	0x6
 15276 0fa2 91       		.byte	0x91
 15277 0fa3 54       		.sleb128 -44
 15278 0fa4 06       		.byte	0x6
 15279 0fa5 23       		.byte	0x23
 15280 0fa6 01       		.uleb128 0x1
 15281 0fa7 9F       		.byte	0x9f
 15282 0fa8 FC010000 		.4byte	.LVL544
 15283 0fac 02020000 		.4byte	.LVL546
 15284 0fb0 0100     		.2byte	0x1
 15285 0fb2 50       		.byte	0x50
 15286 0fb3 02020000 		.4byte	.LVL546
 15287 0fb7 2E020000 		.4byte	.LVL550
 15288 0fbb 0200     		.2byte	0x2
 15289 0fbd 91       		.byte	0x91
 15290 0fbe 54       		.sleb128 -44
 15291 0fbf 00000000 		.4byte	0
 15292 0fc3 00000000 		.4byte	0
 15293              	.LLST45:
 15294 0fc7 46000000 		.4byte	.LVL517
 15295 0fcb 00020000 		.4byte	.LVL545
 15296 0fcf 0200     		.2byte	0x2
 15297 0fd1 91       		.byte	0x91
 15298 0fd2 58       		.sleb128 -40
 15299 0fd3 00020000 		.4byte	.LVL545
ARM GAS  C:\Users\SDEVAS~1\AppData\Local\Temp\ccPhqTSe.s 			page 292


 15300 0fd7 02020000 		.4byte	.LVL546
 15301 0fdb 0100     		.2byte	0x1
 15302 0fdd 52       		.byte	0x52
 15303 0fde 02020000 		.4byte	.LVL546
 15304 0fe2 04020000 		.4byte	.LVL547
 15305 0fe6 0100     		.2byte	0x1
 15306 0fe8 53       		.byte	0x53
 15307 0fe9 04020000 		.4byte	.LVL547
 15308 0fed 2E020000 		.4byte	.LVL550
 15309 0ff1 0200     		.2byte	0x2
 15310 0ff3 91       		.byte	0x91
 15311 0ff4 58       		.sleb128 -40
 15312 0ff5 00000000 		.4byte	0
 15313 0ff9 00000000 		.4byte	0
 15314              	.LLST46:
 15315 0ffd 80000000 		.4byte	.LVL519
 15316 1001 E6000000 		.4byte	.LVL524
 15317 1005 0100     		.2byte	0x1
 15318 1007 56       		.byte	0x56
 15319 1008 E6000000 		.4byte	.LVL524
 15320 100c EB000000 		.4byte	.LVL525-1
 15321 1010 0100     		.2byte	0x1
 15322 1012 51       		.byte	0x51
 15323 1013 EB000000 		.4byte	.LVL525-1
 15324 1017 F0000000 		.4byte	.LVL526
 15325 101b 0300     		.2byte	0x3
 15326 101d 76       		.byte	0x76
 15327 101e 01       		.sleb128 1
 15328 101f 9F       		.byte	0x9f
 15329 1020 F0000000 		.4byte	.LVL526
 15330 1024 F6000000 		.4byte	.LVL528
 15331 1028 0100     		.2byte	0x1
 15332 102a 50       		.byte	0x50
 15333 102b F6000000 		.4byte	.LVL528
 15334 102f 0C010000 		.4byte	.LVL530
 15335 1033 0100     		.2byte	0x1
 15336 1035 56       		.byte	0x56
 15337 1036 28020000 		.4byte	.LVL548
 15338 103a 2C020000 		.4byte	.LVL549
 15339 103e 0100     		.2byte	0x1
 15340 1040 56       		.byte	0x56
 15341 1041 00000000 		.4byte	0
 15342 1045 00000000 		.4byte	0
 15343              	.LLST47:
 15344 1049 80000000 		.4byte	.LVL519
 15345 104d 84000000 		.4byte	.LVL520
 15346 1051 0200     		.2byte	0x2
 15347 1053 30       		.byte	0x30
 15348 1054 9F       		.byte	0x9f
 15349 1055 84000000 		.4byte	.LVL520
 15350 1059 F4000000 		.4byte	.LVL527
 15351 105d 0200     		.2byte	0x2
 15352 105f 91       		.byte	0x91
 15353 1060 5C       		.sleb128 -36
 15354 1061 F4000000 		.4byte	.LVL527
 15355 1065 F6000000 		.4byte	.LVL528
 15356 1069 0100     		.2byte	0x1
ARM GAS  C:\Users\SDEVAS~1\AppData\Local\Temp\ccPhqTSe.s 			page 293


 15357 106b 53       		.byte	0x53
 15358 106c F6000000 		.4byte	.LVL528
 15359 1070 FE000000 		.4byte	.LVL529
 15360 1074 0100     		.2byte	0x1
 15361 1076 50       		.byte	0x50
 15362 1077 FE000000 		.4byte	.LVL529
 15363 107b 0C010000 		.4byte	.LVL530
 15364 107f 0200     		.2byte	0x2
 15365 1081 91       		.byte	0x91
 15366 1082 5C       		.sleb128 -36
 15367 1083 28020000 		.4byte	.LVL548
 15368 1087 2C020000 		.4byte	.LVL549
 15369 108b 0200     		.2byte	0x2
 15370 108d 91       		.byte	0x91
 15371 108e 5C       		.sleb128 -36
 15372 108f 00000000 		.4byte	0
 15373 1093 00000000 		.4byte	0
 15374              	.LLST48:
 15375 1097 50010000 		.4byte	.LVL533
 15376 109b 5B010000 		.4byte	.LVL534-1
 15377 109f 1200     		.2byte	0x12
 15378 10a1 91       		.byte	0x91
 15379 10a2 54       		.sleb128 -44
 15380 10a3 06       		.byte	0x6
 15381 10a4 23       		.byte	0x23
 15382 10a5 01       		.uleb128 0x1
 15383 10a6 34       		.byte	0x34
 15384 10a7 24       		.byte	0x24
 15385 10a8 03       		.byte	0x3
 15386 10a9 08000000 		.4byte	tokens+8
 15387 10ad 22       		.byte	0x22
 15388 10ae 06       		.byte	0x6
 15389 10af 73       		.byte	0x73
 15390 10b0 00       		.sleb128 0
 15391 10b1 1C       		.byte	0x1c
 15392 10b2 9F       		.byte	0x9f
 15393 10b3 00000000 		.4byte	0
 15394 10b7 00000000 		.4byte	0
 15395              	.LLST49:
 15396 10bb 50010000 		.4byte	.LVL533
 15397 10bf A8010000 		.4byte	.LVL539
 15398 10c3 0100     		.2byte	0x1
 15399 10c5 55       		.byte	0x55
 15400 10c6 00000000 		.4byte	0
 15401 10ca 00000000 		.4byte	0
 15402              	.LLST50:
 15403 10ce 00000000 		.4byte	.LVL551
 15404 10d2 08000000 		.4byte	.LVL552
 15405 10d6 0100     		.2byte	0x1
 15406 10d8 50       		.byte	0x50
 15407 10d9 08000000 		.4byte	.LVL552
 15408 10dd 10000000 		.4byte	.LVL555
 15409 10e1 0400     		.2byte	0x4
 15410 10e3 F3       		.byte	0xf3
 15411 10e4 01       		.uleb128 0x1
 15412 10e5 50       		.byte	0x50
 15413 10e6 9F       		.byte	0x9f
ARM GAS  C:\Users\SDEVAS~1\AppData\Local\Temp\ccPhqTSe.s 			page 294


 15414 10e7 10000000 		.4byte	.LVL555
 15415 10eb 12000000 		.4byte	.LVL556
 15416 10ef 0100     		.2byte	0x1
 15417 10f1 50       		.byte	0x50
 15418 10f2 12000000 		.4byte	.LVL556
 15419 10f6 14000000 		.4byte	.LFE42
 15420 10fa 0400     		.2byte	0x4
 15421 10fc F3       		.byte	0xf3
 15422 10fd 01       		.uleb128 0x1
 15423 10fe 50       		.byte	0x50
 15424 10ff 9F       		.byte	0x9f
 15425 1100 00000000 		.4byte	0
 15426 1104 00000000 		.4byte	0
 15427              	.LLST51:
 15428 1108 00000000 		.4byte	.LVL551
 15429 110c 0A000000 		.4byte	.LVL553
 15430 1110 0100     		.2byte	0x1
 15431 1112 51       		.byte	0x51
 15432 1113 0A000000 		.4byte	.LVL553
 15433 1117 0D000000 		.4byte	.LVL554-1
 15434 111b 0100     		.2byte	0x1
 15435 111d 50       		.byte	0x50
 15436 111e 0D000000 		.4byte	.LVL554-1
 15437 1122 10000000 		.4byte	.LVL555
 15438 1126 0400     		.2byte	0x4
 15439 1128 F3       		.byte	0xf3
 15440 1129 01       		.uleb128 0x1
 15441 112a 51       		.byte	0x51
 15442 112b 9F       		.byte	0x9f
 15443 112c 10000000 		.4byte	.LVL555
 15444 1130 12000000 		.4byte	.LVL556
 15445 1134 0100     		.2byte	0x1
 15446 1136 51       		.byte	0x51
 15447 1137 12000000 		.4byte	.LVL556
 15448 113b 14000000 		.4byte	.LFE42
 15449 113f 0400     		.2byte	0x4
 15450 1141 F3       		.byte	0xf3
 15451 1142 01       		.uleb128 0x1
 15452 1143 51       		.byte	0x51
 15453 1144 9F       		.byte	0x9f
 15454 1145 00000000 		.4byte	0
 15455 1149 00000000 		.4byte	0
 15456              	.LLST52:
 15457 114d 00000000 		.4byte	.LVL551
 15458 1151 0D000000 		.4byte	.LVL554-1
 15459 1155 0100     		.2byte	0x1
 15460 1157 52       		.byte	0x52
 15461 1158 0D000000 		.4byte	.LVL554-1
 15462 115c 10000000 		.4byte	.LVL555
 15463 1160 0400     		.2byte	0x4
 15464 1162 F3       		.byte	0xf3
 15465 1163 01       		.uleb128 0x1
 15466 1164 52       		.byte	0x52
 15467 1165 9F       		.byte	0x9f
 15468 1166 10000000 		.4byte	.LVL555
 15469 116a 12000000 		.4byte	.LVL556
 15470 116e 0100     		.2byte	0x1
ARM GAS  C:\Users\SDEVAS~1\AppData\Local\Temp\ccPhqTSe.s 			page 295


 15471 1170 52       		.byte	0x52
 15472 1171 12000000 		.4byte	.LVL556
 15473 1175 14000000 		.4byte	.LFE42
 15474 1179 0400     		.2byte	0x4
 15475 117b F3       		.byte	0xf3
 15476 117c 01       		.uleb128 0x1
 15477 117d 52       		.byte	0x52
 15478 117e 9F       		.byte	0x9f
 15479 117f 00000000 		.4byte	0
 15480 1183 00000000 		.4byte	0
 15481              	.LLST53:
 15482 1187 00000000 		.4byte	.LVL551
 15483 118b 0D000000 		.4byte	.LVL554-1
 15484 118f 0100     		.2byte	0x1
 15485 1191 53       		.byte	0x53
 15486 1192 0D000000 		.4byte	.LVL554-1
 15487 1196 10000000 		.4byte	.LVL555
 15488 119a 0400     		.2byte	0x4
 15489 119c F3       		.byte	0xf3
 15490 119d 01       		.uleb128 0x1
 15491 119e 53       		.byte	0x53
 15492 119f 9F       		.byte	0x9f
 15493 11a0 10000000 		.4byte	.LVL555
 15494 11a4 12000000 		.4byte	.LVL556
 15495 11a8 0100     		.2byte	0x1
 15496 11aa 53       		.byte	0x53
 15497 11ab 12000000 		.4byte	.LVL556
 15498 11af 14000000 		.4byte	.LFE42
 15499 11b3 0400     		.2byte	0x4
 15500 11b5 F3       		.byte	0xf3
 15501 11b6 01       		.uleb128 0x1
 15502 11b7 53       		.byte	0x53
 15503 11b8 9F       		.byte	0x9f
 15504 11b9 00000000 		.4byte	0
 15505 11bd 00000000 		.4byte	0
 15506              	.LLST54:
 15507 11c1 00000000 		.4byte	.LVL557
 15508 11c5 0A000000 		.4byte	.LVL559
 15509 11c9 0100     		.2byte	0x1
 15510 11cb 50       		.byte	0x50
 15511 11cc 0A000000 		.4byte	.LVL559
 15512 11d0 16000000 		.4byte	.LFE43
 15513 11d4 0400     		.2byte	0x4
 15514 11d6 F3       		.byte	0xf3
 15515 11d7 01       		.uleb128 0x1
 15516 11d8 50       		.byte	0x50
 15517 11d9 9F       		.byte	0x9f
 15518 11da 00000000 		.4byte	0
 15519 11de 00000000 		.4byte	0
 15520              	.LLST55:
 15521 11e2 00000000 		.4byte	.LVL557
 15522 11e6 0C000000 		.4byte	.LVL560
 15523 11ea 0100     		.2byte	0x1
 15524 11ec 51       		.byte	0x51
 15525 11ed 0C000000 		.4byte	.LVL560
 15526 11f1 0F000000 		.4byte	.LVL561-1
 15527 11f5 0100     		.2byte	0x1
ARM GAS  C:\Users\SDEVAS~1\AppData\Local\Temp\ccPhqTSe.s 			page 296


 15528 11f7 50       		.byte	0x50
 15529 11f8 0F000000 		.4byte	.LVL561-1
 15530 11fc 16000000 		.4byte	.LFE43
 15531 1200 0400     		.2byte	0x4
 15532 1202 F3       		.byte	0xf3
 15533 1203 01       		.uleb128 0x1
 15534 1204 51       		.byte	0x51
 15535 1205 9F       		.byte	0x9f
 15536 1206 00000000 		.4byte	0
 15537 120a 00000000 		.4byte	0
 15538              	.LLST56:
 15539 120e 00000000 		.4byte	.LVL557
 15540 1212 04000000 		.4byte	.LVL558
 15541 1216 0100     		.2byte	0x1
 15542 1218 52       		.byte	0x52
 15543 1219 04000000 		.4byte	.LVL558
 15544 121d 16000000 		.4byte	.LFE43
 15545 1221 0400     		.2byte	0x4
 15546 1223 F3       		.byte	0xf3
 15547 1224 01       		.uleb128 0x1
 15548 1225 52       		.byte	0x52
 15549 1226 9F       		.byte	0x9f
 15550 1227 00000000 		.4byte	0
 15551 122b 00000000 		.4byte	0
 15552              	.LLST57:
 15553 122f 00000000 		.4byte	.LVL557
 15554 1233 0F000000 		.4byte	.LVL561-1
 15555 1237 0100     		.2byte	0x1
 15556 1239 53       		.byte	0x53
 15557 123a 0F000000 		.4byte	.LVL561-1
 15558 123e 16000000 		.4byte	.LFE43
 15559 1242 0400     		.2byte	0x4
 15560 1244 F3       		.byte	0xf3
 15561 1245 01       		.uleb128 0x1
 15562 1246 53       		.byte	0x53
 15563 1247 9F       		.byte	0x9f
 15564 1248 00000000 		.4byte	0
 15565 124c 00000000 		.4byte	0
 15566              	.LLST58:
 15567 1250 00000000 		.4byte	.LVL562
 15568 1254 06000000 		.4byte	.LVL564
 15569 1258 0100     		.2byte	0x1
 15570 125a 50       		.byte	0x50
 15571 125b 06000000 		.4byte	.LVL564
 15572 125f 10000000 		.4byte	.LFE44
 15573 1263 0400     		.2byte	0x4
 15574 1265 F3       		.byte	0xf3
 15575 1266 01       		.uleb128 0x1
 15576 1267 50       		.byte	0x50
 15577 1268 9F       		.byte	0x9f
 15578 1269 00000000 		.4byte	0
 15579 126d 00000000 		.4byte	0
 15580              	.LLST59:
 15581 1271 00000000 		.4byte	.LVL562
 15582 1275 0D000000 		.4byte	.LVL565-1
 15583 1279 0100     		.2byte	0x1
 15584 127b 51       		.byte	0x51
ARM GAS  C:\Users\SDEVAS~1\AppData\Local\Temp\ccPhqTSe.s 			page 297


 15585 127c 0D000000 		.4byte	.LVL565-1
 15586 1280 10000000 		.4byte	.LFE44
 15587 1284 0400     		.2byte	0x4
 15588 1286 F3       		.byte	0xf3
 15589 1287 01       		.uleb128 0x1
 15590 1288 51       		.byte	0x51
 15591 1289 9F       		.byte	0x9f
 15592 128a 00000000 		.4byte	0
 15593 128e 00000000 		.4byte	0
 15594              	.LLST60:
 15595 1292 00000000 		.4byte	.LVL562
 15596 1296 0D000000 		.4byte	.LVL565-1
 15597 129a 0100     		.2byte	0x1
 15598 129c 52       		.byte	0x52
 15599 129d 0D000000 		.4byte	.LVL565-1
 15600 12a1 10000000 		.4byte	.LFE44
 15601 12a5 0400     		.2byte	0x4
 15602 12a7 F3       		.byte	0xf3
 15603 12a8 01       		.uleb128 0x1
 15604 12a9 52       		.byte	0x52
 15605 12aa 9F       		.byte	0x9f
 15606 12ab 00000000 		.4byte	0
 15607 12af 00000000 		.4byte	0
 15608              	.LLST61:
 15609 12b3 00000000 		.4byte	.LVL562
 15610 12b7 04000000 		.4byte	.LVL563
 15611 12bb 0100     		.2byte	0x1
 15612 12bd 53       		.byte	0x53
 15613 12be 04000000 		.4byte	.LVL563
 15614 12c2 10000000 		.4byte	.LFE44
 15615 12c6 0400     		.2byte	0x4
 15616 12c8 F3       		.byte	0xf3
 15617 12c9 01       		.uleb128 0x1
 15618 12ca 53       		.byte	0x53
 15619 12cb 9F       		.byte	0x9f
 15620 12cc 00000000 		.4byte	0
 15621 12d0 00000000 		.4byte	0
 15622              	.LLST62:
 15623 12d4 00000000 		.4byte	.LVL566
 15624 12d8 10000000 		.4byte	.LVL570
 15625 12dc 0100     		.2byte	0x1
 15626 12de 50       		.byte	0x50
 15627 12df 10000000 		.4byte	.LVL570
 15628 12e3 4C000000 		.4byte	.LFE45
 15629 12e7 0400     		.2byte	0x4
 15630 12e9 F3       		.byte	0xf3
 15631 12ea 01       		.uleb128 0x1
 15632 12eb 50       		.byte	0x50
 15633 12ec 9F       		.byte	0x9f
 15634 12ed 00000000 		.4byte	0
 15635 12f1 00000000 		.4byte	0
 15636              	.LLST63:
 15637 12f5 00000000 		.4byte	.LVL566
 15638 12f9 0C000000 		.4byte	.LVL568
 15639 12fd 0100     		.2byte	0x1
 15640 12ff 51       		.byte	0x51
 15641 1300 0C000000 		.4byte	.LVL568
ARM GAS  C:\Users\SDEVAS~1\AppData\Local\Temp\ccPhqTSe.s 			page 298


 15642 1304 4C000000 		.4byte	.LFE45
 15643 1308 0400     		.2byte	0x4
 15644 130a F3       		.byte	0xf3
 15645 130b 01       		.uleb128 0x1
 15646 130c 51       		.byte	0x51
 15647 130d 9F       		.byte	0x9f
 15648 130e 00000000 		.4byte	0
 15649 1312 00000000 		.4byte	0
 15650              	.LLST64:
 15651 1316 00000000 		.4byte	.LVL566
 15652 131a 0E000000 		.4byte	.LVL569
 15653 131e 0100     		.2byte	0x1
 15654 1320 52       		.byte	0x52
 15655 1321 0E000000 		.4byte	.LVL569
 15656 1325 4C000000 		.4byte	.LFE45
 15657 1329 0400     		.2byte	0x4
 15658 132b F3       		.byte	0xf3
 15659 132c 01       		.uleb128 0x1
 15660 132d 52       		.byte	0x52
 15661 132e 9F       		.byte	0x9f
 15662 132f 00000000 		.4byte	0
 15663 1333 00000000 		.4byte	0
 15664              	.LLST65:
 15665 1337 00000000 		.4byte	.LVL566
 15666 133b 04000000 		.4byte	.LVL567
 15667 133f 0100     		.2byte	0x1
 15668 1341 53       		.byte	0x53
 15669 1342 04000000 		.4byte	.LVL567
 15670 1346 4C000000 		.4byte	.LFE45
 15671 134a 0400     		.2byte	0x4
 15672 134c F3       		.byte	0xf3
 15673 134d 01       		.uleb128 0x1
 15674 134e 53       		.byte	0x53
 15675 134f 9F       		.byte	0x9f
 15676 1350 00000000 		.4byte	0
 15677 1354 00000000 		.4byte	0
 15678              	.LLST66:
 15679 1358 00000000 		.4byte	.LVL574
 15680 135c 0A000000 		.4byte	.LVL576
 15681 1360 0100     		.2byte	0x1
 15682 1362 50       		.byte	0x50
 15683 1363 0A000000 		.4byte	.LVL576
 15684 1367 48000000 		.4byte	.LFE46
 15685 136b 0400     		.2byte	0x4
 15686 136d F3       		.byte	0xf3
 15687 136e 01       		.uleb128 0x1
 15688 136f 50       		.byte	0x50
 15689 1370 9F       		.byte	0x9f
 15690 1371 00000000 		.4byte	0
 15691 1375 00000000 		.4byte	0
 15692              	.LLST67:
 15693 1379 00000000 		.4byte	.LVL574
 15694 137d 0C000000 		.4byte	.LVL577
 15695 1381 0100     		.2byte	0x1
 15696 1383 51       		.byte	0x51
 15697 1384 0C000000 		.4byte	.LVL577
 15698 1388 0F000000 		.4byte	.LVL578-1
ARM GAS  C:\Users\SDEVAS~1\AppData\Local\Temp\ccPhqTSe.s 			page 299


 15699 138c 0100     		.2byte	0x1
 15700 138e 50       		.byte	0x50
 15701 138f 0F000000 		.4byte	.LVL578-1
 15702 1393 48000000 		.4byte	.LFE46
 15703 1397 0400     		.2byte	0x4
 15704 1399 F3       		.byte	0xf3
 15705 139a 01       		.uleb128 0x1
 15706 139b 51       		.byte	0x51
 15707 139c 9F       		.byte	0x9f
 15708 139d 00000000 		.4byte	0
 15709 13a1 00000000 		.4byte	0
 15710              	.LLST68:
 15711 13a5 00000000 		.4byte	.LVL574
 15712 13a9 0F000000 		.4byte	.LVL578-1
 15713 13ad 0100     		.2byte	0x1
 15714 13af 52       		.byte	0x52
 15715 13b0 0F000000 		.4byte	.LVL578-1
 15716 13b4 48000000 		.4byte	.LFE46
 15717 13b8 0400     		.2byte	0x4
 15718 13ba F3       		.byte	0xf3
 15719 13bb 01       		.uleb128 0x1
 15720 13bc 52       		.byte	0x52
 15721 13bd 9F       		.byte	0x9f
 15722 13be 00000000 		.4byte	0
 15723 13c2 00000000 		.4byte	0
 15724              	.LLST69:
 15725 13c6 00000000 		.4byte	.LVL574
 15726 13ca 04000000 		.4byte	.LVL575
 15727 13ce 0100     		.2byte	0x1
 15728 13d0 53       		.byte	0x53
 15729 13d1 04000000 		.4byte	.LVL575
 15730 13d5 48000000 		.4byte	.LFE46
 15731 13d9 0400     		.2byte	0x4
 15732 13db F3       		.byte	0xf3
 15733 13dc 01       		.uleb128 0x1
 15734 13dd 53       		.byte	0x53
 15735 13de 9F       		.byte	0x9f
 15736 13df 00000000 		.4byte	0
 15737 13e3 00000000 		.4byte	0
 15738              	.LLST70:
 15739 13e7 10000000 		.4byte	.LVL578
 15740 13eb 17000000 		.4byte	.LVL579-1
 15741 13ef 0100     		.2byte	0x1
 15742 13f1 50       		.byte	0x50
 15743 13f2 34000000 		.4byte	.LVL581
 15744 13f6 37000000 		.4byte	.LVL582-1
 15745 13fa 0100     		.2byte	0x1
 15746 13fc 50       		.byte	0x50
 15747 13fd 00000000 		.4byte	0
 15748 1401 00000000 		.4byte	0
 15749              	.LLST71:
 15750 1405 00000000 		.4byte	.LVL590
 15751 1409 16000000 		.4byte	.LVL593
 15752 140d 0100     		.2byte	0x1
 15753 140f 50       		.byte	0x50
 15754 1410 16000000 		.4byte	.LVL593
 15755 1414 22000000 		.4byte	.LVL594
ARM GAS  C:\Users\SDEVAS~1\AppData\Local\Temp\ccPhqTSe.s 			page 300


 15756 1418 0500     		.2byte	0x5
 15757 141a 03       		.byte	0x3
 15758 141b 38010000 		.4byte	comm+312
 15759 141f 22000000 		.4byte	.LVL594
 15760 1423 24000000 		.4byte	.LVL595
 15761 1427 0100     		.2byte	0x1
 15762 1429 50       		.byte	0x50
 15763 142a 24000000 		.4byte	.LVL595
 15764 142e 2E000000 		.4byte	.LVL596
 15765 1432 0500     		.2byte	0x5
 15766 1434 03       		.byte	0x3
 15767 1435 38010000 		.4byte	comm+312
 15768 1439 2E000000 		.4byte	.LVL596
 15769 143d 48000000 		.4byte	.LFE57
 15770 1441 0400     		.2byte	0x4
 15771 1443 F3       		.byte	0xf3
 15772 1444 01       		.uleb128 0x1
 15773 1445 50       		.byte	0x50
 15774 1446 9F       		.byte	0x9f
 15775 1447 00000000 		.4byte	0
 15776 144b 00000000 		.4byte	0
 15777              	.LLST72:
 15778 144f 00000000 		.4byte	.LVL590
 15779 1453 12000000 		.4byte	.LVL592
 15780 1457 0100     		.2byte	0x1
 15781 1459 51       		.byte	0x51
 15782 145a 12000000 		.4byte	.LVL592
 15783 145e 22000000 		.4byte	.LVL594
 15784 1462 0500     		.2byte	0x5
 15785 1464 03       		.byte	0x3
 15786 1465 3C010000 		.4byte	comm+316
 15787 1469 22000000 		.4byte	.LVL594
 15788 146d 24000000 		.4byte	.LVL595
 15789 1471 0100     		.2byte	0x1
 15790 1473 51       		.byte	0x51
 15791 1474 24000000 		.4byte	.LVL595
 15792 1478 2E000000 		.4byte	.LVL596
 15793 147c 0500     		.2byte	0x5
 15794 147e 03       		.byte	0x3
 15795 147f 3C010000 		.4byte	comm+316
 15796 1483 2E000000 		.4byte	.LVL596
 15797 1487 48000000 		.4byte	.LFE57
 15798 148b 0400     		.2byte	0x4
 15799 148d F3       		.byte	0xf3
 15800 148e 01       		.uleb128 0x1
 15801 148f 51       		.byte	0x51
 15802 1490 9F       		.byte	0x9f
 15803 1491 00000000 		.4byte	0
 15804 1495 00000000 		.4byte	0
 15805              	.LLST73:
 15806 1499 00000000 		.4byte	.LVL590
 15807 149d 30000000 		.4byte	.LVL597
 15808 14a1 0100     		.2byte	0x1
 15809 14a3 52       		.byte	0x52
 15810 14a4 30000000 		.4byte	.LVL597
 15811 14a8 32000000 		.4byte	.LVL598
 15812 14ac 0200     		.2byte	0x2
ARM GAS  C:\Users\SDEVAS~1\AppData\Local\Temp\ccPhqTSe.s 			page 301


 15813 14ae 70       		.byte	0x70
 15814 14af 00       		.sleb128 0
 15815 14b0 32000000 		.4byte	.LVL598
 15816 14b4 48000000 		.4byte	.LFE57
 15817 14b8 0400     		.2byte	0x4
 15818 14ba F3       		.byte	0xf3
 15819 14bb 01       		.uleb128 0x1
 15820 14bc 52       		.byte	0x52
 15821 14bd 9F       		.byte	0x9f
 15822 14be 00000000 		.4byte	0
 15823 14c2 00000000 		.4byte	0
 15824              	.LLST74:
 15825 14c6 00000000 		.4byte	.LVL590
 15826 14ca 37000000 		.4byte	.LVL599-1
 15827 14ce 0100     		.2byte	0x1
 15828 14d0 53       		.byte	0x53
 15829 14d1 37000000 		.4byte	.LVL599-1
 15830 14d5 48000000 		.4byte	.LFE57
 15831 14d9 0400     		.2byte	0x4
 15832 14db F3       		.byte	0xf3
 15833 14dc 01       		.uleb128 0x1
 15834 14dd 53       		.byte	0x53
 15835 14de 9F       		.byte	0x9f
 15836 14df 00000000 		.4byte	0
 15837 14e3 00000000 		.4byte	0
 15838              	.LLST75:
 15839 14e7 10000000 		.4byte	.LVL591
 15840 14eb 22000000 		.4byte	.LVL594
 15841 14ef 0100     		.2byte	0x1
 15842 14f1 53       		.byte	0x53
 15843 14f2 00000000 		.4byte	0
 15844 14f6 00000000 		.4byte	0
 15845              	.LLST76:
 15846 14fa 10000000 		.4byte	.LVL591
 15847 14fe 22000000 		.4byte	.LVL594
 15848 1502 0100     		.2byte	0x1
 15849 1504 52       		.byte	0x52
 15850 1505 00000000 		.4byte	0
 15851 1509 00000000 		.4byte	0
 15852              	.LLST77:
 15853 150d 78000000 		.4byte	.LVL604
 15854 1511 84000000 		.4byte	.LVL606
 15855 1515 0100     		.2byte	0x1
 15856 1517 50       		.byte	0x50
 15857 1518 84000000 		.4byte	.LVL606
 15858 151c 4C010000 		.4byte	.LVL623
 15859 1520 0200     		.2byte	0x2
 15860 1522 91       		.byte	0x91
 15861 1523 64       		.sleb128 -28
 15862 1524 5E010000 		.4byte	.LVL625
 15863 1528 6E010000 		.4byte	.LVL626
 15864 152c 0200     		.2byte	0x2
 15865 152e 91       		.byte	0x91
 15866 152f 64       		.sleb128 -28
 15867 1530 00000000 		.4byte	0
 15868 1534 00000000 		.4byte	0
 15869              	.LLST78:
ARM GAS  C:\Users\SDEVAS~1\AppData\Local\Temp\ccPhqTSe.s 			page 302


 15870 1538 7C000000 		.4byte	.LVL605
 15871 153c 1A010000 		.4byte	.LVL621
 15872 1540 0200     		.2byte	0x2
 15873 1542 30       		.byte	0x30
 15874 1543 9F       		.byte	0x9f
 15875 1544 1A010000 		.4byte	.LVL621
 15876 1548 1F010000 		.4byte	.LVL622-1
 15877 154c 0100     		.2byte	0x1
 15878 154e 50       		.byte	0x50
 15879 154f 1F010000 		.4byte	.LVL622-1
 15880 1553 4C010000 		.4byte	.LVL623
 15881 1557 0100     		.2byte	0x1
 15882 1559 54       		.byte	0x54
 15883 155a 00000000 		.4byte	0
 15884 155e 00000000 		.4byte	0
 15885              	.LLST79:
 15886 1562 94000000 		.4byte	.LVL608
 15887 1566 A0000000 		.4byte	.LVL610
 15888 156a 0200     		.2byte	0x2
 15889 156c 91       		.byte	0x91
 15890 156d 64       		.sleb128 -28
 15891 156e 00000000 		.4byte	0
 15892 1572 00000000 		.4byte	0
 15893              	.LLST80:
 15894 1576 94000000 		.4byte	.LVL608
 15895 157a A0000000 		.4byte	.LVL610
 15896 157e 0600     		.2byte	0x6
 15897 1580 03       		.byte	0x3
 15898 1581 00000000 		.4byte	tokens
 15899 1585 9F       		.byte	0x9f
 15900 1586 00000000 		.4byte	0
 15901 158a 00000000 		.4byte	0
 15902              	.LLST81:
 15903 158e 94000000 		.4byte	.LVL608
 15904 1592 9D000000 		.4byte	.LVL609-1
 15905 1596 0500     		.2byte	0x5
 15906 1598 03       		.byte	0x3
 15907 1599 30000000 		.4byte	payloadLen
 15908 159d 00000000 		.4byte	0
 15909 15a1 00000000 		.4byte	0
 15910              	.LLST82:
 15911 15a5 94000000 		.4byte	.LVL608
 15912 15a9 9D000000 		.4byte	.LVL609-1
 15913 15ad 0100     		.2byte	0x1
 15914 15af 50       		.byte	0x50
 15915 15b0 00000000 		.4byte	0
 15916 15b4 00000000 		.4byte	0
 15917              	.LLST83:
 15918 15b8 94000000 		.4byte	.LVL608
 15919 15bc 9D000000 		.4byte	.LVL609-1
 15920 15c0 0500     		.2byte	0x5
 15921 15c2 03       		.byte	0x3
 15922 15c3 14000000 		.4byte	flags
 15923 15c7 00000000 		.4byte	0
 15924 15cb 00000000 		.4byte	0
 15925              	.LLST84:
 15926 15cf CE000000 		.4byte	.LVL614
ARM GAS  C:\Users\SDEVAS~1\AppData\Local\Temp\ccPhqTSe.s 			page 303


 15927 15d3 DA000000 		.4byte	.LVL616
 15928 15d7 0200     		.2byte	0x2
 15929 15d9 91       		.byte	0x91
 15930 15da 64       		.sleb128 -28
 15931 15db 00000000 		.4byte	0
 15932 15df 00000000 		.4byte	0
 15933              	.LLST85:
 15934 15e3 CE000000 		.4byte	.LVL614
 15935 15e7 DA000000 		.4byte	.LVL616
 15936 15eb 0600     		.2byte	0x6
 15937 15ed 03       		.byte	0x3
 15938 15ee 00000000 		.4byte	tokens
 15939 15f2 9F       		.byte	0x9f
 15940 15f3 00000000 		.4byte	0
 15941 15f7 00000000 		.4byte	0
 15942              	.LLST86:
 15943 15fb CE000000 		.4byte	.LVL614
 15944 15ff D7000000 		.4byte	.LVL615-1
 15945 1603 0500     		.2byte	0x5
 15946 1605 03       		.byte	0x3
 15947 1606 30000000 		.4byte	payloadLen
 15948 160a 00000000 		.4byte	0
 15949 160e 00000000 		.4byte	0
 15950              	.LLST87:
 15951 1612 CE000000 		.4byte	.LVL614
 15952 1616 D7000000 		.4byte	.LVL615-1
 15953 161a 0500     		.2byte	0x5
 15954 161c 03       		.byte	0x3
 15955 161d 0C000000 		.4byte	payload
 15956 1621 00000000 		.4byte	0
 15957 1625 00000000 		.4byte	0
 15958              	.LLST88:
 15959 1629 CE000000 		.4byte	.LVL614
 15960 162d D7000000 		.4byte	.LVL615-1
 15961 1631 0500     		.2byte	0x5
 15962 1633 03       		.byte	0x3
 15963 1634 14000000 		.4byte	flags
 15964 1638 00000000 		.4byte	0
 15965 163c 00000000 		.4byte	0
 15966              	.LLST89:
 15967 1640 10020000 		.4byte	.LVL631
 15968 1644 44020000 		.4byte	.LVL637
 15969 1648 0200     		.2byte	0x2
 15970 164a 30       		.byte	0x30
 15971 164b 9F       		.byte	0x9f
 15972 164c 44020000 		.4byte	.LVL637
 15973 1650 48020000 		.4byte	.LVL638
 15974 1654 0100     		.2byte	0x1
 15975 1656 50       		.byte	0x50
 15976 1657 48020000 		.4byte	.LVL638
 15977 165b 58020000 		.4byte	.LVL640
 15978 165f 0200     		.2byte	0x2
 15979 1661 30       		.byte	0x30
 15980 1662 9F       		.byte	0x9f
 15981 1663 58020000 		.4byte	.LVL640
 15982 1667 5B020000 		.4byte	.LVL641-1
 15983 166b 0100     		.2byte	0x1
ARM GAS  C:\Users\SDEVAS~1\AppData\Local\Temp\ccPhqTSe.s 			page 304


 15984 166d 50       		.byte	0x50
 15985 166e 5B020000 		.4byte	.LVL641-1
 15986 1672 7E020000 		.4byte	.LVL642
 15987 1676 0100     		.2byte	0x1
 15988 1678 56       		.byte	0x56
 15989 1679 00000000 		.4byte	0
 15990 167d 00000000 		.4byte	0
 15991              	.LLST90:
 15992 1681 3E020000 		.4byte	.LVL635
 15993 1685 48020000 		.4byte	.LVL638
 15994 1689 0200     		.2byte	0x2
 15995 168b 30       		.byte	0x30
 15996 168c 9F       		.byte	0x9f
 15997 168d 58020000 		.4byte	.LVL640
 15998 1691 92020000 		.4byte	.LVL644
 15999 1695 0200     		.2byte	0x2
 16000 1697 30       		.byte	0x30
 16001 1698 9F       		.byte	0x9f
 16002 1699 00000000 		.4byte	0
 16003 169d 00000000 		.4byte	0
 16004              		.section	.debug_aranges,"",%progbits
 16005 0000 F4000000 		.4byte	0xf4
 16006 0004 0200     		.2byte	0x2
 16007 0006 00000000 		.4byte	.Ldebug_info0
 16008 000a 04       		.byte	0x4
 16009 000b 00       		.byte	0
 16010 000c 0000     		.2byte	0
 16011 000e 0000     		.2byte	0
 16012 0010 00000000 		.4byte	.LFB38
 16013 0014 22000000 		.4byte	.LFE38-.LFB38
 16014 0018 00000000 		.4byte	.LFB48
 16015 001c 14000000 		.4byte	.LFE48-.LFB48
 16016 0020 00000000 		.4byte	.LFB49
 16017 0024 14000000 		.4byte	.LFE49-.LFB49
 16018 0028 00000000 		.4byte	.LFB50
 16019 002c 1C000000 		.4byte	.LFE50-.LFB50
 16020 0030 00000000 		.4byte	.LFB52
 16021 0034 10000000 		.4byte	.LFE52-.LFB52
 16022 0038 00000000 		.4byte	.LFB53
 16023 003c 10000000 		.4byte	.LFE53-.LFB53
 16024 0040 00000000 		.4byte	.LFB54
 16025 0044 10000000 		.4byte	.LFE54-.LFB54
 16026 0048 00000000 		.4byte	.LFB55
 16027 004c 10000000 		.4byte	.LFE55-.LFB55
 16028 0050 00000000 		.4byte	.LFB39
 16029 0054 B0000000 		.4byte	.LFE39-.LFB39
 16030 0058 00000000 		.4byte	.LFB37
 16031 005c 26000000 		.4byte	.LFE37-.LFB37
 16032 0060 00000000 		.4byte	.LFB35
 16033 0064 04030000 		.4byte	.LFE35-.LFB35
 16034 0068 00000000 		.4byte	.LFB36
 16035 006c 5C000000 		.4byte	.LFE36-.LFB36
 16036 0070 00000000 		.4byte	.LFB51
 16037 0074 12000000 		.4byte	.LFE51-.LFB51
 16038 0078 00000000 		.4byte	.LFB58
 16039 007c 3C000000 		.4byte	.LFE58-.LFB58
 16040 0080 00000000 		.4byte	.LFB61
ARM GAS  C:\Users\SDEVAS~1\AppData\Local\Temp\ccPhqTSe.s 			page 305


 16041 0084 94050000 		.4byte	.LFE61-.LFB61
 16042 0088 00000000 		.4byte	.LFB62
 16043 008c B0050000 		.4byte	.LFE62-.LFB62
 16044 0090 00000000 		.4byte	.LFB63
 16045 0094 44000000 		.4byte	.LFE63-.LFB63
 16046 0098 00000000 		.4byte	.LFB64
 16047 009c 28000000 		.4byte	.LFE64-.LFB64
 16048 00a0 00000000 		.4byte	.LFB40
 16049 00a4 B4000000 		.4byte	.LFE40-.LFB40
 16050 00a8 00000000 		.4byte	.LFB41
 16051 00ac 74020000 		.4byte	.LFE41-.LFB41
 16052 00b0 00000000 		.4byte	.LFB42
 16053 00b4 14000000 		.4byte	.LFE42-.LFB42
 16054 00b8 00000000 		.4byte	.LFB43
 16055 00bc 16000000 		.4byte	.LFE43-.LFB43
 16056 00c0 00000000 		.4byte	.LFB44
 16057 00c4 10000000 		.4byte	.LFE44-.LFB44
 16058 00c8 00000000 		.4byte	.LFB45
 16059 00cc 4C000000 		.4byte	.LFE45-.LFB45
 16060 00d0 00000000 		.4byte	.LFB46
 16061 00d4 48000000 		.4byte	.LFE46-.LFB46
 16062 00d8 00000000 		.4byte	.LFB56
 16063 00dc 58000000 		.4byte	.LFE56-.LFB56
 16064 00e0 00000000 		.4byte	.LFB57
 16065 00e4 48000000 		.4byte	.LFE57-.LFB57
 16066 00e8 00000000 		.4byte	.LFB59
 16067 00ec EC020000 		.4byte	.LFE59-.LFB59
 16068 00f0 00000000 		.4byte	0
 16069 00f4 00000000 		.4byte	0
 16070              		.section	.debug_ranges,"",%progbits
 16071              	.Ldebug_ranges0:
 16072 0000 02000000 		.4byte	.LBB21
 16073 0004 10000000 		.4byte	.LBE21
 16074 0008 12000000 		.4byte	.LBB22
 16075 000c 18000000 		.4byte	.LBE22
 16076 0010 18000000 		.4byte	.LBB23
 16077 0014 1C000000 		.4byte	.LBE23
 16078 0018 00000000 		.4byte	0
 16079 001c 00000000 		.4byte	0
 16080 0020 18000000 		.4byte	.LBB26
 16081 0024 1A000000 		.4byte	.LBE26
 16082 0028 1E000000 		.4byte	.LBB29
 16083 002c 7A000000 		.4byte	.LBE29
 16084 0030 00000000 		.4byte	0
 16085 0034 00000000 		.4byte	0
 16086 0038 70000000 		.4byte	.LBB33
 16087 003c 0A010000 		.4byte	.LBE33
 16088 0040 28020000 		.4byte	.LBB36
 16089 0044 2C020000 		.4byte	.LBE36
 16090 0048 00000000 		.4byte	0
 16091 004c 00000000 		.4byte	0
 16092 0050 90000000 		.4byte	.LBB63
 16093 0054 92000000 		.4byte	.LBE63
 16094 0058 94000000 		.4byte	.LBB66
 16095 005c A0000000 		.4byte	.LBE66
 16096 0060 00000000 		.4byte	0
 16097 0064 00000000 		.4byte	0
ARM GAS  C:\Users\SDEVAS~1\AppData\Local\Temp\ccPhqTSe.s 			page 306


 16098 0068 00000000 		.4byte	.LFB38
 16099 006c 22000000 		.4byte	.LFE38
 16100 0070 00000000 		.4byte	.LFB48
 16101 0074 14000000 		.4byte	.LFE48
 16102 0078 00000000 		.4byte	.LFB49
 16103 007c 14000000 		.4byte	.LFE49
 16104 0080 00000000 		.4byte	.LFB50
 16105 0084 1C000000 		.4byte	.LFE50
 16106 0088 00000000 		.4byte	.LFB52
 16107 008c 10000000 		.4byte	.LFE52
 16108 0090 00000000 		.4byte	.LFB53
 16109 0094 10000000 		.4byte	.LFE53
 16110 0098 00000000 		.4byte	.LFB54
 16111 009c 10000000 		.4byte	.LFE54
 16112 00a0 00000000 		.4byte	.LFB55
 16113 00a4 10000000 		.4byte	.LFE55
 16114 00a8 00000000 		.4byte	.LFB39
 16115 00ac B0000000 		.4byte	.LFE39
 16116 00b0 00000000 		.4byte	.LFB37
 16117 00b4 26000000 		.4byte	.LFE37
 16118 00b8 00000000 		.4byte	.LFB35
 16119 00bc 04030000 		.4byte	.LFE35
 16120 00c0 00000000 		.4byte	.LFB36
 16121 00c4 5C000000 		.4byte	.LFE36
 16122 00c8 00000000 		.4byte	.LFB51
 16123 00cc 12000000 		.4byte	.LFE51
 16124 00d0 00000000 		.4byte	.LFB58
 16125 00d4 3C000000 		.4byte	.LFE58
 16126 00d8 00000000 		.4byte	.LFB61
 16127 00dc 94050000 		.4byte	.LFE61
 16128 00e0 00000000 		.4byte	.LFB62
 16129 00e4 B0050000 		.4byte	.LFE62
 16130 00e8 00000000 		.4byte	.LFB63
 16131 00ec 44000000 		.4byte	.LFE63
 16132 00f0 00000000 		.4byte	.LFB64
 16133 00f4 28000000 		.4byte	.LFE64
 16134 00f8 00000000 		.4byte	.LFB40
 16135 00fc B4000000 		.4byte	.LFE40
 16136 0100 00000000 		.4byte	.LFB41
 16137 0104 74020000 		.4byte	.LFE41
 16138 0108 00000000 		.4byte	.LFB42
 16139 010c 14000000 		.4byte	.LFE42
 16140 0110 00000000 		.4byte	.LFB43
 16141 0114 16000000 		.4byte	.LFE43
 16142 0118 00000000 		.4byte	.LFB44
 16143 011c 10000000 		.4byte	.LFE44
 16144 0120 00000000 		.4byte	.LFB45
 16145 0124 4C000000 		.4byte	.LFE45
 16146 0128 00000000 		.4byte	.LFB46
 16147 012c 48000000 		.4byte	.LFE46
 16148 0130 00000000 		.4byte	.LFB56
 16149 0134 58000000 		.4byte	.LFE56
 16150 0138 00000000 		.4byte	.LFB57
 16151 013c 48000000 		.4byte	.LFE57
 16152 0140 00000000 		.4byte	.LFB59
 16153 0144 EC020000 		.4byte	.LFE59
 16154 0148 00000000 		.4byte	0
ARM GAS  C:\Users\SDEVAS~1\AppData\Local\Temp\ccPhqTSe.s 			page 307


 16155 014c 00000000 		.4byte	0
 16156              		.section	.debug_line,"",%progbits
 16157              	.Ldebug_line0:
 16158 0000 5B060000 		.section	.debug_str,"MS",%progbits,1
 16158      02001802 
 16158      00000201 
 16158      FB0E0D00 
 16158      01010101 
 16159              	.LASF153:
 16160 0000 636F6D70 		.ascii	"compKey\000"
 16160      4B657900 
 16161              	.LASF288:
 16162 0008 636F6D6D 		.ascii	"comm_RS485_SendFrame\000"
 16162      5F525334 
 16162      38355F53 
 16162      656E6446 
 16162      72616D65 
 16163              	.LASF66:
 16164 001d 434F4D4D 		.ascii	"COMM_FLAG_ACK\000"
 16164      5F464C41 
 16164      475F4143 
 16164      4B00
 16165              	.LASF136:
 16166 002b 636F6D6D 		.ascii	"comm_handle_Mode\000"
 16166      5F68616E 
 16166      646C655F 
 16166      4D6F6465 
 16166      00
 16167              	.LASF233:
 16168 003c 67657476 		.ascii	"getvar_squareMeters\000"
 16168      61725F73 
 16168      71756172 
 16168      654D6574 
 16168      65727300 
 16169              	.LASF49:
 16170 0050 53454E54 		.ascii	"SENT\000"
 16170      00
 16171              	.LASF135:
 16172 0055 636F6D6D 		.ascii	"comm_handle_Info\000"
 16172      5F68616E 
 16172      646C655F 
 16172      496E666F 
 16172      00
 16173              	.LASF148:
 16174 0066 64657374 		.ascii	"destLen\000"
 16174      4C656E00 
 16175              	.LASF249:
 16176 006e 73657476 		.ascii	"setvar_lastStartFlow\000"
 16176      61725F6C 
 16176      61737453 
 16176      74617274 
 16176      466C6F77 
 16177              	.LASF197:
 16178 0083 53797354 		.ascii	"SysTimer_GetTicks\000"
 16178      696D6572 
 16178      5F476574 
 16178      5469636B 
ARM GAS  C:\Users\SDEVAS~1\AppData\Local\Temp\ccPhqTSe.s 			page 308


 16178      7300
 16179              	.LASF193:
 16180 0095 7374726E 		.ascii	"strncmp\000"
 16180      636D7000 
 16181              	.LASF182:
 16182 009d 70617273 		.ascii	"parser\000"
 16182      657200
 16183              	.LASF139:
 16184 00a4 62795768 		.ascii	"byWho\000"
 16184      6F00
 16185              	.LASF116:
 16186 00aa 61746F6D 		.ascii	"atom_variables_id_t\000"
 16186      5F766172 
 16186      6961626C 
 16186      65735F69 
 16186      645F7400 
 16187              	.LASF58:
 16188 00be 666C6167 		.ascii	"flags\000"
 16188      7300
 16189              	.LASF119:
 16190 00c4 4A534F4E 		.ascii	"JSON_MSG_INVALID_DESTINATION\000"
 16190      5F4D5347 
 16190      5F494E56 
 16190      414C4944 
 16190      5F444553 
 16191              	.LASF113:
 16192 00e1 41544F4D 		.ascii	"ATOM_VARIABLE_cropType\000"
 16192      5F564152 
 16192      4941424C 
 16192      455F6372 
 16192      6F705479 
 16193              	.LASF155:
 16194 00f8 6765745F 		.ascii	"get_atom_variable_id_from_string\000"
 16194      61746F6D 
 16194      5F766172 
 16194      6961626C 
 16194      655F6964 
 16195              	.LASF85:
 16196 0119 41544F4D 		.ascii	"ATOM_VARIABLE_valveStatus\000"
 16196      5F564152 
 16196      4941424C 
 16196      455F7661 
 16196      6C766553 
 16197              	.LASF47:
 16198 0133 6A736D6E 		.ascii	"jsmn_parser\000"
 16198      5F706172 
 16198      73657200 
 16199              	.LASF215:
 16200 013f 67657476 		.ascii	"getvar_minVol\000"
 16200      61725F6D 
 16200      696E566F 
 16200      6C00
 16201              	.LASF8:
 16202 014d 756E7369 		.ascii	"unsigned int\000"
 16202      676E6564 
 16202      20696E74 
 16202      00
ARM GAS  C:\Users\SDEVAS~1\AppData\Local\Temp\ccPhqTSe.s 			page 309


 16203              	.LASF84:
 16204 015a 41544F4D 		.ascii	"ATOM_VARIABLE_totalVolume\000"
 16204      5F564152 
 16204      4941424C 
 16204      455F746F 
 16204      74616C56 
 16205              	.LASF152:
 16206 0174 736B6970 		.ascii	"skipToNextTokenInLevel\000"
 16206      546F4E65 
 16206      7874546F 
 16206      6B656E49 
 16206      6E4C6576 
 16207              	.LASF133:
 16208 018b 76616C75 		.ascii	"valueLen\000"
 16208      654C656E 
 16208      00
 16209              	.LASF291:
 16210 0194 474E5520 		.ascii	"GNU C 4.8.4 20140526 (release) [ARM/embedded-4_8-br"
 16210      4320342E 
 16210      382E3420 
 16210      32303134 
 16210      30353236 
 16211 01c7 616E6368 		.ascii	"anch revision 211358] -mcpu=cortex-m0 -mthumb -g -O"
 16211      20726576 
 16211      6973696F 
 16211      6E203231 
 16211      31333538 
 16212 01fa 73202D66 		.ascii	"s -ffunction-sections\000"
 16212      66756E63 
 16212      74696F6E 
 16212      2D736563 
 16212      74696F6E 
 16213              	.LASF18:
 16214 0210 636F6D6D 		.ascii	"comm_RS485_wake_callback\000"
 16214      5F525334 
 16214      38355F77 
 16214      616B655F 
 16214      63616C6C 
 16215              	.LASF118:
 16216 0229 4A534F4E 		.ascii	"JSON_MSG_PARSE_FAILED\000"
 16216      5F4D5347 
 16216      5F504152 
 16216      53455F46 
 16216      41494C45 
 16217              	.LASF287:
 16218 023f 636F6D6D 		.ascii	"comm_RS485_RequestBus\000"
 16218      5F525334 
 16218      38355F52 
 16218      65717565 
 16218      73744275 
 16219              	.LASF26:
 16220 0255 636F6D6D 		.ascii	"comm_RS485_bus_granted_callback\000"
 16220      5F525334 
 16220      38355F62 
 16220      75735F67 
 16220      72616E74 
 16221              	.LASF92:
ARM GAS  C:\Users\SDEVAS~1\AppData\Local\Temp\ccPhqTSe.s 			page 310


 16222 0275 41544F4D 		.ascii	"ATOM_VARIABLE_volPerStart\000"
 16222      5F564152 
 16222      4941424C 
 16222      455F766F 
 16222      6C506572 
 16223              	.LASF70:
 16224 028f 636F6D6D 		.ascii	"comm_flags_t\000"
 16224      5F666C61 
 16224      67735F74 
 16224      00
 16225              	.LASF72:
 16226 029c 41544F4D 		.ascii	"ATOM_MODE_Test\000"
 16226      5F4D4F44 
 16226      455F5465 
 16226      737400
 16227              	.LASF146:
 16228 02ab 72733438 		.ascii	"rs485_bus_released_callback\000"
 16228      355F6275 
 16228      735F7265 
 16228      6C656173 
 16228      65645F63 
 16229              	.LASF38:
 16230 02c7 4A534D4E 		.ascii	"JSMN_ERROR_INVAL\000"
 16230      5F455252 
 16230      4F525F49 
 16230      4E56414C 
 16230      00
 16231              	.LASF162:
 16232 02d8 73747232 		.ascii	"str2flag\000"
 16232      666C6167 
 16232      00
 16233              	.LASF238:
 16234 02e1 73657476 		.ascii	"setvar_sleepPeriod\000"
 16234      61725F73 
 16234      6C656570 
 16234      50657269 
 16234      6F6400
 16235              	.LASF44:
 16236 02f4 6A736D6E 		.ascii	"jsmntok_t\000"
 16236      746F6B5F 
 16236      7400
 16237              	.LASF34:
 16238 02fe 4A534D4E 		.ascii	"JSMN_ARRAY\000"
 16238      5F415252 
 16238      415900
 16239              	.LASF167:
 16240 0309 636F6D6D 		.ascii	"comm_Init\000"
 16240      5F496E69 
 16240      7400
 16241              	.LASF217:
 16242 0313 67657476 		.ascii	"getvar_fertigationTable1\000"
 16242      61725F66 
 16242      65727469 
 16242      67617469 
 16242      6F6E5461 
 16243              	.LASF218:
 16244 032c 67657476 		.ascii	"getvar_fertigationTable2\000"
ARM GAS  C:\Users\SDEVAS~1\AppData\Local\Temp\ccPhqTSe.s 			page 311


 16244      61725F66 
 16244      65727469 
 16244      67617469 
 16244      6F6E5461 
 16245              	.LASF76:
 16246 0345 494E5641 		.ascii	"INVALID_ATOM_MODE\000"
 16246      4C49445F 
 16246      41544F4D 
 16246      5F4D4F44 
 16246      4500
 16247              	.LASF283:
 16248 0357 636F6D6D 		.ascii	"comm_RS485_SetCallbackOnSlaveReceive\000"
 16248      5F525334 
 16248      38355F53 
 16248      65744361 
 16248      6C6C6261 
 16249              	.LASF23:
 16250 037c 636F6D6D 		.ascii	"comm_RS485_address\000"
 16250      5F525334 
 16250      38355F61 
 16250      64647265 
 16250      737300
 16251              	.LASF227:
 16252 038f 67657476 		.ascii	"getvar_notBefore\000"
 16252      61725F6E 
 16252      6F744265 
 16252      666F7265 
 16252      00
 16253              	.LASF114:
 16254 03a0 4E554D5F 		.ascii	"NUM_OF_ATOM_VARIABLES\000"
 16254      4F465F41 
 16254      544F4D5F 
 16254      56415249 
 16254      41424C45 
 16255              	.LASF172:
 16256 03b6 636F6D6D 		.ascii	"comm_Handler\000"
 16256      5F48616E 
 16256      646C6572 
 16256      00
 16257              	.LASF289:
 16258 03c3 636F6D6D 		.ascii	"comm_RS485_SelectSlave\000"
 16258      5F525334 
 16258      38355F53 
 16258      656C6563 
 16258      74536C61 
 16259              	.LASF121:
 16260 03da 4A534F4E 		.ascii	"JSON_MSG_GETSET_INVALID_VARIABLE\000"
 16260      5F4D5347 
 16260      5F474554 
 16260      5345545F 
 16260      494E5641 
 16261              	.LASF62:
 16262 03fb 73636865 		.ascii	"schedAddr\000"
 16262      64416464 
 16262      7200
 16263              	.LASF141:
 16264 0405 72733438 		.ascii	"rs485_receive_callback\000"
ARM GAS  C:\Users\SDEVAS~1\AppData\Local\Temp\ccPhqTSe.s 			page 312


 16264      355F7265 
 16264      63656976 
 16264      655F6361 
 16264      6C6C6261 
 16265              	.LASF203:
 16266 041c 67657476 		.ascii	"getvar_outerPressure\000"
 16266      61725F6F 
 16266      75746572 
 16266      50726573 
 16266      73757265 
 16267              	.LASF164:
 16268 0431 65787065 		.ascii	"expectedEnd\000"
 16268      63746564 
 16268      456E6400 
 16269              	.LASF52:
 16270 043d 434F4D4D 		.ascii	"COMM_STATE_IDLE\000"
 16270      5F535441 
 16270      54455F49 
 16270      444C4500 
 16271              	.LASF57:
 16272 044d 72656376 		.ascii	"recvBuff\000"
 16272      42756666 
 16272      00
 16273              	.LASF10:
 16274 0456 75696E74 		.ascii	"uint32_t\000"
 16274      33325F74 
 16274      00
 16275              	.LASF126:
 16276 045f 746F6B65 		.ascii	"tokens\000"
 16276      6E7300
 16277              	.LASF67:
 16278 0466 434F4D4D 		.ascii	"COMM_FLAG_REQ_ACK\000"
 16278      5F464C41 
 16278      475F5245 
 16278      515F4143 
 16278      4B00
 16279              	.LASF211:
 16280 0478 67657476 		.ascii	"getvar_stopTime\000"
 16280      61725F73 
 16280      746F7054 
 16280      696D6500 
 16281              	.LASF184:
 16282 0488 636F6D6D 		.ascii	"comm\000"
 16282      00
 16283              	.LASF63:
 16284 048d 636F6D6D 		.ascii	"comm_t\000"
 16284      5F7400
 16285              	.LASF213:
 16286 0494 67657476 		.ascii	"getvar_volPerStart\000"
 16286      61725F76 
 16286      6F6C5065 
 16286      72537461 
 16286      727400
 16287              	.LASF79:
 16288 04a7 41544F4D 		.ascii	"ATOM_VARIABLE_shutdownTime\000"
 16288      5F564152 
 16288      4941424C 
ARM GAS  C:\Users\SDEVAS~1\AppData\Local\Temp\ccPhqTSe.s 			page 313


 16288      455F7368 
 16288      7574646F 
 16289              	.LASF13:
 16290 04c2 666C6F61 		.ascii	"float\000"
 16290      7400
 16291              	.LASF60:
 16292 04c8 73636865 		.ascii	"schedOrder\000"
 16292      644F7264 
 16292      657200
 16293              	.LASF157:
 16294 04d3 72733438 		.ascii	"rs485_wake_callback\000"
 16294      355F7761 
 16294      6B655F63 
 16294      616C6C62 
 16294      61636B00 
 16295              	.LASF89:
 16296 04e7 41544F4D 		.ascii	"ATOM_VARIABLE_startTime\000"
 16296      5F564152 
 16296      4941424C 
 16296      455F7374 
 16296      61727454 
 16297              	.LASF243:
 16298 04ff 73657476 		.ascii	"setvar_outerPressure\000"
 16298      61725F6F 
 16298      75746572 
 16298      50726573 
 16298      73757265 
 16299              	.LASF195:
 16300 0514 736C6565 		.ascii	"sleepMgr_releaseSleep\000"
 16300      704D6772 
 16300      5F72656C 
 16300      65617365 
 16300      536C6565 
 16301              	.LASF20:
 16302 052a 636F6D6D 		.ascii	"comm_RS485_FAIL\000"
 16302      5F525334 
 16302      38355F46 
 16302      41494C00 
 16303              	.LASF7:
 16304 053a 6C6F6E67 		.ascii	"long long unsigned int\000"
 16304      206C6F6E 
 16304      6720756E 
 16304      7369676E 
 16304      65642069 
 16305              	.LASF275:
 16306 0551 73657476 		.ascii	"setvar_cropType\000"
 16306      61725F63 
 16306      726F7054 
 16306      79706500 
 16307              	.LASF237:
 16308 0561 636F6E76 		.ascii	"conv_str2i\000"
 16308      5F737472 
 16308      326900
 16309              	.LASF276:
 16310 056c 636F6D6D 		.ascii	"comm_GenerateInfo\000"
 16310      5F47656E 
 16310      65726174 
ARM GAS  C:\Users\SDEVAS~1\AppData\Local\Temp\ccPhqTSe.s 			page 314


 16310      65496E66 
 16310      6F00
 16311              	.LASF240:
 16312 057e 636F6E76 		.ascii	"conv_str2s\000"
 16312      5F737472 
 16312      327300
 16313              	.LASF181:
 16314 0589 6D736744 		.ascii	"msgDestLen\000"
 16314      6573744C 
 16314      656E00
 16315              	.LASF51:
 16316 0594 4C415354 		.ascii	"LAST_MSG\000"
 16316      5F4D5347 
 16316      00
 16317              	.LASF28:
 16318 059d 636F6D6D 		.ascii	"comm_RS485_slave_selected_callback\000"
 16318      5F525334 
 16318      38355F73 
 16318      6C617665 
 16318      5F73656C 
 16319              	.LASF244:
 16320 05c0 73657476 		.ascii	"setvar_currentFlow\000"
 16320      61725F63 
 16320      75727265 
 16320      6E74466C 
 16320      6F7700
 16321              	.LASF132:
 16322 05d3 76616C75 		.ascii	"value\000"
 16322      6500
 16323              	.LASF290:
 16324 05d9 636F6D6D 		.ascii	"comm_RS485_ReleaseBus\000"
 16324      5F525334 
 16324      38355F52 
 16324      656C6561 
 16324      73654275 
 16325              	.LASF273:
 16326 05ef 73657476 		.ascii	"setvar_squareMeters\000"
 16326      61725F73 
 16326      71756172 
 16326      654D6574 
 16326      65727300 
 16327              	.LASF176:
 16328 0603 61746F6D 		.ascii	"atom_variables_id_strings\000"
 16328      5F766172 
 16328      6961626C 
 16328      65735F69 
 16328      645F7374 
 16329              	.LASF293:
 16330 061d 443A5C55 		.ascii	"D:\\Users\\sdevasenapathy\\atoms\\AtomWorkspace\\At"
 16330      73657273 
 16330      5C736465 
 16330      76617365 
 16330      6E617061 
 16331 064b 6F6D2E63 		.ascii	"om.cydsn\000"
 16331      7964736E 
 16331      00
 16332              	.LASF123:
ARM GAS  C:\Users\SDEVAS~1\AppData\Local\Temp\ccPhqTSe.s 			page 315


 16333 0654 62756666 		.ascii	"buff\000"
 16333      00
 16334              	.LASF117:
 16335 0659 4A534F4E 		.ascii	"JSON_MSG_PARSE_OK\000"
 16335      5F4D5347 
 16335      5F504152 
 16335      53455F4F 
 16335      4B00
 16336              	.LASF178:
 16337 066b 6D736753 		.ascii	"msgSource\000"
 16337      6F757263 
 16337      6500
 16338              	.LASF267:
 16339 0675 73657476 		.ascii	"setvar_notBefore\000"
 16339      61725F6E 
 16339      6F744265 
 16339      666F7265 
 16339      00
 16340              	.LASF16:
 16341 0686 73697A65 		.ascii	"size_t\000"
 16341      5F7400
 16342              	.LASF128:
 16343 068d 61766964 		.ascii	"avid\000"
 16343      00
 16344              	.LASF124:
 16345 0692 7061796C 		.ascii	"payload\000"
 16345      6F616400 
 16346              	.LASF127:
 16347 069a 746F6B65 		.ascii	"tokensLen\000"
 16347      6E734C65 
 16347      6E00
 16348              	.LASF163:
 16349 06a4 6A736F6E 		.ascii	"json_len\000"
 16349      5F6C656E 
 16349      00
 16350              	.LASF252:
 16351 06ad 73657476 		.ascii	"setvar_numStarts\000"
 16351      61725F6E 
 16351      756D5374 
 16351      61727473 
 16351      00
 16352              	.LASF75:
 16353 06be 4E554D5F 		.ascii	"NUM_OF_ATOM_MODES\000"
 16353      4F465F41 
 16353      544F4D5F 
 16353      4D4F4445 
 16353      5300
 16354              	.LASF137:
 16355 06d0 6D6F6465 		.ascii	"mode\000"
 16355      00
 16356              	.LASF151:
 16357 06d5 6F726465 		.ascii	"orderLen\000"
 16357      724C656E 
 16357      00
 16358              	.LASF214:
 16359 06de 67657476 		.ascii	"getvar_maxVol\000"
 16359      61725F6D 
ARM GAS  C:\Users\SDEVAS~1\AppData\Local\Temp\ccPhqTSe.s 			page 316


 16359      6178566F 
 16359      6C00
 16360              	.LASF230:
 16361 06ec 67657476 		.ascii	"getvar_dilutionFactorB\000"
 16361      61725F64 
 16361      696C7574 
 16361      696F6E46 
 16361      6163746F 
 16362              	.LASF226:
 16363 0703 636F6E76 		.ascii	"conv_ia2str\000"
 16363      5F696132 
 16363      73747200 
 16364              	.LASF248:
 16365 070f 73657476 		.ascii	"setvar_lastStartVolume\000"
 16365      61725F6C 
 16365      61737453 
 16365      74617274 
 16365      566F6C75 
 16366              	.LASF96:
 16367 0726 41544F4D 		.ascii	"ATOM_VARIABLE_fertigationTable1\000"
 16367      5F564152 
 16367      4941424C 
 16367      455F6665 
 16367      72746967 
 16368              	.LASF183:
 16369 0746 73656E64 		.ascii	"sendingTicks\000"
 16369      696E6754 
 16369      69636B73 
 16369      00
 16370              	.LASF102:
 16371 0753 41544F4D 		.ascii	"ATOM_VARIABLE_fertigationTable7\000"
 16371      5F564152 
 16371      4941424C 
 16371      455F6665 
 16371      72746967 
 16372              	.LASF50:
 16373 0773 534C4156 		.ascii	"SLAVE\000"
 16373      4500
 16374              	.LASF234:
 16375 0779 67657476 		.ascii	"getvar_lPerSqMeterPerDay\000"
 16375      61725F6C 
 16375      50657253 
 16375      714D6574 
 16375      65725065 
 16376              	.LASF279:
 16377 0792 636F6D6D 		.ascii	"comm_ModeChange\000"
 16377      5F4D6F64 
 16377      65436861 
 16377      6E676500 
 16378              	.LASF80:
 16379 07a2 41544F4D 		.ascii	"ATOM_VARIABLE_test\000"
 16379      5F564152 
 16379      4941424C 
 16379      455F7465 
 16379      737400
 16380              	.LASF149:
 16381 07b5 7372634C 		.ascii	"srcLen\000"
ARM GAS  C:\Users\SDEVAS~1\AppData\Local\Temp\ccPhqTSe.s 			page 317


 16381      656E00
 16382              	.LASF187:
 16383 07bc 72657370 		.ascii	"respFreeSpace\000"
 16383      46726565 
 16383      53706163 
 16383      6500
 16384              	.LASF186:
 16385 07ca 72657370 		.ascii	"respEnd\000"
 16385      456E6400 
 16386              	.LASF24:
 16387 07d2 636F6D6D 		.ascii	"comm_RS485_receive_callback\000"
 16387      5F525334 
 16387      38355F72 
 16387      65636569 
 16387      76655F63 
 16388              	.LASF36:
 16389 07ee 6A736D6E 		.ascii	"jsmntype_t\000"
 16389      74797065 
 16389      5F7400
 16390              	.LASF130:
 16391 07f9 636F6D6D 		.ascii	"comm_handle_Set\000"
 16391      5F68616E 
 16391      646C655F 
 16391      53657400 
 16392              	.LASF208:
 16393 0809 67657476 		.ascii	"getvar_lastStartVolume\000"
 16393      61725F6C 
 16393      61737453 
 16393      74617274 
 16393      566F6C75 
 16394              	.LASF15:
 16395 0820 63686172 		.ascii	"char\000"
 16395      00
 16396              	.LASF236:
 16397 0825 636F6E76 		.ascii	"conv_i2str\000"
 16397      5F693273 
 16397      747200
 16398              	.LASF165:
 16399 0830 76616C69 		.ascii	"validateDestinationAndParse\000"
 16399      64617465 
 16399      44657374 
 16399      696E6174 
 16399      696F6E41 
 16400              	.LASF56:
 16401 084c 434F4D4D 		.ascii	"COMM_STATE_BUS_RELEASED\000"
 16401      5F535441 
 16401      54455F42 
 16401      55535F52 
 16401      454C4541 
 16402              	.LASF53:
 16403 0864 434F4D4D 		.ascii	"COMM_STATE_BUS_GRANTED\000"
 16403      5F535441 
 16403      54455F42 
 16403      55535F47 
 16403      52414E54 
 16404              	.LASF190:
 16405 087b 6D736744 		.ascii	"msgDestinationHolderAtomId\000"
ARM GAS  C:\Users\SDEVAS~1\AppData\Local\Temp\ccPhqTSe.s 			page 318


 16405      65737469 
 16405      6E617469 
 16405      6F6E486F 
 16405      6C646572 
 16406              	.LASF122:
 16407 0896 4A534F4E 		.ascii	"JSON_MSG_return_t\000"
 16407      5F4D5347 
 16407      5F726574 
 16407      75726E5F 
 16407      7400
 16408              	.LASF90:
 16409 08a8 41544F4D 		.ascii	"ATOM_VARIABLE_stopTime\000"
 16409      5F564152 
 16409      4941424C 
 16409      455F7374 
 16409      6F705469 
 16410              	.LASF150:
 16411 08bf 6F726465 		.ascii	"order\000"
 16411      7200
 16412              	.LASF74:
 16413 08c5 41544F4D 		.ascii	"ATOM_MODE_Shutdown\000"
 16413      5F4D4F44 
 16413      455F5368 
 16413      7574646F 
 16413      776E00
 16414              	.LASF198:
 16415 08d8 67657476 		.ascii	"getvar_sleepPeriod\000"
 16415      61725F73 
 16415      6C656570 
 16415      50657269 
 16415      6F6400
 16416              	.LASF30:
 16417 08eb 636F6D6D 		.ascii	"comm_RS485_selected_as_slave\000"
 16417      5F525334 
 16417      38355F73 
 16417      656C6563 
 16417      7465645F 
 16418              	.LASF216:
 16419 0908 67657476 		.ascii	"getvar_fertigationTable0\000"
 16419      61725F66 
 16419      65727469 
 16419      67617469 
 16419      6F6E5461 
 16420              	.LASF86:
 16421 0921 41544F4D 		.ascii	"ATOM_VARIABLE_lastStartNumber\000"
 16421      5F564152 
 16421      4941424C 
 16421      455F6C61 
 16421      73745374 
 16422              	.LASF68:
 16423 093f 434F4D4D 		.ascii	"COMM_FLAG_NACK\000"
 16423      5F464C41 
 16423      475F4E41 
 16423      434B00
 16424              	.LASF219:
 16425 094e 67657476 		.ascii	"getvar_fertigationTable3\000"
 16425      61725F66 
ARM GAS  C:\Users\SDEVAS~1\AppData\Local\Temp\ccPhqTSe.s 			page 319


 16425      65727469 
 16425      67617469 
 16425      6F6E5461 
 16426              	.LASF220:
 16427 0967 67657476 		.ascii	"getvar_fertigationTable4\000"
 16427      61725F66 
 16427      65727469 
 16427      67617469 
 16427      6F6E5461 
 16428              	.LASF221:
 16429 0980 67657476 		.ascii	"getvar_fertigationTable5\000"
 16429      61725F66 
 16429      65727469 
 16429      67617469 
 16429      6F6E5461 
 16430              	.LASF222:
 16431 0999 67657476 		.ascii	"getvar_fertigationTable6\000"
 16431      61725F66 
 16431      65727469 
 16431      67617469 
 16431      6F6E5461 
 16432              	.LASF223:
 16433 09b2 67657476 		.ascii	"getvar_fertigationTable7\000"
 16433      61725F66 
 16433      65727469 
 16433      67617469 
 16433      6F6E5461 
 16434              	.LASF224:
 16435 09cb 67657476 		.ascii	"getvar_fertigationTable8\000"
 16435      61725F66 
 16435      65727469 
 16435      67617469 
 16435      6F6E5461 
 16436              	.LASF225:
 16437 09e4 67657476 		.ascii	"getvar_fertigationTable9\000"
 16437      61725F66 
 16437      65727469 
 16437      67617469 
 16437      6F6E5461 
 16438              	.LASF144:
 16439 09fd 72733438 		.ascii	"rs485_slave_selected_callback\000"
 16439      355F736C 
 16439      6176655F 
 16439      73656C65 
 16439      63746564 
 16440              	.LASF64:
 16441 0a1b 434F4D4D 		.ascii	"COMM_FLAG_UNKNOWN\000"
 16441      5F464C41 
 16441      475F554E 
 16441      4B4E4F57 
 16441      4E00
 16442              	.LASF204:
 16443 0a2d 67657476 		.ascii	"getvar_currentFlow\000"
 16443      61725F63 
 16443      75727265 
 16443      6E74466C 
 16443      6F7700
ARM GAS  C:\Users\SDEVAS~1\AppData\Local\Temp\ccPhqTSe.s 			page 320


 16444              	.LASF196:
 16445 0a40 636F6D6D 		.ascii	"comm_RS485_ReleaseSlave\000"
 16445      5F525334 
 16445      38355F52 
 16445      656C6561 
 16445      7365536C 
 16446              	.LASF166:
 16447 0a58 636F6D6D 		.ascii	"comm_handle_Status\000"
 16447      5F68616E 
 16447      646C655F 
 16447      53746174 
 16447      757300
 16448              	.LASF169:
 16449 0a6b 61746F6D 		.ascii	"atomType\000"
 16449      54797065 
 16449      00
 16450              	.LASF93:
 16451 0a74 41544F4D 		.ascii	"ATOM_VARIABLE_maxVol\000"
 16451      5F564152 
 16451      4941424C 
 16451      455F6D61 
 16451      78566F6C 
 16452              	.LASF6:
 16453 0a89 6C6F6E67 		.ascii	"long long int\000"
 16453      206C6F6E 
 16453      6720696E 
 16453      7400
 16454              	.LASF33:
 16455 0a97 4A534D4E 		.ascii	"JSMN_OBJECT\000"
 16455      5F4F424A 
 16455      45435400 
 16456              	.LASF269:
 16457 0aa3 73657476 		.ascii	"setvar_dilutionFactorA\000"
 16457      61725F64 
 16457      696C7574 
 16457      696F6E46 
 16457      6163746F 
 16458              	.LASF270:
 16459 0aba 73657476 		.ascii	"setvar_dilutionFactorB\000"
 16459      61725F64 
 16459      696C7574 
 16459      696F6E46 
 16459      6163746F 
 16460              	.LASF271:
 16461 0ad1 73657476 		.ascii	"setvar_venturiSuctionA\000"
 16461      61725F76 
 16461      656E7475 
 16461      72695375 
 16461      6374696F 
 16462              	.LASF272:
 16463 0ae8 73657476 		.ascii	"setvar_venturiSuctionB\000"
 16463      61725F76 
 16463      656E7475 
 16463      72695375 
 16463      6374696F 
 16464              	.LASF251:
 16465 0aff 73657476 		.ascii	"setvar_stopTime\000"
ARM GAS  C:\Users\SDEVAS~1\AppData\Local\Temp\ccPhqTSe.s 			page 321


 16465      61725F73 
 16465      746F7054 
 16465      696D6500 
 16466              	.LASF143:
 16467 0b0f 72733438 		.ascii	"rs485_bus_granted_callback\000"
 16467      355F6275 
 16467      735F6772 
 16467      616E7465 
 16467      645F6361 
 16468              	.LASF274:
 16469 0b2a 73657476 		.ascii	"setvar_lPerSqMeterPerDay\000"
 16469      61725F6C 
 16469      50657253 
 16469      714D6574 
 16469      65725065 
 16470              	.LASF160:
 16471 0b43 72657370 		.ascii	"resp_AddFlags\000"
 16471      5F416464 
 16471      466C6167 
 16471      7300
 16472              	.LASF199:
 16473 0b51 67657476 		.ascii	"getvar_shutdownTime\000"
 16473      61725F73 
 16473      68757464 
 16473      6F776E54 
 16473      696D6500 
 16474              	.LASF77:
 16475 0b65 61746F6D 		.ascii	"atom_modes_t\000"
 16475      5F6D6F64 
 16475      65735F74 
 16475      00
 16476              	.LASF294:
 16477 0b72 72657370 		.ascii	"resp_GenDestSrcOrder\000"
 16477      5F47656E 
 16477      44657374 
 16477      5372634F 
 16477      72646572 
 16478              	.LASF134:
 16479 0b87 74797065 		.ascii	"typeLen\000"
 16479      4C656E00 
 16480              	.LASF106:
 16481 0b8f 41544F4D 		.ascii	"ATOM_VARIABLE_notAfter\000"
 16481      5F564152 
 16481      4941424C 
 16481      455F6E6F 
 16481      74416674 
 16482              	.LASF43:
 16483 0ba6 73697A65 		.ascii	"size\000"
 16483      00
 16484              	.LASF254:
 16485 0bab 73657476 		.ascii	"setvar_maxVol\000"
 16485      61725F6D 
 16485      6178566F 
 16485      6C00
 16486              	.LASF278:
 16487 0bb9 6A736D6E 		.ascii	"jsmn_parse\000"
 16487      5F706172 
ARM GAS  C:\Users\SDEVAS~1\AppData\Local\Temp\ccPhqTSe.s 			page 322


 16487      736500
 16488              	.LASF12:
 16489 0bc4 75696E74 		.ascii	"uint32\000"
 16489      333200
 16490              	.LASF115:
 16491 0bcb 494E5641 		.ascii	"INVALID_ATOM_VARIABLE\000"
 16491      4C49445F 
 16491      41544F4D 
 16491      5F564152 
 16491      4941424C 
 16492              	.LASF112:
 16493 0be1 41544F4D 		.ascii	"ATOM_VARIABLE_lPerSqMeterPerDay\000"
 16493      5F564152 
 16493      4941424C 
 16493      455F6C50 
 16493      65725371 
 16494              	.LASF35:
 16495 0c01 4A534D4E 		.ascii	"JSMN_STRING\000"
 16495      5F535452 
 16495      494E4700 
 16496              	.LASF78:
 16497 0c0d 41544F4D 		.ascii	"ATOM_VARIABLE_sleepPeriod\000"
 16497      5F564152 
 16497      4941424C 
 16497      455F736C 
 16497      65657050 
 16498              	.LASF45:
 16499 0c27 746F6B6E 		.ascii	"toknext\000"
 16499      65787400 
 16500              	.LASF229:
 16501 0c2f 67657476 		.ascii	"getvar_dilutionFactorA\000"
 16501      61725F64 
 16501      696C7574 
 16501      696F6E46 
 16501      6163746F 
 16502              	.LASF189:
 16503 0c46 6D736744 		.ascii	"msgDestinationHolderAtomType\000"
 16503      65737469 
 16503      6E617469 
 16503      6F6E486F 
 16503      6C646572 
 16504              	.LASF111:
 16505 0c63 41544F4D 		.ascii	"ATOM_VARIABLE_squareMeters\000"
 16505      5F564152 
 16505      4941424C 
 16505      455F7371 
 16505      75617265 
 16506              	.LASF69:
 16507 0c7e 434F4D4D 		.ascii	"COMM_FLAG_PUSH\000"
 16507      5F464C41 
 16507      475F5055 
 16507      534800
 16508              	.LASF231:
 16509 0c8d 67657476 		.ascii	"getvar_venturiSuctionA\000"
 16509      61725F76 
 16509      656E7475 
 16509      72695375 
ARM GAS  C:\Users\SDEVAS~1\AppData\Local\Temp\ccPhqTSe.s 			page 323


 16509      6374696F 
 16510              	.LASF232:
 16511 0ca4 67657476 		.ascii	"getvar_venturiSuctionB\000"
 16511      61725F76 
 16511      656E7475 
 16511      72695375 
 16511      6374696F 
 16512              	.LASF246:
 16513 0cbb 73657476 		.ascii	"setvar_valveStatus\000"
 16513      61725F76 
 16513      616C7665 
 16513      53746174 
 16513      757300
 16514              	.LASF245:
 16515 0cce 73657476 		.ascii	"setvar_totalVolume\000"
 16515      61725F74 
 16515      6F74616C 
 16515      566F6C75 
 16515      6D6500
 16516              	.LASF83:
 16517 0ce1 41544F4D 		.ascii	"ATOM_VARIABLE_currentFlow\000"
 16517      5F564152 
 16517      4941424C 
 16517      455F6375 
 16517      7272656E 
 16518              	.LASF241:
 16519 0cfb 73657476 		.ascii	"setvar_test\000"
 16519      61725F74 
 16519      65737400 
 16520              	.LASF281:
 16521 0d07 636F6D6D 		.ascii	"comm_RS485_SetCallbackOnSelectedAsSlave\000"
 16521      5F525334 
 16521      38355F53 
 16521      65744361 
 16521      6C6C6261 
 16522              	.LASF81:
 16523 0d2f 41544F4D 		.ascii	"ATOM_VARIABLE_innerPressure\000"
 16523      5F564152 
 16523      4941424C 
 16523      455F696E 
 16523      6E657250 
 16524              	.LASF194:
 16525 0d4b 736C6565 		.ascii	"sleepMgr_requestSleep\000"
 16525      704D6772 
 16525      5F726571 
 16525      75657374 
 16525      536C6565 
 16526              	.LASF88:
 16527 0d61 41544F4D 		.ascii	"ATOM_VARIABLE_lastStartFlow\000"
 16527      5F564152 
 16527      4941424C 
 16527      455F6C61 
 16527      73745374 
 16528              	.LASF171:
 16529 0d7d 636F6D6D 		.ascii	"comm_ScheduleMessage\000"
 16529      5F536368 
 16529      6564756C 
ARM GAS  C:\Users\SDEVAS~1\AppData\Local\Temp\ccPhqTSe.s 			page 324


 16529      654D6573 
 16529      73616765 
 16530              	.LASF202:
 16531 0d92 67657476 		.ascii	"getvar_innerPressure\000"
 16531      61725F69 
 16531      6E6E6572 
 16531      50726573 
 16531      73757265 
 16532              	.LASF91:
 16533 0da7 41544F4D 		.ascii	"ATOM_VARIABLE_numStarts\000"
 16533      5F564152 
 16533      4941424C 
 16533      455F6E75 
 16533      6D537461 
 16534              	.LASF253:
 16535 0dbf 73657476 		.ascii	"setvar_volPerStart\000"
 16535      61725F76 
 16535      6F6C5065 
 16535      72537461 
 16535      727400
 16536              	.LASF22:
 16537 0dd2 636F6D6D 		.ascii	"comm_RS485_return_code\000"
 16537      5F525334 
 16537      38355F72 
 16537      65747572 
 16537      6E5F636F 
 16538              	.LASF37:
 16539 0de9 4A534D4E 		.ascii	"JSMN_ERROR_NOMEM\000"
 16539      5F455252 
 16539      4F525F4E 
 16539      4F4D454D 
 16539      00
 16540              	.LASF268:
 16541 0dfa 73657476 		.ascii	"setvar_notAfter\000"
 16541      61725F6E 
 16541      6F744166 
 16541      74657200 
 16542              	.LASF40:
 16543 0e0a 6A736D6E 		.ascii	"jsmnerr_t\000"
 16543      6572725F 
 16543      7400
 16544              	.LASF95:
 16545 0e14 41544F4D 		.ascii	"ATOM_VARIABLE_fertigationTable0\000"
 16545      5F564152 
 16545      4941424C 
 16545      455F6665 
 16545      72746967 
 16546              	.LASF25:
 16547 0e34 636F6D6D 		.ascii	"comm_RS485_frame_sent_callback\000"
 16547      5F525334 
 16547      38355F66 
 16547      72616D65 
 16547      5F73656E 
 16548              	.LASF97:
 16549 0e53 41544F4D 		.ascii	"ATOM_VARIABLE_fertigationTable2\000"
 16549      5F564152 
 16549      4941424C 
ARM GAS  C:\Users\SDEVAS~1\AppData\Local\Temp\ccPhqTSe.s 			page 325


 16549      455F6665 
 16549      72746967 
 16550              	.LASF98:
 16551 0e73 41544F4D 		.ascii	"ATOM_VARIABLE_fertigationTable3\000"
 16551      5F564152 
 16551      4941424C 
 16551      455F6665 
 16551      72746967 
 16552              	.LASF99:
 16553 0e93 41544F4D 		.ascii	"ATOM_VARIABLE_fertigationTable4\000"
 16553      5F564152 
 16553      4941424C 
 16553      455F6665 
 16553      72746967 
 16554              	.LASF100:
 16555 0eb3 41544F4D 		.ascii	"ATOM_VARIABLE_fertigationTable5\000"
 16555      5F564152 
 16555      4941424C 
 16555      455F6665 
 16555      72746967 
 16556              	.LASF101:
 16557 0ed3 41544F4D 		.ascii	"ATOM_VARIABLE_fertigationTable6\000"
 16557      5F564152 
 16557      4941424C 
 16557      455F6665 
 16557      72746967 
 16558              	.LASF27:
 16559 0ef3 636F6D6D 		.ascii	"comm_RS485_bus_released_callback\000"
 16559      5F525334 
 16559      38355F62 
 16559      75735F72 
 16559      656C6561 
 16560              	.LASF103:
 16561 0f14 41544F4D 		.ascii	"ATOM_VARIABLE_fertigationTable8\000"
 16561      5F564152 
 16561      4941424C 
 16561      455F6665 
 16561      72746967 
 16562              	.LASF104:
 16563 0f34 41544F4D 		.ascii	"ATOM_VARIABLE_fertigationTable9\000"
 16563      5F564152 
 16563      4941424C 
 16563      455F6665 
 16563      72746967 
 16564              	.LASF2:
 16565 0f54 73686F72 		.ascii	"short int\000"
 16565      7420696E 
 16565      7400
 16566              	.LASF29:
 16567 0f5e 636F6D6D 		.ascii	"comm_RS485_slave_released_callback\000"
 16567      5F525334 
 16567      38355F73 
 16567      6C617665 
 16567      5F72656C 
 16568              	.LASF4:
 16569 0f81 6C6F6E67 		.ascii	"long int\000"
 16569      20696E74 
ARM GAS  C:\Users\SDEVAS~1\AppData\Local\Temp\ccPhqTSe.s 			page 326


 16569      00
 16570              	.LASF39:
 16571 0f8a 4A534D4E 		.ascii	"JSMN_ERROR_PART\000"
 16571      5F455252 
 16571      4F525F50 
 16571      41525400 
 16572              	.LASF280:
 16573 0f9a 6D656D73 		.ascii	"memset\000"
 16573      657400
 16574              	.LASF125:
 16575 0fa1 7061796C 		.ascii	"payloadLen\000"
 16575      6F61644C 
 16575      656E00
 16576              	.LASF284:
 16577 0fac 636F6D6D 		.ascii	"comm_RS485_SetCallbackOnMasterReceive\000"
 16577      5F525334 
 16577      38355F53 
 16577      65744361 
 16577      6C6C6261 
 16578              	.LASF174:
 16579 0fd2 74696D65 		.ascii	"timeout_counter\000"
 16579      6F75745F 
 16579      636F756E 
 16579      74657200 
 16580              	.LASF161:
 16581 0fe2 666C6167 		.ascii	"flag2str\000"
 16581      32737472 
 16581      00
 16582              	.LASF159:
 16583 0feb 666C6167 		.ascii	"flag\000"
 16583      00
 16584              	.LASF48:
 16585 0ff0 52454356 		.ascii	"RECV\000"
 16585      00
 16586              	.LASF154:
 16587 0ff5 6A736F6E 		.ascii	"json\000"
 16587      00
 16588              	.LASF277:
 16589 0ffa 6A736D6E 		.ascii	"jsmn_init\000"
 16589      5F696E69 
 16589      7400
 16590              	.LASF200:
 16591 1004 67657476 		.ascii	"getvar_test\000"
 16591      61725F74 
 16591      65737400 
 16592              	.LASF209:
 16593 1010 67657476 		.ascii	"getvar_lastStartFlow\000"
 16593      61725F6C 
 16593      61737453 
 16593      74617274 
 16593      466C6F77 
 16594              	.LASF42:
 16595 1025 73746172 		.ascii	"start\000"
 16595      7400
 16596              	.LASF285:
 16597 102b 636F6D6D 		.ascii	"comm_RS485_SetCallbackOnWake\000"
 16597      5F525334 
ARM GAS  C:\Users\SDEVAS~1\AppData\Local\Temp\ccPhqTSe.s 			page 327


 16597      38355F53 
 16597      65744361 
 16597      6C6C6261 
 16598              	.LASF250:
 16599 1048 73657476 		.ascii	"setvar_startTime\000"
 16599      61725F73 
 16599      74617274 
 16599      54696D65 
 16599      00
 16600              	.LASF158:
 16601 1059 69735761 		.ascii	"isWake\000"
 16601      6B6500
 16602              	.LASF168:
 16603 1060 6A736F6E 		.ascii	"jsonAddressToRS\000"
 16603      41646472 
 16603      65737354 
 16603      6F525300 
 16604              	.LASF170:
 16605 1070 61746F6D 		.ascii	"atomID\000"
 16605      494400
 16606              	.LASF17:
 16607 1077 73697A65 		.ascii	"sizetype\000"
 16607      74797065 
 16607      00
 16608              	.LASF105:
 16609 1080 41544F4D 		.ascii	"ATOM_VARIABLE_notBefore\000"
 16609      5F564152 
 16609      4941424C 
 16609      455F6E6F 
 16609      74426566 
 16610              	.LASF5:
 16611 1098 6C6F6E67 		.ascii	"long unsigned int\000"
 16611      20756E73 
 16611      69676E65 
 16611      6420696E 
 16611      7400
 16612              	.LASF282:
 16613 10aa 636F6D6D 		.ascii	"comm_RS485_SetCallbackOnReleasedAsSlave\000"
 16613      5F525334 
 16613      38355F53 
 16613      65744361 
 16613      6C6C6261 
 16614              	.LASF156:
 16615 10d2 6765745F 		.ascii	"get_atom_mode_from_string\000"
 16615      61746F6D 
 16615      5F6D6F64 
 16615      655F6672 
 16615      6F6D5F73 
 16616              	.LASF210:
 16617 10ec 67657476 		.ascii	"getvar_startTime\000"
 16617      61725F73 
 16617      74617274 
 16617      54696D65 
 16617      00
 16618              	.LASF46:
 16619 10fd 746F6B73 		.ascii	"toksuper\000"
 16619      75706572 
ARM GAS  C:\Users\SDEVAS~1\AppData\Local\Temp\ccPhqTSe.s 			page 328


 16619      00
 16620              	.LASF61:
 16621 1106 73636865 		.ascii	"schedOrderLen\000"
 16621      644F7264 
 16621      65724C65 
 16621      6E00
 16622              	.LASF265:
 16623 1114 73657476 		.ascii	"setvar_fertigationTable8\000"
 16623      61725F66 
 16623      65727469 
 16623      67617469 
 16623      6F6E5461 
 16624              	.LASF87:
 16625 112d 41544F4D 		.ascii	"ATOM_VARIABLE_lastStartVolume\000"
 16625      5F564152 
 16625      4941424C 
 16625      455F6C61 
 16625      73745374 
 16626              	.LASF260:
 16627 114b 73657476 		.ascii	"setvar_fertigationTable3\000"
 16627      61725F66 
 16627      65727469 
 16627      67617469 
 16627      6F6E5461 
 16628              	.LASF188:
 16629 1164 6D736744 		.ascii	"msgDestinationHolder\000"
 16629      65737469 
 16629      6E617469 
 16629      6F6E486F 
 16629      6C646572 
 16630              	.LASF239:
 16631 1179 73657476 		.ascii	"setvar_shutdownTime\000"
 16631      61725F73 
 16631      68757464 
 16631      6F776E54 
 16631      696D6500 
 16632              	.LASF54:
 16633 118d 434F4D4D 		.ascii	"COMM_STATE_SLAVE_SELECTED\000"
 16633      5F535441 
 16633      54455F53 
 16633      4C415645 
 16633      5F53454C 
 16634              	.LASF41:
 16635 11a7 74797065 		.ascii	"type\000"
 16635      00
 16636              	.LASF235:
 16637 11ac 67657476 		.ascii	"getvar_cropType\000"
 16637      61725F63 
 16637      726F7054 
 16637      79706500 
 16638              	.LASF1:
 16639 11bc 756E7369 		.ascii	"unsigned char\000"
 16639      676E6564 
 16639      20636861 
 16639      7200
 16640              	.LASF9:
 16641 11ca 5F5F7569 		.ascii	"__uint32_t\000"
ARM GAS  C:\Users\SDEVAS~1\AppData\Local\Temp\ccPhqTSe.s 			page 329


 16641      6E743332 
 16641      5F7400
 16642              	.LASF120:
 16643 11d5 4A534F4E 		.ascii	"JSON_MSG_INVALID_FIELDS\000"
 16643      5F4D5347 
 16643      5F494E56 
 16643      414C4944 
 16643      5F464945 
 16644              	.LASF212:
 16645 11ed 67657476 		.ascii	"getvar_numStarts\000"
 16645      61725F6E 
 16645      756D5374 
 16645      61727473 
 16645      00
 16646              	.LASF71:
 16647 11fe 41544F4D 		.ascii	"ATOM_MODE_Start\000"
 16647      5F4D4F44 
 16647      455F5374 
 16647      61727400 
 16648              	.LASF228:
 16649 120e 67657476 		.ascii	"getvar_notAfter\000"
 16649      61725F6E 
 16649      6F744166 
 16649      74657200 
 16650              	.LASF31:
 16651 121e 636F6D6D 		.ascii	"comm_RS485_released_as_slave\000"
 16651      5F525334 
 16651      38355F72 
 16651      656C6561 
 16651      7365645F 
 16652              	.LASF255:
 16653 123b 73657476 		.ascii	"setvar_minVol\000"
 16653      61725F6D 
 16653      696E566F 
 16653      6C00
 16654              	.LASF173:
 16655 1249 6572726F 		.ascii	"error_counter\000"
 16655      725F636F 
 16655      756E7465 
 16655      7200
 16656              	.LASF257:
 16657 1257 73657476 		.ascii	"setvar_fertigationTable0\000"
 16657      61725F66 
 16657      65727469 
 16657      67617469 
 16657      6F6E5461 
 16658              	.LASF258:
 16659 1270 73657476 		.ascii	"setvar_fertigationTable1\000"
 16659      61725F66 
 16659      65727469 
 16659      67617469 
 16659      6F6E5461 
 16660              	.LASF259:
 16661 1289 73657476 		.ascii	"setvar_fertigationTable2\000"
 16661      61725F66 
 16661      65727469 
 16661      67617469 
ARM GAS  C:\Users\SDEVAS~1\AppData\Local\Temp\ccPhqTSe.s 			page 330


 16661      6F6E5461 
 16662              	.LASF19:
 16663 12a2 636F6D6D 		.ascii	"comm_RS485_SUCCESS\000"
 16663      5F525334 
 16663      38355F53 
 16663      55434345 
 16663      535300
 16664              	.LASF261:
 16665 12b5 73657476 		.ascii	"setvar_fertigationTable4\000"
 16665      61725F66 
 16665      65727469 
 16665      67617469 
 16665      6F6E5461 
 16666              	.LASF262:
 16667 12ce 73657476 		.ascii	"setvar_fertigationTable5\000"
 16667      61725F66 
 16667      65727469 
 16667      67617469 
 16667      6F6E5461 
 16668              	.LASF263:
 16669 12e7 73657476 		.ascii	"setvar_fertigationTable6\000"
 16669      61725F66 
 16669      65727469 
 16669      67617469 
 16669      6F6E5461 
 16670              	.LASF264:
 16671 1300 73657476 		.ascii	"setvar_fertigationTable7\000"
 16671      61725F66 
 16671      65727469 
 16671      67617469 
 16671      6F6E5461 
 16672              	.LASF32:
 16673 1319 4A534D4E 		.ascii	"JSMN_PRIMITIVE\000"
 16673      5F505249 
 16673      4D495449 
 16673      564500
 16674              	.LASF266:
 16675 1328 73657476 		.ascii	"setvar_fertigationTable9\000"
 16675      61725F66 
 16675      65727469 
 16675      67617469 
 16675      6F6E5461 
 16676              	.LASF59:
 16677 1341 73746174 		.ascii	"state\000"
 16677      6500
 16678              	.LASF292:
 16679 1347 2E5C4765 		.ascii	".\\Generated_Source\\PSoC4\\comm.c\000"
 16679      6E657261 
 16679      7465645F 
 16679      536F7572 
 16679      63655C50 
 16680              	.LASF142:
 16681 1367 72733438 		.ascii	"rs485_released_as_slave_callback\000"
 16681      355F7265 
 16681      6C656173 
 16681      65645F61 
 16681      735F736C 
ARM GAS  C:\Users\SDEVAS~1\AppData\Local\Temp\ccPhqTSe.s 			page 331


 16682              	.LASF256:
 16683 1388 636F6E76 		.ascii	"conv_str2ia\000"
 16683      5F737472 
 16683      32696100 
 16684              	.LASF175:
 16685 1394 72657466 		.ascii	"retflag\000"
 16685      6C616700 
 16686              	.LASF73:
 16687 139c 41544F4D 		.ascii	"ATOM_MODE_Idle\000"
 16687      5F4D4F44 
 16687      455F4964 
 16687      6C6500
 16688              	.LASF286:
 16689 13ab 636F6D6D 		.ascii	"comm_RS485_Init\000"
 16689      5F525334 
 16689      38355F49 
 16689      6E697400 
 16690              	.LASF65:
 16691 13bb 434F4D4D 		.ascii	"COMM_FLAG_REQ\000"
 16691      5F464C41 
 16691      475F5245 
 16691      5100
 16692              	.LASF177:
 16693 13c9 61746F6D 		.ascii	"atom_modes_strings\000"
 16693      5F6D6F64 
 16693      65735F73 
 16693      7472696E 
 16693      677300
 16694              	.LASF55:
 16695 13dc 434F4D4D 		.ascii	"COMM_STATE_SLAVE_RELEASED\000"
 16695      5F535441 
 16695      54455F53 
 16695      4C415645 
 16695      5F52454C 
 16696              	.LASF129:
 16697 13f6 636F6D6D 		.ascii	"comm_handle_Get\000"
 16697      5F68616E 
 16697      646C655F 
 16697      47657400 
 16698              	.LASF0:
 16699 1406 7369676E 		.ascii	"signed char\000"
 16699      65642063 
 16699      68617200 
 16700              	.LASF191:
 16701 1412 72733438 		.ascii	"rs485_frame_sent_callback\000"
 16701      355F6672 
 16701      616D655F 
 16701      73656E74 
 16701      5F63616C 
 16702              	.LASF140:
 16703 142c 72733438 		.ascii	"rs485_selected_as_slave_callback\000"
 16703      355F7365 
 16703      6C656374 
 16703      65645F61 
 16703      735F736C 
 16704              	.LASF3:
 16705 144d 73686F72 		.ascii	"short unsigned int\000"
ARM GAS  C:\Users\SDEVAS~1\AppData\Local\Temp\ccPhqTSe.s 			page 332


 16705      7420756E 
 16705      7369676E 
 16705      65642069 
 16705      6E7400
 16706              	.LASF242:
 16707 1460 73657476 		.ascii	"setvar_innerPressure\000"
 16707      61725F69 
 16707      6E6E6572 
 16707      50726573 
 16707      73757265 
 16708              	.LASF180:
 16709 1475 6D736744 		.ascii	"msgDest\000"
 16709      65737400 
 16710              	.LASF192:
 16711 147d 6D656D63 		.ascii	"memcpy\000"
 16711      707900
 16712              	.LASF201:
 16713 1484 636F6E76 		.ascii	"conv_s2str\000"
 16713      5F733273 
 16713      747200
 16714              	.LASF206:
 16715 148f 67657476 		.ascii	"getvar_valveStatus\000"
 16715      61725F76 
 16715      616C7665 
 16715      53746174 
 16715      757300
 16716              	.LASF138:
 16717 14a2 63757272 		.ascii	"current\000"
 16717      656E7400 
 16718              	.LASF94:
 16719 14aa 41544F4D 		.ascii	"ATOM_VARIABLE_minVol\000"
 16719      5F564152 
 16719      4941424C 
 16719      455F6D69 
 16719      6E566F6C 
 16720              	.LASF205:
 16721 14bf 67657476 		.ascii	"getvar_totalVolume\000"
 16721      61725F74 
 16721      6F74616C 
 16721      566F6C75 
 16721      6D6500
 16722              	.LASF82:
 16723 14d2 41544F4D 		.ascii	"ATOM_VARIABLE_outerPressure\000"
 16723      5F564152 
 16723      4941424C 
 16723      455F6F75 
 16723      74657250 
 16724              	.LASF11:
 16725 14ee 75696E74 		.ascii	"uint8\000"
 16725      3800
 16726              	.LASF14:
 16727 14f4 646F7562 		.ascii	"double\000"
 16727      6C6500
 16728              	.LASF179:
 16729 14fb 6D736753 		.ascii	"msgSourceLen\000"
 16729      6F757263 
 16729      654C656E 
ARM GAS  C:\Users\SDEVAS~1\AppData\Local\Temp\ccPhqTSe.s 			page 333


 16729      00
 16730              	.LASF131:
 16731 1508 6572726F 		.ascii	"error_exit\000"
 16731      725F6578 
 16731      697400
 16732              	.LASF107:
 16733 1513 41544F4D 		.ascii	"ATOM_VARIABLE_dilutionFactorA\000"
 16733      5F564152 
 16733      4941424C 
 16733      455F6469 
 16733      6C757469 
 16734              	.LASF108:
 16735 1531 41544F4D 		.ascii	"ATOM_VARIABLE_dilutionFactorB\000"
 16735      5F564152 
 16735      4941424C 
 16735      455F6469 
 16735      6C757469 
 16736              	.LASF109:
 16737 154f 41544F4D 		.ascii	"ATOM_VARIABLE_venturiSuctionA\000"
 16737      5F564152 
 16737      4941424C 
 16737      455F7665 
 16737      6E747572 
 16738              	.LASF110:
 16739 156d 41544F4D 		.ascii	"ATOM_VARIABLE_venturiSuctionB\000"
 16739      5F564152 
 16739      4941424C 
 16739      455F7665 
 16739      6E747572 
 16740              	.LASF185:
 16741 158b 72657370 		.ascii	"respBuff\000"
 16741      42756666 
 16741      00
 16742              	.LASF207:
 16743 1594 67657476 		.ascii	"getvar_lastStartNumber\000"
 16743      61725F6C 
 16743      61737453 
 16743      74617274 
 16743      4E756D62 
 16744              	.LASF21:
 16745 15ab 636F6D6D 		.ascii	"comm_RS485_FORBIDDEN\000"
 16745      5F525334 
 16745      38355F46 
 16745      4F524249 
 16745      4444454E 
 16746              	.LASF145:
 16747 15c0 72733438 		.ascii	"rs485_slave_released_callback\000"
 16747      355F736C 
 16747      6176655F 
 16747      72656C65 
 16747      61736564 
 16748              	.LASF147:
 16749 15de 64657374 		.ascii	"dest\000"
 16749      00
 16750              	.LASF247:
 16751 15e3 73657476 		.ascii	"setvar_lastStartNumber\000"
 16751      61725F6C 
ARM GAS  C:\Users\SDEVAS~1\AppData\Local\Temp\ccPhqTSe.s 			page 334


 16751      61737453 
 16751      74617274 
 16751      4E756D62 
 16752              		.ident	"GCC: (GNU Tools for ARM Embedded Processors) 4.8.4 20140526 (release) [ARM/embedded-4_8-br
