ARM GAS  C:\Users\SDEVAS~1\AppData\Local\Temp\ccP4evVl.s 			page 1


   1              		.cpu cortex-m0
   2              		.fpu softvfp
   3              		.eabi_attribute 20, 1
   4              		.eabi_attribute 21, 1
   5              		.eabi_attribute 23, 3
   6              		.eabi_attribute 24, 1
   7              		.eabi_attribute 25, 1
   8              		.eabi_attribute 26, 1
   9              		.eabi_attribute 30, 4
  10              		.eabi_attribute 34, 0
  11              		.eabi_attribute 18, 4
  12              		.code	16
  13              		.file	"comm_RS485_isr_WAKE.c"
  14              		.text
  15              	.Ltext0:
  16              		.cfi_sections	.debug_frame
  17              		.section	.text.comm_RS485_isr_WAKE_Interrupt,"ax",%progbits
  18              		.align	1
  19              		.global	comm_RS485_isr_WAKE_Interrupt
  20              		.code	16
  21              		.thumb_func
  22              		.type	comm_RS485_isr_WAKE_Interrupt, %function
  23              	comm_RS485_isr_WAKE_Interrupt:
  24              	.LFB3:
  25              		.file 1 ".\\Generated_Source\\PSoC4\\comm_RS485_isr_WAKE.c"
   1:.\Generated_Source\PSoC4/comm_RS485_isr_WAKE.c **** /*******************************************************************************
   2:.\Generated_Source\PSoC4/comm_RS485_isr_WAKE.c **** * File Name: comm_RS485_isr_WAKE.c  
   3:.\Generated_Source\PSoC4/comm_RS485_isr_WAKE.c **** * Version 1.70
   4:.\Generated_Source\PSoC4/comm_RS485_isr_WAKE.c **** *
   5:.\Generated_Source\PSoC4/comm_RS485_isr_WAKE.c **** *  Description:
   6:.\Generated_Source\PSoC4/comm_RS485_isr_WAKE.c **** *   API for controlling the state of an interrupt.
   7:.\Generated_Source\PSoC4/comm_RS485_isr_WAKE.c **** *
   8:.\Generated_Source\PSoC4/comm_RS485_isr_WAKE.c **** *
   9:.\Generated_Source\PSoC4/comm_RS485_isr_WAKE.c **** *  Note:
  10:.\Generated_Source\PSoC4/comm_RS485_isr_WAKE.c **** *
  11:.\Generated_Source\PSoC4/comm_RS485_isr_WAKE.c **** ********************************************************************************
  12:.\Generated_Source\PSoC4/comm_RS485_isr_WAKE.c **** * Copyright 2008-2015, Cypress Semiconductor Corporation.  All rights reserved.
  13:.\Generated_Source\PSoC4/comm_RS485_isr_WAKE.c **** * You may use this file only in accordance with the license, terms, conditions, 
  14:.\Generated_Source\PSoC4/comm_RS485_isr_WAKE.c **** * disclaimers, and limitations in the end user license agreement accompanying 
  15:.\Generated_Source\PSoC4/comm_RS485_isr_WAKE.c **** * the software package with which this file was provided.
  16:.\Generated_Source\PSoC4/comm_RS485_isr_WAKE.c **** *******************************************************************************/
  17:.\Generated_Source\PSoC4/comm_RS485_isr_WAKE.c **** 
  18:.\Generated_Source\PSoC4/comm_RS485_isr_WAKE.c **** 
  19:.\Generated_Source\PSoC4/comm_RS485_isr_WAKE.c **** #include <cydevice_trm.h>
  20:.\Generated_Source\PSoC4/comm_RS485_isr_WAKE.c **** #include <CyLib.h>
  21:.\Generated_Source\PSoC4/comm_RS485_isr_WAKE.c **** #include <comm_RS485_isr_WAKE.h>
  22:.\Generated_Source\PSoC4/comm_RS485_isr_WAKE.c **** 
  23:.\Generated_Source\PSoC4/comm_RS485_isr_WAKE.c **** #if !defined(comm_RS485_isr_WAKE__REMOVED) /* Check for removal by optimization */
  24:.\Generated_Source\PSoC4/comm_RS485_isr_WAKE.c **** 
  25:.\Generated_Source\PSoC4/comm_RS485_isr_WAKE.c **** /*******************************************************************************
  26:.\Generated_Source\PSoC4/comm_RS485_isr_WAKE.c **** *  Place your includes, defines and code here 
  27:.\Generated_Source\PSoC4/comm_RS485_isr_WAKE.c **** ********************************************************************************/
  28:.\Generated_Source\PSoC4/comm_RS485_isr_WAKE.c **** /* `#START comm_RS485_isr_WAKE_intc` */
  29:.\Generated_Source\PSoC4/comm_RS485_isr_WAKE.c **** 
  30:.\Generated_Source\PSoC4/comm_RS485_isr_WAKE.c **** /* `#END` */
  31:.\Generated_Source\PSoC4/comm_RS485_isr_WAKE.c **** 
  32:.\Generated_Source\PSoC4/comm_RS485_isr_WAKE.c **** extern cyisraddress CyRamVectors[CYINT_IRQ_BASE + CY_NUM_INTERRUPTS];
ARM GAS  C:\Users\SDEVAS~1\AppData\Local\Temp\ccP4evVl.s 			page 2


  33:.\Generated_Source\PSoC4/comm_RS485_isr_WAKE.c **** 
  34:.\Generated_Source\PSoC4/comm_RS485_isr_WAKE.c **** /* Declared in startup, used to set unused interrupts to. */
  35:.\Generated_Source\PSoC4/comm_RS485_isr_WAKE.c **** CY_ISR_PROTO(IntDefaultHandler);
  36:.\Generated_Source\PSoC4/comm_RS485_isr_WAKE.c **** 
  37:.\Generated_Source\PSoC4/comm_RS485_isr_WAKE.c **** 
  38:.\Generated_Source\PSoC4/comm_RS485_isr_WAKE.c **** /*******************************************************************************
  39:.\Generated_Source\PSoC4/comm_RS485_isr_WAKE.c **** * Function Name: comm_RS485_isr_WAKE_Start
  40:.\Generated_Source\PSoC4/comm_RS485_isr_WAKE.c **** ********************************************************************************
  41:.\Generated_Source\PSoC4/comm_RS485_isr_WAKE.c **** *
  42:.\Generated_Source\PSoC4/comm_RS485_isr_WAKE.c **** * Summary:
  43:.\Generated_Source\PSoC4/comm_RS485_isr_WAKE.c **** *  Set up the interrupt and enable it. This function disables the interrupt, 
  44:.\Generated_Source\PSoC4/comm_RS485_isr_WAKE.c **** *  sets the default interrupt vector, sets the priority from the value in the
  45:.\Generated_Source\PSoC4/comm_RS485_isr_WAKE.c **** *  Design Wide Resources Interrupt Editor, then enables the interrupt to the 
  46:.\Generated_Source\PSoC4/comm_RS485_isr_WAKE.c **** *  interrupt controller.
  47:.\Generated_Source\PSoC4/comm_RS485_isr_WAKE.c **** *
  48:.\Generated_Source\PSoC4/comm_RS485_isr_WAKE.c **** * Parameters:  
  49:.\Generated_Source\PSoC4/comm_RS485_isr_WAKE.c **** *   None
  50:.\Generated_Source\PSoC4/comm_RS485_isr_WAKE.c **** *
  51:.\Generated_Source\PSoC4/comm_RS485_isr_WAKE.c **** * Return:
  52:.\Generated_Source\PSoC4/comm_RS485_isr_WAKE.c **** *   None
  53:.\Generated_Source\PSoC4/comm_RS485_isr_WAKE.c **** *
  54:.\Generated_Source\PSoC4/comm_RS485_isr_WAKE.c **** *******************************************************************************/
  55:.\Generated_Source\PSoC4/comm_RS485_isr_WAKE.c **** void comm_RS485_isr_WAKE_Start(void)
  56:.\Generated_Source\PSoC4/comm_RS485_isr_WAKE.c **** {
  57:.\Generated_Source\PSoC4/comm_RS485_isr_WAKE.c ****     /* For all we know the interrupt is active. */
  58:.\Generated_Source\PSoC4/comm_RS485_isr_WAKE.c ****     comm_RS485_isr_WAKE_Disable();
  59:.\Generated_Source\PSoC4/comm_RS485_isr_WAKE.c **** 
  60:.\Generated_Source\PSoC4/comm_RS485_isr_WAKE.c ****     /* Set the ISR to point to the comm_RS485_isr_WAKE Interrupt. */
  61:.\Generated_Source\PSoC4/comm_RS485_isr_WAKE.c ****     comm_RS485_isr_WAKE_SetVector(&comm_RS485_isr_WAKE_Interrupt);
  62:.\Generated_Source\PSoC4/comm_RS485_isr_WAKE.c **** 
  63:.\Generated_Source\PSoC4/comm_RS485_isr_WAKE.c ****     /* Set the priority. */
  64:.\Generated_Source\PSoC4/comm_RS485_isr_WAKE.c ****     comm_RS485_isr_WAKE_SetPriority((uint8)comm_RS485_isr_WAKE_INTC_PRIOR_NUMBER);
  65:.\Generated_Source\PSoC4/comm_RS485_isr_WAKE.c **** 
  66:.\Generated_Source\PSoC4/comm_RS485_isr_WAKE.c ****     /* Enable it. */
  67:.\Generated_Source\PSoC4/comm_RS485_isr_WAKE.c ****     comm_RS485_isr_WAKE_Enable();
  68:.\Generated_Source\PSoC4/comm_RS485_isr_WAKE.c **** }
  69:.\Generated_Source\PSoC4/comm_RS485_isr_WAKE.c **** 
  70:.\Generated_Source\PSoC4/comm_RS485_isr_WAKE.c **** 
  71:.\Generated_Source\PSoC4/comm_RS485_isr_WAKE.c **** /*******************************************************************************
  72:.\Generated_Source\PSoC4/comm_RS485_isr_WAKE.c **** * Function Name: comm_RS485_isr_WAKE_StartEx
  73:.\Generated_Source\PSoC4/comm_RS485_isr_WAKE.c **** ********************************************************************************
  74:.\Generated_Source\PSoC4/comm_RS485_isr_WAKE.c **** *
  75:.\Generated_Source\PSoC4/comm_RS485_isr_WAKE.c **** * Summary:
  76:.\Generated_Source\PSoC4/comm_RS485_isr_WAKE.c **** *  Sets up the interrupt and enables it. This function disables the interrupt,
  77:.\Generated_Source\PSoC4/comm_RS485_isr_WAKE.c **** *  sets the interrupt vector based on the address passed in, sets the priority 
  78:.\Generated_Source\PSoC4/comm_RS485_isr_WAKE.c **** *  from the value in the Design Wide Resources Interrupt Editor, then enables 
  79:.\Generated_Source\PSoC4/comm_RS485_isr_WAKE.c **** *  the interrupt to the interrupt controller.
  80:.\Generated_Source\PSoC4/comm_RS485_isr_WAKE.c **** *  
  81:.\Generated_Source\PSoC4/comm_RS485_isr_WAKE.c **** *  When defining ISR functions, the CY_ISR and CY_ISR_PROTO macros should be 
  82:.\Generated_Source\PSoC4/comm_RS485_isr_WAKE.c **** *  used to provide consistent definition across compilers:
  83:.\Generated_Source\PSoC4/comm_RS485_isr_WAKE.c **** *  
  84:.\Generated_Source\PSoC4/comm_RS485_isr_WAKE.c **** *  Function definition example:
  85:.\Generated_Source\PSoC4/comm_RS485_isr_WAKE.c **** *   CY_ISR(MyISR)
  86:.\Generated_Source\PSoC4/comm_RS485_isr_WAKE.c **** *   {
  87:.\Generated_Source\PSoC4/comm_RS485_isr_WAKE.c **** *   }
  88:.\Generated_Source\PSoC4/comm_RS485_isr_WAKE.c **** *   Function prototype example:
  89:.\Generated_Source\PSoC4/comm_RS485_isr_WAKE.c **** *   CY_ISR_PROTO(MyISR);
ARM GAS  C:\Users\SDEVAS~1\AppData\Local\Temp\ccP4evVl.s 			page 3


  90:.\Generated_Source\PSoC4/comm_RS485_isr_WAKE.c **** *
  91:.\Generated_Source\PSoC4/comm_RS485_isr_WAKE.c **** * Parameters:  
  92:.\Generated_Source\PSoC4/comm_RS485_isr_WAKE.c **** *   address: Address of the ISR to set in the interrupt vector table.
  93:.\Generated_Source\PSoC4/comm_RS485_isr_WAKE.c **** *
  94:.\Generated_Source\PSoC4/comm_RS485_isr_WAKE.c **** * Return:
  95:.\Generated_Source\PSoC4/comm_RS485_isr_WAKE.c **** *   None
  96:.\Generated_Source\PSoC4/comm_RS485_isr_WAKE.c **** *
  97:.\Generated_Source\PSoC4/comm_RS485_isr_WAKE.c **** *******************************************************************************/
  98:.\Generated_Source\PSoC4/comm_RS485_isr_WAKE.c **** void comm_RS485_isr_WAKE_StartEx(cyisraddress address)
  99:.\Generated_Source\PSoC4/comm_RS485_isr_WAKE.c **** {
 100:.\Generated_Source\PSoC4/comm_RS485_isr_WAKE.c ****     /* For all we know the interrupt is active. */
 101:.\Generated_Source\PSoC4/comm_RS485_isr_WAKE.c ****     comm_RS485_isr_WAKE_Disable();
 102:.\Generated_Source\PSoC4/comm_RS485_isr_WAKE.c **** 
 103:.\Generated_Source\PSoC4/comm_RS485_isr_WAKE.c ****     /* Set the ISR to point to the comm_RS485_isr_WAKE Interrupt. */
 104:.\Generated_Source\PSoC4/comm_RS485_isr_WAKE.c ****     comm_RS485_isr_WAKE_SetVector(address);
 105:.\Generated_Source\PSoC4/comm_RS485_isr_WAKE.c **** 
 106:.\Generated_Source\PSoC4/comm_RS485_isr_WAKE.c ****     /* Set the priority. */
 107:.\Generated_Source\PSoC4/comm_RS485_isr_WAKE.c ****     comm_RS485_isr_WAKE_SetPriority((uint8)comm_RS485_isr_WAKE_INTC_PRIOR_NUMBER);
 108:.\Generated_Source\PSoC4/comm_RS485_isr_WAKE.c **** 
 109:.\Generated_Source\PSoC4/comm_RS485_isr_WAKE.c ****     /* Enable it. */
 110:.\Generated_Source\PSoC4/comm_RS485_isr_WAKE.c ****     comm_RS485_isr_WAKE_Enable();
 111:.\Generated_Source\PSoC4/comm_RS485_isr_WAKE.c **** }
 112:.\Generated_Source\PSoC4/comm_RS485_isr_WAKE.c **** 
 113:.\Generated_Source\PSoC4/comm_RS485_isr_WAKE.c **** 
 114:.\Generated_Source\PSoC4/comm_RS485_isr_WAKE.c **** /*******************************************************************************
 115:.\Generated_Source\PSoC4/comm_RS485_isr_WAKE.c **** * Function Name: comm_RS485_isr_WAKE_Stop
 116:.\Generated_Source\PSoC4/comm_RS485_isr_WAKE.c **** ********************************************************************************
 117:.\Generated_Source\PSoC4/comm_RS485_isr_WAKE.c **** *
 118:.\Generated_Source\PSoC4/comm_RS485_isr_WAKE.c **** * Summary:
 119:.\Generated_Source\PSoC4/comm_RS485_isr_WAKE.c **** *   Disables and removes the interrupt.
 120:.\Generated_Source\PSoC4/comm_RS485_isr_WAKE.c **** *
 121:.\Generated_Source\PSoC4/comm_RS485_isr_WAKE.c **** * Parameters:  
 122:.\Generated_Source\PSoC4/comm_RS485_isr_WAKE.c **** *   None
 123:.\Generated_Source\PSoC4/comm_RS485_isr_WAKE.c **** *
 124:.\Generated_Source\PSoC4/comm_RS485_isr_WAKE.c **** * Return:
 125:.\Generated_Source\PSoC4/comm_RS485_isr_WAKE.c **** *   None
 126:.\Generated_Source\PSoC4/comm_RS485_isr_WAKE.c **** *
 127:.\Generated_Source\PSoC4/comm_RS485_isr_WAKE.c **** *******************************************************************************/
 128:.\Generated_Source\PSoC4/comm_RS485_isr_WAKE.c **** void comm_RS485_isr_WAKE_Stop(void)
 129:.\Generated_Source\PSoC4/comm_RS485_isr_WAKE.c **** {
 130:.\Generated_Source\PSoC4/comm_RS485_isr_WAKE.c ****     /* Disable this interrupt. */
 131:.\Generated_Source\PSoC4/comm_RS485_isr_WAKE.c ****     comm_RS485_isr_WAKE_Disable();
 132:.\Generated_Source\PSoC4/comm_RS485_isr_WAKE.c **** 
 133:.\Generated_Source\PSoC4/comm_RS485_isr_WAKE.c ****     /* Set the ISR to point to the passive one. */
 134:.\Generated_Source\PSoC4/comm_RS485_isr_WAKE.c ****     comm_RS485_isr_WAKE_SetVector(&IntDefaultHandler);
 135:.\Generated_Source\PSoC4/comm_RS485_isr_WAKE.c **** }
 136:.\Generated_Source\PSoC4/comm_RS485_isr_WAKE.c **** 
 137:.\Generated_Source\PSoC4/comm_RS485_isr_WAKE.c **** 
 138:.\Generated_Source\PSoC4/comm_RS485_isr_WAKE.c **** /*******************************************************************************
 139:.\Generated_Source\PSoC4/comm_RS485_isr_WAKE.c **** * Function Name: comm_RS485_isr_WAKE_Interrupt
 140:.\Generated_Source\PSoC4/comm_RS485_isr_WAKE.c **** ********************************************************************************
 141:.\Generated_Source\PSoC4/comm_RS485_isr_WAKE.c **** *
 142:.\Generated_Source\PSoC4/comm_RS485_isr_WAKE.c **** * Summary:
 143:.\Generated_Source\PSoC4/comm_RS485_isr_WAKE.c **** *   The default Interrupt Service Routine for comm_RS485_isr_WAKE.
 144:.\Generated_Source\PSoC4/comm_RS485_isr_WAKE.c **** *
 145:.\Generated_Source\PSoC4/comm_RS485_isr_WAKE.c **** *   Add custom code between the START and END comments to keep the next version
 146:.\Generated_Source\PSoC4/comm_RS485_isr_WAKE.c **** *   of this file from over-writing your code.
ARM GAS  C:\Users\SDEVAS~1\AppData\Local\Temp\ccP4evVl.s 			page 4


 147:.\Generated_Source\PSoC4/comm_RS485_isr_WAKE.c **** *
 148:.\Generated_Source\PSoC4/comm_RS485_isr_WAKE.c **** *   Note You may use either the default ISR by using this API, or you may define
 149:.\Generated_Source\PSoC4/comm_RS485_isr_WAKE.c **** *   your own separate ISR through ISR_StartEx().
 150:.\Generated_Source\PSoC4/comm_RS485_isr_WAKE.c **** *
 151:.\Generated_Source\PSoC4/comm_RS485_isr_WAKE.c **** * Parameters:  
 152:.\Generated_Source\PSoC4/comm_RS485_isr_WAKE.c **** *   None
 153:.\Generated_Source\PSoC4/comm_RS485_isr_WAKE.c **** *
 154:.\Generated_Source\PSoC4/comm_RS485_isr_WAKE.c **** * Return:
 155:.\Generated_Source\PSoC4/comm_RS485_isr_WAKE.c **** *   None
 156:.\Generated_Source\PSoC4/comm_RS485_isr_WAKE.c **** *
 157:.\Generated_Source\PSoC4/comm_RS485_isr_WAKE.c **** *******************************************************************************/
 158:.\Generated_Source\PSoC4/comm_RS485_isr_WAKE.c **** CY_ISR(comm_RS485_isr_WAKE_Interrupt)
 159:.\Generated_Source\PSoC4/comm_RS485_isr_WAKE.c **** {
  26              		.loc 1 159 0
  27              		.cfi_startproc
 160:.\Generated_Source\PSoC4/comm_RS485_isr_WAKE.c ****     /*  Place your Interrupt code here. */
 161:.\Generated_Source\PSoC4/comm_RS485_isr_WAKE.c ****     /* `#START comm_RS485_isr_WAKE_Interrupt` */
 162:.\Generated_Source\PSoC4/comm_RS485_isr_WAKE.c **** 
 163:.\Generated_Source\PSoC4/comm_RS485_isr_WAKE.c ****     /* `#END` */
 164:.\Generated_Source\PSoC4/comm_RS485_isr_WAKE.c **** }
  28              		.loc 1 164 0
  29              		@ sp needed
  30 0000 7047     		bx	lr
  31              		.cfi_endproc
  32              	.LFE3:
  33              		.size	comm_RS485_isr_WAKE_Interrupt, .-comm_RS485_isr_WAKE_Interrupt
  34              		.section	.text.comm_RS485_isr_WAKE_Stop,"ax",%progbits
  35              		.align	1
  36              		.global	comm_RS485_isr_WAKE_Stop
  37              		.code	16
  38              		.thumb_func
  39              		.type	comm_RS485_isr_WAKE_Stop, %function
  40              	comm_RS485_isr_WAKE_Stop:
  41              	.LFB2:
 129:.\Generated_Source\PSoC4/comm_RS485_isr_WAKE.c **** {
  42              		.loc 1 129 0
  43              		.cfi_startproc
  44              	.LBB18:
  45              	.LBB19:
 165:.\Generated_Source\PSoC4/comm_RS485_isr_WAKE.c **** 
 166:.\Generated_Source\PSoC4/comm_RS485_isr_WAKE.c **** 
 167:.\Generated_Source\PSoC4/comm_RS485_isr_WAKE.c **** /*******************************************************************************
 168:.\Generated_Source\PSoC4/comm_RS485_isr_WAKE.c **** * Function Name: comm_RS485_isr_WAKE_SetVector
 169:.\Generated_Source\PSoC4/comm_RS485_isr_WAKE.c **** ********************************************************************************
 170:.\Generated_Source\PSoC4/comm_RS485_isr_WAKE.c **** *
 171:.\Generated_Source\PSoC4/comm_RS485_isr_WAKE.c **** * Summary:
 172:.\Generated_Source\PSoC4/comm_RS485_isr_WAKE.c **** *   Change the ISR vector for the Interrupt. Note calling comm_RS485_isr_WAKE_Start
 173:.\Generated_Source\PSoC4/comm_RS485_isr_WAKE.c **** *   will override any effect this method would have had. To set the vector 
 174:.\Generated_Source\PSoC4/comm_RS485_isr_WAKE.c **** *   before the component has been started use comm_RS485_isr_WAKE_StartEx instead.
 175:.\Generated_Source\PSoC4/comm_RS485_isr_WAKE.c **** * 
 176:.\Generated_Source\PSoC4/comm_RS485_isr_WAKE.c **** *   When defining ISR functions, the CY_ISR and CY_ISR_PROTO macros should be 
 177:.\Generated_Source\PSoC4/comm_RS485_isr_WAKE.c **** *   used to provide consistent definition across compilers:
 178:.\Generated_Source\PSoC4/comm_RS485_isr_WAKE.c **** *
 179:.\Generated_Source\PSoC4/comm_RS485_isr_WAKE.c **** *   Function definition example:
 180:.\Generated_Source\PSoC4/comm_RS485_isr_WAKE.c **** *   CY_ISR(MyISR)
 181:.\Generated_Source\PSoC4/comm_RS485_isr_WAKE.c **** *   {
 182:.\Generated_Source\PSoC4/comm_RS485_isr_WAKE.c **** *   }
ARM GAS  C:\Users\SDEVAS~1\AppData\Local\Temp\ccP4evVl.s 			page 5


 183:.\Generated_Source\PSoC4/comm_RS485_isr_WAKE.c **** *
 184:.\Generated_Source\PSoC4/comm_RS485_isr_WAKE.c **** *   Function prototype example:
 185:.\Generated_Source\PSoC4/comm_RS485_isr_WAKE.c **** *     CY_ISR_PROTO(MyISR);
 186:.\Generated_Source\PSoC4/comm_RS485_isr_WAKE.c **** *
 187:.\Generated_Source\PSoC4/comm_RS485_isr_WAKE.c **** * Parameters:
 188:.\Generated_Source\PSoC4/comm_RS485_isr_WAKE.c **** *   address: Address of the ISR to set in the interrupt vector table.
 189:.\Generated_Source\PSoC4/comm_RS485_isr_WAKE.c **** *
 190:.\Generated_Source\PSoC4/comm_RS485_isr_WAKE.c **** * Return:
 191:.\Generated_Source\PSoC4/comm_RS485_isr_WAKE.c **** *   None
 192:.\Generated_Source\PSoC4/comm_RS485_isr_WAKE.c **** *
 193:.\Generated_Source\PSoC4/comm_RS485_isr_WAKE.c **** *******************************************************************************/
 194:.\Generated_Source\PSoC4/comm_RS485_isr_WAKE.c **** void comm_RS485_isr_WAKE_SetVector(cyisraddress address)
 195:.\Generated_Source\PSoC4/comm_RS485_isr_WAKE.c **** {
 196:.\Generated_Source\PSoC4/comm_RS485_isr_WAKE.c ****     CyRamVectors[CYINT_IRQ_BASE + comm_RS485_isr_WAKE__INTC_NUMBER] = address;
 197:.\Generated_Source\PSoC4/comm_RS485_isr_WAKE.c **** }
 198:.\Generated_Source\PSoC4/comm_RS485_isr_WAKE.c **** 
 199:.\Generated_Source\PSoC4/comm_RS485_isr_WAKE.c **** 
 200:.\Generated_Source\PSoC4/comm_RS485_isr_WAKE.c **** /*******************************************************************************
 201:.\Generated_Source\PSoC4/comm_RS485_isr_WAKE.c **** * Function Name: comm_RS485_isr_WAKE_GetVector
 202:.\Generated_Source\PSoC4/comm_RS485_isr_WAKE.c **** ********************************************************************************
 203:.\Generated_Source\PSoC4/comm_RS485_isr_WAKE.c **** *
 204:.\Generated_Source\PSoC4/comm_RS485_isr_WAKE.c **** * Summary:
 205:.\Generated_Source\PSoC4/comm_RS485_isr_WAKE.c **** *   Gets the "address" of the current ISR vector for the Interrupt.
 206:.\Generated_Source\PSoC4/comm_RS485_isr_WAKE.c **** *
 207:.\Generated_Source\PSoC4/comm_RS485_isr_WAKE.c **** * Parameters:
 208:.\Generated_Source\PSoC4/comm_RS485_isr_WAKE.c **** *   None
 209:.\Generated_Source\PSoC4/comm_RS485_isr_WAKE.c **** *
 210:.\Generated_Source\PSoC4/comm_RS485_isr_WAKE.c **** * Return:
 211:.\Generated_Source\PSoC4/comm_RS485_isr_WAKE.c **** *   Address of the ISR in the interrupt vector table.
 212:.\Generated_Source\PSoC4/comm_RS485_isr_WAKE.c **** *
 213:.\Generated_Source\PSoC4/comm_RS485_isr_WAKE.c **** *******************************************************************************/
 214:.\Generated_Source\PSoC4/comm_RS485_isr_WAKE.c **** cyisraddress comm_RS485_isr_WAKE_GetVector(void)
 215:.\Generated_Source\PSoC4/comm_RS485_isr_WAKE.c **** {
 216:.\Generated_Source\PSoC4/comm_RS485_isr_WAKE.c ****     return CyRamVectors[CYINT_IRQ_BASE + comm_RS485_isr_WAKE__INTC_NUMBER];
 217:.\Generated_Source\PSoC4/comm_RS485_isr_WAKE.c **** }
 218:.\Generated_Source\PSoC4/comm_RS485_isr_WAKE.c **** 
 219:.\Generated_Source\PSoC4/comm_RS485_isr_WAKE.c **** 
 220:.\Generated_Source\PSoC4/comm_RS485_isr_WAKE.c **** /*******************************************************************************
 221:.\Generated_Source\PSoC4/comm_RS485_isr_WAKE.c **** * Function Name: comm_RS485_isr_WAKE_SetPriority
 222:.\Generated_Source\PSoC4/comm_RS485_isr_WAKE.c **** ********************************************************************************
 223:.\Generated_Source\PSoC4/comm_RS485_isr_WAKE.c **** *
 224:.\Generated_Source\PSoC4/comm_RS485_isr_WAKE.c **** * Summary:
 225:.\Generated_Source\PSoC4/comm_RS485_isr_WAKE.c **** *   Sets the Priority of the Interrupt. 
 226:.\Generated_Source\PSoC4/comm_RS485_isr_WAKE.c **** *
 227:.\Generated_Source\PSoC4/comm_RS485_isr_WAKE.c **** *   Note calling comm_RS485_isr_WAKE_Start or comm_RS485_isr_WAKE_StartEx will 
 228:.\Generated_Source\PSoC4/comm_RS485_isr_WAKE.c **** *   override any effect this API would have had. This API should only be called
 229:.\Generated_Source\PSoC4/comm_RS485_isr_WAKE.c **** *   after comm_RS485_isr_WAKE_Start or comm_RS485_isr_WAKE_StartEx has been called. 
 230:.\Generated_Source\PSoC4/comm_RS485_isr_WAKE.c **** *   To set the initial priority for the component, use the Design-Wide Resources
 231:.\Generated_Source\PSoC4/comm_RS485_isr_WAKE.c **** *   Interrupt Editor.
 232:.\Generated_Source\PSoC4/comm_RS485_isr_WAKE.c **** *
 233:.\Generated_Source\PSoC4/comm_RS485_isr_WAKE.c **** *   Note This API has no effect on Non-maskable interrupt NMI).
 234:.\Generated_Source\PSoC4/comm_RS485_isr_WAKE.c **** *
 235:.\Generated_Source\PSoC4/comm_RS485_isr_WAKE.c **** * Parameters:
 236:.\Generated_Source\PSoC4/comm_RS485_isr_WAKE.c **** *   priority: Priority of the interrupt, 0 being the highest priority
 237:.\Generated_Source\PSoC4/comm_RS485_isr_WAKE.c **** *             PSoC 3 and PSoC 5LP: Priority is from 0 to 7.
 238:.\Generated_Source\PSoC4/comm_RS485_isr_WAKE.c **** *             PSoC 4: Priority is from 0 to 3.
 239:.\Generated_Source\PSoC4/comm_RS485_isr_WAKE.c **** *
ARM GAS  C:\Users\SDEVAS~1\AppData\Local\Temp\ccP4evVl.s 			page 6


 240:.\Generated_Source\PSoC4/comm_RS485_isr_WAKE.c **** * Return:
 241:.\Generated_Source\PSoC4/comm_RS485_isr_WAKE.c **** *   None
 242:.\Generated_Source\PSoC4/comm_RS485_isr_WAKE.c **** *
 243:.\Generated_Source\PSoC4/comm_RS485_isr_WAKE.c **** *******************************************************************************/
 244:.\Generated_Source\PSoC4/comm_RS485_isr_WAKE.c **** void comm_RS485_isr_WAKE_SetPriority(uint8 priority)
 245:.\Generated_Source\PSoC4/comm_RS485_isr_WAKE.c **** {
 246:.\Generated_Source\PSoC4/comm_RS485_isr_WAKE.c **** 	uint8 interruptState;
 247:.\Generated_Source\PSoC4/comm_RS485_isr_WAKE.c ****     uint32 priorityOffset = ((comm_RS485_isr_WAKE__INTC_NUMBER % 4u) * 8u) + 6u;
 248:.\Generated_Source\PSoC4/comm_RS485_isr_WAKE.c ****     
 249:.\Generated_Source\PSoC4/comm_RS485_isr_WAKE.c **** 	interruptState = CyEnterCriticalSection();
 250:.\Generated_Source\PSoC4/comm_RS485_isr_WAKE.c ****     *comm_RS485_isr_WAKE_INTC_PRIOR = (*comm_RS485_isr_WAKE_INTC_PRIOR & (uint32)(~comm_RS485_isr_W
 251:.\Generated_Source\PSoC4/comm_RS485_isr_WAKE.c ****                                     ((uint32)priority << priorityOffset);
 252:.\Generated_Source\PSoC4/comm_RS485_isr_WAKE.c **** 	CyExitCriticalSection(interruptState);
 253:.\Generated_Source\PSoC4/comm_RS485_isr_WAKE.c **** }
 254:.\Generated_Source\PSoC4/comm_RS485_isr_WAKE.c **** 
 255:.\Generated_Source\PSoC4/comm_RS485_isr_WAKE.c **** 
 256:.\Generated_Source\PSoC4/comm_RS485_isr_WAKE.c **** /*******************************************************************************
 257:.\Generated_Source\PSoC4/comm_RS485_isr_WAKE.c **** * Function Name: comm_RS485_isr_WAKE_GetPriority
 258:.\Generated_Source\PSoC4/comm_RS485_isr_WAKE.c **** ********************************************************************************
 259:.\Generated_Source\PSoC4/comm_RS485_isr_WAKE.c **** *
 260:.\Generated_Source\PSoC4/comm_RS485_isr_WAKE.c **** * Summary:
 261:.\Generated_Source\PSoC4/comm_RS485_isr_WAKE.c **** *   Gets the Priority of the Interrupt.
 262:.\Generated_Source\PSoC4/comm_RS485_isr_WAKE.c **** *
 263:.\Generated_Source\PSoC4/comm_RS485_isr_WAKE.c **** * Parameters:
 264:.\Generated_Source\PSoC4/comm_RS485_isr_WAKE.c **** *   None
 265:.\Generated_Source\PSoC4/comm_RS485_isr_WAKE.c **** *
 266:.\Generated_Source\PSoC4/comm_RS485_isr_WAKE.c **** * Return:
 267:.\Generated_Source\PSoC4/comm_RS485_isr_WAKE.c **** *   Priority of the interrupt, 0 being the highest priority
 268:.\Generated_Source\PSoC4/comm_RS485_isr_WAKE.c **** *    PSoC 3 and PSoC 5LP: Priority is from 0 to 7.
 269:.\Generated_Source\PSoC4/comm_RS485_isr_WAKE.c **** *    PSoC 4: Priority is from 0 to 3.
 270:.\Generated_Source\PSoC4/comm_RS485_isr_WAKE.c **** *
 271:.\Generated_Source\PSoC4/comm_RS485_isr_WAKE.c **** *******************************************************************************/
 272:.\Generated_Source\PSoC4/comm_RS485_isr_WAKE.c **** uint8 comm_RS485_isr_WAKE_GetPriority(void)
 273:.\Generated_Source\PSoC4/comm_RS485_isr_WAKE.c **** {
 274:.\Generated_Source\PSoC4/comm_RS485_isr_WAKE.c ****     uint32 priority;
 275:.\Generated_Source\PSoC4/comm_RS485_isr_WAKE.c **** 	uint32 priorityOffset = ((comm_RS485_isr_WAKE__INTC_NUMBER % 4u) * 8u) + 6u;
 276:.\Generated_Source\PSoC4/comm_RS485_isr_WAKE.c **** 
 277:.\Generated_Source\PSoC4/comm_RS485_isr_WAKE.c ****     priority = (*comm_RS485_isr_WAKE_INTC_PRIOR & comm_RS485_isr_WAKE__INTC_PRIOR_MASK) >> priority
 278:.\Generated_Source\PSoC4/comm_RS485_isr_WAKE.c **** 
 279:.\Generated_Source\PSoC4/comm_RS485_isr_WAKE.c ****     return (uint8)priority;
 280:.\Generated_Source\PSoC4/comm_RS485_isr_WAKE.c **** }
 281:.\Generated_Source\PSoC4/comm_RS485_isr_WAKE.c **** 
 282:.\Generated_Source\PSoC4/comm_RS485_isr_WAKE.c **** 
 283:.\Generated_Source\PSoC4/comm_RS485_isr_WAKE.c **** /*******************************************************************************
 284:.\Generated_Source\PSoC4/comm_RS485_isr_WAKE.c **** * Function Name: comm_RS485_isr_WAKE_Enable
 285:.\Generated_Source\PSoC4/comm_RS485_isr_WAKE.c **** ********************************************************************************
 286:.\Generated_Source\PSoC4/comm_RS485_isr_WAKE.c **** *
 287:.\Generated_Source\PSoC4/comm_RS485_isr_WAKE.c **** * Summary:
 288:.\Generated_Source\PSoC4/comm_RS485_isr_WAKE.c **** *   Enables the interrupt to the interrupt controller. Do not call this function
 289:.\Generated_Source\PSoC4/comm_RS485_isr_WAKE.c **** *   unless ISR_Start() has been called or the functionality of the ISR_Start() 
 290:.\Generated_Source\PSoC4/comm_RS485_isr_WAKE.c **** *   function, which sets the vector and the priority, has been called.
 291:.\Generated_Source\PSoC4/comm_RS485_isr_WAKE.c **** *
 292:.\Generated_Source\PSoC4/comm_RS485_isr_WAKE.c **** * Parameters:
 293:.\Generated_Source\PSoC4/comm_RS485_isr_WAKE.c **** *   None
 294:.\Generated_Source\PSoC4/comm_RS485_isr_WAKE.c **** *
 295:.\Generated_Source\PSoC4/comm_RS485_isr_WAKE.c **** * Return:
 296:.\Generated_Source\PSoC4/comm_RS485_isr_WAKE.c **** *   None
ARM GAS  C:\Users\SDEVAS~1\AppData\Local\Temp\ccP4evVl.s 			page 7


 297:.\Generated_Source\PSoC4/comm_RS485_isr_WAKE.c **** *
 298:.\Generated_Source\PSoC4/comm_RS485_isr_WAKE.c **** *******************************************************************************/
 299:.\Generated_Source\PSoC4/comm_RS485_isr_WAKE.c **** void comm_RS485_isr_WAKE_Enable(void)
 300:.\Generated_Source\PSoC4/comm_RS485_isr_WAKE.c **** {
 301:.\Generated_Source\PSoC4/comm_RS485_isr_WAKE.c ****     /* Enable the general interrupt. */
 302:.\Generated_Source\PSoC4/comm_RS485_isr_WAKE.c ****     *comm_RS485_isr_WAKE_INTC_SET_EN = comm_RS485_isr_WAKE__INTC_MASK;
 303:.\Generated_Source\PSoC4/comm_RS485_isr_WAKE.c **** }
 304:.\Generated_Source\PSoC4/comm_RS485_isr_WAKE.c **** 
 305:.\Generated_Source\PSoC4/comm_RS485_isr_WAKE.c **** 
 306:.\Generated_Source\PSoC4/comm_RS485_isr_WAKE.c **** /*******************************************************************************
 307:.\Generated_Source\PSoC4/comm_RS485_isr_WAKE.c **** * Function Name: comm_RS485_isr_WAKE_GetState
 308:.\Generated_Source\PSoC4/comm_RS485_isr_WAKE.c **** ********************************************************************************
 309:.\Generated_Source\PSoC4/comm_RS485_isr_WAKE.c **** *
 310:.\Generated_Source\PSoC4/comm_RS485_isr_WAKE.c **** * Summary:
 311:.\Generated_Source\PSoC4/comm_RS485_isr_WAKE.c **** *   Gets the state (enabled, disabled) of the Interrupt.
 312:.\Generated_Source\PSoC4/comm_RS485_isr_WAKE.c **** *
 313:.\Generated_Source\PSoC4/comm_RS485_isr_WAKE.c **** * Parameters:
 314:.\Generated_Source\PSoC4/comm_RS485_isr_WAKE.c **** *   None
 315:.\Generated_Source\PSoC4/comm_RS485_isr_WAKE.c **** *
 316:.\Generated_Source\PSoC4/comm_RS485_isr_WAKE.c **** * Return:
 317:.\Generated_Source\PSoC4/comm_RS485_isr_WAKE.c **** *   1 if enabled, 0 if disabled.
 318:.\Generated_Source\PSoC4/comm_RS485_isr_WAKE.c **** *
 319:.\Generated_Source\PSoC4/comm_RS485_isr_WAKE.c **** *******************************************************************************/
 320:.\Generated_Source\PSoC4/comm_RS485_isr_WAKE.c **** uint8 comm_RS485_isr_WAKE_GetState(void)
 321:.\Generated_Source\PSoC4/comm_RS485_isr_WAKE.c **** {
 322:.\Generated_Source\PSoC4/comm_RS485_isr_WAKE.c ****     /* Get the state of the general interrupt. */
 323:.\Generated_Source\PSoC4/comm_RS485_isr_WAKE.c ****     return ((*comm_RS485_isr_WAKE_INTC_SET_EN & (uint32)comm_RS485_isr_WAKE__INTC_MASK) != 0u) ? 1u
 324:.\Generated_Source\PSoC4/comm_RS485_isr_WAKE.c **** }
 325:.\Generated_Source\PSoC4/comm_RS485_isr_WAKE.c **** 
 326:.\Generated_Source\PSoC4/comm_RS485_isr_WAKE.c **** 
 327:.\Generated_Source\PSoC4/comm_RS485_isr_WAKE.c **** /*******************************************************************************
 328:.\Generated_Source\PSoC4/comm_RS485_isr_WAKE.c **** * Function Name: comm_RS485_isr_WAKE_Disable
 329:.\Generated_Source\PSoC4/comm_RS485_isr_WAKE.c **** ********************************************************************************
 330:.\Generated_Source\PSoC4/comm_RS485_isr_WAKE.c **** *
 331:.\Generated_Source\PSoC4/comm_RS485_isr_WAKE.c **** * Summary:
 332:.\Generated_Source\PSoC4/comm_RS485_isr_WAKE.c **** *   Disables the Interrupt in the interrupt controller.
 333:.\Generated_Source\PSoC4/comm_RS485_isr_WAKE.c **** *
 334:.\Generated_Source\PSoC4/comm_RS485_isr_WAKE.c **** * Parameters:
 335:.\Generated_Source\PSoC4/comm_RS485_isr_WAKE.c **** *   None
 336:.\Generated_Source\PSoC4/comm_RS485_isr_WAKE.c **** *
 337:.\Generated_Source\PSoC4/comm_RS485_isr_WAKE.c **** * Return:
 338:.\Generated_Source\PSoC4/comm_RS485_isr_WAKE.c **** *   None
 339:.\Generated_Source\PSoC4/comm_RS485_isr_WAKE.c **** *
 340:.\Generated_Source\PSoC4/comm_RS485_isr_WAKE.c **** *******************************************************************************/
 341:.\Generated_Source\PSoC4/comm_RS485_isr_WAKE.c **** void comm_RS485_isr_WAKE_Disable(void)
 342:.\Generated_Source\PSoC4/comm_RS485_isr_WAKE.c **** {
 343:.\Generated_Source\PSoC4/comm_RS485_isr_WAKE.c ****     /* Disable the general interrupt. */
 344:.\Generated_Source\PSoC4/comm_RS485_isr_WAKE.c ****     *comm_RS485_isr_WAKE_INTC_CLR_EN = comm_RS485_isr_WAKE__INTC_MASK;
  46              		.loc 1 344 0
  47 0000 034B     		ldr	r3, .L3
  48 0002 0122     		mov	r2, #1
  49 0004 1A60     		str	r2, [r3]
  50              	.LVL0:
  51              	.LBE19:
  52              	.LBE18:
  53              	.LBB20:
  54              	.LBB21:
ARM GAS  C:\Users\SDEVAS~1\AppData\Local\Temp\ccP4evVl.s 			page 8


 196:.\Generated_Source\PSoC4/comm_RS485_isr_WAKE.c ****     CyRamVectors[CYINT_IRQ_BASE + comm_RS485_isr_WAKE__INTC_NUMBER] = address;
  55              		.loc 1 196 0
  56 0006 034A     		ldr	r2, .L3+4
  57 0008 034B     		ldr	r3, .L3+8
  58              	.LBE21:
  59              	.LBE20:
 135:.\Generated_Source\PSoC4/comm_RS485_isr_WAKE.c **** }
  60              		.loc 1 135 0
  61              		@ sp needed
  62              	.LBB23:
  63              	.LBB22:
 196:.\Generated_Source\PSoC4/comm_RS485_isr_WAKE.c ****     CyRamVectors[CYINT_IRQ_BASE + comm_RS485_isr_WAKE__INTC_NUMBER] = address;
  64              		.loc 1 196 0
  65 000a 1A64     		str	r2, [r3, #64]
  66              	.LBE22:
  67              	.LBE23:
 135:.\Generated_Source\PSoC4/comm_RS485_isr_WAKE.c **** }
  68              		.loc 1 135 0
  69 000c 7047     		bx	lr
  70              	.L4:
  71 000e C046     		.align	2
  72              	.L3:
  73 0010 80E100E0 		.word	-536813184
  74 0014 00000000 		.word	IntDefaultHandler
  75 0018 00000000 		.word	CyRamVectors
  76              		.cfi_endproc
  77              	.LFE2:
  78              		.size	comm_RS485_isr_WAKE_Stop, .-comm_RS485_isr_WAKE_Stop
  79              		.section	.text.comm_RS485_isr_WAKE_SetVector,"ax",%progbits
  80              		.align	1
  81              		.global	comm_RS485_isr_WAKE_SetVector
  82              		.code	16
  83              		.thumb_func
  84              		.type	comm_RS485_isr_WAKE_SetVector, %function
  85              	comm_RS485_isr_WAKE_SetVector:
  86              	.LFB4:
 195:.\Generated_Source\PSoC4/comm_RS485_isr_WAKE.c **** {
  87              		.loc 1 195 0
  88              		.cfi_startproc
  89              	.LVL1:
 196:.\Generated_Source\PSoC4/comm_RS485_isr_WAKE.c ****     CyRamVectors[CYINT_IRQ_BASE + comm_RS485_isr_WAKE__INTC_NUMBER] = address;
  90              		.loc 1 196 0
  91 0000 014B     		ldr	r3, .L6
 197:.\Generated_Source\PSoC4/comm_RS485_isr_WAKE.c **** }
  92              		.loc 1 197 0
  93              		@ sp needed
 196:.\Generated_Source\PSoC4/comm_RS485_isr_WAKE.c ****     CyRamVectors[CYINT_IRQ_BASE + comm_RS485_isr_WAKE__INTC_NUMBER] = address;
  94              		.loc 1 196 0
  95 0002 1864     		str	r0, [r3, #64]
 197:.\Generated_Source\PSoC4/comm_RS485_isr_WAKE.c **** }
  96              		.loc 1 197 0
  97 0004 7047     		bx	lr
  98              	.L7:
  99 0006 C046     		.align	2
 100              	.L6:
 101 0008 00000000 		.word	CyRamVectors
 102              		.cfi_endproc
ARM GAS  C:\Users\SDEVAS~1\AppData\Local\Temp\ccP4evVl.s 			page 9


 103              	.LFE4:
 104              		.size	comm_RS485_isr_WAKE_SetVector, .-comm_RS485_isr_WAKE_SetVector
 105              		.section	.text.comm_RS485_isr_WAKE_GetVector,"ax",%progbits
 106              		.align	1
 107              		.global	comm_RS485_isr_WAKE_GetVector
 108              		.code	16
 109              		.thumb_func
 110              		.type	comm_RS485_isr_WAKE_GetVector, %function
 111              	comm_RS485_isr_WAKE_GetVector:
 112              	.LFB5:
 215:.\Generated_Source\PSoC4/comm_RS485_isr_WAKE.c **** {
 113              		.loc 1 215 0
 114              		.cfi_startproc
 216:.\Generated_Source\PSoC4/comm_RS485_isr_WAKE.c ****     return CyRamVectors[CYINT_IRQ_BASE + comm_RS485_isr_WAKE__INTC_NUMBER];
 115              		.loc 1 216 0
 116 0000 014B     		ldr	r3, .L9
 217:.\Generated_Source\PSoC4/comm_RS485_isr_WAKE.c **** }
 117              		.loc 1 217 0
 118              		@ sp needed
 216:.\Generated_Source\PSoC4/comm_RS485_isr_WAKE.c ****     return CyRamVectors[CYINT_IRQ_BASE + comm_RS485_isr_WAKE__INTC_NUMBER];
 119              		.loc 1 216 0
 120 0002 186C     		ldr	r0, [r3, #64]
 217:.\Generated_Source\PSoC4/comm_RS485_isr_WAKE.c **** }
 121              		.loc 1 217 0
 122 0004 7047     		bx	lr
 123              	.L10:
 124 0006 C046     		.align	2
 125              	.L9:
 126 0008 00000000 		.word	CyRamVectors
 127              		.cfi_endproc
 128              	.LFE5:
 129              		.size	comm_RS485_isr_WAKE_GetVector, .-comm_RS485_isr_WAKE_GetVector
 130              		.section	.text.comm_RS485_isr_WAKE_SetPriority,"ax",%progbits
 131              		.align	1
 132              		.global	comm_RS485_isr_WAKE_SetPriority
 133              		.code	16
 134              		.thumb_func
 135              		.type	comm_RS485_isr_WAKE_SetPriority, %function
 136              	comm_RS485_isr_WAKE_SetPriority:
 137              	.LFB6:
 245:.\Generated_Source\PSoC4/comm_RS485_isr_WAKE.c **** {
 138              		.loc 1 245 0
 139              		.cfi_startproc
 140              	.LVL2:
 141 0000 10B5     		push	{r4, lr}
 142              		.cfi_def_cfa_offset 8
 143              		.cfi_offset 4, -8
 144              		.cfi_offset 14, -4
 245:.\Generated_Source\PSoC4/comm_RS485_isr_WAKE.c **** {
 145              		.loc 1 245 0
 146 0002 041C     		mov	r4, r0
 249:.\Generated_Source\PSoC4/comm_RS485_isr_WAKE.c **** 	interruptState = CyEnterCriticalSection();
 147              		.loc 1 249 0
 148 0004 FFF7FEFF 		bl	CyEnterCriticalSection
 149              	.LVL3:
 250:.\Generated_Source\PSoC4/comm_RS485_isr_WAKE.c ****     *comm_RS485_isr_WAKE_INTC_PRIOR = (*comm_RS485_isr_WAKE_INTC_PRIOR & (uint32)(~comm_RS485_isr_W
 150              		.loc 1 250 0
ARM GAS  C:\Users\SDEVAS~1\AppData\Local\Temp\ccP4evVl.s 			page 10


 151 0008 054B     		ldr	r3, .L12
 251:.\Generated_Source\PSoC4/comm_RS485_isr_WAKE.c ****                                     ((uint32)priority << priorityOffset);
 152              		.loc 1 251 0
 153 000a A201     		lsl	r2, r4, #6
 250:.\Generated_Source\PSoC4/comm_RS485_isr_WAKE.c ****     *comm_RS485_isr_WAKE_INTC_PRIOR = (*comm_RS485_isr_WAKE_INTC_PRIOR & (uint32)(~comm_RS485_isr_W
 154              		.loc 1 250 0
 155 000c 1968     		ldr	r1, [r3]
 156 000e C024     		mov	r4, #192
 157 0010 A143     		bic	r1, r4
 158 0012 0C1C     		mov	r4, r1
 159 0014 1443     		orr	r4, r2
 160 0016 1C60     		str	r4, [r3]
 252:.\Generated_Source\PSoC4/comm_RS485_isr_WAKE.c **** 	CyExitCriticalSection(interruptState);
 161              		.loc 1 252 0
 162 0018 FFF7FEFF 		bl	CyExitCriticalSection
 163              	.LVL4:
 253:.\Generated_Source\PSoC4/comm_RS485_isr_WAKE.c **** }
 164              		.loc 1 253 0
 165              		@ sp needed
 166 001c 10BD     		pop	{r4, pc}
 167              	.L13:
 168 001e C046     		.align	2
 169              	.L12:
 170 0020 00E400E0 		.word	-536812544
 171              		.cfi_endproc
 172              	.LFE6:
 173              		.size	comm_RS485_isr_WAKE_SetPriority, .-comm_RS485_isr_WAKE_SetPriority
 174              		.section	.text.comm_RS485_isr_WAKE_Start,"ax",%progbits
 175              		.align	1
 176              		.global	comm_RS485_isr_WAKE_Start
 177              		.code	16
 178              		.thumb_func
 179              		.type	comm_RS485_isr_WAKE_Start, %function
 180              	comm_RS485_isr_WAKE_Start:
 181              	.LFB0:
  56:.\Generated_Source\PSoC4/comm_RS485_isr_WAKE.c **** {
 182              		.loc 1 56 0
 183              		.cfi_startproc
 184              	.LBB24:
 185              	.LBB25:
 186              		.loc 1 344 0
 187 0000 064B     		ldr	r3, .L15
 188              	.LBE25:
 189              	.LBE24:
  56:.\Generated_Source\PSoC4/comm_RS485_isr_WAKE.c **** {
 190              		.loc 1 56 0
 191 0002 10B5     		push	{r4, lr}
 192              		.cfi_def_cfa_offset 8
 193              		.cfi_offset 4, -8
 194              		.cfi_offset 14, -4
 195              	.LBB27:
 196              	.LBB26:
 197              		.loc 1 344 0
 198 0004 0124     		mov	r4, #1
 199 0006 1C60     		str	r4, [r3]
 200              	.LVL5:
 201              	.LBE26:
ARM GAS  C:\Users\SDEVAS~1\AppData\Local\Temp\ccP4evVl.s 			page 11


 202              	.LBE27:
 203              	.LBB28:
 204              	.LBB29:
 196:.\Generated_Source\PSoC4/comm_RS485_isr_WAKE.c ****     CyRamVectors[CYINT_IRQ_BASE + comm_RS485_isr_WAKE__INTC_NUMBER] = address;
 205              		.loc 1 196 0
 206 0008 054A     		ldr	r2, .L15+4
 207 000a 064B     		ldr	r3, .L15+8
 208              	.LBE29:
 209              	.LBE28:
  64:.\Generated_Source\PSoC4/comm_RS485_isr_WAKE.c ****     comm_RS485_isr_WAKE_SetPriority((uint8)comm_RS485_isr_WAKE_INTC_PRIOR_NUMBER);
 210              		.loc 1 64 0
 211 000c 0320     		mov	r0, #3
 212              	.LBB31:
 213              	.LBB30:
 196:.\Generated_Source\PSoC4/comm_RS485_isr_WAKE.c ****     CyRamVectors[CYINT_IRQ_BASE + comm_RS485_isr_WAKE__INTC_NUMBER] = address;
 214              		.loc 1 196 0
 215 000e 1A64     		str	r2, [r3, #64]
 216              	.LBE30:
 217              	.LBE31:
  64:.\Generated_Source\PSoC4/comm_RS485_isr_WAKE.c ****     comm_RS485_isr_WAKE_SetPriority((uint8)comm_RS485_isr_WAKE_INTC_PRIOR_NUMBER);
 218              		.loc 1 64 0
 219 0010 FFF7FEFF 		bl	comm_RS485_isr_WAKE_SetPriority
 220              	.LVL6:
 221              	.LBB32:
 222              	.LBB33:
 302:.\Generated_Source\PSoC4/comm_RS485_isr_WAKE.c ****     *comm_RS485_isr_WAKE_INTC_SET_EN = comm_RS485_isr_WAKE__INTC_MASK;
 223              		.loc 1 302 0
 224 0014 044B     		ldr	r3, .L15+12
 225              	.LBE33:
 226              	.LBE32:
  68:.\Generated_Source\PSoC4/comm_RS485_isr_WAKE.c **** }
 227              		.loc 1 68 0
 228              		@ sp needed
 229              	.LBB35:
 230              	.LBB34:
 302:.\Generated_Source\PSoC4/comm_RS485_isr_WAKE.c ****     *comm_RS485_isr_WAKE_INTC_SET_EN = comm_RS485_isr_WAKE__INTC_MASK;
 231              		.loc 1 302 0
 232 0016 1C60     		str	r4, [r3]
 233              	.LBE34:
 234              	.LBE35:
  68:.\Generated_Source\PSoC4/comm_RS485_isr_WAKE.c **** }
 235              		.loc 1 68 0
 236 0018 10BD     		pop	{r4, pc}
 237              	.L16:
 238 001a C046     		.align	2
 239              	.L15:
 240 001c 80E100E0 		.word	-536813184
 241 0020 00000000 		.word	comm_RS485_isr_WAKE_Interrupt
 242 0024 00000000 		.word	CyRamVectors
 243 0028 00E100E0 		.word	-536813312
 244              		.cfi_endproc
 245              	.LFE0:
 246              		.size	comm_RS485_isr_WAKE_Start, .-comm_RS485_isr_WAKE_Start
 247              		.section	.text.comm_RS485_isr_WAKE_StartEx,"ax",%progbits
 248              		.align	1
 249              		.global	comm_RS485_isr_WAKE_StartEx
 250              		.code	16
ARM GAS  C:\Users\SDEVAS~1\AppData\Local\Temp\ccP4evVl.s 			page 12


 251              		.thumb_func
 252              		.type	comm_RS485_isr_WAKE_StartEx, %function
 253              	comm_RS485_isr_WAKE_StartEx:
 254              	.LFB1:
  99:.\Generated_Source\PSoC4/comm_RS485_isr_WAKE.c **** {
 255              		.loc 1 99 0
 256              		.cfi_startproc
 257              	.LVL7:
 258              	.LBB36:
 259              	.LBB37:
 260              		.loc 1 344 0
 261 0000 054B     		ldr	r3, .L18
 262              	.LBE37:
 263              	.LBE36:
  99:.\Generated_Source\PSoC4/comm_RS485_isr_WAKE.c **** {
 264              		.loc 1 99 0
 265 0002 10B5     		push	{r4, lr}
 266              		.cfi_def_cfa_offset 8
 267              		.cfi_offset 4, -8
 268              		.cfi_offset 14, -4
 269              	.LBB39:
 270              	.LBB38:
 271              		.loc 1 344 0
 272 0004 0124     		mov	r4, #1
 273 0006 1C60     		str	r4, [r3]
 274              	.LVL8:
 275              	.LBE38:
 276              	.LBE39:
 277              	.LBB40:
 278              	.LBB41:
 196:.\Generated_Source\PSoC4/comm_RS485_isr_WAKE.c ****     CyRamVectors[CYINT_IRQ_BASE + comm_RS485_isr_WAKE__INTC_NUMBER] = address;
 279              		.loc 1 196 0
 280 0008 044B     		ldr	r3, .L18+4
 281              	.LBE41:
 282              	.LBE40:
 111:.\Generated_Source\PSoC4/comm_RS485_isr_WAKE.c **** }
 283              		.loc 1 111 0
 284              		@ sp needed
 285              	.LBB43:
 286              	.LBB42:
 196:.\Generated_Source\PSoC4/comm_RS485_isr_WAKE.c ****     CyRamVectors[CYINT_IRQ_BASE + comm_RS485_isr_WAKE__INTC_NUMBER] = address;
 287              		.loc 1 196 0
 288 000a 1864     		str	r0, [r3, #64]
 289              	.LBE42:
 290              	.LBE43:
 107:.\Generated_Source\PSoC4/comm_RS485_isr_WAKE.c ****     comm_RS485_isr_WAKE_SetPriority((uint8)comm_RS485_isr_WAKE_INTC_PRIOR_NUMBER);
 291              		.loc 1 107 0
 292 000c 0320     		mov	r0, #3
 293              	.LVL9:
 294 000e FFF7FEFF 		bl	comm_RS485_isr_WAKE_SetPriority
 295              	.LVL10:
 296              	.LBB44:
 297              	.LBB45:
 302:.\Generated_Source\PSoC4/comm_RS485_isr_WAKE.c ****     *comm_RS485_isr_WAKE_INTC_SET_EN = comm_RS485_isr_WAKE__INTC_MASK;
 298              		.loc 1 302 0
 299 0012 034B     		ldr	r3, .L18+8
 300 0014 1C60     		str	r4, [r3]
ARM GAS  C:\Users\SDEVAS~1\AppData\Local\Temp\ccP4evVl.s 			page 13


 301              	.LBE45:
 302              	.LBE44:
 111:.\Generated_Source\PSoC4/comm_RS485_isr_WAKE.c **** }
 303              		.loc 1 111 0
 304 0016 10BD     		pop	{r4, pc}
 305              	.L19:
 306              		.align	2
 307              	.L18:
 308 0018 80E100E0 		.word	-536813184
 309 001c 00000000 		.word	CyRamVectors
 310 0020 00E100E0 		.word	-536813312
 311              		.cfi_endproc
 312              	.LFE1:
 313              		.size	comm_RS485_isr_WAKE_StartEx, .-comm_RS485_isr_WAKE_StartEx
 314              		.section	.text.comm_RS485_isr_WAKE_GetPriority,"ax",%progbits
 315              		.align	1
 316              		.global	comm_RS485_isr_WAKE_GetPriority
 317              		.code	16
 318              		.thumb_func
 319              		.type	comm_RS485_isr_WAKE_GetPriority, %function
 320              	comm_RS485_isr_WAKE_GetPriority:
 321              	.LFB7:
 273:.\Generated_Source\PSoC4/comm_RS485_isr_WAKE.c **** {
 322              		.loc 1 273 0
 323              		.cfi_startproc
 324              	.LVL11:
 277:.\Generated_Source\PSoC4/comm_RS485_isr_WAKE.c ****     priority = (*comm_RS485_isr_WAKE_INTC_PRIOR & comm_RS485_isr_WAKE__INTC_PRIOR_MASK) >> priority
 325              		.loc 1 277 0
 326 0000 024B     		ldr	r3, .L21
 280:.\Generated_Source\PSoC4/comm_RS485_isr_WAKE.c **** }
 327              		.loc 1 280 0
 328              		@ sp needed
 277:.\Generated_Source\PSoC4/comm_RS485_isr_WAKE.c ****     priority = (*comm_RS485_isr_WAKE_INTC_PRIOR & comm_RS485_isr_WAKE__INTC_PRIOR_MASK) >> priority
 329              		.loc 1 277 0
 330 0002 1868     		ldr	r0, [r3]
 331              	.LVL12:
 332 0004 0006     		lsl	r0, r0, #24
 333              	.LVL13:
 279:.\Generated_Source\PSoC4/comm_RS485_isr_WAKE.c ****     return (uint8)priority;
 334              		.loc 1 279 0
 335 0006 800F     		lsr	r0, r0, #30
 280:.\Generated_Source\PSoC4/comm_RS485_isr_WAKE.c **** }
 336              		.loc 1 280 0
 337 0008 7047     		bx	lr
 338              	.L22:
 339 000a C046     		.align	2
 340              	.L21:
 341 000c 00E400E0 		.word	-536812544
 342              		.cfi_endproc
 343              	.LFE7:
 344              		.size	comm_RS485_isr_WAKE_GetPriority, .-comm_RS485_isr_WAKE_GetPriority
 345              		.section	.text.comm_RS485_isr_WAKE_Enable,"ax",%progbits
 346              		.align	1
 347              		.global	comm_RS485_isr_WAKE_Enable
 348              		.code	16
 349              		.thumb_func
 350              		.type	comm_RS485_isr_WAKE_Enable, %function
ARM GAS  C:\Users\SDEVAS~1\AppData\Local\Temp\ccP4evVl.s 			page 14


 351              	comm_RS485_isr_WAKE_Enable:
 352              	.LFB8:
 300:.\Generated_Source\PSoC4/comm_RS485_isr_WAKE.c **** {
 353              		.loc 1 300 0
 354              		.cfi_startproc
 302:.\Generated_Source\PSoC4/comm_RS485_isr_WAKE.c ****     *comm_RS485_isr_WAKE_INTC_SET_EN = comm_RS485_isr_WAKE__INTC_MASK;
 355              		.loc 1 302 0
 356 0000 014B     		ldr	r3, .L24
 357 0002 0122     		mov	r2, #1
 358 0004 1A60     		str	r2, [r3]
 303:.\Generated_Source\PSoC4/comm_RS485_isr_WAKE.c **** }
 359              		.loc 1 303 0
 360              		@ sp needed
 361 0006 7047     		bx	lr
 362              	.L25:
 363              		.align	2
 364              	.L24:
 365 0008 00E100E0 		.word	-536813312
 366              		.cfi_endproc
 367              	.LFE8:
 368              		.size	comm_RS485_isr_WAKE_Enable, .-comm_RS485_isr_WAKE_Enable
 369              		.section	.text.comm_RS485_isr_WAKE_GetState,"ax",%progbits
 370              		.align	1
 371              		.global	comm_RS485_isr_WAKE_GetState
 372              		.code	16
 373              		.thumb_func
 374              		.type	comm_RS485_isr_WAKE_GetState, %function
 375              	comm_RS485_isr_WAKE_GetState:
 376              	.LFB9:
 321:.\Generated_Source\PSoC4/comm_RS485_isr_WAKE.c **** {
 377              		.loc 1 321 0
 378              		.cfi_startproc
 323:.\Generated_Source\PSoC4/comm_RS485_isr_WAKE.c ****     return ((*comm_RS485_isr_WAKE_INTC_SET_EN & (uint32)comm_RS485_isr_WAKE__INTC_MASK) != 0u) ? 1u
 379              		.loc 1 323 0
 380 0000 024B     		ldr	r3, .L27
 324:.\Generated_Source\PSoC4/comm_RS485_isr_WAKE.c **** }
 381              		.loc 1 324 0
 382              		@ sp needed
 323:.\Generated_Source\PSoC4/comm_RS485_isr_WAKE.c ****     return ((*comm_RS485_isr_WAKE_INTC_SET_EN & (uint32)comm_RS485_isr_WAKE__INTC_MASK) != 0u) ? 1u
 383              		.loc 1 323 0
 384 0002 1868     		ldr	r0, [r3]
 385 0004 0123     		mov	r3, #1
 386 0006 1840     		and	r0, r3
 324:.\Generated_Source\PSoC4/comm_RS485_isr_WAKE.c **** }
 387              		.loc 1 324 0
 388 0008 7047     		bx	lr
 389              	.L28:
 390 000a C046     		.align	2
 391              	.L27:
 392 000c 00E100E0 		.word	-536813312
 393              		.cfi_endproc
 394              	.LFE9:
 395              		.size	comm_RS485_isr_WAKE_GetState, .-comm_RS485_isr_WAKE_GetState
 396              		.section	.text.comm_RS485_isr_WAKE_Disable,"ax",%progbits
 397              		.align	1
 398              		.global	comm_RS485_isr_WAKE_Disable
 399              		.code	16
ARM GAS  C:\Users\SDEVAS~1\AppData\Local\Temp\ccP4evVl.s 			page 15


 400              		.thumb_func
 401              		.type	comm_RS485_isr_WAKE_Disable, %function
 402              	comm_RS485_isr_WAKE_Disable:
 403              	.LFB10:
 342:.\Generated_Source\PSoC4/comm_RS485_isr_WAKE.c **** {
 404              		.loc 1 342 0
 405              		.cfi_startproc
 406              		.loc 1 344 0
 407 0000 014B     		ldr	r3, .L30
 408 0002 0122     		mov	r2, #1
 409 0004 1A60     		str	r2, [r3]
 345:.\Generated_Source\PSoC4/comm_RS485_isr_WAKE.c **** }
 410              		.loc 1 345 0
 411              		@ sp needed
 412 0006 7047     		bx	lr
 413              	.L31:
 414              		.align	2
 415              	.L30:
 416 0008 80E100E0 		.word	-536813184
 417              		.cfi_endproc
 418              	.LFE10:
 419              		.size	comm_RS485_isr_WAKE_Disable, .-comm_RS485_isr_WAKE_Disable
 420              		.section	.text.comm_RS485_isr_WAKE_SetPending,"ax",%progbits
 421              		.align	1
 422              		.global	comm_RS485_isr_WAKE_SetPending
 423              		.code	16
 424              		.thumb_func
 425              		.type	comm_RS485_isr_WAKE_SetPending, %function
 426              	comm_RS485_isr_WAKE_SetPending:
 427              	.LFB11:
 346:.\Generated_Source\PSoC4/comm_RS485_isr_WAKE.c **** 
 347:.\Generated_Source\PSoC4/comm_RS485_isr_WAKE.c **** 
 348:.\Generated_Source\PSoC4/comm_RS485_isr_WAKE.c **** /*******************************************************************************
 349:.\Generated_Source\PSoC4/comm_RS485_isr_WAKE.c **** * Function Name: comm_RS485_isr_WAKE_SetPending
 350:.\Generated_Source\PSoC4/comm_RS485_isr_WAKE.c **** ********************************************************************************
 351:.\Generated_Source\PSoC4/comm_RS485_isr_WAKE.c **** *
 352:.\Generated_Source\PSoC4/comm_RS485_isr_WAKE.c **** * Summary:
 353:.\Generated_Source\PSoC4/comm_RS485_isr_WAKE.c **** *   Causes the Interrupt to enter the pending state, a software method of
 354:.\Generated_Source\PSoC4/comm_RS485_isr_WAKE.c **** *   generating the interrupt.
 355:.\Generated_Source\PSoC4/comm_RS485_isr_WAKE.c **** *
 356:.\Generated_Source\PSoC4/comm_RS485_isr_WAKE.c **** * Parameters:
 357:.\Generated_Source\PSoC4/comm_RS485_isr_WAKE.c **** *   None
 358:.\Generated_Source\PSoC4/comm_RS485_isr_WAKE.c **** *
 359:.\Generated_Source\PSoC4/comm_RS485_isr_WAKE.c **** * Return:
 360:.\Generated_Source\PSoC4/comm_RS485_isr_WAKE.c **** *   None
 361:.\Generated_Source\PSoC4/comm_RS485_isr_WAKE.c **** *
 362:.\Generated_Source\PSoC4/comm_RS485_isr_WAKE.c **** * Side Effects:
 363:.\Generated_Source\PSoC4/comm_RS485_isr_WAKE.c **** *   If interrupts are enabled and the interrupt is set up properly, the ISR is
 364:.\Generated_Source\PSoC4/comm_RS485_isr_WAKE.c **** *   entered (depending on the priority of this interrupt and other pending 
 365:.\Generated_Source\PSoC4/comm_RS485_isr_WAKE.c **** *   interrupts).
 366:.\Generated_Source\PSoC4/comm_RS485_isr_WAKE.c **** *
 367:.\Generated_Source\PSoC4/comm_RS485_isr_WAKE.c **** *******************************************************************************/
 368:.\Generated_Source\PSoC4/comm_RS485_isr_WAKE.c **** void comm_RS485_isr_WAKE_SetPending(void)
 369:.\Generated_Source\PSoC4/comm_RS485_isr_WAKE.c **** {
 428              		.loc 1 369 0
 429              		.cfi_startproc
 370:.\Generated_Source\PSoC4/comm_RS485_isr_WAKE.c ****     *comm_RS485_isr_WAKE_INTC_SET_PD = comm_RS485_isr_WAKE__INTC_MASK;
ARM GAS  C:\Users\SDEVAS~1\AppData\Local\Temp\ccP4evVl.s 			page 16


 430              		.loc 1 370 0
 431 0000 014B     		ldr	r3, .L33
 432 0002 0122     		mov	r2, #1
 433 0004 1A60     		str	r2, [r3]
 371:.\Generated_Source\PSoC4/comm_RS485_isr_WAKE.c **** }
 434              		.loc 1 371 0
 435              		@ sp needed
 436 0006 7047     		bx	lr
 437              	.L34:
 438              		.align	2
 439              	.L33:
 440 0008 00E200E0 		.word	-536813056
 441              		.cfi_endproc
 442              	.LFE11:
 443              		.size	comm_RS485_isr_WAKE_SetPending, .-comm_RS485_isr_WAKE_SetPending
 444              		.section	.text.comm_RS485_isr_WAKE_ClearPending,"ax",%progbits
 445              		.align	1
 446              		.global	comm_RS485_isr_WAKE_ClearPending
 447              		.code	16
 448              		.thumb_func
 449              		.type	comm_RS485_isr_WAKE_ClearPending, %function
 450              	comm_RS485_isr_WAKE_ClearPending:
 451              	.LFB12:
 372:.\Generated_Source\PSoC4/comm_RS485_isr_WAKE.c **** 
 373:.\Generated_Source\PSoC4/comm_RS485_isr_WAKE.c **** 
 374:.\Generated_Source\PSoC4/comm_RS485_isr_WAKE.c **** /*******************************************************************************
 375:.\Generated_Source\PSoC4/comm_RS485_isr_WAKE.c **** * Function Name: comm_RS485_isr_WAKE_ClearPending
 376:.\Generated_Source\PSoC4/comm_RS485_isr_WAKE.c **** ********************************************************************************
 377:.\Generated_Source\PSoC4/comm_RS485_isr_WAKE.c **** *
 378:.\Generated_Source\PSoC4/comm_RS485_isr_WAKE.c **** * Summary:
 379:.\Generated_Source\PSoC4/comm_RS485_isr_WAKE.c **** *   Clears a pending interrupt in the interrupt controller.
 380:.\Generated_Source\PSoC4/comm_RS485_isr_WAKE.c **** *
 381:.\Generated_Source\PSoC4/comm_RS485_isr_WAKE.c **** *   Note Some interrupt sources are clear-on-read and require the block 
 382:.\Generated_Source\PSoC4/comm_RS485_isr_WAKE.c **** *   interrupt/status register to be read/cleared with the appropriate block API 
 383:.\Generated_Source\PSoC4/comm_RS485_isr_WAKE.c **** *   (GPIO, UART, and so on). Otherwise the ISR will continue to remain in 
 384:.\Generated_Source\PSoC4/comm_RS485_isr_WAKE.c **** *   pending state even though the interrupt itself is cleared using this API.
 385:.\Generated_Source\PSoC4/comm_RS485_isr_WAKE.c **** *
 386:.\Generated_Source\PSoC4/comm_RS485_isr_WAKE.c **** * Parameters:
 387:.\Generated_Source\PSoC4/comm_RS485_isr_WAKE.c **** *   None
 388:.\Generated_Source\PSoC4/comm_RS485_isr_WAKE.c **** *
 389:.\Generated_Source\PSoC4/comm_RS485_isr_WAKE.c **** * Return:
 390:.\Generated_Source\PSoC4/comm_RS485_isr_WAKE.c **** *   None
 391:.\Generated_Source\PSoC4/comm_RS485_isr_WAKE.c **** *
 392:.\Generated_Source\PSoC4/comm_RS485_isr_WAKE.c **** *******************************************************************************/
 393:.\Generated_Source\PSoC4/comm_RS485_isr_WAKE.c **** void comm_RS485_isr_WAKE_ClearPending(void)
 394:.\Generated_Source\PSoC4/comm_RS485_isr_WAKE.c **** {
 452              		.loc 1 394 0
 453              		.cfi_startproc
 395:.\Generated_Source\PSoC4/comm_RS485_isr_WAKE.c ****     *comm_RS485_isr_WAKE_INTC_CLR_PD = comm_RS485_isr_WAKE__INTC_MASK;
 454              		.loc 1 395 0
 455 0000 014B     		ldr	r3, .L36
 456 0002 0122     		mov	r2, #1
 457 0004 1A60     		str	r2, [r3]
 396:.\Generated_Source\PSoC4/comm_RS485_isr_WAKE.c **** }
 458              		.loc 1 396 0
 459              		@ sp needed
 460 0006 7047     		bx	lr
ARM GAS  C:\Users\SDEVAS~1\AppData\Local\Temp\ccP4evVl.s 			page 17


 461              	.L37:
 462              		.align	2
 463              	.L36:
 464 0008 80E200E0 		.word	-536812928
 465              		.cfi_endproc
 466              	.LFE12:
 467              		.size	comm_RS485_isr_WAKE_ClearPending, .-comm_RS485_isr_WAKE_ClearPending
 468              		.text
 469              	.Letext0:
 470              		.file 2 "Generated_Source\\PSoC4/cytypes.h"
 471              		.file 3 "Generated_Source\\PSoC4/CyLib.h"