ARM GAS  C:\Users\SDEVAS~1\AppData\Local\Temp\ccfNj7w1.s 			page 1


   1              		.cpu cortex-m0
   2              		.fpu softvfp
   3              		.eabi_attribute 20, 1
   4              		.eabi_attribute 21, 1
   5              		.eabi_attribute 23, 3
   6              		.eabi_attribute 24, 1
   7              		.eabi_attribute 25, 1
   8              		.eabi_attribute 26, 1
   9              		.eabi_attribute 30, 4
  10              		.eabi_attribute 34, 0
  11              		.eabi_attribute 18, 4
  12              		.code	16
  13              		.file	"comm_RS485.c"
  14              		.text
  15              	.Ltext0:
  16              		.cfi_sections	.debug_frame
  17              		.section	.text.comm_RS485_Uart_isr,"ax",%progbits
  18              		.align	1
  19              		.global	comm_RS485_Uart_isr
  20              		.code	16
  21              		.thumb_func
  22              		.type	comm_RS485_Uart_isr, %function
  23              	comm_RS485_Uart_isr:
  24              	.LFB35:
  25              		.file 1 ".\\Generated_Source\\PSoC4\\comm_RS485.c"
   1:.\Generated_Source\PSoC4/comm_RS485.c **** /* ========================================
   2:.\Generated_Source\PSoC4/comm_RS485.c ****  *
   3:.\Generated_Source\PSoC4/comm_RS485.c ****  * Copyright Thaumatec, 2015
   4:.\Generated_Source\PSoC4/comm_RS485.c ****  * All Rights Reserved
   5:.\Generated_Source\PSoC4/comm_RS485.c ****  * UNPUBLISHED, LICENSED SOFTWARE.
   6:.\Generated_Source\PSoC4/comm_RS485.c ****  *
   7:.\Generated_Source\PSoC4/comm_RS485.c ****  * CONFIDENTIAL AND PROPRIETARY INFORMATION
   8:.\Generated_Source\PSoC4/comm_RS485.c ****  * WHICH IS THE PROPERTY OF Thaumatec.
   9:.\Generated_Source\PSoC4/comm_RS485.c ****  *
  10:.\Generated_Source\PSoC4/comm_RS485.c ****  * ========================================
  11:.\Generated_Source\PSoC4/comm_RS485.c **** */
  12:.\Generated_Source\PSoC4/comm_RS485.c **** //#include "comm_RS485_Atom.h"
  13:.\Generated_Source\PSoC4/comm_RS485.c **** #include <project.h>
  14:.\Generated_Source\PSoC4/comm_RS485.c **** 
  15:.\Generated_Source\PSoC4/comm_RS485.c **** 
  16:.\Generated_Source\PSoC4/comm_RS485.c **** typedef enum {
  17:.\Generated_Source\PSoC4/comm_RS485.c **** 	comm_RS485_SLEEPING,
  18:.\Generated_Source\PSoC4/comm_RS485.c **** #if comm_RS485_IS_ARBITER
  19:.\Generated_Source\PSoC4/comm_RS485.c ****   comm_RS485_ARBITRING,
  20:.\Generated_Source\PSoC4/comm_RS485.c **** #else
  21:.\Generated_Source\PSoC4/comm_RS485.c ****   comm_RS485_MASTER_RELEASING_BUS,
  22:.\Generated_Source\PSoC4/comm_RS485.c **** #endif
  23:.\Generated_Source\PSoC4/comm_RS485.c **** 
  24:.\Generated_Source\PSoC4/comm_RS485.c **** 	comm_RS485_LISTENING,
  25:.\Generated_Source\PSoC4/comm_RS485.c **** 	comm_RS485_SELECTING_AS_SLAVE,
  26:.\Generated_Source\PSoC4/comm_RS485.c **** 	comm_RS485_SLAVE_OP,
  27:.\Generated_Source\PSoC4/comm_RS485.c **** 
  28:.\Generated_Source\PSoC4/comm_RS485.c **** 	comm_RS485_MASTER_CHOOSING_SLAVE,
  29:.\Generated_Source\PSoC4/comm_RS485.c **** 	comm_RS485_MASTER_OP,
  30:.\Generated_Source\PSoC4/comm_RS485.c **** 	comm_RS485_MASTER_RELEASING_SLAVE,
  31:.\Generated_Source\PSoC4/comm_RS485.c **** 
  32:.\Generated_Source\PSoC4/comm_RS485.c **** 
ARM GAS  C:\Users\SDEVAS~1\AppData\Local\Temp\ccfNj7w1.s 			page 2


  33:.\Generated_Source\PSoC4/comm_RS485.c **** 
  34:.\Generated_Source\PSoC4/comm_RS485.c **** } comm_RS485_state;
  35:.\Generated_Source\PSoC4/comm_RS485.c **** 
  36:.\Generated_Source\PSoC4/comm_RS485.c **** 
  37:.\Generated_Source\PSoC4/comm_RS485.c **** #define comm_RS485_ASSERT_WAKE() CyPins_ClearPin(comm_RS485_WAKE_0)
  38:.\Generated_Source\PSoC4/comm_RS485.c **** #define comm_RS485_RELEASE_WAKE() CyPins_SetPin(comm_RS485_WAKE_0)
  39:.\Generated_Source\PSoC4/comm_RS485.c **** #define comm_RS485_IS_WAKE_ASSERTED() (!comm_RS485_WAKE_ReadDataReg())
  40:.\Generated_Source\PSoC4/comm_RS485.c **** 
  41:.\Generated_Source\PSoC4/comm_RS485.c **** #define comm_RS485_TRANSCEIVER_TX_EN() \
  42:.\Generated_Source\PSoC4/comm_RS485.c ****   do { CyPins_SetPin(comm_RS485_DE_0); \
  43:.\Generated_Source\PSoC4/comm_RS485.c ****        CyPins_SetPin(comm_RS485_nRE_0); \
  44:.\Generated_Source\PSoC4/comm_RS485.c ****        comm_RS485_UART_DISABLE_INTR_RX(comm_RS485_UART_INTR_RX_NOT_EMPTY); } while(0)
  45:.\Generated_Source\PSoC4/comm_RS485.c **** 
  46:.\Generated_Source\PSoC4/comm_RS485.c **** #define comm_RS485_TRANSCEIVER_RX_EN() \
  47:.\Generated_Source\PSoC4/comm_RS485.c ****   do { CyPins_ClearPin(comm_RS485_DE_0); \
  48:.\Generated_Source\PSoC4/comm_RS485.c ****        CyPins_ClearPin(comm_RS485_nRE_0); \
  49:.\Generated_Source\PSoC4/comm_RS485.c ****        comm_RS485_UART_SpiUartClearRxBuffer(); \
  50:.\Generated_Source\PSoC4/comm_RS485.c ****        comm_RS485_UART_ENABLE_INTR_RX(comm_RS485_UART_INTR_RX_NOT_EMPTY); } while(0)
  51:.\Generated_Source\PSoC4/comm_RS485.c **** 
  52:.\Generated_Source\PSoC4/comm_RS485.c **** #define comm_RS485_TRANSCEIVER_SHUTDOWN() \
  53:.\Generated_Source\PSoC4/comm_RS485.c ****   do { CyPins_ClearPin(comm_RS485_DE_0); \
  54:.\Generated_Source\PSoC4/comm_RS485.c ****        CyPins_SetPin(comm_RS485_nRE_0); \
  55:.\Generated_Source\PSoC4/comm_RS485.c ****        comm_RS485_UART_SpiUartClearRxBuffer(); \
  56:.\Generated_Source\PSoC4/comm_RS485.c ****        comm_RS485_UART_DISABLE_INTR_RX(comm_RS485_UART_INTR_RX_NOT_EMPTY);} while(0)
  57:.\Generated_Source\PSoC4/comm_RS485.c ****       
  58:.\Generated_Source\PSoC4/comm_RS485.c **** #define comm_RS485_START_TIMEOUT() \
  59:.\Generated_Source\PSoC4/comm_RS485.c ****   do { comm_RS485_Timeout_WriteCounter(100); \
  60:.\Generated_Source\PSoC4/comm_RS485.c ****        comm_RS485_Timeout_Enable(); } while(0)
  61:.\Generated_Source\PSoC4/comm_RS485.c **** #define comm_RS485_STOP_TIMEOUT() \
  62:.\Generated_Source\PSoC4/comm_RS485.c ****   do { comm_RS485_Timeout_Stop(); } while(0)
  63:.\Generated_Source\PSoC4/comm_RS485.c **** 
  64:.\Generated_Source\PSoC4/comm_RS485.c **** static struct {
  65:.\Generated_Source\PSoC4/comm_RS485.c ****   comm_RS485_selected_as_slave selectedAsSlave;
  66:.\Generated_Source\PSoC4/comm_RS485.c ****   comm_RS485_released_as_slave releasedAsSlave;
  67:.\Generated_Source\PSoC4/comm_RS485.c ****   comm_RS485_receive_callback slaveReceive;
  68:.\Generated_Source\PSoC4/comm_RS485.c ****   comm_RS485_receive_callback masterReceive;
  69:.\Generated_Source\PSoC4/comm_RS485.c ****   //
  70:.\Generated_Source\PSoC4/comm_RS485.c ****   comm_RS485_bus_granted_callback busGranted;
  71:.\Generated_Source\PSoC4/comm_RS485.c ****   comm_RS485_bus_released_callback busReleased;
  72:.\Generated_Source\PSoC4/comm_RS485.c ****   comm_RS485_frame_sent_callback frameSent;
  73:.\Generated_Source\PSoC4/comm_RS485.c ****   comm_RS485_slave_selected_callback slaveSelected;
  74:.\Generated_Source\PSoC4/comm_RS485.c ****   comm_RS485_slave_released_callback slaveReleased;
  75:.\Generated_Source\PSoC4/comm_RS485.c ****   //
  76:.\Generated_Source\PSoC4/comm_RS485.c ****   comm_RS485_error_callback error;
  77:.\Generated_Source\PSoC4/comm_RS485.c ****   comm_RS485_wake_callback wake;
  78:.\Generated_Source\PSoC4/comm_RS485.c **** } callbacks = {
  79:.\Generated_Source\PSoC4/comm_RS485.c ****   NULL, NULL, NULL, NULL,
  80:.\Generated_Source\PSoC4/comm_RS485.c ****   NULL, NULL, NULL, NULL, NULL,
  81:.\Generated_Source\PSoC4/comm_RS485.c ****   NULL, NULL
  82:.\Generated_Source\PSoC4/comm_RS485.c **** };
  83:.\Generated_Source\PSoC4/comm_RS485.c **** 
  84:.\Generated_Source\PSoC4/comm_RS485.c **** #define ERROR_CB() do {if(callbacks.error) callbacks.error(__LINE__);}while(0)
  85:.\Generated_Source\PSoC4/comm_RS485.c **** 
  86:.\Generated_Source\PSoC4/comm_RS485.c **** static struct {
  87:.\Generated_Source\PSoC4/comm_RS485.c **** 	char * buff;
  88:.\Generated_Source\PSoC4/comm_RS485.c **** 	uint32 pos;
  89:.\Generated_Source\PSoC4/comm_RS485.c **** 	uint32 size;
ARM GAS  C:\Users\SDEVAS~1\AppData\Local\Temp\ccfNj7w1.s 			page 3


  90:.\Generated_Source\PSoC4/comm_RS485.c **** } slaveBuff, masterBuff, txBuff;
  91:.\Generated_Source\PSoC4/comm_RS485.c **** 
  92:.\Generated_Source\PSoC4/comm_RS485.c **** #if comm_RS485_IS_ARBITER
  93:.\Generated_Source\PSoC4/comm_RS485.c **** #define comm_RS485_OWN_ADDRESS comm_RS485_Protocol_ARB_ADDRESS
  94:.\Generated_Source\PSoC4/comm_RS485.c **** #define comm_RS485_MAX_NODEDB_SIZE 8
  95:.\Generated_Source\PSoC4/comm_RS485.c **** #else
  96:.\Generated_Source\PSoC4/comm_RS485.c **** #define comm_RS485_OWN_ADDRESS 176
  97:.\Generated_Source\PSoC4/comm_RS485.c **** #endif
  98:.\Generated_Source\PSoC4/comm_RS485.c **** 
  99:.\Generated_Source\PSoC4/comm_RS485.c **** static comm_RS485_state state = comm_RS485_SLEEPING;
 100:.\Generated_Source\PSoC4/comm_RS485.c **** static volatile comm_RS485_address otherEndAddress;
 101:.\Generated_Source\PSoC4/comm_RS485.c **** 
 102:.\Generated_Source\PSoC4/comm_RS485.c **** 
 103:.\Generated_Source\PSoC4/comm_RS485.c **** 
 104:.\Generated_Source\PSoC4/comm_RS485.c **** 
 105:.\Generated_Source\PSoC4/comm_RS485.c **** #if comm_RS485_IS_ARBITER
 106:.\Generated_Source\PSoC4/comm_RS485.c ****   
 107:.\Generated_Source\PSoC4/comm_RS485.c **** static struct {
 108:.\Generated_Source\PSoC4/comm_RS485.c **** 	comm_RS485_address list[comm_RS485_MAX_NODEDB_SIZE];
 109:.\Generated_Source\PSoC4/comm_RS485.c **** 	uint8 size;
 110:.\Generated_Source\PSoC4/comm_RS485.c **** } nodeDB = {.size = 0}; 
 111:.\Generated_Source\PSoC4/comm_RS485.c ****   
 112:.\Generated_Source\PSoC4/comm_RS485.c **** static void nextArbitrationStep(void) {
 113:.\Generated_Source\PSoC4/comm_RS485.c **** 	static uint8 currentNodeDBIndex = 0;
 114:.\Generated_Source\PSoC4/comm_RS485.c **** 	if(currentNodeDBIndex == nodeDB.size)
 115:.\Generated_Source\PSoC4/comm_RS485.c **** 		currentNodeDBIndex = 0;
 116:.\Generated_Source\PSoC4/comm_RS485.c **** 
 117:.\Generated_Source\PSoC4/comm_RS485.c **** 	//check if we want the bus
 118:.\Generated_Source\PSoC4/comm_RS485.c **** 	if(comm_RS485_IS_WAKE_ASSERTED()) {
 119:.\Generated_Source\PSoC4/comm_RS485.c **** 		//we want it!
 120:.\Generated_Source\PSoC4/comm_RS485.c **** 		state = comm_RS485_MASTER_CHOOSING_SLAVE;
 121:.\Generated_Source\PSoC4/comm_RS485.c **** 		if(callbacks.busGranted)
 122:.\Generated_Source\PSoC4/comm_RS485.c **** 			callbacks.busGranted();
 123:.\Generated_Source\PSoC4/comm_RS485.c **** 
 124:.\Generated_Source\PSoC4/comm_RS485.c **** 		return;
 125:.\Generated_Source\PSoC4/comm_RS485.c **** 	}
 126:.\Generated_Source\PSoC4/comm_RS485.c **** 
 127:.\Generated_Source\PSoC4/comm_RS485.c ****   CyGlobalIntDisable;
 128:.\Generated_Source\PSoC4/comm_RS485.c **** 	comm_RS485_TRANSCEIVER_TX_EN();
 129:.\Generated_Source\PSoC4/comm_RS485.c **** 	//prepare ARB_REQ packet
 130:.\Generated_Source\PSoC4/comm_RS485.c **** 	comm_RS485_UART_TX_FIFO_WR_REG = comm_RS485_UART_UART_MP_MARK | nodeDB.list[currentNodeDBIndex];
 131:.\Generated_Source\PSoC4/comm_RS485.c **** 	comm_RS485_UART_TX_FIFO_WR_REG = comm_RS485_Protocol_ARB_REQ;
 132:.\Generated_Source\PSoC4/comm_RS485.c **** 	comm_RS485_UART_TX_FIFO_WR_REG = comm_RS485_OWN_ADDRESS;
 133:.\Generated_Source\PSoC4/comm_RS485.c ****   CyGlobalIntEnable;
 134:.\Generated_Source\PSoC4/comm_RS485.c **** 
 135:.\Generated_Source\PSoC4/comm_RS485.c **** 
 136:.\Generated_Source\PSoC4/comm_RS485.c **** 	currentNodeDBIndex++;
 137:.\Generated_Source\PSoC4/comm_RS485.c **** }
 138:.\Generated_Source\PSoC4/comm_RS485.c **** #endif
 139:.\Generated_Source\PSoC4/comm_RS485.c **** 
 140:.\Generated_Source\PSoC4/comm_RS485.c **** //TODO two dispatch functions may be merged?
 141:.\Generated_Source\PSoC4/comm_RS485.c **** static void dispatchReceivedByteInMasterOp(uint32 byte) {
 142:.\Generated_Source\PSoC4/comm_RS485.c **** 	static enum {
 143:.\Generated_Source\PSoC4/comm_RS485.c **** 		RECV_MARK_BYTE,
 144:.\Generated_Source\PSoC4/comm_RS485.c **** 		RECV_NORMAL
 145:.\Generated_Source\PSoC4/comm_RS485.c **** 	} internalState = RECV_NORMAL;
 146:.\Generated_Source\PSoC4/comm_RS485.c **** 	if(byte & comm_RS485_UART_UART_MP_MARK) {
ARM GAS  C:\Users\SDEVAS~1\AppData\Local\Temp\ccfNj7w1.s 			page 4


 147:.\Generated_Source\PSoC4/comm_RS485.c **** 		internalState = RECV_MARK_BYTE;
 148:.\Generated_Source\PSoC4/comm_RS485.c **** 		return;
 149:.\Generated_Source\PSoC4/comm_RS485.c **** 	}
 150:.\Generated_Source\PSoC4/comm_RS485.c **** 	switch(internalState) {
 151:.\Generated_Source\PSoC4/comm_RS485.c **** 	case RECV_NORMAL:
 152:.\Generated_Source\PSoC4/comm_RS485.c **** 		if(masterBuff.pos == masterBuff.size) {
 153:.\Generated_Source\PSoC4/comm_RS485.c **** 			//TODO error report!
 154:.\Generated_Source\PSoC4/comm_RS485.c ****       ERROR_CB();
 155:.\Generated_Source\PSoC4/comm_RS485.c **** 		} else {
 156:.\Generated_Source\PSoC4/comm_RS485.c ****       masterBuff.buff[masterBuff.pos++] = byte;
 157:.\Generated_Source\PSoC4/comm_RS485.c ****     }
 158:.\Generated_Source\PSoC4/comm_RS485.c **** 	break;
 159:.\Generated_Source\PSoC4/comm_RS485.c **** 	case RECV_MARK_BYTE:
 160:.\Generated_Source\PSoC4/comm_RS485.c **** 		internalState = RECV_NORMAL;
 161:.\Generated_Source\PSoC4/comm_RS485.c **** 		switch( (comm_RS485_Protocol_frame_type) byte) {
 162:.\Generated_Source\PSoC4/comm_RS485.c **** 		case comm_RS485_Protocol_EOF:
 163:.\Generated_Source\PSoC4/comm_RS485.c **** 			callbacks.masterReceive(masterBuff.buff, masterBuff.pos);
 164:.\Generated_Source\PSoC4/comm_RS485.c **** 			masterBuff.pos = 0;
 165:.\Generated_Source\PSoC4/comm_RS485.c **** 		break;
 166:.\Generated_Source\PSoC4/comm_RS485.c ****     default:
 167:.\Generated_Source\PSoC4/comm_RS485.c ****         //TODO error report?
 168:.\Generated_Source\PSoC4/comm_RS485.c ****         ERROR_CB();
 169:.\Generated_Source\PSoC4/comm_RS485.c ****     break;
 170:.\Generated_Source\PSoC4/comm_RS485.c **** 		}
 171:.\Generated_Source\PSoC4/comm_RS485.c **** 	break;
 172:.\Generated_Source\PSoC4/comm_RS485.c **** 	}
 173:.\Generated_Source\PSoC4/comm_RS485.c **** }
 174:.\Generated_Source\PSoC4/comm_RS485.c **** 
 175:.\Generated_Source\PSoC4/comm_RS485.c **** static void dispatchReceivedByteInSlaveOp(uint32 byte) {
 176:.\Generated_Source\PSoC4/comm_RS485.c **** 	static enum {
 177:.\Generated_Source\PSoC4/comm_RS485.c **** 		RECV_MARK_BYTE,
 178:.\Generated_Source\PSoC4/comm_RS485.c **** 		RECV_NORMAL
 179:.\Generated_Source\PSoC4/comm_RS485.c **** 	} internalState = RECV_NORMAL;
 180:.\Generated_Source\PSoC4/comm_RS485.c **** 	if(byte & comm_RS485_UART_UART_MP_MARK) {
 181:.\Generated_Source\PSoC4/comm_RS485.c **** 		internalState = RECV_MARK_BYTE;
 182:.\Generated_Source\PSoC4/comm_RS485.c **** 		return;
 183:.\Generated_Source\PSoC4/comm_RS485.c **** 	}
 184:.\Generated_Source\PSoC4/comm_RS485.c **** 	switch(internalState) {
 185:.\Generated_Source\PSoC4/comm_RS485.c **** 	case RECV_NORMAL:
 186:.\Generated_Source\PSoC4/comm_RS485.c **** 		if(slaveBuff.pos == slaveBuff.size) {
 187:.\Generated_Source\PSoC4/comm_RS485.c **** 			//TODO error report
 188:.\Generated_Source\PSoC4/comm_RS485.c ****       ERROR_CB();
 189:.\Generated_Source\PSoC4/comm_RS485.c **** 		} else {
 190:.\Generated_Source\PSoC4/comm_RS485.c ****       slaveBuff.buff[slaveBuff.pos++] = byte;
 191:.\Generated_Source\PSoC4/comm_RS485.c ****     }
 192:.\Generated_Source\PSoC4/comm_RS485.c **** 	break;
 193:.\Generated_Source\PSoC4/comm_RS485.c **** 	case RECV_MARK_BYTE:
 194:.\Generated_Source\PSoC4/comm_RS485.c **** 		internalState = RECV_NORMAL;
 195:.\Generated_Source\PSoC4/comm_RS485.c **** 		switch( (comm_RS485_Protocol_frame_type) byte) {
 196:.\Generated_Source\PSoC4/comm_RS485.c **** 		case comm_RS485_Protocol_EOF:
 197:.\Generated_Source\PSoC4/comm_RS485.c **** 			//TODO check if callback is set
 198:.\Generated_Source\PSoC4/comm_RS485.c **** 			callbacks.slaveReceive(slaveBuff.buff, slaveBuff.pos);
 199:.\Generated_Source\PSoC4/comm_RS485.c **** 			slaveBuff.pos = 0;
 200:.\Generated_Source\PSoC4/comm_RS485.c **** 		break;
 201:.\Generated_Source\PSoC4/comm_RS485.c **** 		case comm_RS485_Protocol_DONE:
 202:.\Generated_Source\PSoC4/comm_RS485.c **** 			state = comm_RS485_LISTENING;
 203:.\Generated_Source\PSoC4/comm_RS485.c **** 			if(callbacks.releasedAsSlave)
ARM GAS  C:\Users\SDEVAS~1\AppData\Local\Temp\ccfNj7w1.s 			page 5


 204:.\Generated_Source\PSoC4/comm_RS485.c **** 				callbacks.releasedAsSlave();
 205:.\Generated_Source\PSoC4/comm_RS485.c **** 		break;
 206:.\Generated_Source\PSoC4/comm_RS485.c ****         default:
 207:.\Generated_Source\PSoC4/comm_RS485.c ****             //TODO error report?
 208:.\Generated_Source\PSoC4/comm_RS485.c ****             ERROR_CB();
 209:.\Generated_Source\PSoC4/comm_RS485.c ****         break;
 210:.\Generated_Source\PSoC4/comm_RS485.c **** 		}
 211:.\Generated_Source\PSoC4/comm_RS485.c **** 	break;
 212:.\Generated_Source\PSoC4/comm_RS485.c **** 	}
 213:.\Generated_Source\PSoC4/comm_RS485.c **** }
 214:.\Generated_Source\PSoC4/comm_RS485.c **** 
 215:.\Generated_Source\PSoC4/comm_RS485.c **** 
 216:.\Generated_Source\PSoC4/comm_RS485.c **** static uint32_t rx_counter_helper = 0;
 217:.\Generated_Source\PSoC4/comm_RS485.c **** static comm_RS485_Protocol_frame_type rx_frame_type_helper;
 218:.\Generated_Source\PSoC4/comm_RS485.c **** 
 219:.\Generated_Source\PSoC4/comm_RS485.c **** CY_ISR(comm_RS485_Uart_isr) {
  26              		.loc 1 219 0
  27              		.cfi_startproc
 220:.\Generated_Source\PSoC4/comm_RS485.c **** 	uint32 tmp;
 221:.\Generated_Source\PSoC4/comm_RS485.c ****   if(comm_RS485_UART_CHECK_INTR_RX_MASKED(comm_RS485_UART_INTR_RX_NOT_EMPTY)) {
  28              		.loc 1 221 0
  29 0000 BA4B     		ldr	r3, .L123
 219:.\Generated_Source\PSoC4/comm_RS485.c **** CY_ISR(comm_RS485_Uart_isr) {
  30              		.loc 1 219 0
  31 0002 70B5     		push	{r4, r5, r6, lr}
  32              		.cfi_def_cfa_offset 16
  33              		.cfi_offset 4, -16
  34              		.cfi_offset 5, -12
  35              		.cfi_offset 6, -8
  36              		.cfi_offset 14, -4
  37              		.loc 1 221 0
  38 0004 1B68     		ldr	r3, [r3]
  39 0006 5907     		lsl	r1, r3, #29
  40 0008 00D4     		bmi	.LCB15
  41 000a FEE0     		b	.L2	@long jump
  42              	.LCB15:
 222:.\Generated_Source\PSoC4/comm_RS485.c ****     switch(state) {
  43              		.loc 1 222 0
  44 000c B84C     		ldr	r4, .L123+4
  45 000e 2078     		ldrb	r0, [r4]
  46 0010 0238     		sub	r0, r0, #2
  47 0012 0428     		cmp	r0, #4
  48 0014 00D9     		bls	.LCB20
  49 0016 EDE0     		b	.L3	@long jump
  50              	.LCB20:
  51 0018 FFF7FEFF 		bl	__gnu_thumb1_case_uqi
  52              	.L5:
  53 001c 03       		.byte	(.L4-.L5)/2
  54 001d EC       		.byte	(.L3-.L5)/2
  55 001e 89       		.byte	(.L10-.L5)/2
  56 001f 5E       		.byte	(.L7-.L5)/2
  57 0020 C3       		.byte	(.L9-.L5)/2
  58 0021 00       		.p2align 1
  59              	.L4:
 223:.\Generated_Source\PSoC4/comm_RS485.c **** #if comm_RS485_IS_ARBITER
 224:.\Generated_Source\PSoC4/comm_RS485.c ****     case comm_RS485_ARBITRING:
 225:.\Generated_Source\PSoC4/comm_RS485.c ****     	//in this state i can receive only ARB_ACK or ARB_NACK
ARM GAS  C:\Users\SDEVAS~1\AppData\Local\Temp\ccfNj7w1.s 			page 6


 226:.\Generated_Source\PSoC4/comm_RS485.c **** 		tmp = comm_RS485_UART_RX_FIFO_RD_REG;
 227:.\Generated_Source\PSoC4/comm_RS485.c **** 		if(tmp == (comm_RS485_UART_UART_MP_MARK | comm_RS485_OWN_ADDRESS)) {
 228:.\Generated_Source\PSoC4/comm_RS485.c **** 			//start of frame!
 229:.\Generated_Source\PSoC4/comm_RS485.c **** 			rx_counter_helper = 1;
 230:.\Generated_Source\PSoC4/comm_RS485.c **** 			break;
 231:.\Generated_Source\PSoC4/comm_RS485.c **** 		}
 232:.\Generated_Source\PSoC4/comm_RS485.c **** 		if(rx_counter_helper == 1) {
 233:.\Generated_Source\PSoC4/comm_RS485.c **** 			rx_frame_type_helper = tmp;
 234:.\Generated_Source\PSoC4/comm_RS485.c **** 			rx_counter_helper = 2;
 235:.\Generated_Source\PSoC4/comm_RS485.c **** 			break;
 236:.\Generated_Source\PSoC4/comm_RS485.c **** 		}
 237:.\Generated_Source\PSoC4/comm_RS485.c **** 		if(rx_counter_helper == 2) {
 238:.\Generated_Source\PSoC4/comm_RS485.c **** 			otherEndAddress = tmp;
 239:.\Generated_Source\PSoC4/comm_RS485.c **** 			rx_counter_helper = 0;
 240:.\Generated_Source\PSoC4/comm_RS485.c **** 
 241:.\Generated_Source\PSoC4/comm_RS485.c ****             comm_RS485_STOP_TIMEOUT();
 242:.\Generated_Source\PSoC4/comm_RS485.c **** 
 243:.\Generated_Source\PSoC4/comm_RS485.c ****             comm_RS485_UART_SpiUartClearRxBuffer();
 244:.\Generated_Source\PSoC4/comm_RS485.c **** 
 245:.\Generated_Source\PSoC4/comm_RS485.c ****             switch(rx_frame_type_helper) {
 246:.\Generated_Source\PSoC4/comm_RS485.c ****       				case comm_RS485_Protocol_ARB_ACK:
 247:.\Generated_Source\PSoC4/comm_RS485.c ****       					//we have device interested in mastering
 248:.\Generated_Source\PSoC4/comm_RS485.c ****       					//soo send GRANTED
 249:.\Generated_Source\PSoC4/comm_RS485.c ****               
 250:.\Generated_Source\PSoC4/comm_RS485.c ****               
 251:.\Generated_Source\PSoC4/comm_RS485.c ****       		      
 252:.\Generated_Source\PSoC4/comm_RS485.c ****       		            
 253:.\Generated_Source\PSoC4/comm_RS485.c ****       		      state = comm_RS485_LISTENING;
 254:.\Generated_Source\PSoC4/comm_RS485.c ****               
 255:.\Generated_Source\PSoC4/comm_RS485.c ****                 CyGlobalIntDisable;
 256:.\Generated_Source\PSoC4/comm_RS485.c ****                 comm_RS485_TRANSCEIVER_TX_EN();
 257:.\Generated_Source\PSoC4/comm_RS485.c **** 
 258:.\Generated_Source\PSoC4/comm_RS485.c ****                 comm_RS485_UART_TX_FIFO_WR_REG = comm_RS485_UART_UART_MP_MARK | otherEndAddress;
 259:.\Generated_Source\PSoC4/comm_RS485.c ****                 comm_RS485_UART_TX_FIFO_WR_REG = comm_RS485_Protocol_ARB_GRANTED;
 260:.\Generated_Source\PSoC4/comm_RS485.c ****                 comm_RS485_UART_TX_FIFO_WR_REG = comm_RS485_OWN_ADDRESS;
 261:.\Generated_Source\PSoC4/comm_RS485.c ****                 CyGlobalIntEnable;
 262:.\Generated_Source\PSoC4/comm_RS485.c **** 
 263:.\Generated_Source\PSoC4/comm_RS485.c ****       					break;
 264:.\Generated_Source\PSoC4/comm_RS485.c ****       				case comm_RS485_Protocol_ARB_NACK:
 265:.\Generated_Source\PSoC4/comm_RS485.c ****       					//device is not interested in mastering
 266:.\Generated_Source\PSoC4/comm_RS485.c ****       					//next
 267:.\Generated_Source\PSoC4/comm_RS485.c ****       					nextArbitrationStep();
 268:.\Generated_Source\PSoC4/comm_RS485.c ****       				default:
 269:.\Generated_Source\PSoC4/comm_RS485.c ****                 ERROR_CB();
 270:.\Generated_Source\PSoC4/comm_RS485.c ****       					break;
 271:.\Generated_Source\PSoC4/comm_RS485.c ****       			}
 272:.\Generated_Source\PSoC4/comm_RS485.c ****         }
 273:.\Generated_Source\PSoC4/comm_RS485.c ****     	break;
 274:.\Generated_Source\PSoC4/comm_RS485.c **** #endif
 275:.\Generated_Source\PSoC4/comm_RS485.c **** #if comm_RS485_IS_ARBITER
 276:.\Generated_Source\PSoC4/comm_RS485.c ****     case comm_RS485_LISTENING:
 277:.\Generated_Source\PSoC4/comm_RS485.c ****     	//here i can receive NORMAL frame when selected as slave, or ARB_DONE as bus relesae indicator
 278:.\Generated_Source\PSoC4/comm_RS485.c **** 		tmp = comm_RS485_UART_RX_FIFO_RD_REG;
 279:.\Generated_Source\PSoC4/comm_RS485.c **** 		if(tmp == (comm_RS485_UART_UART_MP_MARK | comm_RS485_OWN_ADDRESS)) {
 280:.\Generated_Source\PSoC4/comm_RS485.c **** 			//start of frame!
 281:.\Generated_Source\PSoC4/comm_RS485.c **** 			rx_counter_helper = 1;
 282:.\Generated_Source\PSoC4/comm_RS485.c **** 			break;
ARM GAS  C:\Users\SDEVAS~1\AppData\Local\Temp\ccfNj7w1.s 			page 7


 283:.\Generated_Source\PSoC4/comm_RS485.c **** 		}
 284:.\Generated_Source\PSoC4/comm_RS485.c **** 		if(rx_counter_helper == 1) {
 285:.\Generated_Source\PSoC4/comm_RS485.c **** 			rx_frame_type_helper = tmp;
 286:.\Generated_Source\PSoC4/comm_RS485.c **** 			rx_counter_helper = 2;
 287:.\Generated_Source\PSoC4/comm_RS485.c **** 			break;
 288:.\Generated_Source\PSoC4/comm_RS485.c **** 		}
 289:.\Generated_Source\PSoC4/comm_RS485.c **** 		if(rx_counter_helper == 2) {
 290:.\Generated_Source\PSoC4/comm_RS485.c **** 			otherEndAddress = tmp;
 291:.\Generated_Source\PSoC4/comm_RS485.c **** 			rx_counter_helper = 0;
 292:.\Generated_Source\PSoC4/comm_RS485.c **** 
 293:.\Generated_Source\PSoC4/comm_RS485.c **** 
 294:.\Generated_Source\PSoC4/comm_RS485.c **** 			comm_RS485_UART_SpiUartClearRxBuffer();
 295:.\Generated_Source\PSoC4/comm_RS485.c **** 
 296:.\Generated_Source\PSoC4/comm_RS485.c **** 			switch (rx_frame_type_helper) {
 297:.\Generated_Source\PSoC4/comm_RS485.c **** 				case comm_RS485_Protocol_ARB_DONE:
 298:.\Generated_Source\PSoC4/comm_RS485.c **** 					//is wake asserted? it should be if we still here...
 299:.\Generated_Source\PSoC4/comm_RS485.c **** 					state = comm_RS485_ARBITRING;
 300:.\Generated_Source\PSoC4/comm_RS485.c **** 					nextArbitrationStep();
 301:.\Generated_Source\PSoC4/comm_RS485.c **** 					break;
 302:.\Generated_Source\PSoC4/comm_RS485.c **** 				case comm_RS485_Protocol_NORMAL:
 303:.\Generated_Source\PSoC4/comm_RS485.c **** 					//if we receivied this message, we were selected as slave
 304:.\Generated_Source\PSoC4/comm_RS485.c **** 		        	
 305:.\Generated_Source\PSoC4/comm_RS485.c **** 		            //we were selected as slave device!
 306:.\Generated_Source\PSoC4/comm_RS485.c **** 		            state = comm_RS485_SELECTING_AS_SLAVE;
 307:.\Generated_Source\PSoC4/comm_RS485.c **** 
 308:.\Generated_Source\PSoC4/comm_RS485.c ****                 CyGlobalIntDisable;
 309:.\Generated_Source\PSoC4/comm_RS485.c ****                 comm_RS485_TRANSCEIVER_TX_EN();
 310:.\Generated_Source\PSoC4/comm_RS485.c **** 		            comm_RS485_UART_TX_FIFO_WR_REG = comm_RS485_UART_UART_MP_MARK | otherEndAddress;
 311:.\Generated_Source\PSoC4/comm_RS485.c **** 		            comm_RS485_UART_TX_FIFO_WR_REG = comm_RS485_Protocol_NORMAL;
 312:.\Generated_Source\PSoC4/comm_RS485.c **** 		            comm_RS485_UART_TX_FIFO_WR_REG = comm_RS485_OWN_ADDRESS;
 313:.\Generated_Source\PSoC4/comm_RS485.c ****                 CyGlobalIntEnable;
 314:.\Generated_Source\PSoC4/comm_RS485.c **** 					break;
 315:.\Generated_Source\PSoC4/comm_RS485.c **** 				default:
 316:.\Generated_Source\PSoC4/comm_RS485.c **** 					break;
 317:.\Generated_Source\PSoC4/comm_RS485.c **** 			}
 318:.\Generated_Source\PSoC4/comm_RS485.c ****     	}
 319:.\Generated_Source\PSoC4/comm_RS485.c ****     break;
 320:.\Generated_Source\PSoC4/comm_RS485.c **** #else
 321:.\Generated_Source\PSoC4/comm_RS485.c ****     case comm_RS485_LISTENING:
 322:.\Generated_Source\PSoC4/comm_RS485.c ****         //in this state i can receive only control message ARG_REQ or NORMAL,
 323:.\Generated_Source\PSoC4/comm_RS485.c ****     	// or for master arb ARB_GRANTED
 324:.\Generated_Source\PSoC4/comm_RS485.c **** 		tmp = comm_RS485_UART_RX_FIFO_RD_REG;
  60              		.loc 1 324 0
  61 0022 B44B     		ldr	r3, .L123+8
 325:.\Generated_Source\PSoC4/comm_RS485.c **** 		if(tmp == (comm_RS485_UART_UART_MP_MARK | comm_RS485_OWN_ADDRESS)) {
  62              		.loc 1 325 0
  63 0024 D822     		mov	r2, #216
 324:.\Generated_Source\PSoC4/comm_RS485.c **** 		tmp = comm_RS485_UART_RX_FIFO_RD_REG;
  64              		.loc 1 324 0
  65 0026 1B68     		ldr	r3, [r3]
  66              	.LVL0:
  67              		.loc 1 325 0
  68 0028 5200     		lsl	r2, r2, #1
  69 002a 9342     		cmp	r3, r2
  70 002c 01D1     		bne	.L11
  71              	.L20:
 326:.\Generated_Source\PSoC4/comm_RS485.c **** 			//start of frame!
ARM GAS  C:\Users\SDEVAS~1\AppData\Local\Temp\ccfNj7w1.s 			page 8


 327:.\Generated_Source\PSoC4/comm_RS485.c **** 			rx_counter_helper = 1;
  72              		.loc 1 327 0
  73 002e 0123     		mov	r3, #1
  74              	.LVL1:
  75 0030 04E0     		b	.L112
  76              	.LVL2:
  77              	.L11:
 328:.\Generated_Source\PSoC4/comm_RS485.c **** 			break;
 329:.\Generated_Source\PSoC4/comm_RS485.c **** 		}
 330:.\Generated_Source\PSoC4/comm_RS485.c **** 		if(rx_counter_helper == 1) {
  78              		.loc 1 330 0
  79 0032 6568     		ldr	r5, [r4, #4]
  80 0034 012D     		cmp	r5, #1
  81 0036 03D1     		bne	.L13
  82              	.L113:
 331:.\Generated_Source\PSoC4/comm_RS485.c **** 			rx_frame_type_helper = tmp;
  83              		.loc 1 331 0
  84 0038 2372     		strb	r3, [r4, #8]
 332:.\Generated_Source\PSoC4/comm_RS485.c **** 			rx_counter_helper = 2;
  85              		.loc 1 332 0
  86 003a 0223     		mov	r3, #2
  87              	.LVL3:
  88              	.L112:
  89 003c 6360     		str	r3, [r4, #4]
 333:.\Generated_Source\PSoC4/comm_RS485.c **** 			break;
  90              		.loc 1 333 0
  91 003e E1E0     		b	.L12
  92              	.LVL4:
  93              	.L13:
 334:.\Generated_Source\PSoC4/comm_RS485.c **** 		}
 335:.\Generated_Source\PSoC4/comm_RS485.c **** 		if(rx_counter_helper == 2) {
  94              		.loc 1 335 0
  95 0040 022D     		cmp	r5, #2
  96 0042 00D0     		beq	.LCB61
  97 0044 DEE0     		b	.L12	@long jump
  98              	.LCB61:
 336:.\Generated_Source\PSoC4/comm_RS485.c **** 			otherEndAddress = tmp;
  99              		.loc 1 336 0
 100 0046 E360     		str	r3, [r4, #12]
 337:.\Generated_Source\PSoC4/comm_RS485.c **** 			rx_counter_helper = 0;
 101              		.loc 1 337 0
 102 0048 0023     		mov	r3, #0
 103              	.LVL5:
 104 004a 6360     		str	r3, [r4, #4]
 338:.\Generated_Source\PSoC4/comm_RS485.c **** 
 339:.\Generated_Source\PSoC4/comm_RS485.c **** 
 340:.\Generated_Source\PSoC4/comm_RS485.c ****         comm_RS485_UART_SpiUartClearRxBuffer();
 105              		.loc 1 340 0
 106 004c FFF7FEFF 		bl	comm_RS485_UART_SpiUartClearRxBuffer
 107              	.LVL6:
 341:.\Generated_Source\PSoC4/comm_RS485.c ****         
 342:.\Generated_Source\PSoC4/comm_RS485.c ****         switch(rx_frame_type_helper) {
 108              		.loc 1 342 0
 109 0050 237A     		ldrb	r3, [r4, #8]
 110 0052 042B     		cmp	r3, #4
 111 0054 21D0     		beq	.L15
 112 0056 102B     		cmp	r3, #16
ARM GAS  C:\Users\SDEVAS~1\AppData\Local\Temp\ccfNj7w1.s 			page 9


 113 0058 23D0     		beq	.L16
 114 005a 012B     		cmp	r3, #1
 115 005c 00D0     		beq	.LCB76
 116 005e D1E0     		b	.L12	@long jump
 117              	.LCB76:
 343:.\Generated_Source\PSoC4/comm_RS485.c ****           case comm_RS485_Protocol_ARB_REQ:
 344:.\Generated_Source\PSoC4/comm_RS485.c ****           
 345:.\Generated_Source\PSoC4/comm_RS485.c ****             CyGlobalIntDisable;
 118              		.loc 1 345 0
 119              	@ 345 ".\Generated_Source\PSoC4\comm_RS485.c" 1
 120 0060 72B6     		CPSID   i
 121              	@ 0 "" 2
 346:.\Generated_Source\PSoC4/comm_RS485.c ****         	  comm_RS485_TRANSCEIVER_TX_EN();
 122              		.loc 1 346 0
 123              		.code	16
 124 0062 A54A     		ldr	r2, .L123+12
 125 0064 1168     		ldr	r1, [r2]
 126 0066 0B43     		orr	r3, r1
 127 0068 1360     		str	r3, [r2]
 128 006a 1368     		ldr	r3, [r2]
 129 006c 0421     		mov	r1, #4
 130 006e 1D43     		orr	r5, r3
 131 0070 A24B     		ldr	r3, .L123+16
 132 0072 1560     		str	r5, [r2]
 133 0074 1A68     		ldr	r2, [r3]
 134 0076 8A43     		bic	r2, r1
 135 0078 1A60     		str	r2, [r3]
 347:.\Generated_Source\PSoC4/comm_RS485.c **** 
 348:.\Generated_Source\PSoC4/comm_RS485.c ****             comm_RS485_UART_TX_FIFO_WR_REG =
 349:.\Generated_Source\PSoC4/comm_RS485.c ****               comm_RS485_UART_UART_MP_MARK | otherEndAddress;
 136              		.loc 1 349 0
 137 007a E268     		ldr	r2, [r4, #12]
 138 007c 8023     		mov	r3, #128
 348:.\Generated_Source\PSoC4/comm_RS485.c ****             comm_RS485_UART_TX_FIFO_WR_REG =
 139              		.loc 1 348 0
 140 007e A04C     		ldr	r4, .L123+20
 141              		.loc 1 349 0
 142 0080 5B00     		lsl	r3, r3, #1
 143 0082 1343     		orr	r3, r2
 348:.\Generated_Source\PSoC4/comm_RS485.c ****             comm_RS485_UART_TX_FIFO_WR_REG =
 144              		.loc 1 348 0
 145 0084 2360     		str	r3, [r4]
 350:.\Generated_Source\PSoC4/comm_RS485.c ****             comm_RS485_UART_TX_FIFO_WR_REG =
 351:.\Generated_Source\PSoC4/comm_RS485.c ****                comm_RS485_IS_WAKE_ASSERTED() ? comm_RS485_Protocol_ARB_ACK : comm_RS485_Protocol_AR
 146              		.loc 1 351 0
 147 0086 FFF7FEFF 		bl	comm_RS485_WAKE_ReadDataReg
 148              	.LVL7:
 350:.\Generated_Source\PSoC4/comm_RS485.c ****             comm_RS485_UART_TX_FIFO_WR_REG =
 149              		.loc 1 350 0
 150 008a 431E     		sub	r3, r0, #1
 151 008c 9841     		sbc	r0, r0, r3
 152 008e 0323     		mov	r3, #3
 153 0090 181A     		sub	r0, r3, r0
 352:.\Generated_Source\PSoC4/comm_RS485.c ****             comm_RS485_UART_TX_FIFO_WR_REG = comm_RS485_OWN_ADDRESS;
 154              		.loc 1 352 0
 155 0092 B023     		mov	r3, #176
 350:.\Generated_Source\PSoC4/comm_RS485.c ****             comm_RS485_UART_TX_FIFO_WR_REG =
ARM GAS  C:\Users\SDEVAS~1\AppData\Local\Temp\ccfNj7w1.s 			page 10


 156              		.loc 1 350 0
 157 0094 2060     		str	r0, [r4]
 158              		.loc 1 352 0
 159 0096 2360     		str	r3, [r4]
 160 0098 1CE0     		b	.L115
 161              	.L15:
 353:.\Generated_Source\PSoC4/comm_RS485.c ****             CyGlobalIntEnable;
 354:.\Generated_Source\PSoC4/comm_RS485.c ****           break;
 355:.\Generated_Source\PSoC4/comm_RS485.c ****           case comm_RS485_Protocol_ARB_GRANTED:
 356:.\Generated_Source\PSoC4/comm_RS485.c ****         	  state = comm_RS485_MASTER_CHOOSING_SLAVE;
 162              		.loc 1 356 0
 163 009a 0523     		mov	r3, #5
 164 009c 2370     		strb	r3, [r4]
 357:.\Generated_Source\PSoC4/comm_RS485.c ****         	  if(callbacks.busGranted)
 165              		.loc 1 357 0
 166 009e 236A     		ldr	r3, [r4, #32]
 167 00a0 33E0     		b	.L118
 168              	.L16:
 358:.\Generated_Source\PSoC4/comm_RS485.c ****         		  callbacks.busGranted();
 359:.\Generated_Source\PSoC4/comm_RS485.c ****           break;
 360:.\Generated_Source\PSoC4/comm_RS485.c ****           case comm_RS485_Protocol_NORMAL:
 361:.\Generated_Source\PSoC4/comm_RS485.c ****         	
 362:.\Generated_Source\PSoC4/comm_RS485.c ****             //we were selected as slave device!
 363:.\Generated_Source\PSoC4/comm_RS485.c ****             state = comm_RS485_SELECTING_AS_SLAVE;
 169              		.loc 1 363 0
 170 00a2 0322     		mov	r2, #3
 171 00a4 2270     		strb	r2, [r4]
 364:.\Generated_Source\PSoC4/comm_RS485.c ****           
 365:.\Generated_Source\PSoC4/comm_RS485.c ****             CyGlobalIntDisable;
 172              		.loc 1 365 0
 173              	@ 365 ".\Generated_Source\PSoC4\comm_RS485.c" 1
 174 00a6 72B6     		CPSID   i
 175              	@ 0 "" 2
 366:.\Generated_Source\PSoC4/comm_RS485.c ****             comm_RS485_TRANSCEIVER_TX_EN();
 176              		.loc 1 366 0
 177              		.code	16
 178 00a8 934A     		ldr	r2, .L123+12
 179 00aa 0120     		mov	r0, #1
 180 00ac 1168     		ldr	r1, [r2]
 181 00ae 0143     		orr	r1, r0
 182 00b0 1160     		str	r1, [r2]
 183 00b2 1168     		ldr	r1, [r2]
 184 00b4 0420     		mov	r0, #4
 185 00b6 0D43     		orr	r5, r1
 186 00b8 1560     		str	r5, [r2]
 187 00ba 904A     		ldr	r2, .L123+16
 188 00bc 1168     		ldr	r1, [r2]
 189 00be 8143     		bic	r1, r0
 190 00c0 1160     		str	r1, [r2]
 367:.\Generated_Source\PSoC4/comm_RS485.c ****             comm_RS485_UART_TX_FIFO_WR_REG =
 368:.\Generated_Source\PSoC4/comm_RS485.c ****               comm_RS485_UART_UART_MP_MARK | otherEndAddress;
 191              		.loc 1 368 0
 192 00c2 E268     		ldr	r2, [r4, #12]
 193 00c4 8021     		mov	r1, #128
 194 00c6 4900     		lsl	r1, r1, #1
 195 00c8 1143     		orr	r1, r2
 367:.\Generated_Source\PSoC4/comm_RS485.c ****             comm_RS485_UART_TX_FIFO_WR_REG =
ARM GAS  C:\Users\SDEVAS~1\AppData\Local\Temp\ccfNj7w1.s 			page 11


 196              		.loc 1 367 0
 197 00ca 8D4A     		ldr	r2, .L123+20
 198 00cc 1160     		str	r1, [r2]
 369:.\Generated_Source\PSoC4/comm_RS485.c ****             comm_RS485_UART_TX_FIFO_WR_REG =
 199              		.loc 1 369 0
 200 00ce 1360     		str	r3, [r2]
 370:.\Generated_Source\PSoC4/comm_RS485.c ****               comm_RS485_Protocol_NORMAL;
 371:.\Generated_Source\PSoC4/comm_RS485.c ****             comm_RS485_UART_TX_FIFO_WR_REG = comm_RS485_OWN_ADDRESS;
 201              		.loc 1 371 0
 202 00d0 B023     		mov	r3, #176
 203 00d2 1360     		str	r3, [r2]
 204              	.L115:
 372:.\Generated_Source\PSoC4/comm_RS485.c ****             CyGlobalIntEnable;
 205              		.loc 1 372 0
 206              	@ 372 ".\Generated_Source\PSoC4\comm_RS485.c" 1
 207 00d4 62B6     		CPSIE   i
 208              	@ 0 "" 2
 373:.\Generated_Source\PSoC4/comm_RS485.c ****           break;
 209              		.loc 1 373 0
 210              		.code	16
 211 00d6 95E0     		b	.L12
 212              	.L7:
 374:.\Generated_Source\PSoC4/comm_RS485.c ****           default:
 375:.\Generated_Source\PSoC4/comm_RS485.c ****             //this should not happen...
 376:.\Generated_Source\PSoC4/comm_RS485.c ****           break;
 377:.\Generated_Source\PSoC4/comm_RS485.c ****         }
 378:.\Generated_Source\PSoC4/comm_RS485.c ****         
 379:.\Generated_Source\PSoC4/comm_RS485.c ****       }
 380:.\Generated_Source\PSoC4/comm_RS485.c ****     break;
 381:.\Generated_Source\PSoC4/comm_RS485.c **** #endif
 382:.\Generated_Source\PSoC4/comm_RS485.c ****     case comm_RS485_MASTER_CHOOSING_SLAVE:
 383:.\Generated_Source\PSoC4/comm_RS485.c ****   	  //wait for enough data in RX fifo
 384:.\Generated_Source\PSoC4/comm_RS485.c **** 		tmp = comm_RS485_UART_RX_FIFO_RD_REG;
 213              		.loc 1 384 0
 214 00d8 864B     		ldr	r3, .L123+8
 385:.\Generated_Source\PSoC4/comm_RS485.c **** 		if(tmp == (comm_RS485_UART_UART_MP_MARK | comm_RS485_OWN_ADDRESS)) {
 215              		.loc 1 385 0
 216 00da D822     		mov	r2, #216
 384:.\Generated_Source\PSoC4/comm_RS485.c **** 		tmp = comm_RS485_UART_RX_FIFO_RD_REG;
 217              		.loc 1 384 0
 218 00dc 1B68     		ldr	r3, [r3]
 219              	.LVL8:
 220              		.loc 1 385 0
 221 00de 5200     		lsl	r2, r2, #1
 222 00e0 9342     		cmp	r3, r2
 223 00e2 A4D0     		beq	.L20
 386:.\Generated_Source\PSoC4/comm_RS485.c **** 			//start of frame!
 387:.\Generated_Source\PSoC4/comm_RS485.c **** 			rx_counter_helper = 1;
 388:.\Generated_Source\PSoC4/comm_RS485.c **** 			break;
 389:.\Generated_Source\PSoC4/comm_RS485.c **** 		}
 390:.\Generated_Source\PSoC4/comm_RS485.c **** 		if(rx_counter_helper == 1) {
 224              		.loc 1 390 0
 225 00e4 6268     		ldr	r2, [r4, #4]
 226 00e6 012A     		cmp	r2, #1
 227 00e8 A6D0     		beq	.L113
 391:.\Generated_Source\PSoC4/comm_RS485.c **** 			rx_frame_type_helper = tmp;
 392:.\Generated_Source\PSoC4/comm_RS485.c **** 			rx_counter_helper = 2;
ARM GAS  C:\Users\SDEVAS~1\AppData\Local\Temp\ccfNj7w1.s 			page 12


 393:.\Generated_Source\PSoC4/comm_RS485.c **** 			break;
 394:.\Generated_Source\PSoC4/comm_RS485.c **** 		}
 395:.\Generated_Source\PSoC4/comm_RS485.c **** 		if(rx_counter_helper == 2) {
 228              		.loc 1 395 0
 229 00ea 022A     		cmp	r2, #2
 230 00ec 00D0     		beq	.LCB159
 231 00ee 89E0     		b	.L12	@long jump
 232              	.LCB159:
 396:.\Generated_Source\PSoC4/comm_RS485.c **** 			otherEndAddress = tmp;
 233              		.loc 1 396 0
 234 00f0 E360     		str	r3, [r4, #12]
 397:.\Generated_Source\PSoC4/comm_RS485.c **** 			rx_counter_helper = 0;
 235              		.loc 1 397 0
 236 00f2 0023     		mov	r3, #0
 237              	.LVL9:
 238 00f4 6360     		str	r3, [r4, #4]
 398:.\Generated_Source\PSoC4/comm_RS485.c **** 
 399:.\Generated_Source\PSoC4/comm_RS485.c **** 			comm_RS485_STOP_TIMEOUT();
 239              		.loc 1 399 0
 240 00f6 FFF7FEFF 		bl	comm_RS485_Timeout_Stop
 241              	.LVL10:
 400:.\Generated_Source\PSoC4/comm_RS485.c **** 
 401:.\Generated_Source\PSoC4/comm_RS485.c **** 			comm_RS485_UART_SpiUartClearRxBuffer();
 242              		.loc 1 401 0
 243 00fa FFF7FEFF 		bl	comm_RS485_UART_SpiUartClearRxBuffer
 244              	.LVL11:
 402:.\Generated_Source\PSoC4/comm_RS485.c **** 
 403:.\Generated_Source\PSoC4/comm_RS485.c **** 			switch(rx_frame_type_helper) {
 245              		.loc 1 403 0
 246 00fe 237A     		ldrb	r3, [r4, #8]
 247 0100 102B     		cmp	r3, #16
 248 0102 06D1     		bne	.L107
 404:.\Generated_Source\PSoC4/comm_RS485.c **** 			case comm_RS485_Protocol_NORMAL:
 405:.\Generated_Source\PSoC4/comm_RS485.c **** 			  //slave selected sucessfully
 406:.\Generated_Source\PSoC4/comm_RS485.c **** 			  state = comm_RS485_MASTER_OP;
 249              		.loc 1 406 0
 250 0104 0623     		mov	r3, #6
 251 0106 2370     		strb	r3, [r4]
 407:.\Generated_Source\PSoC4/comm_RS485.c **** 			  if(callbacks.slaveSelected)
 252              		.loc 1 407 0
 253 0108 E36A     		ldr	r3, [r4, #44]
 254              	.L118:
 255 010a 002B     		cmp	r3, #0
 256 010c 7AD0     		beq	.L12
 408:.\Generated_Source\PSoC4/comm_RS485.c **** 				  callbacks.slaveSelected();
 257              		.loc 1 408 0
 258 010e 9847     		blx	r3
 259              	.LVL12:
 260 0110 78E0     		b	.L12
 261              	.L107:
 409:.\Generated_Source\PSoC4/comm_RS485.c **** 			break;
 410:.\Generated_Source\PSoC4/comm_RS485.c **** 			default:
 411:.\Generated_Source\PSoC4/comm_RS485.c **** 			  //TODO should never happen!
 412:.\Generated_Source\PSoC4/comm_RS485.c **** 			ERROR_CB();
 262              		.loc 1 412 0
 263 0112 636B     		ldr	r3, [r4, #52]
 264 0114 002B     		cmp	r3, #0
ARM GAS  C:\Users\SDEVAS~1\AppData\Local\Temp\ccfNj7w1.s 			page 13


 265 0116 75D0     		beq	.L12
 266              		.loc 1 412 0 is_stmt 0 discriminator 1
 267 0118 CE20     		mov	r0, #206
 268 011a 4000     		lsl	r0, r0, #1
 269 011c 9847     		blx	r3
 270              	.LVL13:
 271 011e 71E0     		b	.L12
 272              	.L34:
 413:.\Generated_Source\PSoC4/comm_RS485.c **** 			break;
 414:.\Generated_Source\PSoC4/comm_RS485.c **** 			}
 415:.\Generated_Source\PSoC4/comm_RS485.c ****   	  }
 416:.\Generated_Source\PSoC4/comm_RS485.c ****   	  break;
 417:.\Generated_Source\PSoC4/comm_RS485.c ****     case comm_RS485_SLAVE_OP:
 418:.\Generated_Source\PSoC4/comm_RS485.c **** 		while(0 != comm_RS485_UART_GET_RX_FIFO_ENTRIES) {
 419:.\Generated_Source\PSoC4/comm_RS485.c **** 			dispatchReceivedByteInSlaveOp(comm_RS485_UART_RX_FIFO_RD_REG);
 273              		.loc 1 419 0 is_stmt 1
 274 0120 744B     		ldr	r3, .L123+8
 275 0122 784A     		ldr	r2, .L123+24
 276 0124 1B68     		ldr	r3, [r3]
 277              	.LVL14:
 278              	.LBB6:
 279              	.LBB7:
 180:.\Generated_Source\PSoC4/comm_RS485.c **** 	if(byte & comm_RS485_UART_UART_MP_MARK) {
 280              		.loc 1 180 0
 281 0126 D905     		lsl	r1, r3, #23
 282 0128 06D5     		bpl	.L24
 181:.\Generated_Source\PSoC4/comm_RS485.c **** 		internalState = RECV_MARK_BYTE;
 283              		.loc 1 181 0
 284 012a 0023     		mov	r3, #0
 285              	.LVL15:
 286 012c 1370     		strb	r3, [r2]
 287              	.L10:
 288              	.LBE7:
 289              	.LBE6:
 418:.\Generated_Source\PSoC4/comm_RS485.c **** 		while(0 != comm_RS485_UART_GET_RX_FIFO_ENTRIES) {
 290              		.loc 1 418 0 discriminator 1
 291 012e 764B     		ldr	r3, .L123+28
 292 0130 1B68     		ldr	r3, [r3]
 293 0132 1907     		lsl	r1, r3, #28
 294 0134 F4D1     		bne	.L34
 295 0136 65E0     		b	.L12
 296              	.LVL16:
 297              	.L24:
 298              	.LBB9:
 299              	.LBB8:
 184:.\Generated_Source\PSoC4/comm_RS485.c **** 	switch(internalState) {
 300              		.loc 1 184 0
 301 0138 1578     		ldrb	r5, [r2]
 302 013a 002D     		cmp	r5, #0
 303 013c 0FD0     		beq	.L26
 304 013e 012D     		cmp	r5, #1
 305 0140 F5D1     		bne	.L10
 186:.\Generated_Source\PSoC4/comm_RS485.c **** 		if(slaveBuff.pos == slaveBuff.size) {
 306              		.loc 1 186 0
 307 0142 226C     		ldr	r2, [r4, #64]
 308 0144 616C     		ldr	r1, [r4, #68]
 309 0146 8A42     		cmp	r2, r1
ARM GAS  C:\Users\SDEVAS~1\AppData\Local\Temp\ccfNj7w1.s 			page 14


 310 0148 04D1     		bne	.L28
 188:.\Generated_Source\PSoC4/comm_RS485.c ****       ERROR_CB();
 311              		.loc 1 188 0
 312 014a 636B     		ldr	r3, [r4, #52]
 313              	.LVL17:
 314 014c 002B     		cmp	r3, #0
 315 014e EED0     		beq	.L10
 316 0150 BC20     		mov	r0, #188
 317 0152 1DE0     		b	.L110
 318              	.LVL18:
 319              	.L28:
 190:.\Generated_Source\PSoC4/comm_RS485.c ****       slaveBuff.buff[slaveBuff.pos++] = byte;
 320              		.loc 1 190 0
 321 0154 511C     		add	r1, r2, #1
 322 0156 2164     		str	r1, [r4, #64]
 323 0158 E16B     		ldr	r1, [r4, #60]
 324 015a 8B54     		strb	r3, [r1, r2]
 325 015c E7E7     		b	.L10
 326              	.L26:
 194:.\Generated_Source\PSoC4/comm_RS485.c **** 		internalState = RECV_NORMAL;
 327              		.loc 1 194 0
 328 015e 0121     		mov	r1, #1
 329 0160 DBB2     		uxtb	r3, r3
 330              	.LVL19:
 331 0162 1170     		strb	r1, [r2]
 195:.\Generated_Source\PSoC4/comm_RS485.c **** 		switch( (comm_RS485_Protocol_frame_type) byte) {
 332              		.loc 1 195 0
 333 0164 112B     		cmp	r3, #17
 334 0166 02D0     		beq	.L31
 335 0168 122B     		cmp	r3, #18
 336 016a 06D0     		beq	.L32
 337 016c 0CE0     		b	.L122
 338              	.L31:
 198:.\Generated_Source\PSoC4/comm_RS485.c **** 			callbacks.slaveReceive(slaveBuff.buff, slaveBuff.pos);
 339              		.loc 1 198 0
 340 016e E06B     		ldr	r0, [r4, #60]
 341 0170 216C     		ldr	r1, [r4, #64]
 342 0172 A269     		ldr	r2, [r4, #24]
 343 0174 9047     		blx	r2
 344              	.LVL20:
 199:.\Generated_Source\PSoC4/comm_RS485.c **** 			slaveBuff.pos = 0;
 345              		.loc 1 199 0
 346 0176 2564     		str	r5, [r4, #64]
 347 0178 D9E7     		b	.L10
 348              	.L32:
 202:.\Generated_Source\PSoC4/comm_RS485.c **** 			state = comm_RS485_LISTENING;
 349              		.loc 1 202 0
 350 017a 0223     		mov	r3, #2
 351 017c 2370     		strb	r3, [r4]
 203:.\Generated_Source\PSoC4/comm_RS485.c **** 			if(callbacks.releasedAsSlave)
 352              		.loc 1 203 0
 353 017e 6369     		ldr	r3, [r4, #20]
 354 0180 002B     		cmp	r3, #0
 355 0182 D4D0     		beq	.L10
 204:.\Generated_Source\PSoC4/comm_RS485.c **** 				callbacks.releasedAsSlave();
 356              		.loc 1 204 0
 357 0184 9847     		blx	r3
ARM GAS  C:\Users\SDEVAS~1\AppData\Local\Temp\ccfNj7w1.s 			page 15


 358              	.LVL21:
 359 0186 D2E7     		b	.L10
 360              	.L122:
 208:.\Generated_Source\PSoC4/comm_RS485.c ****             ERROR_CB();
 361              		.loc 1 208 0
 362 0188 636B     		ldr	r3, [r4, #52]
 363 018a 002B     		cmp	r3, #0
 364 018c CFD0     		beq	.L10
 365 018e D020     		mov	r0, #208
 366              	.L110:
 367 0190 9847     		blx	r3
 368              	.LVL22:
 369 0192 CCE7     		b	.L10
 370              	.L44:
 371              	.LBE8:
 372              	.LBE9:
 420:.\Generated_Source\PSoC4/comm_RS485.c **** 		}
 421:.\Generated_Source\PSoC4/comm_RS485.c **** 		break;
 422:.\Generated_Source\PSoC4/comm_RS485.c ****     case comm_RS485_MASTER_OP:
 423:.\Generated_Source\PSoC4/comm_RS485.c **** 		while(0 != comm_RS485_UART_GET_RX_FIFO_ENTRIES) {
 424:.\Generated_Source\PSoC4/comm_RS485.c **** 		  dispatchReceivedByteInMasterOp(comm_RS485_UART_RX_FIFO_RD_REG);
 373              		.loc 1 424 0
 374 0194 574B     		ldr	r3, .L123+8
 375 0196 5B4A     		ldr	r2, .L123+24
 376 0198 1B68     		ldr	r3, [r3]
 377              	.LVL23:
 378              	.LBB10:
 379              	.LBB11:
 146:.\Generated_Source\PSoC4/comm_RS485.c **** 	if(byte & comm_RS485_UART_UART_MP_MARK) {
 380              		.loc 1 146 0
 381 019a D905     		lsl	r1, r3, #23
 382 019c 06D5     		bpl	.L35
 147:.\Generated_Source\PSoC4/comm_RS485.c **** 		internalState = RECV_MARK_BYTE;
 383              		.loc 1 147 0
 384 019e 0023     		mov	r3, #0
 385              	.LVL24:
 386 01a0 5370     		strb	r3, [r2, #1]
 387              	.L9:
 388              	.LBE11:
 389              	.LBE10:
 423:.\Generated_Source\PSoC4/comm_RS485.c **** 		while(0 != comm_RS485_UART_GET_RX_FIFO_ENTRIES) {
 390              		.loc 1 423 0 discriminator 1
 391 01a2 594B     		ldr	r3, .L123+28
 392 01a4 1B68     		ldr	r3, [r3]
 393 01a6 1907     		lsl	r1, r3, #28
 394 01a8 F4D1     		bne	.L44
 395 01aa 2BE0     		b	.L12
 396              	.LVL25:
 397              	.L35:
 398              	.LBB13:
 399              	.LBB12:
 150:.\Generated_Source\PSoC4/comm_RS485.c **** 	switch(internalState) {
 400              		.loc 1 150 0
 401 01ac 5578     		ldrb	r5, [r2, #1]
 402 01ae 002D     		cmp	r5, #0
 403 01b0 0FD0     		beq	.L37
 404 01b2 012D     		cmp	r5, #1
ARM GAS  C:\Users\SDEVAS~1\AppData\Local\Temp\ccfNj7w1.s 			page 16


 405 01b4 F5D1     		bne	.L9
 152:.\Generated_Source\PSoC4/comm_RS485.c **** 		if(masterBuff.pos == masterBuff.size) {
 406              		.loc 1 152 0
 407 01b6 E26C     		ldr	r2, [r4, #76]
 408 01b8 216D     		ldr	r1, [r4, #80]
 409 01ba 8A42     		cmp	r2, r1
 410 01bc 04D1     		bne	.L39
 154:.\Generated_Source\PSoC4/comm_RS485.c ****       ERROR_CB();
 411              		.loc 1 154 0
 412 01be 636B     		ldr	r3, [r4, #52]
 413              	.LVL26:
 414 01c0 002B     		cmp	r3, #0
 415 01c2 EED0     		beq	.L9
 416 01c4 9A20     		mov	r0, #154
 417 01c6 13E0     		b	.L111
 418              	.LVL27:
 419              	.L39:
 156:.\Generated_Source\PSoC4/comm_RS485.c ****       masterBuff.buff[masterBuff.pos++] = byte;
 420              		.loc 1 156 0
 421 01c8 511C     		add	r1, r2, #1
 422 01ca E164     		str	r1, [r4, #76]
 423 01cc A16C     		ldr	r1, [r4, #72]
 424 01ce 8B54     		strb	r3, [r1, r2]
 425 01d0 E7E7     		b	.L9
 426              	.L37:
 160:.\Generated_Source\PSoC4/comm_RS485.c **** 		internalState = RECV_NORMAL;
 427              		.loc 1 160 0
 428 01d2 0121     		mov	r1, #1
 429 01d4 DBB2     		uxtb	r3, r3
 430              	.LVL28:
 431 01d6 5170     		strb	r1, [r2, #1]
 161:.\Generated_Source\PSoC4/comm_RS485.c **** 		switch( (comm_RS485_Protocol_frame_type) byte) {
 432              		.loc 1 161 0
 433 01d8 112B     		cmp	r3, #17
 434 01da 05D1     		bne	.L109
 163:.\Generated_Source\PSoC4/comm_RS485.c **** 			callbacks.masterReceive(masterBuff.buff, masterBuff.pos);
 435              		.loc 1 163 0
 436 01dc A06C     		ldr	r0, [r4, #72]
 437 01de E16C     		ldr	r1, [r4, #76]
 438 01e0 E269     		ldr	r2, [r4, #28]
 439 01e2 9047     		blx	r2
 440              	.LVL29:
 164:.\Generated_Source\PSoC4/comm_RS485.c **** 			masterBuff.pos = 0;
 441              		.loc 1 164 0
 442 01e4 E564     		str	r5, [r4, #76]
 443 01e6 DCE7     		b	.L9
 444              	.L109:
 168:.\Generated_Source\PSoC4/comm_RS485.c ****         ERROR_CB();
 445              		.loc 1 168 0
 446 01e8 636B     		ldr	r3, [r4, #52]
 447 01ea 002B     		cmp	r3, #0
 448 01ec D9D0     		beq	.L9
 449 01ee A820     		mov	r0, #168
 450              	.L111:
 451 01f0 9847     		blx	r3
 452              	.LVL30:
 453 01f2 D6E7     		b	.L9
ARM GAS  C:\Users\SDEVAS~1\AppData\Local\Temp\ccfNj7w1.s 			page 17


 454              	.L3:
 455              	.LBE12:
 456              	.LBE13:
 425:.\Generated_Source\PSoC4/comm_RS485.c **** 		}
 426:.\Generated_Source\PSoC4/comm_RS485.c **** 		break;
 427:.\Generated_Source\PSoC4/comm_RS485.c ****     default:
 428:.\Generated_Source\PSoC4/comm_RS485.c ****         //TODO error report?
 429:.\Generated_Source\PSoC4/comm_RS485.c ****         ERROR_CB();
 457              		.loc 1 429 0
 458 01f4 636B     		ldr	r3, [r4, #52]
 459 01f6 002B     		cmp	r3, #0
 460 01f8 02D0     		beq	.L45
 461              		.loc 1 429 0 is_stmt 0 discriminator 1
 462 01fa AE20     		mov	r0, #174
 463 01fc FF30     		add	r0, r0, #255
 464 01fe 9847     		blx	r3
 465              	.LVL31:
 466              	.L45:
 430:.\Generated_Source\PSoC4/comm_RS485.c ****         //clear wrong received bytes, this somehow happen when we are in
 431:.\Generated_Source\PSoC4/comm_RS485.c ****         //TX mode
 432:.\Generated_Source\PSoC4/comm_RS485.c ****         //TODO find out why!
 433:.\Generated_Source\PSoC4/comm_RS485.c ****         comm_RS485_UART_SpiUartClearRxBuffer();
 467              		.loc 1 433 0 is_stmt 1
 468 0200 FFF7FEFF 		bl	comm_RS485_UART_SpiUartClearRxBuffer
 469              	.LVL32:
 470              	.L12:
 434:.\Generated_Source\PSoC4/comm_RS485.c ****     break;
 435:.\Generated_Source\PSoC4/comm_RS485.c ****     }
 436:.\Generated_Source\PSoC4/comm_RS485.c **** 
 437:.\Generated_Source\PSoC4/comm_RS485.c ****     comm_RS485_UART_ClearRxInterruptSource(comm_RS485_UART_INTR_RX_NOT_EMPTY);
 471              		.loc 1 437 0
 472 0204 414B     		ldr	r3, .L123+32
 473 0206 0422     		mov	r2, #4
 474 0208 1A60     		str	r2, [r3]
 475              	.L2:
 438:.\Generated_Source\PSoC4/comm_RS485.c ****   }
 439:.\Generated_Source\PSoC4/comm_RS485.c **** 
 440:.\Generated_Source\PSoC4/comm_RS485.c ****   if(comm_RS485_UART_CHECK_INTR_TX_MASKED(comm_RS485_UART_INTR_TX_UART_DONE)) {
 476              		.loc 1 440 0
 477 020a 414E     		ldr	r6, .L123+36
 478 020c 3368     		ldr	r3, [r6]
 479 020e 9A05     		lsl	r2, r3, #22
 480 0210 47D5     		bpl	.L46
 441:.\Generated_Source\PSoC4/comm_RS485.c ****     comm_RS485_TRANSCEIVER_RX_EN();
 481              		.loc 1 441 0
 482 0212 394C     		ldr	r4, .L123+12
 483 0214 0122     		mov	r2, #1
 484 0216 2368     		ldr	r3, [r4]
 485 0218 0225     		mov	r5, #2
 486 021a 9343     		bic	r3, r2
 487 021c 2360     		str	r3, [r4]
 488 021e 2368     		ldr	r3, [r4]
 489 0220 AB43     		bic	r3, r5
 490 0222 2360     		str	r3, [r4]
 491 0224 FFF7FEFF 		bl	comm_RS485_UART_SpiUartClearRxBuffer
 492              	.LVL33:
 493 0228 344B     		ldr	r3, .L123+16
ARM GAS  C:\Users\SDEVAS~1\AppData\Local\Temp\ccfNj7w1.s 			page 18


 494 022a 0421     		mov	r1, #4
 495 022c 1A68     		ldr	r2, [r3]
 496 022e 0A43     		orr	r2, r1
 497 0230 1A60     		str	r2, [r3]
 442:.\Generated_Source\PSoC4/comm_RS485.c **** 
 443:.\Generated_Source\PSoC4/comm_RS485.c ****     switch(state) {
 498              		.loc 1 443 0
 499 0232 2F4A     		ldr	r2, .L123+4
 500 0234 1078     		ldrb	r0, [r2]
 501 0236 131C     		mov	r3, r2
 502 0238 0138     		sub	r0, r0, #1
 503 023a 0628     		cmp	r0, #6
 504 023c 27D8     		bhi	.L47
 505 023e FFF7FEFF 		bl	__gnu_thumb1_case_uqi
 506              	.L49:
 507 0242 04       		.byte	(.L48-.L49)/2
 508 0243 2C       		.byte	(.L50-.L49)/2
 509 0244 11       		.byte	(.L51-.L49)/2
 510 0245 1F       		.byte	(.L52-.L49)/2
 511 0246 0B       		.byte	(.L53-.L49)/2
 512 0247 1F       		.byte	(.L52-.L49)/2
 513 0248 18       		.byte	(.L54-.L49)/2
 514 0249 00       		.p2align 1
 515              	.L48:
 444:.\Generated_Source\PSoC4/comm_RS485.c **** #if comm_RS485_IS_ARBITER
 445:.\Generated_Source\PSoC4/comm_RS485.c ****     case comm_RS485_ARBITRING:
 446:.\Generated_Source\PSoC4/comm_RS485.c ****     	//nothing special, we sent ARB_REQ
 447:.\Generated_Source\PSoC4/comm_RS485.c ****       comm_RS485_START_TIMEOUT();
 448:.\Generated_Source\PSoC4/comm_RS485.c ****   	break;
 449:.\Generated_Source\PSoC4/comm_RS485.c **** #else 
 450:.\Generated_Source\PSoC4/comm_RS485.c ****     case comm_RS485_MASTER_RELEASING_BUS:
 451:.\Generated_Source\PSoC4/comm_RS485.c ****   	  //we sent release bus, change state
 452:.\Generated_Source\PSoC4/comm_RS485.c ****   	  state = comm_RS485_LISTENING;
 516              		.loc 1 452 0
 517 024a 1570     		strb	r5, [r2]
 453:.\Generated_Source\PSoC4/comm_RS485.c ****   	  comm_RS485_RELEASE_WAKE();
 518              		.loc 1 453 0
 519 024c 2268     		ldr	r2, [r4]
 520 024e 0821     		mov	r1, #8
 521 0250 0A43     		orr	r2, r1
 522 0252 2260     		str	r2, [r4]
 454:.\Generated_Source\PSoC4/comm_RS485.c ****       if(callbacks.busReleased)
 523              		.loc 1 454 0
 524 0254 5B6A     		ldr	r3, [r3, #36]
 525 0256 0FE0     		b	.L120
 526              	.L53:
 455:.\Generated_Source\PSoC4/comm_RS485.c ****         callbacks.busReleased();
 456:.\Generated_Source\PSoC4/comm_RS485.c ****     break; 
 457:.\Generated_Source\PSoC4/comm_RS485.c **** #endif
 458:.\Generated_Source\PSoC4/comm_RS485.c ****     case comm_RS485_LISTENING:
 459:.\Generated_Source\PSoC4/comm_RS485.c **** #if comm_RS485_IS_ARBITER
 460:.\Generated_Source\PSoC4/comm_RS485.c ****     	//nothing special, we sent ARB_GRANTED
 461:.\Generated_Source\PSoC4/comm_RS485.c **** #else
 462:.\Generated_Source\PSoC4/comm_RS485.c ****       //nothing special happnd, we sent ARB_NACK or ARB_ACK successfuly
 463:.\Generated_Source\PSoC4/comm_RS485.c **** #endif
 464:.\Generated_Source\PSoC4/comm_RS485.c ****     break;
 465:.\Generated_Source\PSoC4/comm_RS485.c ****     case comm_RS485_MASTER_CHOOSING_SLAVE:
ARM GAS  C:\Users\SDEVAS~1\AppData\Local\Temp\ccfNj7w1.s 			page 19


 466:.\Generated_Source\PSoC4/comm_RS485.c **** 		//we sent selectSlave request, work is done here
 467:.\Generated_Source\PSoC4/comm_RS485.c ****       comm_RS485_START_TIMEOUT();
 527              		.loc 1 467 0
 528 0258 6420     		mov	r0, #100
 529 025a FFF7FEFF 		bl	comm_RS485_Timeout_WriteCounter
 530              	.LVL34:
 531 025e FFF7FEFF 		bl	comm_RS485_Timeout_Enable
 532              	.LVL35:
 468:.\Generated_Source\PSoC4/comm_RS485.c **** 		break;
 533              		.loc 1 468 0
 534 0262 1AE0     		b	.L50
 535              	.L51:
 469:.\Generated_Source\PSoC4/comm_RS485.c ****     case comm_RS485_SELECTING_AS_SLAVE:
 470:.\Generated_Source\PSoC4/comm_RS485.c **** 		state = comm_RS485_SLAVE_OP;
 536              		.loc 1 470 0
 537 0264 1170     		strb	r1, [r2]
 471:.\Generated_Source\PSoC4/comm_RS485.c **** 		  //sent response for being selected as slave, time for callback
 472:.\Generated_Source\PSoC4/comm_RS485.c **** 		  if(callbacks.selectedAsSlave)
 538              		.loc 1 472 0
 539 0266 1269     		ldr	r2, [r2, #16]
 540 0268 002A     		cmp	r2, #0
 541 026a 16D0     		beq	.L50
 473:.\Generated_Source\PSoC4/comm_RS485.c **** 			callbacks.selectedAsSlave(otherEndAddress);
 542              		.loc 1 473 0
 543 026c D868     		ldr	r0, [r3, #12]
 544 026e 9047     		blx	r2
 545              	.LVL36:
 546 0270 13E0     		b	.L50
 547              	.L54:
 474:.\Generated_Source\PSoC4/comm_RS485.c **** 		break;
 475:.\Generated_Source\PSoC4/comm_RS485.c ****     case comm_RS485_MASTER_RELEASING_SLAVE:
 476:.\Generated_Source\PSoC4/comm_RS485.c ****   		//we sent release req, change state
 477:.\Generated_Source\PSoC4/comm_RS485.c ****   		state = comm_RS485_MASTER_CHOOSING_SLAVE;
 548              		.loc 1 477 0
 549 0272 0522     		mov	r2, #5
 550 0274 1A70     		strb	r2, [r3]
 478:.\Generated_Source\PSoC4/comm_RS485.c ****       if(callbacks.slaveReleased)
 551              		.loc 1 478 0
 552 0276 1B6B     		ldr	r3, [r3, #48]
 553              	.L120:
 554 0278 002B     		cmp	r3, #0
 555 027a 0ED0     		beq	.L50
 479:.\Generated_Source\PSoC4/comm_RS485.c ****         callbacks.slaveReleased();
 556              		.loc 1 479 0
 557 027c 9847     		blx	r3
 558              	.LVL37:
 559 027e 0CE0     		b	.L50
 560              	.L52:
 480:.\Generated_Source\PSoC4/comm_RS485.c **** 		break;
 481:.\Generated_Source\PSoC4/comm_RS485.c ****     case comm_RS485_MASTER_OP:
 482:.\Generated_Source\PSoC4/comm_RS485.c ****     case comm_RS485_SLAVE_OP:
 483:.\Generated_Source\PSoC4/comm_RS485.c ****   		//send frame transfer is over, inform about it
 484:.\Generated_Source\PSoC4/comm_RS485.c ****   		if(callbacks.frameSent)
 561              		.loc 1 484 0
 562 0280 926A     		ldr	r2, [r2, #40]
 563 0282 002A     		cmp	r2, #0
 564 0284 09D0     		beq	.L50
ARM GAS  C:\Users\SDEVAS~1\AppData\Local\Temp\ccfNj7w1.s 			page 20


 485:.\Generated_Source\PSoC4/comm_RS485.c ****   			callbacks.frameSent(txBuff.buff, txBuff.size);
 565              		.loc 1 485 0
 566 0286 586D     		ldr	r0, [r3, #84]
 567 0288 D96D     		ldr	r1, [r3, #92]
 568 028a 9047     		blx	r2
 569              	.LVL38:
 570 028c 05E0     		b	.L50
 571              	.L47:
 486:.\Generated_Source\PSoC4/comm_RS485.c **** 		break;
 487:.\Generated_Source\PSoC4/comm_RS485.c **** 
 488:.\Generated_Source\PSoC4/comm_RS485.c ****     default:
 489:.\Generated_Source\PSoC4/comm_RS485.c ****         //TODO error report?
 490:.\Generated_Source\PSoC4/comm_RS485.c ****         ERROR_CB();
 572              		.loc 1 490 0
 573 028e 536B     		ldr	r3, [r2, #52]
 574 0290 002B     		cmp	r3, #0
 575 0292 02D0     		beq	.L50
 576              		.loc 1 490 0 is_stmt 0 discriminator 1
 577 0294 F520     		mov	r0, #245
 578 0296 4000     		lsl	r0, r0, #1
 579 0298 9847     		blx	r3
 580              	.LVL39:
 581              	.L50:
 491:.\Generated_Source\PSoC4/comm_RS485.c ****     break;
 492:.\Generated_Source\PSoC4/comm_RS485.c ****     }
 493:.\Generated_Source\PSoC4/comm_RS485.c **** 
 494:.\Generated_Source\PSoC4/comm_RS485.c ****     comm_RS485_UART_ClearTxInterruptSource(comm_RS485_UART_INTR_TX_UART_DONE);
 582              		.loc 1 494 0 is_stmt 1
 583 029a 8022     		mov	r2, #128
 584 029c 1D4B     		ldr	r3, .L123+40
 585 029e 9200     		lsl	r2, r2, #2
 586 02a0 1A60     		str	r2, [r3]
 587              	.L46:
 495:.\Generated_Source\PSoC4/comm_RS485.c ****   }
 496:.\Generated_Source\PSoC4/comm_RS485.c **** 
 497:.\Generated_Source\PSoC4/comm_RS485.c ****   if(comm_RS485_UART_CHECK_INTR_TX_MASKED(comm_RS485_UART_INTR_TX_NOT_FULL)) {
 588              		.loc 1 497 0
 589 02a2 3368     		ldr	r3, [r6]
 590 02a4 9907     		lsl	r1, r3, #30
 591 02a6 44D5     		bpl	.L1
 498:.\Generated_Source\PSoC4/comm_RS485.c **** 	  while(comm_RS485_UART_SPI_UART_FIFO_SIZE != comm_RS485_UART_GET_TX_FIFO_ENTRIES) {
 499:.\Generated_Source\PSoC4/comm_RS485.c **** 		  if(txBuff.pos == txBuff.size) {
 500:.\Generated_Source\PSoC4/comm_RS485.c **** 			  //end of message, add EOF mark
 501:.\Generated_Source\PSoC4/comm_RS485.c **** 			  while((comm_RS485_UART_SPI_UART_FIFO_SIZE - comm_RS485_UART_GET_TX_FIFO_ENTRIES) < 2) {
 502:.\Generated_Source\PSoC4/comm_RS485.c **** 				  //wait until there is 2 byte space in tx fifo (shouldnt take long!)
 503:.\Generated_Source\PSoC4/comm_RS485.c **** 			  }
 504:.\Generated_Source\PSoC4/comm_RS485.c **** 			  //add EOF mark
 505:.\Generated_Source\PSoC4/comm_RS485.c **** 			  comm_RS485_UART_TX_FIFO_WR_REG = comm_RS485_UART_UART_MP_MARK | otherEndAddress;
 506:.\Generated_Source\PSoC4/comm_RS485.c **** 			  comm_RS485_UART_TX_FIFO_WR_REG = comm_RS485_Protocol_EOF;
 507:.\Generated_Source\PSoC4/comm_RS485.c **** 			  //disable TX_NOT_FULL IRQ
 508:.\Generated_Source\PSoC4/comm_RS485.c **** 			  comm_RS485_UART_DISABLE_INTR_TX(comm_RS485_UART_INTR_TX_NOT_FULL);
 509:.\Generated_Source\PSoC4/comm_RS485.c **** 			  break;
 510:.\Generated_Source\PSoC4/comm_RS485.c **** 		  } else {
 511:.\Generated_Source\PSoC4/comm_RS485.c **** 			  comm_RS485_UART_TX_FIFO_WR_REG = txBuff.buff[txBuff.pos++];
 592              		.loc 1 511 0
 593 02a8 114B     		ldr	r3, .L123+4
 594 02aa 5C6D     		ldr	r4, [r3, #84]
ARM GAS  C:\Users\SDEVAS~1\AppData\Local\Temp\ccfNj7w1.s 			page 21


 595              	.L58:
 498:.\Generated_Source\PSoC4/comm_RS485.c **** 	  while(comm_RS485_UART_SPI_UART_FIFO_SIZE != comm_RS485_UART_GET_TX_FIFO_ENTRIES) {
 596              		.loc 1 498 0 discriminator 1
 597 02ac 1A4A     		ldr	r2, .L123+44
 598 02ae 0F21     		mov	r1, #15
 599 02b0 1068     		ldr	r0, [r2]
 600 02b2 0140     		and	r1, r0
 601 02b4 101C     		mov	r0, r2
 602 02b6 0829     		cmp	r1, #8
 603 02b8 38D0     		beq	.L62
 499:.\Generated_Source\PSoC4/comm_RS485.c **** 		  if(txBuff.pos == txBuff.size) {
 604              		.loc 1 499 0
 605 02ba 9A6D     		ldr	r2, [r3, #88]
 606 02bc D96D     		ldr	r1, [r3, #92]
 607 02be 8A42     		cmp	r2, r1
 608 02c0 2ED1     		bne	.L59
 609              	.L61:
 501:.\Generated_Source\PSoC4/comm_RS485.c **** 			  while((comm_RS485_UART_SPI_UART_FIFO_SIZE - comm_RS485_UART_GET_TX_FIFO_ENTRIES) < 2) {
 610              		.loc 1 501 0
 611 02c2 0168     		ldr	r1, [r0]
 612 02c4 0F22     		mov	r2, #15
 613 02c6 0A40     		and	r2, r1
 614 02c8 0821     		mov	r1, #8
 615 02ca 8A1A     		sub	r2, r1, r2
 616 02cc 012A     		cmp	r2, #1
 617 02ce F8D9     		bls	.L61
 505:.\Generated_Source\PSoC4/comm_RS485.c **** 			  comm_RS485_UART_TX_FIFO_WR_REG = comm_RS485_UART_UART_MP_MARK | otherEndAddress;
 618              		.loc 1 505 0
 619 02d0 DB68     		ldr	r3, [r3, #12]
 620 02d2 8022     		mov	r2, #128
 621 02d4 5200     		lsl	r2, r2, #1
 622 02d6 1A43     		orr	r2, r3
 623 02d8 094B     		ldr	r3, .L123+20
 508:.\Generated_Source\PSoC4/comm_RS485.c **** 			  comm_RS485_UART_DISABLE_INTR_TX(comm_RS485_UART_INTR_TX_NOT_FULL);
 624              		.loc 1 508 0
 625 02da 0221     		mov	r1, #2
 505:.\Generated_Source\PSoC4/comm_RS485.c **** 			  comm_RS485_UART_TX_FIFO_WR_REG = comm_RS485_UART_UART_MP_MARK | otherEndAddress;
 626              		.loc 1 505 0
 627 02dc 1A60     		str	r2, [r3]
 506:.\Generated_Source\PSoC4/comm_RS485.c **** 			  comm_RS485_UART_TX_FIFO_WR_REG = comm_RS485_Protocol_EOF;
 628              		.loc 1 506 0
 629 02de 1122     		mov	r2, #17
 630 02e0 1A60     		str	r2, [r3]
 508:.\Generated_Source\PSoC4/comm_RS485.c **** 			  comm_RS485_UART_DISABLE_INTR_TX(comm_RS485_UART_INTR_TX_NOT_FULL);
 631              		.loc 1 508 0
 632 02e2 0E4B     		ldr	r3, .L123+48
 633 02e4 1A68     		ldr	r2, [r3]
 634 02e6 8A43     		bic	r2, r1
 635 02e8 1A60     		str	r2, [r3]
 509:.\Generated_Source\PSoC4/comm_RS485.c **** 			  break;
 636              		.loc 1 509 0
 637 02ea 1FE0     		b	.L62
 638              	.L124:
 639              		.align	2
 640              	.L123:
 641 02ec CC0F0640 		.word	1074139084
 642 02f0 00000000 		.word	.LANCHOR0
ARM GAS  C:\Users\SDEVAS~1\AppData\Local\Temp\ccfNj7w1.s 			page 22


 643 02f4 40030640 		.word	1074135872
 644 02f8 00000440 		.word	1074003968
 645 02fc C80F0640 		.word	1074139080
 646 0300 40020640 		.word	1074135616
 647 0304 00000000 		.word	.LANCHOR1
 648 0308 08030640 		.word	1074135816
 649 030c C00F0640 		.word	1074139072
 650 0310 8C0F0640 		.word	1074139020
 651 0314 800F0640 		.word	1074139008
 652 0318 08020640 		.word	1074135560
 653 031c 880F0640 		.word	1074139016
 654              	.L59:
 655              		.loc 1 511 0
 656 0320 511C     		add	r1, r2, #1
 657 0322 9965     		str	r1, [r3, #88]
 658 0324 A15C     		ldrb	r1, [r4, r2]
 659 0326 034A     		ldr	r2, .L125
 660 0328 1160     		str	r1, [r2]
 661 032a BFE7     		b	.L58
 662              	.L62:
 512:.\Generated_Source\PSoC4/comm_RS485.c **** 		  }
 513:.\Generated_Source\PSoC4/comm_RS485.c **** 	  }
 514:.\Generated_Source\PSoC4/comm_RS485.c **** 
 515:.\Generated_Source\PSoC4/comm_RS485.c **** 	  comm_RS485_UART_ClearTxInterruptSource(comm_RS485_UART_INTR_TX_NOT_FULL);
 663              		.loc 1 515 0
 664 032c 024B     		ldr	r3, .L125+4
 665 032e 0222     		mov	r2, #2
 666 0330 1A60     		str	r2, [r3]
 667              	.L1:
 516:.\Generated_Source\PSoC4/comm_RS485.c ****   }
 517:.\Generated_Source\PSoC4/comm_RS485.c **** 
 518:.\Generated_Source\PSoC4/comm_RS485.c **** }
 668              		.loc 1 518 0
 669              		@ sp needed
 670 0332 70BD     		pop	{r4, r5, r6, pc}
 671              	.L126:
 672              		.align	2
 673              	.L125:
 674 0334 40020640 		.word	1074135616
 675 0338 800F0640 		.word	1074139008
 676              		.cfi_endproc
 677              	.LFE35:
 678              		.size	comm_RS485_Uart_isr, .-comm_RS485_Uart_isr
 679              		.section	.text.comm_RS485_Timeout_isr,"ax",%progbits
 680              		.align	1
 681              		.global	comm_RS485_Timeout_isr
 682              		.code	16
 683              		.thumb_func
 684              		.type	comm_RS485_Timeout_isr, %function
 685              	comm_RS485_Timeout_isr:
 686              	.LFB37:
 519:.\Generated_Source\PSoC4/comm_RS485.c **** 
 520:.\Generated_Source\PSoC4/comm_RS485.c **** CY_ISR(comm_RS485_Wake_isr) {
 521:.\Generated_Source\PSoC4/comm_RS485.c ****   if(comm_RS485_WAKE_ClearInterrupt()) { //checks irq status
 522:.\Generated_Source\PSoC4/comm_RS485.c ****     if(CyPins_ReadPin(comm_RS485_WAKE_0)) {
 523:.\Generated_Source\PSoC4/comm_RS485.c ****       //was rising edge
 524:.\Generated_Source\PSoC4/comm_RS485.c **** /*      switch(state) {
ARM GAS  C:\Users\SDEVAS~1\AppData\Local\Temp\ccfNj7w1.s 			page 23


 525:.\Generated_Source\PSoC4/comm_RS485.c **** #if comm_RS485_IS_ARBITER
 526:.\Generated_Source\PSoC4/comm_RS485.c ****         case comm_RS485_ARBITRING:
 527:.\Generated_Source\PSoC4/comm_RS485.c **** #endif
 528:.\Generated_Source\PSoC4/comm_RS485.c ****         case comm_RS485_LISTENING: //is rising edge possible in this state? */
 529:.\Generated_Source\PSoC4/comm_RS485.c ****           comm_RS485_Timeout_Sleep();
 530:.\Generated_Source\PSoC4/comm_RS485.c ****           comm_RS485_UART_Sleep();
 531:.\Generated_Source\PSoC4/comm_RS485.c ****           comm_RS485_TRANSCEIVER_SHUTDOWN();
 532:.\Generated_Source\PSoC4/comm_RS485.c ****           state = comm_RS485_SLEEPING;
 533:.\Generated_Source\PSoC4/comm_RS485.c ****           if(callbacks.wake)
 534:.\Generated_Source\PSoC4/comm_RS485.c ****             callbacks.wake(0);
 535:.\Generated_Source\PSoC4/comm_RS485.c **** /*        break;
 536:.\Generated_Source\PSoC4/comm_RS485.c ****         default:
 537:.\Generated_Source\PSoC4/comm_RS485.c ****             //TODO error report?
 538:.\Generated_Source\PSoC4/comm_RS485.c ****             ERROR_CB();
 539:.\Generated_Source\PSoC4/comm_RS485.c ****         break;
 540:.\Generated_Source\PSoC4/comm_RS485.c ****       }*/
 541:.\Generated_Source\PSoC4/comm_RS485.c ****     } else {
 542:.\Generated_Source\PSoC4/comm_RS485.c ****       //was falling edge
 543:.\Generated_Source\PSoC4/comm_RS485.c **** /*      switch(state) {
 544:.\Generated_Source\PSoC4/comm_RS485.c ****         case comm_RS485_SLEEPING:*/
 545:.\Generated_Source\PSoC4/comm_RS485.c ****           comm_RS485_TRANSCEIVER_RX_EN();
 546:.\Generated_Source\PSoC4/comm_RS485.c ****           comm_RS485_UART_Wakeup();
 547:.\Generated_Source\PSoC4/comm_RS485.c ****           comm_RS485_Timeout_Wakeup();
 548:.\Generated_Source\PSoC4/comm_RS485.c **** #if comm_RS485_IS_ARBITER
 549:.\Generated_Source\PSoC4/comm_RS485.c ****           state = comm_RS485_ARBITRING;
 550:.\Generated_Source\PSoC4/comm_RS485.c ****           nextArbitrationStep();
 551:.\Generated_Source\PSoC4/comm_RS485.c **** #else
 552:.\Generated_Source\PSoC4/comm_RS485.c ****           state = comm_RS485_LISTENING;
 553:.\Generated_Source\PSoC4/comm_RS485.c **** #endif
 554:.\Generated_Source\PSoC4/comm_RS485.c ****           if(callbacks.wake)
 555:.\Generated_Source\PSoC4/comm_RS485.c ****             callbacks.wake(1);
 556:.\Generated_Source\PSoC4/comm_RS485.c **** /*        break;
 557:.\Generated_Source\PSoC4/comm_RS485.c ****         default:
 558:.\Generated_Source\PSoC4/comm_RS485.c ****             //TODO error report?
 559:.\Generated_Source\PSoC4/comm_RS485.c ****             ERROR_CB();
 560:.\Generated_Source\PSoC4/comm_RS485.c ****         break;
 561:.\Generated_Source\PSoC4/comm_RS485.c ****       }*/
 562:.\Generated_Source\PSoC4/comm_RS485.c ****     }
 563:.\Generated_Source\PSoC4/comm_RS485.c ****   }
 564:.\Generated_Source\PSoC4/comm_RS485.c **** }
 565:.\Generated_Source\PSoC4/comm_RS485.c **** 
 566:.\Generated_Source\PSoC4/comm_RS485.c **** CY_ISR(comm_RS485_Timeout_isr) {
 687              		.loc 1 566 0
 688              		.cfi_startproc
 689 0000 10B5     		push	{r4, lr}
 690              		.cfi_def_cfa_offset 8
 691              		.cfi_offset 4, -8
 692              		.cfi_offset 14, -4
 567:.\Generated_Source\PSoC4/comm_RS485.c ****   comm_RS485_STOP_TIMEOUT();
 693              		.loc 1 567 0
 694 0002 FFF7FEFF 		bl	comm_RS485_Timeout_Stop
 695              	.LVL40:
 568:.\Generated_Source\PSoC4/comm_RS485.c ****   ERROR_CB();
 696              		.loc 1 568 0
 697 0006 164C     		ldr	r4, .L139
 698 0008 636B     		ldr	r3, [r4, #52]
 699 000a 002B     		cmp	r3, #0
ARM GAS  C:\Users\SDEVAS~1\AppData\Local\Temp\ccfNj7w1.s 			page 24


 700 000c 02D0     		beq	.L128
 701              		.loc 1 568 0 is_stmt 0 discriminator 1
 702 000e 8E20     		mov	r0, #142
 703 0010 8000     		lsl	r0, r0, #2
 704 0012 9847     		blx	r3
 705              	.LVL41:
 706              	.L128:
 569:.\Generated_Source\PSoC4/comm_RS485.c ****   
 570:.\Generated_Source\PSoC4/comm_RS485.c ****   switch(state) {
 707              		.loc 1 570 0 is_stmt 1
 708 0014 2378     		ldrb	r3, [r4]
 709 0016 052B     		cmp	r3, #5
 710 0018 1AD1     		bne	.L138
 711              	.LBB16:
 571:.\Generated_Source\PSoC4/comm_RS485.c **** #if comm_RS485_IS_ARBITER
 572:.\Generated_Source\PSoC4/comm_RS485.c ****     case comm_RS485_ARBITRING:
 573:.\Generated_Source\PSoC4/comm_RS485.c ****       nextArbitrationStep();
 574:.\Generated_Source\PSoC4/comm_RS485.c ****     break;
 575:.\Generated_Source\PSoC4/comm_RS485.c **** #endif
 576:.\Generated_Source\PSoC4/comm_RS485.c ****     case comm_RS485_MASTER_CHOOSING_SLAVE:
 577:.\Generated_Source\PSoC4/comm_RS485.c ****       //resend choosing call!
 578:.\Generated_Source\PSoC4/comm_RS485.c ****       
 579:.\Generated_Source\PSoC4/comm_RS485.c ****       CyGlobalIntDisable;
 712              		.loc 1 579 0
 713              	@ 579 ".\Generated_Source\PSoC4\comm_RS485.c" 1
 714 001a 72B6     		CPSID   i
 715              	@ 0 "" 2
 580:.\Generated_Source\PSoC4/comm_RS485.c ****       comm_RS485_TRANSCEIVER_TX_EN();
 716              		.loc 1 580 0
 717              		.code	16
 718 001c 114B     		ldr	r3, .L139+4
 719 001e 0121     		mov	r1, #1
 720 0020 1A68     		ldr	r2, [r3]
 721 0022 0A43     		orr	r2, r1
 722 0024 1A60     		str	r2, [r3]
 723 0026 1A68     		ldr	r2, [r3]
 724 0028 0221     		mov	r1, #2
 725 002a 0A43     		orr	r2, r1
 726 002c 1A60     		str	r2, [r3]
 727 002e 0E4B     		ldr	r3, .L139+8
 728 0030 0421     		mov	r1, #4
 729 0032 1A68     		ldr	r2, [r3]
 730 0034 8A43     		bic	r2, r1
 731 0036 1A60     		str	r2, [r3]
 581:.\Generated_Source\PSoC4/comm_RS485.c ****   		//send request
 582:.\Generated_Source\PSoC4/comm_RS485.c ****   		comm_RS485_UART_TX_FIFO_WR_REG = comm_RS485_UART_UART_MP_MARK | otherEndAddress;
 732              		.loc 1 582 0
 733 0038 E368     		ldr	r3, [r4, #12]
 734 003a 8022     		mov	r2, #128
 735 003c 5200     		lsl	r2, r2, #1
 736 003e 1A43     		orr	r2, r3
 737 0040 0A4B     		ldr	r3, .L139+12
 738 0042 1A60     		str	r2, [r3]
 583:.\Generated_Source\PSoC4/comm_RS485.c ****   		comm_RS485_UART_TX_FIFO_WR_REG = comm_RS485_Protocol_NORMAL;
 739              		.loc 1 583 0
 740 0044 1022     		mov	r2, #16
 741 0046 1A60     		str	r2, [r3]
ARM GAS  C:\Users\SDEVAS~1\AppData\Local\Temp\ccfNj7w1.s 			page 25


 584:.\Generated_Source\PSoC4/comm_RS485.c ****   		comm_RS485_UART_TX_FIFO_WR_REG = comm_RS485_OWN_ADDRESS;
 742              		.loc 1 584 0
 743 0048 B022     		mov	r2, #176
 744 004a 1A60     		str	r2, [r3]
 585:.\Generated_Source\PSoC4/comm_RS485.c ****       CyGlobalIntEnable;
 745              		.loc 1 585 0
 746              	@ 585 ".\Generated_Source\PSoC4\comm_RS485.c" 1
 747 004c 62B6     		CPSIE   i
 748              	@ 0 "" 2
 749              		.code	16
 750 004e 05E0     		b	.L127
 751              	.L138:
 752              	.LBE16:
 586:.\Generated_Source\PSoC4/comm_RS485.c **** 		break;
 587:.\Generated_Source\PSoC4/comm_RS485.c ****     default:
 588:.\Generated_Source\PSoC4/comm_RS485.c ****       ERROR_CB();
 753              		.loc 1 588 0
 754 0050 636B     		ldr	r3, [r4, #52]
 755 0052 002B     		cmp	r3, #0
 756 0054 02D0     		beq	.L127
 757              		.loc 1 588 0 is_stmt 0 discriminator 1
 758 0056 9320     		mov	r0, #147
 759 0058 8000     		lsl	r0, r0, #2
 760 005a 9847     		blx	r3
 761              	.LVL42:
 762              	.L127:
 589:.\Generated_Source\PSoC4/comm_RS485.c ****     break;
 590:.\Generated_Source\PSoC4/comm_RS485.c ****   }
 591:.\Generated_Source\PSoC4/comm_RS485.c **** }
 763              		.loc 1 591 0 is_stmt 1
 764              		@ sp needed
 765 005c 10BD     		pop	{r4, pc}
 766              	.L140:
 767 005e C046     		.align	2
 768              	.L139:
 769 0060 00000000 		.word	.LANCHOR0
 770 0064 00000440 		.word	1074003968
 771 0068 C80F0640 		.word	1074139080
 772 006c 40020640 		.word	1074135616
 773              		.cfi_endproc
 774              	.LFE37:
 775              		.size	comm_RS485_Timeout_isr, .-comm_RS485_Timeout_isr
 776              		.section	.text.comm_RS485_Wake_isr,"ax",%progbits
 777              		.align	1
 778              		.global	comm_RS485_Wake_isr
 779              		.code	16
 780              		.thumb_func
 781              		.type	comm_RS485_Wake_isr, %function
 782              	comm_RS485_Wake_isr:
 783              	.LFB36:
 520:.\Generated_Source\PSoC4/comm_RS485.c **** CY_ISR(comm_RS485_Wake_isr) {
 784              		.loc 1 520 0
 785              		.cfi_startproc
 786 0000 F8B5     		push	{r3, r4, r5, r6, r7, lr}
 787              		.cfi_def_cfa_offset 24
 788              		.cfi_offset 3, -24
 789              		.cfi_offset 4, -20
ARM GAS  C:\Users\SDEVAS~1\AppData\Local\Temp\ccfNj7w1.s 			page 26


 790              		.cfi_offset 5, -16
 791              		.cfi_offset 6, -12
 792              		.cfi_offset 7, -8
 793              		.cfi_offset 14, -4
 521:.\Generated_Source\PSoC4/comm_RS485.c ****   if(comm_RS485_WAKE_ClearInterrupt()) { //checks irq status
 794              		.loc 1 521 0
 795 0002 FFF7FEFF 		bl	comm_RS485_WAKE_ClearInterrupt
 796              	.LVL43:
 797 0006 0028     		cmp	r0, #0
 798 0008 36D0     		beq	.L141
 522:.\Generated_Source\PSoC4/comm_RS485.c ****     if(CyPins_ReadPin(comm_RS485_WAKE_0)) {
 799              		.loc 1 522 0
 800 000a 1C4B     		ldr	r3, .L153
 801 000c 0127     		mov	r7, #1
 802 000e 1B68     		ldr	r3, [r3]
 803 0010 1B4C     		ldr	r4, .L153+4
 804 0012 1C4E     		ldr	r6, .L153+8
 805 0014 1C4D     		ldr	r5, .L153+12
 806 0016 1A07     		lsl	r2, r3, #28
 807 0018 16D5     		bpl	.L144
 808              	.LBB19:
 809              	.LBB20:
 529:.\Generated_Source\PSoC4/comm_RS485.c ****           comm_RS485_Timeout_Sleep();
 810              		.loc 1 529 0
 811 001a FFF7FEFF 		bl	comm_RS485_Timeout_Sleep
 812              	.LVL44:
 530:.\Generated_Source\PSoC4/comm_RS485.c ****           comm_RS485_UART_Sleep();
 813              		.loc 1 530 0
 814 001e FFF7FEFF 		bl	comm_RS485_UART_Sleep
 815              	.LVL45:
 531:.\Generated_Source\PSoC4/comm_RS485.c ****           comm_RS485_TRANSCEIVER_SHUTDOWN();
 816              		.loc 1 531 0
 817 0022 2368     		ldr	r3, [r4]
 818 0024 0222     		mov	r2, #2
 819 0026 BB43     		bic	r3, r7
 820 0028 2360     		str	r3, [r4]
 821 002a 2368     		ldr	r3, [r4]
 822 002c 1343     		orr	r3, r2
 823 002e 2360     		str	r3, [r4]
 824 0030 FFF7FEFF 		bl	comm_RS485_UART_SpiUartClearRxBuffer
 825              	.LVL46:
 826 0034 3368     		ldr	r3, [r6]
 827 0036 0422     		mov	r2, #4
 828 0038 9343     		bic	r3, r2
 829 003a 3360     		str	r3, [r6]
 533:.\Generated_Source\PSoC4/comm_RS485.c ****           if(callbacks.wake)
 830              		.loc 1 533 0
 831 003c AB6B     		ldr	r3, [r5, #56]
 532:.\Generated_Source\PSoC4/comm_RS485.c ****           state = comm_RS485_SLEEPING;
 832              		.loc 1 532 0
 833 003e 0020     		mov	r0, #0
 834 0040 2870     		strb	r0, [r5]
 533:.\Generated_Source\PSoC4/comm_RS485.c ****           if(callbacks.wake)
 835              		.loc 1 533 0
 836 0042 8342     		cmp	r3, r0
 837 0044 17D1     		bne	.L152
 838 0046 17E0     		b	.L141
ARM GAS  C:\Users\SDEVAS~1\AppData\Local\Temp\ccfNj7w1.s 			page 27


 839              	.L144:
 840              	.LBE20:
 841              	.LBE19:
 545:.\Generated_Source\PSoC4/comm_RS485.c ****           comm_RS485_TRANSCEIVER_RX_EN();
 842              		.loc 1 545 0
 843 0048 2368     		ldr	r3, [r4]
 844 004a 0222     		mov	r2, #2
 845 004c BB43     		bic	r3, r7
 846 004e 2360     		str	r3, [r4]
 847 0050 2368     		ldr	r3, [r4]
 848 0052 9343     		bic	r3, r2
 849 0054 2360     		str	r3, [r4]
 850 0056 FFF7FEFF 		bl	comm_RS485_UART_SpiUartClearRxBuffer
 851              	.LVL47:
 852 005a 3368     		ldr	r3, [r6]
 853 005c 0422     		mov	r2, #4
 854 005e 1343     		orr	r3, r2
 855 0060 3360     		str	r3, [r6]
 546:.\Generated_Source\PSoC4/comm_RS485.c ****           comm_RS485_UART_Wakeup();
 856              		.loc 1 546 0
 857 0062 FFF7FEFF 		bl	comm_RS485_UART_Wakeup
 858              	.LVL48:
 547:.\Generated_Source\PSoC4/comm_RS485.c ****           comm_RS485_Timeout_Wakeup();
 859              		.loc 1 547 0
 860 0066 FFF7FEFF 		bl	comm_RS485_Timeout_Wakeup
 861              	.LVL49:
 552:.\Generated_Source\PSoC4/comm_RS485.c ****           state = comm_RS485_LISTENING;
 862              		.loc 1 552 0
 863 006a 0223     		mov	r3, #2
 864 006c 2B70     		strb	r3, [r5]
 554:.\Generated_Source\PSoC4/comm_RS485.c ****           if(callbacks.wake)
 865              		.loc 1 554 0
 866 006e AB6B     		ldr	r3, [r5, #56]
 867 0070 002B     		cmp	r3, #0
 868 0072 01D0     		beq	.L141
 555:.\Generated_Source\PSoC4/comm_RS485.c ****             callbacks.wake(1);
 869              		.loc 1 555 0
 870 0074 381C     		mov	r0, r7
 871              	.L152:
 872 0076 9847     		blx	r3
 873              	.LVL50:
 874              	.L141:
 564:.\Generated_Source\PSoC4/comm_RS485.c **** }
 875              		.loc 1 564 0
 876              		@ sp needed
 877 0078 F8BD     		pop	{r3, r4, r5, r6, r7, pc}
 878              	.L154:
 879 007a C046     		.align	2
 880              	.L153:
 881 007c 04000440 		.word	1074003972
 882 0080 00000440 		.word	1074003968
 883 0084 C80F0640 		.word	1074139080
 884 0088 00000000 		.word	.LANCHOR0
 885              		.cfi_endproc
 886              	.LFE36:
 887              		.size	comm_RS485_Wake_isr, .-comm_RS485_Wake_isr
 888              		.section	.text.comm_RS485_Init,"ax",%progbits
ARM GAS  C:\Users\SDEVAS~1\AppData\Local\Temp\ccfNj7w1.s 			page 28


 889              		.align	1
 890              		.global	comm_RS485_Init
 891              		.code	16
 892              		.thumb_func
 893              		.type	comm_RS485_Init, %function
 894              	comm_RS485_Init:
 895              	.LFB38:
 592:.\Generated_Source\PSoC4/comm_RS485.c **** 
 593:.\Generated_Source\PSoC4/comm_RS485.c **** 
 594:.\Generated_Source\PSoC4/comm_RS485.c **** #if comm_RS485_IS_ARBITER
 595:.\Generated_Source\PSoC4/comm_RS485.c **** comm_RS485_return_code comm_RS485_AddNode(comm_RS485_address address) {
 596:.\Generated_Source\PSoC4/comm_RS485.c **** 	if(nodeDB.size == comm_RS485_MAX_NODEDB_SIZE)
 597:.\Generated_Source\PSoC4/comm_RS485.c **** 		return comm_RS485_OUT_OF_SPACE;
 598:.\Generated_Source\PSoC4/comm_RS485.c **** 	nodeDB.list[nodeDB.size++] = address;
 599:.\Generated_Source\PSoC4/comm_RS485.c **** 	return comm_RS485_SUCCESS;
 600:.\Generated_Source\PSoC4/comm_RS485.c **** }
 601:.\Generated_Source\PSoC4/comm_RS485.c **** #endif
 602:.\Generated_Source\PSoC4/comm_RS485.c **** 
 603:.\Generated_Source\PSoC4/comm_RS485.c **** void comm_RS485_Init(void) {
 896              		.loc 1 603 0
 897              		.cfi_startproc
 898 0000 08B5     		push	{r3, lr}
 899              		.cfi_def_cfa_offset 8
 900              		.cfi_offset 3, -8
 901              		.cfi_offset 14, -4
 604:.\Generated_Source\PSoC4/comm_RS485.c **** 
 605:.\Generated_Source\PSoC4/comm_RS485.c ****   comm_RS485_UART_Start();
 902              		.loc 1 605 0
 903 0002 FFF7FEFF 		bl	comm_RS485_UART_Start
 904              	.LVL51:
 606:.\Generated_Source\PSoC4/comm_RS485.c ****   comm_RS485_UART_SetCustomInterruptHandler(comm_RS485_Uart_isr);
 905              		.loc 1 606 0
 906 0006 1448     		ldr	r0, .L156
 907 0008 FFF7FEFF 		bl	comm_RS485_UART_SetCustomInterruptHandler
 908              	.LVL52:
 607:.\Generated_Source\PSoC4/comm_RS485.c **** 
 608:.\Generated_Source\PSoC4/comm_RS485.c ****   comm_RS485_UART_UartSetRxAddressMask(0xFF);
 909              		.loc 1 608 0
 910 000c FF20     		mov	r0, #255
 911 000e FFF7FEFF 		bl	comm_RS485_UART_UartSetRxAddressMask
 912              	.LVL53:
 609:.\Generated_Source\PSoC4/comm_RS485.c ****   comm_RS485_UART_UartSetRxAddress(comm_RS485_OWN_ADDRESS);
 913              		.loc 1 609 0
 914 0012 B020     		mov	r0, #176
 915 0014 FFF7FEFF 		bl	comm_RS485_UART_UartSetRxAddress
 916              	.LVL54:
 610:.\Generated_Source\PSoC4/comm_RS485.c **** 
 611:.\Generated_Source\PSoC4/comm_RS485.c **** 
 612:.\Generated_Source\PSoC4/comm_RS485.c ****   comm_RS485_isr_WAKE_StartEx(comm_RS485_Wake_isr);
 917              		.loc 1 612 0
 918 0018 1048     		ldr	r0, .L156+4
 919 001a FFF7FEFF 		bl	comm_RS485_isr_WAKE_StartEx
 920              	.LVL55:
 613:.\Generated_Source\PSoC4/comm_RS485.c ****   comm_RS485_isr_Timeout_StartEx(comm_RS485_Timeout_isr);
 921              		.loc 1 613 0
 922 001e 1048     		ldr	r0, .L156+8
 923 0020 FFF7FEFF 		bl	comm_RS485_isr_Timeout_StartEx
ARM GAS  C:\Users\SDEVAS~1\AppData\Local\Temp\ccfNj7w1.s 			page 29


 924              	.LVL56:
 614:.\Generated_Source\PSoC4/comm_RS485.c ****   
 615:.\Generated_Source\PSoC4/comm_RS485.c ****   comm_RS485_Timeout_Start();
 925              		.loc 1 615 0
 926 0024 FFF7FEFF 		bl	comm_RS485_Timeout_Start
 927              	.LVL57:
 616:.\Generated_Source\PSoC4/comm_RS485.c ****   comm_RS485_Timeout_Stop();
 928              		.loc 1 616 0
 929 0028 FFF7FEFF 		bl	comm_RS485_Timeout_Stop
 930              	.LVL58:
 617:.\Generated_Source\PSoC4/comm_RS485.c ****   comm_RS485_Timeout_Sleep();
 931              		.loc 1 617 0
 932 002c FFF7FEFF 		bl	comm_RS485_Timeout_Sleep
 933              	.LVL59:
 618:.\Generated_Source\PSoC4/comm_RS485.c **** 
 619:.\Generated_Source\PSoC4/comm_RS485.c ****   comm_RS485_TRANSCEIVER_SHUTDOWN();
 934              		.loc 1 619 0
 935 0030 0C4B     		ldr	r3, .L156+12
 936 0032 0121     		mov	r1, #1
 937 0034 1A68     		ldr	r2, [r3]
 620:.\Generated_Source\PSoC4/comm_RS485.c ****   comm_RS485_UART_Sleep();
 621:.\Generated_Source\PSoC4/comm_RS485.c **** }
 938              		.loc 1 621 0
 939              		@ sp needed
 619:.\Generated_Source\PSoC4/comm_RS485.c ****   comm_RS485_TRANSCEIVER_SHUTDOWN();
 940              		.loc 1 619 0
 941 0036 8A43     		bic	r2, r1
 942 0038 1A60     		str	r2, [r3]
 943 003a 1A68     		ldr	r2, [r3]
 944 003c 0221     		mov	r1, #2
 945 003e 0A43     		orr	r2, r1
 946 0040 1A60     		str	r2, [r3]
 947 0042 FFF7FEFF 		bl	comm_RS485_UART_SpiUartClearRxBuffer
 948              	.LVL60:
 949 0046 084B     		ldr	r3, .L156+16
 950 0048 0421     		mov	r1, #4
 951 004a 1A68     		ldr	r2, [r3]
 952 004c 8A43     		bic	r2, r1
 953 004e 1A60     		str	r2, [r3]
 620:.\Generated_Source\PSoC4/comm_RS485.c ****   comm_RS485_UART_Sleep();
 954              		.loc 1 620 0
 955 0050 FFF7FEFF 		bl	comm_RS485_UART_Sleep
 956              	.LVL61:
 957              		.loc 1 621 0
 958 0054 08BD     		pop	{r3, pc}
 959              	.L157:
 960 0056 C046     		.align	2
 961              	.L156:
 962 0058 00000000 		.word	comm_RS485_Uart_isr
 963 005c 00000000 		.word	comm_RS485_Wake_isr
 964 0060 00000000 		.word	comm_RS485_Timeout_isr
 965 0064 00000440 		.word	1074003968
 966 0068 C80F0640 		.word	1074139080
 967              		.cfi_endproc
 968              	.LFE38:
 969              		.size	comm_RS485_Init, .-comm_RS485_Init
 970              		.section	.text.comm_RS485_SetCallbackOnWake,"ax",%progbits
ARM GAS  C:\Users\SDEVAS~1\AppData\Local\Temp\ccfNj7w1.s 			page 30


 971              		.align	1
 972              		.global	comm_RS485_SetCallbackOnWake
 973              		.code	16
 974              		.thumb_func
 975              		.type	comm_RS485_SetCallbackOnWake, %function
 976              	comm_RS485_SetCallbackOnWake:
 977              	.LFB39:
 622:.\Generated_Source\PSoC4/comm_RS485.c **** 
 623:.\Generated_Source\PSoC4/comm_RS485.c **** void comm_RS485_SetCallbackOnWake(
 624:.\Generated_Source\PSoC4/comm_RS485.c ****     comm_RS485_wake_callback callback
 625:.\Generated_Source\PSoC4/comm_RS485.c **** ) {
 978              		.loc 1 625 0
 979              		.cfi_startproc
 980              	.LVL62:
 626:.\Generated_Source\PSoC4/comm_RS485.c ****   callbacks.wake = callback;  
 981              		.loc 1 626 0
 982 0000 014B     		ldr	r3, .L159
 627:.\Generated_Source\PSoC4/comm_RS485.c **** }
 983              		.loc 1 627 0
 984              		@ sp needed
 626:.\Generated_Source\PSoC4/comm_RS485.c ****   callbacks.wake = callback;  
 985              		.loc 1 626 0
 986 0002 9863     		str	r0, [r3, #56]
 987              		.loc 1 627 0
 988 0004 7047     		bx	lr
 989              	.L160:
 990 0006 C046     		.align	2
 991              	.L159:
 992 0008 00000000 		.word	.LANCHOR0
 993              		.cfi_endproc
 994              	.LFE39:
 995              		.size	comm_RS485_SetCallbackOnWake, .-comm_RS485_SetCallbackOnWake
 996              		.section	.text.comm_RS485_SetCallbackOnError,"ax",%progbits
 997              		.align	1
 998              		.global	comm_RS485_SetCallbackOnError
 999              		.code	16
 1000              		.thumb_func
 1001              		.type	comm_RS485_SetCallbackOnError, %function
 1002              	comm_RS485_SetCallbackOnError:
 1003              	.LFB40:
 628:.\Generated_Source\PSoC4/comm_RS485.c **** 
 629:.\Generated_Source\PSoC4/comm_RS485.c **** void comm_RS485_SetCallbackOnError(
 630:.\Generated_Source\PSoC4/comm_RS485.c ****     comm_RS485_error_callback callback
 631:.\Generated_Source\PSoC4/comm_RS485.c **** ) {
 1004              		.loc 1 631 0
 1005              		.cfi_startproc
 1006              	.LVL63:
 632:.\Generated_Source\PSoC4/comm_RS485.c ****   callbacks.error = callback;  
 1007              		.loc 1 632 0
 1008 0000 014B     		ldr	r3, .L162
 633:.\Generated_Source\PSoC4/comm_RS485.c **** }
 1009              		.loc 1 633 0
 1010              		@ sp needed
 632:.\Generated_Source\PSoC4/comm_RS485.c ****   callbacks.error = callback;  
 1011              		.loc 1 632 0
 1012 0002 5863     		str	r0, [r3, #52]
 1013              		.loc 1 633 0
ARM GAS  C:\Users\SDEVAS~1\AppData\Local\Temp\ccfNj7w1.s 			page 31


 1014 0004 7047     		bx	lr
 1015              	.L163:
 1016 0006 C046     		.align	2
 1017              	.L162:
 1018 0008 00000000 		.word	.LANCHOR0
 1019              		.cfi_endproc
 1020              	.LFE40:
 1021              		.size	comm_RS485_SetCallbackOnError, .-comm_RS485_SetCallbackOnError
 1022              		.section	.text.comm_RS485_SetCallbackOnSelectedAsSlave,"ax",%progbits
 1023              		.align	1
 1024              		.global	comm_RS485_SetCallbackOnSelectedAsSlave
 1025              		.code	16
 1026              		.thumb_func
 1027              		.type	comm_RS485_SetCallbackOnSelectedAsSlave, %function
 1028              	comm_RS485_SetCallbackOnSelectedAsSlave:
 1029              	.LFB41:
 634:.\Generated_Source\PSoC4/comm_RS485.c **** 
 635:.\Generated_Source\PSoC4/comm_RS485.c **** void comm_RS485_SetCallbackOnSelectedAsSlave(
 636:.\Generated_Source\PSoC4/comm_RS485.c ****     comm_RS485_selected_as_slave callback
 637:.\Generated_Source\PSoC4/comm_RS485.c **** ) {
 1030              		.loc 1 637 0
 1031              		.cfi_startproc
 1032              	.LVL64:
 638:.\Generated_Source\PSoC4/comm_RS485.c ****   callbacks.selectedAsSlave = callback;
 1033              		.loc 1 638 0
 1034 0000 014B     		ldr	r3, .L165
 639:.\Generated_Source\PSoC4/comm_RS485.c **** }
 1035              		.loc 1 639 0
 1036              		@ sp needed
 638:.\Generated_Source\PSoC4/comm_RS485.c ****   callbacks.selectedAsSlave = callback;
 1037              		.loc 1 638 0
 1038 0002 1861     		str	r0, [r3, #16]
 1039              		.loc 1 639 0
 1040 0004 7047     		bx	lr
 1041              	.L166:
 1042 0006 C046     		.align	2
 1043              	.L165:
 1044 0008 00000000 		.word	.LANCHOR0
 1045              		.cfi_endproc
 1046              	.LFE41:
 1047              		.size	comm_RS485_SetCallbackOnSelectedAsSlave, .-comm_RS485_SetCallbackOnSelectedAsSlave
 1048              		.section	.text.comm_RS485_SetCallbackOnReleasedAsSlave,"ax",%progbits
 1049              		.align	1
 1050              		.global	comm_RS485_SetCallbackOnReleasedAsSlave
 1051              		.code	16
 1052              		.thumb_func
 1053              		.type	comm_RS485_SetCallbackOnReleasedAsSlave, %function
 1054              	comm_RS485_SetCallbackOnReleasedAsSlave:
 1055              	.LFB42:
 640:.\Generated_Source\PSoC4/comm_RS485.c **** 
 641:.\Generated_Source\PSoC4/comm_RS485.c **** void comm_RS485_SetCallbackOnReleasedAsSlave(
 642:.\Generated_Source\PSoC4/comm_RS485.c ****     comm_RS485_released_as_slave callback
 643:.\Generated_Source\PSoC4/comm_RS485.c **** ) {
 1056              		.loc 1 643 0
 1057              		.cfi_startproc
 1058              	.LVL65:
 644:.\Generated_Source\PSoC4/comm_RS485.c ****   callbacks.releasedAsSlave = callback;
ARM GAS  C:\Users\SDEVAS~1\AppData\Local\Temp\ccfNj7w1.s 			page 32


 1059              		.loc 1 644 0
 1060 0000 014B     		ldr	r3, .L168
 645:.\Generated_Source\PSoC4/comm_RS485.c **** }
 1061              		.loc 1 645 0
 1062              		@ sp needed
 644:.\Generated_Source\PSoC4/comm_RS485.c ****   callbacks.releasedAsSlave = callback;
 1063              		.loc 1 644 0
 1064 0002 5861     		str	r0, [r3, #20]
 1065              		.loc 1 645 0
 1066 0004 7047     		bx	lr
 1067              	.L169:
 1068 0006 C046     		.align	2
 1069              	.L168:
 1070 0008 00000000 		.word	.LANCHOR0
 1071              		.cfi_endproc
 1072              	.LFE42:
 1073              		.size	comm_RS485_SetCallbackOnReleasedAsSlave, .-comm_RS485_SetCallbackOnReleasedAsSlave
 1074              		.section	.text.comm_RS485_SetCallbackOnSlaveReceive,"ax",%progbits
 1075              		.align	1
 1076              		.global	comm_RS485_SetCallbackOnSlaveReceive
 1077              		.code	16
 1078              		.thumb_func
 1079              		.type	comm_RS485_SetCallbackOnSlaveReceive, %function
 1080              	comm_RS485_SetCallbackOnSlaveReceive:
 1081              	.LFB43:
 646:.\Generated_Source\PSoC4/comm_RS485.c **** 
 647:.\Generated_Source\PSoC4/comm_RS485.c **** void comm_RS485_SetCallbackOnSlaveReceive(
 648:.\Generated_Source\PSoC4/comm_RS485.c ****     comm_RS485_receive_callback callback,
 649:.\Generated_Source\PSoC4/comm_RS485.c ****     char *receiveBuffer,
 650:.\Generated_Source\PSoC4/comm_RS485.c **** 	uint32 receiveBufferSize
 651:.\Generated_Source\PSoC4/comm_RS485.c **** ) {
 1082              		.loc 1 651 0
 1083              		.cfi_startproc
 1084              	.LVL66:
 652:.\Generated_Source\PSoC4/comm_RS485.c ****   callbacks.slaveReceive = callback;
 1085              		.loc 1 652 0
 1086 0000 034B     		ldr	r3, .L171
 653:.\Generated_Source\PSoC4/comm_RS485.c ****   slaveBuff.buff = receiveBuffer;
 654:.\Generated_Source\PSoC4/comm_RS485.c ****   slaveBuff.size = receiveBufferSize;
 655:.\Generated_Source\PSoC4/comm_RS485.c ****   slaveBuff.pos = 0;
 656:.\Generated_Source\PSoC4/comm_RS485.c **** }
 1087              		.loc 1 656 0
 1088              		@ sp needed
 654:.\Generated_Source\PSoC4/comm_RS485.c ****   slaveBuff.size = receiveBufferSize;
 1089              		.loc 1 654 0
 1090 0002 5A64     		str	r2, [r3, #68]
 655:.\Generated_Source\PSoC4/comm_RS485.c ****   slaveBuff.pos = 0;
 1091              		.loc 1 655 0
 1092 0004 0022     		mov	r2, #0
 1093              	.LVL67:
 652:.\Generated_Source\PSoC4/comm_RS485.c ****   callbacks.slaveReceive = callback;
 1094              		.loc 1 652 0
 1095 0006 9861     		str	r0, [r3, #24]
 653:.\Generated_Source\PSoC4/comm_RS485.c ****   slaveBuff.buff = receiveBuffer;
 1096              		.loc 1 653 0
 1097 0008 D963     		str	r1, [r3, #60]
 655:.\Generated_Source\PSoC4/comm_RS485.c ****   slaveBuff.pos = 0;
ARM GAS  C:\Users\SDEVAS~1\AppData\Local\Temp\ccfNj7w1.s 			page 33


 1098              		.loc 1 655 0
 1099 000a 1A64     		str	r2, [r3, #64]
 1100              		.loc 1 656 0
 1101 000c 7047     		bx	lr
 1102              	.L172:
 1103 000e C046     		.align	2
 1104              	.L171:
 1105 0010 00000000 		.word	.LANCHOR0
 1106              		.cfi_endproc
 1107              	.LFE43:
 1108              		.size	comm_RS485_SetCallbackOnSlaveReceive, .-comm_RS485_SetCallbackOnSlaveReceive
 1109              		.section	.text.comm_RS485_SetCallbackOnMasterReceive,"ax",%progbits
 1110              		.align	1
 1111              		.global	comm_RS485_SetCallbackOnMasterReceive
 1112              		.code	16
 1113              		.thumb_func
 1114              		.type	comm_RS485_SetCallbackOnMasterReceive, %function
 1115              	comm_RS485_SetCallbackOnMasterReceive:
 1116              	.LFB44:
 657:.\Generated_Source\PSoC4/comm_RS485.c **** 
 658:.\Generated_Source\PSoC4/comm_RS485.c **** void comm_RS485_SetCallbackOnMasterReceive(
 659:.\Generated_Source\PSoC4/comm_RS485.c ****     comm_RS485_receive_callback callback,
 660:.\Generated_Source\PSoC4/comm_RS485.c ****     char *receiveBuffer,
 661:.\Generated_Source\PSoC4/comm_RS485.c **** 	uint32 receiveBufferSize
 662:.\Generated_Source\PSoC4/comm_RS485.c **** ) {
 1117              		.loc 1 662 0
 1118              		.cfi_startproc
 1119              	.LVL68:
 663:.\Generated_Source\PSoC4/comm_RS485.c ****   callbacks.masterReceive = callback;
 1120              		.loc 1 663 0
 1121 0000 034B     		ldr	r3, .L174
 664:.\Generated_Source\PSoC4/comm_RS485.c ****   masterBuff.buff = receiveBuffer;
 665:.\Generated_Source\PSoC4/comm_RS485.c ****   masterBuff.size = receiveBufferSize;
 666:.\Generated_Source\PSoC4/comm_RS485.c ****   masterBuff.pos = 0;
 667:.\Generated_Source\PSoC4/comm_RS485.c **** }
 1122              		.loc 1 667 0
 1123              		@ sp needed
 665:.\Generated_Source\PSoC4/comm_RS485.c ****   masterBuff.size = receiveBufferSize;
 1124              		.loc 1 665 0
 1125 0002 1A65     		str	r2, [r3, #80]
 666:.\Generated_Source\PSoC4/comm_RS485.c ****   masterBuff.pos = 0;
 1126              		.loc 1 666 0
 1127 0004 0022     		mov	r2, #0
 1128              	.LVL69:
 663:.\Generated_Source\PSoC4/comm_RS485.c ****   callbacks.masterReceive = callback;
 1129              		.loc 1 663 0
 1130 0006 D861     		str	r0, [r3, #28]
 664:.\Generated_Source\PSoC4/comm_RS485.c ****   masterBuff.buff = receiveBuffer;
 1131              		.loc 1 664 0
 1132 0008 9964     		str	r1, [r3, #72]
 666:.\Generated_Source\PSoC4/comm_RS485.c ****   masterBuff.pos = 0;
 1133              		.loc 1 666 0
 1134 000a DA64     		str	r2, [r3, #76]
 1135              		.loc 1 667 0
 1136 000c 7047     		bx	lr
 1137              	.L175:
 1138 000e C046     		.align	2
ARM GAS  C:\Users\SDEVAS~1\AppData\Local\Temp\ccfNj7w1.s 			page 34


 1139              	.L174:
 1140 0010 00000000 		.word	.LANCHOR0
 1141              		.cfi_endproc
 1142              	.LFE44:
 1143              		.size	comm_RS485_SetCallbackOnMasterReceive, .-comm_RS485_SetCallbackOnMasterReceive
 1144              		.section	.text.comm_RS485_SendFrame,"ax",%progbits
 1145              		.align	1
 1146              		.global	comm_RS485_SendFrame
 1147              		.code	16
 1148              		.thumb_func
 1149              		.type	comm_RS485_SendFrame, %function
 1150              	comm_RS485_SendFrame:
 1151              	.LFB45:
 668:.\Generated_Source\PSoC4/comm_RS485.c **** 
 669:.\Generated_Source\PSoC4/comm_RS485.c **** /* comm_RS485_SendFrame
 670:.\Generated_Source\PSoC4/comm_RS485.c ****  * Sends bufer over bus, other device is set by previous actions
 671:.\Generated_Source\PSoC4/comm_RS485.c ****  * and depends on internal state
 672:.\Generated_Source\PSoC4/comm_RS485.c ****  *
 673:.\Generated_Source\PSoC4/comm_RS485.c ****  * As master, this function can be called after slave_selected_callback,
 674:.\Generated_Source\PSoC4/comm_RS485.c ****  * as slave this function can be called after selected_as_slave callbac,
 675:.\Generated_Source\PSoC4/comm_RS485.c ****  * and it should only be called in response to OnSlaveReceive
 676:.\Generated_Source\PSoC4/comm_RS485.c ****  */
 677:.\Generated_Source\PSoC4/comm_RS485.c **** comm_RS485_return_code comm_RS485_SendFrame(
 678:.\Generated_Source\PSoC4/comm_RS485.c ****   char * buffer,
 679:.\Generated_Source\PSoC4/comm_RS485.c ****   uint32 len,
 680:.\Generated_Source\PSoC4/comm_RS485.c ****   comm_RS485_frame_sent_callback callback
 681:.\Generated_Source\PSoC4/comm_RS485.c **** ) {
 1152              		.loc 1 681 0
 1153              		.cfi_startproc
 1154              	.LVL70:
 682:.\Generated_Source\PSoC4/comm_RS485.c ****   switch(state) {
 1155              		.loc 1 682 0
 1156 0000 114B     		ldr	r3, .L187
 681:.\Generated_Source\PSoC4/comm_RS485.c **** ) {
 1157              		.loc 1 681 0
 1158 0002 F0B5     		push	{r4, r5, r6, r7, lr}
 1159              		.cfi_def_cfa_offset 20
 1160              		.cfi_offset 4, -20
 1161              		.cfi_offset 5, -16
 1162              		.cfi_offset 6, -12
 1163              		.cfi_offset 7, -8
 1164              		.cfi_offset 14, -4
 1165              		.loc 1 682 0
 1166 0004 1C78     		ldrb	r4, [r3]
 1167 0006 042C     		cmp	r4, #4
 1168 0008 01D0     		beq	.L178
 1169 000a 062C     		cmp	r4, #6
 1170 000c 19D1     		bne	.L186
 1171              	.L178:
 683:.\Generated_Source\PSoC4/comm_RS485.c ****   case comm_RS485_MASTER_OP:
 684:.\Generated_Source\PSoC4/comm_RS485.c ****   case comm_RS485_SLAVE_OP:
 685:.\Generated_Source\PSoC4/comm_RS485.c ****     comm_RS485_TRANSCEIVER_TX_EN();
 1172              		.loc 1 685 0
 1173 000e 0F4C     		ldr	r4, .L187+4
 1174 0010 0126     		mov	r6, #1
 1175 0012 2568     		ldr	r5, [r4]
 1176 0014 0427     		mov	r7, #4
ARM GAS  C:\Users\SDEVAS~1\AppData\Local\Temp\ccfNj7w1.s 			page 35


 1177 0016 3543     		orr	r5, r6
 1178 0018 2560     		str	r5, [r4]
 1179 001a 2668     		ldr	r6, [r4]
 1180 001c 0225     		mov	r5, #2
 1181 001e 2E43     		orr	r6, r5
 1182 0020 2660     		str	r6, [r4]
 1183 0022 0B4C     		ldr	r4, .L187+8
 1184 0024 2668     		ldr	r6, [r4]
 1185 0026 BE43     		bic	r6, r7
 1186 0028 2660     		str	r6, [r4]
 686:.\Generated_Source\PSoC4/comm_RS485.c **** 	  txBuff.buff = buffer;
 1187              		.loc 1 686 0
 1188 002a 5865     		str	r0, [r3, #84]
 687:.\Generated_Source\PSoC4/comm_RS485.c **** 	  txBuff.size = len;
 688:.\Generated_Source\PSoC4/comm_RS485.c **** 	  txBuff.pos = 0;
 1189              		.loc 1 688 0
 1190 002c 0020     		mov	r0, #0
 1191              	.LVL71:
 689:.\Generated_Source\PSoC4/comm_RS485.c **** 
 690:.\Generated_Source\PSoC4/comm_RS485.c **** 	  callbacks.frameSent = callback;
 1192              		.loc 1 690 0
 1193 002e 9A62     		str	r2, [r3, #40]
 687:.\Generated_Source\PSoC4/comm_RS485.c **** 	  txBuff.size = len;
 1194              		.loc 1 687 0
 1195 0030 D965     		str	r1, [r3, #92]
 688:.\Generated_Source\PSoC4/comm_RS485.c **** 	  txBuff.pos = 0;
 1196              		.loc 1 688 0
 1197 0032 9865     		str	r0, [r3, #88]
 691:.\Generated_Source\PSoC4/comm_RS485.c **** 
 692:.\Generated_Source\PSoC4/comm_RS485.c **** 	  //enable TX_FIFO_NOTFULL IRQ
 693:.\Generated_Source\PSoC4/comm_RS485.c **** 	  comm_RS485_UART_ClearTxInterruptSource(comm_RS485_UART_INTR_TX_NOT_FULL);
 1198              		.loc 1 693 0
 1199 0034 074B     		ldr	r3, .L187+12
 1200 0036 1D60     		str	r5, [r3]
 694:.\Generated_Source\PSoC4/comm_RS485.c **** 	  comm_RS485_UART_SpiUartEnableIntTx(
 1201              		.loc 1 694 0
 1202 0038 074B     		ldr	r3, .L187+16
 1203 003a 1A68     		ldr	r2, [r3]
 1204              	.LVL72:
 1205 003c 1543     		orr	r5, r2
 1206 003e 1D60     		str	r5, [r3]
 695:.\Generated_Source\PSoC4/comm_RS485.c **** 			  comm_RS485_UART_GetTxInterruptMode() | comm_RS485_UART_INTR_TX_NOT_FULL);
 696:.\Generated_Source\PSoC4/comm_RS485.c **** 
 697:.\Generated_Source\PSoC4/comm_RS485.c **** 	  return comm_RS485_SUCCESS;
 1207              		.loc 1 697 0
 1208 0040 00E0     		b	.L177
 1209              	.LVL73:
 1210              	.L186:
 698:.\Generated_Source\PSoC4/comm_RS485.c ****   break;
 699:.\Generated_Source\PSoC4/comm_RS485.c ****   default:
 700:.\Generated_Source\PSoC4/comm_RS485.c **** 	  return comm_RS485_FORBIDDEN;
 1211              		.loc 1 700 0
 1212 0042 0220     		mov	r0, #2
 1213              	.LVL74:
 1214              	.L177:
 701:.\Generated_Source\PSoC4/comm_RS485.c ****   break;
 702:.\Generated_Source\PSoC4/comm_RS485.c ****   }
ARM GAS  C:\Users\SDEVAS~1\AppData\Local\Temp\ccfNj7w1.s 			page 36


 703:.\Generated_Source\PSoC4/comm_RS485.c ****   return comm_RS485_FAIL; //shouldnt happen, but suppress warning
 704:.\Generated_Source\PSoC4/comm_RS485.c **** }
 1215              		.loc 1 704 0
 1216              		@ sp needed
 1217 0044 F0BD     		pop	{r4, r5, r6, r7, pc}
 1218              	.L188:
 1219 0046 C046     		.align	2
 1220              	.L187:
 1221 0048 00000000 		.word	.LANCHOR0
 1222 004c 00000440 		.word	1074003968
 1223 0050 C80F0640 		.word	1074139080
 1224 0054 800F0640 		.word	1074139008
 1225 0058 880F0640 		.word	1074139016
 1226              		.cfi_endproc
 1227              	.LFE45:
 1228              		.size	comm_RS485_SendFrame, .-comm_RS485_SendFrame
 1229              		.section	.text.comm_RS485_RequestBus,"ax",%progbits
 1230              		.align	1
 1231              		.global	comm_RS485_RequestBus
 1232              		.code	16
 1233              		.thumb_func
 1234              		.type	comm_RS485_RequestBus, %function
 1235              	comm_RS485_RequestBus:
 1236              	.LFB46:
 705:.\Generated_Source\PSoC4/comm_RS485.c **** /* comm_RS485_RequestBus
 706:.\Generated_Source\PSoC4/comm_RS485.c ****  * call this function to aquire bus as master,
 707:.\Generated_Source\PSoC4/comm_RS485.c ****  * until receiving bus_granted_callback, atom is listening on all events
 708:.\Generated_Source\PSoC4/comm_RS485.c ****  * and can be selected as slave by other atom
 709:.\Generated_Source\PSoC4/comm_RS485.c ****  */
 710:.\Generated_Source\PSoC4/comm_RS485.c **** comm_RS485_return_code comm_RS485_RequestBus(
 711:.\Generated_Source\PSoC4/comm_RS485.c ****   comm_RS485_bus_granted_callback callback
 712:.\Generated_Source\PSoC4/comm_RS485.c **** ) {
 1237              		.loc 1 712 0
 1238              		.cfi_startproc
 1239              	.LVL75:
 713:.\Generated_Source\PSoC4/comm_RS485.c **** 	callbacks.busGranted = callback;
 1240              		.loc 1 713 0
 1241 0000 044B     		ldr	r3, .L190
 714:.\Generated_Source\PSoC4/comm_RS485.c **** 	comm_RS485_ASSERT_WAKE(); //this should wake up UART if it was sleeping, or do nothing if was
 1242              		.loc 1 714 0
 1243 0002 0821     		mov	r1, #8
 713:.\Generated_Source\PSoC4/comm_RS485.c **** 	callbacks.busGranted = callback;
 1244              		.loc 1 713 0
 1245 0004 1862     		str	r0, [r3, #32]
 1246              		.loc 1 714 0
 1247 0006 044B     		ldr	r3, .L190+4
 715:.\Generated_Source\PSoC4/comm_RS485.c **** 	//already asserted
 716:.\Generated_Source\PSoC4/comm_RS485.c **** 	return comm_RS485_SUCCESS;
 717:.\Generated_Source\PSoC4/comm_RS485.c **** }
 1248              		.loc 1 717 0
 1249 0008 0020     		mov	r0, #0
 1250              	.LVL76:
 714:.\Generated_Source\PSoC4/comm_RS485.c **** 	comm_RS485_ASSERT_WAKE(); //this should wake up UART if it was sleeping, or do nothing if was
 1251              		.loc 1 714 0
 1252 000a 1A68     		ldr	r2, [r3]
 1253              		.loc 1 717 0
 1254              		@ sp needed
ARM GAS  C:\Users\SDEVAS~1\AppData\Local\Temp\ccfNj7w1.s 			page 37


 714:.\Generated_Source\PSoC4/comm_RS485.c **** 	comm_RS485_ASSERT_WAKE(); //this should wake up UART if it was sleeping, or do nothing if was
 1255              		.loc 1 714 0
 1256 000c 8A43     		bic	r2, r1
 1257 000e 1A60     		str	r2, [r3]
 1258              		.loc 1 717 0
 1259 0010 7047     		bx	lr
 1260              	.L191:
 1261 0012 C046     		.align	2
 1262              	.L190:
 1263 0014 00000000 		.word	.LANCHOR0
 1264 0018 00000440 		.word	1074003968
 1265              		.cfi_endproc
 1266              	.LFE46:
 1267              		.size	comm_RS485_RequestBus, .-comm_RS485_RequestBus
 1268              		.section	.text.comm_RS485_SelectSlave,"ax",%progbits
 1269              		.align	1
 1270              		.global	comm_RS485_SelectSlave
 1271              		.code	16
 1272              		.thumb_func
 1273              		.type	comm_RS485_SelectSlave, %function
 1274              	comm_RS485_SelectSlave:
 1275              	.LFB47:
 718:.\Generated_Source\PSoC4/comm_RS485.c **** /* comm_RS485_SelectSlave
 719:.\Generated_Source\PSoC4/comm_RS485.c ****  * call this function to select slave, call only after bus_granted callback
 720:.\Generated_Source\PSoC4/comm_RS485.c ****  */
 721:.\Generated_Source\PSoC4/comm_RS485.c **** comm_RS485_return_code comm_RS485_SelectSlave(
 722:.\Generated_Source\PSoC4/comm_RS485.c ****   comm_RS485_address slaveAddress,
 723:.\Generated_Source\PSoC4/comm_RS485.c ****   comm_RS485_slave_selected_callback callback
 724:.\Generated_Source\PSoC4/comm_RS485.c **** ) {
 1276              		.loc 1 724 0
 1277              		.cfi_startproc
 1278              	.LVL77:
 725:.\Generated_Source\PSoC4/comm_RS485.c **** 	switch(state) {
 1279              		.loc 1 725 0
 1280 0000 114B     		ldr	r3, .L197
 1281 0002 1A78     		ldrb	r2, [r3]
 1282 0004 052A     		cmp	r2, #5
 1283 0006 1DD1     		bne	.L196
 726:.\Generated_Source\PSoC4/comm_RS485.c **** 	case comm_RS485_MASTER_CHOOSING_SLAVE:
 727:.\Generated_Source\PSoC4/comm_RS485.c **** 		
 728:.\Generated_Source\PSoC4/comm_RS485.c **** 
 729:.\Generated_Source\PSoC4/comm_RS485.c **** 		callbacks.slaveSelected = callback;
 1284              		.loc 1 729 0
 1285 0008 D962     		str	r1, [r3, #44]
 730:.\Generated_Source\PSoC4/comm_RS485.c **** 		otherEndAddress = slaveAddress;
 1286              		.loc 1 730 0
 1287 000a D860     		str	r0, [r3, #12]
 731:.\Generated_Source\PSoC4/comm_RS485.c **** 
 732:.\Generated_Source\PSoC4/comm_RS485.c ****     CyGlobalIntDisable;
 1288              		.loc 1 732 0
 1289              	@ 732 ".\Generated_Source\PSoC4\comm_RS485.c" 1
 1290 000c 72B6     		CPSID   i
 1291              	@ 0 "" 2
 733:.\Generated_Source\PSoC4/comm_RS485.c ****     comm_RS485_TRANSCEIVER_TX_EN();
 1292              		.loc 1 733 0
 1293              		.code	16
 1294 000e 0F4A     		ldr	r2, .L197+4
ARM GAS  C:\Users\SDEVAS~1\AppData\Local\Temp\ccfNj7w1.s 			page 38


 1295 0010 0120     		mov	r0, #1
 1296              	.LVL78:
 1297 0012 1168     		ldr	r1, [r2]
 1298              	.LVL79:
 1299 0014 0143     		orr	r1, r0
 1300 0016 1160     		str	r1, [r2]
 1301              	.LVL80:
 1302 0018 1168     		ldr	r1, [r2]
 1303 001a 0220     		mov	r0, #2
 1304 001c 0143     		orr	r1, r0
 1305 001e 1160     		str	r1, [r2]
 1306 0020 0B4A     		ldr	r2, .L197+8
 1307 0022 0420     		mov	r0, #4
 1308 0024 1168     		ldr	r1, [r2]
 1309 0026 8143     		bic	r1, r0
 1310 0028 1160     		str	r1, [r2]
 734:.\Generated_Source\PSoC4/comm_RS485.c **** 		//send request
 735:.\Generated_Source\PSoC4/comm_RS485.c **** 		comm_RS485_UART_TX_FIFO_WR_REG = comm_RS485_UART_UART_MP_MARK | otherEndAddress;
 1311              		.loc 1 735 0
 1312 002a DB68     		ldr	r3, [r3, #12]
 1313 002c 8022     		mov	r2, #128
 1314 002e 5200     		lsl	r2, r2, #1
 1315 0030 1A43     		orr	r2, r3
 1316 0032 084B     		ldr	r3, .L197+12
 1317 0034 1A60     		str	r2, [r3]
 736:.\Generated_Source\PSoC4/comm_RS485.c **** 		comm_RS485_UART_TX_FIFO_WR_REG = comm_RS485_Protocol_NORMAL;
 1318              		.loc 1 736 0
 1319 0036 1022     		mov	r2, #16
 1320 0038 1A60     		str	r2, [r3]
 737:.\Generated_Source\PSoC4/comm_RS485.c **** 		comm_RS485_UART_TX_FIFO_WR_REG = comm_RS485_OWN_ADDRESS;
 1321              		.loc 1 737 0
 1322 003a B022     		mov	r2, #176
 1323 003c 1A60     		str	r2, [r3]
 738:.\Generated_Source\PSoC4/comm_RS485.c ****     CyGlobalIntEnable;
 1324              		.loc 1 738 0
 1325              	@ 738 ".\Generated_Source\PSoC4\comm_RS485.c" 1
 1326 003e 62B6     		CPSIE   i
 1327              	@ 0 "" 2
 739:.\Generated_Source\PSoC4/comm_RS485.c **** 
 740:.\Generated_Source\PSoC4/comm_RS485.c **** 		return comm_RS485_SUCCESS;
 1328              		.loc 1 740 0
 1329              		.code	16
 1330 0040 0020     		mov	r0, #0
 1331 0042 00E0     		b	.L193
 1332              	.LVL81:
 1333              	.L196:
 741:.\Generated_Source\PSoC4/comm_RS485.c **** 	break;
 742:.\Generated_Source\PSoC4/comm_RS485.c **** 	default:
 743:.\Generated_Source\PSoC4/comm_RS485.c **** 		return comm_RS485_FORBIDDEN;
 1334              		.loc 1 743 0
 1335 0044 0220     		mov	r0, #2
 1336              	.LVL82:
 1337              	.L193:
 744:.\Generated_Source\PSoC4/comm_RS485.c **** 	break;
 745:.\Generated_Source\PSoC4/comm_RS485.c **** 	}
 746:.\Generated_Source\PSoC4/comm_RS485.c **** 	return comm_RS485_FAIL;
 747:.\Generated_Source\PSoC4/comm_RS485.c **** }
ARM GAS  C:\Users\SDEVAS~1\AppData\Local\Temp\ccfNj7w1.s 			page 39


 1338              		.loc 1 747 0
 1339              		@ sp needed
 1340 0046 7047     		bx	lr
 1341              	.L198:
 1342              		.align	2
 1343              	.L197:
 1344 0048 00000000 		.word	.LANCHOR0
 1345 004c 00000440 		.word	1074003968
 1346 0050 C80F0640 		.word	1074139080
 1347 0054 40020640 		.word	1074135616
 1348              		.cfi_endproc
 1349              	.LFE47:
 1350              		.size	comm_RS485_SelectSlave, .-comm_RS485_SelectSlave
 1351              		.section	.text.comm_RS485_ReleaseSlave,"ax",%progbits
 1352              		.align	1
 1353              		.global	comm_RS485_ReleaseSlave
 1354              		.code	16
 1355              		.thumb_func
 1356              		.type	comm_RS485_ReleaseSlave, %function
 1357              	comm_RS485_ReleaseSlave:
 1358              	.LFB48:
 748:.\Generated_Source\PSoC4/comm_RS485.c **** 
 749:.\Generated_Source\PSoC4/comm_RS485.c **** /* comm_RS485_ReleaseSlave
 750:.\Generated_Source\PSoC4/comm_RS485.c ****  * call when communication with slave is finished, after this call, SendFrame
 751:.\Generated_Source\PSoC4/comm_RS485.c ****  * function is forbidden, select another slave, or release bus
 752:.\Generated_Source\PSoC4/comm_RS485.c ****  */
 753:.\Generated_Source\PSoC4/comm_RS485.c **** comm_RS485_return_code comm_RS485_ReleaseSlave(
 754:.\Generated_Source\PSoC4/comm_RS485.c ****   comm_RS485_slave_released_callback callback
 755:.\Generated_Source\PSoC4/comm_RS485.c **** ) {
 1359              		.loc 1 755 0
 1360              		.cfi_startproc
 1361              	.LVL83:
 756:.\Generated_Source\PSoC4/comm_RS485.c **** 	switch(state) {
 1362              		.loc 1 756 0
 1363 0000 114B     		ldr	r3, .L204
 1364 0002 1A78     		ldrb	r2, [r3]
 1365 0004 062A     		cmp	r2, #6
 1366 0006 1CD1     		bne	.L203
 757:.\Generated_Source\PSoC4/comm_RS485.c **** 	case comm_RS485_MASTER_OP:
 758:.\Generated_Source\PSoC4/comm_RS485.c ****     callbacks.slaveReleased = callback;
 759:.\Generated_Source\PSoC4/comm_RS485.c **** 		state = comm_RS485_MASTER_RELEASING_SLAVE;
 1367              		.loc 1 759 0
 1368 0008 0722     		mov	r2, #7
 758:.\Generated_Source\PSoC4/comm_RS485.c ****     callbacks.slaveReleased = callback;
 1369              		.loc 1 758 0
 1370 000a 1863     		str	r0, [r3, #48]
 1371              		.loc 1 759 0
 1372 000c 1A70     		strb	r2, [r3]
 760:.\Generated_Source\PSoC4/comm_RS485.c ****     
 761:.\Generated_Source\PSoC4/comm_RS485.c ****     CyGlobalIntDisable;
 1373              		.loc 1 761 0
 1374              	@ 761 ".\Generated_Source\PSoC4\comm_RS485.c" 1
 1375 000e 72B6     		CPSID   i
 1376              	@ 0 "" 2
 762:.\Generated_Source\PSoC4/comm_RS485.c **** 		comm_RS485_TRANSCEIVER_TX_EN();
 1377              		.loc 1 762 0
 1378              		.code	16
ARM GAS  C:\Users\SDEVAS~1\AppData\Local\Temp\ccfNj7w1.s 			page 40


 1379 0010 0E4A     		ldr	r2, .L204+4
 1380 0012 0120     		mov	r0, #1
 1381              	.LVL84:
 1382 0014 1168     		ldr	r1, [r2]
 1383 0016 0143     		orr	r1, r0
 1384 0018 1160     		str	r1, [r2]
 1385 001a 1168     		ldr	r1, [r2]
 1386 001c 0220     		mov	r0, #2
 1387 001e 0143     		orr	r1, r0
 1388 0020 1160     		str	r1, [r2]
 1389 0022 0B4A     		ldr	r2, .L204+8
 1390 0024 0420     		mov	r0, #4
 1391 0026 1168     		ldr	r1, [r2]
 1392 0028 8143     		bic	r1, r0
 1393 002a 1160     		str	r1, [r2]
 763:.\Generated_Source\PSoC4/comm_RS485.c **** 
 764:.\Generated_Source\PSoC4/comm_RS485.c **** 		//send request
 765:.\Generated_Source\PSoC4/comm_RS485.c **** 		comm_RS485_UART_TX_FIFO_WR_REG = comm_RS485_UART_UART_MP_MARK | otherEndAddress;
 1394              		.loc 1 765 0
 1395 002c DB68     		ldr	r3, [r3, #12]
 1396 002e 8022     		mov	r2, #128
 1397 0030 5200     		lsl	r2, r2, #1
 1398 0032 1A43     		orr	r2, r3
 1399 0034 074B     		ldr	r3, .L204+12
 1400 0036 1A60     		str	r2, [r3]
 766:.\Generated_Source\PSoC4/comm_RS485.c **** 		comm_RS485_UART_TX_FIFO_WR_REG = comm_RS485_Protocol_DONE;
 1401              		.loc 1 766 0
 1402 0038 1222     		mov	r2, #18
 1403 003a 1A60     		str	r2, [r3]
 767:.\Generated_Source\PSoC4/comm_RS485.c ****     CyGlobalIntEnable;
 1404              		.loc 1 767 0
 1405              	@ 767 ".\Generated_Source\PSoC4\comm_RS485.c" 1
 1406 003c 62B6     		CPSIE   i
 1407              	@ 0 "" 2
 768:.\Generated_Source\PSoC4/comm_RS485.c **** 
 769:.\Generated_Source\PSoC4/comm_RS485.c **** 		return comm_RS485_SUCCESS;
 1408              		.loc 1 769 0
 1409              		.code	16
 1410 003e 0020     		mov	r0, #0
 1411 0040 00E0     		b	.L200
 1412              	.LVL85:
 1413              	.L203:
 770:.\Generated_Source\PSoC4/comm_RS485.c **** 	break;
 771:.\Generated_Source\PSoC4/comm_RS485.c **** 	default:
 772:.\Generated_Source\PSoC4/comm_RS485.c **** 		return comm_RS485_FORBIDDEN;
 1414              		.loc 1 772 0
 1415 0042 0220     		mov	r0, #2
 1416              	.LVL86:
 1417              	.L200:
 773:.\Generated_Source\PSoC4/comm_RS485.c **** 	break;
 774:.\Generated_Source\PSoC4/comm_RS485.c **** 	}
 775:.\Generated_Source\PSoC4/comm_RS485.c **** 	return comm_RS485_FAIL;
 776:.\Generated_Source\PSoC4/comm_RS485.c **** }
 1418              		.loc 1 776 0
 1419              		@ sp needed
 1420 0044 7047     		bx	lr
 1421              	.L205:
ARM GAS  C:\Users\SDEVAS~1\AppData\Local\Temp\ccfNj7w1.s 			page 41


 1422 0046 C046     		.align	2
 1423              	.L204:
 1424 0048 00000000 		.word	.LANCHOR0
 1425 004c 00000440 		.word	1074003968
 1426 0050 C80F0640 		.word	1074139080
 1427 0054 40020640 		.word	1074135616
 1428              		.cfi_endproc
 1429              	.LFE48:
 1430              		.size	comm_RS485_ReleaseSlave, .-comm_RS485_ReleaseSlave
 1431              		.section	.text.comm_RS485_ReleaseBus,"ax",%progbits
 1432              		.align	1
 1433              		.global	comm_RS485_ReleaseBus
 1434              		.code	16
 1435              		.thumb_func
 1436              		.type	comm_RS485_ReleaseBus, %function
 1437              	comm_RS485_ReleaseBus:
 1438              	.LFB49:
 777:.\Generated_Source\PSoC4/comm_RS485.c **** 
 778:.\Generated_Source\PSoC4/comm_RS485.c **** /* comm_RS485_ReleaseBus
 779:.\Generated_Source\PSoC4/comm_RS485.c ****  * call when finished all communication as Master
 780:.\Generated_Source\PSoC4/comm_RS485.c ****  */
 781:.\Generated_Source\PSoC4/comm_RS485.c **** comm_RS485_return_code comm_RS485_ReleaseBus(
 782:.\Generated_Source\PSoC4/comm_RS485.c ****   comm_RS485_bus_released_callback callback
 783:.\Generated_Source\PSoC4/comm_RS485.c **** ) {
 1439              		.loc 1 783 0
 1440              		.cfi_startproc
 1441              	.LVL87:
 784:.\Generated_Source\PSoC4/comm_RS485.c **** 	switch(state) {
 1442              		.loc 1 784 0
 1443 0000 104B     		ldr	r3, .L211
 1444 0002 1A78     		ldrb	r2, [r3]
 1445 0004 052A     		cmp	r2, #5
 1446 0006 1AD1     		bne	.L210
 785:.\Generated_Source\PSoC4/comm_RS485.c **** 	case comm_RS485_MASTER_CHOOSING_SLAVE:
 786:.\Generated_Source\PSoC4/comm_RS485.c ****     callbacks.busReleased = callback;
 787:.\Generated_Source\PSoC4/comm_RS485.c **** #if comm_RS485_IS_ARBITER
 788:.\Generated_Source\PSoC4/comm_RS485.c **** 		state = comm_RS485_ARBITRING;
 789:.\Generated_Source\PSoC4/comm_RS485.c **** 		comm_RS485_isr_WAKE_Disable();
 790:.\Generated_Source\PSoC4/comm_RS485.c **** 
 791:.\Generated_Source\PSoC4/comm_RS485.c **** 		comm_RS485_RELEASE_WAKE();
 792:.\Generated_Source\PSoC4/comm_RS485.c ****     if(callbacks.busReleased)
 793:.\Generated_Source\PSoC4/comm_RS485.c ****       callbacks.busReleased();
 794:.\Generated_Source\PSoC4/comm_RS485.c **** 
 795:.\Generated_Source\PSoC4/comm_RS485.c **** 	    if(CyPins_ReadPin(comm_RS485_WAKE_0)) {
 796:.\Generated_Source\PSoC4/comm_RS485.c **** 	    	//rising
 797:.\Generated_Source\PSoC4/comm_RS485.c **** 	    	comm_RS485_isr_WAKE_SetPending();
 798:.\Generated_Source\PSoC4/comm_RS485.c **** 	    	comm_RS485_isr_WAKE_Enable();
 799:.\Generated_Source\PSoC4/comm_RS485.c **** 	    } else {
 800:.\Generated_Source\PSoC4/comm_RS485.c **** 	    	//low level, someone is still holding bus
 801:.\Generated_Source\PSoC4/comm_RS485.c **** 	    	comm_RS485_isr_WAKE_Enable();
 802:.\Generated_Source\PSoC4/comm_RS485.c **** 	    	nextArbitrationStep();
 803:.\Generated_Source\PSoC4/comm_RS485.c **** 	    }
 804:.\Generated_Source\PSoC4/comm_RS485.c **** #else
 805:.\Generated_Source\PSoC4/comm_RS485.c ****     state = comm_RS485_MASTER_RELEASING_BUS;
 1447              		.loc 1 805 0
 1448 0008 0121     		mov	r1, #1
 786:.\Generated_Source\PSoC4/comm_RS485.c ****     callbacks.busReleased = callback;
ARM GAS  C:\Users\SDEVAS~1\AppData\Local\Temp\ccfNj7w1.s 			page 42


 1449              		.loc 1 786 0
 1450 000a 5862     		str	r0, [r3, #36]
 1451              		.loc 1 805 0
 1452 000c 1970     		strb	r1, [r3]
 806:.\Generated_Source\PSoC4/comm_RS485.c ****   
 807:.\Generated_Source\PSoC4/comm_RS485.c ****     CyGlobalIntDisable;
 1453              		.loc 1 807 0
 1454              	@ 807 ".\Generated_Source\PSoC4\comm_RS485.c" 1
 1455 000e 72B6     		CPSID   i
 1456              	@ 0 "" 2
 808:.\Generated_Source\PSoC4/comm_RS485.c **** 		comm_RS485_TRANSCEIVER_TX_EN();
 1457              		.loc 1 808 0
 1458              		.code	16
 1459 0010 0D4B     		ldr	r3, .L211+4
 1460 0012 1868     		ldr	r0, [r3]
 1461              	.LVL88:
 1462 0014 0143     		orr	r1, r0
 1463 0016 1960     		str	r1, [r3]
 1464 0018 1968     		ldr	r1, [r3]
 1465 001a 0220     		mov	r0, #2
 1466 001c 0143     		orr	r1, r0
 1467 001e 1960     		str	r1, [r3]
 1468 0020 0A4B     		ldr	r3, .L211+8
 1469 0022 0420     		mov	r0, #4
 1470 0024 1968     		ldr	r1, [r3]
 1471 0026 8143     		bic	r1, r0
 1472 0028 1960     		str	r1, [r3]
 809:.\Generated_Source\PSoC4/comm_RS485.c **** 
 810:.\Generated_Source\PSoC4/comm_RS485.c **** 		comm_RS485_UART_TX_FIFO_WR_REG = comm_RS485_UART_UART_MP_MARK | comm_RS485_Protocol_ARB_ADDRESS;
 1473              		.loc 1 810 0
 1474 002a 094B     		ldr	r3, .L211+12
 1475 002c 0221     		mov	r1, #2
 1476 002e FF31     		add	r1, r1, #255
 1477 0030 1960     		str	r1, [r3]
 811:.\Generated_Source\PSoC4/comm_RS485.c **** 		comm_RS485_UART_TX_FIFO_WR_REG = comm_RS485_Protocol_ARB_DONE;
 1478              		.loc 1 811 0
 1479 0032 1A60     		str	r2, [r3]
 812:.\Generated_Source\PSoC4/comm_RS485.c ****     comm_RS485_UART_TX_FIFO_WR_REG = comm_RS485_OWN_ADDRESS;
 1480              		.loc 1 812 0
 1481 0034 B022     		mov	r2, #176
 1482 0036 1A60     		str	r2, [r3]
 813:.\Generated_Source\PSoC4/comm_RS485.c ****     CyGlobalIntEnable;
 1483              		.loc 1 813 0
 1484              	@ 813 ".\Generated_Source\PSoC4\comm_RS485.c" 1
 1485 0038 62B6     		CPSIE   i
 1486              	@ 0 "" 2
 814:.\Generated_Source\PSoC4/comm_RS485.c **** 
 815:.\Generated_Source\PSoC4/comm_RS485.c **** #endif
 816:.\Generated_Source\PSoC4/comm_RS485.c **** 		return comm_RS485_SUCCESS;
 1487              		.loc 1 816 0
 1488              		.code	16
 1489 003a 0020     		mov	r0, #0
 1490 003c 00E0     		b	.L207
 1491              	.LVL89:
 1492              	.L210:
 817:.\Generated_Source\PSoC4/comm_RS485.c **** 	break;
 818:.\Generated_Source\PSoC4/comm_RS485.c **** 	default:
ARM GAS  C:\Users\SDEVAS~1\AppData\Local\Temp\ccfNj7w1.s 			page 43


 819:.\Generated_Source\PSoC4/comm_RS485.c **** 		return comm_RS485_FORBIDDEN;
 1493              		.loc 1 819 0
 1494 003e 0220     		mov	r0, #2
 1495              	.LVL90:
 1496              	.L207:
 820:.\Generated_Source\PSoC4/comm_RS485.c **** 	break;
 821:.\Generated_Source\PSoC4/comm_RS485.c **** 	}
 822:.\Generated_Source\PSoC4/comm_RS485.c **** 	return comm_RS485_FAIL;
 823:.\Generated_Source\PSoC4/comm_RS485.c **** }
 1497              		.loc 1 823 0
 1498              		@ sp needed
 1499 0040 7047     		bx	lr
 1500              	.L212:
 1501 0042 C046     		.align	2
 1502              	.L211:
 1503 0044 00000000 		.word	.LANCHOR0
 1504 0048 00000440 		.word	1074003968
 1505 004c C80F0640 		.word	1074139080
 1506 0050 40020640 		.word	1074135616
 1507              		.cfi_endproc
 1508              	.LFE49:
 1509              		.size	comm_RS485_ReleaseBus, .-comm_RS485_ReleaseBus
 1510              		.data
 1511              		.set	.LANCHOR1,. + 0
 1512              		.type	internalState.5930, %object
 1513              		.size	internalState.5930, 1
 1514              	internalState.5930:
 1515 0000 01       		.byte	1
 1516              		.type	internalState.5917, %object
 1517              		.size	internalState.5917, 1
 1518              	internalState.5917:
 1519 0001 01       		.byte	1
 1520              		.bss
 1521              		.align	2
 1522              		.set	.LANCHOR0,. + 0
 1523              		.type	state, %object
 1524              		.size	state, 1
 1525              	state:
 1526 0000 00       		.space	1
 1527 0001 000000   		.space	3
 1528              		.type	rx_counter_helper, %object
 1529              		.size	rx_counter_helper, 4
 1530              	rx_counter_helper:
 1531 0004 00000000 		.space	4
 1532              		.type	rx_frame_type_helper, %object
 1533              		.size	rx_frame_type_helper, 1
 1534              	rx_frame_type_helper:
 1535 0008 00       		.space	1
 1536 0009 000000   		.space	3
 1537              		.type	otherEndAddress, %object
 1538              		.size	otherEndAddress, 4
 1539              	otherEndAddress:
 1540 000c 00000000 		.space	4
 1541              		.type	callbacks, %object
 1542              		.size	callbacks, 44
 1543              	callbacks:
 1544 0010 00000000 		.space	44
ARM GAS  C:\Users\SDEVAS~1\AppData\Local\Temp\ccfNj7w1.s 			page 44


 1544      00000000 
 1544      00000000 
 1544      00000000 
 1544      00000000 
 1545              		.type	slaveBuff, %object
 1546              		.size	slaveBuff, 12
 1547              	slaveBuff:
 1548 003c 00000000 		.space	12
 1548      00000000 
 1548      00000000 
 1549              		.type	masterBuff, %object
 1550              		.size	masterBuff, 12
 1551              	masterBuff:
 1552 0048 00000000 		.space	12
 1552      00000000 
 1552      00000000 
 1553              		.type	txBuff, %object
 1554              		.size	txBuff, 12
 1555              	txBuff:
 1556 0054 00000000 		.space	12
 1556      00000000 
 1556      00000000 
 1557              		.text
 1558              	.Letext0:
 1559              		.file 2 "c:\\program files (x86)\\cypress\\psoc creator\\3.2\\psoc creator\\import\\gnu\\arm\\4.8.
 1560              		.file 3 "c:\\program files (x86)\\cypress\\psoc creator\\3.2\\psoc creator\\import\\gnu\\arm\\4.8.
 1561              		.file 4 "Generated_Source\\PSoC4/cytypes.h"
 1562              		.file 5 "Generated_Source\\PSoC4/comm_RS485.h"
 1563              		.file 6 "Generated_Source\\PSoC4/comm_RS485_Protocol.h"
 1564              		.file 7 "Generated_Source\\PSoC4/comm_RS485_UART_SPI_UART.h"
 1565              		.file 8 "Generated_Source\\PSoC4/comm_RS485_Timeout.h"
 1566              		.file 9 "Generated_Source\\PSoC4/comm_RS485_WAKE.h"
 1567              		.file 10 "Generated_Source\\PSoC4/comm_RS485_UART.h"
 1568              		.file 11 "Generated_Source\\PSoC4/comm_RS485_isr_WAKE.h"
 1569              		.file 12 "Generated_Source\\PSoC4/comm_RS485_isr_Timeout.h"