ARM GAS  C:\Users\SDEVAS~1\AppData\Local\Temp\ccmGD0VW.s 			page 1


   1              		.cpu cortex-m0
   2              		.fpu softvfp
   3              		.eabi_attribute 20, 1
   4              		.eabi_attribute 21, 1
   5              		.eabi_attribute 23, 3
   6              		.eabi_attribute 24, 1
   7              		.eabi_attribute 25, 1
   8              		.eabi_attribute 26, 1
   9              		.eabi_attribute 30, 4
  10              		.eabi_attribute 34, 0
  11              		.eabi_attribute 18, 4
  12              		.code	16
  13              		.file	"comm_RS485_UART_UART.c"
  14              		.text
  15              	.Ltext0:
  16              		.cfi_sections	.debug_frame
  17              		.section	.text.comm_RS485_UART_UartInit,"ax",%progbits
  18              		.align	1
  19              		.global	comm_RS485_UART_UartInit
  20              		.code	16
  21              		.thumb_func
  22              		.type	comm_RS485_UART_UartInit, %function
  23              	comm_RS485_UART_UartInit:
  24              	.LFB0:
  25              		.file 1 ".\\Generated_Source\\PSoC4\\comm_RS485_UART_UART.c"
   1:.\Generated_Source\PSoC4/comm_RS485_UART_UART.c **** /*******************************************************************************
   2:.\Generated_Source\PSoC4/comm_RS485_UART_UART.c **** * File Name: comm_RS485_UART_UART.c
   3:.\Generated_Source\PSoC4/comm_RS485_UART_UART.c **** * Version 2.0
   4:.\Generated_Source\PSoC4/comm_RS485_UART_UART.c **** *
   5:.\Generated_Source\PSoC4/comm_RS485_UART_UART.c **** * Description:
   6:.\Generated_Source\PSoC4/comm_RS485_UART_UART.c **** *  This file provides the source code to the API for the SCB Component in
   7:.\Generated_Source\PSoC4/comm_RS485_UART_UART.c **** *  UART mode.
   8:.\Generated_Source\PSoC4/comm_RS485_UART_UART.c **** *
   9:.\Generated_Source\PSoC4/comm_RS485_UART_UART.c **** * Note:
  10:.\Generated_Source\PSoC4/comm_RS485_UART_UART.c **** *
  11:.\Generated_Source\PSoC4/comm_RS485_UART_UART.c **** *******************************************************************************
  12:.\Generated_Source\PSoC4/comm_RS485_UART_UART.c **** * Copyright 2013-2014, Cypress Semiconductor Corporation.  All rights reserved.
  13:.\Generated_Source\PSoC4/comm_RS485_UART_UART.c **** * You may use this file only in accordance with the license, terms, conditions,
  14:.\Generated_Source\PSoC4/comm_RS485_UART_UART.c **** * disclaimers, and limitations in the end user license agreement accompanying
  15:.\Generated_Source\PSoC4/comm_RS485_UART_UART.c **** * the software package with which this file was provided.
  16:.\Generated_Source\PSoC4/comm_RS485_UART_UART.c **** *******************************************************************************/
  17:.\Generated_Source\PSoC4/comm_RS485_UART_UART.c **** 
  18:.\Generated_Source\PSoC4/comm_RS485_UART_UART.c **** #include "comm_RS485_UART_PVT.h"
  19:.\Generated_Source\PSoC4/comm_RS485_UART_UART.c **** #include "comm_RS485_UART_SPI_UART_PVT.h"
  20:.\Generated_Source\PSoC4/comm_RS485_UART_UART.c **** 
  21:.\Generated_Source\PSoC4/comm_RS485_UART_UART.c **** 
  22:.\Generated_Source\PSoC4/comm_RS485_UART_UART.c **** #if(comm_RS485_UART_SCB_MODE_UNCONFIG_CONST_CFG)
  23:.\Generated_Source\PSoC4/comm_RS485_UART_UART.c **** 
  24:.\Generated_Source\PSoC4/comm_RS485_UART_UART.c ****     /***************************************
  25:.\Generated_Source\PSoC4/comm_RS485_UART_UART.c ****     *  Configuration Structure Initialization
  26:.\Generated_Source\PSoC4/comm_RS485_UART_UART.c ****     ***************************************/
  27:.\Generated_Source\PSoC4/comm_RS485_UART_UART.c **** 
  28:.\Generated_Source\PSoC4/comm_RS485_UART_UART.c ****     const comm_RS485_UART_UART_INIT_STRUCT comm_RS485_UART_configUart =
  29:.\Generated_Source\PSoC4/comm_RS485_UART_UART.c ****     {
  30:.\Generated_Source\PSoC4/comm_RS485_UART_UART.c ****         comm_RS485_UART_UART_SUB_MODE,
  31:.\Generated_Source\PSoC4/comm_RS485_UART_UART.c ****         comm_RS485_UART_UART_DIRECTION,
  32:.\Generated_Source\PSoC4/comm_RS485_UART_UART.c ****         comm_RS485_UART_UART_DATA_BITS_NUM,
ARM GAS  C:\Users\SDEVAS~1\AppData\Local\Temp\ccmGD0VW.s 			page 2


  33:.\Generated_Source\PSoC4/comm_RS485_UART_UART.c ****         comm_RS485_UART_UART_PARITY_TYPE,
  34:.\Generated_Source\PSoC4/comm_RS485_UART_UART.c ****         comm_RS485_UART_UART_STOP_BITS_NUM,
  35:.\Generated_Source\PSoC4/comm_RS485_UART_UART.c ****         comm_RS485_UART_UART_OVS_FACTOR,
  36:.\Generated_Source\PSoC4/comm_RS485_UART_UART.c ****         comm_RS485_UART_UART_IRDA_LOW_POWER,
  37:.\Generated_Source\PSoC4/comm_RS485_UART_UART.c ****         comm_RS485_UART_UART_MEDIAN_FILTER_ENABLE,
  38:.\Generated_Source\PSoC4/comm_RS485_UART_UART.c ****         comm_RS485_UART_UART_RETRY_ON_NACK,
  39:.\Generated_Source\PSoC4/comm_RS485_UART_UART.c ****         comm_RS485_UART_UART_IRDA_POLARITY,
  40:.\Generated_Source\PSoC4/comm_RS485_UART_UART.c ****         comm_RS485_UART_UART_DROP_ON_PARITY_ERR,
  41:.\Generated_Source\PSoC4/comm_RS485_UART_UART.c ****         comm_RS485_UART_UART_DROP_ON_FRAME_ERR,
  42:.\Generated_Source\PSoC4/comm_RS485_UART_UART.c ****         comm_RS485_UART_UART_WAKE_ENABLE,
  43:.\Generated_Source\PSoC4/comm_RS485_UART_UART.c ****         0u,
  44:.\Generated_Source\PSoC4/comm_RS485_UART_UART.c ****         NULL,
  45:.\Generated_Source\PSoC4/comm_RS485_UART_UART.c ****         0u,
  46:.\Generated_Source\PSoC4/comm_RS485_UART_UART.c ****         NULL,
  47:.\Generated_Source\PSoC4/comm_RS485_UART_UART.c ****         comm_RS485_UART_UART_MP_MODE_ENABLE,
  48:.\Generated_Source\PSoC4/comm_RS485_UART_UART.c ****         comm_RS485_UART_UART_MP_ACCEPT_ADDRESS,
  49:.\Generated_Source\PSoC4/comm_RS485_UART_UART.c ****         comm_RS485_UART_UART_MP_RX_ADDRESS,
  50:.\Generated_Source\PSoC4/comm_RS485_UART_UART.c ****         comm_RS485_UART_UART_MP_RX_ADDRESS_MASK,
  51:.\Generated_Source\PSoC4/comm_RS485_UART_UART.c ****         (uint32) comm_RS485_UART_SCB_IRQ_INTERNAL,
  52:.\Generated_Source\PSoC4/comm_RS485_UART_UART.c ****         comm_RS485_UART_UART_INTR_RX_MASK,
  53:.\Generated_Source\PSoC4/comm_RS485_UART_UART.c ****         comm_RS485_UART_UART_RX_TRIGGER_LEVEL,
  54:.\Generated_Source\PSoC4/comm_RS485_UART_UART.c ****         comm_RS485_UART_UART_INTR_TX_MASK,
  55:.\Generated_Source\PSoC4/comm_RS485_UART_UART.c ****         comm_RS485_UART_UART_TX_TRIGGER_LEVEL,
  56:.\Generated_Source\PSoC4/comm_RS485_UART_UART.c ****         (uint8) comm_RS485_UART_UART_BYTE_MODE_ENABLE,
  57:.\Generated_Source\PSoC4/comm_RS485_UART_UART.c ****         (uint8) comm_RS485_UART_UART_CTS_ENABLE,
  58:.\Generated_Source\PSoC4/comm_RS485_UART_UART.c ****         (uint8) comm_RS485_UART_UART_CTS_POLARITY,
  59:.\Generated_Source\PSoC4/comm_RS485_UART_UART.c ****         (uint8) comm_RS485_UART_UART_RTS_POLARITY,
  60:.\Generated_Source\PSoC4/comm_RS485_UART_UART.c ****         (uint8) comm_RS485_UART_UART_RTS_FIFO_LEVEL
  61:.\Generated_Source\PSoC4/comm_RS485_UART_UART.c ****     };
  62:.\Generated_Source\PSoC4/comm_RS485_UART_UART.c **** 
  63:.\Generated_Source\PSoC4/comm_RS485_UART_UART.c **** 
  64:.\Generated_Source\PSoC4/comm_RS485_UART_UART.c ****     /*******************************************************************************
  65:.\Generated_Source\PSoC4/comm_RS485_UART_UART.c ****     * Function Name: comm_RS485_UART_UartInit
  66:.\Generated_Source\PSoC4/comm_RS485_UART_UART.c ****     ********************************************************************************
  67:.\Generated_Source\PSoC4/comm_RS485_UART_UART.c ****     *
  68:.\Generated_Source\PSoC4/comm_RS485_UART_UART.c ****     * Summary:
  69:.\Generated_Source\PSoC4/comm_RS485_UART_UART.c ****     *  Configures the SCB for the UART operation.
  70:.\Generated_Source\PSoC4/comm_RS485_UART_UART.c ****     *
  71:.\Generated_Source\PSoC4/comm_RS485_UART_UART.c ****     * Parameters:
  72:.\Generated_Source\PSoC4/comm_RS485_UART_UART.c ****     *  config:  Pointer to a structure that contains the following ordered list of
  73:.\Generated_Source\PSoC4/comm_RS485_UART_UART.c ****     *           fields. These fields match the selections available in the
  74:.\Generated_Source\PSoC4/comm_RS485_UART_UART.c ****     *           customizer.
  75:.\Generated_Source\PSoC4/comm_RS485_UART_UART.c ****     *
  76:.\Generated_Source\PSoC4/comm_RS485_UART_UART.c ****     * Return:
  77:.\Generated_Source\PSoC4/comm_RS485_UART_UART.c ****     *  None
  78:.\Generated_Source\PSoC4/comm_RS485_UART_UART.c ****     *
  79:.\Generated_Source\PSoC4/comm_RS485_UART_UART.c ****     *******************************************************************************/
  80:.\Generated_Source\PSoC4/comm_RS485_UART_UART.c ****     void comm_RS485_UART_UartInit(const comm_RS485_UART_UART_INIT_STRUCT *config)
  81:.\Generated_Source\PSoC4/comm_RS485_UART_UART.c ****     {
  82:.\Generated_Source\PSoC4/comm_RS485_UART_UART.c ****         uint32 pinsConfig;
  83:.\Generated_Source\PSoC4/comm_RS485_UART_UART.c **** 
  84:.\Generated_Source\PSoC4/comm_RS485_UART_UART.c ****         if(NULL == config)
  85:.\Generated_Source\PSoC4/comm_RS485_UART_UART.c ****         {
  86:.\Generated_Source\PSoC4/comm_RS485_UART_UART.c ****             CYASSERT(0u != 0u); /* Halt execution due to bad function parameter */
  87:.\Generated_Source\PSoC4/comm_RS485_UART_UART.c ****         }
  88:.\Generated_Source\PSoC4/comm_RS485_UART_UART.c ****         else
  89:.\Generated_Source\PSoC4/comm_RS485_UART_UART.c ****         {
ARM GAS  C:\Users\SDEVAS~1\AppData\Local\Temp\ccmGD0VW.s 			page 3


  90:.\Generated_Source\PSoC4/comm_RS485_UART_UART.c ****             /* Get direction to configure UART pins: TX, RX or TX+RX */
  91:.\Generated_Source\PSoC4/comm_RS485_UART_UART.c ****             pinsConfig  = config->direction;
  92:.\Generated_Source\PSoC4/comm_RS485_UART_UART.c **** 
  93:.\Generated_Source\PSoC4/comm_RS485_UART_UART.c ****         #if !(comm_RS485_UART_CY_SCBIP_V0 || comm_RS485_UART_CY_SCBIP_V1)
  94:.\Generated_Source\PSoC4/comm_RS485_UART_UART.c ****             /* Add RTS and CTS pins to configure */
  95:.\Generated_Source\PSoC4/comm_RS485_UART_UART.c ****             pinsConfig |= (0u != config->rtsRxFifoLevel) ? (comm_RS485_UART_UART_RTS_PIN_ENABLE) : 
  96:.\Generated_Source\PSoC4/comm_RS485_UART_UART.c ****             pinsConfig |= (0u != config->enableCts)         ? (comm_RS485_UART_UART_CTS_PIN_ENABLE)
  97:.\Generated_Source\PSoC4/comm_RS485_UART_UART.c ****         #endif /* !(comm_RS485_UART_CY_SCBIP_V0 || comm_RS485_UART_CY_SCBIP_V1) */
  98:.\Generated_Source\PSoC4/comm_RS485_UART_UART.c **** 
  99:.\Generated_Source\PSoC4/comm_RS485_UART_UART.c ****             /* Configure pins */
 100:.\Generated_Source\PSoC4/comm_RS485_UART_UART.c ****             comm_RS485_UART_SetPins(comm_RS485_UART_SCB_MODE_UART, config->mode, pinsConfig);
 101:.\Generated_Source\PSoC4/comm_RS485_UART_UART.c **** 
 102:.\Generated_Source\PSoC4/comm_RS485_UART_UART.c ****             /* Store internal configuration */
 103:.\Generated_Source\PSoC4/comm_RS485_UART_UART.c ****             comm_RS485_UART_scbMode       = (uint8) comm_RS485_UART_SCB_MODE_UART;
 104:.\Generated_Source\PSoC4/comm_RS485_UART_UART.c ****             comm_RS485_UART_scbEnableWake = (uint8) config->enableWake;
 105:.\Generated_Source\PSoC4/comm_RS485_UART_UART.c ****             comm_RS485_UART_scbEnableIntr = (uint8) config->enableInterrupt;
 106:.\Generated_Source\PSoC4/comm_RS485_UART_UART.c **** 
 107:.\Generated_Source\PSoC4/comm_RS485_UART_UART.c ****             /* Set RX direction internal variables */
 108:.\Generated_Source\PSoC4/comm_RS485_UART_UART.c ****             comm_RS485_UART_rxBuffer      =         config->rxBuffer;
 109:.\Generated_Source\PSoC4/comm_RS485_UART_UART.c ****             comm_RS485_UART_rxDataBits    = (uint8) config->dataBits;
 110:.\Generated_Source\PSoC4/comm_RS485_UART_UART.c ****             comm_RS485_UART_rxBufferSize  = (uint8) config->rxBufferSize;
 111:.\Generated_Source\PSoC4/comm_RS485_UART_UART.c **** 
 112:.\Generated_Source\PSoC4/comm_RS485_UART_UART.c ****             /* Set TX direction internal variables */
 113:.\Generated_Source\PSoC4/comm_RS485_UART_UART.c ****             comm_RS485_UART_txBuffer      =         config->txBuffer;
 114:.\Generated_Source\PSoC4/comm_RS485_UART_UART.c ****             comm_RS485_UART_txDataBits    = (uint8) config->dataBits;
 115:.\Generated_Source\PSoC4/comm_RS485_UART_UART.c ****             comm_RS485_UART_txBufferSize  = (uint8) config->txBufferSize;
 116:.\Generated_Source\PSoC4/comm_RS485_UART_UART.c **** 
 117:.\Generated_Source\PSoC4/comm_RS485_UART_UART.c ****             /* Configure UART interface */
 118:.\Generated_Source\PSoC4/comm_RS485_UART_UART.c ****             if(comm_RS485_UART_UART_MODE_IRDA == config->mode)
 119:.\Generated_Source\PSoC4/comm_RS485_UART_UART.c ****             {
 120:.\Generated_Source\PSoC4/comm_RS485_UART_UART.c ****                 /* OVS settings: IrDA */
 121:.\Generated_Source\PSoC4/comm_RS485_UART_UART.c ****                 comm_RS485_UART_CTRL_REG  = ((0u != config->enableIrdaLowPower) ?
 122:.\Generated_Source\PSoC4/comm_RS485_UART_UART.c ****                                                 (comm_RS485_UART_UART_GET_CTRL_OVS_IRDA_LP(config->
 123:.\Generated_Source\PSoC4/comm_RS485_UART_UART.c ****                                                 (comm_RS485_UART_CTRL_OVS_IRDA_OVS16));
 124:.\Generated_Source\PSoC4/comm_RS485_UART_UART.c ****             }
 125:.\Generated_Source\PSoC4/comm_RS485_UART_UART.c ****             else
 126:.\Generated_Source\PSoC4/comm_RS485_UART_UART.c ****             {
 127:.\Generated_Source\PSoC4/comm_RS485_UART_UART.c ****                 /* OVS settings: UART and SmartCard */
 128:.\Generated_Source\PSoC4/comm_RS485_UART_UART.c ****                 comm_RS485_UART_CTRL_REG  = comm_RS485_UART_GET_CTRL_OVS(config->oversample);
 129:.\Generated_Source\PSoC4/comm_RS485_UART_UART.c ****             }
 130:.\Generated_Source\PSoC4/comm_RS485_UART_UART.c **** 
 131:.\Generated_Source\PSoC4/comm_RS485_UART_UART.c ****             comm_RS485_UART_CTRL_REG     |= comm_RS485_UART_GET_CTRL_BYTE_MODE  (config->enableByte
 132:.\Generated_Source\PSoC4/comm_RS485_UART_UART.c ****                                              comm_RS485_UART_GET_CTRL_ADDR_ACCEPT(config->multiproc
 133:.\Generated_Source\PSoC4/comm_RS485_UART_UART.c ****                                              comm_RS485_UART_CTRL_UART;
 134:.\Generated_Source\PSoC4/comm_RS485_UART_UART.c **** 
 135:.\Generated_Source\PSoC4/comm_RS485_UART_UART.c ****             /* Configure sub-mode: UART, SmartCard or IrDA */
 136:.\Generated_Source\PSoC4/comm_RS485_UART_UART.c ****             comm_RS485_UART_UART_CTRL_REG = comm_RS485_UART_GET_UART_CTRL_MODE(config->mode);
 137:.\Generated_Source\PSoC4/comm_RS485_UART_UART.c **** 
 138:.\Generated_Source\PSoC4/comm_RS485_UART_UART.c ****             /* Configure RX direction */
 139:.\Generated_Source\PSoC4/comm_RS485_UART_UART.c ****             comm_RS485_UART_UART_RX_CTRL_REG = comm_RS485_UART_GET_UART_RX_CTRL_MODE(config->stopBi
 140:.\Generated_Source\PSoC4/comm_RS485_UART_UART.c ****                                         comm_RS485_UART_GET_UART_RX_CTRL_POLARITY(config->enableInv
 141:.\Generated_Source\PSoC4/comm_RS485_UART_UART.c ****                                         comm_RS485_UART_GET_UART_RX_CTRL_MP_MODE(config->enableMult
 142:.\Generated_Source\PSoC4/comm_RS485_UART_UART.c ****                                         comm_RS485_UART_GET_UART_RX_CTRL_DROP_ON_PARITY_ERR(config-
 143:.\Generated_Source\PSoC4/comm_RS485_UART_UART.c ****                                         comm_RS485_UART_GET_UART_RX_CTRL_DROP_ON_FRAME_ERR(config->
 144:.\Generated_Source\PSoC4/comm_RS485_UART_UART.c **** 
 145:.\Generated_Source\PSoC4/comm_RS485_UART_UART.c ****             if(comm_RS485_UART_UART_PARITY_NONE != config->parity)
 146:.\Generated_Source\PSoC4/comm_RS485_UART_UART.c ****             {
ARM GAS  C:\Users\SDEVAS~1\AppData\Local\Temp\ccmGD0VW.s 			page 4


 147:.\Generated_Source\PSoC4/comm_RS485_UART_UART.c ****                comm_RS485_UART_UART_RX_CTRL_REG |= comm_RS485_UART_GET_UART_RX_CTRL_PARITY(config->
 148:.\Generated_Source\PSoC4/comm_RS485_UART_UART.c ****                                                     comm_RS485_UART_UART_RX_CTRL_PARITY_ENABLED;
 149:.\Generated_Source\PSoC4/comm_RS485_UART_UART.c ****             }
 150:.\Generated_Source\PSoC4/comm_RS485_UART_UART.c **** 
 151:.\Generated_Source\PSoC4/comm_RS485_UART_UART.c ****             comm_RS485_UART_RX_CTRL_REG      = comm_RS485_UART_GET_RX_CTRL_DATA_WIDTH(config->dataB
 152:.\Generated_Source\PSoC4/comm_RS485_UART_UART.c ****                                                 comm_RS485_UART_GET_RX_CTRL_MEDIAN(config->enableMe
 153:.\Generated_Source\PSoC4/comm_RS485_UART_UART.c ****                                                 comm_RS485_UART_GET_UART_RX_CTRL_ENABLED(config->di
 154:.\Generated_Source\PSoC4/comm_RS485_UART_UART.c **** 
 155:.\Generated_Source\PSoC4/comm_RS485_UART_UART.c ****             comm_RS485_UART_RX_FIFO_CTRL_REG = comm_RS485_UART_GET_RX_FIFO_CTRL_TRIGGER_LEVEL(confi
 156:.\Generated_Source\PSoC4/comm_RS485_UART_UART.c **** 
 157:.\Generated_Source\PSoC4/comm_RS485_UART_UART.c ****             /* Configure MP address */
 158:.\Generated_Source\PSoC4/comm_RS485_UART_UART.c ****             comm_RS485_UART_RX_MATCH_REG     = comm_RS485_UART_GET_RX_MATCH_ADDR(config->multiprocA
 159:.\Generated_Source\PSoC4/comm_RS485_UART_UART.c ****                                                 comm_RS485_UART_GET_RX_MATCH_MASK(config->multiproc
 160:.\Generated_Source\PSoC4/comm_RS485_UART_UART.c **** 
 161:.\Generated_Source\PSoC4/comm_RS485_UART_UART.c ****             /* Configure RX direction */
 162:.\Generated_Source\PSoC4/comm_RS485_UART_UART.c ****             comm_RS485_UART_UART_TX_CTRL_REG = comm_RS485_UART_GET_UART_TX_CTRL_MODE(config->stopBi
 163:.\Generated_Source\PSoC4/comm_RS485_UART_UART.c ****                                                 comm_RS485_UART_GET_UART_TX_CTRL_RETRY_NACK(config-
 164:.\Generated_Source\PSoC4/comm_RS485_UART_UART.c **** 
 165:.\Generated_Source\PSoC4/comm_RS485_UART_UART.c ****             if(comm_RS485_UART_UART_PARITY_NONE != config->parity)
 166:.\Generated_Source\PSoC4/comm_RS485_UART_UART.c ****             {
 167:.\Generated_Source\PSoC4/comm_RS485_UART_UART.c ****                comm_RS485_UART_UART_TX_CTRL_REG |= comm_RS485_UART_GET_UART_TX_CTRL_PARITY(config->
 168:.\Generated_Source\PSoC4/comm_RS485_UART_UART.c ****                                                     comm_RS485_UART_UART_TX_CTRL_PARITY_ENABLED;
 169:.\Generated_Source\PSoC4/comm_RS485_UART_UART.c ****             }
 170:.\Generated_Source\PSoC4/comm_RS485_UART_UART.c **** 
 171:.\Generated_Source\PSoC4/comm_RS485_UART_UART.c ****             comm_RS485_UART_TX_CTRL_REG      = comm_RS485_UART_GET_TX_CTRL_DATA_WIDTH(config->dataB
 172:.\Generated_Source\PSoC4/comm_RS485_UART_UART.c ****                                                 comm_RS485_UART_GET_UART_TX_CTRL_ENABLED(config->di
 173:.\Generated_Source\PSoC4/comm_RS485_UART_UART.c **** 
 174:.\Generated_Source\PSoC4/comm_RS485_UART_UART.c ****             comm_RS485_UART_TX_FIFO_CTRL_REG = comm_RS485_UART_GET_TX_FIFO_CTRL_TRIGGER_LEVEL(confi
 175:.\Generated_Source\PSoC4/comm_RS485_UART_UART.c **** 
 176:.\Generated_Source\PSoC4/comm_RS485_UART_UART.c ****         #if !(comm_RS485_UART_CY_SCBIP_V0 || comm_RS485_UART_CY_SCBIP_V1)
 177:.\Generated_Source\PSoC4/comm_RS485_UART_UART.c ****             comm_RS485_UART_UART_FLOW_CTRL_REG = comm_RS485_UART_GET_UART_FLOW_CTRL_CTS_ENABLE(conf
 178:.\Generated_Source\PSoC4/comm_RS485_UART_UART.c ****                                             comm_RS485_UART_GET_UART_FLOW_CTRL_CTS_POLARITY (config
 179:.\Generated_Source\PSoC4/comm_RS485_UART_UART.c ****                                             comm_RS485_UART_GET_UART_FLOW_CTRL_RTS_POLARITY(config-
 180:.\Generated_Source\PSoC4/comm_RS485_UART_UART.c ****                                             comm_RS485_UART_GET_UART_FLOW_CTRL_TRIGGER_LEVEL(config
 181:.\Generated_Source\PSoC4/comm_RS485_UART_UART.c ****         #endif /* !(comm_RS485_UART_CY_SCBIP_V0 || comm_RS485_UART_CY_SCBIP_V1) */
 182:.\Generated_Source\PSoC4/comm_RS485_UART_UART.c **** 
 183:.\Generated_Source\PSoC4/comm_RS485_UART_UART.c ****             /* Configure interrupt with UART handler but do not enable it */
 184:.\Generated_Source\PSoC4/comm_RS485_UART_UART.c ****             CyIntDisable    (comm_RS485_UART_ISR_NUMBER);
 185:.\Generated_Source\PSoC4/comm_RS485_UART_UART.c ****             CyIntSetPriority(comm_RS485_UART_ISR_NUMBER, comm_RS485_UART_ISR_PRIORITY);
 186:.\Generated_Source\PSoC4/comm_RS485_UART_UART.c ****             (void) CyIntSetVector(comm_RS485_UART_ISR_NUMBER, &comm_RS485_UART_SPI_UART_ISR);
 187:.\Generated_Source\PSoC4/comm_RS485_UART_UART.c **** 
 188:.\Generated_Source\PSoC4/comm_RS485_UART_UART.c ****             /* Configure WAKE interrupt */
 189:.\Generated_Source\PSoC4/comm_RS485_UART_UART.c ****         #if(comm_RS485_UART_UART_RX_WAKEUP_IRQ)
 190:.\Generated_Source\PSoC4/comm_RS485_UART_UART.c ****             CyIntDisable    (comm_RS485_UART_RX_WAKE_ISR_NUMBER);
 191:.\Generated_Source\PSoC4/comm_RS485_UART_UART.c ****             CyIntSetPriority(comm_RS485_UART_RX_WAKE_ISR_NUMBER, comm_RS485_UART_RX_WAKE_ISR_PRIORI
 192:.\Generated_Source\PSoC4/comm_RS485_UART_UART.c ****             (void) CyIntSetVector(comm_RS485_UART_RX_WAKE_ISR_NUMBER, &comm_RS485_UART_UART_WAKEUP_
 193:.\Generated_Source\PSoC4/comm_RS485_UART_UART.c ****         #endif /* (comm_RS485_UART_UART_RX_WAKEUP_IRQ) */
 194:.\Generated_Source\PSoC4/comm_RS485_UART_UART.c **** 
 195:.\Generated_Source\PSoC4/comm_RS485_UART_UART.c ****             /* Configure interrupt sources */
 196:.\Generated_Source\PSoC4/comm_RS485_UART_UART.c ****             comm_RS485_UART_INTR_I2C_EC_MASK_REG = comm_RS485_UART_NO_INTR_SOURCES;
 197:.\Generated_Source\PSoC4/comm_RS485_UART_UART.c ****             comm_RS485_UART_INTR_SPI_EC_MASK_REG = comm_RS485_UART_NO_INTR_SOURCES;
 198:.\Generated_Source\PSoC4/comm_RS485_UART_UART.c ****             comm_RS485_UART_INTR_SLAVE_MASK_REG  = comm_RS485_UART_NO_INTR_SOURCES;
 199:.\Generated_Source\PSoC4/comm_RS485_UART_UART.c ****             comm_RS485_UART_INTR_MASTER_MASK_REG = comm_RS485_UART_NO_INTR_SOURCES;
 200:.\Generated_Source\PSoC4/comm_RS485_UART_UART.c ****             comm_RS485_UART_INTR_RX_MASK_REG     = config->rxInterruptMask;
 201:.\Generated_Source\PSoC4/comm_RS485_UART_UART.c ****             comm_RS485_UART_INTR_TX_MASK_REG     = config->txInterruptMask;
 202:.\Generated_Source\PSoC4/comm_RS485_UART_UART.c **** 
 203:.\Generated_Source\PSoC4/comm_RS485_UART_UART.c ****             /* Clear RX buffer indexes */
ARM GAS  C:\Users\SDEVAS~1\AppData\Local\Temp\ccmGD0VW.s 			page 5


 204:.\Generated_Source\PSoC4/comm_RS485_UART_UART.c ****             comm_RS485_UART_rxBufferHead     = 0u;
 205:.\Generated_Source\PSoC4/comm_RS485_UART_UART.c ****             comm_RS485_UART_rxBufferTail     = 0u;
 206:.\Generated_Source\PSoC4/comm_RS485_UART_UART.c ****             comm_RS485_UART_rxBufferOverflow = 0u;
 207:.\Generated_Source\PSoC4/comm_RS485_UART_UART.c **** 
 208:.\Generated_Source\PSoC4/comm_RS485_UART_UART.c ****             /* Clear TX buffer indexes */
 209:.\Generated_Source\PSoC4/comm_RS485_UART_UART.c ****             comm_RS485_UART_txBufferHead = 0u;
 210:.\Generated_Source\PSoC4/comm_RS485_UART_UART.c ****             comm_RS485_UART_txBufferTail = 0u;
 211:.\Generated_Source\PSoC4/comm_RS485_UART_UART.c ****         }
 212:.\Generated_Source\PSoC4/comm_RS485_UART_UART.c ****     }
 213:.\Generated_Source\PSoC4/comm_RS485_UART_UART.c **** 
 214:.\Generated_Source\PSoC4/comm_RS485_UART_UART.c **** #else
 215:.\Generated_Source\PSoC4/comm_RS485_UART_UART.c **** 
 216:.\Generated_Source\PSoC4/comm_RS485_UART_UART.c ****     /*******************************************************************************
 217:.\Generated_Source\PSoC4/comm_RS485_UART_UART.c ****     * Function Name: comm_RS485_UART_UartInit
 218:.\Generated_Source\PSoC4/comm_RS485_UART_UART.c ****     ********************************************************************************
 219:.\Generated_Source\PSoC4/comm_RS485_UART_UART.c ****     *
 220:.\Generated_Source\PSoC4/comm_RS485_UART_UART.c ****     * Summary:
 221:.\Generated_Source\PSoC4/comm_RS485_UART_UART.c ****     *  Configures the SCB for the UART operation.
 222:.\Generated_Source\PSoC4/comm_RS485_UART_UART.c ****     *
 223:.\Generated_Source\PSoC4/comm_RS485_UART_UART.c ****     * Parameters:
 224:.\Generated_Source\PSoC4/comm_RS485_UART_UART.c ****     *  None
 225:.\Generated_Source\PSoC4/comm_RS485_UART_UART.c ****     *
 226:.\Generated_Source\PSoC4/comm_RS485_UART_UART.c ****     * Return:
 227:.\Generated_Source\PSoC4/comm_RS485_UART_UART.c ****     *  None
 228:.\Generated_Source\PSoC4/comm_RS485_UART_UART.c ****     *
 229:.\Generated_Source\PSoC4/comm_RS485_UART_UART.c ****     *******************************************************************************/
 230:.\Generated_Source\PSoC4/comm_RS485_UART_UART.c ****     void comm_RS485_UART_UartInit(void)
 231:.\Generated_Source\PSoC4/comm_RS485_UART_UART.c ****     {
  26              		.loc 1 231 0
  27              		.cfi_startproc
 232:.\Generated_Source\PSoC4/comm_RS485_UART_UART.c ****         /* Configure UART interface */
 233:.\Generated_Source\PSoC4/comm_RS485_UART_UART.c ****         comm_RS485_UART_CTRL_REG = comm_RS485_UART_UART_DEFAULT_CTRL;
  28              		.loc 1 233 0
  29 0000 1A4A     		ldr	r2, .L2
  30 0002 1B4B     		ldr	r3, .L2+4
 231:.\Generated_Source\PSoC4/comm_RS485_UART_UART.c ****     {
  31              		.loc 1 231 0
  32 0004 10B5     		push	{r4, lr}
  33              		.cfi_def_cfa_offset 8
  34              		.cfi_offset 4, -8
  35              		.cfi_offset 14, -4
  36              		.loc 1 233 0
  37 0006 1A60     		str	r2, [r3]
 234:.\Generated_Source\PSoC4/comm_RS485_UART_UART.c **** 
 235:.\Generated_Source\PSoC4/comm_RS485_UART_UART.c ****         /* Configure sub-mode: UART, SmartCard or IrDA */
 236:.\Generated_Source\PSoC4/comm_RS485_UART_UART.c ****         comm_RS485_UART_UART_CTRL_REG = comm_RS485_UART_UART_DEFAULT_UART_CTRL;
  38              		.loc 1 236 0
  39 0008 1A4B     		ldr	r3, .L2+8
  40 000a 0024     		mov	r4, #0
  41 000c 1C60     		str	r4, [r3]
 237:.\Generated_Source\PSoC4/comm_RS485_UART_UART.c **** 
 238:.\Generated_Source\PSoC4/comm_RS485_UART_UART.c ****         /* Configure RX direction */
 239:.\Generated_Source\PSoC4/comm_RS485_UART_UART.c ****         comm_RS485_UART_UART_RX_CTRL_REG = comm_RS485_UART_UART_DEFAULT_UART_RX_CTRL;
  42              		.loc 1 239 0
  43 000e 1A4A     		ldr	r2, .L2+12
  44 0010 1A4B     		ldr	r3, .L2+16
 240:.\Generated_Source\PSoC4/comm_RS485_UART_UART.c ****         comm_RS485_UART_RX_CTRL_REG      = comm_RS485_UART_UART_DEFAULT_RX_CTRL;
ARM GAS  C:\Users\SDEVAS~1\AppData\Local\Temp\ccmGD0VW.s 			page 6


 241:.\Generated_Source\PSoC4/comm_RS485_UART_UART.c ****         comm_RS485_UART_RX_FIFO_CTRL_REG = comm_RS485_UART_UART_DEFAULT_RX_FIFO_CTRL;
  45              		.loc 1 241 0
  46 0012 0721     		mov	r1, #7
 239:.\Generated_Source\PSoC4/comm_RS485_UART_UART.c ****         comm_RS485_UART_UART_RX_CTRL_REG = comm_RS485_UART_UART_DEFAULT_UART_RX_CTRL;
  47              		.loc 1 239 0
  48 0014 1A60     		str	r2, [r3]
 240:.\Generated_Source\PSoC4/comm_RS485_UART_UART.c ****         comm_RS485_UART_RX_CTRL_REG      = comm_RS485_UART_UART_DEFAULT_RX_CTRL;
  49              		.loc 1 240 0
  50 0016 1A4B     		ldr	r3, .L2+20
  51 0018 1A4A     		ldr	r2, .L2+24
 242:.\Generated_Source\PSoC4/comm_RS485_UART_UART.c ****         comm_RS485_UART_RX_MATCH_REG     = comm_RS485_UART_UART_DEFAULT_RX_MATCH_REG;
 243:.\Generated_Source\PSoC4/comm_RS485_UART_UART.c **** 
 244:.\Generated_Source\PSoC4/comm_RS485_UART_UART.c ****         /* Configure TX direction */
 245:.\Generated_Source\PSoC4/comm_RS485_UART_UART.c ****         comm_RS485_UART_UART_TX_CTRL_REG = comm_RS485_UART_UART_DEFAULT_UART_TX_CTRL;
 246:.\Generated_Source\PSoC4/comm_RS485_UART_UART.c ****         comm_RS485_UART_TX_CTRL_REG      = comm_RS485_UART_UART_DEFAULT_TX_CTRL;
 247:.\Generated_Source\PSoC4/comm_RS485_UART_UART.c ****         comm_RS485_UART_TX_FIFO_CTRL_REG = comm_RS485_UART_UART_DEFAULT_TX_FIFO_CTRL;
 248:.\Generated_Source\PSoC4/comm_RS485_UART_UART.c **** 
 249:.\Generated_Source\PSoC4/comm_RS485_UART_UART.c ****     #if !(comm_RS485_UART_CY_SCBIP_V0 || comm_RS485_UART_CY_SCBIP_V1)
 250:.\Generated_Source\PSoC4/comm_RS485_UART_UART.c ****         comm_RS485_UART_UART_FLOW_CTRL_REG = comm_RS485_UART_UART_DEFAULT_FLOW_CTRL;
 251:.\Generated_Source\PSoC4/comm_RS485_UART_UART.c ****     #endif /* !(comm_RS485_UART_CY_SCBIP_V0 || comm_RS485_UART_CY_SCBIP_V1) */
 252:.\Generated_Source\PSoC4/comm_RS485_UART_UART.c **** 
 253:.\Generated_Source\PSoC4/comm_RS485_UART_UART.c ****         /* Configure interrupt with UART handler but do not enable it */
 254:.\Generated_Source\PSoC4/comm_RS485_UART_UART.c ****     #if(comm_RS485_UART_SCB_IRQ_INTERNAL)
 255:.\Generated_Source\PSoC4/comm_RS485_UART_UART.c ****         CyIntDisable    (comm_RS485_UART_ISR_NUMBER);
  52              		.loc 1 255 0
  53 001a 0A20     		mov	r0, #10
 240:.\Generated_Source\PSoC4/comm_RS485_UART_UART.c ****         comm_RS485_UART_RX_CTRL_REG      = comm_RS485_UART_UART_DEFAULT_RX_CTRL;
  54              		.loc 1 240 0
  55 001c 1360     		str	r3, [r2]
 241:.\Generated_Source\PSoC4/comm_RS485_UART_UART.c ****         comm_RS485_UART_RX_FIFO_CTRL_REG = comm_RS485_UART_UART_DEFAULT_RX_FIFO_CTRL;
  56              		.loc 1 241 0
  57 001e 1A4A     		ldr	r2, .L2+28
 256:.\Generated_Source\PSoC4/comm_RS485_UART_UART.c ****         CyIntSetPriority(comm_RS485_UART_ISR_NUMBER, comm_RS485_UART_ISR_PRIORITY);
 257:.\Generated_Source\PSoC4/comm_RS485_UART_UART.c ****         (void) CyIntSetVector(comm_RS485_UART_ISR_NUMBER, &comm_RS485_UART_SPI_UART_ISR);
 258:.\Generated_Source\PSoC4/comm_RS485_UART_UART.c ****     #endif /* (comm_RS485_UART_SCB_IRQ_INTERNAL) */
 259:.\Generated_Source\PSoC4/comm_RS485_UART_UART.c **** 
 260:.\Generated_Source\PSoC4/comm_RS485_UART_UART.c ****         /* Configure WAKE interrupt */
 261:.\Generated_Source\PSoC4/comm_RS485_UART_UART.c ****     #if(comm_RS485_UART_UART_RX_WAKEUP_IRQ)
 262:.\Generated_Source\PSoC4/comm_RS485_UART_UART.c ****         CyIntDisable    (comm_RS485_UART_RX_WAKE_ISR_NUMBER);
 263:.\Generated_Source\PSoC4/comm_RS485_UART_UART.c ****         CyIntSetPriority(comm_RS485_UART_RX_WAKE_ISR_NUMBER, comm_RS485_UART_RX_WAKE_ISR_PRIORITY);
 264:.\Generated_Source\PSoC4/comm_RS485_UART_UART.c ****         (void) CyIntSetVector(comm_RS485_UART_RX_WAKE_ISR_NUMBER, &comm_RS485_UART_UART_WAKEUP_ISR)
 265:.\Generated_Source\PSoC4/comm_RS485_UART_UART.c ****     #endif /* (comm_RS485_UART_UART_RX_WAKEUP_IRQ) */
 266:.\Generated_Source\PSoC4/comm_RS485_UART_UART.c **** 
 267:.\Generated_Source\PSoC4/comm_RS485_UART_UART.c ****         /* Configure interrupt sources */
 268:.\Generated_Source\PSoC4/comm_RS485_UART_UART.c ****         comm_RS485_UART_INTR_I2C_EC_MASK_REG = comm_RS485_UART_UART_DEFAULT_INTR_I2C_EC_MASK;
 269:.\Generated_Source\PSoC4/comm_RS485_UART_UART.c ****         comm_RS485_UART_INTR_SPI_EC_MASK_REG = comm_RS485_UART_UART_DEFAULT_INTR_SPI_EC_MASK;
 270:.\Generated_Source\PSoC4/comm_RS485_UART_UART.c ****         comm_RS485_UART_INTR_SLAVE_MASK_REG  = comm_RS485_UART_UART_DEFAULT_INTR_SLAVE_MASK;
 271:.\Generated_Source\PSoC4/comm_RS485_UART_UART.c ****         comm_RS485_UART_INTR_MASTER_MASK_REG = comm_RS485_UART_UART_DEFAULT_INTR_MASTER_MASK;
 272:.\Generated_Source\PSoC4/comm_RS485_UART_UART.c ****         comm_RS485_UART_INTR_RX_MASK_REG     = comm_RS485_UART_UART_DEFAULT_INTR_RX_MASK;
 273:.\Generated_Source\PSoC4/comm_RS485_UART_UART.c ****         comm_RS485_UART_INTR_TX_MASK_REG     = comm_RS485_UART_UART_DEFAULT_INTR_TX_MASK;
 274:.\Generated_Source\PSoC4/comm_RS485_UART_UART.c **** 
 275:.\Generated_Source\PSoC4/comm_RS485_UART_UART.c ****     #if(comm_RS485_UART_INTERNAL_RX_SW_BUFFER_CONST)
 276:.\Generated_Source\PSoC4/comm_RS485_UART_UART.c ****         comm_RS485_UART_rxBufferHead     = 0u;
 277:.\Generated_Source\PSoC4/comm_RS485_UART_UART.c ****         comm_RS485_UART_rxBufferTail     = 0u;
 278:.\Generated_Source\PSoC4/comm_RS485_UART_UART.c ****         comm_RS485_UART_rxBufferOverflow = 0u;
 279:.\Generated_Source\PSoC4/comm_RS485_UART_UART.c ****     #endif /* (comm_RS485_UART_INTERNAL_RX_SW_BUFFER_CONST) */
 280:.\Generated_Source\PSoC4/comm_RS485_UART_UART.c **** 
ARM GAS  C:\Users\SDEVAS~1\AppData\Local\Temp\ccmGD0VW.s 			page 7


 281:.\Generated_Source\PSoC4/comm_RS485_UART_UART.c ****     #if(comm_RS485_UART_INTERNAL_TX_SW_BUFFER_CONST)
 282:.\Generated_Source\PSoC4/comm_RS485_UART_UART.c ****         comm_RS485_UART_txBufferHead = 0u;
 283:.\Generated_Source\PSoC4/comm_RS485_UART_UART.c ****         comm_RS485_UART_txBufferTail = 0u;
 284:.\Generated_Source\PSoC4/comm_RS485_UART_UART.c ****     #endif /* (comm_RS485_UART_INTERNAL_TX_SW_BUFFER_CONST) */
 285:.\Generated_Source\PSoC4/comm_RS485_UART_UART.c ****     }
  58              		.loc 1 285 0
  59              		@ sp needed
 241:.\Generated_Source\PSoC4/comm_RS485_UART_UART.c ****         comm_RS485_UART_RX_FIFO_CTRL_REG = comm_RS485_UART_UART_DEFAULT_RX_FIFO_CTRL;
  60              		.loc 1 241 0
  61 0020 1160     		str	r1, [r2]
 242:.\Generated_Source\PSoC4/comm_RS485_UART_UART.c ****         comm_RS485_UART_RX_MATCH_REG     = comm_RS485_UART_UART_DEFAULT_RX_MATCH_REG;
  62              		.loc 1 242 0
  63 0022 1A49     		ldr	r1, .L2+32
  64 0024 1A4A     		ldr	r2, .L2+36
  65 0026 1160     		str	r1, [r2]
 245:.\Generated_Source\PSoC4/comm_RS485_UART_UART.c ****         comm_RS485_UART_UART_TX_CTRL_REG = comm_RS485_UART_UART_DEFAULT_UART_TX_CTRL;
  66              		.loc 1 245 0
  67 0028 1A4A     		ldr	r2, .L2+40
  68 002a 0121     		mov	r1, #1
  69 002c 1160     		str	r1, [r2]
 246:.\Generated_Source\PSoC4/comm_RS485_UART_UART.c ****         comm_RS485_UART_TX_CTRL_REG      = comm_RS485_UART_UART_DEFAULT_TX_CTRL;
  70              		.loc 1 246 0
  71 002e 1A4A     		ldr	r2, .L2+44
  72 0030 1360     		str	r3, [r2]
 247:.\Generated_Source\PSoC4/comm_RS485_UART_UART.c ****         comm_RS485_UART_TX_FIFO_CTRL_REG = comm_RS485_UART_UART_DEFAULT_TX_FIFO_CTRL;
  73              		.loc 1 247 0
  74 0032 1A4B     		ldr	r3, .L2+48
  75 0034 1C60     		str	r4, [r3]
 255:.\Generated_Source\PSoC4/comm_RS485_UART_UART.c ****         CyIntDisable    (comm_RS485_UART_ISR_NUMBER);
  76              		.loc 1 255 0
  77 0036 FFF7FEFF 		bl	CyIntDisable
  78              	.LVL0:
 256:.\Generated_Source\PSoC4/comm_RS485_UART_UART.c ****         CyIntSetPriority(comm_RS485_UART_ISR_NUMBER, comm_RS485_UART_ISR_PRIORITY);
  79              		.loc 1 256 0
  80 003a 0A20     		mov	r0, #10
  81 003c 0321     		mov	r1, #3
  82 003e FFF7FEFF 		bl	CyIntSetPriority
  83              	.LVL1:
 257:.\Generated_Source\PSoC4/comm_RS485_UART_UART.c ****         (void) CyIntSetVector(comm_RS485_UART_ISR_NUMBER, &comm_RS485_UART_SPI_UART_ISR);
  84              		.loc 1 257 0
  85 0042 1749     		ldr	r1, .L2+52
  86 0044 0A20     		mov	r0, #10
  87 0046 FFF7FEFF 		bl	CyIntSetVector
  88              	.LVL2:
 268:.\Generated_Source\PSoC4/comm_RS485_UART_UART.c ****         comm_RS485_UART_INTR_I2C_EC_MASK_REG = comm_RS485_UART_UART_DEFAULT_INTR_I2C_EC_MASK;
  89              		.loc 1 268 0
  90 004a 164B     		ldr	r3, .L2+56
 272:.\Generated_Source\PSoC4/comm_RS485_UART_UART.c ****         comm_RS485_UART_INTR_RX_MASK_REG     = comm_RS485_UART_UART_DEFAULT_INTR_RX_MASK;
  91              		.loc 1 272 0
  92 004c 0422     		mov	r2, #4
 268:.\Generated_Source\PSoC4/comm_RS485_UART_UART.c ****         comm_RS485_UART_INTR_I2C_EC_MASK_REG = comm_RS485_UART_UART_DEFAULT_INTR_I2C_EC_MASK;
  93              		.loc 1 268 0
  94 004e 1C60     		str	r4, [r3]
 269:.\Generated_Source\PSoC4/comm_RS485_UART_UART.c ****         comm_RS485_UART_INTR_SPI_EC_MASK_REG = comm_RS485_UART_UART_DEFAULT_INTR_SPI_EC_MASK;
  95              		.loc 1 269 0
  96 0050 154B     		ldr	r3, .L2+60
  97 0052 1C60     		str	r4, [r3]
ARM GAS  C:\Users\SDEVAS~1\AppData\Local\Temp\ccmGD0VW.s 			page 8


 270:.\Generated_Source\PSoC4/comm_RS485_UART_UART.c ****         comm_RS485_UART_INTR_SLAVE_MASK_REG  = comm_RS485_UART_UART_DEFAULT_INTR_SLAVE_MASK;
  98              		.loc 1 270 0
  99 0054 154B     		ldr	r3, .L2+64
 100 0056 1C60     		str	r4, [r3]
 271:.\Generated_Source\PSoC4/comm_RS485_UART_UART.c ****         comm_RS485_UART_INTR_MASTER_MASK_REG = comm_RS485_UART_UART_DEFAULT_INTR_MASTER_MASK;
 101              		.loc 1 271 0
 102 0058 154B     		ldr	r3, .L2+68
 103 005a 1C60     		str	r4, [r3]
 272:.\Generated_Source\PSoC4/comm_RS485_UART_UART.c ****         comm_RS485_UART_INTR_RX_MASK_REG     = comm_RS485_UART_UART_DEFAULT_INTR_RX_MASK;
 104              		.loc 1 272 0
 105 005c 154B     		ldr	r3, .L2+72
 106 005e 1A60     		str	r2, [r3]
 273:.\Generated_Source\PSoC4/comm_RS485_UART_UART.c ****         comm_RS485_UART_INTR_TX_MASK_REG     = comm_RS485_UART_UART_DEFAULT_INTR_TX_MASK;
 107              		.loc 1 273 0
 108 0060 154B     		ldr	r3, .L2+76
 109 0062 8022     		mov	r2, #128
 110 0064 9200     		lsl	r2, r2, #2
 111 0066 1A60     		str	r2, [r3]
 112              		.loc 1 285 0
 113 0068 10BD     		pop	{r4, pc}
 114              	.L3:
 115 006a C046     		.align	2
 116              	.L2:
 117 006c 0B000102 		.word	33619979
 118 0070 00000640 		.word	1074135040
 119 0074 40000640 		.word	1074135104
 120 0078 01040000 		.word	1025
 121 007c 48000640 		.word	1074135112
 122 0080 08000080 		.word	-2147483640
 123 0084 00030640 		.word	1074135808
 124 0088 04030640 		.word	1074135812
 125 008c 0100FF00 		.word	16711681
 126 0090 10030640 		.word	1074135824
 127 0094 44000640 		.word	1074135108
 128 0098 00020640 		.word	1074135552
 129 009c 04020640 		.word	1074135556
 130 00a0 00000000 		.word	comm_RS485_UART_SPI_UART_ISR
 131 00a4 880E0640 		.word	1074138760
 132 00a8 C80E0640 		.word	1074138824
 133 00ac 480F0640 		.word	1074138952
 134 00b0 080F0640 		.word	1074138888
 135 00b4 C80F0640 		.word	1074139080
 136 00b8 880F0640 		.word	1074139016
 137              		.cfi_endproc
 138              	.LFE0:
 139              		.size	comm_RS485_UART_UartInit, .-comm_RS485_UART_UartInit
 140              		.section	.text.comm_RS485_UART_UartSetRxAddress,"ax",%progbits
 141              		.align	1
 142              		.global	comm_RS485_UART_UartSetRxAddress
 143              		.code	16
 144              		.thumb_func
 145              		.type	comm_RS485_UART_UartSetRxAddress, %function
 146              	comm_RS485_UART_UartSetRxAddress:
 147              	.LFB1:
 286:.\Generated_Source\PSoC4/comm_RS485_UART_UART.c **** #endif /* (comm_RS485_UART_SCB_MODE_UNCONFIG_CONST_CFG) */
 287:.\Generated_Source\PSoC4/comm_RS485_UART_UART.c **** 
 288:.\Generated_Source\PSoC4/comm_RS485_UART_UART.c **** 
ARM GAS  C:\Users\SDEVAS~1\AppData\Local\Temp\ccmGD0VW.s 			page 9


 289:.\Generated_Source\PSoC4/comm_RS485_UART_UART.c **** /*******************************************************************************
 290:.\Generated_Source\PSoC4/comm_RS485_UART_UART.c **** * Function Name: comm_RS485_UART_UartSetRxAddress
 291:.\Generated_Source\PSoC4/comm_RS485_UART_UART.c **** ********************************************************************************
 292:.\Generated_Source\PSoC4/comm_RS485_UART_UART.c **** *
 293:.\Generated_Source\PSoC4/comm_RS485_UART_UART.c **** * Summary:
 294:.\Generated_Source\PSoC4/comm_RS485_UART_UART.c **** *  Sets the hardware detectable receiver address for the UART in the
 295:.\Generated_Source\PSoC4/comm_RS485_UART_UART.c **** *  Multiprocessor mode.
 296:.\Generated_Source\PSoC4/comm_RS485_UART_UART.c **** *
 297:.\Generated_Source\PSoC4/comm_RS485_UART_UART.c **** * Parameters:
 298:.\Generated_Source\PSoC4/comm_RS485_UART_UART.c **** *  address: Address for hardware address detection.
 299:.\Generated_Source\PSoC4/comm_RS485_UART_UART.c **** *
 300:.\Generated_Source\PSoC4/comm_RS485_UART_UART.c **** * Return:
 301:.\Generated_Source\PSoC4/comm_RS485_UART_UART.c **** *  None
 302:.\Generated_Source\PSoC4/comm_RS485_UART_UART.c **** *
 303:.\Generated_Source\PSoC4/comm_RS485_UART_UART.c **** *******************************************************************************/
 304:.\Generated_Source\PSoC4/comm_RS485_UART_UART.c **** void comm_RS485_UART_UartSetRxAddress(uint32 address)
 305:.\Generated_Source\PSoC4/comm_RS485_UART_UART.c **** {
 148              		.loc 1 305 0
 149              		.cfi_startproc
 150              	.LVL3:
 306:.\Generated_Source\PSoC4/comm_RS485_UART_UART.c ****      uint32 matchReg;
 307:.\Generated_Source\PSoC4/comm_RS485_UART_UART.c **** 
 308:.\Generated_Source\PSoC4/comm_RS485_UART_UART.c ****     matchReg = comm_RS485_UART_RX_MATCH_REG;
 151              		.loc 1 308 0
 152 0000 034B     		ldr	r3, .L5
 309:.\Generated_Source\PSoC4/comm_RS485_UART_UART.c **** 
 310:.\Generated_Source\PSoC4/comm_RS485_UART_UART.c ****     matchReg &= ((uint32) ~comm_RS485_UART_RX_MATCH_ADDR_MASK); /* Clear address bits */
 153              		.loc 1 310 0
 154 0002 FF22     		mov	r2, #255
 308:.\Generated_Source\PSoC4/comm_RS485_UART_UART.c ****     matchReg = comm_RS485_UART_RX_MATCH_REG;
 155              		.loc 1 308 0
 156 0004 1968     		ldr	r1, [r3]
 157              	.LVL4:
 311:.\Generated_Source\PSoC4/comm_RS485_UART_UART.c ****     matchReg |= ((uint32)  (address & comm_RS485_UART_RX_MATCH_ADDR_MASK)); /* Set address  */
 312:.\Generated_Source\PSoC4/comm_RS485_UART_UART.c **** 
 313:.\Generated_Source\PSoC4/comm_RS485_UART_UART.c ****     comm_RS485_UART_RX_MATCH_REG = matchReg;
 314:.\Generated_Source\PSoC4/comm_RS485_UART_UART.c **** }
 158              		.loc 1 314 0
 159              		@ sp needed
 310:.\Generated_Source\PSoC4/comm_RS485_UART_UART.c ****     matchReg &= ((uint32) ~comm_RS485_UART_RX_MATCH_ADDR_MASK); /* Clear address bits */
 160              		.loc 1 310 0
 161 0006 9143     		bic	r1, r2
 162              	.LVL5:
 311:.\Generated_Source\PSoC4/comm_RS485_UART_UART.c ****     matchReg |= ((uint32)  (address & comm_RS485_UART_RX_MATCH_ADDR_MASK)); /* Set address  */
 163              		.loc 1 311 0
 164 0008 0240     		and	r2, r0
 165 000a 0A43     		orr	r2, r1
 166              	.LVL6:
 313:.\Generated_Source\PSoC4/comm_RS485_UART_UART.c ****     comm_RS485_UART_RX_MATCH_REG = matchReg;
 167              		.loc 1 313 0
 168 000c 1A60     		str	r2, [r3]
 169              		.loc 1 314 0
 170 000e 7047     		bx	lr
 171              	.L6:
 172              		.align	2
 173              	.L5:
 174 0010 10030640 		.word	1074135824
ARM GAS  C:\Users\SDEVAS~1\AppData\Local\Temp\ccmGD0VW.s 			page 10


 175              		.cfi_endproc
 176              	.LFE1:
 177              		.size	comm_RS485_UART_UartSetRxAddress, .-comm_RS485_UART_UartSetRxAddress
 178              		.section	.text.comm_RS485_UART_UartSetRxAddressMask,"ax",%progbits
 179              		.align	1
 180              		.global	comm_RS485_UART_UartSetRxAddressMask
 181              		.code	16
 182              		.thumb_func
 183              		.type	comm_RS485_UART_UartSetRxAddressMask, %function
 184              	comm_RS485_UART_UartSetRxAddressMask:
 185              	.LFB2:
 315:.\Generated_Source\PSoC4/comm_RS485_UART_UART.c **** 
 316:.\Generated_Source\PSoC4/comm_RS485_UART_UART.c **** 
 317:.\Generated_Source\PSoC4/comm_RS485_UART_UART.c **** /*******************************************************************************
 318:.\Generated_Source\PSoC4/comm_RS485_UART_UART.c **** * Function Name: comm_RS485_UART_UartSetRxAddressMask
 319:.\Generated_Source\PSoC4/comm_RS485_UART_UART.c **** ********************************************************************************
 320:.\Generated_Source\PSoC4/comm_RS485_UART_UART.c **** *
 321:.\Generated_Source\PSoC4/comm_RS485_UART_UART.c **** * Summary:
 322:.\Generated_Source\PSoC4/comm_RS485_UART_UART.c **** *  Sets the hardware address mask for the UART in the Multiprocessor mode.
 323:.\Generated_Source\PSoC4/comm_RS485_UART_UART.c **** *
 324:.\Generated_Source\PSoC4/comm_RS485_UART_UART.c **** * Parameters:
 325:.\Generated_Source\PSoC4/comm_RS485_UART_UART.c **** *  addressMask: Address mask.
 326:.\Generated_Source\PSoC4/comm_RS485_UART_UART.c **** *   0 - address bit does not care while comparison.
 327:.\Generated_Source\PSoC4/comm_RS485_UART_UART.c **** *   1 - address bit is significant while comparison.
 328:.\Generated_Source\PSoC4/comm_RS485_UART_UART.c **** *
 329:.\Generated_Source\PSoC4/comm_RS485_UART_UART.c **** * Return:
 330:.\Generated_Source\PSoC4/comm_RS485_UART_UART.c **** *  None
 331:.\Generated_Source\PSoC4/comm_RS485_UART_UART.c **** *
 332:.\Generated_Source\PSoC4/comm_RS485_UART_UART.c **** *******************************************************************************/
 333:.\Generated_Source\PSoC4/comm_RS485_UART_UART.c **** void comm_RS485_UART_UartSetRxAddressMask(uint32 addressMask)
 334:.\Generated_Source\PSoC4/comm_RS485_UART_UART.c **** {
 186              		.loc 1 334 0
 187              		.cfi_startproc
 188              	.LVL7:
 335:.\Generated_Source\PSoC4/comm_RS485_UART_UART.c ****     uint32 matchReg;
 336:.\Generated_Source\PSoC4/comm_RS485_UART_UART.c **** 
 337:.\Generated_Source\PSoC4/comm_RS485_UART_UART.c ****     matchReg = comm_RS485_UART_RX_MATCH_REG;
 189              		.loc 1 337 0
 190 0000 034B     		ldr	r3, .L8
 338:.\Generated_Source\PSoC4/comm_RS485_UART_UART.c **** 
 339:.\Generated_Source\PSoC4/comm_RS485_UART_UART.c ****     matchReg &= ((uint32) ~comm_RS485_UART_RX_MATCH_MASK_MASK); /* Clear address mask bits */
 191              		.loc 1 339 0
 192 0002 044A     		ldr	r2, .L8+4
 337:.\Generated_Source\PSoC4/comm_RS485_UART_UART.c ****     matchReg = comm_RS485_UART_RX_MATCH_REG;
 193              		.loc 1 337 0
 194 0004 1968     		ldr	r1, [r3]
 195              	.LVL8:
 340:.\Generated_Source\PSoC4/comm_RS485_UART_UART.c ****     matchReg |= ((uint32) (addressMask << comm_RS485_UART_RX_MATCH_MASK_POS));
 196              		.loc 1 340 0
 197 0006 0004     		lsl	r0, r0, #16
 198              	.LVL9:
 339:.\Generated_Source\PSoC4/comm_RS485_UART_UART.c ****     matchReg &= ((uint32) ~comm_RS485_UART_RX_MATCH_MASK_MASK); /* Clear address mask bits */
 199              		.loc 1 339 0
 200 0008 0A40     		and	r2, r1
 201              	.LVL10:
 202              		.loc 1 340 0
 203 000a 1043     		orr	r0, r2
ARM GAS  C:\Users\SDEVAS~1\AppData\Local\Temp\ccmGD0VW.s 			page 11


 204              	.LVL11:
 341:.\Generated_Source\PSoC4/comm_RS485_UART_UART.c **** 
 342:.\Generated_Source\PSoC4/comm_RS485_UART_UART.c ****     comm_RS485_UART_RX_MATCH_REG = matchReg;
 205              		.loc 1 342 0
 206 000c 1860     		str	r0, [r3]
 343:.\Generated_Source\PSoC4/comm_RS485_UART_UART.c **** }
 207              		.loc 1 343 0
 208              		@ sp needed
 209 000e 7047     		bx	lr
 210              	.L9:
 211              		.align	2
 212              	.L8:
 213 0010 10030640 		.word	1074135824
 214 0014 FFFF00FF 		.word	-16711681
 215              		.cfi_endproc
 216              	.LFE2:
 217              		.size	comm_RS485_UART_UartSetRxAddressMask, .-comm_RS485_UART_UartSetRxAddressMask
 218              		.section	.text.comm_RS485_UART_UartGetChar,"ax",%progbits
 219              		.align	1
 220              		.global	comm_RS485_UART_UartGetChar
 221              		.code	16
 222              		.thumb_func
 223              		.type	comm_RS485_UART_UartGetChar, %function
 224              	comm_RS485_UART_UartGetChar:
 225              	.LFB3:
 344:.\Generated_Source\PSoC4/comm_RS485_UART_UART.c **** 
 345:.\Generated_Source\PSoC4/comm_RS485_UART_UART.c **** 
 346:.\Generated_Source\PSoC4/comm_RS485_UART_UART.c **** #if(comm_RS485_UART_UART_RX_DIRECTION)
 347:.\Generated_Source\PSoC4/comm_RS485_UART_UART.c ****     /*******************************************************************************
 348:.\Generated_Source\PSoC4/comm_RS485_UART_UART.c ****     * Function Name: comm_RS485_UART_UartGetChar
 349:.\Generated_Source\PSoC4/comm_RS485_UART_UART.c ****     ********************************************************************************
 350:.\Generated_Source\PSoC4/comm_RS485_UART_UART.c ****     *
 351:.\Generated_Source\PSoC4/comm_RS485_UART_UART.c ****     * Summary:
 352:.\Generated_Source\PSoC4/comm_RS485_UART_UART.c ****     *  Retrieves the next data element from the receive buffer.
 353:.\Generated_Source\PSoC4/comm_RS485_UART_UART.c ****     *  This function is designed for ASCII characters and returns a char
 354:.\Generated_Source\PSoC4/comm_RS485_UART_UART.c ****     *  where 1 to 255 are valid characters and 0 indicates an error occurred or
 355:.\Generated_Source\PSoC4/comm_RS485_UART_UART.c ****     *  no data present.
 356:.\Generated_Source\PSoC4/comm_RS485_UART_UART.c ****     *  - The RX software buffer is disabled: returns the data element
 357:.\Generated_Source\PSoC4/comm_RS485_UART_UART.c ****     *    retrieved from the RX FIFO.
 358:.\Generated_Source\PSoC4/comm_RS485_UART_UART.c ****     *    Undefined data will be returned if the RX FIFO is empty.
 359:.\Generated_Source\PSoC4/comm_RS485_UART_UART.c ****     *  - The RX software buffer is enabled: returns the data element from
 360:.\Generated_Source\PSoC4/comm_RS485_UART_UART.c ****     *    the software receive buffer.
 361:.\Generated_Source\PSoC4/comm_RS485_UART_UART.c ****     *
 362:.\Generated_Source\PSoC4/comm_RS485_UART_UART.c ****     * Parameters:
 363:.\Generated_Source\PSoC4/comm_RS485_UART_UART.c ****     *  None
 364:.\Generated_Source\PSoC4/comm_RS485_UART_UART.c ****     *
 365:.\Generated_Source\PSoC4/comm_RS485_UART_UART.c ****     * Return:
 366:.\Generated_Source\PSoC4/comm_RS485_UART_UART.c ****     *  The next data element from the receive buffer.
 367:.\Generated_Source\PSoC4/comm_RS485_UART_UART.c ****     *  ASCII character values from 1 to 255 are valid.
 368:.\Generated_Source\PSoC4/comm_RS485_UART_UART.c ****     *  A returned zero signifies an error condition or no data available.
 369:.\Generated_Source\PSoC4/comm_RS485_UART_UART.c ****     *
 370:.\Generated_Source\PSoC4/comm_RS485_UART_UART.c ****     * Side Effects:
 371:.\Generated_Source\PSoC4/comm_RS485_UART_UART.c ****     *  The errors bits may not correspond with reading characters due to RX FIFO
 372:.\Generated_Source\PSoC4/comm_RS485_UART_UART.c ****     *  and software buffer usage.
 373:.\Generated_Source\PSoC4/comm_RS485_UART_UART.c ****     *  RX software buffer is enabled: The internal software buffer overflow
 374:.\Generated_Source\PSoC4/comm_RS485_UART_UART.c ****     *  does not treat as an error condition.
 375:.\Generated_Source\PSoC4/comm_RS485_UART_UART.c ****     *  Check SCB_rxBufferOverflow to capture that error condition.
ARM GAS  C:\Users\SDEVAS~1\AppData\Local\Temp\ccmGD0VW.s 			page 12


 376:.\Generated_Source\PSoC4/comm_RS485_UART_UART.c ****     *
 377:.\Generated_Source\PSoC4/comm_RS485_UART_UART.c ****     *******************************************************************************/
 378:.\Generated_Source\PSoC4/comm_RS485_UART_UART.c ****     uint32 comm_RS485_UART_UartGetChar(void)
 379:.\Generated_Source\PSoC4/comm_RS485_UART_UART.c ****     {
 226              		.loc 1 379 0
 227              		.cfi_startproc
 228              	.LVL12:
 229 0000 08B5     		push	{r3, lr}
 230              		.cfi_def_cfa_offset 8
 231              		.cfi_offset 3, -8
 232              		.cfi_offset 14, -4
 380:.\Generated_Source\PSoC4/comm_RS485_UART_UART.c ****         uint32 rxData = 0u;
 381:.\Generated_Source\PSoC4/comm_RS485_UART_UART.c **** 
 382:.\Generated_Source\PSoC4/comm_RS485_UART_UART.c ****         /* Reads data only if there is data to read */
 383:.\Generated_Source\PSoC4/comm_RS485_UART_UART.c ****         if(0u != comm_RS485_UART_SpiUartGetRxBufferSize())
 233              		.loc 1 383 0
 234 0002 FFF7FEFF 		bl	comm_RS485_UART_SpiUartGetRxBufferSize
 235              	.LVL13:
 236 0006 031C     		mov	r3, r0
 380:.\Generated_Source\PSoC4/comm_RS485_UART_UART.c ****         uint32 rxData = 0u;
 237              		.loc 1 380 0
 238 0008 0020     		mov	r0, #0
 239              		.loc 1 383 0
 240 000a 8342     		cmp	r3, r0
 241 000c 01D0     		beq	.L11
 384:.\Generated_Source\PSoC4/comm_RS485_UART_UART.c ****         {
 385:.\Generated_Source\PSoC4/comm_RS485_UART_UART.c ****             rxData = comm_RS485_UART_SpiUartReadRxData();
 242              		.loc 1 385 0
 243 000e FFF7FEFF 		bl	comm_RS485_UART_SpiUartReadRxData
 244              	.LVL14:
 245              	.L11:
 386:.\Generated_Source\PSoC4/comm_RS485_UART_UART.c ****         }
 387:.\Generated_Source\PSoC4/comm_RS485_UART_UART.c **** 
 388:.\Generated_Source\PSoC4/comm_RS485_UART_UART.c ****         if(comm_RS485_UART_CHECK_INTR_RX(comm_RS485_UART_INTR_RX_ERR))
 246              		.loc 1 388 0
 247 0012 044B     		ldr	r3, .L19
 248 0014 D822     		mov	r2, #216
 249 0016 1968     		ldr	r1, [r3]
 250 0018 9200     		lsl	r2, r2, #2
 251 001a 1142     		tst	r1, r2
 252 001c 01D0     		beq	.L12
 253              	.LVL15:
 389:.\Generated_Source\PSoC4/comm_RS485_UART_UART.c ****         {
 390:.\Generated_Source\PSoC4/comm_RS485_UART_UART.c ****             rxData = 0u; /* Error occurred: returns zero */
 391:.\Generated_Source\PSoC4/comm_RS485_UART_UART.c ****             comm_RS485_UART_ClearRxInterruptSource(comm_RS485_UART_INTR_RX_ERR);
 254              		.loc 1 391 0
 255 001e 1A60     		str	r2, [r3]
 390:.\Generated_Source\PSoC4/comm_RS485_UART_UART.c ****             rxData = 0u; /* Error occurred: returns zero */
 256              		.loc 1 390 0
 257 0020 0020     		mov	r0, #0
 258              	.LVL16:
 259              	.L12:
 392:.\Generated_Source\PSoC4/comm_RS485_UART_UART.c ****         }
 393:.\Generated_Source\PSoC4/comm_RS485_UART_UART.c **** 
 394:.\Generated_Source\PSoC4/comm_RS485_UART_UART.c ****         return(rxData);
 395:.\Generated_Source\PSoC4/comm_RS485_UART_UART.c ****     }
 260              		.loc 1 395 0
ARM GAS  C:\Users\SDEVAS~1\AppData\Local\Temp\ccmGD0VW.s 			page 13


 261              		@ sp needed
 262 0022 08BD     		pop	{r3, pc}
 263              	.L20:
 264              		.align	2
 265              	.L19:
 266 0024 C00F0640 		.word	1074139072
 267              		.cfi_endproc
 268              	.LFE3:
 269              		.size	comm_RS485_UART_UartGetChar, .-comm_RS485_UART_UartGetChar
 270              		.section	.text.comm_RS485_UART_UartGetByte,"ax",%progbits
 271              		.align	1
 272              		.global	comm_RS485_UART_UartGetByte
 273              		.code	16
 274              		.thumb_func
 275              		.type	comm_RS485_UART_UartGetByte, %function
 276              	comm_RS485_UART_UartGetByte:
 277              	.LFB4:
 396:.\Generated_Source\PSoC4/comm_RS485_UART_UART.c **** 
 397:.\Generated_Source\PSoC4/comm_RS485_UART_UART.c **** 
 398:.\Generated_Source\PSoC4/comm_RS485_UART_UART.c ****     /*******************************************************************************
 399:.\Generated_Source\PSoC4/comm_RS485_UART_UART.c ****     * Function Name: comm_RS485_UART_UartGetByte
 400:.\Generated_Source\PSoC4/comm_RS485_UART_UART.c ****     ********************************************************************************
 401:.\Generated_Source\PSoC4/comm_RS485_UART_UART.c ****     *
 402:.\Generated_Source\PSoC4/comm_RS485_UART_UART.c ****     * Summary:
 403:.\Generated_Source\PSoC4/comm_RS485_UART_UART.c ****     *  Retrieves the next data element from the receive buffer, returns the
 404:.\Generated_Source\PSoC4/comm_RS485_UART_UART.c ****     *  received byte and error condition.
 405:.\Generated_Source\PSoC4/comm_RS485_UART_UART.c ****     *   - The RX software buffer is disabled: returns the data element retrieved
 406:.\Generated_Source\PSoC4/comm_RS485_UART_UART.c ****     *     from the RX FIFO. Undefined data will be returned if the RX FIFO is
 407:.\Generated_Source\PSoC4/comm_RS485_UART_UART.c ****     *     empty.
 408:.\Generated_Source\PSoC4/comm_RS485_UART_UART.c ****     *   - The RX software buffer is enabled: returns data element from the
 409:.\Generated_Source\PSoC4/comm_RS485_UART_UART.c ****     *     software receive buffer.
 410:.\Generated_Source\PSoC4/comm_RS485_UART_UART.c ****     *
 411:.\Generated_Source\PSoC4/comm_RS485_UART_UART.c ****     * Parameters:
 412:.\Generated_Source\PSoC4/comm_RS485_UART_UART.c ****     *  None
 413:.\Generated_Source\PSoC4/comm_RS485_UART_UART.c ****     *
 414:.\Generated_Source\PSoC4/comm_RS485_UART_UART.c ****     * Return:
 415:.\Generated_Source\PSoC4/comm_RS485_UART_UART.c ****     *  Bits 7-0 contain the next data element from the receive buffer and
 416:.\Generated_Source\PSoC4/comm_RS485_UART_UART.c ****     *  other bits contain the error condition.
 417:.\Generated_Source\PSoC4/comm_RS485_UART_UART.c ****     *
 418:.\Generated_Source\PSoC4/comm_RS485_UART_UART.c ****     * Side Effects:
 419:.\Generated_Source\PSoC4/comm_RS485_UART_UART.c ****     *  The errors bits may not correspond with reading characters due to RX FIFO
 420:.\Generated_Source\PSoC4/comm_RS485_UART_UART.c ****     *  and software buffer usage.
 421:.\Generated_Source\PSoC4/comm_RS485_UART_UART.c ****     *  RX software buffer is disabled: The internal software buffer overflow
 422:.\Generated_Source\PSoC4/comm_RS485_UART_UART.c ****     *  is not returned as status by this function.
 423:.\Generated_Source\PSoC4/comm_RS485_UART_UART.c ****     *  Check SCB_rxBufferOverflow to capture that error condition.
 424:.\Generated_Source\PSoC4/comm_RS485_UART_UART.c ****     *
 425:.\Generated_Source\PSoC4/comm_RS485_UART_UART.c ****     *******************************************************************************/
 426:.\Generated_Source\PSoC4/comm_RS485_UART_UART.c ****     uint32 comm_RS485_UART_UartGetByte(void)
 427:.\Generated_Source\PSoC4/comm_RS485_UART_UART.c ****     {
 278              		.loc 1 427 0
 279              		.cfi_startproc
 280 0000 10B5     		push	{r4, lr}
 281              		.cfi_def_cfa_offset 8
 282              		.cfi_offset 4, -8
 283              		.cfi_offset 14, -4
 428:.\Generated_Source\PSoC4/comm_RS485_UART_UART.c ****         uint32 rxData;
 429:.\Generated_Source\PSoC4/comm_RS485_UART_UART.c ****         uint32 tmpStatus;
ARM GAS  C:\Users\SDEVAS~1\AppData\Local\Temp\ccmGD0VW.s 			page 14


 430:.\Generated_Source\PSoC4/comm_RS485_UART_UART.c ****         uint32 intSourceMask;
 431:.\Generated_Source\PSoC4/comm_RS485_UART_UART.c **** 
 432:.\Generated_Source\PSoC4/comm_RS485_UART_UART.c ****         intSourceMask = comm_RS485_UART_SpiUartDisableIntRx();
 284              		.loc 1 432 0
 285 0002 FFF7FEFF 		bl	comm_RS485_UART_SpiUartDisableIntRx
 286              	.LVL17:
 287 0006 041C     		mov	r4, r0
 288              	.LVL18:
 433:.\Generated_Source\PSoC4/comm_RS485_UART_UART.c **** 
 434:.\Generated_Source\PSoC4/comm_RS485_UART_UART.c ****         if(0u != comm_RS485_UART_SpiUartGetRxBufferSize())
 289              		.loc 1 434 0
 290 0008 FFF7FEFF 		bl	comm_RS485_UART_SpiUartGetRxBufferSize
 291              	.LVL19:
 292 000c 094B     		ldr	r3, .L24
 293 000e 0028     		cmp	r0, #0
 294 0010 03D0     		beq	.L22
 435:.\Generated_Source\PSoC4/comm_RS485_UART_UART.c ****         {
 436:.\Generated_Source\PSoC4/comm_RS485_UART_UART.c ****             /* Enables interrupt to receive more bytes: at least one byte is in
 437:.\Generated_Source\PSoC4/comm_RS485_UART_UART.c ****             * buffer.
 438:.\Generated_Source\PSoC4/comm_RS485_UART_UART.c ****             */
 439:.\Generated_Source\PSoC4/comm_RS485_UART_UART.c ****             comm_RS485_UART_SpiUartEnableIntRx(intSourceMask);
 295              		.loc 1 439 0
 296 0012 1C60     		str	r4, [r3]
 440:.\Generated_Source\PSoC4/comm_RS485_UART_UART.c **** 
 441:.\Generated_Source\PSoC4/comm_RS485_UART_UART.c ****             /* Get received byte */
 442:.\Generated_Source\PSoC4/comm_RS485_UART_UART.c ****             rxData = comm_RS485_UART_SpiUartReadRxData();
 297              		.loc 1 442 0
 298 0014 FFF7FEFF 		bl	comm_RS485_UART_SpiUartReadRxData
 299              	.LVL20:
 300 0018 02E0     		b	.L23
 301              	.LVL21:
 302              	.L22:
 443:.\Generated_Source\PSoC4/comm_RS485_UART_UART.c ****         }
 444:.\Generated_Source\PSoC4/comm_RS485_UART_UART.c ****         else
 445:.\Generated_Source\PSoC4/comm_RS485_UART_UART.c ****         {
 446:.\Generated_Source\PSoC4/comm_RS485_UART_UART.c ****             /* Reads a byte directly from RX FIFO: underflow is raised in the case
 447:.\Generated_Source\PSoC4/comm_RS485_UART_UART.c ****             * of empty. Otherwise the first received byte will be read.
 448:.\Generated_Source\PSoC4/comm_RS485_UART_UART.c ****             */
 449:.\Generated_Source\PSoC4/comm_RS485_UART_UART.c ****             rxData = comm_RS485_UART_RX_FIFO_RD_REG;
 303              		.loc 1 449 0
 304 001a 074A     		ldr	r2, .L24+4
 305 001c 1068     		ldr	r0, [r2]
 306              	.LVL22:
 450:.\Generated_Source\PSoC4/comm_RS485_UART_UART.c **** 
 451:.\Generated_Source\PSoC4/comm_RS485_UART_UART.c ****             /* Enables interrupt to receive more bytes.
 452:.\Generated_Source\PSoC4/comm_RS485_UART_UART.c ****             * The RX_NOT_EMPTY interrupt is cleared by the interrupt routine
 453:.\Generated_Source\PSoC4/comm_RS485_UART_UART.c ****             * in case the byte was received and read by code above.
 454:.\Generated_Source\PSoC4/comm_RS485_UART_UART.c ****             */
 455:.\Generated_Source\PSoC4/comm_RS485_UART_UART.c ****             comm_RS485_UART_SpiUartEnableIntRx(intSourceMask);
 307              		.loc 1 455 0
 308 001e 1C60     		str	r4, [r3]
 309              	.L23:
 456:.\Generated_Source\PSoC4/comm_RS485_UART_UART.c ****         }
 457:.\Generated_Source\PSoC4/comm_RS485_UART_UART.c **** 
 458:.\Generated_Source\PSoC4/comm_RS485_UART_UART.c ****         /* Get and clear RX error mask */
 459:.\Generated_Source\PSoC4/comm_RS485_UART_UART.c ****         tmpStatus = (comm_RS485_UART_GetRxInterruptSource() & comm_RS485_UART_INTR_RX_ERR);
 310              		.loc 1 459 0
ARM GAS  C:\Users\SDEVAS~1\AppData\Local\Temp\ccmGD0VW.s 			page 15


 311 0020 064A     		ldr	r2, .L24+8
 460:.\Generated_Source\PSoC4/comm_RS485_UART_UART.c ****         comm_RS485_UART_ClearRxInterruptSource(comm_RS485_UART_INTR_RX_ERR);
 312              		.loc 1 460 0
 313 0022 D823     		mov	r3, #216
 459:.\Generated_Source\PSoC4/comm_RS485_UART_UART.c ****         tmpStatus = (comm_RS485_UART_GetRxInterruptSource() & comm_RS485_UART_INTR_RX_ERR);
 314              		.loc 1 459 0
 315 0024 1168     		ldr	r1, [r2]
 316              	.LVL23:
 317              		.loc 1 460 0
 318 0026 9B00     		lsl	r3, r3, #2
 319 0028 1360     		str	r3, [r2]
 320              	.LVL24:
 459:.\Generated_Source\PSoC4/comm_RS485_UART_UART.c ****         tmpStatus = (comm_RS485_UART_GetRxInterruptSource() & comm_RS485_UART_INTR_RX_ERR);
 321              		.loc 1 459 0
 322 002a 0B40     		and	r3, r1
 461:.\Generated_Source\PSoC4/comm_RS485_UART_UART.c **** 
 462:.\Generated_Source\PSoC4/comm_RS485_UART_UART.c ****         /* Puts together data and error status:
 463:.\Generated_Source\PSoC4/comm_RS485_UART_UART.c ****         * MP mode and accept address: 9th bit is set to notify mark.
 464:.\Generated_Source\PSoC4/comm_RS485_UART_UART.c ****         */
 465:.\Generated_Source\PSoC4/comm_RS485_UART_UART.c ****         rxData |= ((uint32) (tmpStatus << 8u));
 323              		.loc 1 465 0
 324 002c 1B02     		lsl	r3, r3, #8
 325 002e 1843     		orr	r0, r3
 326              	.LVL25:
 466:.\Generated_Source\PSoC4/comm_RS485_UART_UART.c **** 
 467:.\Generated_Source\PSoC4/comm_RS485_UART_UART.c ****         return(rxData);
 468:.\Generated_Source\PSoC4/comm_RS485_UART_UART.c ****     }
 327              		.loc 1 468 0
 328              		@ sp needed
 329              	.LVL26:
 330 0030 10BD     		pop	{r4, pc}
 331              	.L25:
 332 0032 C046     		.align	2
 333              	.L24:
 334 0034 C80F0640 		.word	1074139080
 335 0038 40030640 		.word	1074135872
 336 003c C00F0640 		.word	1074139072
 337              		.cfi_endproc
 338              	.LFE4:
 339              		.size	comm_RS485_UART_UartGetByte, .-comm_RS485_UART_UartGetByte
 340              		.section	.text.comm_RS485_UART_UartPutString,"ax",%progbits
 341              		.align	1
 342              		.global	comm_RS485_UART_UartPutString
 343              		.code	16
 344              		.thumb_func
 345              		.type	comm_RS485_UART_UartPutString, %function
 346              	comm_RS485_UART_UartPutString:
 347              	.LFB5:
 469:.\Generated_Source\PSoC4/comm_RS485_UART_UART.c **** 
 470:.\Generated_Source\PSoC4/comm_RS485_UART_UART.c **** 
 471:.\Generated_Source\PSoC4/comm_RS485_UART_UART.c ****     #if !(comm_RS485_UART_CY_SCBIP_V0 || comm_RS485_UART_CY_SCBIP_V1)
 472:.\Generated_Source\PSoC4/comm_RS485_UART_UART.c ****         /*******************************************************************************
 473:.\Generated_Source\PSoC4/comm_RS485_UART_UART.c ****         * Function Name: comm_RS485_UART_UartSetRtsPolarity
 474:.\Generated_Source\PSoC4/comm_RS485_UART_UART.c ****         ********************************************************************************
 475:.\Generated_Source\PSoC4/comm_RS485_UART_UART.c ****         *
 476:.\Generated_Source\PSoC4/comm_RS485_UART_UART.c ****         * Summary:
 477:.\Generated_Source\PSoC4/comm_RS485_UART_UART.c ****         *  Sets active polarity of RTS output signal.
ARM GAS  C:\Users\SDEVAS~1\AppData\Local\Temp\ccmGD0VW.s 			page 16


 478:.\Generated_Source\PSoC4/comm_RS485_UART_UART.c ****         *
 479:.\Generated_Source\PSoC4/comm_RS485_UART_UART.c ****         * Parameters:
 480:.\Generated_Source\PSoC4/comm_RS485_UART_UART.c ****         *  polarity: Active polarity of RTS output signal.
 481:.\Generated_Source\PSoC4/comm_RS485_UART_UART.c ****         *   comm_RS485_UART_UART_RTS_ACTIVE_LOW  - RTS signal is active low.
 482:.\Generated_Source\PSoC4/comm_RS485_UART_UART.c ****         *   comm_RS485_UART_UART_RTS_ACTIVE_HIGH - RTS signal is active high.
 483:.\Generated_Source\PSoC4/comm_RS485_UART_UART.c ****         *
 484:.\Generated_Source\PSoC4/comm_RS485_UART_UART.c ****         * Return:
 485:.\Generated_Source\PSoC4/comm_RS485_UART_UART.c ****         *  None
 486:.\Generated_Source\PSoC4/comm_RS485_UART_UART.c ****         *
 487:.\Generated_Source\PSoC4/comm_RS485_UART_UART.c ****         *******************************************************************************/
 488:.\Generated_Source\PSoC4/comm_RS485_UART_UART.c ****         void comm_RS485_UART_UartSetRtsPolarity(uint32 polarity)
 489:.\Generated_Source\PSoC4/comm_RS485_UART_UART.c ****         {
 490:.\Generated_Source\PSoC4/comm_RS485_UART_UART.c ****             if(0u != polarity)
 491:.\Generated_Source\PSoC4/comm_RS485_UART_UART.c ****             {
 492:.\Generated_Source\PSoC4/comm_RS485_UART_UART.c ****                 comm_RS485_UART_UART_FLOW_CTRL_REG |= (uint32)  comm_RS485_UART_UART_FLOW_CTRL_RTS_
 493:.\Generated_Source\PSoC4/comm_RS485_UART_UART.c ****             }
 494:.\Generated_Source\PSoC4/comm_RS485_UART_UART.c ****             else
 495:.\Generated_Source\PSoC4/comm_RS485_UART_UART.c ****             {
 496:.\Generated_Source\PSoC4/comm_RS485_UART_UART.c ****                 comm_RS485_UART_UART_FLOW_CTRL_REG &= (uint32) ~comm_RS485_UART_UART_FLOW_CTRL_RTS_
 497:.\Generated_Source\PSoC4/comm_RS485_UART_UART.c ****             }
 498:.\Generated_Source\PSoC4/comm_RS485_UART_UART.c ****         }
 499:.\Generated_Source\PSoC4/comm_RS485_UART_UART.c **** 
 500:.\Generated_Source\PSoC4/comm_RS485_UART_UART.c **** 
 501:.\Generated_Source\PSoC4/comm_RS485_UART_UART.c ****         /*******************************************************************************
 502:.\Generated_Source\PSoC4/comm_RS485_UART_UART.c ****         * Function Name: comm_RS485_UART_UartSetRtsFifoLevel
 503:.\Generated_Source\PSoC4/comm_RS485_UART_UART.c ****         ********************************************************************************
 504:.\Generated_Source\PSoC4/comm_RS485_UART_UART.c ****         *
 505:.\Generated_Source\PSoC4/comm_RS485_UART_UART.c ****         * Summary:
 506:.\Generated_Source\PSoC4/comm_RS485_UART_UART.c ****         *  Sets level in the RX FIFO for RTS signal activation.
 507:.\Generated_Source\PSoC4/comm_RS485_UART_UART.c ****         *  While the RX FIFO has fewer entries than the RX FIFO level the RTS signal
 508:.\Generated_Source\PSoC4/comm_RS485_UART_UART.c ****         *  remains active, otherwise the RTS signal becomes inactive.
 509:.\Generated_Source\PSoC4/comm_RS485_UART_UART.c ****         *
 510:.\Generated_Source\PSoC4/comm_RS485_UART_UART.c ****         * Parameters:
 511:.\Generated_Source\PSoC4/comm_RS485_UART_UART.c ****         *  level: Level in the RX FIFO for RTS signal activation.
 512:.\Generated_Source\PSoC4/comm_RS485_UART_UART.c ****         *         The range of valid level values is between 0 and RX FIFO depth - 1.
 513:.\Generated_Source\PSoC4/comm_RS485_UART_UART.c ****         *         Setting level value to 0 disables RTS signal activation.
 514:.\Generated_Source\PSoC4/comm_RS485_UART_UART.c ****         *
 515:.\Generated_Source\PSoC4/comm_RS485_UART_UART.c ****         * Return:
 516:.\Generated_Source\PSoC4/comm_RS485_UART_UART.c ****         *  None
 517:.\Generated_Source\PSoC4/comm_RS485_UART_UART.c ****         *
 518:.\Generated_Source\PSoC4/comm_RS485_UART_UART.c ****         *******************************************************************************/
 519:.\Generated_Source\PSoC4/comm_RS485_UART_UART.c ****         void comm_RS485_UART_UartSetRtsFifoLevel(uint32 level)
 520:.\Generated_Source\PSoC4/comm_RS485_UART_UART.c ****         {
 521:.\Generated_Source\PSoC4/comm_RS485_UART_UART.c ****             uint32 uartFlowCtrl;
 522:.\Generated_Source\PSoC4/comm_RS485_UART_UART.c **** 
 523:.\Generated_Source\PSoC4/comm_RS485_UART_UART.c ****             uartFlowCtrl = comm_RS485_UART_UART_FLOW_CTRL_REG;
 524:.\Generated_Source\PSoC4/comm_RS485_UART_UART.c **** 
 525:.\Generated_Source\PSoC4/comm_RS485_UART_UART.c ****             uartFlowCtrl &= ((uint32) ~comm_RS485_UART_UART_FLOW_CTRL_TRIGGER_LEVEL_MASK); /* Clear
 526:.\Generated_Source\PSoC4/comm_RS485_UART_UART.c ****             uartFlowCtrl |= ((uint32) (comm_RS485_UART_UART_FLOW_CTRL_TRIGGER_LEVEL_MASK & level));
 527:.\Generated_Source\PSoC4/comm_RS485_UART_UART.c **** 
 528:.\Generated_Source\PSoC4/comm_RS485_UART_UART.c ****             comm_RS485_UART_UART_FLOW_CTRL_REG = uartFlowCtrl;
 529:.\Generated_Source\PSoC4/comm_RS485_UART_UART.c ****         }
 530:.\Generated_Source\PSoC4/comm_RS485_UART_UART.c ****     #endif /* !(comm_RS485_UART_CY_SCBIP_V0 || comm_RS485_UART_CY_SCBIP_V1) */
 531:.\Generated_Source\PSoC4/comm_RS485_UART_UART.c **** 
 532:.\Generated_Source\PSoC4/comm_RS485_UART_UART.c **** #endif /* (comm_RS485_UART_UART_RX_DIRECTION) */
 533:.\Generated_Source\PSoC4/comm_RS485_UART_UART.c **** 
 534:.\Generated_Source\PSoC4/comm_RS485_UART_UART.c **** 
ARM GAS  C:\Users\SDEVAS~1\AppData\Local\Temp\ccmGD0VW.s 			page 17


 535:.\Generated_Source\PSoC4/comm_RS485_UART_UART.c **** #if(comm_RS485_UART_UART_TX_DIRECTION)
 536:.\Generated_Source\PSoC4/comm_RS485_UART_UART.c ****     /*******************************************************************************
 537:.\Generated_Source\PSoC4/comm_RS485_UART_UART.c ****     * Function Name: comm_RS485_UART_UartPutString
 538:.\Generated_Source\PSoC4/comm_RS485_UART_UART.c ****     ********************************************************************************
 539:.\Generated_Source\PSoC4/comm_RS485_UART_UART.c ****     *
 540:.\Generated_Source\PSoC4/comm_RS485_UART_UART.c ****     * Summary:
 541:.\Generated_Source\PSoC4/comm_RS485_UART_UART.c ****     *  Places a NULL terminated string in the transmit buffer to be sent at the
 542:.\Generated_Source\PSoC4/comm_RS485_UART_UART.c ****     *  next available bus time.
 543:.\Generated_Source\PSoC4/comm_RS485_UART_UART.c ****     *  This function is blocking and waits until there is space available to put
 544:.\Generated_Source\PSoC4/comm_RS485_UART_UART.c ****     *  all the requested data into the  transmit buffer.
 545:.\Generated_Source\PSoC4/comm_RS485_UART_UART.c ****     *
 546:.\Generated_Source\PSoC4/comm_RS485_UART_UART.c ****     * Parameters:
 547:.\Generated_Source\PSoC4/comm_RS485_UART_UART.c ****     *  string: pointer to the null terminated string array to be placed in the
 548:.\Generated_Source\PSoC4/comm_RS485_UART_UART.c ****     *          transmit buffer.
 549:.\Generated_Source\PSoC4/comm_RS485_UART_UART.c ****     *
 550:.\Generated_Source\PSoC4/comm_RS485_UART_UART.c ****     * Return:
 551:.\Generated_Source\PSoC4/comm_RS485_UART_UART.c ****     *  None
 552:.\Generated_Source\PSoC4/comm_RS485_UART_UART.c ****     *
 553:.\Generated_Source\PSoC4/comm_RS485_UART_UART.c ****     *******************************************************************************/
 554:.\Generated_Source\PSoC4/comm_RS485_UART_UART.c ****     void comm_RS485_UART_UartPutString(const char8 string[])
 555:.\Generated_Source\PSoC4/comm_RS485_UART_UART.c ****     {
 348              		.loc 1 555 0
 349              		.cfi_startproc
 350              	.LVL27:
 351 0000 10B5     		push	{r4, lr}
 352              		.cfi_def_cfa_offset 8
 353              		.cfi_offset 4, -8
 354              		.cfi_offset 14, -4
 355 0002 041C     		mov	r4, r0
 356              	.LVL28:
 357              	.L27:
 358 0004 0134     		add	r4, r4, #1
 359              	.LVL29:
 360 0006 631E     		sub	r3, r4, #1
 556:.\Generated_Source\PSoC4/comm_RS485_UART_UART.c ****         uint32 bufIndex;
 557:.\Generated_Source\PSoC4/comm_RS485_UART_UART.c **** 
 558:.\Generated_Source\PSoC4/comm_RS485_UART_UART.c ****         bufIndex = 0u;
 559:.\Generated_Source\PSoC4/comm_RS485_UART_UART.c **** 
 560:.\Generated_Source\PSoC4/comm_RS485_UART_UART.c ****         /* Blocks the control flow until all data has been sent */
 561:.\Generated_Source\PSoC4/comm_RS485_UART_UART.c ****         while(string[bufIndex] != ((char8) 0))
 361              		.loc 1 561 0 discriminator 1
 362 0008 1878     		ldrb	r0, [r3]
 363 000a 0028     		cmp	r0, #0
 364 000c 02D0     		beq	.L29
 562:.\Generated_Source\PSoC4/comm_RS485_UART_UART.c ****         {
 563:.\Generated_Source\PSoC4/comm_RS485_UART_UART.c ****             comm_RS485_UART_UartPutChar((uint32) string[bufIndex]);
 365              		.loc 1 563 0
 366 000e FFF7FEFF 		bl	comm_RS485_UART_SpiUartWriteTxData
 367              	.LVL30:
 368 0012 F7E7     		b	.L27
 369              	.LVL31:
 370              	.L29:
 564:.\Generated_Source\PSoC4/comm_RS485_UART_UART.c ****             bufIndex++;
 565:.\Generated_Source\PSoC4/comm_RS485_UART_UART.c ****         }
 566:.\Generated_Source\PSoC4/comm_RS485_UART_UART.c ****     }
 371              		.loc 1 566 0
 372              		@ sp needed
ARM GAS  C:\Users\SDEVAS~1\AppData\Local\Temp\ccmGD0VW.s 			page 18


 373              	.LVL32:
 374 0014 10BD     		pop	{r4, pc}
 375              		.cfi_endproc
 376              	.LFE5:
 377              		.size	comm_RS485_UART_UartPutString, .-comm_RS485_UART_UartPutString
 378              		.section	.text.comm_RS485_UART_UartPutCRLF,"ax",%progbits
 379              		.align	1
 380              		.global	comm_RS485_UART_UartPutCRLF
 381              		.code	16
 382              		.thumb_func
 383              		.type	comm_RS485_UART_UartPutCRLF, %function
 384              	comm_RS485_UART_UartPutCRLF:
 385              	.LFB6:
 567:.\Generated_Source\PSoC4/comm_RS485_UART_UART.c **** 
 568:.\Generated_Source\PSoC4/comm_RS485_UART_UART.c **** 
 569:.\Generated_Source\PSoC4/comm_RS485_UART_UART.c ****     /*******************************************************************************
 570:.\Generated_Source\PSoC4/comm_RS485_UART_UART.c ****     * Function Name: comm_RS485_UART_UartPutCRLF
 571:.\Generated_Source\PSoC4/comm_RS485_UART_UART.c ****     ********************************************************************************
 572:.\Generated_Source\PSoC4/comm_RS485_UART_UART.c ****     *
 573:.\Generated_Source\PSoC4/comm_RS485_UART_UART.c ****     * Summary:
 574:.\Generated_Source\PSoC4/comm_RS485_UART_UART.c ****     *  Places a byte of data followed by a carriage return (0x0D) and
 575:.\Generated_Source\PSoC4/comm_RS485_UART_UART.c ****     *  line feed (0x0A) into the transmit buffer.
 576:.\Generated_Source\PSoC4/comm_RS485_UART_UART.c ****     *  This function is blocking and waits until there is space available to put
 577:.\Generated_Source\PSoC4/comm_RS485_UART_UART.c ****     *  all the requested data into the  transmit buffer.
 578:.\Generated_Source\PSoC4/comm_RS485_UART_UART.c ****     *
 579:.\Generated_Source\PSoC4/comm_RS485_UART_UART.c ****     * Parameters:
 580:.\Generated_Source\PSoC4/comm_RS485_UART_UART.c ****     *  txDataByte : the data to be transmitted.
 581:.\Generated_Source\PSoC4/comm_RS485_UART_UART.c ****     *
 582:.\Generated_Source\PSoC4/comm_RS485_UART_UART.c ****     * Return:
 583:.\Generated_Source\PSoC4/comm_RS485_UART_UART.c ****     *  None
 584:.\Generated_Source\PSoC4/comm_RS485_UART_UART.c ****     *
 585:.\Generated_Source\PSoC4/comm_RS485_UART_UART.c ****     *******************************************************************************/
 586:.\Generated_Source\PSoC4/comm_RS485_UART_UART.c ****     void comm_RS485_UART_UartPutCRLF(uint32 txDataByte)
 587:.\Generated_Source\PSoC4/comm_RS485_UART_UART.c ****     {
 386              		.loc 1 587 0
 387              		.cfi_startproc
 388              	.LVL33:
 389 0000 08B5     		push	{r3, lr}
 390              		.cfi_def_cfa_offset 8
 391              		.cfi_offset 3, -8
 392              		.cfi_offset 14, -4
 588:.\Generated_Source\PSoC4/comm_RS485_UART_UART.c ****         comm_RS485_UART_UartPutChar(txDataByte);  /* Blocks control flow until all data has been se
 393              		.loc 1 588 0
 394 0002 FFF7FEFF 		bl	comm_RS485_UART_SpiUartWriteTxData
 395              	.LVL34:
 589:.\Generated_Source\PSoC4/comm_RS485_UART_UART.c ****         comm_RS485_UART_UartPutChar(0x0Du);       /* Blocks control flow until all data has been se
 396              		.loc 1 589 0
 397 0006 0D20     		mov	r0, #13
 398 0008 FFF7FEFF 		bl	comm_RS485_UART_SpiUartWriteTxData
 399              	.LVL35:
 590:.\Generated_Source\PSoC4/comm_RS485_UART_UART.c ****         comm_RS485_UART_UartPutChar(0x0Au);       /* Blocks control flow until all data has been se
 400              		.loc 1 590 0
 401 000c 0A20     		mov	r0, #10
 402 000e FFF7FEFF 		bl	comm_RS485_UART_SpiUartWriteTxData
 403              	.LVL36:
 591:.\Generated_Source\PSoC4/comm_RS485_UART_UART.c ****     }
 404              		.loc 1 591 0
ARM GAS  C:\Users\SDEVAS~1\AppData\Local\Temp\ccmGD0VW.s 			page 19


 405              		@ sp needed
 406 0012 08BD     		pop	{r3, pc}
 407              		.cfi_endproc
 408              	.LFE6:
 409              		.size	comm_RS485_UART_UartPutCRLF, .-comm_RS485_UART_UartPutCRLF
 410              		.text
 411              	.Letext0:
 412              		.file 2 "Generated_Source\\PSoC4/cytypes.h"
 413              		.file 3 "Generated_Source\\PSoC4/CyLib.h"
 414              		.file 4 ".\\Generated_Source\\PSoC4\\comm_RS485_UART_SPI_UART.h"
 415              		.file 5 ".\\Generated_Source\\PSoC4\\comm_RS485_UART_SPI_UART_PVT.h"