ARM GAS  C:\Users\SDEVAS~1\AppData\Local\Temp\ccmGsKgx.s 			page 1


   1              		.cpu cortex-m0
   2              		.fpu softvfp
   3              		.eabi_attribute 20, 1
   4              		.eabi_attribute 21, 1
   5              		.eabi_attribute 23, 3
   6              		.eabi_attribute 24, 1
   7              		.eabi_attribute 25, 1
   8              		.eabi_attribute 26, 1
   9              		.eabi_attribute 30, 4
  10              		.eabi_attribute 34, 0
  11              		.eabi_attribute 18, 4
  12              		.code	16
  13              		.file	"comm_RS485_UART.c"
  14              		.text
  15              	.Ltext0:
  16              		.cfi_sections	.debug_frame
  17              		.section	.text.comm_RS485_UART_Init,"ax",%progbits
  18              		.align	1
  19              		.global	comm_RS485_UART_Init
  20              		.code	16
  21              		.thumb_func
  22              		.type	comm_RS485_UART_Init, %function
  23              	comm_RS485_UART_Init:
  24              	.LFB0:
  25              		.file 1 ".\\Generated_Source\\PSoC4\\comm_RS485_UART.c"
   1:.\Generated_Source\PSoC4/comm_RS485_UART.c **** /*******************************************************************************
   2:.\Generated_Source\PSoC4/comm_RS485_UART.c **** * File Name: comm_RS485_UART.c
   3:.\Generated_Source\PSoC4/comm_RS485_UART.c **** * Version 2.0
   4:.\Generated_Source\PSoC4/comm_RS485_UART.c **** *
   5:.\Generated_Source\PSoC4/comm_RS485_UART.c **** * Description:
   6:.\Generated_Source\PSoC4/comm_RS485_UART.c **** *  This file provides the source code to the API for the SCB Component.
   7:.\Generated_Source\PSoC4/comm_RS485_UART.c **** *
   8:.\Generated_Source\PSoC4/comm_RS485_UART.c **** * Note:
   9:.\Generated_Source\PSoC4/comm_RS485_UART.c **** *
  10:.\Generated_Source\PSoC4/comm_RS485_UART.c **** *******************************************************************************
  11:.\Generated_Source\PSoC4/comm_RS485_UART.c **** * Copyright 2013-2014, Cypress Semiconductor Corporation.  All rights reserved.
  12:.\Generated_Source\PSoC4/comm_RS485_UART.c **** * You may use this file only in accordance with the license, terms, conditions,
  13:.\Generated_Source\PSoC4/comm_RS485_UART.c **** * disclaimers, and limitations in the end user license agreement accompanying
  14:.\Generated_Source\PSoC4/comm_RS485_UART.c **** * the software package with which this file was provided.
  15:.\Generated_Source\PSoC4/comm_RS485_UART.c **** *******************************************************************************/
  16:.\Generated_Source\PSoC4/comm_RS485_UART.c **** 
  17:.\Generated_Source\PSoC4/comm_RS485_UART.c **** #include "comm_RS485_UART_PVT.h"
  18:.\Generated_Source\PSoC4/comm_RS485_UART.c **** 
  19:.\Generated_Source\PSoC4/comm_RS485_UART.c **** #if(comm_RS485_UART_SCB_MODE_I2C_INC)
  20:.\Generated_Source\PSoC4/comm_RS485_UART.c ****     #include "comm_RS485_UART_I2C_PVT.h"
  21:.\Generated_Source\PSoC4/comm_RS485_UART.c **** #endif /* (comm_RS485_UART_SCB_MODE_I2C_INC) */
  22:.\Generated_Source\PSoC4/comm_RS485_UART.c **** 
  23:.\Generated_Source\PSoC4/comm_RS485_UART.c **** #if(comm_RS485_UART_SCB_MODE_EZI2C_INC)
  24:.\Generated_Source\PSoC4/comm_RS485_UART.c ****     #include "comm_RS485_UART_EZI2C_PVT.h"
  25:.\Generated_Source\PSoC4/comm_RS485_UART.c **** #endif /* (comm_RS485_UART_SCB_MODE_EZI2C_INC) */
  26:.\Generated_Source\PSoC4/comm_RS485_UART.c **** 
  27:.\Generated_Source\PSoC4/comm_RS485_UART.c **** #if(comm_RS485_UART_SCB_MODE_SPI_INC || comm_RS485_UART_SCB_MODE_UART_INC)
  28:.\Generated_Source\PSoC4/comm_RS485_UART.c ****     #include "comm_RS485_UART_SPI_UART_PVT.h"
  29:.\Generated_Source\PSoC4/comm_RS485_UART.c **** #endif /* (comm_RS485_UART_SCB_MODE_SPI_INC || comm_RS485_UART_SCB_MODE_UART_INC) */
  30:.\Generated_Source\PSoC4/comm_RS485_UART.c **** 
  31:.\Generated_Source\PSoC4/comm_RS485_UART.c **** 
  32:.\Generated_Source\PSoC4/comm_RS485_UART.c **** /***************************************
ARM GAS  C:\Users\SDEVAS~1\AppData\Local\Temp\ccmGsKgx.s 			page 2


  33:.\Generated_Source\PSoC4/comm_RS485_UART.c **** *    Run Time Configuration Vars
  34:.\Generated_Source\PSoC4/comm_RS485_UART.c **** ***************************************/
  35:.\Generated_Source\PSoC4/comm_RS485_UART.c **** 
  36:.\Generated_Source\PSoC4/comm_RS485_UART.c **** /* Stores internal component configuration for Unconfigured mode */
  37:.\Generated_Source\PSoC4/comm_RS485_UART.c **** #if(comm_RS485_UART_SCB_MODE_UNCONFIG_CONST_CFG)
  38:.\Generated_Source\PSoC4/comm_RS485_UART.c ****     /* Common configuration variables */
  39:.\Generated_Source\PSoC4/comm_RS485_UART.c ****     uint8 comm_RS485_UART_scbMode = comm_RS485_UART_SCB_MODE_UNCONFIG;
  40:.\Generated_Source\PSoC4/comm_RS485_UART.c ****     uint8 comm_RS485_UART_scbEnableWake;
  41:.\Generated_Source\PSoC4/comm_RS485_UART.c ****     uint8 comm_RS485_UART_scbEnableIntr;
  42:.\Generated_Source\PSoC4/comm_RS485_UART.c **** 
  43:.\Generated_Source\PSoC4/comm_RS485_UART.c ****     /* I2C configuration variables */
  44:.\Generated_Source\PSoC4/comm_RS485_UART.c ****     uint8 comm_RS485_UART_mode;
  45:.\Generated_Source\PSoC4/comm_RS485_UART.c ****     uint8 comm_RS485_UART_acceptAddr;
  46:.\Generated_Source\PSoC4/comm_RS485_UART.c **** 
  47:.\Generated_Source\PSoC4/comm_RS485_UART.c ****     /* SPI/UART configuration variables */
  48:.\Generated_Source\PSoC4/comm_RS485_UART.c ****     volatile uint8 * comm_RS485_UART_rxBuffer;
  49:.\Generated_Source\PSoC4/comm_RS485_UART.c ****     uint8  comm_RS485_UART_rxDataBits;
  50:.\Generated_Source\PSoC4/comm_RS485_UART.c ****     uint32 comm_RS485_UART_rxBufferSize;
  51:.\Generated_Source\PSoC4/comm_RS485_UART.c **** 
  52:.\Generated_Source\PSoC4/comm_RS485_UART.c ****     volatile uint8 * comm_RS485_UART_txBuffer;
  53:.\Generated_Source\PSoC4/comm_RS485_UART.c ****     uint8  comm_RS485_UART_txDataBits;
  54:.\Generated_Source\PSoC4/comm_RS485_UART.c ****     uint32 comm_RS485_UART_txBufferSize;
  55:.\Generated_Source\PSoC4/comm_RS485_UART.c **** 
  56:.\Generated_Source\PSoC4/comm_RS485_UART.c ****     /* EZI2C configuration variables */
  57:.\Generated_Source\PSoC4/comm_RS485_UART.c ****     uint8 comm_RS485_UART_numberOfAddr;
  58:.\Generated_Source\PSoC4/comm_RS485_UART.c ****     uint8 comm_RS485_UART_subAddrSize;
  59:.\Generated_Source\PSoC4/comm_RS485_UART.c **** #endif /* (comm_RS485_UART_SCB_MODE_UNCONFIG_CONST_CFG) */
  60:.\Generated_Source\PSoC4/comm_RS485_UART.c **** 
  61:.\Generated_Source\PSoC4/comm_RS485_UART.c **** 
  62:.\Generated_Source\PSoC4/comm_RS485_UART.c **** /***************************************
  63:.\Generated_Source\PSoC4/comm_RS485_UART.c **** *     Common SCB Vars
  64:.\Generated_Source\PSoC4/comm_RS485_UART.c **** ***************************************/
  65:.\Generated_Source\PSoC4/comm_RS485_UART.c **** 
  66:.\Generated_Source\PSoC4/comm_RS485_UART.c **** uint8 comm_RS485_UART_initVar = 0u;
  67:.\Generated_Source\PSoC4/comm_RS485_UART.c **** 
  68:.\Generated_Source\PSoC4/comm_RS485_UART.c **** #if !defined (CY_REMOVE_comm_RS485_UART_CUSTOM_INTR_HANDLER)
  69:.\Generated_Source\PSoC4/comm_RS485_UART.c ****     cyisraddress comm_RS485_UART_customIntrHandler = NULL;
  70:.\Generated_Source\PSoC4/comm_RS485_UART.c **** #endif /* !defined (CY_REMOVE_comm_RS485_UART_CUSTOM_INTR_HANDLER) */
  71:.\Generated_Source\PSoC4/comm_RS485_UART.c **** 
  72:.\Generated_Source\PSoC4/comm_RS485_UART.c **** 
  73:.\Generated_Source\PSoC4/comm_RS485_UART.c **** /***************************************
  74:.\Generated_Source\PSoC4/comm_RS485_UART.c **** *    Private Function Prototypes
  75:.\Generated_Source\PSoC4/comm_RS485_UART.c **** ***************************************/
  76:.\Generated_Source\PSoC4/comm_RS485_UART.c **** 
  77:.\Generated_Source\PSoC4/comm_RS485_UART.c **** static void comm_RS485_UART_ScbEnableIntr(void);
  78:.\Generated_Source\PSoC4/comm_RS485_UART.c **** static void comm_RS485_UART_ScbModeStop(void);
  79:.\Generated_Source\PSoC4/comm_RS485_UART.c **** 
  80:.\Generated_Source\PSoC4/comm_RS485_UART.c **** 
  81:.\Generated_Source\PSoC4/comm_RS485_UART.c **** /*******************************************************************************
  82:.\Generated_Source\PSoC4/comm_RS485_UART.c **** * Function Name: comm_RS485_UART_Init
  83:.\Generated_Source\PSoC4/comm_RS485_UART.c **** ********************************************************************************
  84:.\Generated_Source\PSoC4/comm_RS485_UART.c **** *
  85:.\Generated_Source\PSoC4/comm_RS485_UART.c **** * Summary:
  86:.\Generated_Source\PSoC4/comm_RS485_UART.c **** *  Initializes the SCB component to operate in one of the selected
  87:.\Generated_Source\PSoC4/comm_RS485_UART.c **** *  configurations: I2C, SPI, UART or EZI2C.
  88:.\Generated_Source\PSoC4/comm_RS485_UART.c **** *  When the configuration is set to "Unconfigured SCB", this function does
  89:.\Generated_Source\PSoC4/comm_RS485_UART.c **** *  not do any initialization. Use mode-specific initialization APIs instead:
ARM GAS  C:\Users\SDEVAS~1\AppData\Local\Temp\ccmGsKgx.s 			page 3


  90:.\Generated_Source\PSoC4/comm_RS485_UART.c **** *  SCB_I2CInit, SCB_SpiInit, SCB_UartInit or SCB_EzI2CInit.
  91:.\Generated_Source\PSoC4/comm_RS485_UART.c **** *
  92:.\Generated_Source\PSoC4/comm_RS485_UART.c **** * Parameters:
  93:.\Generated_Source\PSoC4/comm_RS485_UART.c **** *  None
  94:.\Generated_Source\PSoC4/comm_RS485_UART.c **** *
  95:.\Generated_Source\PSoC4/comm_RS485_UART.c **** * Return:
  96:.\Generated_Source\PSoC4/comm_RS485_UART.c **** *  None
  97:.\Generated_Source\PSoC4/comm_RS485_UART.c **** *
  98:.\Generated_Source\PSoC4/comm_RS485_UART.c **** *******************************************************************************/
  99:.\Generated_Source\PSoC4/comm_RS485_UART.c **** void comm_RS485_UART_Init(void)
 100:.\Generated_Source\PSoC4/comm_RS485_UART.c **** {
  26              		.loc 1 100 0
  27              		.cfi_startproc
  28 0000 08B5     		push	{r3, lr}
  29              		.cfi_def_cfa_offset 8
  30              		.cfi_offset 3, -8
  31              		.cfi_offset 14, -4
 101:.\Generated_Source\PSoC4/comm_RS485_UART.c **** #if(comm_RS485_UART_SCB_MODE_UNCONFIG_CONST_CFG)
 102:.\Generated_Source\PSoC4/comm_RS485_UART.c ****     if(comm_RS485_UART_SCB_MODE_UNCONFIG_RUNTM_CFG)
 103:.\Generated_Source\PSoC4/comm_RS485_UART.c ****     {
 104:.\Generated_Source\PSoC4/comm_RS485_UART.c ****         comm_RS485_UART_initVar = 0u;
 105:.\Generated_Source\PSoC4/comm_RS485_UART.c ****     }
 106:.\Generated_Source\PSoC4/comm_RS485_UART.c ****     else
 107:.\Generated_Source\PSoC4/comm_RS485_UART.c ****     {
 108:.\Generated_Source\PSoC4/comm_RS485_UART.c ****         /* Initialization was done before this function call */
 109:.\Generated_Source\PSoC4/comm_RS485_UART.c ****     }
 110:.\Generated_Source\PSoC4/comm_RS485_UART.c **** 
 111:.\Generated_Source\PSoC4/comm_RS485_UART.c **** #elif(comm_RS485_UART_SCB_MODE_I2C_CONST_CFG)
 112:.\Generated_Source\PSoC4/comm_RS485_UART.c ****     comm_RS485_UART_I2CInit();
 113:.\Generated_Source\PSoC4/comm_RS485_UART.c **** 
 114:.\Generated_Source\PSoC4/comm_RS485_UART.c **** #elif(comm_RS485_UART_SCB_MODE_SPI_CONST_CFG)
 115:.\Generated_Source\PSoC4/comm_RS485_UART.c ****     comm_RS485_UART_SpiInit();
 116:.\Generated_Source\PSoC4/comm_RS485_UART.c **** 
 117:.\Generated_Source\PSoC4/comm_RS485_UART.c **** #elif(comm_RS485_UART_SCB_MODE_UART_CONST_CFG)
 118:.\Generated_Source\PSoC4/comm_RS485_UART.c ****     comm_RS485_UART_UartInit();
  32              		.loc 1 118 0
  33 0002 FFF7FEFF 		bl	comm_RS485_UART_UartInit
  34              	.LVL0:
 119:.\Generated_Source\PSoC4/comm_RS485_UART.c **** 
 120:.\Generated_Source\PSoC4/comm_RS485_UART.c **** #elif(comm_RS485_UART_SCB_MODE_EZI2C_CONST_CFG)
 121:.\Generated_Source\PSoC4/comm_RS485_UART.c ****     comm_RS485_UART_EzI2CInit();
 122:.\Generated_Source\PSoC4/comm_RS485_UART.c **** 
 123:.\Generated_Source\PSoC4/comm_RS485_UART.c **** #endif /* (comm_RS485_UART_SCB_MODE_UNCONFIG_CONST_CFG) */
 124:.\Generated_Source\PSoC4/comm_RS485_UART.c **** }
  35              		.loc 1 124 0
  36              		@ sp needed
  37 0006 08BD     		pop	{r3, pc}
  38              		.cfi_endproc
  39              	.LFE0:
  40              		.size	comm_RS485_UART_Init, .-comm_RS485_UART_Init
  41              		.section	.text.comm_RS485_UART_Enable,"ax",%progbits
  42              		.align	1
  43              		.global	comm_RS485_UART_Enable
  44              		.code	16
  45              		.thumb_func
  46              		.type	comm_RS485_UART_Enable, %function
  47              	comm_RS485_UART_Enable:
ARM GAS  C:\Users\SDEVAS~1\AppData\Local\Temp\ccmGsKgx.s 			page 4


  48              	.LFB1:
 125:.\Generated_Source\PSoC4/comm_RS485_UART.c **** 
 126:.\Generated_Source\PSoC4/comm_RS485_UART.c **** 
 127:.\Generated_Source\PSoC4/comm_RS485_UART.c **** /*******************************************************************************
 128:.\Generated_Source\PSoC4/comm_RS485_UART.c **** * Function Name: comm_RS485_UART_Enable
 129:.\Generated_Source\PSoC4/comm_RS485_UART.c **** ********************************************************************************
 130:.\Generated_Source\PSoC4/comm_RS485_UART.c **** *
 131:.\Generated_Source\PSoC4/comm_RS485_UART.c **** * Summary:
 132:.\Generated_Source\PSoC4/comm_RS485_UART.c **** *  Enables the SCB component operation.
 133:.\Generated_Source\PSoC4/comm_RS485_UART.c **** *  The SCB configuration should be not changed when the component is enabled.
 134:.\Generated_Source\PSoC4/comm_RS485_UART.c **** *  Any configuration changes should be made after disabling the component.
 135:.\Generated_Source\PSoC4/comm_RS485_UART.c **** *
 136:.\Generated_Source\PSoC4/comm_RS485_UART.c **** * Parameters:
 137:.\Generated_Source\PSoC4/comm_RS485_UART.c **** *  None
 138:.\Generated_Source\PSoC4/comm_RS485_UART.c **** *
 139:.\Generated_Source\PSoC4/comm_RS485_UART.c **** * Return:
 140:.\Generated_Source\PSoC4/comm_RS485_UART.c **** *  None
 141:.\Generated_Source\PSoC4/comm_RS485_UART.c **** *
 142:.\Generated_Source\PSoC4/comm_RS485_UART.c **** *******************************************************************************/
 143:.\Generated_Source\PSoC4/comm_RS485_UART.c **** void comm_RS485_UART_Enable(void)
 144:.\Generated_Source\PSoC4/comm_RS485_UART.c **** {
  49              		.loc 1 144 0
  50              		.cfi_startproc
  51 0000 08B5     		push	{r3, lr}
  52              		.cfi_def_cfa_offset 8
  53              		.cfi_offset 3, -8
  54              		.cfi_offset 14, -4
 145:.\Generated_Source\PSoC4/comm_RS485_UART.c **** #if(comm_RS485_UART_SCB_MODE_UNCONFIG_CONST_CFG)
 146:.\Generated_Source\PSoC4/comm_RS485_UART.c ****     /* Enable SCB block, only if it is already configured */
 147:.\Generated_Source\PSoC4/comm_RS485_UART.c ****     if(!comm_RS485_UART_SCB_MODE_UNCONFIG_RUNTM_CFG)
 148:.\Generated_Source\PSoC4/comm_RS485_UART.c ****     {
 149:.\Generated_Source\PSoC4/comm_RS485_UART.c ****         comm_RS485_UART_CTRL_REG |= comm_RS485_UART_CTRL_ENABLED;
 150:.\Generated_Source\PSoC4/comm_RS485_UART.c **** 
 151:.\Generated_Source\PSoC4/comm_RS485_UART.c ****         comm_RS485_UART_ScbEnableIntr();
 152:.\Generated_Source\PSoC4/comm_RS485_UART.c ****     }
 153:.\Generated_Source\PSoC4/comm_RS485_UART.c **** #else
 154:.\Generated_Source\PSoC4/comm_RS485_UART.c ****     comm_RS485_UART_CTRL_REG |= comm_RS485_UART_CTRL_ENABLED;
  55              		.loc 1 154 0
  56 0002 054B     		ldr	r3, .L3
  57 0004 8022     		mov	r2, #128
  58 0006 1968     		ldr	r1, [r3]
  59 0008 1206     		lsl	r2, r2, #24
  60 000a 0A43     		orr	r2, r1
  61 000c 1A60     		str	r2, [r3]
  62              	.LBB8:
  63              	.LBB9:
 155:.\Generated_Source\PSoC4/comm_RS485_UART.c **** 
 156:.\Generated_Source\PSoC4/comm_RS485_UART.c ****     comm_RS485_UART_ScbEnableIntr();
 157:.\Generated_Source\PSoC4/comm_RS485_UART.c **** #endif /* (comm_RS485_UART_SCB_MODE_UNCONFIG_CONST_CFG) */
 158:.\Generated_Source\PSoC4/comm_RS485_UART.c **** }
 159:.\Generated_Source\PSoC4/comm_RS485_UART.c **** 
 160:.\Generated_Source\PSoC4/comm_RS485_UART.c **** 
 161:.\Generated_Source\PSoC4/comm_RS485_UART.c **** /*******************************************************************************
 162:.\Generated_Source\PSoC4/comm_RS485_UART.c **** * Function Name: comm_RS485_UART_Start
 163:.\Generated_Source\PSoC4/comm_RS485_UART.c **** ********************************************************************************
 164:.\Generated_Source\PSoC4/comm_RS485_UART.c **** *
 165:.\Generated_Source\PSoC4/comm_RS485_UART.c **** * Summary:
ARM GAS  C:\Users\SDEVAS~1\AppData\Local\Temp\ccmGsKgx.s 			page 5


 166:.\Generated_Source\PSoC4/comm_RS485_UART.c **** *  Invokes SCB_Init() and SCB_Enable().
 167:.\Generated_Source\PSoC4/comm_RS485_UART.c **** *  After this function call, the component is enabled and ready for operation.
 168:.\Generated_Source\PSoC4/comm_RS485_UART.c **** *  When configuration is set to "Unconfigured SCB", the component must first be
 169:.\Generated_Source\PSoC4/comm_RS485_UART.c **** *  initialized to operate in one of the following configurations: I2C, SPI, UART
 170:.\Generated_Source\PSoC4/comm_RS485_UART.c **** *  or EZ I2C. Otherwise this function does not enable the component.
 171:.\Generated_Source\PSoC4/comm_RS485_UART.c **** *
 172:.\Generated_Source\PSoC4/comm_RS485_UART.c **** * Parameters:
 173:.\Generated_Source\PSoC4/comm_RS485_UART.c **** *  None
 174:.\Generated_Source\PSoC4/comm_RS485_UART.c **** *
 175:.\Generated_Source\PSoC4/comm_RS485_UART.c **** * Return:
 176:.\Generated_Source\PSoC4/comm_RS485_UART.c **** *  None
 177:.\Generated_Source\PSoC4/comm_RS485_UART.c **** *
 178:.\Generated_Source\PSoC4/comm_RS485_UART.c **** * Global variables:
 179:.\Generated_Source\PSoC4/comm_RS485_UART.c **** *  comm_RS485_UART_initVar - used to check initial configuration, modified
 180:.\Generated_Source\PSoC4/comm_RS485_UART.c **** *  on first function call.
 181:.\Generated_Source\PSoC4/comm_RS485_UART.c **** *
 182:.\Generated_Source\PSoC4/comm_RS485_UART.c **** *******************************************************************************/
 183:.\Generated_Source\PSoC4/comm_RS485_UART.c **** void comm_RS485_UART_Start(void)
 184:.\Generated_Source\PSoC4/comm_RS485_UART.c **** {
 185:.\Generated_Source\PSoC4/comm_RS485_UART.c ****     if(0u == comm_RS485_UART_initVar)
 186:.\Generated_Source\PSoC4/comm_RS485_UART.c ****     {
 187:.\Generated_Source\PSoC4/comm_RS485_UART.c ****         comm_RS485_UART_Init();
 188:.\Generated_Source\PSoC4/comm_RS485_UART.c ****         comm_RS485_UART_initVar = 1u; /* Component was initialized */
 189:.\Generated_Source\PSoC4/comm_RS485_UART.c ****     }
 190:.\Generated_Source\PSoC4/comm_RS485_UART.c **** 
 191:.\Generated_Source\PSoC4/comm_RS485_UART.c ****     comm_RS485_UART_Enable();
 192:.\Generated_Source\PSoC4/comm_RS485_UART.c **** }
 193:.\Generated_Source\PSoC4/comm_RS485_UART.c **** 
 194:.\Generated_Source\PSoC4/comm_RS485_UART.c **** 
 195:.\Generated_Source\PSoC4/comm_RS485_UART.c **** /*******************************************************************************
 196:.\Generated_Source\PSoC4/comm_RS485_UART.c **** * Function Name: comm_RS485_UART_Stop
 197:.\Generated_Source\PSoC4/comm_RS485_UART.c **** ********************************************************************************
 198:.\Generated_Source\PSoC4/comm_RS485_UART.c **** *
 199:.\Generated_Source\PSoC4/comm_RS485_UART.c **** * Summary:
 200:.\Generated_Source\PSoC4/comm_RS485_UART.c **** *  Disables the SCB component and its interrupt.
 201:.\Generated_Source\PSoC4/comm_RS485_UART.c **** *
 202:.\Generated_Source\PSoC4/comm_RS485_UART.c **** * Parameters:
 203:.\Generated_Source\PSoC4/comm_RS485_UART.c **** *  None
 204:.\Generated_Source\PSoC4/comm_RS485_UART.c **** *
 205:.\Generated_Source\PSoC4/comm_RS485_UART.c **** * Return:
 206:.\Generated_Source\PSoC4/comm_RS485_UART.c **** *  None
 207:.\Generated_Source\PSoC4/comm_RS485_UART.c **** *
 208:.\Generated_Source\PSoC4/comm_RS485_UART.c **** *******************************************************************************/
 209:.\Generated_Source\PSoC4/comm_RS485_UART.c **** void comm_RS485_UART_Stop(void)
 210:.\Generated_Source\PSoC4/comm_RS485_UART.c **** {
 211:.\Generated_Source\PSoC4/comm_RS485_UART.c **** #if(comm_RS485_UART_SCB_IRQ_INTERNAL)
 212:.\Generated_Source\PSoC4/comm_RS485_UART.c ****     comm_RS485_UART_DisableInt();
 213:.\Generated_Source\PSoC4/comm_RS485_UART.c **** #endif /* (comm_RS485_UART_SCB_IRQ_INTERNAL) */
 214:.\Generated_Source\PSoC4/comm_RS485_UART.c **** 
 215:.\Generated_Source\PSoC4/comm_RS485_UART.c ****     comm_RS485_UART_CTRL_REG &= (uint32) ~comm_RS485_UART_CTRL_ENABLED;  /* Disable scb IP */
 216:.\Generated_Source\PSoC4/comm_RS485_UART.c **** 
 217:.\Generated_Source\PSoC4/comm_RS485_UART.c **** #if(comm_RS485_UART_SCB_IRQ_INTERNAL)
 218:.\Generated_Source\PSoC4/comm_RS485_UART.c ****     comm_RS485_UART_ClearPendingInt();
 219:.\Generated_Source\PSoC4/comm_RS485_UART.c **** #endif /* (comm_RS485_UART_SCB_IRQ_INTERNAL) */
 220:.\Generated_Source\PSoC4/comm_RS485_UART.c **** 
 221:.\Generated_Source\PSoC4/comm_RS485_UART.c ****     comm_RS485_UART_ScbModeStop(); /* Calls scbMode specific Stop function */
 222:.\Generated_Source\PSoC4/comm_RS485_UART.c **** }
ARM GAS  C:\Users\SDEVAS~1\AppData\Local\Temp\ccmGsKgx.s 			page 6


 223:.\Generated_Source\PSoC4/comm_RS485_UART.c **** 
 224:.\Generated_Source\PSoC4/comm_RS485_UART.c **** 
 225:.\Generated_Source\PSoC4/comm_RS485_UART.c **** /*******************************************************************************
 226:.\Generated_Source\PSoC4/comm_RS485_UART.c **** * Function Name: comm_RS485_UART_SetRxFifoLevel
 227:.\Generated_Source\PSoC4/comm_RS485_UART.c **** ********************************************************************************
 228:.\Generated_Source\PSoC4/comm_RS485_UART.c **** *
 229:.\Generated_Source\PSoC4/comm_RS485_UART.c **** * Summary:
 230:.\Generated_Source\PSoC4/comm_RS485_UART.c **** *  Sets level in the RX FIFO to generate a RX level interrupt.
 231:.\Generated_Source\PSoC4/comm_RS485_UART.c **** *  When the RX FIFO has more entries than the RX FIFO level an RX level
 232:.\Generated_Source\PSoC4/comm_RS485_UART.c **** *  interrupt request is generated.
 233:.\Generated_Source\PSoC4/comm_RS485_UART.c **** *
 234:.\Generated_Source\PSoC4/comm_RS485_UART.c **** * Parameters:
 235:.\Generated_Source\PSoC4/comm_RS485_UART.c **** *  level: Level in the RX FIFO to generate RX level interrupt.
 236:.\Generated_Source\PSoC4/comm_RS485_UART.c **** *         The range of valid level values is between 0 and RX FIFO depth - 1.
 237:.\Generated_Source\PSoC4/comm_RS485_UART.c **** *
 238:.\Generated_Source\PSoC4/comm_RS485_UART.c **** * Return:
 239:.\Generated_Source\PSoC4/comm_RS485_UART.c **** *  None
 240:.\Generated_Source\PSoC4/comm_RS485_UART.c **** *
 241:.\Generated_Source\PSoC4/comm_RS485_UART.c **** *******************************************************************************/
 242:.\Generated_Source\PSoC4/comm_RS485_UART.c **** void comm_RS485_UART_SetRxFifoLevel(uint32 level)
 243:.\Generated_Source\PSoC4/comm_RS485_UART.c **** {
 244:.\Generated_Source\PSoC4/comm_RS485_UART.c ****     uint32 rxFifoCtrl;
 245:.\Generated_Source\PSoC4/comm_RS485_UART.c **** 
 246:.\Generated_Source\PSoC4/comm_RS485_UART.c ****     rxFifoCtrl = comm_RS485_UART_RX_FIFO_CTRL_REG;
 247:.\Generated_Source\PSoC4/comm_RS485_UART.c **** 
 248:.\Generated_Source\PSoC4/comm_RS485_UART.c ****     rxFifoCtrl &= ((uint32) ~comm_RS485_UART_RX_FIFO_CTRL_TRIGGER_LEVEL_MASK); /* Clear level mask 
 249:.\Generated_Source\PSoC4/comm_RS485_UART.c ****     rxFifoCtrl |= ((uint32) (comm_RS485_UART_RX_FIFO_CTRL_TRIGGER_LEVEL_MASK & level));
 250:.\Generated_Source\PSoC4/comm_RS485_UART.c **** 
 251:.\Generated_Source\PSoC4/comm_RS485_UART.c ****     comm_RS485_UART_RX_FIFO_CTRL_REG = rxFifoCtrl;
 252:.\Generated_Source\PSoC4/comm_RS485_UART.c **** }
 253:.\Generated_Source\PSoC4/comm_RS485_UART.c **** 
 254:.\Generated_Source\PSoC4/comm_RS485_UART.c **** 
 255:.\Generated_Source\PSoC4/comm_RS485_UART.c **** /*******************************************************************************
 256:.\Generated_Source\PSoC4/comm_RS485_UART.c **** * Function Name: comm_RS485_UART_SetTxFifoLevel
 257:.\Generated_Source\PSoC4/comm_RS485_UART.c **** ********************************************************************************
 258:.\Generated_Source\PSoC4/comm_RS485_UART.c **** *
 259:.\Generated_Source\PSoC4/comm_RS485_UART.c **** * Summary:
 260:.\Generated_Source\PSoC4/comm_RS485_UART.c **** *  Sets level in the TX FIFO to generate a TX level interrupt.
 261:.\Generated_Source\PSoC4/comm_RS485_UART.c **** *  When the TX FIFO has more entries than the TX FIFO level an TX level
 262:.\Generated_Source\PSoC4/comm_RS485_UART.c **** *  interrupt request is generated.
 263:.\Generated_Source\PSoC4/comm_RS485_UART.c **** *
 264:.\Generated_Source\PSoC4/comm_RS485_UART.c **** * Parameters:
 265:.\Generated_Source\PSoC4/comm_RS485_UART.c **** *  level: Level in the TX FIFO to generate TX level interrupt.
 266:.\Generated_Source\PSoC4/comm_RS485_UART.c **** *         The range of valid level values is between 0 and TX FIFO depth - 1.
 267:.\Generated_Source\PSoC4/comm_RS485_UART.c **** *
 268:.\Generated_Source\PSoC4/comm_RS485_UART.c **** * Return:
 269:.\Generated_Source\PSoC4/comm_RS485_UART.c **** *  None
 270:.\Generated_Source\PSoC4/comm_RS485_UART.c **** *
 271:.\Generated_Source\PSoC4/comm_RS485_UART.c **** *******************************************************************************/
 272:.\Generated_Source\PSoC4/comm_RS485_UART.c **** void comm_RS485_UART_SetTxFifoLevel(uint32 level)
 273:.\Generated_Source\PSoC4/comm_RS485_UART.c **** {
 274:.\Generated_Source\PSoC4/comm_RS485_UART.c ****     uint32 txFifoCtrl;
 275:.\Generated_Source\PSoC4/comm_RS485_UART.c **** 
 276:.\Generated_Source\PSoC4/comm_RS485_UART.c ****     txFifoCtrl = comm_RS485_UART_TX_FIFO_CTRL_REG;
 277:.\Generated_Source\PSoC4/comm_RS485_UART.c **** 
 278:.\Generated_Source\PSoC4/comm_RS485_UART.c ****     txFifoCtrl &= ((uint32) ~comm_RS485_UART_TX_FIFO_CTRL_TRIGGER_LEVEL_MASK); /* Clear level mask 
 279:.\Generated_Source\PSoC4/comm_RS485_UART.c ****     txFifoCtrl |= ((uint32) (comm_RS485_UART_TX_FIFO_CTRL_TRIGGER_LEVEL_MASK & level));
ARM GAS  C:\Users\SDEVAS~1\AppData\Local\Temp\ccmGsKgx.s 			page 7


 280:.\Generated_Source\PSoC4/comm_RS485_UART.c **** 
 281:.\Generated_Source\PSoC4/comm_RS485_UART.c ****     comm_RS485_UART_TX_FIFO_CTRL_REG = txFifoCtrl;
 282:.\Generated_Source\PSoC4/comm_RS485_UART.c **** }
 283:.\Generated_Source\PSoC4/comm_RS485_UART.c **** 
 284:.\Generated_Source\PSoC4/comm_RS485_UART.c **** 
 285:.\Generated_Source\PSoC4/comm_RS485_UART.c **** /*******************************************************************************
 286:.\Generated_Source\PSoC4/comm_RS485_UART.c **** * Function Name: comm_RS485_UART_SetCustomInterruptHandler
 287:.\Generated_Source\PSoC4/comm_RS485_UART.c **** ********************************************************************************
 288:.\Generated_Source\PSoC4/comm_RS485_UART.c **** *
 289:.\Generated_Source\PSoC4/comm_RS485_UART.c **** * Summary:
 290:.\Generated_Source\PSoC4/comm_RS485_UART.c **** *  Registers a function to be called by the internal interrupt handler.
 291:.\Generated_Source\PSoC4/comm_RS485_UART.c **** *  First the function that is registered is called, then the internal interrupt
 292:.\Generated_Source\PSoC4/comm_RS485_UART.c **** *  handler performs any operation such as software buffer management functions
 293:.\Generated_Source\PSoC4/comm_RS485_UART.c **** *  before the interrupt returns.  It is the user's responsibility not to break
 294:.\Generated_Source\PSoC4/comm_RS485_UART.c **** *  the software buffer operations. Only one custom handler is supported, which
 295:.\Generated_Source\PSoC4/comm_RS485_UART.c **** *  is the function provided by the most recent call.
 296:.\Generated_Source\PSoC4/comm_RS485_UART.c **** *  At the initialization time no custom handler is registered.
 297:.\Generated_Source\PSoC4/comm_RS485_UART.c **** *
 298:.\Generated_Source\PSoC4/comm_RS485_UART.c **** * Parameters:
 299:.\Generated_Source\PSoC4/comm_RS485_UART.c **** *  func: Pointer to the function to register.
 300:.\Generated_Source\PSoC4/comm_RS485_UART.c **** *        The value NULL indicates to remove the current custom interrupt
 301:.\Generated_Source\PSoC4/comm_RS485_UART.c **** *        handler.
 302:.\Generated_Source\PSoC4/comm_RS485_UART.c **** *
 303:.\Generated_Source\PSoC4/comm_RS485_UART.c **** * Return:
 304:.\Generated_Source\PSoC4/comm_RS485_UART.c **** *  None
 305:.\Generated_Source\PSoC4/comm_RS485_UART.c **** *
 306:.\Generated_Source\PSoC4/comm_RS485_UART.c **** *******************************************************************************/
 307:.\Generated_Source\PSoC4/comm_RS485_UART.c **** void comm_RS485_UART_SetCustomInterruptHandler(cyisraddress func)
 308:.\Generated_Source\PSoC4/comm_RS485_UART.c **** {
 309:.\Generated_Source\PSoC4/comm_RS485_UART.c **** #if !defined (CY_REMOVE_comm_RS485_UART_CUSTOM_INTR_HANDLER)
 310:.\Generated_Source\PSoC4/comm_RS485_UART.c ****     comm_RS485_UART_customIntrHandler = func; /* Register interrupt handler */
 311:.\Generated_Source\PSoC4/comm_RS485_UART.c **** #else
 312:.\Generated_Source\PSoC4/comm_RS485_UART.c ****     if(NULL != func)
 313:.\Generated_Source\PSoC4/comm_RS485_UART.c ****     {
 314:.\Generated_Source\PSoC4/comm_RS485_UART.c ****         /* Suppress compiler warning */
 315:.\Generated_Source\PSoC4/comm_RS485_UART.c ****     }
 316:.\Generated_Source\PSoC4/comm_RS485_UART.c **** #endif /* !defined (CY_REMOVE_comm_RS485_UART_CUSTOM_INTR_HANDLER) */
 317:.\Generated_Source\PSoC4/comm_RS485_UART.c **** }
 318:.\Generated_Source\PSoC4/comm_RS485_UART.c **** 
 319:.\Generated_Source\PSoC4/comm_RS485_UART.c **** 
 320:.\Generated_Source\PSoC4/comm_RS485_UART.c **** /*******************************************************************************
 321:.\Generated_Source\PSoC4/comm_RS485_UART.c **** * Function Name: comm_RS485_UART_ScbModeEnableIntr
 322:.\Generated_Source\PSoC4/comm_RS485_UART.c **** ********************************************************************************
 323:.\Generated_Source\PSoC4/comm_RS485_UART.c **** *
 324:.\Generated_Source\PSoC4/comm_RS485_UART.c **** * Summary:
 325:.\Generated_Source\PSoC4/comm_RS485_UART.c **** *  Enables an interrupt for a specific mode.
 326:.\Generated_Source\PSoC4/comm_RS485_UART.c **** *
 327:.\Generated_Source\PSoC4/comm_RS485_UART.c **** * Parameters:
 328:.\Generated_Source\PSoC4/comm_RS485_UART.c **** *  None
 329:.\Generated_Source\PSoC4/comm_RS485_UART.c **** *
 330:.\Generated_Source\PSoC4/comm_RS485_UART.c **** * Return:
 331:.\Generated_Source\PSoC4/comm_RS485_UART.c **** *  None
 332:.\Generated_Source\PSoC4/comm_RS485_UART.c **** *
 333:.\Generated_Source\PSoC4/comm_RS485_UART.c **** *******************************************************************************/
 334:.\Generated_Source\PSoC4/comm_RS485_UART.c **** static void comm_RS485_UART_ScbEnableIntr(void)
 335:.\Generated_Source\PSoC4/comm_RS485_UART.c **** {
 336:.\Generated_Source\PSoC4/comm_RS485_UART.c **** #if(comm_RS485_UART_SCB_IRQ_INTERNAL)
ARM GAS  C:\Users\SDEVAS~1\AppData\Local\Temp\ccmGsKgx.s 			page 8


 337:.\Generated_Source\PSoC4/comm_RS485_UART.c ****     #if(comm_RS485_UART_SCB_MODE_UNCONFIG_CONST_CFG)
 338:.\Generated_Source\PSoC4/comm_RS485_UART.c ****         /* Enable interrupt in NVIC */
 339:.\Generated_Source\PSoC4/comm_RS485_UART.c ****         if(0u != comm_RS485_UART_scbEnableIntr)
 340:.\Generated_Source\PSoC4/comm_RS485_UART.c ****         {
 341:.\Generated_Source\PSoC4/comm_RS485_UART.c ****             comm_RS485_UART_EnableInt();
 342:.\Generated_Source\PSoC4/comm_RS485_UART.c ****         }
 343:.\Generated_Source\PSoC4/comm_RS485_UART.c ****     #else
 344:.\Generated_Source\PSoC4/comm_RS485_UART.c ****         comm_RS485_UART_EnableInt();
  64              		.loc 1 344 0
  65 000e 0A20     		mov	r0, #10
  66 0010 FFF7FEFF 		bl	CyIntEnable
  67              	.LVL1:
  68              	.LBE9:
  69              	.LBE8:
 158:.\Generated_Source\PSoC4/comm_RS485_UART.c **** }
  70              		.loc 1 158 0
  71              		@ sp needed
  72 0014 08BD     		pop	{r3, pc}
  73              	.L4:
  74 0016 C046     		.align	2
  75              	.L3:
  76 0018 00000640 		.word	1074135040
  77              		.cfi_endproc
  78              	.LFE1:
  79              		.size	comm_RS485_UART_Enable, .-comm_RS485_UART_Enable
  80              		.section	.text.comm_RS485_UART_Start,"ax",%progbits
  81              		.align	1
  82              		.global	comm_RS485_UART_Start
  83              		.code	16
  84              		.thumb_func
  85              		.type	comm_RS485_UART_Start, %function
  86              	comm_RS485_UART_Start:
  87              	.LFB2:
 184:.\Generated_Source\PSoC4/comm_RS485_UART.c **** {
  88              		.loc 1 184 0
  89              		.cfi_startproc
  90 0000 10B5     		push	{r4, lr}
  91              		.cfi_def_cfa_offset 8
  92              		.cfi_offset 4, -8
  93              		.cfi_offset 14, -4
 185:.\Generated_Source\PSoC4/comm_RS485_UART.c ****     if(0u == comm_RS485_UART_initVar)
  94              		.loc 1 185 0
  95 0002 054C     		ldr	r4, .L8
  96 0004 2378     		ldrb	r3, [r4]
  97 0006 002B     		cmp	r3, #0
  98 0008 03D1     		bne	.L6
  99              	.LBB10:
 100              	.LBB11:
 118:.\Generated_Source\PSoC4/comm_RS485_UART.c ****     comm_RS485_UART_UartInit();
 101              		.loc 1 118 0
 102 000a FFF7FEFF 		bl	comm_RS485_UART_UartInit
 103              	.LVL2:
 104              	.LBE11:
 105              	.LBE10:
 188:.\Generated_Source\PSoC4/comm_RS485_UART.c ****         comm_RS485_UART_initVar = 1u; /* Component was initialized */
 106              		.loc 1 188 0
 107 000e 0123     		mov	r3, #1
ARM GAS  C:\Users\SDEVAS~1\AppData\Local\Temp\ccmGsKgx.s 			page 9


 108 0010 2370     		strb	r3, [r4]
 109              	.L6:
 191:.\Generated_Source\PSoC4/comm_RS485_UART.c ****     comm_RS485_UART_Enable();
 110              		.loc 1 191 0
 111 0012 FFF7FEFF 		bl	comm_RS485_UART_Enable
 112              	.LVL3:
 192:.\Generated_Source\PSoC4/comm_RS485_UART.c **** }
 113              		.loc 1 192 0
 114              		@ sp needed
 115 0016 10BD     		pop	{r4, pc}
 116              	.L9:
 117              		.align	2
 118              	.L8:
 119 0018 00000000 		.word	.LANCHOR0
 120              		.cfi_endproc
 121              	.LFE2:
 122              		.size	comm_RS485_UART_Start, .-comm_RS485_UART_Start
 123              		.section	.text.comm_RS485_UART_Stop,"ax",%progbits
 124              		.align	1
 125              		.global	comm_RS485_UART_Stop
 126              		.code	16
 127              		.thumb_func
 128              		.type	comm_RS485_UART_Stop, %function
 129              	comm_RS485_UART_Stop:
 130              	.LFB3:
 210:.\Generated_Source\PSoC4/comm_RS485_UART.c **** {
 131              		.loc 1 210 0
 132              		.cfi_startproc
 133 0000 08B5     		push	{r3, lr}
 134              		.cfi_def_cfa_offset 8
 135              		.cfi_offset 3, -8
 136              		.cfi_offset 14, -4
 212:.\Generated_Source\PSoC4/comm_RS485_UART.c ****     comm_RS485_UART_DisableInt();
 137              		.loc 1 212 0
 138 0002 0A20     		mov	r0, #10
 139 0004 FFF7FEFF 		bl	CyIntDisable
 140              	.LVL4:
 215:.\Generated_Source\PSoC4/comm_RS485_UART.c ****     comm_RS485_UART_CTRL_REG &= (uint32) ~comm_RS485_UART_CTRL_ENABLED;  /* Disable scb IP */
 141              		.loc 1 215 0
 142 0008 044B     		ldr	r3, .L11
 218:.\Generated_Source\PSoC4/comm_RS485_UART.c ****     comm_RS485_UART_ClearPendingInt();
 143              		.loc 1 218 0
 144 000a 0A20     		mov	r0, #10
 215:.\Generated_Source\PSoC4/comm_RS485_UART.c ****     comm_RS485_UART_CTRL_REG &= (uint32) ~comm_RS485_UART_CTRL_ENABLED;  /* Disable scb IP */
 145              		.loc 1 215 0
 146 000c 1A68     		ldr	r2, [r3]
 222:.\Generated_Source\PSoC4/comm_RS485_UART.c **** }
 147              		.loc 1 222 0
 148              		@ sp needed
 215:.\Generated_Source\PSoC4/comm_RS485_UART.c ****     comm_RS485_UART_CTRL_REG &= (uint32) ~comm_RS485_UART_CTRL_ENABLED;  /* Disable scb IP */
 149              		.loc 1 215 0
 150 000e 5200     		lsl	r2, r2, #1
 151 0010 5208     		lsr	r2, r2, #1
 152 0012 1A60     		str	r2, [r3]
 218:.\Generated_Source\PSoC4/comm_RS485_UART.c ****     comm_RS485_UART_ClearPendingInt();
 153              		.loc 1 218 0
 154 0014 FFF7FEFF 		bl	CyIntClearPending
ARM GAS  C:\Users\SDEVAS~1\AppData\Local\Temp\ccmGsKgx.s 			page 10


 155              	.LVL5:
 222:.\Generated_Source\PSoC4/comm_RS485_UART.c **** }
 156              		.loc 1 222 0
 157 0018 08BD     		pop	{r3, pc}
 158              	.L12:
 159 001a C046     		.align	2
 160              	.L11:
 161 001c 00000640 		.word	1074135040
 162              		.cfi_endproc
 163              	.LFE3:
 164              		.size	comm_RS485_UART_Stop, .-comm_RS485_UART_Stop
 165              		.section	.text.comm_RS485_UART_SetRxFifoLevel,"ax",%progbits
 166              		.align	1
 167              		.global	comm_RS485_UART_SetRxFifoLevel
 168              		.code	16
 169              		.thumb_func
 170              		.type	comm_RS485_UART_SetRxFifoLevel, %function
 171              	comm_RS485_UART_SetRxFifoLevel:
 172              	.LFB4:
 243:.\Generated_Source\PSoC4/comm_RS485_UART.c **** {
 173              		.loc 1 243 0
 174              		.cfi_startproc
 175              	.LVL6:
 246:.\Generated_Source\PSoC4/comm_RS485_UART.c ****     rxFifoCtrl = comm_RS485_UART_RX_FIFO_CTRL_REG;
 176              		.loc 1 246 0
 177 0000 034B     		ldr	r3, .L14
 248:.\Generated_Source\PSoC4/comm_RS485_UART.c ****     rxFifoCtrl &= ((uint32) ~comm_RS485_UART_RX_FIFO_CTRL_TRIGGER_LEVEL_MASK); /* Clear level mask 
 178              		.loc 1 248 0
 179 0002 0722     		mov	r2, #7
 246:.\Generated_Source\PSoC4/comm_RS485_UART.c ****     rxFifoCtrl = comm_RS485_UART_RX_FIFO_CTRL_REG;
 180              		.loc 1 246 0
 181 0004 1968     		ldr	r1, [r3]
 182              	.LVL7:
 252:.\Generated_Source\PSoC4/comm_RS485_UART.c **** }
 183              		.loc 1 252 0
 184              		@ sp needed
 248:.\Generated_Source\PSoC4/comm_RS485_UART.c ****     rxFifoCtrl &= ((uint32) ~comm_RS485_UART_RX_FIFO_CTRL_TRIGGER_LEVEL_MASK); /* Clear level mask 
 185              		.loc 1 248 0
 186 0006 9143     		bic	r1, r2
 187              	.LVL8:
 249:.\Generated_Source\PSoC4/comm_RS485_UART.c ****     rxFifoCtrl |= ((uint32) (comm_RS485_UART_RX_FIFO_CTRL_TRIGGER_LEVEL_MASK & level));
 188              		.loc 1 249 0
 189 0008 0240     		and	r2, r0
 190 000a 0A43     		orr	r2, r1
 191              	.LVL9:
 251:.\Generated_Source\PSoC4/comm_RS485_UART.c ****     comm_RS485_UART_RX_FIFO_CTRL_REG = rxFifoCtrl;
 192              		.loc 1 251 0
 193 000c 1A60     		str	r2, [r3]
 252:.\Generated_Source\PSoC4/comm_RS485_UART.c **** }
 194              		.loc 1 252 0
 195 000e 7047     		bx	lr
 196              	.L15:
 197              		.align	2
 198              	.L14:
 199 0010 04030640 		.word	1074135812
 200              		.cfi_endproc
 201              	.LFE4:
ARM GAS  C:\Users\SDEVAS~1\AppData\Local\Temp\ccmGsKgx.s 			page 11


 202              		.size	comm_RS485_UART_SetRxFifoLevel, .-comm_RS485_UART_SetRxFifoLevel
 203              		.section	.text.comm_RS485_UART_SetTxFifoLevel,"ax",%progbits
 204              		.align	1
 205              		.global	comm_RS485_UART_SetTxFifoLevel
 206              		.code	16
 207              		.thumb_func
 208              		.type	comm_RS485_UART_SetTxFifoLevel, %function
 209              	comm_RS485_UART_SetTxFifoLevel:
 210              	.LFB5:
 273:.\Generated_Source\PSoC4/comm_RS485_UART.c **** {
 211              		.loc 1 273 0
 212              		.cfi_startproc
 213              	.LVL10:
 276:.\Generated_Source\PSoC4/comm_RS485_UART.c ****     txFifoCtrl = comm_RS485_UART_TX_FIFO_CTRL_REG;
 214              		.loc 1 276 0
 215 0000 034B     		ldr	r3, .L17
 278:.\Generated_Source\PSoC4/comm_RS485_UART.c ****     txFifoCtrl &= ((uint32) ~comm_RS485_UART_TX_FIFO_CTRL_TRIGGER_LEVEL_MASK); /* Clear level mask 
 216              		.loc 1 278 0
 217 0002 0722     		mov	r2, #7
 276:.\Generated_Source\PSoC4/comm_RS485_UART.c ****     txFifoCtrl = comm_RS485_UART_TX_FIFO_CTRL_REG;
 218              		.loc 1 276 0
 219 0004 1968     		ldr	r1, [r3]
 220              	.LVL11:
 282:.\Generated_Source\PSoC4/comm_RS485_UART.c **** }
 221              		.loc 1 282 0
 222              		@ sp needed
 278:.\Generated_Source\PSoC4/comm_RS485_UART.c ****     txFifoCtrl &= ((uint32) ~comm_RS485_UART_TX_FIFO_CTRL_TRIGGER_LEVEL_MASK); /* Clear level mask 
 223              		.loc 1 278 0
 224 0006 9143     		bic	r1, r2
 225              	.LVL12:
 279:.\Generated_Source\PSoC4/comm_RS485_UART.c ****     txFifoCtrl |= ((uint32) (comm_RS485_UART_TX_FIFO_CTRL_TRIGGER_LEVEL_MASK & level));
 226              		.loc 1 279 0
 227 0008 0240     		and	r2, r0
 228 000a 0A43     		orr	r2, r1
 229              	.LVL13:
 281:.\Generated_Source\PSoC4/comm_RS485_UART.c ****     comm_RS485_UART_TX_FIFO_CTRL_REG = txFifoCtrl;
 230              		.loc 1 281 0
 231 000c 1A60     		str	r2, [r3]
 282:.\Generated_Source\PSoC4/comm_RS485_UART.c **** }
 232              		.loc 1 282 0
 233 000e 7047     		bx	lr
 234              	.L18:
 235              		.align	2
 236              	.L17:
 237 0010 04020640 		.word	1074135556
 238              		.cfi_endproc
 239              	.LFE5:
 240              		.size	comm_RS485_UART_SetTxFifoLevel, .-comm_RS485_UART_SetTxFifoLevel
 241              		.section	.text.comm_RS485_UART_SetCustomInterruptHandler,"ax",%progbits
 242              		.align	1
 243              		.global	comm_RS485_UART_SetCustomInterruptHandler
 244              		.code	16
 245              		.thumb_func
 246              		.type	comm_RS485_UART_SetCustomInterruptHandler, %function
 247              	comm_RS485_UART_SetCustomInterruptHandler:
 248              	.LFB6:
 308:.\Generated_Source\PSoC4/comm_RS485_UART.c **** {
ARM GAS  C:\Users\SDEVAS~1\AppData\Local\Temp\ccmGsKgx.s 			page 12


 249              		.loc 1 308 0
 250              		.cfi_startproc
 251              	.LVL14:
 310:.\Generated_Source\PSoC4/comm_RS485_UART.c ****     comm_RS485_UART_customIntrHandler = func; /* Register interrupt handler */
 252              		.loc 1 310 0
 253 0000 014B     		ldr	r3, .L20
 317:.\Generated_Source\PSoC4/comm_RS485_UART.c **** }
 254              		.loc 1 317 0
 255              		@ sp needed
 310:.\Generated_Source\PSoC4/comm_RS485_UART.c ****     comm_RS485_UART_customIntrHandler = func; /* Register interrupt handler */
 256              		.loc 1 310 0
 257 0002 5860     		str	r0, [r3, #4]
 317:.\Generated_Source\PSoC4/comm_RS485_UART.c **** }
 258              		.loc 1 317 0
 259 0004 7047     		bx	lr
 260              	.L21:
 261 0006 C046     		.align	2
 262              	.L20:
 263 0008 00000000 		.word	.LANCHOR0
 264              		.cfi_endproc
 265              	.LFE6:
 266              		.size	comm_RS485_UART_SetCustomInterruptHandler, .-comm_RS485_UART_SetCustomInterruptHandler
 267              		.section	.text.comm_RS485_UART_I2CSlaveNackGeneration,"ax",%progbits
 268              		.align	1
 269              		.global	comm_RS485_UART_I2CSlaveNackGeneration
 270              		.code	16
 271              		.thumb_func
 272              		.type	comm_RS485_UART_I2CSlaveNackGeneration, %function
 273              	comm_RS485_UART_I2CSlaveNackGeneration:
 274              	.LFB9:
 345:.\Generated_Source\PSoC4/comm_RS485_UART.c **** 
 346:.\Generated_Source\PSoC4/comm_RS485_UART.c ****     #endif /* (comm_RS485_UART_SCB_MODE_UNCONFIG_CONST_CFG) */
 347:.\Generated_Source\PSoC4/comm_RS485_UART.c **** #endif /* (comm_RS485_UART_SCB_IRQ_INTERNAL) */
 348:.\Generated_Source\PSoC4/comm_RS485_UART.c **** }
 349:.\Generated_Source\PSoC4/comm_RS485_UART.c **** 
 350:.\Generated_Source\PSoC4/comm_RS485_UART.c **** 
 351:.\Generated_Source\PSoC4/comm_RS485_UART.c **** /*******************************************************************************
 352:.\Generated_Source\PSoC4/comm_RS485_UART.c **** * Function Name: comm_RS485_UART_ScbModeStop
 353:.\Generated_Source\PSoC4/comm_RS485_UART.c **** ********************************************************************************
 354:.\Generated_Source\PSoC4/comm_RS485_UART.c **** *
 355:.\Generated_Source\PSoC4/comm_RS485_UART.c **** * Summary:
 356:.\Generated_Source\PSoC4/comm_RS485_UART.c **** *  Calls the Stop function for a specific operation mode.
 357:.\Generated_Source\PSoC4/comm_RS485_UART.c **** *
 358:.\Generated_Source\PSoC4/comm_RS485_UART.c **** * Parameters:
 359:.\Generated_Source\PSoC4/comm_RS485_UART.c **** *  None
 360:.\Generated_Source\PSoC4/comm_RS485_UART.c **** *
 361:.\Generated_Source\PSoC4/comm_RS485_UART.c **** * Return:
 362:.\Generated_Source\PSoC4/comm_RS485_UART.c **** *  None
 363:.\Generated_Source\PSoC4/comm_RS485_UART.c **** *
 364:.\Generated_Source\PSoC4/comm_RS485_UART.c **** *******************************************************************************/
 365:.\Generated_Source\PSoC4/comm_RS485_UART.c **** static void comm_RS485_UART_ScbModeStop(void)
 366:.\Generated_Source\PSoC4/comm_RS485_UART.c **** {
 367:.\Generated_Source\PSoC4/comm_RS485_UART.c **** #if(comm_RS485_UART_SCB_MODE_UNCONFIG_CONST_CFG)
 368:.\Generated_Source\PSoC4/comm_RS485_UART.c ****     if(comm_RS485_UART_SCB_MODE_I2C_RUNTM_CFG)
 369:.\Generated_Source\PSoC4/comm_RS485_UART.c ****     {
 370:.\Generated_Source\PSoC4/comm_RS485_UART.c ****         comm_RS485_UART_I2CStop();
 371:.\Generated_Source\PSoC4/comm_RS485_UART.c ****     }
ARM GAS  C:\Users\SDEVAS~1\AppData\Local\Temp\ccmGsKgx.s 			page 13


 372:.\Generated_Source\PSoC4/comm_RS485_UART.c ****     else if (comm_RS485_UART_SCB_MODE_EZI2C_RUNTM_CFG)
 373:.\Generated_Source\PSoC4/comm_RS485_UART.c ****     {
 374:.\Generated_Source\PSoC4/comm_RS485_UART.c ****         comm_RS485_UART_EzI2CStop();
 375:.\Generated_Source\PSoC4/comm_RS485_UART.c ****     }
 376:.\Generated_Source\PSoC4/comm_RS485_UART.c **** #if (!comm_RS485_UART_CY_SCBIP_V1)
 377:.\Generated_Source\PSoC4/comm_RS485_UART.c ****     else if (comm_RS485_UART_SCB_MODE_UART_RUNTM_CFG)
 378:.\Generated_Source\PSoC4/comm_RS485_UART.c ****     {
 379:.\Generated_Source\PSoC4/comm_RS485_UART.c ****         comm_RS485_UART_UartStop();
 380:.\Generated_Source\PSoC4/comm_RS485_UART.c ****     }
 381:.\Generated_Source\PSoC4/comm_RS485_UART.c **** #endif /* (!comm_RS485_UART_CY_SCBIP_V1) */
 382:.\Generated_Source\PSoC4/comm_RS485_UART.c ****     else
 383:.\Generated_Source\PSoC4/comm_RS485_UART.c ****     {
 384:.\Generated_Source\PSoC4/comm_RS485_UART.c ****         /* Do nothing for other modes */
 385:.\Generated_Source\PSoC4/comm_RS485_UART.c ****     }
 386:.\Generated_Source\PSoC4/comm_RS485_UART.c **** #elif(comm_RS485_UART_SCB_MODE_I2C_CONST_CFG)
 387:.\Generated_Source\PSoC4/comm_RS485_UART.c ****     comm_RS485_UART_I2CStop();
 388:.\Generated_Source\PSoC4/comm_RS485_UART.c **** 
 389:.\Generated_Source\PSoC4/comm_RS485_UART.c **** #elif(comm_RS485_UART_SCB_MODE_EZI2C_CONST_CFG)
 390:.\Generated_Source\PSoC4/comm_RS485_UART.c ****     comm_RS485_UART_EzI2CStop();
 391:.\Generated_Source\PSoC4/comm_RS485_UART.c **** 
 392:.\Generated_Source\PSoC4/comm_RS485_UART.c **** #elif(comm_RS485_UART_SCB_MODE_UART_CONST_CFG)
 393:.\Generated_Source\PSoC4/comm_RS485_UART.c ****     comm_RS485_UART_UartStop();
 394:.\Generated_Source\PSoC4/comm_RS485_UART.c **** 
 395:.\Generated_Source\PSoC4/comm_RS485_UART.c **** #endif /* (comm_RS485_UART_SCB_MODE_UNCONFIG_CONST_CFG) */
 396:.\Generated_Source\PSoC4/comm_RS485_UART.c **** }
 397:.\Generated_Source\PSoC4/comm_RS485_UART.c **** 
 398:.\Generated_Source\PSoC4/comm_RS485_UART.c **** 
 399:.\Generated_Source\PSoC4/comm_RS485_UART.c **** #if(comm_RS485_UART_SCB_MODE_UNCONFIG_CONST_CFG)
 400:.\Generated_Source\PSoC4/comm_RS485_UART.c ****     /*******************************************************************************
 401:.\Generated_Source\PSoC4/comm_RS485_UART.c ****     * Function Name: comm_RS485_UART_SetPins
 402:.\Generated_Source\PSoC4/comm_RS485_UART.c ****     ********************************************************************************
 403:.\Generated_Source\PSoC4/comm_RS485_UART.c ****     *
 404:.\Generated_Source\PSoC4/comm_RS485_UART.c ****     * Summary:
 405:.\Generated_Source\PSoC4/comm_RS485_UART.c ****     *  Sets the pins settings accordingly to the selected operation mode.
 406:.\Generated_Source\PSoC4/comm_RS485_UART.c ****     *  Only available in the Unconfigured operation mode. The mode specific
 407:.\Generated_Source\PSoC4/comm_RS485_UART.c ****     *  initialization function calls it.
 408:.\Generated_Source\PSoC4/comm_RS485_UART.c ****     *  Pins configuration is set by PSoC Creator when a specific mode of operation
 409:.\Generated_Source\PSoC4/comm_RS485_UART.c ****     *  is selected in design time.
 410:.\Generated_Source\PSoC4/comm_RS485_UART.c ****     *
 411:.\Generated_Source\PSoC4/comm_RS485_UART.c ****     * Parameters:
 412:.\Generated_Source\PSoC4/comm_RS485_UART.c ****     *  mode:      Mode of SCB operation.
 413:.\Generated_Source\PSoC4/comm_RS485_UART.c ****     *  subMode:   Sub-mode of SCB operation. It is only required for SPI and UART
 414:.\Generated_Source\PSoC4/comm_RS485_UART.c ****     *             modes.
 415:.\Generated_Source\PSoC4/comm_RS485_UART.c ****     *  uartEnableMask: enables TX or RX direction and RTS and CTS signals.
 416:.\Generated_Source\PSoC4/comm_RS485_UART.c ****     *
 417:.\Generated_Source\PSoC4/comm_RS485_UART.c ****     * Return:
 418:.\Generated_Source\PSoC4/comm_RS485_UART.c ****     *  None
 419:.\Generated_Source\PSoC4/comm_RS485_UART.c ****     *
 420:.\Generated_Source\PSoC4/comm_RS485_UART.c ****     *******************************************************************************/
 421:.\Generated_Source\PSoC4/comm_RS485_UART.c ****     void comm_RS485_UART_SetPins(uint32 mode, uint32 subMode, uint32 uartEnableMask)
 422:.\Generated_Source\PSoC4/comm_RS485_UART.c ****     {
 423:.\Generated_Source\PSoC4/comm_RS485_UART.c ****         uint32 hsiomSel [comm_RS485_UART_SCB_PINS_NUMBER];
 424:.\Generated_Source\PSoC4/comm_RS485_UART.c ****         uint32 pinsDm   [comm_RS485_UART_SCB_PINS_NUMBER];
 425:.\Generated_Source\PSoC4/comm_RS485_UART.c **** 
 426:.\Generated_Source\PSoC4/comm_RS485_UART.c ****     #if (!comm_RS485_UART_CY_SCBIP_V1)
 427:.\Generated_Source\PSoC4/comm_RS485_UART.c ****         uint32 pinsInBuf = 0u;
 428:.\Generated_Source\PSoC4/comm_RS485_UART.c ****     #endif /* (!comm_RS485_UART_CY_SCBIP_V1) */
ARM GAS  C:\Users\SDEVAS~1\AppData\Local\Temp\ccmGsKgx.s 			page 14


 429:.\Generated_Source\PSoC4/comm_RS485_UART.c **** 
 430:.\Generated_Source\PSoC4/comm_RS485_UART.c ****         uint32 i;
 431:.\Generated_Source\PSoC4/comm_RS485_UART.c **** 
 432:.\Generated_Source\PSoC4/comm_RS485_UART.c ****         /* Set default HSIOM to GPIO and Drive Mode to Analog Hi-Z */
 433:.\Generated_Source\PSoC4/comm_RS485_UART.c ****         for(i = 0u; i < comm_RS485_UART_SCB_PINS_NUMBER; i++)
 434:.\Generated_Source\PSoC4/comm_RS485_UART.c ****         {
 435:.\Generated_Source\PSoC4/comm_RS485_UART.c ****             hsiomSel[i]  = comm_RS485_UART_HSIOM_DEF_SEL;
 436:.\Generated_Source\PSoC4/comm_RS485_UART.c ****             pinsDm[i]    = comm_RS485_UART_PIN_DM_ALG_HIZ;
 437:.\Generated_Source\PSoC4/comm_RS485_UART.c ****         }
 438:.\Generated_Source\PSoC4/comm_RS485_UART.c **** 
 439:.\Generated_Source\PSoC4/comm_RS485_UART.c ****         if((comm_RS485_UART_SCB_MODE_I2C   == mode) ||
 440:.\Generated_Source\PSoC4/comm_RS485_UART.c ****            (comm_RS485_UART_SCB_MODE_EZI2C == mode))
 441:.\Generated_Source\PSoC4/comm_RS485_UART.c ****         {
 442:.\Generated_Source\PSoC4/comm_RS485_UART.c ****             hsiomSel[comm_RS485_UART_MOSI_SCL_RX_PIN_INDEX] = comm_RS485_UART_HSIOM_I2C_SEL;
 443:.\Generated_Source\PSoC4/comm_RS485_UART.c ****             hsiomSel[comm_RS485_UART_MISO_SDA_TX_PIN_INDEX] = comm_RS485_UART_HSIOM_I2C_SEL;
 444:.\Generated_Source\PSoC4/comm_RS485_UART.c **** 
 445:.\Generated_Source\PSoC4/comm_RS485_UART.c ****             pinsDm[comm_RS485_UART_MOSI_SCL_RX_PIN_INDEX] = comm_RS485_UART_PIN_DM_OD_LO;
 446:.\Generated_Source\PSoC4/comm_RS485_UART.c ****             pinsDm[comm_RS485_UART_MISO_SDA_TX_PIN_INDEX] = comm_RS485_UART_PIN_DM_OD_LO;
 447:.\Generated_Source\PSoC4/comm_RS485_UART.c ****         }
 448:.\Generated_Source\PSoC4/comm_RS485_UART.c ****     #if (!comm_RS485_UART_CY_SCBIP_V1)
 449:.\Generated_Source\PSoC4/comm_RS485_UART.c ****         else if(comm_RS485_UART_SCB_MODE_SPI == mode)
 450:.\Generated_Source\PSoC4/comm_RS485_UART.c ****         {
 451:.\Generated_Source\PSoC4/comm_RS485_UART.c ****             hsiomSel[comm_RS485_UART_MOSI_SCL_RX_PIN_INDEX] = comm_RS485_UART_HSIOM_SPI_SEL;
 452:.\Generated_Source\PSoC4/comm_RS485_UART.c ****             hsiomSel[comm_RS485_UART_MISO_SDA_TX_PIN_INDEX] = comm_RS485_UART_HSIOM_SPI_SEL;
 453:.\Generated_Source\PSoC4/comm_RS485_UART.c ****             hsiomSel[comm_RS485_UART_SCLK_PIN_INDEX]        = comm_RS485_UART_HSIOM_SPI_SEL;
 454:.\Generated_Source\PSoC4/comm_RS485_UART.c **** 
 455:.\Generated_Source\PSoC4/comm_RS485_UART.c ****             if(comm_RS485_UART_SPI_SLAVE == subMode)
 456:.\Generated_Source\PSoC4/comm_RS485_UART.c ****             {
 457:.\Generated_Source\PSoC4/comm_RS485_UART.c ****                 /* Slave */
 458:.\Generated_Source\PSoC4/comm_RS485_UART.c ****                 pinsDm[comm_RS485_UART_MOSI_SCL_RX_PIN_INDEX] = comm_RS485_UART_PIN_DM_DIG_HIZ;
 459:.\Generated_Source\PSoC4/comm_RS485_UART.c ****                 pinsDm[comm_RS485_UART_MISO_SDA_TX_PIN_INDEX] = comm_RS485_UART_PIN_DM_STRONG;
 460:.\Generated_Source\PSoC4/comm_RS485_UART.c ****                 pinsDm[comm_RS485_UART_SCLK_PIN_INDEX]        = comm_RS485_UART_PIN_DM_DIG_HIZ;
 461:.\Generated_Source\PSoC4/comm_RS485_UART.c **** 
 462:.\Generated_Source\PSoC4/comm_RS485_UART.c ****             #if(comm_RS485_UART_SS0_PIN)
 463:.\Generated_Source\PSoC4/comm_RS485_UART.c ****                 /* Only SS0 is valid choice for Slave */
 464:.\Generated_Source\PSoC4/comm_RS485_UART.c ****                 hsiomSel[comm_RS485_UART_SS0_PIN_INDEX] = comm_RS485_UART_HSIOM_SPI_SEL;
 465:.\Generated_Source\PSoC4/comm_RS485_UART.c ****                 pinsDm  [comm_RS485_UART_SS0_PIN_INDEX] = comm_RS485_UART_PIN_DM_DIG_HIZ;
 466:.\Generated_Source\PSoC4/comm_RS485_UART.c ****             #endif /* (comm_RS485_UART_SS1_PIN) */
 467:.\Generated_Source\PSoC4/comm_RS485_UART.c **** 
 468:.\Generated_Source\PSoC4/comm_RS485_UART.c ****             #if(comm_RS485_UART_MISO_SDA_TX_PIN)
 469:.\Generated_Source\PSoC4/comm_RS485_UART.c ****                 /* Disable input buffer */
 470:.\Generated_Source\PSoC4/comm_RS485_UART.c ****                  pinsInBuf |= comm_RS485_UART_MISO_SDA_TX_PIN_MASK;
 471:.\Generated_Source\PSoC4/comm_RS485_UART.c ****             #endif /* (comm_RS485_UART_MISO_SDA_TX_PIN_PIN) */
 472:.\Generated_Source\PSoC4/comm_RS485_UART.c ****             }
 473:.\Generated_Source\PSoC4/comm_RS485_UART.c ****             else /* (Master) */
 474:.\Generated_Source\PSoC4/comm_RS485_UART.c ****             {
 475:.\Generated_Source\PSoC4/comm_RS485_UART.c ****                 pinsDm[comm_RS485_UART_MOSI_SCL_RX_PIN_INDEX] = comm_RS485_UART_PIN_DM_STRONG;
 476:.\Generated_Source\PSoC4/comm_RS485_UART.c ****                 pinsDm[comm_RS485_UART_MISO_SDA_TX_PIN_INDEX] = comm_RS485_UART_PIN_DM_DIG_HIZ;
 477:.\Generated_Source\PSoC4/comm_RS485_UART.c ****                 pinsDm[comm_RS485_UART_SCLK_PIN_INDEX]        = comm_RS485_UART_PIN_DM_STRONG;
 478:.\Generated_Source\PSoC4/comm_RS485_UART.c **** 
 479:.\Generated_Source\PSoC4/comm_RS485_UART.c ****             #if(comm_RS485_UART_SS0_PIN)
 480:.\Generated_Source\PSoC4/comm_RS485_UART.c ****                 hsiomSel [comm_RS485_UART_SS0_PIN_INDEX] = comm_RS485_UART_HSIOM_SPI_SEL;
 481:.\Generated_Source\PSoC4/comm_RS485_UART.c ****                 pinsDm   [comm_RS485_UART_SS0_PIN_INDEX] = comm_RS485_UART_PIN_DM_STRONG;
 482:.\Generated_Source\PSoC4/comm_RS485_UART.c ****                 pinsInBuf                                |= comm_RS485_UART_SS0_PIN_MASK;
 483:.\Generated_Source\PSoC4/comm_RS485_UART.c ****             #endif /* (comm_RS485_UART_SS0_PIN) */
 484:.\Generated_Source\PSoC4/comm_RS485_UART.c **** 
 485:.\Generated_Source\PSoC4/comm_RS485_UART.c ****             #if(comm_RS485_UART_SS1_PIN)
ARM GAS  C:\Users\SDEVAS~1\AppData\Local\Temp\ccmGsKgx.s 			page 15


 486:.\Generated_Source\PSoC4/comm_RS485_UART.c ****                 hsiomSel [comm_RS485_UART_SS1_PIN_INDEX] = comm_RS485_UART_HSIOM_SPI_SEL;
 487:.\Generated_Source\PSoC4/comm_RS485_UART.c ****                 pinsDm   [comm_RS485_UART_SS1_PIN_INDEX] = comm_RS485_UART_PIN_DM_STRONG;
 488:.\Generated_Source\PSoC4/comm_RS485_UART.c ****                 pinsInBuf                                |= comm_RS485_UART_SS1_PIN_MASK;
 489:.\Generated_Source\PSoC4/comm_RS485_UART.c ****             #endif /* (comm_RS485_UART_SS1_PIN) */
 490:.\Generated_Source\PSoC4/comm_RS485_UART.c **** 
 491:.\Generated_Source\PSoC4/comm_RS485_UART.c ****             #if(comm_RS485_UART_SS2_PIN)
 492:.\Generated_Source\PSoC4/comm_RS485_UART.c ****                 hsiomSel [comm_RS485_UART_SS2_PIN_INDEX] = comm_RS485_UART_HSIOM_SPI_SEL;
 493:.\Generated_Source\PSoC4/comm_RS485_UART.c ****                 pinsDm   [comm_RS485_UART_SS2_PIN_INDEX] = comm_RS485_UART_PIN_DM_STRONG;
 494:.\Generated_Source\PSoC4/comm_RS485_UART.c ****                 pinsInBuf                                |= comm_RS485_UART_SS2_PIN_MASK;
 495:.\Generated_Source\PSoC4/comm_RS485_UART.c ****             #endif /* (comm_RS485_UART_SS2_PIN) */
 496:.\Generated_Source\PSoC4/comm_RS485_UART.c **** 
 497:.\Generated_Source\PSoC4/comm_RS485_UART.c ****             #if(comm_RS485_UART_SS3_PIN)
 498:.\Generated_Source\PSoC4/comm_RS485_UART.c ****                 hsiomSel [comm_RS485_UART_SS3_PIN_INDEX] = comm_RS485_UART_HSIOM_SPI_SEL;
 499:.\Generated_Source\PSoC4/comm_RS485_UART.c ****                 pinsDm   [comm_RS485_UART_SS3_PIN_INDEX] = comm_RS485_UART_PIN_DM_STRONG;
 500:.\Generated_Source\PSoC4/comm_RS485_UART.c ****                 pinsInBuf                                |= comm_RS485_UART_SS3_PIN_MASK;
 501:.\Generated_Source\PSoC4/comm_RS485_UART.c ****             #endif /* (comm_RS485_UART_SS2_PIN) */
 502:.\Generated_Source\PSoC4/comm_RS485_UART.c **** 
 503:.\Generated_Source\PSoC4/comm_RS485_UART.c ****                 /* Disable input buffers */
 504:.\Generated_Source\PSoC4/comm_RS485_UART.c ****             #if(comm_RS485_UART_MOSI_SCL_RX_PIN)
 505:.\Generated_Source\PSoC4/comm_RS485_UART.c ****                 pinsInBuf |= comm_RS485_UART_MOSI_SCL_RX_PIN_MASK;
 506:.\Generated_Source\PSoC4/comm_RS485_UART.c ****             #endif /* (comm_RS485_UART_MOSI_SCL_RX_PIN) */
 507:.\Generated_Source\PSoC4/comm_RS485_UART.c **** 
 508:.\Generated_Source\PSoC4/comm_RS485_UART.c ****              #if(comm_RS485_UART_MOSI_SCL_RX_WAKE_PIN)
 509:.\Generated_Source\PSoC4/comm_RS485_UART.c ****                 pinsInBuf |= comm_RS485_UART_MOSI_SCL_RX_WAKE_PIN_MASK;
 510:.\Generated_Source\PSoC4/comm_RS485_UART.c ****             #endif /* (comm_RS485_UART_MOSI_SCL_RX_WAKE_PIN) */
 511:.\Generated_Source\PSoC4/comm_RS485_UART.c **** 
 512:.\Generated_Source\PSoC4/comm_RS485_UART.c ****             #if(comm_RS485_UART_SCLK_PIN)
 513:.\Generated_Source\PSoC4/comm_RS485_UART.c ****                 pinsInBuf |= comm_RS485_UART_SCLK_PIN_MASK;
 514:.\Generated_Source\PSoC4/comm_RS485_UART.c ****             #endif /* (comm_RS485_UART_SCLK_PIN) */
 515:.\Generated_Source\PSoC4/comm_RS485_UART.c ****             }
 516:.\Generated_Source\PSoC4/comm_RS485_UART.c ****         }
 517:.\Generated_Source\PSoC4/comm_RS485_UART.c ****         else /* UART */
 518:.\Generated_Source\PSoC4/comm_RS485_UART.c ****         {
 519:.\Generated_Source\PSoC4/comm_RS485_UART.c ****             if(comm_RS485_UART_UART_MODE_SMARTCARD == subMode)
 520:.\Generated_Source\PSoC4/comm_RS485_UART.c ****             {
 521:.\Generated_Source\PSoC4/comm_RS485_UART.c ****                 /* SmartCard */
 522:.\Generated_Source\PSoC4/comm_RS485_UART.c ****                 hsiomSel[comm_RS485_UART_MISO_SDA_TX_PIN_INDEX] = comm_RS485_UART_HSIOM_UART_SEL;
 523:.\Generated_Source\PSoC4/comm_RS485_UART.c ****                 pinsDm  [comm_RS485_UART_MISO_SDA_TX_PIN_INDEX] = comm_RS485_UART_PIN_DM_OD_LO;
 524:.\Generated_Source\PSoC4/comm_RS485_UART.c ****             }
 525:.\Generated_Source\PSoC4/comm_RS485_UART.c ****             else /* Standard or IrDA */
 526:.\Generated_Source\PSoC4/comm_RS485_UART.c ****             {
 527:.\Generated_Source\PSoC4/comm_RS485_UART.c ****                 if(0u != (comm_RS485_UART_UART_RX_PIN_ENABLE & uartEnableMask))
 528:.\Generated_Source\PSoC4/comm_RS485_UART.c ****                 {
 529:.\Generated_Source\PSoC4/comm_RS485_UART.c ****                     hsiomSel[comm_RS485_UART_MOSI_SCL_RX_PIN_INDEX] = comm_RS485_UART_HSIOM_UART_SE
 530:.\Generated_Source\PSoC4/comm_RS485_UART.c ****                     pinsDm  [comm_RS485_UART_MOSI_SCL_RX_PIN_INDEX] = comm_RS485_UART_PIN_DM_DIG_HI
 531:.\Generated_Source\PSoC4/comm_RS485_UART.c ****                 }
 532:.\Generated_Source\PSoC4/comm_RS485_UART.c **** 
 533:.\Generated_Source\PSoC4/comm_RS485_UART.c ****                 if(0u != (comm_RS485_UART_UART_TX_PIN_ENABLE & uartEnableMask))
 534:.\Generated_Source\PSoC4/comm_RS485_UART.c ****                 {
 535:.\Generated_Source\PSoC4/comm_RS485_UART.c ****                     hsiomSel[comm_RS485_UART_MISO_SDA_TX_PIN_INDEX] = comm_RS485_UART_HSIOM_UART_SE
 536:.\Generated_Source\PSoC4/comm_RS485_UART.c ****                     pinsDm  [comm_RS485_UART_MISO_SDA_TX_PIN_INDEX] = comm_RS485_UART_PIN_DM_STRONG
 537:.\Generated_Source\PSoC4/comm_RS485_UART.c **** 
 538:.\Generated_Source\PSoC4/comm_RS485_UART.c ****                 #if(comm_RS485_UART_MISO_SDA_TX_PIN)
 539:.\Generated_Source\PSoC4/comm_RS485_UART.c ****                      pinsInBuf |= comm_RS485_UART_MISO_SDA_TX_PIN_MASK;
 540:.\Generated_Source\PSoC4/comm_RS485_UART.c ****                 #endif /* (comm_RS485_UART_MISO_SDA_TX_PIN_PIN) */
 541:.\Generated_Source\PSoC4/comm_RS485_UART.c ****                 }
 542:.\Generated_Source\PSoC4/comm_RS485_UART.c **** 
ARM GAS  C:\Users\SDEVAS~1\AppData\Local\Temp\ccmGsKgx.s 			page 16


 543:.\Generated_Source\PSoC4/comm_RS485_UART.c ****             #if !(comm_RS485_UART_CY_SCBIP_V0 || comm_RS485_UART_CY_SCBIP_V1)
 544:.\Generated_Source\PSoC4/comm_RS485_UART.c ****                 if(comm_RS485_UART_UART_MODE_STD == subMode)
 545:.\Generated_Source\PSoC4/comm_RS485_UART.c ****                 {
 546:.\Generated_Source\PSoC4/comm_RS485_UART.c ****                     if(0u != (comm_RS485_UART_UART_CTS_PIN_ENABLE & uartEnableMask))
 547:.\Generated_Source\PSoC4/comm_RS485_UART.c ****                     {
 548:.\Generated_Source\PSoC4/comm_RS485_UART.c ****                         /* CTS input is multiplexed with SCLK */
 549:.\Generated_Source\PSoC4/comm_RS485_UART.c ****                         hsiomSel[comm_RS485_UART_SCLK_PIN_INDEX] = comm_RS485_UART_HSIOM_UART_SEL;
 550:.\Generated_Source\PSoC4/comm_RS485_UART.c ****                         pinsDm  [comm_RS485_UART_SCLK_PIN_INDEX] = comm_RS485_UART_PIN_DM_DIG_HIZ;
 551:.\Generated_Source\PSoC4/comm_RS485_UART.c ****                     }
 552:.\Generated_Source\PSoC4/comm_RS485_UART.c **** 
 553:.\Generated_Source\PSoC4/comm_RS485_UART.c ****                     if(0u != (comm_RS485_UART_UART_RTS_PIN_ENABLE & uartEnableMask))
 554:.\Generated_Source\PSoC4/comm_RS485_UART.c ****                     {
 555:.\Generated_Source\PSoC4/comm_RS485_UART.c ****                         /* RTS output is multiplexed with SS0 */
 556:.\Generated_Source\PSoC4/comm_RS485_UART.c ****                         hsiomSel[comm_RS485_UART_SS0_PIN_INDEX] = comm_RS485_UART_HSIOM_UART_SEL;
 557:.\Generated_Source\PSoC4/comm_RS485_UART.c ****                         pinsDm  [comm_RS485_UART_SS0_PIN_INDEX] = comm_RS485_UART_PIN_DM_STRONG;
 558:.\Generated_Source\PSoC4/comm_RS485_UART.c **** 
 559:.\Generated_Source\PSoC4/comm_RS485_UART.c ****                     #if(comm_RS485_UART_SS0_PIN)
 560:.\Generated_Source\PSoC4/comm_RS485_UART.c ****                         /* Disable input buffer */
 561:.\Generated_Source\PSoC4/comm_RS485_UART.c ****                         pinsInBuf |= comm_RS485_UART_SS0_PIN_MASK;
 562:.\Generated_Source\PSoC4/comm_RS485_UART.c ****                     #endif /* (comm_RS485_UART_SS0_PIN) */
 563:.\Generated_Source\PSoC4/comm_RS485_UART.c ****                     }
 564:.\Generated_Source\PSoC4/comm_RS485_UART.c ****                 }
 565:.\Generated_Source\PSoC4/comm_RS485_UART.c ****             #endif /* !(comm_RS485_UART_CY_SCBIP_V0 || comm_RS485_UART_CY_SCBIP_V1) */
 566:.\Generated_Source\PSoC4/comm_RS485_UART.c ****             }
 567:.\Generated_Source\PSoC4/comm_RS485_UART.c ****         }
 568:.\Generated_Source\PSoC4/comm_RS485_UART.c ****     #endif /* (!comm_RS485_UART_CY_SCBIP_V1) */
 569:.\Generated_Source\PSoC4/comm_RS485_UART.c **** 
 570:.\Generated_Source\PSoC4/comm_RS485_UART.c ****     /* Configure pins: set HSIOM, DM and InputBufEnable */
 571:.\Generated_Source\PSoC4/comm_RS485_UART.c ****     /* Note: the DR register settings do not effect the pin output if HSIOM is other than GPIO */
 572:.\Generated_Source\PSoC4/comm_RS485_UART.c **** 
 573:.\Generated_Source\PSoC4/comm_RS485_UART.c ****     #if(comm_RS485_UART_MOSI_SCL_RX_PIN)
 574:.\Generated_Source\PSoC4/comm_RS485_UART.c ****         comm_RS485_UART_SET_HSIOM_SEL(comm_RS485_UART_MOSI_SCL_RX_HSIOM_REG,
 575:.\Generated_Source\PSoC4/comm_RS485_UART.c ****                                        comm_RS485_UART_MOSI_SCL_RX_HSIOM_MASK,
 576:.\Generated_Source\PSoC4/comm_RS485_UART.c ****                                        comm_RS485_UART_MOSI_SCL_RX_HSIOM_POS,
 577:.\Generated_Source\PSoC4/comm_RS485_UART.c ****                                        hsiomSel[comm_RS485_UART_MOSI_SCL_RX_PIN_INDEX]);
 578:.\Generated_Source\PSoC4/comm_RS485_UART.c **** 
 579:.\Generated_Source\PSoC4/comm_RS485_UART.c ****         comm_RS485_UART_spi_mosi_i2c_scl_uart_rx_SetDriveMode((uint8) pinsDm[comm_RS485_UART_MOSI_S
 580:.\Generated_Source\PSoC4/comm_RS485_UART.c **** 
 581:.\Generated_Source\PSoC4/comm_RS485_UART.c ****     #if (!comm_RS485_UART_CY_SCBIP_V1)
 582:.\Generated_Source\PSoC4/comm_RS485_UART.c ****         comm_RS485_UART_SET_INP_DIS(comm_RS485_UART_spi_mosi_i2c_scl_uart_rx_INP_DIS,
 583:.\Generated_Source\PSoC4/comm_RS485_UART.c ****                                      comm_RS485_UART_spi_mosi_i2c_scl_uart_rx_MASK,
 584:.\Generated_Source\PSoC4/comm_RS485_UART.c ****                                      (0u != (pinsInBuf & comm_RS485_UART_MOSI_SCL_RX_PIN_MASK)));
 585:.\Generated_Source\PSoC4/comm_RS485_UART.c ****     #endif /* (!comm_RS485_UART_CY_SCBIP_V1) */
 586:.\Generated_Source\PSoC4/comm_RS485_UART.c ****     #endif /* (comm_RS485_UART_MOSI_SCL_RX_PIN) */
 587:.\Generated_Source\PSoC4/comm_RS485_UART.c **** 
 588:.\Generated_Source\PSoC4/comm_RS485_UART.c ****     #if(comm_RS485_UART_MOSI_SCL_RX_WAKE_PIN)
 589:.\Generated_Source\PSoC4/comm_RS485_UART.c ****         comm_RS485_UART_SET_HSIOM_SEL(comm_RS485_UART_MOSI_SCL_RX_WAKE_HSIOM_REG,
 590:.\Generated_Source\PSoC4/comm_RS485_UART.c ****                                        comm_RS485_UART_MOSI_SCL_RX_WAKE_HSIOM_MASK,
 591:.\Generated_Source\PSoC4/comm_RS485_UART.c ****                                        comm_RS485_UART_MOSI_SCL_RX_WAKE_HSIOM_POS,
 592:.\Generated_Source\PSoC4/comm_RS485_UART.c ****                                        hsiomSel[comm_RS485_UART_MOSI_SCL_RX_WAKE_PIN_INDEX]);
 593:.\Generated_Source\PSoC4/comm_RS485_UART.c **** 
 594:.\Generated_Source\PSoC4/comm_RS485_UART.c ****         comm_RS485_UART_spi_mosi_i2c_scl_uart_rx_wake_SetDriveMode((uint8)
 595:.\Generated_Source\PSoC4/comm_RS485_UART.c ****                                                                pinsDm[comm_RS485_UART_MOSI_SCL_RX_W
 596:.\Generated_Source\PSoC4/comm_RS485_UART.c **** 
 597:.\Generated_Source\PSoC4/comm_RS485_UART.c ****         comm_RS485_UART_SET_INP_DIS(comm_RS485_UART_spi_mosi_i2c_scl_uart_rx_wake_INP_DIS,
 598:.\Generated_Source\PSoC4/comm_RS485_UART.c ****                                      comm_RS485_UART_spi_mosi_i2c_scl_uart_rx_wake_MASK,
 599:.\Generated_Source\PSoC4/comm_RS485_UART.c ****                                      (0u != (pinsInBuf & comm_RS485_UART_MOSI_SCL_RX_WAKE_PIN_MASK)
ARM GAS  C:\Users\SDEVAS~1\AppData\Local\Temp\ccmGsKgx.s 			page 17


 600:.\Generated_Source\PSoC4/comm_RS485_UART.c **** 
 601:.\Generated_Source\PSoC4/comm_RS485_UART.c ****          /* Set interrupt on falling edge */
 602:.\Generated_Source\PSoC4/comm_RS485_UART.c ****         comm_RS485_UART_SET_INCFG_TYPE(comm_RS485_UART_MOSI_SCL_RX_WAKE_INTCFG_REG,
 603:.\Generated_Source\PSoC4/comm_RS485_UART.c ****                                         comm_RS485_UART_MOSI_SCL_RX_WAKE_INTCFG_TYPE_MASK,
 604:.\Generated_Source\PSoC4/comm_RS485_UART.c ****                                         comm_RS485_UART_MOSI_SCL_RX_WAKE_INTCFG_TYPE_POS,
 605:.\Generated_Source\PSoC4/comm_RS485_UART.c ****                                         comm_RS485_UART_INTCFG_TYPE_FALLING_EDGE);
 606:.\Generated_Source\PSoC4/comm_RS485_UART.c ****     #endif /* (comm_RS485_UART_MOSI_SCL_RX_WAKE_PIN) */
 607:.\Generated_Source\PSoC4/comm_RS485_UART.c **** 
 608:.\Generated_Source\PSoC4/comm_RS485_UART.c ****     #if(comm_RS485_UART_MISO_SDA_TX_PIN)
 609:.\Generated_Source\PSoC4/comm_RS485_UART.c ****         comm_RS485_UART_SET_HSIOM_SEL(comm_RS485_UART_MISO_SDA_TX_HSIOM_REG,
 610:.\Generated_Source\PSoC4/comm_RS485_UART.c ****                                        comm_RS485_UART_MISO_SDA_TX_HSIOM_MASK,
 611:.\Generated_Source\PSoC4/comm_RS485_UART.c ****                                        comm_RS485_UART_MISO_SDA_TX_HSIOM_POS,
 612:.\Generated_Source\PSoC4/comm_RS485_UART.c ****                                        hsiomSel[comm_RS485_UART_MISO_SDA_TX_PIN_INDEX]);
 613:.\Generated_Source\PSoC4/comm_RS485_UART.c **** 
 614:.\Generated_Source\PSoC4/comm_RS485_UART.c ****         comm_RS485_UART_spi_miso_i2c_sda_uart_tx_SetDriveMode((uint8) pinsDm[comm_RS485_UART_MISO_S
 615:.\Generated_Source\PSoC4/comm_RS485_UART.c **** 
 616:.\Generated_Source\PSoC4/comm_RS485_UART.c ****     #if (!comm_RS485_UART_CY_SCBIP_V1)
 617:.\Generated_Source\PSoC4/comm_RS485_UART.c ****         comm_RS485_UART_SET_INP_DIS(comm_RS485_UART_spi_miso_i2c_sda_uart_tx_INP_DIS,
 618:.\Generated_Source\PSoC4/comm_RS485_UART.c ****                                      comm_RS485_UART_spi_miso_i2c_sda_uart_tx_MASK,
 619:.\Generated_Source\PSoC4/comm_RS485_UART.c ****                                     (0u != (pinsInBuf & comm_RS485_UART_MISO_SDA_TX_PIN_MASK)));
 620:.\Generated_Source\PSoC4/comm_RS485_UART.c ****     #endif /* (!comm_RS485_UART_CY_SCBIP_V1) */
 621:.\Generated_Source\PSoC4/comm_RS485_UART.c ****     #endif /* (comm_RS485_UART_MOSI_SCL_RX_PIN) */
 622:.\Generated_Source\PSoC4/comm_RS485_UART.c **** 
 623:.\Generated_Source\PSoC4/comm_RS485_UART.c ****     #if(comm_RS485_UART_SCLK_PIN)
 624:.\Generated_Source\PSoC4/comm_RS485_UART.c ****         comm_RS485_UART_SET_HSIOM_SEL(comm_RS485_UART_SCLK_HSIOM_REG, comm_RS485_UART_SCLK_HSIOM_MA
 625:.\Generated_Source\PSoC4/comm_RS485_UART.c ****                                        comm_RS485_UART_SCLK_HSIOM_POS, hsiomSel[comm_RS485_UART_SCL
 626:.\Generated_Source\PSoC4/comm_RS485_UART.c **** 
 627:.\Generated_Source\PSoC4/comm_RS485_UART.c ****         comm_RS485_UART_spi_sclk_SetDriveMode((uint8) pinsDm[comm_RS485_UART_SCLK_PIN_INDEX]);
 628:.\Generated_Source\PSoC4/comm_RS485_UART.c **** 
 629:.\Generated_Source\PSoC4/comm_RS485_UART.c ****         comm_RS485_UART_SET_INP_DIS(comm_RS485_UART_spi_sclk_INP_DIS,
 630:.\Generated_Source\PSoC4/comm_RS485_UART.c ****                                      comm_RS485_UART_spi_sclk_MASK,
 631:.\Generated_Source\PSoC4/comm_RS485_UART.c ****                                      (0u != (pinsInBuf & comm_RS485_UART_SCLK_PIN_MASK)));
 632:.\Generated_Source\PSoC4/comm_RS485_UART.c ****     #endif /* (comm_RS485_UART_SCLK_PIN) */
 633:.\Generated_Source\PSoC4/comm_RS485_UART.c **** 
 634:.\Generated_Source\PSoC4/comm_RS485_UART.c ****     #if(comm_RS485_UART_SS0_PIN)
 635:.\Generated_Source\PSoC4/comm_RS485_UART.c ****         comm_RS485_UART_SET_HSIOM_SEL(comm_RS485_UART_SS0_HSIOM_REG, comm_RS485_UART_SS0_HSIOM_MASK
 636:.\Generated_Source\PSoC4/comm_RS485_UART.c ****                                        comm_RS485_UART_SS0_HSIOM_POS, hsiomSel[comm_RS485_UART_SS0_
 637:.\Generated_Source\PSoC4/comm_RS485_UART.c **** 
 638:.\Generated_Source\PSoC4/comm_RS485_UART.c ****         comm_RS485_UART_spi_ss0_SetDriveMode((uint8) pinsDm[comm_RS485_UART_SS0_PIN_INDEX]);
 639:.\Generated_Source\PSoC4/comm_RS485_UART.c **** 
 640:.\Generated_Source\PSoC4/comm_RS485_UART.c ****         comm_RS485_UART_SET_INP_DIS(comm_RS485_UART_spi_ss0_INP_DIS,
 641:.\Generated_Source\PSoC4/comm_RS485_UART.c ****                                      comm_RS485_UART_spi_ss0_MASK,
 642:.\Generated_Source\PSoC4/comm_RS485_UART.c ****                                      (0u != (pinsInBuf & comm_RS485_UART_SS0_PIN_MASK)));
 643:.\Generated_Source\PSoC4/comm_RS485_UART.c ****     #endif /* (comm_RS485_UART_SS1_PIN) */
 644:.\Generated_Source\PSoC4/comm_RS485_UART.c **** 
 645:.\Generated_Source\PSoC4/comm_RS485_UART.c ****     #if(comm_RS485_UART_SS1_PIN)
 646:.\Generated_Source\PSoC4/comm_RS485_UART.c ****         comm_RS485_UART_SET_HSIOM_SEL(comm_RS485_UART_SS1_HSIOM_REG, comm_RS485_UART_SS1_HSIOM_MASK
 647:.\Generated_Source\PSoC4/comm_RS485_UART.c ****                                        comm_RS485_UART_SS1_HSIOM_POS, hsiomSel[comm_RS485_UART_SS1_
 648:.\Generated_Source\PSoC4/comm_RS485_UART.c **** 
 649:.\Generated_Source\PSoC4/comm_RS485_UART.c ****         comm_RS485_UART_spi_ss1_SetDriveMode((uint8) pinsDm[comm_RS485_UART_SS1_PIN_INDEX]);
 650:.\Generated_Source\PSoC4/comm_RS485_UART.c **** 
 651:.\Generated_Source\PSoC4/comm_RS485_UART.c ****         comm_RS485_UART_SET_INP_DIS(comm_RS485_UART_spi_ss1_INP_DIS,
 652:.\Generated_Source\PSoC4/comm_RS485_UART.c ****                                      comm_RS485_UART_spi_ss1_MASK,
 653:.\Generated_Source\PSoC4/comm_RS485_UART.c ****                                      (0u != (pinsInBuf & comm_RS485_UART_SS1_PIN_MASK)));
 654:.\Generated_Source\PSoC4/comm_RS485_UART.c ****     #endif /* (comm_RS485_UART_SS1_PIN) */
 655:.\Generated_Source\PSoC4/comm_RS485_UART.c **** 
 656:.\Generated_Source\PSoC4/comm_RS485_UART.c ****     #if(comm_RS485_UART_SS2_PIN)
ARM GAS  C:\Users\SDEVAS~1\AppData\Local\Temp\ccmGsKgx.s 			page 18


 657:.\Generated_Source\PSoC4/comm_RS485_UART.c ****         comm_RS485_UART_SET_HSIOM_SEL(comm_RS485_UART_SS2_HSIOM_REG, comm_RS485_UART_SS2_HSIOM_MASK
 658:.\Generated_Source\PSoC4/comm_RS485_UART.c ****                                        comm_RS485_UART_SS2_HSIOM_POS, hsiomSel[comm_RS485_UART_SS2_
 659:.\Generated_Source\PSoC4/comm_RS485_UART.c **** 
 660:.\Generated_Source\PSoC4/comm_RS485_UART.c ****         comm_RS485_UART_spi_ss2_SetDriveMode((uint8) pinsDm[comm_RS485_UART_SS2_PIN_INDEX]);
 661:.\Generated_Source\PSoC4/comm_RS485_UART.c **** 
 662:.\Generated_Source\PSoC4/comm_RS485_UART.c ****         comm_RS485_UART_SET_INP_DIS(comm_RS485_UART_spi_ss2_INP_DIS,
 663:.\Generated_Source\PSoC4/comm_RS485_UART.c ****                                      comm_RS485_UART_spi_ss2_MASK,
 664:.\Generated_Source\PSoC4/comm_RS485_UART.c ****                                      (0u != (pinsInBuf & comm_RS485_UART_SS2_PIN_MASK)));
 665:.\Generated_Source\PSoC4/comm_RS485_UART.c ****     #endif /* (comm_RS485_UART_SS2_PIN) */
 666:.\Generated_Source\PSoC4/comm_RS485_UART.c **** 
 667:.\Generated_Source\PSoC4/comm_RS485_UART.c ****     #if(comm_RS485_UART_SS3_PIN)
 668:.\Generated_Source\PSoC4/comm_RS485_UART.c ****         comm_RS485_UART_SET_HSIOM_SEL(comm_RS485_UART_SS3_HSIOM_REG,  comm_RS485_UART_SS3_HSIOM_MAS
 669:.\Generated_Source\PSoC4/comm_RS485_UART.c ****                                        comm_RS485_UART_SS3_HSIOM_POS, hsiomSel[comm_RS485_UART_SS3_
 670:.\Generated_Source\PSoC4/comm_RS485_UART.c **** 
 671:.\Generated_Source\PSoC4/comm_RS485_UART.c ****         comm_RS485_UART_spi_ss3_SetDriveMode((uint8) pinsDm[comm_RS485_UART_SS3_PIN_INDEX]);
 672:.\Generated_Source\PSoC4/comm_RS485_UART.c **** 
 673:.\Generated_Source\PSoC4/comm_RS485_UART.c ****         comm_RS485_UART_SET_INP_DIS(comm_RS485_UART_spi_ss3_INP_DIS,
 674:.\Generated_Source\PSoC4/comm_RS485_UART.c ****                                      comm_RS485_UART_spi_ss3_MASK,
 675:.\Generated_Source\PSoC4/comm_RS485_UART.c ****                                      (0u != (pinsInBuf & comm_RS485_UART_SS3_PIN_MASK)));
 676:.\Generated_Source\PSoC4/comm_RS485_UART.c ****     #endif /* (comm_RS485_UART_SS3_PIN) */
 677:.\Generated_Source\PSoC4/comm_RS485_UART.c ****     }
 678:.\Generated_Source\PSoC4/comm_RS485_UART.c **** 
 679:.\Generated_Source\PSoC4/comm_RS485_UART.c **** #endif /* (comm_RS485_UART_SCB_MODE_UNCONFIG_CONST_CFG) */
 680:.\Generated_Source\PSoC4/comm_RS485_UART.c **** 
 681:.\Generated_Source\PSoC4/comm_RS485_UART.c **** 
 682:.\Generated_Source\PSoC4/comm_RS485_UART.c **** #if (comm_RS485_UART_CY_SCBIP_V0 || comm_RS485_UART_CY_SCBIP_V1)
 683:.\Generated_Source\PSoC4/comm_RS485_UART.c ****     /*******************************************************************************
 684:.\Generated_Source\PSoC4/comm_RS485_UART.c ****     * Function Name: comm_RS485_UART_I2CSlaveNackGeneration
 685:.\Generated_Source\PSoC4/comm_RS485_UART.c ****     ********************************************************************************
 686:.\Generated_Source\PSoC4/comm_RS485_UART.c ****     *
 687:.\Generated_Source\PSoC4/comm_RS485_UART.c ****     * Summary:
 688:.\Generated_Source\PSoC4/comm_RS485_UART.c ****     *  Sets command to generate NACK to the address or data.
 689:.\Generated_Source\PSoC4/comm_RS485_UART.c ****     *
 690:.\Generated_Source\PSoC4/comm_RS485_UART.c ****     * Parameters:
 691:.\Generated_Source\PSoC4/comm_RS485_UART.c ****     *  None
 692:.\Generated_Source\PSoC4/comm_RS485_UART.c ****     *
 693:.\Generated_Source\PSoC4/comm_RS485_UART.c ****     * Return:
 694:.\Generated_Source\PSoC4/comm_RS485_UART.c ****     *  None
 695:.\Generated_Source\PSoC4/comm_RS485_UART.c ****     *
 696:.\Generated_Source\PSoC4/comm_RS485_UART.c ****     *******************************************************************************/
 697:.\Generated_Source\PSoC4/comm_RS485_UART.c ****     void comm_RS485_UART_I2CSlaveNackGeneration(void)
 698:.\Generated_Source\PSoC4/comm_RS485_UART.c ****     {
 275              		.loc 1 698 0
 276              		.cfi_startproc
 699:.\Generated_Source\PSoC4/comm_RS485_UART.c ****         /* Check for EC_AM toggle condition: EC_AM and clock stretching for address are enabled */
 700:.\Generated_Source\PSoC4/comm_RS485_UART.c ****         if ((0u != (comm_RS485_UART_CTRL_REG & comm_RS485_UART_CTRL_EC_AM_MODE)) &&
 277              		.loc 1 700 0
 278 0000 0A4B     		ldr	r3, .L27
 279 0002 8022     		mov	r2, #128
 280 0004 1968     		ldr	r1, [r3]
 281 0006 5200     		lsl	r2, r2, #1
 282 0008 1142     		tst	r1, r2
 283 000a 0AD0     		beq	.L23
 701:.\Generated_Source\PSoC4/comm_RS485_UART.c ****             (0u == (comm_RS485_UART_I2C_CTRL_REG & comm_RS485_UART_I2C_CTRL_S_NOT_READY_ADDR_NACK))
 284              		.loc 1 701 0 discriminator 1
 285 000c 0849     		ldr	r1, .L27+4
 286 000e 0968     		ldr	r1, [r1]
ARM GAS  C:\Users\SDEVAS~1\AppData\Local\Temp\ccmGsKgx.s 			page 19


 700:.\Generated_Source\PSoC4/comm_RS485_UART.c ****         if ((0u != (comm_RS485_UART_CTRL_REG & comm_RS485_UART_CTRL_EC_AM_MODE)) &&
 287              		.loc 1 700 0 discriminator 1
 288 0010 4804     		lsl	r0, r1, #17
 289 0012 06D4     		bmi	.L23
 702:.\Generated_Source\PSoC4/comm_RS485_UART.c ****         {
 703:.\Generated_Source\PSoC4/comm_RS485_UART.c ****             /* Toggle EC_AM before NACK generation */
 704:.\Generated_Source\PSoC4/comm_RS485_UART.c ****             comm_RS485_UART_CTRL_REG &= ~comm_RS485_UART_CTRL_EC_AM_MODE;
 290              		.loc 1 704 0
 291 0014 1868     		ldr	r0, [r3]
 292 0016 0749     		ldr	r1, .L27+8
 293 0018 0140     		and	r1, r0
 294 001a 1960     		str	r1, [r3]
 705:.\Generated_Source\PSoC4/comm_RS485_UART.c ****             comm_RS485_UART_CTRL_REG |=  comm_RS485_UART_CTRL_EC_AM_MODE;
 295              		.loc 1 705 0
 296 001c 1968     		ldr	r1, [r3]
 297 001e 0A43     		orr	r2, r1
 298 0020 1A60     		str	r2, [r3]
 299              	.L23:
 706:.\Generated_Source\PSoC4/comm_RS485_UART.c ****         }
 707:.\Generated_Source\PSoC4/comm_RS485_UART.c **** 
 708:.\Generated_Source\PSoC4/comm_RS485_UART.c ****         comm_RS485_UART_I2C_SLAVE_CMD_REG = comm_RS485_UART_I2C_SLAVE_CMD_S_NACK;
 300              		.loc 1 708 0
 301 0022 054B     		ldr	r3, .L27+12
 302 0024 0222     		mov	r2, #2
 303 0026 1A60     		str	r2, [r3]
 709:.\Generated_Source\PSoC4/comm_RS485_UART.c ****     }
 304              		.loc 1 709 0
 305              		@ sp needed
 306 0028 7047     		bx	lr
 307              	.L28:
 308 002a C046     		.align	2
 309              	.L27:
 310 002c 00000640 		.word	1074135040
 311 0030 60000640 		.word	1074135136
 312 0034 FFFEFFFF 		.word	-257
 313 0038 6C000640 		.word	1074135148
 314              		.cfi_endproc
 315              	.LFE9:
 316              		.size	comm_RS485_UART_I2CSlaveNackGeneration, .-comm_RS485_UART_I2CSlaveNackGeneration
 317              		.global	comm_RS485_UART_customIntrHandler
 318              		.global	comm_RS485_UART_initVar
 319              		.bss
 320              		.align	2
 321              		.set	.LANCHOR0,. + 0
 322              		.type	comm_RS485_UART_initVar, %object
 323              		.size	comm_RS485_UART_initVar, 1
 324              	comm_RS485_UART_initVar:
 325 0000 00       		.space	1
 326 0001 000000   		.space	3
 327              		.type	comm_RS485_UART_customIntrHandler, %object
 328              		.size	comm_RS485_UART_customIntrHandler, 4
 329              	comm_RS485_UART_customIntrHandler:
 330 0004 00000000 		.space	4
 331              		.text
 332              	.Letext0:
 333              		.file 2 "Generated_Source\\PSoC4/cytypes.h"
 334              		.file 3 ".\\Generated_Source\\PSoC4\\comm_RS485_UART_SPI_UART_PVT.h"
ARM GAS  C:\Users\SDEVAS~1\AppData\Local\Temp\ccmGsKgx.s 			page 20


 335              		.file 4 "Generated_Source\\PSoC4/CyLib.h"