ARM GAS  C:\Users\SDEVAS~1\AppData\Local\Temp\ccPhqTSe.s 			page 1


   1              		.cpu cortex-m0
   2              		.fpu softvfp
   3              		.eabi_attribute 20, 1
   4              		.eabi_attribute 21, 1
   5              		.eabi_attribute 23, 3
   6              		.eabi_attribute 24, 1
   7              		.eabi_attribute 25, 1
   8              		.eabi_attribute 26, 1
   9              		.eabi_attribute 30, 4
  10              		.eabi_attribute 34, 0
  11              		.eabi_attribute 18, 4
  12              		.code	16
  13              		.file	"comm.c"
  14              		.text
  15              	.Ltext0:
  16              		.cfi_sections	.debug_frame
  17              		.section	.text.skipToNextTokenInLevel,"ax",%progbits
  18              		.align	1
  19              		.code	16
  20              		.thumb_func
  21              		.type	skipToNextTokenInLevel, %function
  22              	skipToNextTokenInLevel:
  23              	.LFB38:
  24              		.file 1 ".\\Generated_Source\\PSoC4\\comm.c"
   1:.\Generated_Source\PSoC4/comm.c **** /*
   2:.\Generated_Source\PSoC4/comm.c ****  * commHandler.c
   3:.\Generated_Source\PSoC4/comm.c ****  *
   4:.\Generated_Source\PSoC4/comm.c ****  *  Created on: 1 lip 2015
   5:.\Generated_Source\PSoC4/comm.c ****  *      Author: kuba
   6:.\Generated_Source\PSoC4/comm.c ****  */
   7:.\Generated_Source\PSoC4/comm.c **** 
   8:.\Generated_Source\PSoC4/comm.c **** #include <project.h>
   9:.\Generated_Source\PSoC4/comm.c **** 
  10:.\Generated_Source\PSoC4/comm.c **** /*
  11:.\Generated_Source\PSoC4/comm.c **** Extern declarations to avoid 'implicit declaration' errors
  12:.\Generated_Source\PSoC4/comm.c **** TODO find better fix, because when for some reason prototype will change,
  13:.\Generated_Source\PSoC4/comm.c **** here also neeed to be changed
  14:.\Generated_Source\PSoC4/comm.c **** */
  15:.\Generated_Source\PSoC4/comm.c **** extern void sleepMgr_requestSleep(void);
  16:.\Generated_Source\PSoC4/comm.c **** extern void sleepMgr_releaseSleep(void);
  17:.\Generated_Source\PSoC4/comm.c **** extern uint32_t SysTimer_GetTicks(void);
  18:.\Generated_Source\PSoC4/comm.c **** 
  19:.\Generated_Source\PSoC4/comm.c **** comm_t comm;
  20:.\Generated_Source\PSoC4/comm.c **** 
  21:.\Generated_Source\PSoC4/comm.c **** char respBuff[RESP_BUFF_LEN];
  22:.\Generated_Source\PSoC4/comm.c **** char *respEnd = respBuff;
  23:.\Generated_Source\PSoC4/comm.c **** int respFreeSpace = RESP_BUFF_LEN;
  24:.\Generated_Source\PSoC4/comm.c **** 
  25:.\Generated_Source\PSoC4/comm.c **** 
  26:.\Generated_Source\PSoC4/comm.c **** #define MSG_SOURCE_HOLDER "{\"atomType\":\"" MY_ATOM_TYPE "\",\"atomId\":" MY_ATOM_ID "}"
  27:.\Generated_Source\PSoC4/comm.c **** 
  28:.\Generated_Source\PSoC4/comm.c **** char msgDestinationHolder[] = "{\"atomType\":\"X\",\"atomId\":0}";
  29:.\Generated_Source\PSoC4/comm.c **** char *msgDestinationHolderAtomType = msgDestinationHolder + 13;
  30:.\Generated_Source\PSoC4/comm.c **** char *msgDestinationHolderAtomId = msgDestinationHolder + 25;
  31:.\Generated_Source\PSoC4/comm.c **** 
  32:.\Generated_Source\PSoC4/comm.c **** /*
  33:.\Generated_Source\PSoC4/comm.c ****  * Converts FLAG passed in string to ENUM
ARM GAS  C:\Users\SDEVAS~1\AppData\Local\Temp\ccPhqTSe.s 			page 2


  34:.\Generated_Source\PSoC4/comm.c ****  */
  35:.\Generated_Source\PSoC4/comm.c **** static comm_flags_t str2flag(const char *str, int len) {
  36:.\Generated_Source\PSoC4/comm.c ****   if(strncmp(str, "REQ", len) == 0) return COMM_FLAG_REQ;
  37:.\Generated_Source\PSoC4/comm.c ****   if(strncmp(str, "REQ_ACK", len) == 0) return COMM_FLAG_REQ_ACK;
  38:.\Generated_Source\PSoC4/comm.c ****   if(strncmp(str, "ACK", len) == 0) return COMM_FLAG_ACK;
  39:.\Generated_Source\PSoC4/comm.c ****   if(strncmp(str, "NACK", len) == 0) return COMM_FLAG_NACK;
  40:.\Generated_Source\PSoC4/comm.c ****   if(strncmp(str, "PUSH", len) == 0) return COMM_FLAG_PUSH;
  41:.\Generated_Source\PSoC4/comm.c ****   return COMM_FLAG_UNKNOWN;
  42:.\Generated_Source\PSoC4/comm.c **** }
  43:.\Generated_Source\PSoC4/comm.c **** /*
  44:.\Generated_Source\PSoC4/comm.c ****  * Converts ENUM Flag to string, length checking, returns bytes written to string
  45:.\Generated_Source\PSoC4/comm.c ****  */
  46:.\Generated_Source\PSoC4/comm.c **** static int flag2str(char *str, int len, comm_flags_t flag) {
  47:.\Generated_Source\PSoC4/comm.c ****   switch(flag) {
  48:.\Generated_Source\PSoC4/comm.c ****     case COMM_FLAG_REQ: memcpy(str, "REQ", len < 3 ? len : 3); return len < 3 ? len : 3;
  49:.\Generated_Source\PSoC4/comm.c ****     case COMM_FLAG_REQ_ACK: memcpy(str, "REQ_ACK", len < 7 ? len : 7); return len < 7 ? len : 7;
  50:.\Generated_Source\PSoC4/comm.c ****     case COMM_FLAG_ACK: memcpy(str, "ACK", len <  3 ? len : 3); return len <  3 ? len : 3;
  51:.\Generated_Source\PSoC4/comm.c ****     case COMM_FLAG_NACK: memcpy(str, "NACK", len < 4 ? len : 4); return len < 4 ? len : 4;
  52:.\Generated_Source\PSoC4/comm.c ****     case COMM_FLAG_PUSH: memcpy(str, "PUSH", len < 4 ? len : 4); return len < 4 ? len : 4;
  53:.\Generated_Source\PSoC4/comm.c ****     case COMM_FLAG_UNKNOWN: //no break on purpose
  54:.\Generated_Source\PSoC4/comm.c ****     default: memcpy(str, "ERR", len < 3 ? len : 3); return len < 3 ? len : 3;
  55:.\Generated_Source\PSoC4/comm.c ****   }
  56:.\Generated_Source\PSoC4/comm.c **** }
  57:.\Generated_Source\PSoC4/comm.c **** 
  58:.\Generated_Source\PSoC4/comm.c **** /*
  59:.\Generated_Source\PSoC4/comm.c ****  * ATOM ORDERs prototypes
  60:.\Generated_Source\PSoC4/comm.c ****  */
  61:.\Generated_Source\PSoC4/comm.c **** #define X(order) extern comm_flags_t comm_handle_##order(comm_flags_t flags, const char *payload, i
  62:.\Generated_Source\PSoC4/comm.c ****   ATOM_ORDERS
  63:.\Generated_Source\PSoC4/comm.c **** #undef X
  64:.\Generated_Source\PSoC4/comm.c **** comm_flags_t comm_handle_Set(comm_flags_t flags, const char *payload, int payloadLen, jsmntok_t *to
  65:.\Generated_Source\PSoC4/comm.c **** comm_flags_t comm_handle_Get(comm_flags_t flags, const char *payload, int payloadLen, jsmntok_t *to
  66:.\Generated_Source\PSoC4/comm.c **** comm_flags_t comm_handle_Info(comm_flags_t flags, const char *payload, int payloadLen, jsmntok_t *t
  67:.\Generated_Source\PSoC4/comm.c **** comm_flags_t comm_handle_Status(comm_flags_t flags, const char *payload, int payloadLen, jsmntok_t 
  68:.\Generated_Source\PSoC4/comm.c **** comm_flags_t comm_handle_Mode(comm_flags_t flags, const char *payload, int payloadLen, jsmntok_t *t
  69:.\Generated_Source\PSoC4/comm.c **** 
  70:.\Generated_Source\PSoC4/comm.c **** 
  71:.\Generated_Source\PSoC4/comm.c **** 
  72:.\Generated_Source\PSoC4/comm.c **** /*
  73:.\Generated_Source\PSoC4/comm.c ****  * ATOM VARIABLES section
  74:.\Generated_Source\PSoC4/comm.c ****  */
  75:.\Generated_Source\PSoC4/comm.c **** typedef enum {
  76:.\Generated_Source\PSoC4/comm.c **** #define X(name, vtype, jtype) ATOM_VARIABLE_##name,
  77:.\Generated_Source\PSoC4/comm.c ****   ATOM_VARIABLES
  78:.\Generated_Source\PSoC4/comm.c **** #undef X
  79:.\Generated_Source\PSoC4/comm.c ****   NUM_OF_ATOM_VARIABLES,
  80:.\Generated_Source\PSoC4/comm.c ****   INVALID_ATOM_VARIABLE
  81:.\Generated_Source\PSoC4/comm.c **** } atom_variables_id_t;
  82:.\Generated_Source\PSoC4/comm.c **** 
  83:.\Generated_Source\PSoC4/comm.c **** static const char * atom_variables_id_strings[NUM_OF_ATOM_VARIABLES] = {
  84:.\Generated_Source\PSoC4/comm.c **** #define X(name, vtype, jtype) [ATOM_VARIABLE_##name] = #name,
  85:.\Generated_Source\PSoC4/comm.c ****     ATOM_VARIABLES
  86:.\Generated_Source\PSoC4/comm.c **** #undef X
  87:.\Generated_Source\PSoC4/comm.c **** };
  88:.\Generated_Source\PSoC4/comm.c **** static atom_variables_id_t get_atom_variable_id_from_string(const char * str, int len) {
  89:.\Generated_Source\PSoC4/comm.c **** #define X(name, vtype, jtype) if(strncmp(str, atom_variables_id_strings[ATOM_VARIABLE_##name], len)
  90:.\Generated_Source\PSoC4/comm.c ****   ATOM_VARIABLES
ARM GAS  C:\Users\SDEVAS~1\AppData\Local\Temp\ccPhqTSe.s 			page 3


  91:.\Generated_Source\PSoC4/comm.c **** #undef X
  92:.\Generated_Source\PSoC4/comm.c ****   return INVALID_ATOM_VARIABLE;
  93:.\Generated_Source\PSoC4/comm.c **** }
  94:.\Generated_Source\PSoC4/comm.c **** 
  95:.\Generated_Source\PSoC4/comm.c **** #define X(name, vtype, jtype) \
  96:.\Generated_Source\PSoC4/comm.c **** extern void setvar_##name(vtype);\
  97:.\Generated_Source\PSoC4/comm.c **** extern vtype getvar_##name(void);
  98:.\Generated_Source\PSoC4/comm.c **** ATOM_VARIABLES
  99:.\Generated_Source\PSoC4/comm.c **** #undef X
 100:.\Generated_Source\PSoC4/comm.c **** /*
 101:.\Generated_Source\PSoC4/comm.c ****  * End of ATOM VARIABLES section
 102:.\Generated_Source\PSoC4/comm.c ****  */
 103:.\Generated_Source\PSoC4/comm.c **** 
 104:.\Generated_Source\PSoC4/comm.c **** /*
 105:.\Generated_Source\PSoC4/comm.c ****  * ATOM MODES section
 106:.\Generated_Source\PSoC4/comm.c ****  */
 107:.\Generated_Source\PSoC4/comm.c **** static const char * atom_modes_strings[NUM_OF_ATOM_MODES] = {
 108:.\Generated_Source\PSoC4/comm.c **** #define X(mode) [ATOM_MODE_##mode] = #mode,
 109:.\Generated_Source\PSoC4/comm.c **** 	ATOM_MODES
 110:.\Generated_Source\PSoC4/comm.c **** #undef X
 111:.\Generated_Source\PSoC4/comm.c **** };
 112:.\Generated_Source\PSoC4/comm.c **** static atom_modes_t get_atom_mode_from_string(const char *str, int len) {
 113:.\Generated_Source\PSoC4/comm.c **** #define X(mode) if(strncmp(str, atom_modes_strings[ATOM_MODE_##mode], len) == 0) return ATOM_MODE_#
 114:.\Generated_Source\PSoC4/comm.c **** 	ATOM_MODES
 115:.\Generated_Source\PSoC4/comm.c **** #undef X
 116:.\Generated_Source\PSoC4/comm.c **** 	return INVALID_ATOM_MODE;
 117:.\Generated_Source\PSoC4/comm.c **** }
 118:.\Generated_Source\PSoC4/comm.c **** 
 119:.\Generated_Source\PSoC4/comm.c **** /*
 120:.\Generated_Source\PSoC4/comm.c ****  * END OF ATOM MODES
 121:.\Generated_Source\PSoC4/comm.c ****  */
 122:.\Generated_Source\PSoC4/comm.c **** 
 123:.\Generated_Source\PSoC4/comm.c **** //JSON/JSMN helpers
 124:.\Generated_Source\PSoC4/comm.c **** static int compKey(const char *json, jsmntok_t *t, const char *key) {
 125:.\Generated_Source\PSoC4/comm.c ****   if(t->type == JSMN_STRING && strncmp(json + t->start, key, t->end - t->start) == 0) {
 126:.\Generated_Source\PSoC4/comm.c ****     return 0;
 127:.\Generated_Source\PSoC4/comm.c ****   }
 128:.\Generated_Source\PSoC4/comm.c ****   return -1;
 129:.\Generated_Source\PSoC4/comm.c **** }
 130:.\Generated_Source\PSoC4/comm.c **** static int skipToNextTokenInLevel(jsmntok_t *tokens, int current) {
  25              		.loc 1 130 0
  26              		.cfi_startproc
  27              	.LVL0:
 131:.\Generated_Source\PSoC4/comm.c ****   if(tokens[current].type == JSMN_OBJECT ||
  28              		.loc 1 131 0
  29 0000 0B01     		lsl	r3, r1, #4
  30 0002 C318     		add	r3, r0, r3
  31 0004 1A78     		ldrb	r2, [r3]
  32 0006 013A     		sub	r2, r2, #1
  33 0008 012A     		cmp	r2, #1
  34 000a 07D8     		bhi	.L2
  35              	.LBB16:
 132:.\Generated_Source\PSoC4/comm.c ****      tokens[current].type == JSMN_ARRAY) {
 133:.\Generated_Source\PSoC4/comm.c ****     int expectedEnd = tokens[current].end;
  36              		.loc 1 133 0
  37 000c 9A68     		ldr	r2, [r3, #8]
  38              	.LVL1:
ARM GAS  C:\Users\SDEVAS~1\AppData\Local\Temp\ccPhqTSe.s 			page 4


  39              	.L4:
 134:.\Generated_Source\PSoC4/comm.c ****     while(expectedEnd > tokens[++current].start);
  40              		.loc 1 134 0 discriminator 1
  41 000e 0131     		add	r1, r1, #1
  42              	.LVL2:
  43 0010 0B01     		lsl	r3, r1, #4
  44 0012 C318     		add	r3, r0, r3
  45 0014 5B68     		ldr	r3, [r3, #4]
  46 0016 9A42     		cmp	r2, r3
  47 0018 F9DC     		bgt	.L4
  48 001a 00E0     		b	.L3
  49              	.LVL3:
  50              	.L2:
  51              	.LBE16:
 135:.\Generated_Source\PSoC4/comm.c ****   } else {
 136:.\Generated_Source\PSoC4/comm.c ****     //normal, just skip token
 137:.\Generated_Source\PSoC4/comm.c ****     current++;
  52              		.loc 1 137 0
  53 001c 0131     		add	r1, r1, #1
  54              	.LVL4:
  55              	.L3:
 138:.\Generated_Source\PSoC4/comm.c ****   }
 139:.\Generated_Source\PSoC4/comm.c ****   return current;
 140:.\Generated_Source\PSoC4/comm.c **** }
  56              		.loc 1 140 0
  57 001e 081C     		mov	r0, r1
  58              	.LVL5:
  59              		@ sp needed
  60 0020 7047     		bx	lr
  61              		.cfi_endproc
  62              	.LFE38:
  63              		.size	skipToNextTokenInLevel, .-skipToNextTokenInLevel
  64              		.section	.text.rs485_selected_as_slave_callback,"ax",%progbits
  65              		.align	1
  66              		.global	rs485_selected_as_slave_callback
  67              		.code	16
  68              		.thumb_func
  69              		.type	rs485_selected_as_slave_callback, %function
  70              	rs485_selected_as_slave_callback:
  71              	.LFB48:
 141:.\Generated_Source\PSoC4/comm.c **** 
 142:.\Generated_Source\PSoC4/comm.c **** // Functions for JSON protocol creating
 143:.\Generated_Source\PSoC4/comm.c **** static inline void resp_GenDestSrcOrder(
 144:.\Generated_Source\PSoC4/comm.c ****   const char *dest, int destLen,
 145:.\Generated_Source\PSoC4/comm.c ****   const char *src, int srcLen,
 146:.\Generated_Source\PSoC4/comm.c ****   const char *order, int orderLen) {
 147:.\Generated_Source\PSoC4/comm.c **** 
 148:.\Generated_Source\PSoC4/comm.c ****   respEnd = respBuff;
 149:.\Generated_Source\PSoC4/comm.c ****   respFreeSpace = RESP_BUFF_LEN;
 150:.\Generated_Source\PSoC4/comm.c **** 
 151:.\Generated_Source\PSoC4/comm.c ****   ADD_STATIC_STRING_TO_RESP("{\"destination\":");
 152:.\Generated_Source\PSoC4/comm.c **** 
 153:.\Generated_Source\PSoC4/comm.c ****   memcpy(respEnd, dest, destLen);
 154:.\Generated_Source\PSoC4/comm.c ****   respEnd += destLen;
 155:.\Generated_Source\PSoC4/comm.c ****   respFreeSpace -= destLen;
 156:.\Generated_Source\PSoC4/comm.c **** 
 157:.\Generated_Source\PSoC4/comm.c ****   ADD_STATIC_STRING_TO_RESP(",\"source\":");
ARM GAS  C:\Users\SDEVAS~1\AppData\Local\Temp\ccPhqTSe.s 			page 5


 158:.\Generated_Source\PSoC4/comm.c **** 
 159:.\Generated_Source\PSoC4/comm.c ****   memcpy(respEnd, src, srcLen);
 160:.\Generated_Source\PSoC4/comm.c ****   respEnd += srcLen;
 161:.\Generated_Source\PSoC4/comm.c ****   respFreeSpace -= srcLen;
 162:.\Generated_Source\PSoC4/comm.c **** 
 163:.\Generated_Source\PSoC4/comm.c ****   // memcpy(respEnd, ",\"source\":" ATOM_SOURCE_FIELD, sizeof(",\"source\":" ATOM_SOURCE_FIELD));
 164:.\Generated_Source\PSoC4/comm.c ****   // respEnd += sizeof(",\"source\":" ATOM_SOURCE_FIELD) -1;
 165:.\Generated_Source\PSoC4/comm.c ****   // respFreeSpace -= sizeof(",\"source\":" ATOM_SOURCE_FIELD) -1;
 166:.\Generated_Source\PSoC4/comm.c **** 
 167:.\Generated_Source\PSoC4/comm.c ****   ADD_STATIC_STRING_TO_RESP(",\"order\":\"");
 168:.\Generated_Source\PSoC4/comm.c **** 
 169:.\Generated_Source\PSoC4/comm.c ****   memcpy(respEnd, order, orderLen);
 170:.\Generated_Source\PSoC4/comm.c ****   respEnd += orderLen;
 171:.\Generated_Source\PSoC4/comm.c ****   respFreeSpace -= orderLen;
 172:.\Generated_Source\PSoC4/comm.c **** 
 173:.\Generated_Source\PSoC4/comm.c ****   ADD_CHAR_TO_RESP('\"');
 174:.\Generated_Source\PSoC4/comm.c **** }
 175:.\Generated_Source\PSoC4/comm.c **** 
 176:.\Generated_Source\PSoC4/comm.c **** void resp_AddFlags(comm_flags_t flag) {
 177:.\Generated_Source\PSoC4/comm.c ****   ADD_STATIC_STRING_TO_RESP(",\"flags\":\"");
 178:.\Generated_Source\PSoC4/comm.c **** 
 179:.\Generated_Source\PSoC4/comm.c ****   int r = flag2str(respEnd, respFreeSpace, flag);
 180:.\Generated_Source\PSoC4/comm.c ****   respEnd += r;
 181:.\Generated_Source\PSoC4/comm.c ****   respFreeSpace -= r;
 182:.\Generated_Source\PSoC4/comm.c **** 
 183:.\Generated_Source\PSoC4/comm.c ****   ADD_CHAR_TO_RESP('\"');
 184:.\Generated_Source\PSoC4/comm.c **** }
 185:.\Generated_Source\PSoC4/comm.c **** 
 186:.\Generated_Source\PSoC4/comm.c **** typedef enum {
 187:.\Generated_Source\PSoC4/comm.c ****   JSON_MSG_PARSE_OK = 0,
 188:.\Generated_Source\PSoC4/comm.c ****   JSON_MSG_PARSE_FAILED,
 189:.\Generated_Source\PSoC4/comm.c ****   JSON_MSG_INVALID_DESTINATION,
 190:.\Generated_Source\PSoC4/comm.c ****   JSON_MSG_INVALID_FIELDS,
 191:.\Generated_Source\PSoC4/comm.c ****   JSON_MSG_GETSET_INVALID_VARIABLE
 192:.\Generated_Source\PSoC4/comm.c **** } JSON_MSG_return_t;
 193:.\Generated_Source\PSoC4/comm.c **** 
 194:.\Generated_Source\PSoC4/comm.c **** static comm_flags_t flags = COMM_FLAG_UNKNOWN;
 195:.\Generated_Source\PSoC4/comm.c **** static const char *order = NULL;
 196:.\Generated_Source\PSoC4/comm.c **** static int orderLen = 0;
 197:.\Generated_Source\PSoC4/comm.c **** static const char *payload = NULL;
 198:.\Generated_Source\PSoC4/comm.c **** static int payloadLen = 0;
 199:.\Generated_Source\PSoC4/comm.c **** 
 200:.\Generated_Source\PSoC4/comm.c **** static const char *msgSource = NULL;
 201:.\Generated_Source\PSoC4/comm.c **** static int msgSourceLen = 0;
 202:.\Generated_Source\PSoC4/comm.c **** static const char *msgDest = NULL;
 203:.\Generated_Source\PSoC4/comm.c **** static int msgDestLen = 0;
 204:.\Generated_Source\PSoC4/comm.c **** 
 205:.\Generated_Source\PSoC4/comm.c **** #define JSMN_TOKENS_SIZE 60
 206:.\Generated_Source\PSoC4/comm.c **** static jsmn_parser parser;
 207:.\Generated_Source\PSoC4/comm.c **** jsmntok_t tokens[JSMN_TOKENS_SIZE];
 208:.\Generated_Source\PSoC4/comm.c **** 
 209:.\Generated_Source\PSoC4/comm.c **** /* This function tests if recived JSON msg was addressed correctly,
 210:.\Generated_Source\PSoC4/comm.c ****  * it sets flags, order, payload and msgSource variables
 211:.\Generated_Source\PSoC4/comm.c ****  */
 212:.\Generated_Source\PSoC4/comm.c **** JSON_MSG_return_t validateDestinationAndParse(const char* json, int json_len) {
 213:.\Generated_Source\PSoC4/comm.c **** 	//reset globals
 214:.\Generated_Source\PSoC4/comm.c **** 	order = payload = msgSource = msgDest = NULL;
ARM GAS  C:\Users\SDEVAS~1\AppData\Local\Temp\ccPhqTSe.s 			page 6


 215:.\Generated_Source\PSoC4/comm.c **** 	flags = COMM_FLAG_UNKNOWN;
 216:.\Generated_Source\PSoC4/comm.c ****   jsmn_init(&parser);
 217:.\Generated_Source\PSoC4/comm.c ****   int r = jsmn_parse(&parser, json, json_len, tokens, JSMN_TOKENS_SIZE);
 218:.\Generated_Source\PSoC4/comm.c ****   if(r <= 0)
 219:.\Generated_Source\PSoC4/comm.c ****     return JSON_MSG_PARSE_FAILED;
 220:.\Generated_Source\PSoC4/comm.c ****   // for(int i = 0; i < r; i++) {
 221:.\Generated_Source\PSoC4/comm.c ****   //   printf("[%2d]Type: %3d, size: %3d, start: %3d, end: %3d", i, tokens[i].type,
 222:.\Generated_Source\PSoC4/comm.c ****   //   tokens[i].size, tokens[i].start, tokens[i].end);
 223:.\Generated_Source\PSoC4/comm.c ****   //   printf(", value: %.*s", tokens[i].end - tokens[i].start, json + tokens[i].start);
 224:.\Generated_Source\PSoC4/comm.c ****   //   printf("\n");
 225:.\Generated_Source\PSoC4/comm.c ****   // }
 226:.\Generated_Source\PSoC4/comm.c ****   // return 0;
 227:.\Generated_Source\PSoC4/comm.c ****   if(tokens[0].type != JSMN_OBJECT)
 228:.\Generated_Source\PSoC4/comm.c ****     return JSON_MSG_PARSE_FAILED;
 229:.\Generated_Source\PSoC4/comm.c **** 
 230:.\Generated_Source\PSoC4/comm.c ****   int t = 1;
 231:.\Generated_Source\PSoC4/comm.c ****   int i = 0;
 232:.\Generated_Source\PSoC4/comm.c ****   for(; i < tokens[0].size; i++) {
 233:.\Generated_Source\PSoC4/comm.c ****     if(tokens[t].type != JSMN_STRING) //it should point to key
 234:.\Generated_Source\PSoC4/comm.c ****       return JSON_MSG_PARSE_FAILED;
 235:.\Generated_Source\PSoC4/comm.c ****     //printf("!value: %.*s\n", tokens[t].end - tokens[t].start, argv[1] + tokens[t].start);
 236:.\Generated_Source\PSoC4/comm.c ****     if(compKey(json, &tokens[t], "destination") == 0) {
 237:.\Generated_Source\PSoC4/comm.c ****       if(tokens[t+1].type != JSMN_OBJECT)//it should be OBJECT
 238:.\Generated_Source\PSoC4/comm.c ****         return JSON_MSG_PARSE_FAILED;
 239:.\Generated_Source\PSoC4/comm.c ****       int y = t+2;
 240:.\Generated_Source\PSoC4/comm.c ****       int j = 0;
 241:.\Generated_Source\PSoC4/comm.c ****       for(; j < tokens[t+1].size; j++) {
 242:.\Generated_Source\PSoC4/comm.c ****         //were in destination object
 243:.\Generated_Source\PSoC4/comm.c ****         if(tokens[y].type != JSMN_STRING) //it should point to key
 244:.\Generated_Source\PSoC4/comm.c ****           return JSON_MSG_PARSE_FAILED;
 245:.\Generated_Source\PSoC4/comm.c ****         //printf("-!value: %.*s\n", tokens[y].end - tokens[y].start, argv[1] + tokens[y].start);
 246:.\Generated_Source\PSoC4/comm.c ****         if(compKey(json, &tokens[y], "atomType") == 0) {
 247:.\Generated_Source\PSoC4/comm.c ****           //woot atom type
 248:.\Generated_Source\PSoC4/comm.c ****           if(strncmp(json + tokens[y+1].start, MY_ATOM_TYPE, tokens[y+1].end - tokens[y+1].start) !
 249:.\Generated_Source\PSoC4/comm.c ****             return JSON_MSG_INVALID_DESTINATION;
 250:.\Generated_Source\PSoC4/comm.c ****           }
 251:.\Generated_Source\PSoC4/comm.c ****         } else if(compKey(json, &tokens[y], "atomId") == 0) {
 252:.\Generated_Source\PSoC4/comm.c ****           //woot atomId
 253:.\Generated_Source\PSoC4/comm.c ****           if(strncmp(json + tokens[y+1].start, MY_ATOM_ID, tokens[y+1].end - tokens[y+1].start) != 
 254:.\Generated_Source\PSoC4/comm.c ****             return JSON_MSG_INVALID_DESTINATION;
 255:.\Generated_Source\PSoC4/comm.c ****           }
 256:.\Generated_Source\PSoC4/comm.c ****         }
 257:.\Generated_Source\PSoC4/comm.c ****         y = skipToNextTokenInLevel(tokens, ++y);
 258:.\Generated_Source\PSoC4/comm.c ****       }
 259:.\Generated_Source\PSoC4/comm.c ****       msgDest = json + tokens[t+1].start;
 260:.\Generated_Source\PSoC4/comm.c ****       msgDestLen = tokens[t+1].end - tokens[t+1].start;
 261:.\Generated_Source\PSoC4/comm.c ****     } else if(compKey(json, &tokens[t], "source") == 0) {
 262:.\Generated_Source\PSoC4/comm.c ****       if(tokens[t+1].type != JSMN_OBJECT)//it should be OBJECT
 263:.\Generated_Source\PSoC4/comm.c ****         return JSON_MSG_PARSE_FAILED;
 264:.\Generated_Source\PSoC4/comm.c ****       msgSource = json + tokens[t+1].start;
 265:.\Generated_Source\PSoC4/comm.c ****       msgSourceLen = tokens[t+1].end - tokens[t+1].start;
 266:.\Generated_Source\PSoC4/comm.c ****     } else if(compKey(json, &tokens[t], "flags") == 0) {
 267:.\Generated_Source\PSoC4/comm.c ****       flags = str2flag(json + tokens[t+1].start, tokens[t+1].end - tokens[t+1].start);
 268:.\Generated_Source\PSoC4/comm.c ****     } else if(compKey(json, &tokens[t], "order") == 0) {
 269:.\Generated_Source\PSoC4/comm.c ****       order = json + tokens[t+1].start;
 270:.\Generated_Source\PSoC4/comm.c ****       orderLen = tokens[t+1].end - tokens[t+1].start;
 271:.\Generated_Source\PSoC4/comm.c ****     } else if(compKey(json, &tokens[t], "payload") == 0) {
ARM GAS  C:\Users\SDEVAS~1\AppData\Local\Temp\ccPhqTSe.s 			page 7


 272:.\Generated_Source\PSoC4/comm.c ****       payload = json + tokens[t+1].start;
 273:.\Generated_Source\PSoC4/comm.c ****       payloadLen = tokens[t+1].end - tokens[t+1].start;
 274:.\Generated_Source\PSoC4/comm.c ****     }
 275:.\Generated_Source\PSoC4/comm.c ****     t = skipToNextTokenInLevel(tokens, ++t);
 276:.\Generated_Source\PSoC4/comm.c ****   }
 277:.\Generated_Source\PSoC4/comm.c ****   if(msgSource == NULL || msgDest == NULL || order == NULL || flags == COMM_FLAG_UNKNOWN || payload
 278:.\Generated_Source\PSoC4/comm.c ****     return JSON_MSG_INVALID_FIELDS;
 279:.\Generated_Source\PSoC4/comm.c ****   }
 280:.\Generated_Source\PSoC4/comm.c ****   return JSON_MSG_PARSE_OK;
 281:.\Generated_Source\PSoC4/comm.c **** }
 282:.\Generated_Source\PSoC4/comm.c **** 
 283:.\Generated_Source\PSoC4/comm.c **** comm_flags_t comm_handle_Get(comm_flags_t flags, const char *payload, int payloadLen, jsmntok_t *to
 284:.\Generated_Source\PSoC4/comm.c ****   switch(flags) {
 285:.\Generated_Source\PSoC4/comm.c ****   case COMM_FLAG_REQ: //here is implementation of standard GET request, we are breaking case, so im
 286:.\Generated_Source\PSoC4/comm.c **** 	  break;
 287:.\Generated_Source\PSoC4/comm.c ****   case COMM_FLAG_ACK: //here can be implementation of GET ACK message, however, receiving ACK means
 288:.\Generated_Source\PSoC4/comm.c ****   default: return COMM_FLAG_UNKNOWN;//we only handle REQ and ACK
 289:.\Generated_Source\PSoC4/comm.c ****   }
 290:.\Generated_Source\PSoC4/comm.c **** 
 291:.\Generated_Source\PSoC4/comm.c ****   if(tokens[0].type != JSMN_OBJECT) {
 292:.\Generated_Source\PSoC4/comm.c **** 	  //invalid payload, it should be an object
 293:.\Generated_Source\PSoC4/comm.c **** 	  goto error_exit;
 294:.\Generated_Source\PSoC4/comm.c ****   }
 295:.\Generated_Source\PSoC4/comm.c **** 
 296:.\Generated_Source\PSoC4/comm.c ****   int t = 1;
 297:.\Generated_Source\PSoC4/comm.c ****   atom_variables_id_t avid = INVALID_ATOM_VARIABLE;
 298:.\Generated_Source\PSoC4/comm.c ****   int i = 0;
 299:.\Generated_Source\PSoC4/comm.c ****   for(; i < tokens[0].size; i++) {
 300:.\Generated_Source\PSoC4/comm.c **** 	if(tokens[t].type != JSMN_STRING) {//it should point to key
 301:.\Generated_Source\PSoC4/comm.c **** 	  //something is wrong with payload
 302:.\Generated_Source\PSoC4/comm.c **** 	  goto error_exit;
 303:.\Generated_Source\PSoC4/comm.c **** 	}
 304:.\Generated_Source\PSoC4/comm.c ****     if(compKey(payload, &tokens[t], "n") == 0) {
 305:.\Generated_Source\PSoC4/comm.c ****       //printf("%.*s\n", tokens[t+1].end - tokens[t+1].start, payload + tokens[t+1].start);
 306:.\Generated_Source\PSoC4/comm.c ****       avid = get_atom_variable_id_from_string(payload + tokens[t+1].start,tokens[t+1].end - tokens[
 307:.\Generated_Source\PSoC4/comm.c ****       break;
 308:.\Generated_Source\PSoC4/comm.c ****     }
 309:.\Generated_Source\PSoC4/comm.c ****     t = skipToNextTokenInLevel(tokens, ++t);
 310:.\Generated_Source\PSoC4/comm.c ****   }
 311:.\Generated_Source\PSoC4/comm.c ****   if(avid == INVALID_ATOM_VARIABLE) {
 312:.\Generated_Source\PSoC4/comm.c **** 	  //failed to properly parse Payload, not found variable or unknown
 313:.\Generated_Source\PSoC4/comm.c **** 	  goto error_exit;
 314:.\Generated_Source\PSoC4/comm.c ****   }
 315:.\Generated_Source\PSoC4/comm.c **** 
 316:.\Generated_Source\PSoC4/comm.c ****   int tmp = 0;
 317:.\Generated_Source\PSoC4/comm.c ****   switch(avid) {
 318:.\Generated_Source\PSoC4/comm.c **** #define X(name, vtype, jtype) \
 319:.\Generated_Source\PSoC4/comm.c ****     case ATOM_VARIABLE_##name: { \
 320:.\Generated_Source\PSoC4/comm.c ****       ADD_STATIC_STRING_TO_RESP(",\"payload\":{\"n\":\"" #name "\",\"t\":\"" #jtype "\",\"v\":"); \
 321:.\Generated_Source\PSoC4/comm.c ****       tmp = conv_##jtype##2str(respEnd, respFreeSpace, getvar_##name()); \
 322:.\Generated_Source\PSoC4/comm.c ****     } break;
 323:.\Generated_Source\PSoC4/comm.c ****     ATOM_VARIABLES
 324:.\Generated_Source\PSoC4/comm.c **** #undef X
 325:.\Generated_Source\PSoC4/comm.c ****     default: goto error_exit;
 326:.\Generated_Source\PSoC4/comm.c ****     break;
 327:.\Generated_Source\PSoC4/comm.c ****   }
 328:.\Generated_Source\PSoC4/comm.c ****   respEnd += tmp;
ARM GAS  C:\Users\SDEVAS~1\AppData\Local\Temp\ccPhqTSe.s 			page 8


 329:.\Generated_Source\PSoC4/comm.c ****   respFreeSpace -= tmp;
 330:.\Generated_Source\PSoC4/comm.c **** 
 331:.\Generated_Source\PSoC4/comm.c ****   ADD_CHAR_TO_RESP('}');
 332:.\Generated_Source\PSoC4/comm.c **** 
 333:.\Generated_Source\PSoC4/comm.c ****   return COMM_FLAG_REQ_ACK;
 334:.\Generated_Source\PSoC4/comm.c **** error_exit:
 335:.\Generated_Source\PSoC4/comm.c **** 	ADD_STATIC_STRING_TO_RESP(",\"payload\":null");
 336:.\Generated_Source\PSoC4/comm.c **** 	return COMM_FLAG_NACK;
 337:.\Generated_Source\PSoC4/comm.c **** }
 338:.\Generated_Source\PSoC4/comm.c **** 
 339:.\Generated_Source\PSoC4/comm.c **** comm_flags_t comm_handle_Set(comm_flags_t flags, const char *payload, int payloadLen, jsmntok_t *to
 340:.\Generated_Source\PSoC4/comm.c **** 	if(flags != COMM_FLAG_REQ) {
 341:.\Generated_Source\PSoC4/comm.c **** 		//we only expect REQ flags, ignore otherwise (this is error?
 342:.\Generated_Source\PSoC4/comm.c **** 		return COMM_FLAG_UNKNOWN;
 343:.\Generated_Source\PSoC4/comm.c **** 	}
 344:.\Generated_Source\PSoC4/comm.c ****   if(tokens[0].type != JSMN_OBJECT) {
 345:.\Generated_Source\PSoC4/comm.c **** 	  //invalid payload, it should be an object
 346:.\Generated_Source\PSoC4/comm.c **** 	  goto error_exit;
 347:.\Generated_Source\PSoC4/comm.c ****   }
 348:.\Generated_Source\PSoC4/comm.c **** 
 349:.\Generated_Source\PSoC4/comm.c ****   int t = 1;
 350:.\Generated_Source\PSoC4/comm.c ****   atom_variables_id_t avid = INVALID_ATOM_VARIABLE;
 351:.\Generated_Source\PSoC4/comm.c ****   const char *value = NULL;
 352:.\Generated_Source\PSoC4/comm.c ****   int valueLen = 0;
 353:.\Generated_Source\PSoC4/comm.c ****   const char *type = NULL;
 354:.\Generated_Source\PSoC4/comm.c ****   int typeLen = 0;
 355:.\Generated_Source\PSoC4/comm.c ****   int i = 0;
 356:.\Generated_Source\PSoC4/comm.c ****   for(; i < tokens[0].size; i++) {
 357:.\Generated_Source\PSoC4/comm.c **** 	  if(tokens[t].type != JSMN_STRING) {//it should point to key
 358:.\Generated_Source\PSoC4/comm.c **** 		  //something is wrong with payload
 359:.\Generated_Source\PSoC4/comm.c **** 		  goto error_exit;
 360:.\Generated_Source\PSoC4/comm.c **** 	  }
 361:.\Generated_Source\PSoC4/comm.c ****     if(compKey(payload, &tokens[t], "n") == 0) {
 362:.\Generated_Source\PSoC4/comm.c ****       //printf("%.*s\n", tokens[t+1].end - tokens[t+1].start, payload + tokens[t+1].start);
 363:.\Generated_Source\PSoC4/comm.c ****       avid = get_atom_variable_id_from_string(payload + tokens[t+1].start,tokens[t+1].end - tokens[
 364:.\Generated_Source\PSoC4/comm.c ****     } else if(compKey(payload, &tokens[t], "t") == 0) {
 365:.\Generated_Source\PSoC4/comm.c ****       type = payload + tokens[t+1].start;
 366:.\Generated_Source\PSoC4/comm.c ****       typeLen = tokens[t+1].end - tokens[t+1].start;
 367:.\Generated_Source\PSoC4/comm.c ****     } else if(compKey(payload, &tokens[t], "v") == 0) {
 368:.\Generated_Source\PSoC4/comm.c ****       value = payload + tokens[t+1].start;
 369:.\Generated_Source\PSoC4/comm.c ****       valueLen = tokens[t+1].end - tokens[t+1].start;
 370:.\Generated_Source\PSoC4/comm.c ****     }
 371:.\Generated_Source\PSoC4/comm.c ****     t = skipToNextTokenInLevel(tokens, ++t);
 372:.\Generated_Source\PSoC4/comm.c ****   }
 373:.\Generated_Source\PSoC4/comm.c **** 
 374:.\Generated_Source\PSoC4/comm.c ****   if(value == NULL || type == NULL || avid == INVALID_ATOM_VARIABLE) {
 375:.\Generated_Source\PSoC4/comm.c **** 	  //failed to properly parse Payload
 376:.\Generated_Source\PSoC4/comm.c **** 	  goto error_exit;
 377:.\Generated_Source\PSoC4/comm.c ****   }
 378:.\Generated_Source\PSoC4/comm.c **** 
 379:.\Generated_Source\PSoC4/comm.c ****   switch(avid) {
 380:.\Generated_Source\PSoC4/comm.c **** #define X(name, vtype, jtype) \
 381:.\Generated_Source\PSoC4/comm.c ****     case ATOM_VARIABLE_##name: { \
 382:.\Generated_Source\PSoC4/comm.c ****       if(strncmp(type, #jtype, typeLen) == 0) \
 383:.\Generated_Source\PSoC4/comm.c ****         setvar_##name(conv_str2##jtype(value, valueLen)); \
 384:.\Generated_Source\PSoC4/comm.c ****     } break;
 385:.\Generated_Source\PSoC4/comm.c ****     ATOM_VARIABLES
ARM GAS  C:\Users\SDEVAS~1\AppData\Local\Temp\ccPhqTSe.s 			page 9


 386:.\Generated_Source\PSoC4/comm.c **** #undef X
 387:.\Generated_Source\PSoC4/comm.c ****     default: goto error_exit;
 388:.\Generated_Source\PSoC4/comm.c ****     break;
 389:.\Generated_Source\PSoC4/comm.c ****   }
 390:.\Generated_Source\PSoC4/comm.c **** 
 391:.\Generated_Source\PSoC4/comm.c ****   ADD_STATIC_STRING_TO_RESP(",\"payload\":null");
 392:.\Generated_Source\PSoC4/comm.c **** 
 393:.\Generated_Source\PSoC4/comm.c ****   return COMM_FLAG_ACK;
 394:.\Generated_Source\PSoC4/comm.c **** error_exit:
 395:.\Generated_Source\PSoC4/comm.c **** 	ADD_STATIC_STRING_TO_RESP(",\"payload\":null");
 396:.\Generated_Source\PSoC4/comm.c **** 	return COMM_FLAG_NACK;
 397:.\Generated_Source\PSoC4/comm.c **** }
 398:.\Generated_Source\PSoC4/comm.c **** 
 399:.\Generated_Source\PSoC4/comm.c **** comm_flags_t comm_handle_Info(comm_flags_t flags, const char *payload, int payloadLen, jsmntok_t *t
 400:.\Generated_Source\PSoC4/comm.c **** 	if(flags == COMM_FLAG_UNKNOWN) {
 401:.\Generated_Source\PSoC4/comm.c **** 		//in this case we are preparing this message!
 402:.\Generated_Source\PSoC4/comm.c **** 		ADD_STATIC_STRING_TO_RESP(",\"payload\":{\"oa\":[");
 403:.\Generated_Source\PSoC4/comm.c **** 		comm_GenerateInfo();
 404:.\Generated_Source\PSoC4/comm.c **** 		ADD_STATIC_STRING_TO_RESP("]}");
 405:.\Generated_Source\PSoC4/comm.c **** 		return COMM_FLAG_PUSH;
 406:.\Generated_Source\PSoC4/comm.c **** 	}
 407:.\Generated_Source\PSoC4/comm.c **** 	return COMM_FLAG_UNKNOWN;
 408:.\Generated_Source\PSoC4/comm.c **** }
 409:.\Generated_Source\PSoC4/comm.c **** comm_flags_t comm_handle_Status(comm_flags_t flags, const char *payload, int payloadLen, jsmntok_t 
 410:.\Generated_Source\PSoC4/comm.c **** 	if(flags == COMM_FLAG_REQ) {
 411:.\Generated_Source\PSoC4/comm.c **** 		//We are expecting only REQ here, according to protocol, payload array with Info block is expecte
 412:.\Generated_Source\PSoC4/comm.c **** 		ADD_STATIC_STRING_TO_RESP(",\"payload\":{\"oa\":[");
 413:.\Generated_Source\PSoC4/comm.c **** 		comm_GenerateInfo();
 414:.\Generated_Source\PSoC4/comm.c **** 		ADD_STATIC_STRING_TO_RESP("]}");
 415:.\Generated_Source\PSoC4/comm.c **** 		return COMM_FLAG_REQ_ACK;
 416:.\Generated_Source\PSoC4/comm.c **** 	}
 417:.\Generated_Source\PSoC4/comm.c **** 	//if we receive ACK, end of communication
 418:.\Generated_Source\PSoC4/comm.c **** 	return COMM_FLAG_UNKNOWN;
 419:.\Generated_Source\PSoC4/comm.c **** }
 420:.\Generated_Source\PSoC4/comm.c **** 
 421:.\Generated_Source\PSoC4/comm.c **** comm_flags_t comm_handle_Mode(comm_flags_t flags, const char *payload, int payloadLen, jsmntok_t *t
 422:.\Generated_Source\PSoC4/comm.c **** 	if(flags == COMM_FLAG_REQ) {
 423:.\Generated_Source\PSoC4/comm.c **** 		//We are expecting only REQ here, according to protocol, ACK or NACK is proper anserw
 424:.\Generated_Source\PSoC4/comm.c **** 
 425:.\Generated_Source\PSoC4/comm.c **** 		atom_modes_t mode = get_atom_mode_from_string(payload, payloadLen);
 426:.\Generated_Source\PSoC4/comm.c **** 
 427:.\Generated_Source\PSoC4/comm.c **** 		if(mode == INVALID_ATOM_MODE) {
 428:.\Generated_Source\PSoC4/comm.c **** 			//invalid payload
 429:.\Generated_Source\PSoC4/comm.c **** 			goto error_exit;
 430:.\Generated_Source\PSoC4/comm.c **** 		}
 431:.\Generated_Source\PSoC4/comm.c **** 
 432:.\Generated_Source\PSoC4/comm.c **** 		comm_ModeChange(mode);
 433:.\Generated_Source\PSoC4/comm.c **** 
 434:.\Generated_Source\PSoC4/comm.c **** 		ADD_STATIC_STRING_TO_RESP(",\"payload\":null");
 435:.\Generated_Source\PSoC4/comm.c **** 		return COMM_FLAG_ACK;
 436:.\Generated_Source\PSoC4/comm.c **** 	error_exit:
 437:.\Generated_Source\PSoC4/comm.c **** 		ADD_STATIC_STRING_TO_RESP(",\"payload\":null");
 438:.\Generated_Source\PSoC4/comm.c **** 		return COMM_FLAG_NACK;
 439:.\Generated_Source\PSoC4/comm.c **** 	}
 440:.\Generated_Source\PSoC4/comm.c **** 	return COMM_FLAG_UNKNOWN;
 441:.\Generated_Source\PSoC4/comm.c **** }
 442:.\Generated_Source\PSoC4/comm.c **** 
ARM GAS  C:\Users\SDEVAS~1\AppData\Local\Temp\ccPhqTSe.s 			page 10


 443:.\Generated_Source\PSoC4/comm.c **** static comm_RS485_address jsonAddressToRS(char atomType, char atomID) {
 444:.\Generated_Source\PSoC4/comm.c **** 	return (((atomType - 'A')&0x1f) << 3) | ((atomID - '0')&0x07);
 445:.\Generated_Source\PSoC4/comm.c **** }
 446:.\Generated_Source\PSoC4/comm.c **** 
 447:.\Generated_Source\PSoC4/comm.c **** /*
 448:.\Generated_Source\PSoC4/comm.c ****  * ************************************
 449:.\Generated_Source\PSoC4/comm.c ****  * RS485 callbacks
 450:.\Generated_Source\PSoC4/comm.c ****  * ************************************
 451:.\Generated_Source\PSoC4/comm.c ****  */
 452:.\Generated_Source\PSoC4/comm.c **** 
 453:.\Generated_Source\PSoC4/comm.c **** void rs485_selected_as_slave_callback(comm_RS485_address byWho) {
  72              		.loc 1 453 0
  73              		.cfi_startproc
  74              	.LVL6:
 454:.\Generated_Source\PSoC4/comm.c **** 	comm.flags.SLAVE = 1;
  75              		.loc 1 454 0
  76 0000 034A     		ldr	r2, .L7
  77 0002 9823     		mov	r3, #152
  78 0004 5B00     		lsl	r3, r3, #1
  79 0006 D15C     		ldrb	r1, [r2, r3]
  80 0008 0420     		mov	r0, #4
  81              	.LVL7:
  82 000a 0143     		orr	r1, r0
  83 000c D154     		strb	r1, [r2, r3]
 455:.\Generated_Source\PSoC4/comm.c **** }
  84              		.loc 1 455 0
  85              		@ sp needed
  86 000e 7047     		bx	lr
  87              	.L8:
  88              		.align	2
  89              	.L7:
  90 0010 00000000 		.word	comm
  91              		.cfi_endproc
  92              	.LFE48:
  93              		.size	rs485_selected_as_slave_callback, .-rs485_selected_as_slave_callback
  94              		.section	.text.rs485_released_as_slave_callback,"ax",%progbits
  95              		.align	1
  96              		.global	rs485_released_as_slave_callback
  97              		.code	16
  98              		.thumb_func
  99              		.type	rs485_released_as_slave_callback, %function
 100              	rs485_released_as_slave_callback:
 101              	.LFB49:
 456:.\Generated_Source\PSoC4/comm.c **** void rs485_released_as_slave_callback(void) {
 102              		.loc 1 456 0
 103              		.cfi_startproc
 457:.\Generated_Source\PSoC4/comm.c **** 	comm.flags.SLAVE = 0;
 104              		.loc 1 457 0
 105 0000 034A     		ldr	r2, .L10
 106 0002 9823     		mov	r3, #152
 107 0004 5B00     		lsl	r3, r3, #1
 108 0006 D05C     		ldrb	r0, [r2, r3]
 458:.\Generated_Source\PSoC4/comm.c **** 	//connection was broken, just to be sure stop sending
 459:.\Generated_Source\PSoC4/comm.c **** 	comm.flags.SENT = 0;
 109              		.loc 1 459 0
 110 0008 F921     		mov	r1, #249
 111 000a 0140     		and	r1, r0
ARM GAS  C:\Users\SDEVAS~1\AppData\Local\Temp\ccPhqTSe.s 			page 11


 112 000c D154     		strb	r1, [r2, r3]
 460:.\Generated_Source\PSoC4/comm.c **** }
 113              		.loc 1 460 0
 114              		@ sp needed
 115 000e 7047     		bx	lr
 116              	.L11:
 117              		.align	2
 118              	.L10:
 119 0010 00000000 		.word	comm
 120              		.cfi_endproc
 121              	.LFE49:
 122              		.size	rs485_released_as_slave_callback, .-rs485_released_as_slave_callback
 123              		.section	.text.rs485_receive_callback,"ax",%progbits
 124              		.align	1
 125              		.global	rs485_receive_callback
 126              		.code	16
 127              		.thumb_func
 128              		.type	rs485_receive_callback, %function
 129              	rs485_receive_callback:
 130              	.LFB50:
 461:.\Generated_Source\PSoC4/comm.c **** void rs485_receive_callback(char * buff, uint32 len) {
 131              		.loc 1 461 0
 132              		.cfi_startproc
 133              	.LVL8:
 462:.\Generated_Source\PSoC4/comm.c **** 	comm.len = len;
 134              		.loc 1 462 0
 135 0000 054B     		ldr	r3, .L13
 463:.\Generated_Source\PSoC4/comm.c **** 	comm.flags.RECV = 1;
 136              		.loc 1 463 0
 137 0002 0120     		mov	r0, #1
 138              	.LVL9:
 462:.\Generated_Source\PSoC4/comm.c **** 	comm.len = len;
 139              		.loc 1 462 0
 140 0004 1A1C     		mov	r2, r3
 141 0006 FC32     		add	r2, r2, #252
 142 0008 1163     		str	r1, [r2, #48]
 143              		.loc 1 463 0
 144 000a 9822     		mov	r2, #152
 145 000c 5200     		lsl	r2, r2, #1
 146 000e 995C     		ldrb	r1, [r3, r2]
 147              	.LVL10:
 464:.\Generated_Source\PSoC4/comm.c **** }
 148              		.loc 1 464 0
 149              		@ sp needed
 463:.\Generated_Source\PSoC4/comm.c **** 	comm.flags.RECV = 1;
 150              		.loc 1 463 0
 151 0010 0143     		orr	r1, r0
 152 0012 9954     		strb	r1, [r3, r2]
 153              		.loc 1 464 0
 154 0014 7047     		bx	lr
 155              	.L14:
 156 0016 C046     		.align	2
 157              	.L13:
 158 0018 00000000 		.word	comm
 159              		.cfi_endproc
 160              	.LFE50:
 161              		.size	rs485_receive_callback, .-rs485_receive_callback
ARM GAS  C:\Users\SDEVAS~1\AppData\Local\Temp\ccPhqTSe.s 			page 12


 162              		.section	.text.rs485_bus_granted_callback,"ax",%progbits
 163              		.align	1
 164              		.global	rs485_bus_granted_callback
 165              		.code	16
 166              		.thumb_func
 167              		.type	rs485_bus_granted_callback, %function
 168              	rs485_bus_granted_callback:
 169              	.LFB52:
 465:.\Generated_Source\PSoC4/comm.c **** 
 466:.\Generated_Source\PSoC4/comm.c **** void rs485_wake_callback(uint8 isWake) {
 467:.\Generated_Source\PSoC4/comm.c **** 	isWake ? sleepMgr_requestSleep() : sleepMgr_releaseSleep();
 468:.\Generated_Source\PSoC4/comm.c **** }
 469:.\Generated_Source\PSoC4/comm.c **** //void rs485_error_callback(int line) {
 470:.\Generated_Source\PSoC4/comm.c **** //	if(line < 10000) {
 471:.\Generated_Source\PSoC4/comm.c **** //	  DEBUG_UartPutString("ERR ");
 472:.\Generated_Source\PSoC4/comm.c **** //	  DEBUG_UartPutChar("0123456789"[line/1000]);
 473:.\Generated_Source\PSoC4/comm.c **** //	  DEBUG_UartPutChar("0123456789"[(line%1000)/100]);
 474:.\Generated_Source\PSoC4/comm.c **** //	  DEBUG_UartPutChar("0123456789"[(line%100)/10]);
 475:.\Generated_Source\PSoC4/comm.c **** //	  DEBUG_UartPutChar("0123456789"[line%10]);
 476:.\Generated_Source\PSoC4/comm.c **** //	  DEBUG_UartPutString("\r\n");
 477:.\Generated_Source\PSoC4/comm.c **** //	}
 478:.\Generated_Source\PSoC4/comm.c **** //
 479:.\Generated_Source\PSoC4/comm.c **** //}
 480:.\Generated_Source\PSoC4/comm.c **** void rs485_bus_granted_callback(void) {
 170              		.loc 1 480 0
 171              		.cfi_startproc
 481:.\Generated_Source\PSoC4/comm.c **** 	comm.state = COMM_STATE_BUS_GRANTED;
 172              		.loc 1 481 0
 173 0000 0121     		mov	r1, #1
 174 0002 024A     		ldr	r2, .L16
 175 0004 9A23     		mov	r3, #154
 176 0006 8B40     		lsl	r3, r3, r1
 177 0008 D154     		strb	r1, [r2, r3]
 482:.\Generated_Source\PSoC4/comm.c **** }
 178              		.loc 1 482 0
 179              		@ sp needed
 180 000a 7047     		bx	lr
 181              	.L17:
 182              		.align	2
 183              	.L16:
 184 000c 00000000 		.word	comm
 185              		.cfi_endproc
 186              	.LFE52:
 187              		.size	rs485_bus_granted_callback, .-rs485_bus_granted_callback
 188              		.section	.text.rs485_slave_selected_callback,"ax",%progbits
 189              		.align	1
 190              		.global	rs485_slave_selected_callback
 191              		.code	16
 192              		.thumb_func
 193              		.type	rs485_slave_selected_callback, %function
 194              	rs485_slave_selected_callback:
 195              	.LFB53:
 483:.\Generated_Source\PSoC4/comm.c **** void rs485_slave_selected_callback(void) {
 196              		.loc 1 483 0
 197              		.cfi_startproc
 484:.\Generated_Source\PSoC4/comm.c **** 	comm.state = COMM_STATE_SLAVE_SELECTED;
 198              		.loc 1 484 0
ARM GAS  C:\Users\SDEVAS~1\AppData\Local\Temp\ccPhqTSe.s 			page 13


 199 0000 024A     		ldr	r2, .L19
 200 0002 9A23     		mov	r3, #154
 201 0004 0221     		mov	r1, #2
 202 0006 5B00     		lsl	r3, r3, #1
 203 0008 D154     		strb	r1, [r2, r3]
 485:.\Generated_Source\PSoC4/comm.c **** }
 204              		.loc 1 485 0
 205              		@ sp needed
 206 000a 7047     		bx	lr
 207              	.L20:
 208              		.align	2
 209              	.L19:
 210 000c 00000000 		.word	comm
 211              		.cfi_endproc
 212              	.LFE53:
 213              		.size	rs485_slave_selected_callback, .-rs485_slave_selected_callback
 214              		.section	.text.rs485_slave_released_callback,"ax",%progbits
 215              		.align	1
 216              		.global	rs485_slave_released_callback
 217              		.code	16
 218              		.thumb_func
 219              		.type	rs485_slave_released_callback, %function
 220              	rs485_slave_released_callback:
 221              	.LFB54:
 486:.\Generated_Source\PSoC4/comm.c **** void rs485_slave_released_callback(void) {
 222              		.loc 1 486 0
 223              		.cfi_startproc
 487:.\Generated_Source\PSoC4/comm.c **** 	comm.state = COMM_STATE_SLAVE_RELEASED;
 224              		.loc 1 487 0
 225 0000 024A     		ldr	r2, .L22
 226 0002 9A23     		mov	r3, #154
 227 0004 0321     		mov	r1, #3
 228 0006 5B00     		lsl	r3, r3, #1
 229 0008 D154     		strb	r1, [r2, r3]
 488:.\Generated_Source\PSoC4/comm.c **** }
 230              		.loc 1 488 0
 231              		@ sp needed
 232 000a 7047     		bx	lr
 233              	.L23:
 234              		.align	2
 235              	.L22:
 236 000c 00000000 		.word	comm
 237              		.cfi_endproc
 238              	.LFE54:
 239              		.size	rs485_slave_released_callback, .-rs485_slave_released_callback
 240              		.section	.text.rs485_bus_released_callback,"ax",%progbits
 241              		.align	1
 242              		.global	rs485_bus_released_callback
 243              		.code	16
 244              		.thumb_func
 245              		.type	rs485_bus_released_callback, %function
 246              	rs485_bus_released_callback:
 247              	.LFB55:
 489:.\Generated_Source\PSoC4/comm.c **** void rs485_bus_released_callback(void) {
 248              		.loc 1 489 0
 249              		.cfi_startproc
 490:.\Generated_Source\PSoC4/comm.c **** 	comm.state = COMM_STATE_BUS_RELEASED;
ARM GAS  C:\Users\SDEVAS~1\AppData\Local\Temp\ccPhqTSe.s 			page 14


 250              		.loc 1 490 0
 251 0000 024A     		ldr	r2, .L25
 252 0002 9A23     		mov	r3, #154
 253 0004 0421     		mov	r1, #4
 254 0006 5B00     		lsl	r3, r3, #1
 255 0008 D154     		strb	r1, [r2, r3]
 491:.\Generated_Source\PSoC4/comm.c **** }
 256              		.loc 1 491 0
 257              		@ sp needed
 258 000a 7047     		bx	lr
 259              	.L26:
 260              		.align	2
 261              	.L25:
 262 000c 00000000 		.word	comm
 263              		.cfi_endproc
 264              	.LFE55:
 265              		.size	rs485_bus_released_callback, .-rs485_bus_released_callback
 266              		.section	.text.resp_GenDestSrcOrder,"ax",%progbits
 267              		.align	1
 268              		.code	16
 269              		.thumb_func
 270              		.type	resp_GenDestSrcOrder, %function
 271              	resp_GenDestSrcOrder:
 272              	.LFB39:
 146:.\Generated_Source\PSoC4/comm.c ****   const char *order, int orderLen) {
 273              		.loc 1 146 0
 274              		.cfi_startproc
 275              	.LVL11:
 276 0000 F7B5     		push	{r0, r1, r2, r4, r5, r6, r7, lr}
 277              		.cfi_def_cfa_offset 32
 278              		.cfi_offset 0, -32
 279              		.cfi_offset 1, -28
 280              		.cfi_offset 2, -24
 281              		.cfi_offset 4, -20
 282              		.cfi_offset 5, -16
 283              		.cfi_offset 6, -12
 284              		.cfi_offset 7, -8
 285              		.cfi_offset 14, -4
 151:.\Generated_Source\PSoC4/comm.c ****   ADD_STATIC_STRING_TO_RESP("{\"destination\":");
 286              		.loc 1 151 0
 287 0002 264E     		ldr	r6, .L28
 146:.\Generated_Source\PSoC4/comm.c ****   const char *order, int orderLen) {
 288              		.loc 1 146 0
 289 0004 0F1C     		mov	r7, r1
 290 0006 0090     		str	r0, [sp]
 291 0008 0192     		str	r2, [sp, #4]
 151:.\Generated_Source\PSoC4/comm.c ****   ADD_STATIC_STRING_TO_RESP("{\"destination\":");
 292              		.loc 1 151 0
 293 000a 301C     		mov	r0, r6
 294              	.LVL12:
 295 000c 2449     		ldr	r1, .L28+4
 296              	.LVL13:
 297 000e 1022     		mov	r2, #16
 298              	.LVL14:
 146:.\Generated_Source\PSoC4/comm.c ****   const char *order, int orderLen) {
 299              		.loc 1 146 0
 300 0010 1D1C     		mov	r5, r3
ARM GAS  C:\Users\SDEVAS~1\AppData\Local\Temp\ccPhqTSe.s 			page 15


 151:.\Generated_Source\PSoC4/comm.c ****   ADD_STATIC_STRING_TO_RESP("{\"destination\":");
 301              		.loc 1 151 0
 302 0012 FFF7FEFF 		bl	memcpy
 303              	.LVL15:
 304 0016 234C     		ldr	r4, .L28+8
 305 0018 1E21     		mov	r1, #30
 306 001a 0F36     		add	r6, r6, #15
 307 001c FF31     		add	r1, r1, #255
 308 001e 6160     		str	r1, [r4, #4]
 153:.\Generated_Source\PSoC4/comm.c ****   memcpy(respEnd, dest, destLen);
 309              		.loc 1 153 0
 310 0020 301C     		mov	r0, r6
 311 0022 0099     		ldr	r1, [sp]
 312 0024 3A1C     		mov	r2, r7
 151:.\Generated_Source\PSoC4/comm.c ****   ADD_STATIC_STRING_TO_RESP("{\"destination\":");
 313              		.loc 1 151 0
 314 0026 2660     		str	r6, [r4]
 153:.\Generated_Source\PSoC4/comm.c ****   memcpy(respEnd, dest, destLen);
 315              		.loc 1 153 0
 316 0028 FFF7FEFF 		bl	memcpy
 317              	.LVL16:
 155:.\Generated_Source\PSoC4/comm.c ****   respFreeSpace -= destLen;
 318              		.loc 1 155 0
 319 002c 1E22     		mov	r2, #30
 320 002e FF32     		add	r2, r2, #255
 154:.\Generated_Source\PSoC4/comm.c ****   respEnd += destLen;
 321              		.loc 1 154 0
 322 0030 B819     		add	r0, r7, r6
 155:.\Generated_Source\PSoC4/comm.c ****   respFreeSpace -= destLen;
 323              		.loc 1 155 0
 324 0032 D31B     		sub	r3, r2, r7
 157:.\Generated_Source\PSoC4/comm.c ****   ADD_STATIC_STRING_TO_RESP(",\"source\":");
 325              		.loc 1 157 0
 326 0034 0B27     		mov	r7, #11
 327              	.LVL17:
 328 0036 3A1C     		mov	r2, r7
 329 0038 1B49     		ldr	r1, .L28+12
 155:.\Generated_Source\PSoC4/comm.c ****   respFreeSpace -= destLen;
 330              		.loc 1 155 0
 331 003a 6360     		str	r3, [r4, #4]
 154:.\Generated_Source\PSoC4/comm.c ****   respEnd += destLen;
 332              		.loc 1 154 0
 333 003c 2060     		str	r0, [r4]
 157:.\Generated_Source\PSoC4/comm.c ****   ADD_STATIC_STRING_TO_RESP(",\"source\":");
 334              		.loc 1 157 0
 335 003e FFF7FEFF 		bl	memcpy
 336              	.LVL18:
 337 0042 2068     		ldr	r0, [r4]
 338 0044 6368     		ldr	r3, [r4, #4]
 159:.\Generated_Source\PSoC4/comm.c ****   memcpy(respEnd, src, srcLen);
 339              		.loc 1 159 0
 340 0046 0199     		ldr	r1, [sp, #4]
 157:.\Generated_Source\PSoC4/comm.c ****   ADD_STATIC_STRING_TO_RESP(",\"source\":");
 341              		.loc 1 157 0
 342 0048 0A3B     		sub	r3, r3, #10
 159:.\Generated_Source\PSoC4/comm.c ****   memcpy(respEnd, src, srcLen);
 343              		.loc 1 159 0
ARM GAS  C:\Users\SDEVAS~1\AppData\Local\Temp\ccPhqTSe.s 			page 16


 344 004a 2A1C     		mov	r2, r5
 157:.\Generated_Source\PSoC4/comm.c ****   ADD_STATIC_STRING_TO_RESP(",\"source\":");
 345              		.loc 1 157 0
 346 004c 0A30     		add	r0, r0, #10
 347 004e 6360     		str	r3, [r4, #4]
 348 0050 2060     		str	r0, [r4]
 159:.\Generated_Source\PSoC4/comm.c ****   memcpy(respEnd, src, srcLen);
 349              		.loc 1 159 0
 350 0052 FFF7FEFF 		bl	memcpy
 351              	.LVL19:
 160:.\Generated_Source\PSoC4/comm.c ****   respEnd += srcLen;
 352              		.loc 1 160 0
 353 0056 2368     		ldr	r3, [r4]
 161:.\Generated_Source\PSoC4/comm.c ****   respFreeSpace -= srcLen;
 354              		.loc 1 161 0
 355 0058 6168     		ldr	r1, [r4, #4]
 160:.\Generated_Source\PSoC4/comm.c ****   respEnd += srcLen;
 356              		.loc 1 160 0
 357 005a 5819     		add	r0, r3, r5
 167:.\Generated_Source\PSoC4/comm.c ****   ADD_STATIC_STRING_TO_RESP(",\"order\":\"");
 358              		.loc 1 167 0
 359 005c 3A1C     		mov	r2, r7
 161:.\Generated_Source\PSoC4/comm.c ****   respFreeSpace -= srcLen;
 360              		.loc 1 161 0
 361 005e 4B1B     		sub	r3, r1, r5
 167:.\Generated_Source\PSoC4/comm.c ****   ADD_STATIC_STRING_TO_RESP(",\"order\":\"");
 362              		.loc 1 167 0
 363 0060 1249     		ldr	r1, .L28+16
 161:.\Generated_Source\PSoC4/comm.c ****   respFreeSpace -= srcLen;
 364              		.loc 1 161 0
 365 0062 6360     		str	r3, [r4, #4]
 160:.\Generated_Source\PSoC4/comm.c ****   respEnd += srcLen;
 366              		.loc 1 160 0
 367 0064 2060     		str	r0, [r4]
 167:.\Generated_Source\PSoC4/comm.c ****   ADD_STATIC_STRING_TO_RESP(",\"order\":\"");
 368              		.loc 1 167 0
 369 0066 FFF7FEFF 		bl	memcpy
 370              	.LVL20:
 371 006a 2068     		ldr	r0, [r4]
 372 006c 6368     		ldr	r3, [r4, #4]
 169:.\Generated_Source\PSoC4/comm.c ****   memcpy(respEnd, order, orderLen);
 373              		.loc 1 169 0
 374 006e 0899     		ldr	r1, [sp, #32]
 167:.\Generated_Source\PSoC4/comm.c ****   ADD_STATIC_STRING_TO_RESP(",\"order\":\"");
 375              		.loc 1 167 0
 376 0070 0A3B     		sub	r3, r3, #10
 169:.\Generated_Source\PSoC4/comm.c ****   memcpy(respEnd, order, orderLen);
 377              		.loc 1 169 0
 378 0072 099A     		ldr	r2, [sp, #36]
 167:.\Generated_Source\PSoC4/comm.c ****   ADD_STATIC_STRING_TO_RESP(",\"order\":\"");
 379              		.loc 1 167 0
 380 0074 0A30     		add	r0, r0, #10
 381 0076 6360     		str	r3, [r4, #4]
 382 0078 2060     		str	r0, [r4]
 169:.\Generated_Source\PSoC4/comm.c ****   memcpy(respEnd, order, orderLen);
 383              		.loc 1 169 0
 384 007a FFF7FEFF 		bl	memcpy
ARM GAS  C:\Users\SDEVAS~1\AppData\Local\Temp\ccPhqTSe.s 			page 17


 385              	.LVL21:
 170:.\Generated_Source\PSoC4/comm.c ****   respEnd += orderLen;
 386              		.loc 1 170 0
 387 007e 2268     		ldr	r2, [r4]
 388 0080 0999     		ldr	r1, [sp, #36]
 174:.\Generated_Source\PSoC4/comm.c **** }
 389              		.loc 1 174 0
 390              		@ sp needed
 170:.\Generated_Source\PSoC4/comm.c ****   respEnd += orderLen;
 391              		.loc 1 170 0
 392 0082 5318     		add	r3, r2, r1
 171:.\Generated_Source\PSoC4/comm.c ****   respFreeSpace -= orderLen;
 393              		.loc 1 171 0
 394 0084 6268     		ldr	r2, [r4, #4]
 395 0086 551A     		sub	r5, r2, r1
 396              	.LVL22:
 173:.\Generated_Source\PSoC4/comm.c ****   ADD_CHAR_TO_RESP('\"');
 397              		.loc 1 173 0
 398 0088 5A1C     		add	r2, r3, #1
 399 008a 2260     		str	r2, [r4]
 400 008c 2222     		mov	r2, #34
 171:.\Generated_Source\PSoC4/comm.c ****   respFreeSpace -= orderLen;
 401              		.loc 1 171 0
 402 008e 6560     		str	r5, [r4, #4]
 173:.\Generated_Source\PSoC4/comm.c ****   ADD_CHAR_TO_RESP('\"');
 403              		.loc 1 173 0
 404 0090 1A70     		strb	r2, [r3]
 405 0092 6368     		ldr	r3, [r4, #4]
 406 0094 013B     		sub	r3, r3, #1
 407 0096 6360     		str	r3, [r4, #4]
 174:.\Generated_Source\PSoC4/comm.c **** }
 408              		.loc 1 174 0
 409 0098 F7BD     		pop	{r0, r1, r2, r4, r5, r6, r7, pc}
 410              	.L29:
 411 009a C046     		.align	2
 412              	.L28:
 413 009c 00000000 		.word	respBuff
 414 00a0 00000000 		.word	.LC11
 415 00a4 00000000 		.word	.LANCHOR0
 416 00a8 10000000 		.word	.LC15
 417 00ac 1B000000 		.word	.LC17
 418              		.cfi_endproc
 419              	.LFE39:
 420              		.size	resp_GenDestSrcOrder, .-resp_GenDestSrcOrder
 421              		.section	.text.compKey,"ax",%progbits
 422              		.align	1
 423              		.code	16
 424              		.thumb_func
 425              		.type	compKey, %function
 426              	compKey:
 427              	.LFB37:
 124:.\Generated_Source\PSoC4/comm.c **** static int compKey(const char *json, jsmntok_t *t, const char *key) {
 428              		.loc 1 124 0
 429              		.cfi_startproc
 430              	.LVL23:
 431 0000 0B1C     		mov	r3, r1
 125:.\Generated_Source\PSoC4/comm.c ****   if(t->type == JSMN_STRING && strncmp(json + t->start, key, t->end - t->start) == 0) {
ARM GAS  C:\Users\SDEVAS~1\AppData\Local\Temp\ccPhqTSe.s 			page 18


 432              		.loc 1 125 0
 433 0002 0978     		ldrb	r1, [r1]
 434              	.LVL24:
 124:.\Generated_Source\PSoC4/comm.c **** static int compKey(const char *json, jsmntok_t *t, const char *key) {
 435              		.loc 1 124 0
 436 0004 10B5     		push	{r4, lr}
 437              		.cfi_def_cfa_offset 8
 438              		.cfi_offset 4, -8
 439              		.cfi_offset 14, -4
 125:.\Generated_Source\PSoC4/comm.c ****   if(t->type == JSMN_STRING && strncmp(json + t->start, key, t->end - t->start) == 0) {
 440              		.loc 1 125 0
 441 0006 0329     		cmp	r1, #3
 442 0008 0AD1     		bne	.L32
 125:.\Generated_Source\PSoC4/comm.c ****   if(t->type == JSMN_STRING && strncmp(json + t->start, key, t->end - t->start) == 0) {
 443              		.loc 1 125 0 is_stmt 0 discriminator 1
 444 000a 5C68     		ldr	r4, [r3, #4]
 445 000c 9B68     		ldr	r3, [r3, #8]
 446              	.LVL25:
 447 000e 0019     		add	r0, r0, r4
 448              	.LVL26:
 449 0010 1C1B     		sub	r4, r3, r4
 450 0012 111C     		mov	r1, r2
 451 0014 221C     		mov	r2, r4
 452              	.LVL27:
 453 0016 FFF7FEFF 		bl	strncmp
 454              	.LVL28:
 455 001a 431E     		sub	r3, r0, #1
 456 001c 9841     		sbc	r0, r0, r3
 457 001e 00E0     		b	.L33
 458              	.LVL29:
 459              	.L32:
 128:.\Generated_Source\PSoC4/comm.c ****   return -1;
 460              		.loc 1 128 0 is_stmt 1
 461 0020 0120     		mov	r0, #1
 462              	.LVL30:
 463              	.L33:
 464 0022 4042     		neg	r0, r0
 129:.\Generated_Source\PSoC4/comm.c **** }
 465              		.loc 1 129 0
 466              		@ sp needed
 467 0024 10BD     		pop	{r4, pc}
 468              		.cfi_endproc
 469              	.LFE37:
 470              		.size	compKey, .-compKey
 471              		.section	.text.get_atom_variable_id_from_string,"ax",%progbits
 472              		.align	1
 473              		.code	16
 474              		.thumb_func
 475              		.type	get_atom_variable_id_from_string, %function
 476              	get_atom_variable_id_from_string:
 477              	.LFB35:
  88:.\Generated_Source\PSoC4/comm.c **** static atom_variables_id_t get_atom_variable_id_from_string(const char * str, int len) {
 478              		.loc 1 88 0
 479              		.cfi_startproc
 480              	.LVL31:
 481 0000 38B5     		push	{r3, r4, r5, lr}
 482              		.cfi_def_cfa_offset 16
ARM GAS  C:\Users\SDEVAS~1\AppData\Local\Temp\ccPhqTSe.s 			page 19


 483              		.cfi_offset 3, -16
 484              		.cfi_offset 4, -12
 485              		.cfi_offset 5, -8
 486              		.cfi_offset 14, -4
  88:.\Generated_Source\PSoC4/comm.c **** static atom_variables_id_t get_atom_variable_id_from_string(const char * str, int len) {
 487              		.loc 1 88 0
 488 0002 0C1C     		mov	r4, r1
  90:.\Generated_Source\PSoC4/comm.c ****   ATOM_VARIABLES
 489              		.loc 1 90 0
 490 0004 221C     		mov	r2, r4
 491 0006 9B49     		ldr	r1, .L107
 492              	.LVL32:
  88:.\Generated_Source\PSoC4/comm.c **** static atom_variables_id_t get_atom_variable_id_from_string(const char * str, int len) {
 493              		.loc 1 88 0
 494 0008 051C     		mov	r5, r0
  90:.\Generated_Source\PSoC4/comm.c ****   ATOM_VARIABLES
 495              		.loc 1 90 0
 496 000a FFF7FEFF 		bl	strncmp
 497              	.LVL33:
 498 000e 0023     		mov	r3, #0
 499 0010 9842     		cmp	r0, r3
 500 0012 00D1     		bne	.LCB422
 501 0014 2BE1     		b	.L35	@long jump
 502              	.LCB422:
  90:.\Generated_Source\PSoC4/comm.c ****   ATOM_VARIABLES
 503              		.loc 1 90 0 is_stmt 0 discriminator 2
 504 0016 281C     		mov	r0, r5
 505 0018 9749     		ldr	r1, .L107+4
 506 001a 221C     		mov	r2, r4
 507 001c FFF7FEFF 		bl	strncmp
 508              	.LVL34:
 509 0020 0123     		mov	r3, #1
 510 0022 0028     		cmp	r0, #0
 511 0024 00D1     		bne	.LCB430
 512 0026 22E1     		b	.L35	@long jump
 513              	.LCB430:
 514 0028 281C     		mov	r0, r5
 515 002a 9449     		ldr	r1, .L107+8
 516 002c 221C     		mov	r2, r4
 517 002e FFF7FEFF 		bl	strncmp
 518              	.LVL35:
 519 0032 0223     		mov	r3, #2
 520 0034 0028     		cmp	r0, #0
 521 0036 00D1     		bne	.LCB438
 522 0038 19E1     		b	.L35	@long jump
 523              	.LCB438:
 524 003a 281C     		mov	r0, r5
 525 003c 9049     		ldr	r1, .L107+12
 526 003e 221C     		mov	r2, r4
 527 0040 FFF7FEFF 		bl	strncmp
 528              	.LVL36:
 529 0044 0323     		mov	r3, #3
 530 0046 0028     		cmp	r0, #0
 531 0048 00D1     		bne	.LCB446
 532 004a 10E1     		b	.L35	@long jump
 533              	.LCB446:
 534 004c 281C     		mov	r0, r5
ARM GAS  C:\Users\SDEVAS~1\AppData\Local\Temp\ccPhqTSe.s 			page 20


 535 004e 8D49     		ldr	r1, .L107+16
 536 0050 221C     		mov	r2, r4
 537 0052 FFF7FEFF 		bl	strncmp
 538              	.LVL37:
 539 0056 0423     		mov	r3, #4
 540 0058 0028     		cmp	r0, #0
 541 005a 00D1     		bne	.LCB454
 542 005c 07E1     		b	.L35	@long jump
 543              	.LCB454:
 544 005e 281C     		mov	r0, r5
 545 0060 8949     		ldr	r1, .L107+20
 546 0062 221C     		mov	r2, r4
 547 0064 FFF7FEFF 		bl	strncmp
 548              	.LVL38:
 549 0068 0523     		mov	r3, #5
 550 006a 0028     		cmp	r0, #0
 551 006c 00D1     		bne	.LCB462
 552 006e FEE0     		b	.L35	@long jump
 553              	.LCB462:
 554 0070 281C     		mov	r0, r5
 555 0072 8649     		ldr	r1, .L107+24
 556 0074 221C     		mov	r2, r4
 557 0076 FFF7FEFF 		bl	strncmp
 558              	.LVL39:
 559 007a 0623     		mov	r3, #6
 560 007c 0028     		cmp	r0, #0
 561 007e 00D1     		bne	.LCB470
 562 0080 F5E0     		b	.L35	@long jump
 563              	.LCB470:
 564 0082 281C     		mov	r0, r5
 565 0084 8249     		ldr	r1, .L107+28
 566 0086 221C     		mov	r2, r4
 567 0088 FFF7FEFF 		bl	strncmp
 568              	.LVL40:
 569 008c 0723     		mov	r3, #7
 570 008e 0028     		cmp	r0, #0
 571 0090 00D1     		bne	.LCB478
 572 0092 ECE0     		b	.L35	@long jump
 573              	.LCB478:
 574 0094 281C     		mov	r0, r5
 575 0096 7F49     		ldr	r1, .L107+32
 576 0098 221C     		mov	r2, r4
 577 009a FFF7FEFF 		bl	strncmp
 578              	.LVL41:
 579 009e 0823     		mov	r3, #8
 580 00a0 0028     		cmp	r0, #0
 581 00a2 00D1     		bne	.LCB486
 582 00a4 E3E0     		b	.L35	@long jump
 583              	.LCB486:
 584 00a6 281C     		mov	r0, r5
 585 00a8 7B49     		ldr	r1, .L107+36
 586 00aa 221C     		mov	r2, r4
 587 00ac FFF7FEFF 		bl	strncmp
 588              	.LVL42:
 589 00b0 0923     		mov	r3, #9
 590 00b2 0028     		cmp	r0, #0
 591 00b4 00D1     		bne	.LCB494
ARM GAS  C:\Users\SDEVAS~1\AppData\Local\Temp\ccPhqTSe.s 			page 21


 592 00b6 DAE0     		b	.L35	@long jump
 593              	.LCB494:
 594 00b8 281C     		mov	r0, r5
 595 00ba 7849     		ldr	r1, .L107+40
 596 00bc 221C     		mov	r2, r4
 597 00be FFF7FEFF 		bl	strncmp
 598              	.LVL43:
 599 00c2 0A23     		mov	r3, #10
 600 00c4 0028     		cmp	r0, #0
 601 00c6 00D1     		bne	.LCB502
 602 00c8 D1E0     		b	.L35	@long jump
 603              	.LCB502:
 604 00ca 281C     		mov	r0, r5
 605 00cc 7449     		ldr	r1, .L107+44
 606 00ce 221C     		mov	r2, r4
 607 00d0 FFF7FEFF 		bl	strncmp
 608              	.LVL44:
 609 00d4 0B23     		mov	r3, #11
 610 00d6 0028     		cmp	r0, #0
 611 00d8 00D1     		bne	.LCB510
 612 00da C8E0     		b	.L35	@long jump
 613              	.LCB510:
 614 00dc 281C     		mov	r0, r5
 615 00de 7149     		ldr	r1, .L107+48
 616 00e0 221C     		mov	r2, r4
 617 00e2 FFF7FEFF 		bl	strncmp
 618              	.LVL45:
 619 00e6 0C23     		mov	r3, #12
 620 00e8 0028     		cmp	r0, #0
 621 00ea 00D1     		bne	.LCB518
 622 00ec BFE0     		b	.L35	@long jump
 623              	.LCB518:
 624 00ee 281C     		mov	r0, r5
 625 00f0 6D49     		ldr	r1, .L107+52
 626 00f2 221C     		mov	r2, r4
 627 00f4 FFF7FEFF 		bl	strncmp
 628              	.LVL46:
 629 00f8 0D23     		mov	r3, #13
 630 00fa 0028     		cmp	r0, #0
 631 00fc 00D1     		bne	.LCB526
 632 00fe B6E0     		b	.L35	@long jump
 633              	.LCB526:
 634 0100 281C     		mov	r0, r5
 635 0102 6A49     		ldr	r1, .L107+56
 636 0104 221C     		mov	r2, r4
 637 0106 FFF7FEFF 		bl	strncmp
 638              	.LVL47:
 639 010a 0E23     		mov	r3, #14
 640 010c 0028     		cmp	r0, #0
 641 010e 00D1     		bne	.LCB534
 642 0110 ADE0     		b	.L35	@long jump
 643              	.LCB534:
 644 0112 281C     		mov	r0, r5
 645 0114 6649     		ldr	r1, .L107+60
 646 0116 221C     		mov	r2, r4
 647 0118 FFF7FEFF 		bl	strncmp
 648              	.LVL48:
ARM GAS  C:\Users\SDEVAS~1\AppData\Local\Temp\ccPhqTSe.s 			page 22


 649 011c 0F23     		mov	r3, #15
 650 011e 0028     		cmp	r0, #0
 651 0120 00D1     		bne	.LCB542
 652 0122 A4E0     		b	.L35	@long jump
 653              	.LCB542:
 654 0124 281C     		mov	r0, r5
 655 0126 6349     		ldr	r1, .L107+64
 656 0128 221C     		mov	r2, r4
 657 012a FFF7FEFF 		bl	strncmp
 658              	.LVL49:
 659 012e 1023     		mov	r3, #16
 660 0130 0028     		cmp	r0, #0
 661 0132 00D1     		bne	.LCB550
 662 0134 9BE0     		b	.L35	@long jump
 663              	.LCB550:
 664 0136 281C     		mov	r0, r5
 665 0138 5F49     		ldr	r1, .L107+68
 666 013a 221C     		mov	r2, r4
 667 013c FFF7FEFF 		bl	strncmp
 668              	.LVL50:
 669 0140 1123     		mov	r3, #17
 670 0142 0028     		cmp	r0, #0
 671 0144 00D1     		bne	.LCB558
 672 0146 92E0     		b	.L35	@long jump
 673              	.LCB558:
 674 0148 281C     		mov	r0, r5
 675 014a 5C49     		ldr	r1, .L107+72
 676 014c 221C     		mov	r2, r4
 677 014e FFF7FEFF 		bl	strncmp
 678              	.LVL51:
 679 0152 1223     		mov	r3, #18
 680 0154 0028     		cmp	r0, #0
 681 0156 00D1     		bne	.LCB566
 682 0158 89E0     		b	.L35	@long jump
 683              	.LCB566:
 684 015a 281C     		mov	r0, r5
 685 015c 5849     		ldr	r1, .L107+76
 686 015e 221C     		mov	r2, r4
 687 0160 FFF7FEFF 		bl	strncmp
 688              	.LVL52:
 689 0164 1323     		mov	r3, #19
 690 0166 0028     		cmp	r0, #0
 691 0168 00D1     		bne	.LCB574
 692 016a 80E0     		b	.L35	@long jump
 693              	.LCB574:
 694 016c 281C     		mov	r0, r5
 695 016e 5549     		ldr	r1, .L107+80
 696 0170 221C     		mov	r2, r4
 697 0172 FFF7FEFF 		bl	strncmp
 698              	.LVL53:
 699 0176 1423     		mov	r3, #20
 700 0178 0028     		cmp	r0, #0
 701 017a 78D0     		beq	.L35
 702 017c 281C     		mov	r0, r5
 703 017e 5249     		ldr	r1, .L107+84
 704 0180 221C     		mov	r2, r4
 705 0182 FFF7FEFF 		bl	strncmp
ARM GAS  C:\Users\SDEVAS~1\AppData\Local\Temp\ccPhqTSe.s 			page 23


 706              	.LVL54:
 707 0186 1523     		mov	r3, #21
 708 0188 0028     		cmp	r0, #0
 709 018a 70D0     		beq	.L35
 710 018c 281C     		mov	r0, r5
 711 018e 4F49     		ldr	r1, .L107+88
 712 0190 221C     		mov	r2, r4
 713 0192 FFF7FEFF 		bl	strncmp
 714              	.LVL55:
 715 0196 1623     		mov	r3, #22
 716 0198 0028     		cmp	r0, #0
 717 019a 68D0     		beq	.L35
 718 019c 281C     		mov	r0, r5
 719 019e 4C49     		ldr	r1, .L107+92
 720 01a0 221C     		mov	r2, r4
 721 01a2 FFF7FEFF 		bl	strncmp
 722              	.LVL56:
 723 01a6 1723     		mov	r3, #23
 724 01a8 0028     		cmp	r0, #0
 725 01aa 60D0     		beq	.L35
 726 01ac 281C     		mov	r0, r5
 727 01ae 4949     		ldr	r1, .L107+96
 728 01b0 221C     		mov	r2, r4
 729 01b2 FFF7FEFF 		bl	strncmp
 730              	.LVL57:
 731 01b6 1823     		mov	r3, #24
 732 01b8 0028     		cmp	r0, #0
 733 01ba 58D0     		beq	.L35
 734 01bc 281C     		mov	r0, r5
 735 01be 4649     		ldr	r1, .L107+100
 736 01c0 221C     		mov	r2, r4
 737 01c2 FFF7FEFF 		bl	strncmp
 738              	.LVL58:
 739 01c6 1923     		mov	r3, #25
 740 01c8 0028     		cmp	r0, #0
 741 01ca 50D0     		beq	.L35
 742 01cc 281C     		mov	r0, r5
 743 01ce 4349     		ldr	r1, .L107+104
 744 01d0 221C     		mov	r2, r4
 745 01d2 FFF7FEFF 		bl	strncmp
 746              	.LVL59:
 747 01d6 1A23     		mov	r3, #26
 748 01d8 0028     		cmp	r0, #0
 749 01da 48D0     		beq	.L35
 750 01dc 281C     		mov	r0, r5
 751 01de 4049     		ldr	r1, .L107+108
 752 01e0 221C     		mov	r2, r4
 753 01e2 FFF7FEFF 		bl	strncmp
 754              	.LVL60:
 755 01e6 1B23     		mov	r3, #27
 756 01e8 0028     		cmp	r0, #0
 757 01ea 40D0     		beq	.L35
 758 01ec 281C     		mov	r0, r5
 759 01ee 3D49     		ldr	r1, .L107+112
 760 01f0 221C     		mov	r2, r4
 761 01f2 FFF7FEFF 		bl	strncmp
 762              	.LVL61:
ARM GAS  C:\Users\SDEVAS~1\AppData\Local\Temp\ccPhqTSe.s 			page 24


 763 01f6 1C23     		mov	r3, #28
 764 01f8 0028     		cmp	r0, #0
 765 01fa 38D0     		beq	.L35
 766 01fc 281C     		mov	r0, r5
 767 01fe 3A49     		ldr	r1, .L107+116
 768 0200 221C     		mov	r2, r4
 769 0202 FFF7FEFF 		bl	strncmp
 770              	.LVL62:
 771 0206 1D23     		mov	r3, #29
 772 0208 0028     		cmp	r0, #0
 773 020a 30D0     		beq	.L35
 774 020c 281C     		mov	r0, r5
 775 020e 3749     		ldr	r1, .L107+120
 776 0210 221C     		mov	r2, r4
 777 0212 FFF7FEFF 		bl	strncmp
 778              	.LVL63:
 779 0216 1E23     		mov	r3, #30
 780 0218 0028     		cmp	r0, #0
 781 021a 28D0     		beq	.L35
 782 021c 281C     		mov	r0, r5
 783 021e 3449     		ldr	r1, .L107+124
 784 0220 221C     		mov	r2, r4
 785 0222 FFF7FEFF 		bl	strncmp
 786              	.LVL64:
 787 0226 1F23     		mov	r3, #31
 788 0228 0028     		cmp	r0, #0
 789 022a 20D0     		beq	.L35
 790 022c 281C     		mov	r0, r5
 791 022e 3149     		ldr	r1, .L107+128
 792 0230 221C     		mov	r2, r4
 793 0232 FFF7FEFF 		bl	strncmp
 794              	.LVL65:
 795 0236 2023     		mov	r3, #32
 796 0238 0028     		cmp	r0, #0
 797 023a 18D0     		beq	.L35
 798 023c 281C     		mov	r0, r5
 799 023e 2E49     		ldr	r1, .L107+132
 800 0240 221C     		mov	r2, r4
 801 0242 FFF7FEFF 		bl	strncmp
 802              	.LVL66:
 803 0246 2123     		mov	r3, #33
 804 0248 0028     		cmp	r0, #0
 805 024a 10D0     		beq	.L35
 806 024c 281C     		mov	r0, r5
 807 024e 2B49     		ldr	r1, .L107+136
 808 0250 221C     		mov	r2, r4
 809 0252 FFF7FEFF 		bl	strncmp
 810              	.LVL67:
 811 0256 2223     		mov	r3, #34
 812 0258 0028     		cmp	r0, #0
 813 025a 08D0     		beq	.L35
 814 025c 281C     		mov	r0, r5
 815 025e 2849     		ldr	r1, .L107+140
 816 0260 221C     		mov	r2, r4
 817 0262 FFF7FEFF 		bl	strncmp
 818              	.LVL68:
  92:.\Generated_Source\PSoC4/comm.c ****   return INVALID_ATOM_VARIABLE;
ARM GAS  C:\Users\SDEVAS~1\AppData\Local\Temp\ccPhqTSe.s 			page 25


 819              		.loc 1 92 0 is_stmt 1 discriminator 2
 820 0266 2523     		mov	r3, #37
  90:.\Generated_Source\PSoC4/comm.c ****   ATOM_VARIABLES
 821              		.loc 1 90 0 discriminator 2
 822 0268 0028     		cmp	r0, #0
 823 026a 00D1     		bne	.L35
  90:.\Generated_Source\PSoC4/comm.c ****   ATOM_VARIABLES
 824              		.loc 1 90 0 is_stmt 0
 825 026c 2323     		mov	r3, #35
 826              	.L35:
  93:.\Generated_Source\PSoC4/comm.c **** }
 827              		.loc 1 93 0 is_stmt 1
 828 026e 181C     		mov	r0, r3
 829              		@ sp needed
 830              	.LVL69:
 831              	.LVL70:
 832 0270 38BD     		pop	{r3, r4, r5, pc}
 833              	.L108:
 834 0272 C046     		.align	2
 835              	.L107:
 836 0274 26000000 		.word	.LC19
 837 0278 32000000 		.word	.LC21
 838 027c 3F000000 		.word	.LC23
 839 0280 44000000 		.word	.LC25
 840 0284 52000000 		.word	.LC27
 841 0288 60000000 		.word	.LC29
 842 028c 6C000000 		.word	.LC31
 843 0290 78000000 		.word	.LC33
 844 0294 84000000 		.word	.LC35
 845 0298 94000000 		.word	.LC37
 846 029c A4000000 		.word	.LC39
 847 02a0 B2000000 		.word	.LC41
 848 02a4 BC000000 		.word	.LC43
 849 02a8 C5000000 		.word	.LC45
 850 02ac CF000000 		.word	.LC47
 851 02b0 DB000000 		.word	.LC49
 852 02b4 E2000000 		.word	.LC51
 853 02b8 E9000000 		.word	.LC53
 854 02bc FB000000 		.word	.LC55
 855 02c0 0D010000 		.word	.LC57
 856 02c4 1F010000 		.word	.LC59
 857 02c8 31010000 		.word	.LC61
 858 02cc 43010000 		.word	.LC63
 859 02d0 55010000 		.word	.LC65
 860 02d4 67010000 		.word	.LC67
 861 02d8 79010000 		.word	.LC69
 862 02dc 8B010000 		.word	.LC71
 863 02e0 9D010000 		.word	.LC73
 864 02e4 A7010000 		.word	.LC75
 865 02e8 B0010000 		.word	.LC77
 866 02ec C0010000 		.word	.LC79
 867 02f0 D0010000 		.word	.LC81
 868 02f4 E0010000 		.word	.LC83
 869 02f8 F0010000 		.word	.LC85
 870 02fc FD010000 		.word	.LC87
 871 0300 0F020000 		.word	.LC89
 872              		.cfi_endproc
ARM GAS  C:\Users\SDEVAS~1\AppData\Local\Temp\ccPhqTSe.s 			page 26


 873              	.LFE35:
 874              		.size	get_atom_variable_id_from_string, .-get_atom_variable_id_from_string
 875              		.section	.text.get_atom_mode_from_string,"ax",%progbits
 876              		.align	1
 877              		.code	16
 878              		.thumb_func
 879              		.type	get_atom_mode_from_string, %function
 880              	get_atom_mode_from_string:
 881              	.LFB36:
 112:.\Generated_Source\PSoC4/comm.c **** static atom_modes_t get_atom_mode_from_string(const char *str, int len) {
 882              		.loc 1 112 0
 883              		.cfi_startproc
 884              	.LVL71:
 885 0000 38B5     		push	{r3, r4, r5, lr}
 886              		.cfi_def_cfa_offset 16
 887              		.cfi_offset 3, -16
 888              		.cfi_offset 4, -12
 889              		.cfi_offset 5, -8
 890              		.cfi_offset 14, -4
 112:.\Generated_Source\PSoC4/comm.c **** static atom_modes_t get_atom_mode_from_string(const char *str, int len) {
 891              		.loc 1 112 0
 892 0002 0C1C     		mov	r4, r1
 114:.\Generated_Source\PSoC4/comm.c **** 	ATOM_MODES
 893              		.loc 1 114 0
 894 0004 221C     		mov	r2, r4
 895 0006 1149     		ldr	r1, .L118
 896              	.LVL72:
 112:.\Generated_Source\PSoC4/comm.c **** static atom_modes_t get_atom_mode_from_string(const char *str, int len) {
 897              		.loc 1 112 0
 898 0008 051C     		mov	r5, r0
 114:.\Generated_Source\PSoC4/comm.c **** 	ATOM_MODES
 899              		.loc 1 114 0
 900 000a FFF7FEFF 		bl	strncmp
 901              	.LVL73:
 902 000e 0023     		mov	r3, #0
 903 0010 9842     		cmp	r0, r3
 904 0012 18D0     		beq	.L110
 114:.\Generated_Source\PSoC4/comm.c **** 	ATOM_MODES
 905              		.loc 1 114 0 is_stmt 0 discriminator 2
 906 0014 281C     		mov	r0, r5
 907 0016 0E49     		ldr	r1, .L118+4
 908 0018 221C     		mov	r2, r4
 909 001a FFF7FEFF 		bl	strncmp
 910              	.LVL74:
 911 001e 0123     		mov	r3, #1
 912 0020 0028     		cmp	r0, #0
 913 0022 10D0     		beq	.L110
 914 0024 281C     		mov	r0, r5
 915 0026 0B49     		ldr	r1, .L118+8
 916 0028 221C     		mov	r2, r4
 917 002a FFF7FEFF 		bl	strncmp
 918              	.LVL75:
 919 002e 0223     		mov	r3, #2
 920 0030 0028     		cmp	r0, #0
 921 0032 08D0     		beq	.L110
 922 0034 281C     		mov	r0, r5
 923 0036 0849     		ldr	r1, .L118+12
ARM GAS  C:\Users\SDEVAS~1\AppData\Local\Temp\ccPhqTSe.s 			page 27


 924 0038 221C     		mov	r2, r4
 925 003a FFF7FEFF 		bl	strncmp
 926              	.LVL76:
 116:.\Generated_Source\PSoC4/comm.c **** 	return INVALID_ATOM_MODE;
 927              		.loc 1 116 0 is_stmt 1 discriminator 2
 928 003e 0523     		mov	r3, #5
 114:.\Generated_Source\PSoC4/comm.c **** 	ATOM_MODES
 929              		.loc 1 114 0 discriminator 2
 930 0040 0028     		cmp	r0, #0
 931 0042 00D1     		bne	.L110
 114:.\Generated_Source\PSoC4/comm.c **** 	ATOM_MODES
 932              		.loc 1 114 0 is_stmt 0
 933 0044 0323     		mov	r3, #3
 934              	.L110:
 117:.\Generated_Source\PSoC4/comm.c **** }
 935              		.loc 1 117 0 is_stmt 1
 936 0046 181C     		mov	r0, r3
 937              		@ sp needed
 938              	.LVL77:
 939              	.LVL78:
 940 0048 38BD     		pop	{r3, r4, r5, pc}
 941              	.L119:
 942 004a C046     		.align	2
 943              	.L118:
 944 004c 18020000 		.word	.LC91
 945 0050 1E020000 		.word	.LC93
 946 0054 23020000 		.word	.LC95
 947 0058 28020000 		.word	.LC97
 948              		.cfi_endproc
 949              	.LFE36:
 950              		.size	get_atom_mode_from_string, .-get_atom_mode_from_string
 951              		.section	.text.rs485_wake_callback,"ax",%progbits
 952              		.align	1
 953              		.global	rs485_wake_callback
 954              		.code	16
 955              		.thumb_func
 956              		.type	rs485_wake_callback, %function
 957              	rs485_wake_callback:
 958              	.LFB51:
 466:.\Generated_Source\PSoC4/comm.c **** void rs485_wake_callback(uint8 isWake) {
 959              		.loc 1 466 0
 960              		.cfi_startproc
 961              	.LVL79:
 962 0000 08B5     		push	{r3, lr}
 963              		.cfi_def_cfa_offset 8
 964              		.cfi_offset 3, -8
 965              		.cfi_offset 14, -4
 467:.\Generated_Source\PSoC4/comm.c **** 	isWake ? sleepMgr_requestSleep() : sleepMgr_releaseSleep();
 966              		.loc 1 467 0
 967 0002 0028     		cmp	r0, #0
 968 0004 02D0     		beq	.L121
 467:.\Generated_Source\PSoC4/comm.c **** 	isWake ? sleepMgr_requestSleep() : sleepMgr_releaseSleep();
 969              		.loc 1 467 0 is_stmt 0 discriminator 1
 970 0006 FFF7FEFF 		bl	sleepMgr_requestSleep
 971              	.LVL80:
 972 000a 01E0     		b	.L120
 973              	.LVL81:
ARM GAS  C:\Users\SDEVAS~1\AppData\Local\Temp\ccPhqTSe.s 			page 28


 974              	.L121:
 467:.\Generated_Source\PSoC4/comm.c **** 	isWake ? sleepMgr_requestSleep() : sleepMgr_releaseSleep();
 975              		.loc 1 467 0 discriminator 2
 976 000c FFF7FEFF 		bl	sleepMgr_releaseSleep
 977              	.LVL82:
 978              	.L120:
 468:.\Generated_Source\PSoC4/comm.c **** }
 979              		.loc 1 468 0 is_stmt 1
 980              		@ sp needed
 981 0010 08BD     		pop	{r3, pc}
 982              		.cfi_endproc
 983              	.LFE51:
 984              		.size	rs485_wake_callback, .-rs485_wake_callback
 985              		.section	.text.rs485_frame_sent_callback,"ax",%progbits
 986              		.align	1
 987              		.global	rs485_frame_sent_callback
 988              		.code	16
 989              		.thumb_func
 990              		.type	rs485_frame_sent_callback, %function
 991              	rs485_frame_sent_callback:
 992              	.LFB58:
 492:.\Generated_Source\PSoC4/comm.c **** 
 493:.\Generated_Source\PSoC4/comm.c **** void comm_Init(void) {
 494:.\Generated_Source\PSoC4/comm.c **** 	memset(&comm, 0, sizeof(comm));
 495:.\Generated_Source\PSoC4/comm.c **** 	comm.state = COMM_STATE_IDLE;
 496:.\Generated_Source\PSoC4/comm.c **** 
 497:.\Generated_Source\PSoC4/comm.c ****     comm_RS485_SetCallbackOnSelectedAsSlave(rs485_selected_as_slave_callback);
 498:.\Generated_Source\PSoC4/comm.c ****     comm_RS485_SetCallbackOnReleasedAsSlave(rs485_released_as_slave_callback);
 499:.\Generated_Source\PSoC4/comm.c ****     comm_RS485_SetCallbackOnSlaveReceive(rs485_receive_callback, comm.recvBuff, RECV_BUFF_LEN);
 500:.\Generated_Source\PSoC4/comm.c ****     comm_RS485_SetCallbackOnMasterReceive(rs485_receive_callback, comm.recvBuff, RECV_BUFF_LEN);
 501:.\Generated_Source\PSoC4/comm.c ****     comm_RS485_SetCallbackOnWake(rs485_wake_callback);
 502:.\Generated_Source\PSoC4/comm.c **** //    comm_RS485_SetCallbackOnError(rs485_error_callback);
 503:.\Generated_Source\PSoC4/comm.c ****     comm_RS485_Init();
 504:.\Generated_Source\PSoC4/comm.c **** }
 505:.\Generated_Source\PSoC4/comm.c **** 
 506:.\Generated_Source\PSoC4/comm.c **** void comm_ScheduleMessage(const char *order, int orderLen, char atomType, char atomID) {
 507:.\Generated_Source\PSoC4/comm.c **** 	comm.schedOrder = order;
 508:.\Generated_Source\PSoC4/comm.c **** 	comm.schedOrderLen = orderLen;
 509:.\Generated_Source\PSoC4/comm.c **** 	comm.schedAddr = atomType == 'X' ? comm_RS485_Protocol_ARB_ADDRESS : jsonAddressToRS(atomType, ato
 510:.\Generated_Source\PSoC4/comm.c **** 	*msgDestinationHolderAtomType = atomType;
 511:.\Generated_Source\PSoC4/comm.c **** 	*msgDestinationHolderAtomId = atomID;
 512:.\Generated_Source\PSoC4/comm.c **** 
 513:.\Generated_Source\PSoC4/comm.c **** 	comm_RS485_RequestBus(rs485_bus_granted_callback);
 514:.\Generated_Source\PSoC4/comm.c **** }
 515:.\Generated_Source\PSoC4/comm.c **** 
 516:.\Generated_Source\PSoC4/comm.c **** 
 517:.\Generated_Source\PSoC4/comm.c **** static uint32_t sendingTicks = 0;
 518:.\Generated_Source\PSoC4/comm.c **** void rs485_frame_sent_callback(char * buff, uint32 len) {
 993              		.loc 1 518 0
 994              		.cfi_startproc
 995              	.LVL83:
 996 0000 38B5     		push	{r3, r4, r5, lr}
 997              		.cfi_def_cfa_offset 16
 998              		.cfi_offset 3, -16
 999              		.cfi_offset 4, -12
 1000              		.cfi_offset 5, -8
 1001              		.cfi_offset 14, -4
ARM GAS  C:\Users\SDEVAS~1\AppData\Local\Temp\ccPhqTSe.s 			page 29


 519:.\Generated_Source\PSoC4/comm.c **** 	if(comm.flags.LAST_MSG) {
 1002              		.loc 1 519 0
 1003 0002 0B4D     		ldr	r5, .L126
 1004 0004 9824     		mov	r4, #152
 1005 0006 6400     		lsl	r4, r4, #1
 1006 0008 2B5D     		ldrb	r3, [r5, r4]
 1007 000a 1A07     		lsl	r2, r3, #28
 1008 000c 06D5     		bpl	.L124
 1009              	.LVL84:
 1010              	.LBB19:
 1011              	.LBB20:
 520:.\Generated_Source\PSoC4/comm.c **** 		comm.flags.LAST_MSG = 0;
 1012              		.loc 1 520 0
 1013 000e 0822     		mov	r2, #8
 1014 0010 9343     		bic	r3, r2
 521:.\Generated_Source\PSoC4/comm.c **** 		comm_RS485_ReleaseSlave(rs485_slave_released_callback);  //if we are slave, this will fail
 1015              		.loc 1 521 0
 1016 0012 0848     		ldr	r0, .L126+4
 1017              	.LVL85:
 520:.\Generated_Source\PSoC4/comm.c **** 		comm.flags.LAST_MSG = 0;
 1018              		.loc 1 520 0
 1019 0014 2B55     		strb	r3, [r5, r4]
 1020              		.loc 1 521 0
 1021 0016 FFF7FEFF 		bl	comm_RS485_ReleaseSlave
 1022              	.LVL86:
 1023 001a 07E0     		b	.L123
 1024              	.LVL87:
 1025              	.L124:
 1026              	.LBE20:
 1027              	.LBE19:
 522:.\Generated_Source\PSoC4/comm.c **** 	} else {
 523:.\Generated_Source\PSoC4/comm.c **** 		sendingTicks = SysTimer_GetTicks();
 1028              		.loc 1 523 0
 1029 001c FFF7FEFF 		bl	SysTimer_GetTicks
 1030              	.LVL88:
 1031 0020 054B     		ldr	r3, .L126+8
 524:.\Generated_Source\PSoC4/comm.c **** 		comm.flags.SENT = 1;
 1032              		.loc 1 524 0
 1033 0022 0222     		mov	r2, #2
 523:.\Generated_Source\PSoC4/comm.c **** 		sendingTicks = SysTimer_GetTicks();
 1034              		.loc 1 523 0
 1035 0024 1860     		str	r0, [r3]
 1036              		.loc 1 524 0
 1037 0026 2B5D     		ldrb	r3, [r5, r4]
 1038 0028 1343     		orr	r3, r2
 1039 002a 2B55     		strb	r3, [r5, r4]
 1040              	.L123:
 525:.\Generated_Source\PSoC4/comm.c **** 	}
 526:.\Generated_Source\PSoC4/comm.c **** }
 1041              		.loc 1 526 0
 1042              		@ sp needed
 1043 002c 38BD     		pop	{r3, r4, r5, pc}
 1044              	.L127:
 1045 002e C046     		.align	2
 1046              	.L126:
 1047 0030 00000000 		.word	comm
 1048 0034 00000000 		.word	rs485_slave_released_callback
ARM GAS  C:\Users\SDEVAS~1\AppData\Local\Temp\ccPhqTSe.s 			page 30


 1049 0038 00000000 		.word	.LANCHOR1
 1050              		.cfi_endproc
 1051              	.LFE58:
 1052              		.size	rs485_frame_sent_callback, .-rs485_frame_sent_callback
 1053              		.section	.text.comm_handle_Get.part.1,"ax",%progbits
 1054              		.align	1
 1055              		.code	16
 1056              		.thumb_func
 1057              		.type	comm_handle_Get.part.1, %function
 1058              	comm_handle_Get.part.1:
 1059              	.LFB61:
 283:.\Generated_Source\PSoC4/comm.c **** comm_flags_t comm_handle_Get(comm_flags_t flags, const char *payload, int payloadLen, jsmntok_t *to
 1060              		.loc 1 283 0
 1061              		.cfi_startproc
 1062              	.LVL89:
 1063 0000 F7B5     		push	{r0, r1, r2, r4, r5, r6, r7, lr}
 1064              		.cfi_def_cfa_offset 32
 1065              		.cfi_offset 0, -32
 1066              		.cfi_offset 1, -28
 1067              		.cfi_offset 2, -24
 1068              		.cfi_offset 4, -20
 1069              		.cfi_offset 5, -16
 1070              		.cfi_offset 6, -12
 1071              		.cfi_offset 7, -8
 1072              		.cfi_offset 14, -4
 291:.\Generated_Source\PSoC4/comm.c ****   if(tokens[0].type != JSMN_OBJECT) {
 1073              		.loc 1 291 0
 1074 0002 0E78     		ldrb	r6, [r1]
 283:.\Generated_Source\PSoC4/comm.c **** comm_flags_t comm_handle_Get(comm_flags_t flags, const char *payload, int payloadLen, jsmntok_t *to
 1075              		.loc 1 283 0
 1076 0004 071C     		mov	r7, r0
 1077 0006 0C1C     		mov	r4, r1
 291:.\Generated_Source\PSoC4/comm.c ****   if(tokens[0].type != JSMN_OBJECT) {
 1078              		.loc 1 291 0
 1079 0008 012E     		cmp	r6, #1
 1080 000a 00D0     		beq	.LCB953
 1081 000c 9BE2     		b	.L129	@long jump
 1082              	.LCB953:
 299:.\Generated_Source\PSoC4/comm.c ****   for(; i < tokens[0].size; i++) {
 1083              		.loc 1 299 0
 1084 000e CA68     		ldr	r2, [r1, #12]
 1085 0010 0025     		mov	r5, #0
 1086 0012 0192     		str	r2, [sp, #4]
 1087              	.LVL90:
 1088              	.L130:
 1089 0014 019B     		ldr	r3, [sp, #4]
 1090 0016 9D42     		cmp	r5, r3
 1091 0018 00DB     		blt	.LCB965
 1092 001a 94E2     		b	.L129	@long jump
 1093              	.LCB965:
 300:.\Generated_Source\PSoC4/comm.c **** 	if(tokens[t].type != JSMN_STRING) {//it should point to key
 1094              		.loc 1 300 0
 1095 001c 3101     		lsl	r1, r6, #4
 1096 001e 6118     		add	r1, r4, r1
 1097 0020 0B78     		ldrb	r3, [r1]
 1098 0022 032B     		cmp	r3, #3
 1099 0024 00D0     		beq	.LCB970
ARM GAS  C:\Users\SDEVAS~1\AppData\Local\Temp\ccPhqTSe.s 			page 31


 1100 0026 8EE2     		b	.L129	@long jump
 1101              	.LCB970:
 304:.\Generated_Source\PSoC4/comm.c ****     if(compKey(payload, &tokens[t], "n") == 0) {
 1102              		.loc 1 304 0
 1103 0028 381C     		mov	r0, r7
 1104 002a D94A     		ldr	r2, .L179
 1105 002c FFF7FEFF 		bl	compKey
 1106              	.LVL91:
 1107 0030 711C     		add	r1, r6, #1
 1108 0032 0028     		cmp	r0, #0
 1109 0034 0AD1     		bne	.L131
 306:.\Generated_Source\PSoC4/comm.c ****       avid = get_atom_variable_id_from_string(payload + tokens[t+1].start,tokens[t+1].end - tokens[
 1110              		.loc 1 306 0
 1111 0036 0901     		lsl	r1, r1, #4
 1112 0038 6418     		add	r4, r4, r1
 1113              	.LVL92:
 1114 003a 6368     		ldr	r3, [r4, #4]
 1115 003c A168     		ldr	r1, [r4, #8]
 1116 003e F818     		add	r0, r7, r3
 1117 0040 C91A     		sub	r1, r1, r3
 1118 0042 FFF7FEFF 		bl	get_atom_variable_id_from_string
 1119              	.LVL93:
 311:.\Generated_Source\PSoC4/comm.c ****   if(avid == INVALID_ATOM_VARIABLE) {
 1120              		.loc 1 311 0
 1121 0046 2528     		cmp	r0, #37
 1122 0048 06D1     		bne	.L176
 1123 004a 7CE2     		b	.L129
 1124              	.LVL94:
 1125              	.L131:
 309:.\Generated_Source\PSoC4/comm.c ****     t = skipToNextTokenInLevel(tokens, ++t);
 1126              		.loc 1 309 0
 1127 004c 201C     		mov	r0, r4
 1128 004e FFF7FEFF 		bl	skipToNextTokenInLevel
 1129              	.LVL95:
 299:.\Generated_Source\PSoC4/comm.c ****   for(; i < tokens[0].size; i++) {
 1130              		.loc 1 299 0
 1131 0052 0135     		add	r5, r5, #1
 1132              	.LVL96:
 309:.\Generated_Source\PSoC4/comm.c ****     t = skipToNextTokenInLevel(tokens, ++t);
 1133              		.loc 1 309 0
 1134 0054 061C     		mov	r6, r0
 1135              	.LVL97:
 1136 0056 DDE7     		b	.L130
 1137              	.LVL98:
 1138              	.L176:
 317:.\Generated_Source\PSoC4/comm.c ****   switch(avid) {
 1139              		.loc 1 317 0
 1140 0058 2328     		cmp	r0, #35
 1141 005a 00D9     		bls	.LCB1017
 1142 005c 73E2     		b	.L129	@long jump
 1143              	.LCB1017:
 1144 005e CD4C     		ldr	r4, .L179+4
 1145 0060 FFF7FEFF 		bl	__gnu_thumb1_case_uhi
 1146              	.L135:
 1147 0064 2400     		.2byte	(.L134-.L135)/2
 1148 0066 3200     		.2byte	(.L136-.L135)/2
 1149 0068 4000     		.2byte	(.L137-.L135)/2
ARM GAS  C:\Users\SDEVAS~1\AppData\Local\Temp\ccPhqTSe.s 			page 32


 1150 006a 5300     		.2byte	(.L138-.L135)/2
 1151 006c 6100     		.2byte	(.L139-.L135)/2
 1152 006e 6F00     		.2byte	(.L140-.L135)/2
 1153 0070 7D00     		.2byte	(.L141-.L135)/2
 1154 0072 8B00     		.2byte	(.L142-.L135)/2
 1155 0074 9900     		.2byte	(.L143-.L135)/2
 1156 0076 A700     		.2byte	(.L144-.L135)/2
 1157 0078 B500     		.2byte	(.L145-.L135)/2
 1158 007a C300     		.2byte	(.L146-.L135)/2
 1159 007c D100     		.2byte	(.L147-.L135)/2
 1160 007e DF00     		.2byte	(.L148-.L135)/2
 1161 0080 ED00     		.2byte	(.L149-.L135)/2
 1162 0082 FB00     		.2byte	(.L150-.L135)/2
 1163 0084 0901     		.2byte	(.L151-.L135)/2
 1164 0086 1701     		.2byte	(.L152-.L135)/2
 1165 0088 2501     		.2byte	(.L153-.L135)/2
 1166 008a 3301     		.2byte	(.L154-.L135)/2
 1167 008c 4101     		.2byte	(.L155-.L135)/2
 1168 008e 4F01     		.2byte	(.L156-.L135)/2
 1169 0090 5D01     		.2byte	(.L157-.L135)/2
 1170 0092 6B01     		.2byte	(.L158-.L135)/2
 1171 0094 7901     		.2byte	(.L159-.L135)/2
 1172 0096 8701     		.2byte	(.L160-.L135)/2
 1173 0098 CE01     		.2byte	(.L161-.L135)/2
 1174 009a E101     		.2byte	(.L162-.L135)/2
 1175 009c EF01     		.2byte	(.L163-.L135)/2
 1176 009e FD01     		.2byte	(.L164-.L135)/2
 1177 00a0 0B02     		.2byte	(.L165-.L135)/2
 1178 00a2 1902     		.2byte	(.L166-.L135)/2
 1179 00a4 2702     		.2byte	(.L167-.L135)/2
 1180 00a6 3502     		.2byte	(.L168-.L135)/2
 1181 00a8 4302     		.2byte	(.L169-.L135)/2
 1182 00aa 5102     		.2byte	(.L170-.L135)/2
 1183              		.p2align 1
 1184              	.L134:
 323:.\Generated_Source\PSoC4/comm.c ****     ATOM_VARIABLES
 1185              		.loc 1 323 0
 1186 00ac 2068     		ldr	r0, [r4]
 1187              	.LVL99:
 1188 00ae BA49     		ldr	r1, .L179+8
 1189 00b0 2B22     		mov	r2, #43
 1190 00b2 FFF7FEFF 		bl	memcpy
 1191              	.LVL100:
 1192 00b6 2668     		ldr	r6, [r4]
 1193              	.LVL101:
 1194 00b8 6568     		ldr	r5, [r4, #4]
 1195              	.LVL102:
 1196 00ba 2A36     		add	r6, r6, #42
 1197 00bc 2A3D     		sub	r5, r5, #42
 1198 00be 2660     		str	r6, [r4]
 1199 00c0 6560     		str	r5, [r4, #4]
 1200 00c2 FFF7FEFF 		bl	getvar_sleepPeriod
 1201              	.LVL103:
 1202 00c6 2BE2     		b	.L177
 1203              	.LVL104:
 1204              	.L136:
 1205 00c8 2068     		ldr	r0, [r4]
ARM GAS  C:\Users\SDEVAS~1\AppData\Local\Temp\ccPhqTSe.s 			page 33


 1206              	.LVL105:
 1207 00ca B449     		ldr	r1, .L179+12
 1208 00cc 2C22     		mov	r2, #44
 1209 00ce FFF7FEFF 		bl	memcpy
 1210              	.LVL106:
 1211 00d2 2668     		ldr	r6, [r4]
 1212              	.LVL107:
 1213 00d4 6568     		ldr	r5, [r4, #4]
 1214              	.LVL108:
 1215 00d6 2B36     		add	r6, r6, #43
 1216 00d8 2B3D     		sub	r5, r5, #43
 1217 00da 2660     		str	r6, [r4]
 1218 00dc 6560     		str	r5, [r4, #4]
 1219 00de FFF7FEFF 		bl	getvar_shutdownTime
 1220              	.LVL109:
 1221 00e2 1DE2     		b	.L177
 1222              	.LVL110:
 1223              	.L137:
 1224 00e4 AE49     		ldr	r1, .L179+16
 1225 00e6 2422     		mov	r2, #36
 1226 00e8 2068     		ldr	r0, [r4]
 1227              	.LVL111:
 1228 00ea FFF7FEFF 		bl	memcpy
 1229              	.LVL112:
 1230 00ee 2668     		ldr	r6, [r4]
 1231              	.LVL113:
 1232 00f0 6568     		ldr	r5, [r4, #4]
 1233              	.LVL114:
 1234 00f2 2336     		add	r6, r6, #35
 1235 00f4 233D     		sub	r5, r5, #35
 1236 00f6 2660     		str	r6, [r4]
 1237 00f8 6560     		str	r5, [r4, #4]
 1238 00fa FFF7FEFF 		bl	getvar_test
 1239              	.LVL115:
 1240 00fe 291C     		mov	r1, r5
 1241 0100 021C     		mov	r2, r0
 1242 0102 301C     		mov	r0, r6
 1243 0104 FFF7FEFF 		bl	conv_s2str
 1244              	.LVL116:
 1245 0108 0FE2     		b	.L171
 1246              	.LVL117:
 1247              	.L138:
 1248 010a 2068     		ldr	r0, [r4]
 1249              	.LVL118:
 1250 010c A549     		ldr	r1, .L179+20
 1251 010e 2D22     		mov	r2, #45
 1252 0110 FFF7FEFF 		bl	memcpy
 1253              	.LVL119:
 1254 0114 2668     		ldr	r6, [r4]
 1255              	.LVL120:
 1256 0116 6568     		ldr	r5, [r4, #4]
 1257              	.LVL121:
 1258 0118 2C36     		add	r6, r6, #44
 1259 011a 2C3D     		sub	r5, r5, #44
 1260 011c 2660     		str	r6, [r4]
 1261 011e 6560     		str	r5, [r4, #4]
 1262 0120 FFF7FEFF 		bl	getvar_innerPressure
ARM GAS  C:\Users\SDEVAS~1\AppData\Local\Temp\ccPhqTSe.s 			page 34


 1263              	.LVL122:
 1264 0124 FCE1     		b	.L177
 1265              	.LVL123:
 1266              	.L139:
 1267 0126 2068     		ldr	r0, [r4]
 1268              	.LVL124:
 1269 0128 9F49     		ldr	r1, .L179+24
 1270 012a 2D22     		mov	r2, #45
 1271 012c FFF7FEFF 		bl	memcpy
 1272              	.LVL125:
 1273 0130 2668     		ldr	r6, [r4]
 1274              	.LVL126:
 1275 0132 6568     		ldr	r5, [r4, #4]
 1276              	.LVL127:
 1277 0134 2C36     		add	r6, r6, #44
 1278 0136 2C3D     		sub	r5, r5, #44
 1279 0138 2660     		str	r6, [r4]
 1280 013a 6560     		str	r5, [r4, #4]
 1281 013c FFF7FEFF 		bl	getvar_outerPressure
 1282              	.LVL128:
 1283 0140 EEE1     		b	.L177
 1284              	.LVL129:
 1285              	.L140:
 1286 0142 2068     		ldr	r0, [r4]
 1287              	.LVL130:
 1288 0144 9949     		ldr	r1, .L179+28
 1289 0146 2B22     		mov	r2, #43
 1290 0148 FFF7FEFF 		bl	memcpy
 1291              	.LVL131:
 1292 014c 2668     		ldr	r6, [r4]
 1293              	.LVL132:
 1294 014e 6568     		ldr	r5, [r4, #4]
 1295              	.LVL133:
 1296 0150 2A36     		add	r6, r6, #42
 1297 0152 2A3D     		sub	r5, r5, #42
 1298 0154 2660     		str	r6, [r4]
 1299 0156 6560     		str	r5, [r4, #4]
 1300 0158 FFF7FEFF 		bl	getvar_currentFlow
 1301              	.LVL134:
 1302 015c E0E1     		b	.L177
 1303              	.LVL135:
 1304              	.L141:
 1305 015e 2068     		ldr	r0, [r4]
 1306              	.LVL136:
 1307 0160 9349     		ldr	r1, .L179+32
 1308 0162 2B22     		mov	r2, #43
 1309 0164 FFF7FEFF 		bl	memcpy
 1310              	.LVL137:
 1311 0168 2668     		ldr	r6, [r4]
 1312              	.LVL138:
 1313 016a 6568     		ldr	r5, [r4, #4]
 1314              	.LVL139:
 1315 016c 2A36     		add	r6, r6, #42
 1316 016e 2A3D     		sub	r5, r5, #42
 1317 0170 2660     		str	r6, [r4]
 1318 0172 6560     		str	r5, [r4, #4]
 1319 0174 FFF7FEFF 		bl	getvar_totalVolume
ARM GAS  C:\Users\SDEVAS~1\AppData\Local\Temp\ccPhqTSe.s 			page 35


 1320              	.LVL140:
 1321 0178 D2E1     		b	.L177
 1322              	.LVL141:
 1323              	.L142:
 1324 017a 2068     		ldr	r0, [r4]
 1325              	.LVL142:
 1326 017c 8D49     		ldr	r1, .L179+36
 1327 017e 2B22     		mov	r2, #43
 1328 0180 FFF7FEFF 		bl	memcpy
 1329              	.LVL143:
 1330 0184 2668     		ldr	r6, [r4]
 1331              	.LVL144:
 1332 0186 6568     		ldr	r5, [r4, #4]
 1333              	.LVL145:
 1334 0188 2A36     		add	r6, r6, #42
 1335 018a 2A3D     		sub	r5, r5, #42
 1336 018c 2660     		str	r6, [r4]
 1337 018e 6560     		str	r5, [r4, #4]
 1338 0190 FFF7FEFF 		bl	getvar_valveStatus
 1339              	.LVL146:
 1340 0194 C4E1     		b	.L177
 1341              	.LVL147:
 1342              	.L143:
 1343 0196 2068     		ldr	r0, [r4]
 1344              	.LVL148:
 1345 0198 8749     		ldr	r1, .L179+40
 1346 019a 2F22     		mov	r2, #47
 1347 019c FFF7FEFF 		bl	memcpy
 1348              	.LVL149:
 1349 01a0 2668     		ldr	r6, [r4]
 1350              	.LVL150:
 1351 01a2 6568     		ldr	r5, [r4, #4]
 1352              	.LVL151:
 1353 01a4 2E36     		add	r6, r6, #46
 1354 01a6 2E3D     		sub	r5, r5, #46
 1355 01a8 2660     		str	r6, [r4]
 1356 01aa 6560     		str	r5, [r4, #4]
 1357 01ac FFF7FEFF 		bl	getvar_lastStartNumber
 1358              	.LVL152:
 1359 01b0 B6E1     		b	.L177
 1360              	.LVL153:
 1361              	.L144:
 1362 01b2 2068     		ldr	r0, [r4]
 1363              	.LVL154:
 1364 01b4 8149     		ldr	r1, .L179+44
 1365 01b6 2F22     		mov	r2, #47
 1366 01b8 FFF7FEFF 		bl	memcpy
 1367              	.LVL155:
 1368 01bc 2668     		ldr	r6, [r4]
 1369              	.LVL156:
 1370 01be 6568     		ldr	r5, [r4, #4]
 1371              	.LVL157:
 1372 01c0 2E36     		add	r6, r6, #46
 1373 01c2 2E3D     		sub	r5, r5, #46
 1374 01c4 2660     		str	r6, [r4]
 1375 01c6 6560     		str	r5, [r4, #4]
 1376 01c8 FFF7FEFF 		bl	getvar_lastStartVolume
ARM GAS  C:\Users\SDEVAS~1\AppData\Local\Temp\ccPhqTSe.s 			page 36


 1377              	.LVL158:
 1378 01cc A8E1     		b	.L177
 1379              	.LVL159:
 1380              	.L145:
 1381 01ce 2068     		ldr	r0, [r4]
 1382              	.LVL160:
 1383 01d0 7B49     		ldr	r1, .L179+48
 1384 01d2 2D22     		mov	r2, #45
 1385 01d4 FFF7FEFF 		bl	memcpy
 1386              	.LVL161:
 1387 01d8 2668     		ldr	r6, [r4]
 1388              	.LVL162:
 1389 01da 6568     		ldr	r5, [r4, #4]
 1390              	.LVL163:
 1391 01dc 2C36     		add	r6, r6, #44
 1392 01de 2C3D     		sub	r5, r5, #44
 1393 01e0 2660     		str	r6, [r4]
 1394 01e2 6560     		str	r5, [r4, #4]
 1395 01e4 FFF7FEFF 		bl	getvar_lastStartFlow
 1396              	.LVL164:
 1397 01e8 9AE1     		b	.L177
 1398              	.LVL165:
 1399              	.L146:
 1400 01ea 2068     		ldr	r0, [r4]
 1401              	.LVL166:
 1402 01ec 7549     		ldr	r1, .L179+52
 1403 01ee 2922     		mov	r2, #41
 1404 01f0 FFF7FEFF 		bl	memcpy
 1405              	.LVL167:
 1406 01f4 2668     		ldr	r6, [r4]
 1407              	.LVL168:
 1408 01f6 6568     		ldr	r5, [r4, #4]
 1409              	.LVL169:
 1410 01f8 2836     		add	r6, r6, #40
 1411 01fa 283D     		sub	r5, r5, #40
 1412 01fc 2660     		str	r6, [r4]
 1413 01fe 6560     		str	r5, [r4, #4]
 1414 0200 FFF7FEFF 		bl	getvar_startTime
 1415              	.LVL170:
 1416 0204 8CE1     		b	.L177
 1417              	.LVL171:
 1418              	.L147:
 1419 0206 2068     		ldr	r0, [r4]
 1420              	.LVL172:
 1421 0208 6F49     		ldr	r1, .L179+56
 1422 020a 2822     		mov	r2, #40
 1423 020c FFF7FEFF 		bl	memcpy
 1424              	.LVL173:
 1425 0210 2668     		ldr	r6, [r4]
 1426              	.LVL174:
 1427 0212 6568     		ldr	r5, [r4, #4]
 1428              	.LVL175:
 1429 0214 2736     		add	r6, r6, #39
 1430 0216 273D     		sub	r5, r5, #39
 1431 0218 2660     		str	r6, [r4]
 1432 021a 6560     		str	r5, [r4, #4]
 1433 021c FFF7FEFF 		bl	getvar_stopTime
ARM GAS  C:\Users\SDEVAS~1\AppData\Local\Temp\ccPhqTSe.s 			page 37


 1434              	.LVL176:
 1435 0220 7EE1     		b	.L177
 1436              	.LVL177:
 1437              	.L148:
 1438 0222 2068     		ldr	r0, [r4]
 1439              	.LVL178:
 1440 0224 6949     		ldr	r1, .L179+60
 1441 0226 2922     		mov	r2, #41
 1442 0228 FFF7FEFF 		bl	memcpy
 1443              	.LVL179:
 1444 022c 2668     		ldr	r6, [r4]
 1445              	.LVL180:
 1446 022e 6568     		ldr	r5, [r4, #4]
 1447              	.LVL181:
 1448 0230 2836     		add	r6, r6, #40
 1449 0232 283D     		sub	r5, r5, #40
 1450 0234 2660     		str	r6, [r4]
 1451 0236 6560     		str	r5, [r4, #4]
 1452 0238 FFF7FEFF 		bl	getvar_numStarts
 1453              	.LVL182:
 1454 023c 70E1     		b	.L177
 1455              	.LVL183:
 1456              	.L149:
 1457 023e 2068     		ldr	r0, [r4]
 1458              	.LVL184:
 1459 0240 6349     		ldr	r1, .L179+64
 1460 0242 2B22     		mov	r2, #43
 1461 0244 FFF7FEFF 		bl	memcpy
 1462              	.LVL185:
 1463 0248 2668     		ldr	r6, [r4]
 1464              	.LVL186:
 1465 024a 6568     		ldr	r5, [r4, #4]
 1466              	.LVL187:
 1467 024c 2A36     		add	r6, r6, #42
 1468 024e 2A3D     		sub	r5, r5, #42
 1469 0250 2660     		str	r6, [r4]
 1470 0252 6560     		str	r5, [r4, #4]
 1471 0254 FFF7FEFF 		bl	getvar_volPerStart
 1472              	.LVL188:
 1473 0258 62E1     		b	.L177
 1474              	.LVL189:
 1475              	.L150:
 1476 025a 2068     		ldr	r0, [r4]
 1477              	.LVL190:
 1478 025c 5D49     		ldr	r1, .L179+68
 1479 025e 2622     		mov	r2, #38
 1480 0260 FFF7FEFF 		bl	memcpy
 1481              	.LVL191:
 1482 0264 2668     		ldr	r6, [r4]
 1483              	.LVL192:
 1484 0266 6568     		ldr	r5, [r4, #4]
 1485              	.LVL193:
 1486 0268 2536     		add	r6, r6, #37
 1487 026a 253D     		sub	r5, r5, #37
 1488 026c 2660     		str	r6, [r4]
 1489 026e 6560     		str	r5, [r4, #4]
 1490 0270 FFF7FEFF 		bl	getvar_maxVol
ARM GAS  C:\Users\SDEVAS~1\AppData\Local\Temp\ccPhqTSe.s 			page 38


 1491              	.LVL194:
 1492 0274 54E1     		b	.L177
 1493              	.LVL195:
 1494              	.L151:
 1495 0276 2068     		ldr	r0, [r4]
 1496              	.LVL196:
 1497 0278 5749     		ldr	r1, .L179+72
 1498 027a 2622     		mov	r2, #38
 1499 027c FFF7FEFF 		bl	memcpy
 1500              	.LVL197:
 1501 0280 2668     		ldr	r6, [r4]
 1502              	.LVL198:
 1503 0282 6568     		ldr	r5, [r4, #4]
 1504              	.LVL199:
 1505 0284 2536     		add	r6, r6, #37
 1506 0286 253D     		sub	r5, r5, #37
 1507 0288 2660     		str	r6, [r4]
 1508 028a 6560     		str	r5, [r4, #4]
 1509 028c FFF7FEFF 		bl	getvar_minVol
 1510              	.LVL200:
 1511 0290 46E1     		b	.L177
 1512              	.LVL201:
 1513              	.L152:
 1514 0292 2068     		ldr	r0, [r4]
 1515              	.LVL202:
 1516 0294 5149     		ldr	r1, .L179+76
 1517 0296 3222     		mov	r2, #50
 1518 0298 FFF7FEFF 		bl	memcpy
 1519              	.LVL203:
 1520 029c 2668     		ldr	r6, [r4]
 1521              	.LVL204:
 1522 029e 6568     		ldr	r5, [r4, #4]
 1523              	.LVL205:
 1524 02a0 3136     		add	r6, r6, #49
 1525 02a2 313D     		sub	r5, r5, #49
 1526 02a4 2660     		str	r6, [r4]
 1527 02a6 6560     		str	r5, [r4, #4]
 1528 02a8 FFF7FEFF 		bl	getvar_fertigationTable0
 1529              	.LVL206:
 1530 02ac B5E0     		b	.L178
 1531              	.LVL207:
 1532              	.L153:
 1533 02ae 2068     		ldr	r0, [r4]
 1534              	.LVL208:
 1535 02b0 4B49     		ldr	r1, .L179+80
 1536 02b2 3222     		mov	r2, #50
 1537 02b4 FFF7FEFF 		bl	memcpy
 1538              	.LVL209:
 1539 02b8 2668     		ldr	r6, [r4]
 1540              	.LVL210:
 1541 02ba 6568     		ldr	r5, [r4, #4]
 1542              	.LVL211:
 1543 02bc 3136     		add	r6, r6, #49
 1544 02be 313D     		sub	r5, r5, #49
 1545 02c0 2660     		str	r6, [r4]
 1546 02c2 6560     		str	r5, [r4, #4]
 1547 02c4 FFF7FEFF 		bl	getvar_fertigationTable1
ARM GAS  C:\Users\SDEVAS~1\AppData\Local\Temp\ccPhqTSe.s 			page 39


 1548              	.LVL212:
 1549 02c8 A7E0     		b	.L178
 1550              	.LVL213:
 1551              	.L154:
 1552 02ca 2068     		ldr	r0, [r4]
 1553              	.LVL214:
 1554 02cc 4549     		ldr	r1, .L179+84
 1555 02ce 3222     		mov	r2, #50
 1556 02d0 FFF7FEFF 		bl	memcpy
 1557              	.LVL215:
 1558 02d4 2668     		ldr	r6, [r4]
 1559              	.LVL216:
 1560 02d6 6568     		ldr	r5, [r4, #4]
 1561              	.LVL217:
 1562 02d8 3136     		add	r6, r6, #49
 1563 02da 313D     		sub	r5, r5, #49
 1564 02dc 2660     		str	r6, [r4]
 1565 02de 6560     		str	r5, [r4, #4]
 1566 02e0 FFF7FEFF 		bl	getvar_fertigationTable2
 1567              	.LVL218:
 1568 02e4 99E0     		b	.L178
 1569              	.LVL219:
 1570              	.L155:
 1571 02e6 2068     		ldr	r0, [r4]
 1572              	.LVL220:
 1573 02e8 3F49     		ldr	r1, .L179+88
 1574 02ea 3222     		mov	r2, #50
 1575 02ec FFF7FEFF 		bl	memcpy
 1576              	.LVL221:
 1577 02f0 2668     		ldr	r6, [r4]
 1578              	.LVL222:
 1579 02f2 6568     		ldr	r5, [r4, #4]
 1580              	.LVL223:
 1581 02f4 3136     		add	r6, r6, #49
 1582 02f6 313D     		sub	r5, r5, #49
 1583 02f8 2660     		str	r6, [r4]
 1584 02fa 6560     		str	r5, [r4, #4]
 1585 02fc FFF7FEFF 		bl	getvar_fertigationTable3
 1586              	.LVL224:
 1587 0300 8BE0     		b	.L178
 1588              	.LVL225:
 1589              	.L156:
 1590 0302 2068     		ldr	r0, [r4]
 1591              	.LVL226:
 1592 0304 3949     		ldr	r1, .L179+92
 1593 0306 3222     		mov	r2, #50
 1594 0308 FFF7FEFF 		bl	memcpy
 1595              	.LVL227:
 1596 030c 2668     		ldr	r6, [r4]
 1597              	.LVL228:
 1598 030e 6568     		ldr	r5, [r4, #4]
 1599              	.LVL229:
 1600 0310 3136     		add	r6, r6, #49
 1601 0312 313D     		sub	r5, r5, #49
 1602 0314 2660     		str	r6, [r4]
 1603 0316 6560     		str	r5, [r4, #4]
 1604 0318 FFF7FEFF 		bl	getvar_fertigationTable4
ARM GAS  C:\Users\SDEVAS~1\AppData\Local\Temp\ccPhqTSe.s 			page 40


 1605              	.LVL230:
 1606 031c 7DE0     		b	.L178
 1607              	.LVL231:
 1608              	.L157:
 1609 031e 2068     		ldr	r0, [r4]
 1610              	.LVL232:
 1611 0320 3349     		ldr	r1, .L179+96
 1612 0322 3222     		mov	r2, #50
 1613 0324 FFF7FEFF 		bl	memcpy
 1614              	.LVL233:
 1615 0328 2668     		ldr	r6, [r4]
 1616              	.LVL234:
 1617 032a 6568     		ldr	r5, [r4, #4]
 1618              	.LVL235:
 1619 032c 3136     		add	r6, r6, #49
 1620 032e 313D     		sub	r5, r5, #49
 1621 0330 2660     		str	r6, [r4]
 1622 0332 6560     		str	r5, [r4, #4]
 1623 0334 FFF7FEFF 		bl	getvar_fertigationTable5
 1624              	.LVL236:
 1625 0338 6FE0     		b	.L178
 1626              	.LVL237:
 1627              	.L158:
 1628 033a 2068     		ldr	r0, [r4]
 1629              	.LVL238:
 1630 033c 2D49     		ldr	r1, .L179+100
 1631 033e 3222     		mov	r2, #50
 1632 0340 FFF7FEFF 		bl	memcpy
 1633              	.LVL239:
 1634 0344 2668     		ldr	r6, [r4]
 1635              	.LVL240:
 1636 0346 6568     		ldr	r5, [r4, #4]
 1637              	.LVL241:
 1638 0348 3136     		add	r6, r6, #49
 1639 034a 313D     		sub	r5, r5, #49
 1640 034c 2660     		str	r6, [r4]
 1641 034e 6560     		str	r5, [r4, #4]
 1642 0350 FFF7FEFF 		bl	getvar_fertigationTable6
 1643              	.LVL242:
 1644 0354 61E0     		b	.L178
 1645              	.LVL243:
 1646              	.L159:
 1647 0356 2068     		ldr	r0, [r4]
 1648              	.LVL244:
 1649 0358 2749     		ldr	r1, .L179+104
 1650 035a 3222     		mov	r2, #50
 1651 035c FFF7FEFF 		bl	memcpy
 1652              	.LVL245:
 1653 0360 2668     		ldr	r6, [r4]
 1654              	.LVL246:
 1655 0362 6568     		ldr	r5, [r4, #4]
 1656              	.LVL247:
 1657 0364 3136     		add	r6, r6, #49
 1658 0366 313D     		sub	r5, r5, #49
 1659 0368 2660     		str	r6, [r4]
 1660 036a 6560     		str	r5, [r4, #4]
 1661 036c FFF7FEFF 		bl	getvar_fertigationTable7
ARM GAS  C:\Users\SDEVAS~1\AppData\Local\Temp\ccPhqTSe.s 			page 41


 1662              	.LVL248:
 1663 0370 53E0     		b	.L178
 1664              	.LVL249:
 1665              	.L160:
 1666 0372 2068     		ldr	r0, [r4]
 1667              	.LVL250:
 1668 0374 2149     		ldr	r1, .L179+108
 1669 0376 3222     		mov	r2, #50
 1670 0378 FFF7FEFF 		bl	memcpy
 1671              	.LVL251:
 1672 037c 2668     		ldr	r6, [r4]
 1673              	.LVL252:
 1674 037e 6568     		ldr	r5, [r4, #4]
 1675              	.LVL253:
 1676 0380 3136     		add	r6, r6, #49
 1677 0382 313D     		sub	r5, r5, #49
 1678 0384 2660     		str	r6, [r4]
 1679 0386 6560     		str	r5, [r4, #4]
 1680 0388 FFF7FEFF 		bl	getvar_fertigationTable8
 1681              	.LVL254:
 1682 038c 45E0     		b	.L178
 1683              	.L180:
 1684 038e C046     		.align	2
 1685              	.L179:
 1686 0390 31020000 		.word	.LC102
 1687 0394 00000000 		.word	.LANCHOR0
 1688 0398 33020000 		.word	.LC105
 1689 039c 5E020000 		.word	.LC107
 1690 03a0 8A020000 		.word	.LC109
 1691 03a4 AE020000 		.word	.LC111
 1692 03a8 DB020000 		.word	.LC113
 1693 03ac 08030000 		.word	.LC115
 1694 03b0 33030000 		.word	.LC117
 1695 03b4 5E030000 		.word	.LC119
 1696 03b8 89030000 		.word	.LC121
 1697 03bc B8030000 		.word	.LC123
 1698 03c0 E7030000 		.word	.LC125
 1699 03c4 14040000 		.word	.LC127
 1700 03c8 3D040000 		.word	.LC129
 1701 03cc 65040000 		.word	.LC131
 1702 03d0 8E040000 		.word	.LC133
 1703 03d4 B9040000 		.word	.LC135
 1704 03d8 DF040000 		.word	.LC137
 1705 03dc 05050000 		.word	.LC139
 1706 03e0 37050000 		.word	.LC141
 1707 03e4 69050000 		.word	.LC143
 1708 03e8 9B050000 		.word	.LC145
 1709 03ec CD050000 		.word	.LC147
 1710 03f0 FF050000 		.word	.LC149
 1711 03f4 31060000 		.word	.LC151
 1712 03f8 63060000 		.word	.LC153
 1713 03fc 95060000 		.word	.LC155
 1714              	.LVL255:
 1715              	.L161:
 1716 0400 2068     		ldr	r0, [r4]
 1717              	.LVL256:
 1718 0402 5849     		ldr	r1, .L181
ARM GAS  C:\Users\SDEVAS~1\AppData\Local\Temp\ccPhqTSe.s 			page 42


 1719 0404 3222     		mov	r2, #50
 1720 0406 FFF7FEFF 		bl	memcpy
 1721              	.LVL257:
 1722 040a 2668     		ldr	r6, [r4]
 1723              	.LVL258:
 1724 040c 6568     		ldr	r5, [r4, #4]
 1725              	.LVL259:
 1726 040e 3136     		add	r6, r6, #49
 1727 0410 313D     		sub	r5, r5, #49
 1728 0412 2660     		str	r6, [r4]
 1729 0414 6560     		str	r5, [r4, #4]
 1730 0416 FFF7FEFF 		bl	getvar_fertigationTable9
 1731              	.LVL260:
 1732              	.L178:
 1733 041a 021C     		mov	r2, r0
 1734 041c 291C     		mov	r1, r5
 1735 041e 301C     		mov	r0, r6
 1736 0420 FFF7FEFF 		bl	conv_ia2str
 1737              	.LVL261:
 1738 0424 81E0     		b	.L171
 1739              	.LVL262:
 1740              	.L162:
 1741 0426 2068     		ldr	r0, [r4]
 1742              	.LVL263:
 1743 0428 4F49     		ldr	r1, .L181+4
 1744 042a 2922     		mov	r2, #41
 1745 042c FFF7FEFF 		bl	memcpy
 1746              	.LVL264:
 1747 0430 2668     		ldr	r6, [r4]
 1748              	.LVL265:
 1749 0432 6568     		ldr	r5, [r4, #4]
 1750              	.LVL266:
 1751 0434 2836     		add	r6, r6, #40
 1752 0436 283D     		sub	r5, r5, #40
 1753 0438 2660     		str	r6, [r4]
 1754 043a 6560     		str	r5, [r4, #4]
 1755 043c FFF7FEFF 		bl	getvar_notBefore
 1756              	.LVL267:
 1757 0440 6EE0     		b	.L177
 1758              	.LVL268:
 1759              	.L163:
 1760 0442 2068     		ldr	r0, [r4]
 1761              	.LVL269:
 1762 0444 4949     		ldr	r1, .L181+8
 1763 0446 2822     		mov	r2, #40
 1764 0448 FFF7FEFF 		bl	memcpy
 1765              	.LVL270:
 1766 044c 2668     		ldr	r6, [r4]
 1767              	.LVL271:
 1768 044e 6568     		ldr	r5, [r4, #4]
 1769              	.LVL272:
 1770 0450 2736     		add	r6, r6, #39
 1771 0452 273D     		sub	r5, r5, #39
 1772 0454 2660     		str	r6, [r4]
 1773 0456 6560     		str	r5, [r4, #4]
 1774 0458 FFF7FEFF 		bl	getvar_notAfter
 1775              	.LVL273:
ARM GAS  C:\Users\SDEVAS~1\AppData\Local\Temp\ccPhqTSe.s 			page 43


 1776 045c 60E0     		b	.L177
 1777              	.LVL274:
 1778              	.L164:
 1779 045e 2068     		ldr	r0, [r4]
 1780              	.LVL275:
 1781 0460 4349     		ldr	r1, .L181+12
 1782 0462 2F22     		mov	r2, #47
 1783 0464 FFF7FEFF 		bl	memcpy
 1784              	.LVL276:
 1785 0468 2668     		ldr	r6, [r4]
 1786              	.LVL277:
 1787 046a 6568     		ldr	r5, [r4, #4]
 1788              	.LVL278:
 1789 046c 2E36     		add	r6, r6, #46
 1790 046e 2E3D     		sub	r5, r5, #46
 1791 0470 2660     		str	r6, [r4]
 1792 0472 6560     		str	r5, [r4, #4]
 1793 0474 FFF7FEFF 		bl	getvar_dilutionFactorA
 1794              	.LVL279:
 1795 0478 52E0     		b	.L177
 1796              	.LVL280:
 1797              	.L165:
 1798 047a 2068     		ldr	r0, [r4]
 1799              	.LVL281:
 1800 047c 3D49     		ldr	r1, .L181+16
 1801 047e 2F22     		mov	r2, #47
 1802 0480 FFF7FEFF 		bl	memcpy
 1803              	.LVL282:
 1804 0484 2668     		ldr	r6, [r4]
 1805              	.LVL283:
 1806 0486 6568     		ldr	r5, [r4, #4]
 1807              	.LVL284:
 1808 0488 2E36     		add	r6, r6, #46
 1809 048a 2E3D     		sub	r5, r5, #46
 1810 048c 2660     		str	r6, [r4]
 1811 048e 6560     		str	r5, [r4, #4]
 1812 0490 FFF7FEFF 		bl	getvar_dilutionFactorB
 1813              	.LVL285:
 1814 0494 44E0     		b	.L177
 1815              	.LVL286:
 1816              	.L166:
 1817 0496 2068     		ldr	r0, [r4]
 1818              	.LVL287:
 1819 0498 3749     		ldr	r1, .L181+20
 1820 049a 2F22     		mov	r2, #47
 1821 049c FFF7FEFF 		bl	memcpy
 1822              	.LVL288:
 1823 04a0 2668     		ldr	r6, [r4]
 1824              	.LVL289:
 1825 04a2 6568     		ldr	r5, [r4, #4]
 1826              	.LVL290:
 1827 04a4 2E36     		add	r6, r6, #46
 1828 04a6 2E3D     		sub	r5, r5, #46
 1829 04a8 2660     		str	r6, [r4]
 1830 04aa 6560     		str	r5, [r4, #4]
 1831 04ac FFF7FEFF 		bl	getvar_venturiSuctionA
 1832              	.LVL291:
ARM GAS  C:\Users\SDEVAS~1\AppData\Local\Temp\ccPhqTSe.s 			page 44


 1833 04b0 36E0     		b	.L177
 1834              	.LVL292:
 1835              	.L167:
 1836 04b2 2068     		ldr	r0, [r4]
 1837              	.LVL293:
 1838 04b4 3149     		ldr	r1, .L181+24
 1839 04b6 2F22     		mov	r2, #47
 1840 04b8 FFF7FEFF 		bl	memcpy
 1841              	.LVL294:
 1842 04bc 2668     		ldr	r6, [r4]
 1843              	.LVL295:
 1844 04be 6568     		ldr	r5, [r4, #4]
 1845              	.LVL296:
 1846 04c0 2E36     		add	r6, r6, #46
 1847 04c2 2E3D     		sub	r5, r5, #46
 1848 04c4 2660     		str	r6, [r4]
 1849 04c6 6560     		str	r5, [r4, #4]
 1850 04c8 FFF7FEFF 		bl	getvar_venturiSuctionB
 1851              	.LVL297:
 1852 04cc 28E0     		b	.L177
 1853              	.LVL298:
 1854              	.L168:
 1855 04ce 2068     		ldr	r0, [r4]
 1856              	.LVL299:
 1857 04d0 2B49     		ldr	r1, .L181+28
 1858 04d2 2C22     		mov	r2, #44
 1859 04d4 FFF7FEFF 		bl	memcpy
 1860              	.LVL300:
 1861 04d8 2668     		ldr	r6, [r4]
 1862              	.LVL301:
 1863 04da 6568     		ldr	r5, [r4, #4]
 1864              	.LVL302:
 1865 04dc 2B36     		add	r6, r6, #43
 1866 04de 2B3D     		sub	r5, r5, #43
 1867 04e0 2660     		str	r6, [r4]
 1868 04e2 6560     		str	r5, [r4, #4]
 1869 04e4 FFF7FEFF 		bl	getvar_squareMeters
 1870              	.LVL303:
 1871 04e8 1AE0     		b	.L177
 1872              	.LVL304:
 1873              	.L169:
 1874 04ea 2068     		ldr	r0, [r4]
 1875              	.LVL305:
 1876 04ec 2549     		ldr	r1, .L181+32
 1877 04ee 3122     		mov	r2, #49
 1878 04f0 FFF7FEFF 		bl	memcpy
 1879              	.LVL306:
 1880 04f4 2668     		ldr	r6, [r4]
 1881              	.LVL307:
 1882 04f6 6568     		ldr	r5, [r4, #4]
 1883              	.LVL308:
 1884 04f8 3036     		add	r6, r6, #48
 1885 04fa 303D     		sub	r5, r5, #48
 1886 04fc 2660     		str	r6, [r4]
 1887 04fe 6560     		str	r5, [r4, #4]
 1888 0500 FFF7FEFF 		bl	getvar_lPerSqMeterPerDay
 1889              	.LVL309:
ARM GAS  C:\Users\SDEVAS~1\AppData\Local\Temp\ccPhqTSe.s 			page 45


 1890 0504 0CE0     		b	.L177
 1891              	.LVL310:
 1892              	.L170:
 1893 0506 2068     		ldr	r0, [r4]
 1894              	.LVL311:
 1895 0508 1F49     		ldr	r1, .L181+36
 1896 050a 2822     		mov	r2, #40
 1897 050c FFF7FEFF 		bl	memcpy
 1898              	.LVL312:
 1899 0510 2668     		ldr	r6, [r4]
 1900              	.LVL313:
 1901 0512 6568     		ldr	r5, [r4, #4]
 1902              	.LVL314:
 1903 0514 2736     		add	r6, r6, #39
 1904 0516 273D     		sub	r5, r5, #39
 1905 0518 2660     		str	r6, [r4]
 1906 051a 6560     		str	r5, [r4, #4]
 1907 051c FFF7FEFF 		bl	getvar_cropType
 1908              	.LVL315:
 1909              	.L177:
 1910 0520 021C     		mov	r2, r0
 1911 0522 291C     		mov	r1, r5
 1912 0524 301C     		mov	r0, r6
 1913 0526 FFF7FEFF 		bl	conv_i2str
 1914              	.LVL316:
 1915              	.L171:
 328:.\Generated_Source\PSoC4/comm.c ****   respEnd += tmp;
 1916              		.loc 1 328 0
 1917 052a 2268     		ldr	r2, [r4]
 1918 052c 1318     		add	r3, r2, r0
 329:.\Generated_Source\PSoC4/comm.c ****   respFreeSpace -= tmp;
 1919              		.loc 1 329 0
 1920 052e 6268     		ldr	r2, [r4, #4]
 1921 0530 101A     		sub	r0, r2, r0
 1922              	.LVL317:
 331:.\Generated_Source\PSoC4/comm.c ****   ADD_CHAR_TO_RESP('}');
 1923              		.loc 1 331 0
 1924 0532 5A1C     		add	r2, r3, #1
 1925 0534 2260     		str	r2, [r4]
 1926 0536 7D22     		mov	r2, #125
 329:.\Generated_Source\PSoC4/comm.c ****   respFreeSpace -= tmp;
 1927              		.loc 1 329 0
 1928 0538 6060     		str	r0, [r4, #4]
 331:.\Generated_Source\PSoC4/comm.c ****   ADD_CHAR_TO_RESP('}');
 1929              		.loc 1 331 0
 1930 053a 1A70     		strb	r2, [r3]
 1931 053c 6368     		ldr	r3, [r4, #4]
 333:.\Generated_Source\PSoC4/comm.c ****   return COMM_FLAG_REQ_ACK;
 1932              		.loc 1 333 0
 1933 053e 0320     		mov	r0, #3
 331:.\Generated_Source\PSoC4/comm.c ****   ADD_CHAR_TO_RESP('}');
 1934              		.loc 1 331 0
 1935 0540 013B     		sub	r3, r3, #1
 1936 0542 6360     		str	r3, [r4, #4]
 1937 0544 0CE0     		b	.L172
 1938              	.L129:
 335:.\Generated_Source\PSoC4/comm.c **** 	ADD_STATIC_STRING_TO_RESP(",\"payload\":null");
ARM GAS  C:\Users\SDEVAS~1\AppData\Local\Temp\ccPhqTSe.s 			page 46


 1939              		.loc 1 335 0
 1940 0546 114C     		ldr	r4, .L181+40
 1941 0548 1149     		ldr	r1, .L181+44
 1942 054a 2068     		ldr	r0, [r4]
 1943 054c 1022     		mov	r2, #16
 1944 054e FFF7FEFF 		bl	memcpy
 1945              	.LVL318:
 1946 0552 2368     		ldr	r3, [r4]
 336:.\Generated_Source\PSoC4/comm.c **** 	return COMM_FLAG_NACK;
 1947              		.loc 1 336 0
 1948 0554 0420     		mov	r0, #4
 335:.\Generated_Source\PSoC4/comm.c **** 	ADD_STATIC_STRING_TO_RESP(",\"payload\":null");
 1949              		.loc 1 335 0
 1950 0556 0F33     		add	r3, r3, #15
 1951 0558 2360     		str	r3, [r4]
 1952 055a 6368     		ldr	r3, [r4, #4]
 1953 055c 0F3B     		sub	r3, r3, #15
 1954 055e 6360     		str	r3, [r4, #4]
 1955              	.L172:
 337:.\Generated_Source\PSoC4/comm.c **** }
 1956              		.loc 1 337 0
 1957              		@ sp needed
 1958              	.LVL319:
 1959 0560 FEBD     		pop	{r1, r2, r3, r4, r5, r6, r7, pc}
 1960              	.L182:
 1961 0562 C046     		.align	2
 1962              	.L181:
 1963 0564 C7060000 		.word	.LC157
 1964 0568 F9060000 		.word	.LC159
 1965 056c 22070000 		.word	.LC161
 1966 0570 4A070000 		.word	.LC163
 1967 0574 79070000 		.word	.LC165
 1968 0578 A8070000 		.word	.LC167
 1969 057c D7070000 		.word	.LC169
 1970 0580 06080000 		.word	.LC171
 1971 0584 32080000 		.word	.LC173
 1972 0588 63080000 		.word	.LC175
 1973 058c 00000000 		.word	.LANCHOR0
 1974 0590 8B080000 		.word	.LC177
 1975              		.cfi_endproc
 1976              	.LFE61:
 1977              		.size	comm_handle_Get.part.1, .-comm_handle_Get.part.1
 1978              		.section	.text.comm_handle_Set.part.2,"ax",%progbits
 1979              		.align	1
 1980              		.code	16
 1981              		.thumb_func
 1982              		.type	comm_handle_Set.part.2, %function
 1983              	comm_handle_Set.part.2:
 1984              	.LFB62:
 339:.\Generated_Source\PSoC4/comm.c **** comm_flags_t comm_handle_Set(comm_flags_t flags, const char *payload, int payloadLen, jsmntok_t *to
 1985              		.loc 1 339 0
 1986              		.cfi_startproc
 1987              	.LVL320:
 1988 0000 F0B5     		push	{r4, r5, r6, r7, lr}
 1989              		.cfi_def_cfa_offset 20
 1990              		.cfi_offset 4, -20
 1991              		.cfi_offset 5, -16
ARM GAS  C:\Users\SDEVAS~1\AppData\Local\Temp\ccPhqTSe.s 			page 47


 1992              		.cfi_offset 6, -12
 1993              		.cfi_offset 7, -8
 1994              		.cfi_offset 14, -4
 344:.\Generated_Source\PSoC4/comm.c ****   if(tokens[0].type != JSMN_OBJECT) {
 1995              		.loc 1 344 0
 1996 0002 0B78     		ldrb	r3, [r1]
 339:.\Generated_Source\PSoC4/comm.c **** comm_flags_t comm_handle_Set(comm_flags_t flags, const char *payload, int payloadLen, jsmntok_t *to
 1997              		.loc 1 339 0
 1998 0004 89B0     		sub	sp, sp, #36
 1999              		.cfi_def_cfa_offset 56
 339:.\Generated_Source\PSoC4/comm.c **** comm_flags_t comm_handle_Set(comm_flags_t flags, const char *payload, int payloadLen, jsmntok_t *to
 2000              		.loc 1 339 0
 2001 0006 0290     		str	r0, [sp, #8]
 2002 0008 0191     		str	r1, [sp, #4]
 344:.\Generated_Source\PSoC4/comm.c ****   if(tokens[0].type != JSMN_OBJECT) {
 2003              		.loc 1 344 0
 2004 000a 012B     		cmp	r3, #1
 2005 000c 00D0     		beq	.LCB2110
 2006 000e B7E2     		b	.L184	@long jump
 2007              	.LCB2110:
 356:.\Generated_Source\PSoC4/comm.c ****   for(; i < tokens[0].size; i++) {
 2008              		.loc 1 356 0
 2009 0010 C968     		ldr	r1, [r1, #12]
 2010              	.LVL321:
 2011 0012 0022     		mov	r2, #0
 2012 0014 0791     		str	r1, [sp, #28]
 2013 0016 2521     		mov	r1, #37
 2014 0018 0092     		str	r2, [sp]
 2015 001a 171C     		mov	r7, r2
 2016 001c 151C     		mov	r5, r2
 2017 001e 161C     		mov	r6, r2
 2018 0020 141C     		mov	r4, r2
 2019 0022 0591     		str	r1, [sp, #20]
 2020 0024 0693     		str	r3, [sp, #24]
 2021              	.LVL322:
 2022              	.L185:
 2023 0026 009B     		ldr	r3, [sp]
 2024 0028 0799     		ldr	r1, [sp, #28]
 2025 002a 8B42     		cmp	r3, r1
 2026 002c 48DA     		bge	.L238
 357:.\Generated_Source\PSoC4/comm.c **** 	  if(tokens[t].type != JSMN_STRING) {//it should point to key
 2027              		.loc 1 357 0
 2028 002e 069A     		ldr	r2, [sp, #24]
 2029 0030 019B     		ldr	r3, [sp, #4]
 2030 0032 1201     		lsl	r2, r2, #4
 2031 0034 9B18     		add	r3, r3, r2
 2032 0036 0493     		str	r3, [sp, #16]
 2033 0038 1B78     		ldrb	r3, [r3]
 2034 003a 0392     		str	r2, [sp, #12]
 2035 003c 032B     		cmp	r3, #3
 2036 003e 00D0     		beq	.LCB2145
 2037 0040 9EE2     		b	.L184	@long jump
 2038              	.LCB2145:
 361:.\Generated_Source\PSoC4/comm.c ****     if(compKey(payload, &tokens[t], "n") == 0) {
 2039              		.loc 1 361 0
 2040 0042 0298     		ldr	r0, [sp, #8]
 2041 0044 0499     		ldr	r1, [sp, #16]
ARM GAS  C:\Users\SDEVAS~1\AppData\Local\Temp\ccPhqTSe.s 			page 48


 2042 0046 CE4A     		ldr	r2, .L239
 2043 0048 FFF7FEFF 		bl	compKey
 2044              	.LVL323:
 2045 004c 0028     		cmp	r0, #0
 2046 004e 0CD1     		bne	.L186
 363:.\Generated_Source\PSoC4/comm.c ****       avid = get_atom_variable_id_from_string(payload + tokens[t+1].start,tokens[t+1].end - tokens[
 2047              		.loc 1 363 0
 2048 0050 039A     		ldr	r2, [sp, #12]
 2049 0052 0199     		ldr	r1, [sp, #4]
 2050 0054 1032     		add	r2, r2, #16
 2051 0056 8A18     		add	r2, r1, r2
 2052 0058 5368     		ldr	r3, [r2, #4]
 2053 005a 0299     		ldr	r1, [sp, #8]
 2054 005c C818     		add	r0, r1, r3
 2055 005e 9168     		ldr	r1, [r2, #8]
 2056 0060 C91A     		sub	r1, r1, r3
 2057 0062 FFF7FEFF 		bl	get_atom_variable_id_from_string
 2058              	.LVL324:
 2059 0066 0590     		str	r0, [sp, #20]
 2060              	.LVL325:
 2061 0068 20E0     		b	.L187
 2062              	.LVL326:
 2063              	.L186:
 364:.\Generated_Source\PSoC4/comm.c ****     } else if(compKey(payload, &tokens[t], "t") == 0) {
 2064              		.loc 1 364 0
 2065 006a 0298     		ldr	r0, [sp, #8]
 2066 006c 0499     		ldr	r1, [sp, #16]
 2067 006e C54A     		ldr	r2, .L239+4
 2068 0070 FFF7FEFF 		bl	compKey
 2069              	.LVL327:
 2070 0074 0028     		cmp	r0, #0
 2071 0076 09D1     		bne	.L188
 365:.\Generated_Source\PSoC4/comm.c ****       type = payload + tokens[t+1].start;
 2072              		.loc 1 365 0
 2073 0078 039A     		ldr	r2, [sp, #12]
 2074 007a 019B     		ldr	r3, [sp, #4]
 2075 007c 1032     		add	r2, r2, #16
 2076 007e 9A18     		add	r2, r3, r2
 2077 0080 5368     		ldr	r3, [r2, #4]
 2078 0082 0299     		ldr	r1, [sp, #8]
 366:.\Generated_Source\PSoC4/comm.c ****       typeLen = tokens[t+1].end - tokens[t+1].start;
 2079              		.loc 1 366 0
 2080 0084 9768     		ldr	r7, [r2, #8]
 2081              	.LVL328:
 365:.\Generated_Source\PSoC4/comm.c ****       type = payload + tokens[t+1].start;
 2082              		.loc 1 365 0
 2083 0086 CD18     		add	r5, r1, r3
 2084              	.LVL329:
 366:.\Generated_Source\PSoC4/comm.c ****       typeLen = tokens[t+1].end - tokens[t+1].start;
 2085              		.loc 1 366 0
 2086 0088 FF1A     		sub	r7, r7, r3
 2087              	.LVL330:
 2088 008a 0FE0     		b	.L187
 2089              	.L188:
 367:.\Generated_Source\PSoC4/comm.c ****     } else if(compKey(payload, &tokens[t], "v") == 0) {
 2090              		.loc 1 367 0
 2091 008c 0298     		ldr	r0, [sp, #8]
ARM GAS  C:\Users\SDEVAS~1\AppData\Local\Temp\ccPhqTSe.s 			page 49


 2092 008e 0499     		ldr	r1, [sp, #16]
 2093 0090 BD4A     		ldr	r2, .L239+8
 2094 0092 FFF7FEFF 		bl	compKey
 2095              	.LVL331:
 2096 0096 0028     		cmp	r0, #0
 2097 0098 08D1     		bne	.L187
 368:.\Generated_Source\PSoC4/comm.c ****       value = payload + tokens[t+1].start;
 2098              		.loc 1 368 0
 2099 009a 039A     		ldr	r2, [sp, #12]
 2100 009c 019B     		ldr	r3, [sp, #4]
 2101 009e 1032     		add	r2, r2, #16
 2102 00a0 9A18     		add	r2, r3, r2
 2103 00a2 5368     		ldr	r3, [r2, #4]
 2104 00a4 0299     		ldr	r1, [sp, #8]
 369:.\Generated_Source\PSoC4/comm.c ****       valueLen = tokens[t+1].end - tokens[t+1].start;
 2105              		.loc 1 369 0
 2106 00a6 9668     		ldr	r6, [r2, #8]
 2107              	.LVL332:
 368:.\Generated_Source\PSoC4/comm.c ****       value = payload + tokens[t+1].start;
 2108              		.loc 1 368 0
 2109 00a8 CC18     		add	r4, r1, r3
 2110              	.LVL333:
 369:.\Generated_Source\PSoC4/comm.c ****       valueLen = tokens[t+1].end - tokens[t+1].start;
 2111              		.loc 1 369 0
 2112 00aa F61A     		sub	r6, r6, r3
 2113              	.LVL334:
 2114              	.L187:
 371:.\Generated_Source\PSoC4/comm.c ****     t = skipToNextTokenInLevel(tokens, ++t);
 2115              		.loc 1 371 0
 2116 00ac 0699     		ldr	r1, [sp, #24]
 2117 00ae 0198     		ldr	r0, [sp, #4]
 2118 00b0 0131     		add	r1, r1, #1
 2119              	.LVL335:
 2120 00b2 FFF7FEFF 		bl	skipToNextTokenInLevel
 2121              	.LVL336:
 356:.\Generated_Source\PSoC4/comm.c ****   for(; i < tokens[0].size; i++) {
 2122              		.loc 1 356 0
 2123 00b6 009A     		ldr	r2, [sp]
 371:.\Generated_Source\PSoC4/comm.c ****     t = skipToNextTokenInLevel(tokens, ++t);
 2124              		.loc 1 371 0
 2125 00b8 0690     		str	r0, [sp, #24]
 2126              	.LVL337:
 356:.\Generated_Source\PSoC4/comm.c ****   for(; i < tokens[0].size; i++) {
 2127              		.loc 1 356 0
 2128 00ba 0132     		add	r2, r2, #1
 2129 00bc 0092     		str	r2, [sp]
 2130              	.LVL338:
 2131 00be B2E7     		b	.L185
 2132              	.LVL339:
 2133              	.L238:
 374:.\Generated_Source\PSoC4/comm.c ****   if(value == NULL || type == NULL || avid == INVALID_ATOM_VARIABLE) {
 2134              		.loc 1 374 0
 2135 00c0 002C     		cmp	r4, #0
 2136 00c2 00D1     		bne	.LCB2257
 2137 00c4 5CE2     		b	.L184	@long jump
 2138              	.LCB2257:
 2139 00c6 002D     		cmp	r5, #0
ARM GAS  C:\Users\SDEVAS~1\AppData\Local\Temp\ccPhqTSe.s 			page 50


 2140 00c8 00D1     		bne	.LCB2259
 2141 00ca 59E2     		b	.L184	@long jump
 2142              	.LCB2259:
 2143 00cc 059A     		ldr	r2, [sp, #20]
 2144 00ce 252A     		cmp	r2, #37
 2145 00d0 00D1     		bne	.LCB2262
 2146 00d2 55E2     		b	.L184	@long jump
 2147              	.LCB2262:
 379:.\Generated_Source\PSoC4/comm.c ****   switch(avid) {
 2148              		.loc 1 379 0
 2149 00d4 232A     		cmp	r2, #35
 2150 00d6 00D9     		bls	.LCB2264
 2151 00d8 52E2     		b	.L184	@long jump
 2152              	.LCB2264:
 2153 00da 101C     		mov	r0, r2
 2154 00dc FFF7FEFF 		bl	__gnu_thumb1_case_uhi
 2155              	.L191:
 2156 00e0 2400     		.2byte	(.L190-.L191)/2
 2157 00e2 3300     		.2byte	(.L192-.L191)/2
 2158 00e4 4200     		.2byte	(.L193-.L191)/2
 2159 00e6 5100     		.2byte	(.L194-.L191)/2
 2160 00e8 6000     		.2byte	(.L195-.L191)/2
 2161 00ea 6F00     		.2byte	(.L196-.L191)/2
 2162 00ec 7E00     		.2byte	(.L197-.L191)/2
 2163 00ee 8D00     		.2byte	(.L198-.L191)/2
 2164 00f0 9C00     		.2byte	(.L199-.L191)/2
 2165 00f2 AB00     		.2byte	(.L200-.L191)/2
 2166 00f4 BA00     		.2byte	(.L201-.L191)/2
 2167 00f6 C900     		.2byte	(.L202-.L191)/2
 2168 00f8 D800     		.2byte	(.L203-.L191)/2
 2169 00fa E700     		.2byte	(.L204-.L191)/2
 2170 00fc F600     		.2byte	(.L205-.L191)/2
 2171 00fe 0501     		.2byte	(.L206-.L191)/2
 2172 0100 1401     		.2byte	(.L207-.L191)/2
 2173 0102 2301     		.2byte	(.L208-.L191)/2
 2174 0104 3201     		.2byte	(.L209-.L191)/2
 2175 0106 4101     		.2byte	(.L210-.L191)/2
 2176 0108 5C01     		.2byte	(.L211-.L191)/2
 2177 010a 6B01     		.2byte	(.L212-.L191)/2
 2178 010c 7A01     		.2byte	(.L213-.L191)/2
 2179 010e 8901     		.2byte	(.L214-.L191)/2
 2180 0110 9801     		.2byte	(.L215-.L191)/2
 2181 0112 A701     		.2byte	(.L216-.L191)/2
 2182 0114 B601     		.2byte	(.L217-.L191)/2
 2183 0116 C501     		.2byte	(.L218-.L191)/2
 2184 0118 D301     		.2byte	(.L219-.L191)/2
 2185 011a E101     		.2byte	(.L220-.L191)/2
 2186 011c EF01     		.2byte	(.L221-.L191)/2
 2187 011e FD01     		.2byte	(.L222-.L191)/2
 2188 0120 0B02     		.2byte	(.L223-.L191)/2
 2189 0122 1902     		.2byte	(.L224-.L191)/2
 2190 0124 2702     		.2byte	(.L225-.L191)/2
 2191 0126 3502     		.2byte	(.L226-.L191)/2
 2192              		.p2align 1
 2193              	.L190:
 385:.\Generated_Source\PSoC4/comm.c ****     ATOM_VARIABLES
 2194              		.loc 1 385 0
ARM GAS  C:\Users\SDEVAS~1\AppData\Local\Temp\ccPhqTSe.s 			page 51


 2195 0128 281C     		mov	r0, r5
 2196 012a 9849     		ldr	r1, .L239+12
 2197 012c 3A1C     		mov	r2, r7
 2198 012e FFF7FEFF 		bl	strncmp
 2199              	.LVL340:
 2200 0132 0028     		cmp	r0, #0
 2201 0134 00D0     		beq	.LCB2279
 2202 0136 15E2     		b	.L227	@long jump
 2203              	.LCB2279:
 2204 0138 311C     		mov	r1, r6
 2205 013a 201C     		mov	r0, r4
 2206 013c FFF7FEFF 		bl	conv_str2i
 2207              	.LVL341:
 2208 0140 FFF7FEFF 		bl	setvar_sleepPeriod
 2209              	.LVL342:
 2210 0144 0EE2     		b	.L227
 2211              	.LVL343:
 2212              	.L192:
 2213 0146 281C     		mov	r0, r5
 2214 0148 9049     		ldr	r1, .L239+12
 2215 014a 3A1C     		mov	r2, r7
 2216 014c FFF7FEFF 		bl	strncmp
 2217              	.LVL344:
 2218 0150 0028     		cmp	r0, #0
 2219 0152 00D0     		beq	.LCB2302
 2220 0154 06E2     		b	.L227	@long jump
 2221              	.LCB2302:
 2222 0156 311C     		mov	r1, r6
 2223 0158 201C     		mov	r0, r4
 2224 015a FFF7FEFF 		bl	conv_str2i
 2225              	.LVL345:
 2226 015e FFF7FEFF 		bl	setvar_shutdownTime
 2227              	.LVL346:
 2228 0162 FFE1     		b	.L227
 2229              	.LVL347:
 2230              	.L193:
 2231 0164 281C     		mov	r0, r5
 2232 0166 8A49     		ldr	r1, .L239+16
 2233 0168 3A1C     		mov	r2, r7
 2234 016a FFF7FEFF 		bl	strncmp
 2235              	.LVL348:
 2236 016e 0028     		cmp	r0, #0
 2237 0170 00D0     		beq	.LCB2325
 2238 0172 F7E1     		b	.L227	@long jump
 2239              	.LCB2325:
 2240 0174 311C     		mov	r1, r6
 2241 0176 201C     		mov	r0, r4
 2242 0178 FFF7FEFF 		bl	conv_str2s
 2243              	.LVL349:
 2244 017c FFF7FEFF 		bl	setvar_test
 2245              	.LVL350:
 2246 0180 F0E1     		b	.L227
 2247              	.LVL351:
 2248              	.L194:
 2249 0182 281C     		mov	r0, r5
 2250 0184 8149     		ldr	r1, .L239+12
 2251 0186 3A1C     		mov	r2, r7
ARM GAS  C:\Users\SDEVAS~1\AppData\Local\Temp\ccPhqTSe.s 			page 52


 2252 0188 FFF7FEFF 		bl	strncmp
 2253              	.LVL352:
 2254 018c 0028     		cmp	r0, #0
 2255 018e 00D0     		beq	.LCB2348
 2256 0190 E8E1     		b	.L227	@long jump
 2257              	.LCB2348:
 2258 0192 311C     		mov	r1, r6
 2259 0194 201C     		mov	r0, r4
 2260 0196 FFF7FEFF 		bl	conv_str2i
 2261              	.LVL353:
 2262 019a FFF7FEFF 		bl	setvar_innerPressure
 2263              	.LVL354:
 2264 019e E1E1     		b	.L227
 2265              	.LVL355:
 2266              	.L195:
 2267 01a0 281C     		mov	r0, r5
 2268 01a2 7A49     		ldr	r1, .L239+12
 2269 01a4 3A1C     		mov	r2, r7
 2270 01a6 FFF7FEFF 		bl	strncmp
 2271              	.LVL356:
 2272 01aa 0028     		cmp	r0, #0
 2273 01ac 00D0     		beq	.LCB2371
 2274 01ae D9E1     		b	.L227	@long jump
 2275              	.LCB2371:
 2276 01b0 311C     		mov	r1, r6
 2277 01b2 201C     		mov	r0, r4
 2278 01b4 FFF7FEFF 		bl	conv_str2i
 2279              	.LVL357:
 2280 01b8 FFF7FEFF 		bl	setvar_outerPressure
 2281              	.LVL358:
 2282 01bc D2E1     		b	.L227
 2283              	.LVL359:
 2284              	.L196:
 2285 01be 281C     		mov	r0, r5
 2286 01c0 7249     		ldr	r1, .L239+12
 2287 01c2 3A1C     		mov	r2, r7
 2288 01c4 FFF7FEFF 		bl	strncmp
 2289              	.LVL360:
 2290 01c8 0028     		cmp	r0, #0
 2291 01ca 00D0     		beq	.LCB2394
 2292 01cc CAE1     		b	.L227	@long jump
 2293              	.LCB2394:
 2294 01ce 311C     		mov	r1, r6
 2295 01d0 201C     		mov	r0, r4
 2296 01d2 FFF7FEFF 		bl	conv_str2i
 2297              	.LVL361:
 2298 01d6 FFF7FEFF 		bl	setvar_currentFlow
 2299              	.LVL362:
 2300 01da C3E1     		b	.L227
 2301              	.LVL363:
 2302              	.L197:
 2303 01dc 281C     		mov	r0, r5
 2304 01de 6B49     		ldr	r1, .L239+12
 2305 01e0 3A1C     		mov	r2, r7
 2306 01e2 FFF7FEFF 		bl	strncmp
 2307              	.LVL364:
 2308 01e6 0028     		cmp	r0, #0
ARM GAS  C:\Users\SDEVAS~1\AppData\Local\Temp\ccPhqTSe.s 			page 53


 2309 01e8 00D0     		beq	.LCB2417
 2310 01ea BBE1     		b	.L227	@long jump
 2311              	.LCB2417:
 2312 01ec 311C     		mov	r1, r6
 2313 01ee 201C     		mov	r0, r4
 2314 01f0 FFF7FEFF 		bl	conv_str2i
 2315              	.LVL365:
 2316 01f4 FFF7FEFF 		bl	setvar_totalVolume
 2317              	.LVL366:
 2318 01f8 B4E1     		b	.L227
 2319              	.LVL367:
 2320              	.L198:
 2321 01fa 281C     		mov	r0, r5
 2322 01fc 6349     		ldr	r1, .L239+12
 2323 01fe 3A1C     		mov	r2, r7
 2324 0200 FFF7FEFF 		bl	strncmp
 2325              	.LVL368:
 2326 0204 0028     		cmp	r0, #0
 2327 0206 00D0     		beq	.LCB2440
 2328 0208 ACE1     		b	.L227	@long jump
 2329              	.LCB2440:
 2330 020a 311C     		mov	r1, r6
 2331 020c 201C     		mov	r0, r4
 2332 020e FFF7FEFF 		bl	conv_str2i
 2333              	.LVL369:
 2334 0212 FFF7FEFF 		bl	setvar_valveStatus
 2335              	.LVL370:
 2336 0216 A5E1     		b	.L227
 2337              	.LVL371:
 2338              	.L199:
 2339 0218 281C     		mov	r0, r5
 2340 021a 5C49     		ldr	r1, .L239+12
 2341 021c 3A1C     		mov	r2, r7
 2342 021e FFF7FEFF 		bl	strncmp
 2343              	.LVL372:
 2344 0222 0028     		cmp	r0, #0
 2345 0224 00D0     		beq	.LCB2463
 2346 0226 9DE1     		b	.L227	@long jump
 2347              	.LCB2463:
 2348 0228 311C     		mov	r1, r6
 2349 022a 201C     		mov	r0, r4
 2350 022c FFF7FEFF 		bl	conv_str2i
 2351              	.LVL373:
 2352 0230 FFF7FEFF 		bl	setvar_lastStartNumber
 2353              	.LVL374:
 2354 0234 96E1     		b	.L227
 2355              	.LVL375:
 2356              	.L200:
 2357 0236 281C     		mov	r0, r5
 2358 0238 5449     		ldr	r1, .L239+12
 2359 023a 3A1C     		mov	r2, r7
 2360 023c FFF7FEFF 		bl	strncmp
 2361              	.LVL376:
 2362 0240 0028     		cmp	r0, #0
 2363 0242 00D0     		beq	.LCB2486
 2364 0244 8EE1     		b	.L227	@long jump
 2365              	.LCB2486:
ARM GAS  C:\Users\SDEVAS~1\AppData\Local\Temp\ccPhqTSe.s 			page 54


 2366 0246 311C     		mov	r1, r6
 2367 0248 201C     		mov	r0, r4
 2368 024a FFF7FEFF 		bl	conv_str2i
 2369              	.LVL377:
 2370 024e FFF7FEFF 		bl	setvar_lastStartVolume
 2371              	.LVL378:
 2372 0252 87E1     		b	.L227
 2373              	.LVL379:
 2374              	.L201:
 2375 0254 281C     		mov	r0, r5
 2376 0256 4D49     		ldr	r1, .L239+12
 2377 0258 3A1C     		mov	r2, r7
 2378 025a FFF7FEFF 		bl	strncmp
 2379              	.LVL380:
 2380 025e 0028     		cmp	r0, #0
 2381 0260 00D0     		beq	.LCB2509
 2382 0262 7FE1     		b	.L227	@long jump
 2383              	.LCB2509:
 2384 0264 311C     		mov	r1, r6
 2385 0266 201C     		mov	r0, r4
 2386 0268 FFF7FEFF 		bl	conv_str2i
 2387              	.LVL381:
 2388 026c FFF7FEFF 		bl	setvar_lastStartFlow
 2389              	.LVL382:
 2390 0270 78E1     		b	.L227
 2391              	.LVL383:
 2392              	.L202:
 2393 0272 281C     		mov	r0, r5
 2394 0274 4549     		ldr	r1, .L239+12
 2395 0276 3A1C     		mov	r2, r7
 2396 0278 FFF7FEFF 		bl	strncmp
 2397              	.LVL384:
 2398 027c 0028     		cmp	r0, #0
 2399 027e 00D0     		beq	.LCB2532
 2400 0280 70E1     		b	.L227	@long jump
 2401              	.LCB2532:
 2402 0282 311C     		mov	r1, r6
 2403 0284 201C     		mov	r0, r4
 2404 0286 FFF7FEFF 		bl	conv_str2i
 2405              	.LVL385:
 2406 028a FFF7FEFF 		bl	setvar_startTime
 2407              	.LVL386:
 2408 028e 69E1     		b	.L227
 2409              	.LVL387:
 2410              	.L203:
 2411 0290 281C     		mov	r0, r5
 2412 0292 3E49     		ldr	r1, .L239+12
 2413 0294 3A1C     		mov	r2, r7
 2414 0296 FFF7FEFF 		bl	strncmp
 2415              	.LVL388:
 2416 029a 0028     		cmp	r0, #0
 2417 029c 00D0     		beq	.LCB2555
 2418 029e 61E1     		b	.L227	@long jump
 2419              	.LCB2555:
 2420 02a0 311C     		mov	r1, r6
 2421 02a2 201C     		mov	r0, r4
 2422 02a4 FFF7FEFF 		bl	conv_str2i
ARM GAS  C:\Users\SDEVAS~1\AppData\Local\Temp\ccPhqTSe.s 			page 55


 2423              	.LVL389:
 2424 02a8 FFF7FEFF 		bl	setvar_stopTime
 2425              	.LVL390:
 2426 02ac 5AE1     		b	.L227
 2427              	.LVL391:
 2428              	.L204:
 2429 02ae 281C     		mov	r0, r5
 2430 02b0 3649     		ldr	r1, .L239+12
 2431 02b2 3A1C     		mov	r2, r7
 2432 02b4 FFF7FEFF 		bl	strncmp
 2433              	.LVL392:
 2434 02b8 0028     		cmp	r0, #0
 2435 02ba 00D0     		beq	.LCB2578
 2436 02bc 52E1     		b	.L227	@long jump
 2437              	.LCB2578:
 2438 02be 311C     		mov	r1, r6
 2439 02c0 201C     		mov	r0, r4
 2440 02c2 FFF7FEFF 		bl	conv_str2i
 2441              	.LVL393:
 2442 02c6 FFF7FEFF 		bl	setvar_numStarts
 2443              	.LVL394:
 2444 02ca 4BE1     		b	.L227
 2445              	.LVL395:
 2446              	.L205:
 2447 02cc 281C     		mov	r0, r5
 2448 02ce 2F49     		ldr	r1, .L239+12
 2449 02d0 3A1C     		mov	r2, r7
 2450 02d2 FFF7FEFF 		bl	strncmp
 2451              	.LVL396:
 2452 02d6 0028     		cmp	r0, #0
 2453 02d8 00D0     		beq	.LCB2601
 2454 02da 43E1     		b	.L227	@long jump
 2455              	.LCB2601:
 2456 02dc 311C     		mov	r1, r6
 2457 02de 201C     		mov	r0, r4
 2458 02e0 FFF7FEFF 		bl	conv_str2i
 2459              	.LVL397:
 2460 02e4 FFF7FEFF 		bl	setvar_volPerStart
 2461              	.LVL398:
 2462 02e8 3CE1     		b	.L227
 2463              	.LVL399:
 2464              	.L206:
 2465 02ea 281C     		mov	r0, r5
 2466 02ec 2749     		ldr	r1, .L239+12
 2467 02ee 3A1C     		mov	r2, r7
 2468 02f0 FFF7FEFF 		bl	strncmp
 2469              	.LVL400:
 2470 02f4 0028     		cmp	r0, #0
 2471 02f6 00D0     		beq	.LCB2624
 2472 02f8 34E1     		b	.L227	@long jump
 2473              	.LCB2624:
 2474 02fa 311C     		mov	r1, r6
 2475 02fc 201C     		mov	r0, r4
 2476 02fe FFF7FEFF 		bl	conv_str2i
 2477              	.LVL401:
 2478 0302 FFF7FEFF 		bl	setvar_maxVol
 2479              	.LVL402:
ARM GAS  C:\Users\SDEVAS~1\AppData\Local\Temp\ccPhqTSe.s 			page 56


 2480 0306 2DE1     		b	.L227
 2481              	.LVL403:
 2482              	.L207:
 2483 0308 281C     		mov	r0, r5
 2484 030a 2049     		ldr	r1, .L239+12
 2485 030c 3A1C     		mov	r2, r7
 2486 030e FFF7FEFF 		bl	strncmp
 2487              	.LVL404:
 2488 0312 0028     		cmp	r0, #0
 2489 0314 00D0     		beq	.LCB2647
 2490 0316 25E1     		b	.L227	@long jump
 2491              	.LCB2647:
 2492 0318 311C     		mov	r1, r6
 2493 031a 201C     		mov	r0, r4
 2494 031c FFF7FEFF 		bl	conv_str2i
 2495              	.LVL405:
 2496 0320 FFF7FEFF 		bl	setvar_minVol
 2497              	.LVL406:
 2498 0324 1EE1     		b	.L227
 2499              	.LVL407:
 2500              	.L208:
 2501 0326 281C     		mov	r0, r5
 2502 0328 1A49     		ldr	r1, .L239+20
 2503 032a 3A1C     		mov	r2, r7
 2504 032c FFF7FEFF 		bl	strncmp
 2505              	.LVL408:
 2506 0330 0028     		cmp	r0, #0
 2507 0332 00D0     		beq	.LCB2670
 2508 0334 16E1     		b	.L227	@long jump
 2509              	.LCB2670:
 2510 0336 311C     		mov	r1, r6
 2511 0338 201C     		mov	r0, r4
 2512 033a FFF7FEFF 		bl	conv_str2ia
 2513              	.LVL409:
 2514 033e FFF7FEFF 		bl	setvar_fertigationTable0
 2515              	.LVL410:
 2516 0342 0FE1     		b	.L227
 2517              	.LVL411:
 2518              	.L209:
 2519 0344 281C     		mov	r0, r5
 2520 0346 1349     		ldr	r1, .L239+20
 2521 0348 3A1C     		mov	r2, r7
 2522 034a FFF7FEFF 		bl	strncmp
 2523              	.LVL412:
 2524 034e 0028     		cmp	r0, #0
 2525 0350 00D0     		beq	.LCB2693
 2526 0352 07E1     		b	.L227	@long jump
 2527              	.LCB2693:
 2528 0354 311C     		mov	r1, r6
 2529 0356 201C     		mov	r0, r4
 2530 0358 FFF7FEFF 		bl	conv_str2ia
 2531              	.LVL413:
 2532 035c FFF7FEFF 		bl	setvar_fertigationTable1
 2533              	.LVL414:
 2534 0360 00E1     		b	.L227
 2535              	.LVL415:
 2536              	.L210:
ARM GAS  C:\Users\SDEVAS~1\AppData\Local\Temp\ccPhqTSe.s 			page 57


 2537 0362 281C     		mov	r0, r5
 2538 0364 0B49     		ldr	r1, .L239+20
 2539 0366 3A1C     		mov	r2, r7
 2540 0368 FFF7FEFF 		bl	strncmp
 2541              	.LVL416:
 2542 036c 0028     		cmp	r0, #0
 2543 036e 00D0     		beq	.LCB2716
 2544 0370 F8E0     		b	.L227	@long jump
 2545              	.LCB2716:
 2546 0372 311C     		mov	r1, r6
 2547 0374 201C     		mov	r0, r4
 2548 0376 FFF7FEFF 		bl	conv_str2ia
 2549              	.LVL417:
 2550 037a FFF7FEFF 		bl	setvar_fertigationTable2
 2551              	.LVL418:
 2552 037e F1E0     		b	.L227
 2553              	.L240:
 2554              		.align	2
 2555              	.L239:
 2556 0380 31020000 		.word	.LC102
 2557 0384 9B080000 		.word	.LC181
 2558 0388 9D080000 		.word	.LC183
 2559 038c 9F080000 		.word	.LC185
 2560 0390 A1080000 		.word	.LC187
 2561 0394 A3080000 		.word	.LC189
 2562              	.LVL419:
 2563              	.L211:
 2564 0398 281C     		mov	r0, r5
 2565 039a 8149     		ldr	r1, .L241
 2566 039c 3A1C     		mov	r2, r7
 2567 039e FFF7FEFF 		bl	strncmp
 2568              	.LVL420:
 2569 03a2 0028     		cmp	r0, #0
 2570 03a4 00D0     		beq	.LCB2750
 2571 03a6 DDE0     		b	.L227	@long jump
 2572              	.LCB2750:
 2573 03a8 311C     		mov	r1, r6
 2574 03aa 201C     		mov	r0, r4
 2575 03ac FFF7FEFF 		bl	conv_str2ia
 2576              	.LVL421:
 2577 03b0 FFF7FEFF 		bl	setvar_fertigationTable3
 2578              	.LVL422:
 2579 03b4 D6E0     		b	.L227
 2580              	.LVL423:
 2581              	.L212:
 2582 03b6 281C     		mov	r0, r5
 2583 03b8 7949     		ldr	r1, .L241
 2584 03ba 3A1C     		mov	r2, r7
 2585 03bc FFF7FEFF 		bl	strncmp
 2586              	.LVL424:
 2587 03c0 0028     		cmp	r0, #0
 2588 03c2 00D0     		beq	.LCB2773
 2589 03c4 CEE0     		b	.L227	@long jump
 2590              	.LCB2773:
 2591 03c6 311C     		mov	r1, r6
 2592 03c8 201C     		mov	r0, r4
 2593 03ca FFF7FEFF 		bl	conv_str2ia
ARM GAS  C:\Users\SDEVAS~1\AppData\Local\Temp\ccPhqTSe.s 			page 58


 2594              	.LVL425:
 2595 03ce FFF7FEFF 		bl	setvar_fertigationTable4
 2596              	.LVL426:
 2597 03d2 C7E0     		b	.L227
 2598              	.LVL427:
 2599              	.L213:
 2600 03d4 281C     		mov	r0, r5
 2601 03d6 7249     		ldr	r1, .L241
 2602 03d8 3A1C     		mov	r2, r7
 2603 03da FFF7FEFF 		bl	strncmp
 2604              	.LVL428:
 2605 03de 0028     		cmp	r0, #0
 2606 03e0 00D0     		beq	.LCB2796
 2607 03e2 BFE0     		b	.L227	@long jump
 2608              	.LCB2796:
 2609 03e4 311C     		mov	r1, r6
 2610 03e6 201C     		mov	r0, r4
 2611 03e8 FFF7FEFF 		bl	conv_str2ia
 2612              	.LVL429:
 2613 03ec FFF7FEFF 		bl	setvar_fertigationTable5
 2614              	.LVL430:
 2615 03f0 B8E0     		b	.L227
 2616              	.LVL431:
 2617              	.L214:
 2618 03f2 281C     		mov	r0, r5
 2619 03f4 6A49     		ldr	r1, .L241
 2620 03f6 3A1C     		mov	r2, r7
 2621 03f8 FFF7FEFF 		bl	strncmp
 2622              	.LVL432:
 2623 03fc 0028     		cmp	r0, #0
 2624 03fe 00D0     		beq	.LCB2819
 2625 0400 B0E0     		b	.L227	@long jump
 2626              	.LCB2819:
 2627 0402 311C     		mov	r1, r6
 2628 0404 201C     		mov	r0, r4
 2629 0406 FFF7FEFF 		bl	conv_str2ia
 2630              	.LVL433:
 2631 040a FFF7FEFF 		bl	setvar_fertigationTable6
 2632              	.LVL434:
 2633 040e A9E0     		b	.L227
 2634              	.LVL435:
 2635              	.L215:
 2636 0410 281C     		mov	r0, r5
 2637 0412 6349     		ldr	r1, .L241
 2638 0414 3A1C     		mov	r2, r7
 2639 0416 FFF7FEFF 		bl	strncmp
 2640              	.LVL436:
 2641 041a 0028     		cmp	r0, #0
 2642 041c 00D0     		beq	.LCB2842
 2643 041e A1E0     		b	.L227	@long jump
 2644              	.LCB2842:
 2645 0420 311C     		mov	r1, r6
 2646 0422 201C     		mov	r0, r4
 2647 0424 FFF7FEFF 		bl	conv_str2ia
 2648              	.LVL437:
 2649 0428 FFF7FEFF 		bl	setvar_fertigationTable7
 2650              	.LVL438:
ARM GAS  C:\Users\SDEVAS~1\AppData\Local\Temp\ccPhqTSe.s 			page 59


 2651 042c 9AE0     		b	.L227
 2652              	.LVL439:
 2653              	.L216:
 2654 042e 281C     		mov	r0, r5
 2655 0430 5B49     		ldr	r1, .L241
 2656 0432 3A1C     		mov	r2, r7
 2657 0434 FFF7FEFF 		bl	strncmp
 2658              	.LVL440:
 2659 0438 0028     		cmp	r0, #0
 2660 043a 00D0     		beq	.LCB2865
 2661 043c 92E0     		b	.L227	@long jump
 2662              	.LCB2865:
 2663 043e 311C     		mov	r1, r6
 2664 0440 201C     		mov	r0, r4
 2665 0442 FFF7FEFF 		bl	conv_str2ia
 2666              	.LVL441:
 2667 0446 FFF7FEFF 		bl	setvar_fertigationTable8
 2668              	.LVL442:
 2669 044a 8BE0     		b	.L227
 2670              	.LVL443:
 2671              	.L217:
 2672 044c 281C     		mov	r0, r5
 2673 044e 5449     		ldr	r1, .L241
 2674 0450 3A1C     		mov	r2, r7
 2675 0452 FFF7FEFF 		bl	strncmp
 2676              	.LVL444:
 2677 0456 0028     		cmp	r0, #0
 2678 0458 00D0     		beq	.LCB2888
 2679 045a 83E0     		b	.L227	@long jump
 2680              	.LCB2888:
 2681 045c 311C     		mov	r1, r6
 2682 045e 201C     		mov	r0, r4
 2683 0460 FFF7FEFF 		bl	conv_str2ia
 2684              	.LVL445:
 2685 0464 FFF7FEFF 		bl	setvar_fertigationTable9
 2686              	.LVL446:
 2687 0468 7CE0     		b	.L227
 2688              	.LVL447:
 2689              	.L218:
 2690 046a 281C     		mov	r0, r5
 2691 046c 4D49     		ldr	r1, .L241+4
 2692 046e 3A1C     		mov	r2, r7
 2693 0470 FFF7FEFF 		bl	strncmp
 2694              	.LVL448:
 2695 0474 0028     		cmp	r0, #0
 2696 0476 75D1     		bne	.L227
 2697 0478 311C     		mov	r1, r6
 2698 047a 201C     		mov	r0, r4
 2699 047c FFF7FEFF 		bl	conv_str2i
 2700              	.LVL449:
 2701 0480 FFF7FEFF 		bl	setvar_notBefore
 2702              	.LVL450:
 2703 0484 6EE0     		b	.L227
 2704              	.LVL451:
 2705              	.L219:
 2706 0486 281C     		mov	r0, r5
 2707 0488 4649     		ldr	r1, .L241+4
ARM GAS  C:\Users\SDEVAS~1\AppData\Local\Temp\ccPhqTSe.s 			page 60


 2708 048a 3A1C     		mov	r2, r7
 2709 048c FFF7FEFF 		bl	strncmp
 2710              	.LVL452:
 2711 0490 0028     		cmp	r0, #0
 2712 0492 67D1     		bne	.L227
 2713 0494 311C     		mov	r1, r6
 2714 0496 201C     		mov	r0, r4
 2715 0498 FFF7FEFF 		bl	conv_str2i
 2716              	.LVL453:
 2717 049c FFF7FEFF 		bl	setvar_notAfter
 2718              	.LVL454:
 2719 04a0 60E0     		b	.L227
 2720              	.LVL455:
 2721              	.L220:
 2722 04a2 281C     		mov	r0, r5
 2723 04a4 3F49     		ldr	r1, .L241+4
 2724 04a6 3A1C     		mov	r2, r7
 2725 04a8 FFF7FEFF 		bl	strncmp
 2726              	.LVL456:
 2727 04ac 0028     		cmp	r0, #0
 2728 04ae 59D1     		bne	.L227
 2729 04b0 311C     		mov	r1, r6
 2730 04b2 201C     		mov	r0, r4
 2731 04b4 FFF7FEFF 		bl	conv_str2i
 2732              	.LVL457:
 2733 04b8 FFF7FEFF 		bl	setvar_dilutionFactorA
 2734              	.LVL458:
 2735 04bc 52E0     		b	.L227
 2736              	.LVL459:
 2737              	.L221:
 2738 04be 281C     		mov	r0, r5
 2739 04c0 3849     		ldr	r1, .L241+4
 2740 04c2 3A1C     		mov	r2, r7
 2741 04c4 FFF7FEFF 		bl	strncmp
 2742              	.LVL460:
 2743 04c8 0028     		cmp	r0, #0
 2744 04ca 4BD1     		bne	.L227
 2745 04cc 311C     		mov	r1, r6
 2746 04ce 201C     		mov	r0, r4
 2747 04d0 FFF7FEFF 		bl	conv_str2i
 2748              	.LVL461:
 2749 04d4 FFF7FEFF 		bl	setvar_dilutionFactorB
 2750              	.LVL462:
 2751 04d8 44E0     		b	.L227
 2752              	.LVL463:
 2753              	.L222:
 2754 04da 281C     		mov	r0, r5
 2755 04dc 3149     		ldr	r1, .L241+4
 2756 04de 3A1C     		mov	r2, r7
 2757 04e0 FFF7FEFF 		bl	strncmp
 2758              	.LVL464:
 2759 04e4 0028     		cmp	r0, #0
 2760 04e6 3DD1     		bne	.L227
 2761 04e8 311C     		mov	r1, r6
 2762 04ea 201C     		mov	r0, r4
 2763 04ec FFF7FEFF 		bl	conv_str2i
 2764              	.LVL465:
ARM GAS  C:\Users\SDEVAS~1\AppData\Local\Temp\ccPhqTSe.s 			page 61


 2765 04f0 FFF7FEFF 		bl	setvar_venturiSuctionA
 2766              	.LVL466:
 2767 04f4 36E0     		b	.L227
 2768              	.LVL467:
 2769              	.L223:
 2770 04f6 281C     		mov	r0, r5
 2771 04f8 2A49     		ldr	r1, .L241+4
 2772 04fa 3A1C     		mov	r2, r7
 2773 04fc FFF7FEFF 		bl	strncmp
 2774              	.LVL468:
 2775 0500 0028     		cmp	r0, #0
 2776 0502 2FD1     		bne	.L227
 2777 0504 311C     		mov	r1, r6
 2778 0506 201C     		mov	r0, r4
 2779 0508 FFF7FEFF 		bl	conv_str2i
 2780              	.LVL469:
 2781 050c FFF7FEFF 		bl	setvar_venturiSuctionB
 2782              	.LVL470:
 2783 0510 28E0     		b	.L227
 2784              	.LVL471:
 2785              	.L224:
 2786 0512 281C     		mov	r0, r5
 2787 0514 2349     		ldr	r1, .L241+4
 2788 0516 3A1C     		mov	r2, r7
 2789 0518 FFF7FEFF 		bl	strncmp
 2790              	.LVL472:
 2791 051c 0028     		cmp	r0, #0
 2792 051e 21D1     		bne	.L227
 2793 0520 311C     		mov	r1, r6
 2794 0522 201C     		mov	r0, r4
 2795 0524 FFF7FEFF 		bl	conv_str2i
 2796              	.LVL473:
 2797 0528 FFF7FEFF 		bl	setvar_squareMeters
 2798              	.LVL474:
 2799 052c 1AE0     		b	.L227
 2800              	.LVL475:
 2801              	.L225:
 2802 052e 281C     		mov	r0, r5
 2803 0530 1C49     		ldr	r1, .L241+4
 2804 0532 3A1C     		mov	r2, r7
 2805 0534 FFF7FEFF 		bl	strncmp
 2806              	.LVL476:
 2807 0538 0028     		cmp	r0, #0
 2808 053a 13D1     		bne	.L227
 2809 053c 311C     		mov	r1, r6
 2810 053e 201C     		mov	r0, r4
 2811 0540 FFF7FEFF 		bl	conv_str2i
 2812              	.LVL477:
 2813 0544 FFF7FEFF 		bl	setvar_lPerSqMeterPerDay
 2814              	.LVL478:
 2815 0548 0CE0     		b	.L227
 2816              	.LVL479:
 2817              	.L226:
 2818 054a 281C     		mov	r0, r5
 2819 054c 1549     		ldr	r1, .L241+4
 2820 054e 3A1C     		mov	r2, r7
 2821 0550 FFF7FEFF 		bl	strncmp
ARM GAS  C:\Users\SDEVAS~1\AppData\Local\Temp\ccPhqTSe.s 			page 62


 2822              	.LVL480:
 2823 0554 0028     		cmp	r0, #0
 2824 0556 05D1     		bne	.L227
 2825 0558 311C     		mov	r1, r6
 2826 055a 201C     		mov	r0, r4
 2827 055c FFF7FEFF 		bl	conv_str2i
 2828              	.LVL481:
 2829 0560 FFF7FEFF 		bl	setvar_cropType
 2830              	.LVL482:
 2831              	.L227:
 391:.\Generated_Source\PSoC4/comm.c ****   ADD_STATIC_STRING_TO_RESP(",\"payload\":null");
 2832              		.loc 1 391 0
 2833 0564 104C     		ldr	r4, .L241+8
 2834              	.LVL483:
 2835 0566 1149     		ldr	r1, .L241+12
 2836 0568 2068     		ldr	r0, [r4]
 2837 056a 1022     		mov	r2, #16
 2838 056c FFF7FEFF 		bl	memcpy
 2839              	.LVL484:
 2840 0570 2368     		ldr	r3, [r4]
 393:.\Generated_Source\PSoC4/comm.c ****   return COMM_FLAG_ACK;
 2841              		.loc 1 393 0
 2842 0572 0220     		mov	r0, #2
 391:.\Generated_Source\PSoC4/comm.c ****   ADD_STATIC_STRING_TO_RESP(",\"payload\":null");
 2843              		.loc 1 391 0
 2844 0574 0F33     		add	r3, r3, #15
 2845 0576 2360     		str	r3, [r4]
 2846 0578 6368     		ldr	r3, [r4, #4]
 2847 057a 0F3B     		sub	r3, r3, #15
 2848 057c 6360     		str	r3, [r4, #4]
 2849 057e 0CE0     		b	.L228
 2850              	.LVL485:
 2851              	.L184:
 395:.\Generated_Source\PSoC4/comm.c **** 	ADD_STATIC_STRING_TO_RESP(",\"payload\":null");
 2852              		.loc 1 395 0
 2853 0580 094C     		ldr	r4, .L241+8
 2854 0582 0A49     		ldr	r1, .L241+12
 2855 0584 2068     		ldr	r0, [r4]
 2856 0586 1022     		mov	r2, #16
 2857 0588 FFF7FEFF 		bl	memcpy
 2858              	.LVL486:
 2859 058c 2368     		ldr	r3, [r4]
 396:.\Generated_Source\PSoC4/comm.c **** 	return COMM_FLAG_NACK;
 2860              		.loc 1 396 0
 2861 058e 0420     		mov	r0, #4
 395:.\Generated_Source\PSoC4/comm.c **** 	ADD_STATIC_STRING_TO_RESP(",\"payload\":null");
 2862              		.loc 1 395 0
 2863 0590 0F33     		add	r3, r3, #15
 2864 0592 2360     		str	r3, [r4]
 2865 0594 6368     		ldr	r3, [r4, #4]
 2866 0596 0F3B     		sub	r3, r3, #15
 2867 0598 6360     		str	r3, [r4, #4]
 2868              	.L228:
 397:.\Generated_Source\PSoC4/comm.c **** }
 2869              		.loc 1 397 0
 2870 059a 09B0     		add	sp, sp, #36
 2871              		@ sp needed
ARM GAS  C:\Users\SDEVAS~1\AppData\Local\Temp\ccPhqTSe.s 			page 63


 2872 059c F0BD     		pop	{r4, r5, r6, r7, pc}
 2873              	.L242:
 2874 059e C046     		.align	2
 2875              	.L241:
 2876 05a0 A3080000 		.word	.LC189
 2877 05a4 9F080000 		.word	.LC185
 2878 05a8 00000000 		.word	.LANCHOR0
 2879 05ac 8B080000 		.word	.LC177
 2880              		.cfi_endproc
 2881              	.LFE62:
 2882              		.size	comm_handle_Set.part.2, .-comm_handle_Set.part.2
 2883              		.section	.text.comm_handle_Info.part.3,"ax",%progbits
 2884              		.align	1
 2885              		.code	16
 2886              		.thumb_func
 2887              		.type	comm_handle_Info.part.3, %function
 2888              	comm_handle_Info.part.3:
 2889              	.LFB63:
 399:.\Generated_Source\PSoC4/comm.c **** comm_flags_t comm_handle_Info(comm_flags_t flags, const char *payload, int payloadLen, jsmntok_t *t
 2890              		.loc 1 399 0
 2891              		.cfi_startproc
 2892              	.LVL487:
 2893 0000 10B5     		push	{r4, lr}
 2894              		.cfi_def_cfa_offset 8
 2895              		.cfi_offset 4, -8
 2896              		.cfi_offset 14, -4
 402:.\Generated_Source\PSoC4/comm.c **** 		ADD_STATIC_STRING_TO_RESP(",\"payload\":{\"oa\":[");
 2897              		.loc 1 402 0
 2898 0002 0D4C     		ldr	r4, .L244
 2899 0004 0D49     		ldr	r1, .L244+4
 2900 0006 1322     		mov	r2, #19
 2901 0008 2068     		ldr	r0, [r4]
 2902 000a FFF7FEFF 		bl	memcpy
 2903              	.LVL488:
 2904 000e 2368     		ldr	r3, [r4]
 408:.\Generated_Source\PSoC4/comm.c **** }
 2905              		.loc 1 408 0
 2906              		@ sp needed
 402:.\Generated_Source\PSoC4/comm.c **** 		ADD_STATIC_STRING_TO_RESP(",\"payload\":{\"oa\":[");
 2907              		.loc 1 402 0
 2908 0010 1233     		add	r3, r3, #18
 2909 0012 2360     		str	r3, [r4]
 2910 0014 6368     		ldr	r3, [r4, #4]
 2911 0016 123B     		sub	r3, r3, #18
 2912 0018 6360     		str	r3, [r4, #4]
 403:.\Generated_Source\PSoC4/comm.c **** 		comm_GenerateInfo();
 2913              		.loc 1 403 0
 2914 001a FFF7FEFF 		bl	comm_GenerateInfo
 2915              	.LVL489:
 404:.\Generated_Source\PSoC4/comm.c **** 		ADD_STATIC_STRING_TO_RESP("]}");
 2916              		.loc 1 404 0
 2917 001e 2068     		ldr	r0, [r4]
 2918 0020 0749     		ldr	r1, .L244+8
 2919 0022 0322     		mov	r2, #3
 2920 0024 FFF7FEFF 		bl	memcpy
 2921              	.LVL490:
 2922 0028 2368     		ldr	r3, [r4]
ARM GAS  C:\Users\SDEVAS~1\AppData\Local\Temp\ccPhqTSe.s 			page 64


 408:.\Generated_Source\PSoC4/comm.c **** }
 2923              		.loc 1 408 0
 2924 002a 0820     		mov	r0, #8
 404:.\Generated_Source\PSoC4/comm.c **** 		ADD_STATIC_STRING_TO_RESP("]}");
 2925              		.loc 1 404 0
 2926 002c 0233     		add	r3, r3, #2
 2927 002e 2360     		str	r3, [r4]
 2928 0030 6368     		ldr	r3, [r4, #4]
 2929 0032 023B     		sub	r3, r3, #2
 2930 0034 6360     		str	r3, [r4, #4]
 408:.\Generated_Source\PSoC4/comm.c **** }
 2931              		.loc 1 408 0
 2932 0036 10BD     		pop	{r4, pc}
 2933              	.L245:
 2934              		.align	2
 2935              	.L244:
 2936 0038 00000000 		.word	.LANCHOR0
 2937 003c A6080000 		.word	.LC194
 2938 0040 B9080000 		.word	.LC196
 2939              		.cfi_endproc
 2940              	.LFE63:
 2941              		.size	comm_handle_Info.part.3, .-comm_handle_Info.part.3
 2942              		.section	.text.comm_handle_Mode.part.4,"ax",%progbits
 2943              		.align	1
 2944              		.code	16
 2945              		.thumb_func
 2946              		.type	comm_handle_Mode.part.4, %function
 2947              	comm_handle_Mode.part.4:
 2948              	.LFB64:
 421:.\Generated_Source\PSoC4/comm.c **** comm_flags_t comm_handle_Mode(comm_flags_t flags, const char *payload, int payloadLen, jsmntok_t *t
 2949              		.loc 1 421 0
 2950              		.cfi_startproc
 2951              	.LVL491:
 2952              	.LDL1:
 2953 0000 10B5     		push	{r4, lr}
 2954              		.cfi_def_cfa_offset 8
 2955              		.cfi_offset 4, -8
 2956              		.cfi_offset 14, -4
 2957              	.LBB21:
 437:.\Generated_Source\PSoC4/comm.c **** 		ADD_STATIC_STRING_TO_RESP(",\"payload\":null");
 2958              		.loc 1 437 0
 2959 0002 074C     		ldr	r4, .L247
 2960 0004 0749     		ldr	r1, .L247+4
 2961 0006 2068     		ldr	r0, [r4]
 2962 0008 1022     		mov	r2, #16
 2963 000a FFF7FEFF 		bl	memcpy
 2964              	.LVL492:
 2965 000e 2368     		ldr	r3, [r4]
 2966              	.LBE21:
 441:.\Generated_Source\PSoC4/comm.c **** }
 2967              		.loc 1 441 0
 2968 0010 0420     		mov	r0, #4
 2969              	.LBB22:
 437:.\Generated_Source\PSoC4/comm.c **** 		ADD_STATIC_STRING_TO_RESP(",\"payload\":null");
 2970              		.loc 1 437 0
 2971 0012 0F33     		add	r3, r3, #15
 2972 0014 2360     		str	r3, [r4]
ARM GAS  C:\Users\SDEVAS~1\AppData\Local\Temp\ccPhqTSe.s 			page 65


 2973 0016 6368     		ldr	r3, [r4, #4]
 2974              	.LBE22:
 441:.\Generated_Source\PSoC4/comm.c **** }
 2975              		.loc 1 441 0
 2976              		@ sp needed
 2977              	.LBB23:
 437:.\Generated_Source\PSoC4/comm.c **** 		ADD_STATIC_STRING_TO_RESP(",\"payload\":null");
 2978              		.loc 1 437 0
 2979 0018 0F3B     		sub	r3, r3, #15
 2980 001a 6360     		str	r3, [r4, #4]
 2981              	.LBE23:
 441:.\Generated_Source\PSoC4/comm.c **** }
 2982              		.loc 1 441 0
 2983 001c 10BD     		pop	{r4, pc}
 2984              	.L248:
 2985 001e C046     		.align	2
 2986              	.L247:
 2987 0020 00000000 		.word	.LANCHOR0
 2988 0024 8B080000 		.word	.LC177
 2989              		.cfi_endproc
 2990              	.LFE64:
 2991              		.size	comm_handle_Mode.part.4, .-comm_handle_Mode.part.4
 2992              		.section	.text.resp_AddFlags,"ax",%progbits
 2993              		.align	1
 2994              		.global	resp_AddFlags
 2995              		.code	16
 2996              		.thumb_func
 2997              		.type	resp_AddFlags, %function
 2998              	resp_AddFlags:
 2999              	.LFB40:
 176:.\Generated_Source\PSoC4/comm.c **** void resp_AddFlags(comm_flags_t flag) {
 3000              		.loc 1 176 0
 3001              		.cfi_startproc
 3002              	.LVL493:
 3003 0000 70B5     		push	{r4, r5, r6, lr}
 3004              		.cfi_def_cfa_offset 16
 3005              		.cfi_offset 4, -16
 3006              		.cfi_offset 5, -12
 3007              		.cfi_offset 6, -8
 3008              		.cfi_offset 14, -4
 177:.\Generated_Source\PSoC4/comm.c ****   ADD_STATIC_STRING_TO_RESP(",\"flags\":\"");
 3009              		.loc 1 177 0
 3010 0002 244D     		ldr	r5, .L265
 176:.\Generated_Source\PSoC4/comm.c **** void resp_AddFlags(comm_flags_t flag) {
 3011              		.loc 1 176 0
 3012 0004 061C     		mov	r6, r0
 177:.\Generated_Source\PSoC4/comm.c ****   ADD_STATIC_STRING_TO_RESP(",\"flags\":\"");
 3013              		.loc 1 177 0
 3014 0006 2449     		ldr	r1, .L265+4
 3015 0008 2868     		ldr	r0, [r5]
 3016              	.LVL494:
 3017 000a 0B22     		mov	r2, #11
 3018 000c FFF7FEFF 		bl	memcpy
 3019              	.LVL495:
 3020 0010 2B68     		ldr	r3, [r5]
 3021 0012 6C68     		ldr	r4, [r5, #4]
 3022 0014 0A33     		add	r3, r3, #10
ARM GAS  C:\Users\SDEVAS~1\AppData\Local\Temp\ccPhqTSe.s 			page 66


 3023 0016 0A3C     		sub	r4, r4, #10
 3024              	.LBB26:
 3025              	.LBB27:
  47:.\Generated_Source\PSoC4/comm.c ****   switch(flag) {
 3026              		.loc 1 47 0
 3027 0018 701E     		sub	r0, r6, #1
 3028              	.LBE27:
 3029              	.LBE26:
 177:.\Generated_Source\PSoC4/comm.c ****   ADD_STATIC_STRING_TO_RESP(",\"flags\":\"");
 3030              		.loc 1 177 0
 3031 001a 2B60     		str	r3, [r5]
 3032 001c 6C60     		str	r4, [r5, #4]
 3033              	.LVL496:
 3034              	.LBB29:
 3035              	.LBB28:
  47:.\Generated_Source\PSoC4/comm.c ****   switch(flag) {
 3036              		.loc 1 47 0
 3037 001e 0728     		cmp	r0, #7
 3038 0020 23D8     		bhi	.L250
 3039 0022 FFF7FEFF 		bl	__gnu_thumb1_case_uqi
 3040              	.L252:
 3041 0026 04       		.byte	(.L251-.L252)/2
 3042 0027 10       		.byte	(.L253-.L252)/2
 3043 0028 0A       		.byte	(.L254-.L252)/2
 3044 0029 16       		.byte	(.L255-.L252)/2
 3045 002a 22       		.byte	(.L250-.L252)/2
 3046 002b 22       		.byte	(.L250-.L252)/2
 3047 002c 22       		.byte	(.L250-.L252)/2
 3048 002d 1C       		.byte	(.L256-.L252)/2
 3049              		.p2align 1
 3050              	.L251:
  48:.\Generated_Source\PSoC4/comm.c ****     case COMM_FLAG_REQ: memcpy(str, "REQ", len < 3 ? len : 3); return len < 3 ? len : 3;
 3051              		.loc 1 48 0
 3052 002e 032C     		cmp	r4, #3
 3053 0030 00DD     		ble	.L257
 3054 0032 0324     		mov	r4, #3
 3055              	.LVL497:
 3056              	.L257:
 3057 0034 181C     		mov	r0, r3
 3058 0036 1949     		ldr	r1, .L265+8
 3059 0038 1CE0     		b	.L264
 3060              	.LVL498:
 3061              	.L254:
  49:.\Generated_Source\PSoC4/comm.c ****     case COMM_FLAG_REQ_ACK: memcpy(str, "REQ_ACK", len < 7 ? len : 7); return len < 7 ? len : 7;
 3062              		.loc 1 49 0
 3063 003a 072C     		cmp	r4, #7
 3064 003c 00DD     		ble	.L259
 3065 003e 0724     		mov	r4, #7
 3066              	.LVL499:
 3067              	.L259:
 3068 0040 181C     		mov	r0, r3
 3069 0042 1749     		ldr	r1, .L265+12
 3070 0044 16E0     		b	.L264
 3071              	.LVL500:
 3072              	.L253:
  50:.\Generated_Source\PSoC4/comm.c ****     case COMM_FLAG_ACK: memcpy(str, "ACK", len <  3 ? len : 3); return len <  3 ? len : 3;
 3073              		.loc 1 50 0
ARM GAS  C:\Users\SDEVAS~1\AppData\Local\Temp\ccPhqTSe.s 			page 67


 3074 0046 032C     		cmp	r4, #3
 3075 0048 00DD     		ble	.L260
 3076 004a 0324     		mov	r4, #3
 3077              	.LVL501:
 3078              	.L260:
 3079 004c 181C     		mov	r0, r3
 3080 004e 1549     		ldr	r1, .L265+16
 3081 0050 10E0     		b	.L264
 3082              	.LVL502:
 3083              	.L255:
  51:.\Generated_Source\PSoC4/comm.c ****     case COMM_FLAG_NACK: memcpy(str, "NACK", len < 4 ? len : 4); return len < 4 ? len : 4;
 3084              		.loc 1 51 0
 3085 0052 042C     		cmp	r4, #4
 3086 0054 00DD     		ble	.L261
 3087 0056 0424     		mov	r4, #4
 3088              	.LVL503:
 3089              	.L261:
 3090 0058 181C     		mov	r0, r3
 3091 005a 1349     		ldr	r1, .L265+20
 3092 005c 0AE0     		b	.L264
 3093              	.LVL504:
 3094              	.L256:
  52:.\Generated_Source\PSoC4/comm.c ****     case COMM_FLAG_PUSH: memcpy(str, "PUSH", len < 4 ? len : 4); return len < 4 ? len : 4;
 3095              		.loc 1 52 0
 3096 005e 042C     		cmp	r4, #4
 3097 0060 00DD     		ble	.L262
 3098 0062 0424     		mov	r4, #4
 3099              	.LVL505:
 3100              	.L262:
 3101 0064 181C     		mov	r0, r3
 3102 0066 1149     		ldr	r1, .L265+24
 3103 0068 04E0     		b	.L264
 3104              	.LVL506:
 3105              	.L250:
  54:.\Generated_Source\PSoC4/comm.c ****     default: memcpy(str, "ERR", len < 3 ? len : 3); return len < 3 ? len : 3;
 3106              		.loc 1 54 0
 3107 006a 032C     		cmp	r4, #3
 3108 006c 00DD     		ble	.L263
 3109 006e 0324     		mov	r4, #3
 3110              	.LVL507:
 3111              	.L263:
 3112 0070 0F49     		ldr	r1, .L265+28
 3113 0072 181C     		mov	r0, r3
 3114              	.LVL508:
 3115              	.L264:
 3116 0074 221C     		mov	r2, r4
 3117 0076 FFF7FEFF 		bl	memcpy
 3118              	.LVL509:
 3119              	.LBE28:
 3120              	.LBE29:
 180:.\Generated_Source\PSoC4/comm.c ****   respEnd += r;
 3121              		.loc 1 180 0
 3122 007a 2A68     		ldr	r2, [r5]
 184:.\Generated_Source\PSoC4/comm.c **** }
 3123              		.loc 1 184 0
 3124              		@ sp needed
 180:.\Generated_Source\PSoC4/comm.c ****   respEnd += r;
ARM GAS  C:\Users\SDEVAS~1\AppData\Local\Temp\ccPhqTSe.s 			page 68


 3125              		.loc 1 180 0
 3126 007c 1319     		add	r3, r2, r4
 181:.\Generated_Source\PSoC4/comm.c ****   respFreeSpace -= r;
 3127              		.loc 1 181 0
 3128 007e 6A68     		ldr	r2, [r5, #4]
 3129 0080 141B     		sub	r4, r2, r4
 183:.\Generated_Source\PSoC4/comm.c ****   ADD_CHAR_TO_RESP('\"');
 3130              		.loc 1 183 0
 3131 0082 5A1C     		add	r2, r3, #1
 3132 0084 2A60     		str	r2, [r5]
 3133 0086 2222     		mov	r2, #34
 181:.\Generated_Source\PSoC4/comm.c ****   respFreeSpace -= r;
 3134              		.loc 1 181 0
 3135 0088 6C60     		str	r4, [r5, #4]
 183:.\Generated_Source\PSoC4/comm.c ****   ADD_CHAR_TO_RESP('\"');
 3136              		.loc 1 183 0
 3137 008a 1A70     		strb	r2, [r3]
 3138 008c 6B68     		ldr	r3, [r5, #4]
 3139 008e 013B     		sub	r3, r3, #1
 3140 0090 6B60     		str	r3, [r5, #4]
 3141              	.LVL510:
 184:.\Generated_Source\PSoC4/comm.c **** }
 3142              		.loc 1 184 0
 3143 0092 70BD     		pop	{r4, r5, r6, pc}
 3144              	.L266:
 3145              		.align	2
 3146              	.L265:
 3147 0094 00000000 		.word	.LANCHOR0
 3148 0098 BC080000 		.word	.LC201
 3149 009c C7080000 		.word	.LC203
 3150 00a0 CB080000 		.word	.LC205
 3151 00a4 D3080000 		.word	.LC207
 3152 00a8 D7080000 		.word	.LC209
 3153 00ac DC080000 		.word	.LC211
 3154 00b0 E1080000 		.word	.LC213
 3155              		.cfi_endproc
 3156              	.LFE40:
 3157              		.size	resp_AddFlags, .-resp_AddFlags
 3158              		.section	.text.validateDestinationAndParse,"ax",%progbits
 3159              		.align	1
 3160              		.global	validateDestinationAndParse
 3161              		.code	16
 3162              		.thumb_func
 3163              		.type	validateDestinationAndParse, %function
 3164              	validateDestinationAndParse:
 3165              	.LFB41:
 212:.\Generated_Source\PSoC4/comm.c **** JSON_MSG_return_t validateDestinationAndParse(const char* json, int json_len) {
 3166              		.loc 1 212 0
 3167              		.cfi_startproc
 3168              	.LVL511:
 3169 0000 F0B5     		push	{r4, r5, r6, r7, lr}
 3170              		.cfi_def_cfa_offset 20
 3171              		.cfi_offset 4, -20
 3172              		.cfi_offset 5, -16
 3173              		.cfi_offset 6, -12
 3174              		.cfi_offset 7, -8
 3175              		.cfi_offset 14, -4
ARM GAS  C:\Users\SDEVAS~1\AppData\Local\Temp\ccPhqTSe.s 			page 69


 214:.\Generated_Source\PSoC4/comm.c **** 	order = payload = msgSource = msgDest = NULL;
 3176              		.loc 1 214 0
 3177 0002 8C4E     		ldr	r6, .L304
 3178 0004 0024     		mov	r4, #0
 212:.\Generated_Source\PSoC4/comm.c **** JSON_MSG_return_t validateDestinationAndParse(const char* json, int json_len) {
 3179              		.loc 1 212 0
 3180 0006 89B0     		sub	sp, sp, #36
 3181              		.cfi_def_cfa_offset 56
 214:.\Generated_Source\PSoC4/comm.c **** 	order = payload = msgSource = msgDest = NULL;
 3182              		.loc 1 214 0
 3183 0008 7460     		str	r4, [r6, #4]
 3184 000a B460     		str	r4, [r6, #8]
 3185 000c F460     		str	r4, [r6, #12]
 3186 000e 3461     		str	r4, [r6, #16]
 215:.\Generated_Source\PSoC4/comm.c **** 	flags = COMM_FLAG_UNKNOWN;
 3187              		.loc 1 215 0
 3188 0010 3475     		strb	r4, [r6, #20]
 216:.\Generated_Source\PSoC4/comm.c ****   jsmn_init(&parser);
 3189              		.loc 1 216 0
 3190 0012 1836     		add	r6, r6, #24
 212:.\Generated_Source\PSoC4/comm.c **** JSON_MSG_return_t validateDestinationAndParse(const char* json, int json_len) {
 3191              		.loc 1 212 0
 3192 0014 0290     		str	r0, [sp, #8]
 216:.\Generated_Source\PSoC4/comm.c ****   jsmn_init(&parser);
 3193              		.loc 1 216 0
 3194 0016 301C     		mov	r0, r6
 3195              	.LVL512:
 212:.\Generated_Source\PSoC4/comm.c **** JSON_MSG_return_t validateDestinationAndParse(const char* json, int json_len) {
 3196              		.loc 1 212 0
 3197 0018 0F1C     		mov	r7, r1
 216:.\Generated_Source\PSoC4/comm.c ****   jsmn_init(&parser);
 3198              		.loc 1 216 0
 3199 001a FFF7FEFF 		bl	jsmn_init
 3200              	.LVL513:
 217:.\Generated_Source\PSoC4/comm.c ****   int r = jsmn_parse(&parser, json, json_len, tokens, JSMN_TOKENS_SIZE);
 3201              		.loc 1 217 0
 3202 001e 864D     		ldr	r5, .L304+4
 3203 0020 3C23     		mov	r3, #60
 3204 0022 0093     		str	r3, [sp]
 3205 0024 301C     		mov	r0, r6
 3206 0026 0299     		ldr	r1, [sp, #8]
 3207 0028 3A1C     		mov	r2, r7
 3208 002a 2B1C     		mov	r3, r5
 3209 002c FFF7FEFF 		bl	jsmn_parse
 3210              	.LVL514:
 218:.\Generated_Source\PSoC4/comm.c ****   if(r <= 0)
 3211              		.loc 1 218 0
 3212 0030 A042     		cmp	r0, r4
 3213 0032 01DC     		bgt	.L268
 3214              	.LVL515:
 3215              	.L270:
 219:.\Generated_Source\PSoC4/comm.c ****     return JSON_MSG_PARSE_FAILED;
 3216              		.loc 1 219 0
 3217 0034 0120     		mov	r0, #1
 3218 0036 FAE0     		b	.L269
 3219              	.LVL516:
 3220              	.L268:
ARM GAS  C:\Users\SDEVAS~1\AppData\Local\Temp\ccPhqTSe.s 			page 70


 227:.\Generated_Source\PSoC4/comm.c ****   if(tokens[0].type != JSMN_OBJECT)
 3221              		.loc 1 227 0
 3222 0038 2B78     		ldrb	r3, [r5]
 3223 003a 012B     		cmp	r3, #1
 3224 003c FAD1     		bne	.L270
 232:.\Generated_Source\PSoC4/comm.c ****   for(; i < tokens[0].size; i++) {
 3225              		.loc 1 232 0
 3226 003e ED68     		ldr	r5, [r5, #12]
 3227 0040 0494     		str	r4, [sp, #16]
 3228 0042 0695     		str	r5, [sp, #24]
 3229 0044 0393     		str	r3, [sp, #12]
 3230              	.LVL517:
 3231              	.L271:
 232:.\Generated_Source\PSoC4/comm.c ****   for(; i < tokens[0].size; i++) {
 3232              		.loc 1 232 0 is_stmt 0 discriminator 1
 3233 0046 049B     		ldr	r3, [sp, #16]
 3234 0048 0698     		ldr	r0, [sp, #24]
 3235 004a 8342     		cmp	r3, r0
 3236 004c 00DB     		blt	.LCB3524
 3237 004e D8E0     		b	.L302	@long jump
 3238              	.LCB3524:
 233:.\Generated_Source\PSoC4/comm.c ****     if(tokens[t].type != JSMN_STRING) //it should point to key
 3239              		.loc 1 233 0 is_stmt 1
 3240 0050 0398     		ldr	r0, [sp, #12]
 3241 0052 794C     		ldr	r4, .L304+4
 3242 0054 0501     		lsl	r5, r0, #4
 3243 0056 2E5D     		ldrb	r6, [r5, r4]
 3244 0058 032E     		cmp	r6, #3
 3245 005a EBD1     		bne	.L270
 236:.\Generated_Source\PSoC4/comm.c ****     if(compKey(json, &tokens[t], "destination") == 0) {
 3246              		.loc 1 236 0
 3247 005c 2D19     		add	r5, r5, r4
 3248 005e 0298     		ldr	r0, [sp, #8]
 3249 0060 291C     		mov	r1, r5
 3250 0062 764A     		ldr	r2, .L304+8
 3251 0064 FFF7FEFF 		bl	compKey
 3252              	.LVL518:
 3253 0068 039F     		ldr	r7, [sp, #12]
 3254 006a 0137     		add	r7, r7, #1
 3255 006c 0028     		cmp	r0, #0
 3256 006e 4DD1     		bne	.L272
 3257              	.LBB33:
 237:.\Generated_Source\PSoC4/comm.c ****       if(tokens[t+1].type != JSMN_OBJECT)//it should be OBJECT
 3258              		.loc 1 237 0
 3259 0070 3B01     		lsl	r3, r7, #4
 3260 0072 1A5D     		ldrb	r2, [r3, r4]
 3261 0074 012A     		cmp	r2, #1
 3262 0076 DDD1     		bne	.L270
 241:.\Generated_Source\PSoC4/comm.c ****       for(; j < tokens[t+1].size; j++) {
 3263              		.loc 1 241 0
 3264 0078 E418     		add	r4, r4, r3
 239:.\Generated_Source\PSoC4/comm.c ****       int y = t+2;
 3265              		.loc 1 239 0
 3266 007a 039E     		ldr	r6, [sp, #12]
 241:.\Generated_Source\PSoC4/comm.c ****       for(; j < tokens[t+1].size; j++) {
 3267              		.loc 1 241 0
 3268 007c E468     		ldr	r4, [r4, #12]
ARM GAS  C:\Users\SDEVAS~1\AppData\Local\Temp\ccPhqTSe.s 			page 71


 239:.\Generated_Source\PSoC4/comm.c ****       int y = t+2;
 3269              		.loc 1 239 0
 3270 007e 0236     		add	r6, r6, #2
 3271              	.LVL519:
 241:.\Generated_Source\PSoC4/comm.c ****       for(; j < tokens[t+1].size; j++) {
 3272              		.loc 1 241 0
 3273 0080 0794     		str	r4, [sp, #28]
 240:.\Generated_Source\PSoC4/comm.c ****       int j = 0;
 3274              		.loc 1 240 0
 3275 0082 0590     		str	r0, [sp, #20]
 3276              	.LVL520:
 3277              	.L273:
 241:.\Generated_Source\PSoC4/comm.c ****       for(; j < tokens[t+1].size; j++) {
 3278              		.loc 1 241 0 discriminator 1
 3279 0084 0598     		ldr	r0, [sp, #20]
 3280 0086 079A     		ldr	r2, [sp, #28]
 3281 0088 6B4D     		ldr	r5, .L304+4
 3282 008a 9042     		cmp	r0, r2
 3283 008c 33DA     		bge	.L303
 243:.\Generated_Source\PSoC4/comm.c ****         if(tokens[y].type != JSMN_STRING) //it should point to key
 3284              		.loc 1 243 0
 3285 008e 3401     		lsl	r4, r6, #4
 3286 0090 2B5D     		ldrb	r3, [r5, r4]
 3287 0092 032B     		cmp	r3, #3
 3288 0094 CED1     		bne	.L270
 246:.\Generated_Source\PSoC4/comm.c ****         if(compKey(json, &tokens[y], "atomType") == 0) {
 3289              		.loc 1 246 0
 3290 0096 2C19     		add	r4, r5, r4
 3291 0098 0298     		ldr	r0, [sp, #8]
 3292 009a 211C     		mov	r1, r4
 3293 009c 684A     		ldr	r2, .L304+12
 3294 009e FFF7FEFF 		bl	compKey
 3295              	.LVL521:
 3296 00a2 0028     		cmp	r0, #0
 3297 00a4 09D1     		bne	.L274
 248:.\Generated_Source\PSoC4/comm.c ****           if(strncmp(json + tokens[y+1].start, MY_ATOM_TYPE, tokens[y+1].end - tokens[y+1].start) !
 3298              		.loc 1 248 0
 3299 00a6 731C     		add	r3, r6, #1
 3300 00a8 1B01     		lsl	r3, r3, #4
 3301 00aa ED18     		add	r5, r5, r3
 3302 00ac 6B68     		ldr	r3, [r5, #4]
 3303 00ae 029A     		ldr	r2, [sp, #8]
 3304 00b0 6449     		ldr	r1, .L304+16
 3305 00b2 D018     		add	r0, r2, r3
 3306 00b4 AA68     		ldr	r2, [r5, #8]
 3307 00b6 D21A     		sub	r2, r2, r3
 3308 00b8 0FE0     		b	.L301
 3309              	.L274:
 251:.\Generated_Source\PSoC4/comm.c ****         } else if(compKey(json, &tokens[y], "atomId") == 0) {
 3310              		.loc 1 251 0
 3311 00ba 0298     		ldr	r0, [sp, #8]
 3312 00bc 211C     		mov	r1, r4
 3313 00be 624A     		ldr	r2, .L304+20
 3314 00c0 FFF7FEFF 		bl	compKey
 3315              	.LVL522:
 3316 00c4 0028     		cmp	r0, #0
 3317 00c6 0DD1     		bne	.L275
ARM GAS  C:\Users\SDEVAS~1\AppData\Local\Temp\ccPhqTSe.s 			page 72


 253:.\Generated_Source\PSoC4/comm.c ****           if(strncmp(json + tokens[y+1].start, MY_ATOM_ID, tokens[y+1].end - tokens[y+1].start) != 
 3318              		.loc 1 253 0
 3319 00c8 731C     		add	r3, r6, #1
 3320 00ca 1B01     		lsl	r3, r3, #4
 3321 00cc ED18     		add	r5, r5, r3
 3322 00ce 6B68     		ldr	r3, [r5, #4]
 3323 00d0 029A     		ldr	r2, [sp, #8]
 3324 00d2 5E49     		ldr	r1, .L304+24
 3325 00d4 D018     		add	r0, r2, r3
 3326 00d6 AA68     		ldr	r2, [r5, #8]
 3327 00d8 D21A     		sub	r2, r2, r3
 3328              	.L301:
 3329 00da FFF7FEFF 		bl	strncmp
 3330              	.LVL523:
 3331 00de 0028     		cmp	r0, #0
 3332 00e0 00D0     		beq	.LCB3614
 3333 00e2 A1E0     		b	.L284	@long jump
 3334              	.LCB3614:
 3335              	.L275:
 257:.\Generated_Source\PSoC4/comm.c ****         y = skipToNextTokenInLevel(tokens, ++y);
 3336              		.loc 1 257 0
 3337 00e4 711C     		add	r1, r6, #1
 3338              	.LVL524:
 3339 00e6 5448     		ldr	r0, .L304+4
 3340 00e8 FFF7FEFF 		bl	skipToNextTokenInLevel
 3341              	.LVL525:
 241:.\Generated_Source\PSoC4/comm.c ****       for(; j < tokens[t+1].size; j++) {
 3342              		.loc 1 241 0
 3343 00ec 059B     		ldr	r3, [sp, #20]
 257:.\Generated_Source\PSoC4/comm.c ****         y = skipToNextTokenInLevel(tokens, ++y);
 3344              		.loc 1 257 0
 3345 00ee 061C     		mov	r6, r0
 3346              	.LVL526:
 241:.\Generated_Source\PSoC4/comm.c ****       for(; j < tokens[t+1].size; j++) {
 3347              		.loc 1 241 0
 3348 00f0 0133     		add	r3, r3, #1
 3349 00f2 0593     		str	r3, [sp, #20]
 3350              	.LVL527:
 3351 00f4 C6E7     		b	.L273
 3352              	.LVL528:
 3353              	.L303:
 259:.\Generated_Source\PSoC4/comm.c ****       msgDest = json + tokens[t+1].start;
 3354              		.loc 1 259 0
 3355 00f6 3F01     		lsl	r7, r7, #4
 3356 00f8 ED19     		add	r5, r5, r7
 3357 00fa 6A68     		ldr	r2, [r5, #4]
 3358 00fc 0298     		ldr	r0, [sp, #8]
 3359              	.LVL529:
 3360 00fe 4D4B     		ldr	r3, .L304
 3361 0100 8118     		add	r1, r0, r2
 3362 0102 5960     		str	r1, [r3, #4]
 260:.\Generated_Source\PSoC4/comm.c ****       msgDestLen = tokens[t+1].end - tokens[t+1].start;
 3363              		.loc 1 260 0
 3364 0104 A968     		ldr	r1, [r5, #8]
 3365 0106 8A1A     		sub	r2, r1, r2
 3366 0108 5A62     		str	r2, [r3, #36]
 3367              	.LBE33:
ARM GAS  C:\Users\SDEVAS~1\AppData\Local\Temp\ccPhqTSe.s 			page 73


 3368 010a 70E0     		b	.L277
 3369              	.LVL530:
 3370              	.L272:
 261:.\Generated_Source\PSoC4/comm.c ****     } else if(compKey(json, &tokens[t], "source") == 0) {
 3371              		.loc 1 261 0
 3372 010c 0298     		ldr	r0, [sp, #8]
 3373 010e 291C     		mov	r1, r5
 3374 0110 4F4A     		ldr	r2, .L304+28
 3375 0112 FFF7FEFF 		bl	compKey
 3376              	.LVL531:
 3377 0116 0028     		cmp	r0, #0
 3378 0118 0DD1     		bne	.L278
 262:.\Generated_Source\PSoC4/comm.c ****       if(tokens[t+1].type != JSMN_OBJECT)//it should be OBJECT
 3379              		.loc 1 262 0
 3380 011a 3F01     		lsl	r7, r7, #4
 3381 011c 3B5D     		ldrb	r3, [r7, r4]
 3382 011e 012B     		cmp	r3, #1
 3383 0120 88D1     		bne	.L270
 264:.\Generated_Source\PSoC4/comm.c ****       msgSource = json + tokens[t+1].start;
 3384              		.loc 1 264 0
 3385 0122 E419     		add	r4, r4, r7
 3386 0124 6268     		ldr	r2, [r4, #4]
 3387 0126 0298     		ldr	r0, [sp, #8]
 3388 0128 424B     		ldr	r3, .L304
 3389 012a 8118     		add	r1, r0, r2
 3390 012c 9960     		str	r1, [r3, #8]
 265:.\Generated_Source\PSoC4/comm.c ****       msgSourceLen = tokens[t+1].end - tokens[t+1].start;
 3391              		.loc 1 265 0
 3392 012e A168     		ldr	r1, [r4, #8]
 3393 0130 8A1A     		sub	r2, r1, r2
 3394 0132 9A62     		str	r2, [r3, #40]
 3395 0134 5BE0     		b	.L277
 3396              	.L278:
 266:.\Generated_Source\PSoC4/comm.c ****     } else if(compKey(json, &tokens[t], "flags") == 0) {
 3397              		.loc 1 266 0
 3398 0136 0298     		ldr	r0, [sp, #8]
 3399 0138 291C     		mov	r1, r5
 3400 013a 464A     		ldr	r2, .L304+32
 3401 013c FFF7FEFF 		bl	compKey
 3402              	.LVL532:
 3403 0140 0028     		cmp	r0, #0
 3404 0142 31D1     		bne	.L279
 267:.\Generated_Source\PSoC4/comm.c ****       flags = str2flag(json + tokens[t+1].start, tokens[t+1].end - tokens[t+1].start);
 3405              		.loc 1 267 0
 3406 0144 3F01     		lsl	r7, r7, #4
 3407 0146 E419     		add	r4, r4, r7
 3408 0148 6368     		ldr	r3, [r4, #4]
 3409 014a 029A     		ldr	r2, [sp, #8]
 3410 014c A468     		ldr	r4, [r4, #8]
 3411 014e D518     		add	r5, r2, r3
 3412              	.LVL533:
 3413 0150 E41A     		sub	r4, r4, r3
 3414              	.LBB34:
 3415              	.LBB35:
  36:.\Generated_Source\PSoC4/comm.c ****   if(strncmp(str, "REQ", len) == 0) return COMM_FLAG_REQ;
 3416              		.loc 1 36 0
 3417 0152 281C     		mov	r0, r5
ARM GAS  C:\Users\SDEVAS~1\AppData\Local\Temp\ccPhqTSe.s 			page 74


 3418 0154 4049     		ldr	r1, .L304+36
 3419 0156 221C     		mov	r2, r4
 3420 0158 FFF7FEFF 		bl	strncmp
 3421              	.LVL534:
 3422 015c 0123     		mov	r3, #1
 3423 015e 0028     		cmp	r0, #0
 3424 0160 1FD0     		beq	.L280
  37:.\Generated_Source\PSoC4/comm.c ****   if(strncmp(str, "REQ_ACK", len) == 0) return COMM_FLAG_REQ_ACK;
 3425              		.loc 1 37 0
 3426 0162 281C     		mov	r0, r5
 3427 0164 3D49     		ldr	r1, .L304+40
 3428 0166 221C     		mov	r2, r4
 3429 0168 FFF7FEFF 		bl	strncmp
 3430              	.LVL535:
 3431 016c 331C     		mov	r3, r6
 3432 016e 0028     		cmp	r0, #0
 3433 0170 17D0     		beq	.L280
  38:.\Generated_Source\PSoC4/comm.c ****   if(strncmp(str, "ACK", len) == 0) return COMM_FLAG_ACK;
 3434              		.loc 1 38 0
 3435 0172 281C     		mov	r0, r5
 3436 0174 3A49     		ldr	r1, .L304+44
 3437 0176 221C     		mov	r2, r4
 3438 0178 FFF7FEFF 		bl	strncmp
 3439              	.LVL536:
 3440 017c 0223     		mov	r3, #2
 3441 017e 0028     		cmp	r0, #0
 3442 0180 0FD0     		beq	.L280
  39:.\Generated_Source\PSoC4/comm.c ****   if(strncmp(str, "NACK", len) == 0) return COMM_FLAG_NACK;
 3443              		.loc 1 39 0
 3444 0182 281C     		mov	r0, r5
 3445 0184 3749     		ldr	r1, .L304+48
 3446 0186 221C     		mov	r2, r4
 3447 0188 FFF7FEFF 		bl	strncmp
 3448              	.LVL537:
 3449 018c 0423     		mov	r3, #4
 3450 018e 0028     		cmp	r0, #0
 3451 0190 07D0     		beq	.L280
  40:.\Generated_Source\PSoC4/comm.c ****   if(strncmp(str, "PUSH", len) == 0) return COMM_FLAG_PUSH;
 3452              		.loc 1 40 0
 3453 0192 281C     		mov	r0, r5
 3454 0194 3449     		ldr	r1, .L304+52
 3455 0196 221C     		mov	r2, r4
 3456 0198 FFF7FEFF 		bl	strncmp
 3457              	.LVL538:
 3458 019c 4342     		neg	r3, r0
 3459 019e 4341     		adc	r3, r3, r0
 3460 01a0 DB00     		lsl	r3, r3, #3
 3461              	.L280:
 3462              	.LBE35:
 3463              	.LBE34:
 267:.\Generated_Source\PSoC4/comm.c ****       flags = str2flag(json + tokens[t+1].start, tokens[t+1].end - tokens[t+1].start);
 3464              		.loc 1 267 0
 3465 01a2 244A     		ldr	r2, .L304
 3466 01a4 1375     		strb	r3, [r2, #20]
 3467 01a6 22E0     		b	.L277
 3468              	.LVL539:
 3469              	.L279:
ARM GAS  C:\Users\SDEVAS~1\AppData\Local\Temp\ccPhqTSe.s 			page 75


 268:.\Generated_Source\PSoC4/comm.c ****     } else if(compKey(json, &tokens[t], "order") == 0) {
 3470              		.loc 1 268 0
 3471 01a8 0298     		ldr	r0, [sp, #8]
 3472 01aa 291C     		mov	r1, r5
 3473 01ac 2F4A     		ldr	r2, .L304+56
 3474 01ae FFF7FEFF 		bl	compKey
 3475              	.LVL540:
 3476 01b2 0028     		cmp	r0, #0
 3477 01b4 0AD1     		bne	.L281
 269:.\Generated_Source\PSoC4/comm.c ****       order = json + tokens[t+1].start;
 3478              		.loc 1 269 0
 3479 01b6 3F01     		lsl	r7, r7, #4
 3480 01b8 E419     		add	r4, r4, r7
 3481 01ba 6268     		ldr	r2, [r4, #4]
 3482 01bc 0298     		ldr	r0, [sp, #8]
 3483 01be 1D4B     		ldr	r3, .L304
 3484 01c0 8118     		add	r1, r0, r2
 3485 01c2 1961     		str	r1, [r3, #16]
 270:.\Generated_Source\PSoC4/comm.c ****       orderLen = tokens[t+1].end - tokens[t+1].start;
 3486              		.loc 1 270 0
 3487 01c4 A168     		ldr	r1, [r4, #8]
 3488 01c6 8A1A     		sub	r2, r1, r2
 3489 01c8 DA62     		str	r2, [r3, #44]
 3490 01ca 10E0     		b	.L277
 3491              	.L281:
 271:.\Generated_Source\PSoC4/comm.c ****     } else if(compKey(json, &tokens[t], "payload") == 0) {
 3492              		.loc 1 271 0
 3493 01cc 0298     		ldr	r0, [sp, #8]
 3494 01ce 291C     		mov	r1, r5
 3495 01d0 274A     		ldr	r2, .L304+60
 3496 01d2 FFF7FEFF 		bl	compKey
 3497              	.LVL541:
 3498 01d6 0028     		cmp	r0, #0
 3499 01d8 09D1     		bne	.L277
 272:.\Generated_Source\PSoC4/comm.c ****       payload = json + tokens[t+1].start;
 3500              		.loc 1 272 0
 3501 01da 3F01     		lsl	r7, r7, #4
 3502 01dc E419     		add	r4, r4, r7
 3503 01de 6268     		ldr	r2, [r4, #4]
 3504 01e0 0298     		ldr	r0, [sp, #8]
 3505 01e2 144B     		ldr	r3, .L304
 3506 01e4 8118     		add	r1, r0, r2
 3507 01e6 D960     		str	r1, [r3, #12]
 273:.\Generated_Source\PSoC4/comm.c ****       payloadLen = tokens[t+1].end - tokens[t+1].start;
 3508              		.loc 1 273 0
 3509 01e8 A168     		ldr	r1, [r4, #8]
 3510 01ea 8A1A     		sub	r2, r1, r2
 3511 01ec 1A63     		str	r2, [r3, #48]
 3512              	.L277:
 275:.\Generated_Source\PSoC4/comm.c ****     t = skipToNextTokenInLevel(tokens, ++t);
 3513              		.loc 1 275 0
 3514 01ee 0399     		ldr	r1, [sp, #12]
 3515 01f0 1148     		ldr	r0, .L304+4
 3516 01f2 0131     		add	r1, r1, #1
 3517              	.LVL542:
 3518 01f4 FFF7FEFF 		bl	skipToNextTokenInLevel
 3519              	.LVL543:
ARM GAS  C:\Users\SDEVAS~1\AppData\Local\Temp\ccPhqTSe.s 			page 76


 232:.\Generated_Source\PSoC4/comm.c ****   for(; i < tokens[0].size; i++) {
 3520              		.loc 1 232 0
 3521 01f8 049A     		ldr	r2, [sp, #16]
 275:.\Generated_Source\PSoC4/comm.c ****     t = skipToNextTokenInLevel(tokens, ++t);
 3522              		.loc 1 275 0
 3523 01fa 0390     		str	r0, [sp, #12]
 3524              	.LVL544:
 232:.\Generated_Source\PSoC4/comm.c ****   for(; i < tokens[0].size; i++) {
 3525              		.loc 1 232 0
 3526 01fc 0132     		add	r2, r2, #1
 3527 01fe 0492     		str	r2, [sp, #16]
 3528              	.LVL545:
 3529 0200 21E7     		b	.L271
 3530              	.LVL546:
 3531              	.L302:
 277:.\Generated_Source\PSoC4/comm.c ****   if(msgSource == NULL || msgDest == NULL || order == NULL || flags == COMM_FLAG_UNKNOWN || payload
 3532              		.loc 1 277 0
 3533 0202 0C4B     		ldr	r3, .L304
 3534              	.LVL547:
 3535 0204 9A68     		ldr	r2, [r3, #8]
 3536 0206 002A     		cmp	r2, #0
 3537 0208 10D0     		beq	.L292
 277:.\Generated_Source\PSoC4/comm.c ****   if(msgSource == NULL || msgDest == NULL || order == NULL || flags == COMM_FLAG_UNKNOWN || payload
 3538              		.loc 1 277 0 is_stmt 0 discriminator 1
 3539 020a 5868     		ldr	r0, [r3, #4]
 3540 020c 0028     		cmp	r0, #0
 3541 020e 0DD0     		beq	.L292
 3542 0210 1A69     		ldr	r2, [r3, #16]
 3543 0212 002A     		cmp	r2, #0
 3544 0214 0AD0     		beq	.L292
 3545 0216 1A7D     		ldrb	r2, [r3, #20]
 278:.\Generated_Source\PSoC4/comm.c ****     return JSON_MSG_INVALID_FIELDS;
 3546              		.loc 1 278 0 is_stmt 1 discriminator 1
 3547 0218 0320     		mov	r0, #3
 277:.\Generated_Source\PSoC4/comm.c ****   if(msgSource == NULL || msgDest == NULL || order == NULL || flags == COMM_FLAG_UNKNOWN || payload
 3548              		.loc 1 277 0 discriminator 1
 3549 021a 002A     		cmp	r2, #0
 3550 021c 07D0     		beq	.L269
 3551 021e DB68     		ldr	r3, [r3, #12]
 280:.\Generated_Source\PSoC4/comm.c ****   return JSON_MSG_PARSE_OK;
 3552              		.loc 1 280 0 discriminator 1
 3553 0220 0020     		mov	r0, #0
 277:.\Generated_Source\PSoC4/comm.c ****   if(msgSource == NULL || msgDest == NULL || order == NULL || flags == COMM_FLAG_UNKNOWN || payload
 3554              		.loc 1 277 0 discriminator 1
 3555 0222 8342     		cmp	r3, r0
 3556 0224 03D1     		bne	.L269
 3557 0226 01E0     		b	.L292
 3558              	.LVL548:
 3559              	.L284:
 3560              	.LBB36:
 249:.\Generated_Source\PSoC4/comm.c ****             return JSON_MSG_INVALID_DESTINATION;
 3561              		.loc 1 249 0
 3562 0228 0220     		mov	r0, #2
 3563 022a 00E0     		b	.L269
 3564              	.LVL549:
 3565              	.L292:
 3566              	.LBE36:
ARM GAS  C:\Users\SDEVAS~1\AppData\Local\Temp\ccPhqTSe.s 			page 77


 278:.\Generated_Source\PSoC4/comm.c ****     return JSON_MSG_INVALID_FIELDS;
 3567              		.loc 1 278 0
 3568 022c 0320     		mov	r0, #3
 3569              	.LVL550:
 3570              	.L269:
 281:.\Generated_Source\PSoC4/comm.c **** }
 3571              		.loc 1 281 0
 3572 022e 09B0     		add	sp, sp, #36
 3573              		@ sp needed
 3574 0230 F0BD     		pop	{r4, r5, r6, r7, pc}
 3575              	.L305:
 3576 0232 C046     		.align	2
 3577              	.L304:
 3578 0234 00000000 		.word	.LANCHOR1
 3579 0238 00000000 		.word	tokens
 3580 023c E5080000 		.word	.LC218
 3581 0240 F1080000 		.word	.LC220
 3582 0244 FA080000 		.word	.LC222
 3583 0248 FC080000 		.word	.LC224
 3584 024c 03090000 		.word	.LC226
 3585 0250 05090000 		.word	.LC228
 3586 0254 0C090000 		.word	.LC230
 3587 0258 C7080000 		.word	.LC203
 3588 025c CB080000 		.word	.LC205
 3589 0260 D3080000 		.word	.LC207
 3590 0264 D7080000 		.word	.LC209
 3591 0268 DC080000 		.word	.LC211
 3592 026c 12090000 		.word	.LC237
 3593 0270 18090000 		.word	.LC239
 3594              		.cfi_endproc
 3595              	.LFE41:
 3596              		.size	validateDestinationAndParse, .-validateDestinationAndParse
 3597              		.section	.text.comm_handle_Get,"ax",%progbits
 3598              		.align	1
 3599              		.global	comm_handle_Get
 3600              		.code	16
 3601              		.thumb_func
 3602              		.type	comm_handle_Get, %function
 3603              	comm_handle_Get:
 3604              	.LFB42:
 283:.\Generated_Source\PSoC4/comm.c **** comm_flags_t comm_handle_Get(comm_flags_t flags, const char *payload, int payloadLen, jsmntok_t *to
 3605              		.loc 1 283 0
 3606              		.cfi_startproc
 3607              	.LVL551:
 3608 0000 08B5     		push	{r3, lr}
 3609              		.cfi_def_cfa_offset 8
 3610              		.cfi_offset 3, -8
 3611              		.cfi_offset 14, -4
 284:.\Generated_Source\PSoC4/comm.c ****   switch(flags) {
 3612              		.loc 1 284 0
 3613 0002 0128     		cmp	r0, #1
 3614 0004 04D1     		bne	.L310
 3615 0006 081C     		mov	r0, r1
 3616              	.LVL552:
 3617 0008 191C     		mov	r1, r3
 3618              	.LVL553:
 3619 000a FFF7FEFF 		bl	comm_handle_Get.part.1
ARM GAS  C:\Users\SDEVAS~1\AppData\Local\Temp\ccPhqTSe.s 			page 78


 3620              	.LVL554:
 3621 000e 00E0     		b	.L307
 3622              	.LVL555:
 3623              	.L310:
 288:.\Generated_Source\PSoC4/comm.c ****   default: return COMM_FLAG_UNKNOWN;//we only handle REQ and ACK
 3624              		.loc 1 288 0
 3625 0010 0020     		mov	r0, #0
 3626              	.LVL556:
 3627              	.L307:
 337:.\Generated_Source\PSoC4/comm.c **** }
 3628              		.loc 1 337 0
 3629              		@ sp needed
 3630 0012 08BD     		pop	{r3, pc}
 3631              		.cfi_endproc
 3632              	.LFE42:
 3633              		.size	comm_handle_Get, .-comm_handle_Get
 3634              		.section	.text.comm_handle_Set,"ax",%progbits
 3635              		.align	1
 3636              		.global	comm_handle_Set
 3637              		.code	16
 3638              		.thumb_func
 3639              		.type	comm_handle_Set, %function
 3640              	comm_handle_Set:
 3641              	.LFB43:
 339:.\Generated_Source\PSoC4/comm.c **** comm_flags_t comm_handle_Set(comm_flags_t flags, const char *payload, int payloadLen, jsmntok_t *to
 3642              		.loc 1 339 0
 3643              		.cfi_startproc
 3644              	.LVL557:
 3645 0000 08B5     		push	{r3, lr}
 3646              		.cfi_def_cfa_offset 8
 3647              		.cfi_offset 3, -8
 3648              		.cfi_offset 14, -4
 342:.\Generated_Source\PSoC4/comm.c **** 		return COMM_FLAG_UNKNOWN;
 3649              		.loc 1 342 0
 3650 0002 0022     		mov	r2, #0
 3651              	.LVL558:
 340:.\Generated_Source\PSoC4/comm.c **** 	if(flags != COMM_FLAG_REQ) {
 3652              		.loc 1 340 0
 3653 0004 0128     		cmp	r0, #1
 3654 0006 04D1     		bne	.L312
 3655 0008 081C     		mov	r0, r1
 3656              	.LVL559:
 3657 000a 191C     		mov	r1, r3
 3658              	.LVL560:
 3659 000c FFF7FEFF 		bl	comm_handle_Set.part.2
 3660              	.LVL561:
 3661 0010 021C     		mov	r2, r0
 3662              	.L312:
 397:.\Generated_Source\PSoC4/comm.c **** }
 3663              		.loc 1 397 0
 3664 0012 101C     		mov	r0, r2
 3665              		@ sp needed
 3666 0014 08BD     		pop	{r3, pc}
 3667              		.cfi_endproc
 3668              	.LFE43:
 3669              		.size	comm_handle_Set, .-comm_handle_Set
 3670              		.section	.text.comm_handle_Info,"ax",%progbits
ARM GAS  C:\Users\SDEVAS~1\AppData\Local\Temp\ccPhqTSe.s 			page 79


 3671              		.align	1
 3672              		.global	comm_handle_Info
 3673              		.code	16
 3674              		.thumb_func
 3675              		.type	comm_handle_Info, %function
 3676              	comm_handle_Info:
 3677              	.LFB44:
 399:.\Generated_Source\PSoC4/comm.c **** comm_flags_t comm_handle_Info(comm_flags_t flags, const char *payload, int payloadLen, jsmntok_t *t
 3678              		.loc 1 399 0
 3679              		.cfi_startproc
 3680              	.LVL562:
 3681 0000 08B5     		push	{r3, lr}
 3682              		.cfi_def_cfa_offset 8
 3683              		.cfi_offset 3, -8
 3684              		.cfi_offset 14, -4
 399:.\Generated_Source\PSoC4/comm.c **** comm_flags_t comm_handle_Info(comm_flags_t flags, const char *payload, int payloadLen, jsmntok_t *t
 3685              		.loc 1 399 0
 3686 0002 031C     		mov	r3, r0
 3687              	.LVL563:
 407:.\Generated_Source\PSoC4/comm.c **** 	return COMM_FLAG_UNKNOWN;
 3688              		.loc 1 407 0
 3689 0004 0020     		mov	r0, #0
 3690              	.LVL564:
 400:.\Generated_Source\PSoC4/comm.c **** 	if(flags == COMM_FLAG_UNKNOWN) {
 3691              		.loc 1 400 0
 3692 0006 8342     		cmp	r3, r0
 3693 0008 01D1     		bne	.L315
 3694 000a FFF7FEFF 		bl	comm_handle_Info.part.3
 3695              	.LVL565:
 3696              	.L315:
 408:.\Generated_Source\PSoC4/comm.c **** }
 3697              		.loc 1 408 0
 3698              		@ sp needed
 3699 000e 08BD     		pop	{r3, pc}
 3700              		.cfi_endproc
 3701              	.LFE44:
 3702              		.size	comm_handle_Info, .-comm_handle_Info
 3703              		.section	.text.comm_handle_Status,"ax",%progbits
 3704              		.align	1
 3705              		.global	comm_handle_Status
 3706              		.code	16
 3707              		.thumb_func
 3708              		.type	comm_handle_Status, %function
 3709              	comm_handle_Status:
 3710              	.LFB45:
 409:.\Generated_Source\PSoC4/comm.c **** comm_flags_t comm_handle_Status(comm_flags_t flags, const char *payload, int payloadLen, jsmntok_t 
 3711              		.loc 1 409 0
 3712              		.cfi_startproc
 3713              	.LVL566:
 3714 0000 10B5     		push	{r4, lr}
 3715              		.cfi_def_cfa_offset 8
 3716              		.cfi_offset 4, -8
 3717              		.cfi_offset 14, -4
 418:.\Generated_Source\PSoC4/comm.c **** 	return COMM_FLAG_UNKNOWN;
 3718              		.loc 1 418 0
 3719 0002 0023     		mov	r3, #0
 3720              	.LVL567:
ARM GAS  C:\Users\SDEVAS~1\AppData\Local\Temp\ccPhqTSe.s 			page 80


 410:.\Generated_Source\PSoC4/comm.c **** 	if(flags == COMM_FLAG_REQ) {
 3721              		.loc 1 410 0
 3722 0004 0128     		cmp	r0, #1
 3723 0006 19D1     		bne	.L318
 412:.\Generated_Source\PSoC4/comm.c **** 		ADD_STATIC_STRING_TO_RESP(",\"payload\":{\"oa\":[");
 3724              		.loc 1 412 0
 3725 0008 0D4C     		ldr	r4, .L320
 3726 000a 0E49     		ldr	r1, .L320+4
 3727              	.LVL568:
 3728 000c 1322     		mov	r2, #19
 3729              	.LVL569:
 3730 000e 2068     		ldr	r0, [r4]
 3731              	.LVL570:
 3732 0010 FFF7FEFF 		bl	memcpy
 3733              	.LVL571:
 3734 0014 2368     		ldr	r3, [r4]
 3735 0016 1233     		add	r3, r3, #18
 3736 0018 2360     		str	r3, [r4]
 3737 001a 6368     		ldr	r3, [r4, #4]
 3738 001c 123B     		sub	r3, r3, #18
 3739 001e 6360     		str	r3, [r4, #4]
 413:.\Generated_Source\PSoC4/comm.c **** 		comm_GenerateInfo();
 3740              		.loc 1 413 0
 3741 0020 FFF7FEFF 		bl	comm_GenerateInfo
 3742              	.LVL572:
 414:.\Generated_Source\PSoC4/comm.c **** 		ADD_STATIC_STRING_TO_RESP("]}");
 3743              		.loc 1 414 0
 3744 0024 2068     		ldr	r0, [r4]
 3745 0026 0849     		ldr	r1, .L320+8
 3746 0028 0322     		mov	r2, #3
 3747 002a FFF7FEFF 		bl	memcpy
 3748              	.LVL573:
 3749 002e 2368     		ldr	r3, [r4]
 3750 0030 0233     		add	r3, r3, #2
 3751 0032 2360     		str	r3, [r4]
 3752 0034 6368     		ldr	r3, [r4, #4]
 3753 0036 023B     		sub	r3, r3, #2
 3754 0038 6360     		str	r3, [r4, #4]
 415:.\Generated_Source\PSoC4/comm.c **** 		return COMM_FLAG_REQ_ACK;
 3755              		.loc 1 415 0
 3756 003a 0323     		mov	r3, #3
 3757              	.L318:
 419:.\Generated_Source\PSoC4/comm.c **** }
 3758              		.loc 1 419 0
 3759 003c 181C     		mov	r0, r3
 3760              		@ sp needed
 3761 003e 10BD     		pop	{r4, pc}
 3762              	.L321:
 3763              		.align	2
 3764              	.L320:
 3765 0040 00000000 		.word	.LANCHOR0
 3766 0044 A6080000 		.word	.LC194
 3767 0048 B9080000 		.word	.LC196
 3768              		.cfi_endproc
 3769              	.LFE45:
 3770              		.size	comm_handle_Status, .-comm_handle_Status
 3771              		.section	.text.comm_handle_Mode,"ax",%progbits
ARM GAS  C:\Users\SDEVAS~1\AppData\Local\Temp\ccPhqTSe.s 			page 81


 3772              		.align	1
 3773              		.global	comm_handle_Mode
 3774              		.code	16
 3775              		.thumb_func
 3776              		.type	comm_handle_Mode, %function
 3777              	comm_handle_Mode:
 3778              	.LFB46:
 421:.\Generated_Source\PSoC4/comm.c **** comm_flags_t comm_handle_Mode(comm_flags_t flags, const char *payload, int payloadLen, jsmntok_t *t
 3779              		.loc 1 421 0
 3780              		.cfi_startproc
 3781              	.LVL574:
 3782 0000 10B5     		push	{r4, lr}
 3783              		.cfi_def_cfa_offset 8
 3784              		.cfi_offset 4, -8
 3785              		.cfi_offset 14, -4
 440:.\Generated_Source\PSoC4/comm.c **** 	return COMM_FLAG_UNKNOWN;
 3786              		.loc 1 440 0
 3787 0002 0023     		mov	r3, #0
 3788              	.LVL575:
 422:.\Generated_Source\PSoC4/comm.c **** 	if(flags == COMM_FLAG_REQ) {
 3789              		.loc 1 422 0
 3790 0004 0128     		cmp	r0, #1
 3791 0006 18D1     		bne	.L323
 3792              	.LBB38:
 425:.\Generated_Source\PSoC4/comm.c **** 		atom_modes_t mode = get_atom_mode_from_string(payload, payloadLen);
 3793              		.loc 1 425 0
 3794 0008 081C     		mov	r0, r1
 3795              	.LVL576:
 3796 000a 111C     		mov	r1, r2
 3797              	.LVL577:
 3798 000c FFF7FEFF 		bl	get_atom_mode_from_string
 3799              	.LVL578:
 427:.\Generated_Source\PSoC4/comm.c **** 		if(mode == INVALID_ATOM_MODE) {
 3800              		.loc 1 427 0
 3801 0010 0528     		cmp	r0, #5
 3802 0012 0FD0     		beq	.L324
 432:.\Generated_Source\PSoC4/comm.c **** 		comm_ModeChange(mode);
 3803              		.loc 1 432 0
 3804 0014 FFF7FEFF 		bl	comm_ModeChange
 3805              	.LVL579:
 434:.\Generated_Source\PSoC4/comm.c **** 		ADD_STATIC_STRING_TO_RESP(",\"payload\":null");
 3806              		.loc 1 434 0
 3807 0018 094C     		ldr	r4, .L326
 3808 001a 0A49     		ldr	r1, .L326+4
 3809 001c 2068     		ldr	r0, [r4]
 3810 001e 1022     		mov	r2, #16
 3811 0020 FFF7FEFF 		bl	memcpy
 3812              	.LVL580:
 3813 0024 2368     		ldr	r3, [r4]
 3814 0026 0F33     		add	r3, r3, #15
 3815 0028 2360     		str	r3, [r4]
 3816 002a 6368     		ldr	r3, [r4, #4]
 3817 002c 0F3B     		sub	r3, r3, #15
 3818 002e 6360     		str	r3, [r4, #4]
 435:.\Generated_Source\PSoC4/comm.c **** 		return COMM_FLAG_ACK;
 3819              		.loc 1 435 0
 3820 0030 0223     		mov	r3, #2
ARM GAS  C:\Users\SDEVAS~1\AppData\Local\Temp\ccPhqTSe.s 			page 82


 3821 0032 02E0     		b	.L323
 3822              	.LVL581:
 3823              	.L324:
 3824              	.LBE38:
 3825 0034 FFF7FEFF 		bl	comm_handle_Mode.part.4
 3826              	.LVL582:
 3827 0038 031C     		mov	r3, r0
 3828              	.L323:
 441:.\Generated_Source\PSoC4/comm.c **** }
 3829              		.loc 1 441 0
 3830 003a 181C     		mov	r0, r3
 3831              		@ sp needed
 3832 003c 10BD     		pop	{r4, pc}
 3833              	.L327:
 3834 003e C046     		.align	2
 3835              	.L326:
 3836 0040 00000000 		.word	.LANCHOR0
 3837 0044 8B080000 		.word	.LC177
 3838              		.cfi_endproc
 3839              	.LFE46:
 3840              		.size	comm_handle_Mode, .-comm_handle_Mode
 3841              		.section	.text.comm_Init,"ax",%progbits
 3842              		.align	1
 3843              		.global	comm_Init
 3844              		.code	16
 3845              		.thumb_func
 3846              		.type	comm_Init, %function
 3847              	comm_Init:
 3848              	.LFB56:
 493:.\Generated_Source\PSoC4/comm.c **** void comm_Init(void) {
 3849              		.loc 1 493 0
 3850              		.cfi_startproc
 3851 0000 70B5     		push	{r4, r5, r6, lr}
 3852              		.cfi_def_cfa_offset 16
 3853              		.cfi_offset 4, -16
 3854              		.cfi_offset 5, -12
 3855              		.cfi_offset 6, -8
 3856              		.cfi_offset 14, -4
 494:.\Generated_Source\PSoC4/comm.c **** 	memset(&comm, 0, sizeof(comm));
 3857              		.loc 1 494 0
 3858 0002 104C     		ldr	r4, .L329
 3859 0004 A222     		mov	r2, #162
 3860 0006 0021     		mov	r1, #0
 3861 0008 5200     		lsl	r2, r2, #1
 3862 000a 201C     		mov	r0, r4
 3863 000c FFF7FEFF 		bl	memset
 3864              	.LVL583:
 497:.\Generated_Source\PSoC4/comm.c ****     comm_RS485_SetCallbackOnSelectedAsSlave(rs485_selected_as_slave_callback);
 3865              		.loc 1 497 0
 3866 0010 0D48     		ldr	r0, .L329+4
 3867 0012 FFF7FEFF 		bl	comm_RS485_SetCallbackOnSelectedAsSlave
 3868              	.LVL584:
 498:.\Generated_Source\PSoC4/comm.c ****     comm_RS485_SetCallbackOnReleasedAsSlave(rs485_released_as_slave_callback);
 3869              		.loc 1 498 0
 3870 0016 0D48     		ldr	r0, .L329+8
 3871 0018 FFF7FEFF 		bl	comm_RS485_SetCallbackOnReleasedAsSlave
 3872              	.LVL585:
ARM GAS  C:\Users\SDEVAS~1\AppData\Local\Temp\ccPhqTSe.s 			page 83


 499:.\Generated_Source\PSoC4/comm.c ****     comm_RS485_SetCallbackOnSlaveReceive(rs485_receive_callback, comm.recvBuff, RECV_BUFF_LEN);
 3873              		.loc 1 499 0
 3874 001c 9625     		mov	r5, #150
 3875 001e 0C4E     		ldr	r6, .L329+12
 3876 0020 6D00     		lsl	r5, r5, #1
 3877 0022 301C     		mov	r0, r6
 3878 0024 2A1C     		mov	r2, r5
 3879 0026 211C     		mov	r1, r4
 3880 0028 FFF7FEFF 		bl	comm_RS485_SetCallbackOnSlaveReceive
 3881              	.LVL586:
 500:.\Generated_Source\PSoC4/comm.c ****     comm_RS485_SetCallbackOnMasterReceive(rs485_receive_callback, comm.recvBuff, RECV_BUFF_LEN);
 3882              		.loc 1 500 0
 3883 002c 2A1C     		mov	r2, r5
 3884 002e 301C     		mov	r0, r6
 3885 0030 211C     		mov	r1, r4
 3886 0032 FFF7FEFF 		bl	comm_RS485_SetCallbackOnMasterReceive
 3887              	.LVL587:
 501:.\Generated_Source\PSoC4/comm.c ****     comm_RS485_SetCallbackOnWake(rs485_wake_callback);
 3888              		.loc 1 501 0
 3889 0036 0748     		ldr	r0, .L329+16
 3890 0038 FFF7FEFF 		bl	comm_RS485_SetCallbackOnWake
 3891              	.LVL588:
 504:.\Generated_Source\PSoC4/comm.c **** }
 3892              		.loc 1 504 0
 3893              		@ sp needed
 503:.\Generated_Source\PSoC4/comm.c ****     comm_RS485_Init();
 3894              		.loc 1 503 0
 3895 003c FFF7FEFF 		bl	comm_RS485_Init
 3896              	.LVL589:
 504:.\Generated_Source\PSoC4/comm.c **** }
 3897              		.loc 1 504 0
 3898 0040 70BD     		pop	{r4, r5, r6, pc}
 3899              	.L330:
 3900 0042 C046     		.align	2
 3901              	.L329:
 3902 0044 00000000 		.word	comm
 3903 0048 00000000 		.word	rs485_selected_as_slave_callback
 3904 004c 00000000 		.word	rs485_released_as_slave_callback
 3905 0050 00000000 		.word	rs485_receive_callback
 3906 0054 00000000 		.word	rs485_wake_callback
 3907              		.cfi_endproc
 3908              	.LFE56:
 3909              		.size	comm_Init, .-comm_Init
 3910              		.section	.text.comm_ScheduleMessage,"ax",%progbits
 3911              		.align	1
 3912              		.global	comm_ScheduleMessage
 3913              		.code	16
 3914              		.thumb_func
 3915              		.type	comm_ScheduleMessage, %function
 3916              	comm_ScheduleMessage:
 3917              	.LFB57:
 506:.\Generated_Source\PSoC4/comm.c **** void comm_ScheduleMessage(const char *order, int orderLen, char atomType, char atomID) {
 3918              		.loc 1 506 0
 3919              		.cfi_startproc
 3920              	.LVL590:
 3921 0000 38B5     		push	{r3, r4, r5, lr}
 3922              		.cfi_def_cfa_offset 16
ARM GAS  C:\Users\SDEVAS~1\AppData\Local\Temp\ccPhqTSe.s 			page 84


 3923              		.cfi_offset 3, -16
 3924              		.cfi_offset 4, -12
 3925              		.cfi_offset 5, -8
 3926              		.cfi_offset 14, -4
 507:.\Generated_Source\PSoC4/comm.c **** 	comm.schedOrder = order;
 3927              		.loc 1 507 0
 3928 0002 0E4C     		ldr	r4, .L334
 3929 0004 251C     		mov	r5, r4
 3930 0006 FC35     		add	r5, r5, #252
 3931 0008 E863     		str	r0, [r5, #60]
 508:.\Generated_Source\PSoC4/comm.c **** 	comm.schedOrderLen = orderLen;
 3932              		.loc 1 508 0
 3933 000a 2964     		str	r1, [r5, #64]
 509:.\Generated_Source\PSoC4/comm.c **** 	comm.schedAddr = atomType == 'X' ? comm_RS485_Protocol_ARB_ADDRESS : jsonAddressToRS(atomType, ato
 3934              		.loc 1 509 0
 3935 000c 582A     		cmp	r2, #88
 3936 000e 08D0     		beq	.L333
 3937              	.LVL591:
 3938              	.LBB41:
 3939              	.LBB42:
 444:.\Generated_Source\PSoC4/comm.c **** 	return (((atomType - 'A')&0x1f) << 3) | ((atomID - '0')&0x07);
 3940              		.loc 1 444 0
 3941 0010 111C     		mov	r1, r2
 3942              	.LVL592:
 3943 0012 4139     		sub	r1, r1, #65
 3944 0014 FF20     		mov	r0, #255
 3945              	.LVL593:
 3946 0016 C900     		lsl	r1, r1, #3
 3947 0018 0140     		and	r1, r0
 3948 001a 0720     		mov	r0, #7
 3949 001c 1840     		and	r0, r3
 3950 001e 0143     		orr	r1, r0
 3951              	.LBE42:
 3952              	.LBE41:
 3953 0020 00E0     		b	.L332
 3954              	.LVL594:
 3955              	.L333:
 509:.\Generated_Source\PSoC4/comm.c **** 	comm.schedAddr = atomType == 'X' ? comm_RS485_Protocol_ARB_ADDRESS : jsonAddressToRS(atomType, ato
 3956              		.loc 1 509 0
 3957 0022 0121     		mov	r1, #1
 3958              	.LVL595:
 3959              	.L332:
 509:.\Generated_Source\PSoC4/comm.c **** 	comm.schedAddr = atomType == 'X' ? comm_RS485_Protocol_ARB_ADDRESS : jsonAddressToRS(atomType, ato
 3960              		.loc 1 509 0 is_stmt 0 discriminator 3
 3961 0024 FC34     		add	r4, r4, #252
 3962 0026 6164     		str	r1, [r4, #68]
 510:.\Generated_Source\PSoC4/comm.c **** 	*msgDestinationHolderAtomType = atomType;
 3963              		.loc 1 510 0 is_stmt 1 discriminator 3
 3964 0028 0549     		ldr	r1, .L334+4
 514:.\Generated_Source\PSoC4/comm.c **** }
 3965              		.loc 1 514 0 discriminator 3
 3966              		@ sp needed
 510:.\Generated_Source\PSoC4/comm.c **** 	*msgDestinationHolderAtomType = atomType;
 3967              		.loc 1 510 0 discriminator 3
 3968 002a 8868     		ldr	r0, [r1, #8]
 3969 002c 0270     		strb	r2, [r0]
 3970              	.LVL596:
ARM GAS  C:\Users\SDEVAS~1\AppData\Local\Temp\ccPhqTSe.s 			page 85


 511:.\Generated_Source\PSoC4/comm.c **** 	*msgDestinationHolderAtomId = atomID;
 3971              		.loc 1 511 0 discriminator 3
 3972 002e CA68     		ldr	r2, [r1, #12]
 3973              	.LVL597:
 513:.\Generated_Source\PSoC4/comm.c **** 	comm_RS485_RequestBus(rs485_bus_granted_callback);
 3974              		.loc 1 513 0 discriminator 3
 3975 0030 0448     		ldr	r0, .L334+8
 3976              	.LVL598:
 511:.\Generated_Source\PSoC4/comm.c **** 	*msgDestinationHolderAtomId = atomID;
 3977              		.loc 1 511 0 discriminator 3
 3978 0032 1370     		strb	r3, [r2]
 513:.\Generated_Source\PSoC4/comm.c **** 	comm_RS485_RequestBus(rs485_bus_granted_callback);
 3979              		.loc 1 513 0 discriminator 3
 3980 0034 FFF7FEFF 		bl	comm_RS485_RequestBus
 3981              	.LVL599:
 514:.\Generated_Source\PSoC4/comm.c **** }
 3982              		.loc 1 514 0 discriminator 3
 3983 0038 38BD     		pop	{r3, r4, r5, pc}
 3984              	.L335:
 3985 003a C046     		.align	2
 3986              	.L334:
 3987 003c 00000000 		.word	comm
 3988 0040 00000000 		.word	.LANCHOR0
 3989 0044 00000000 		.word	rs485_bus_granted_callback
 3990              		.cfi_endproc
 3991              	.LFE57:
 3992              		.size	comm_ScheduleMessage, .-comm_ScheduleMessage
 3993              		.section	.text.comm_Handler,"ax",%progbits
 3994              		.align	1
 3995              		.global	comm_Handler
 3996              		.code	16
 3997              		.thumb_func
 3998              		.type	comm_Handler, %function
 3999              	comm_Handler:
 4000              	.LFB59:
 527:.\Generated_Source\PSoC4/comm.c **** 
 528:.\Generated_Source\PSoC4/comm.c **** void comm_Handler(void) {
 4001              		.loc 1 528 0
 4002              		.cfi_startproc
 4003 0000 F0B5     		push	{r4, r5, r6, r7, lr}
 4004              		.cfi_def_cfa_offset 20
 4005              		.cfi_offset 4, -20
 4006              		.cfi_offset 5, -16
 4007              		.cfi_offset 6, -12
 4008              		.cfi_offset 7, -8
 4009              		.cfi_offset 14, -4
 529:.\Generated_Source\PSoC4/comm.c **** 	static int error_counter = 0;
 530:.\Generated_Source\PSoC4/comm.c **** 	static int timeout_counter = 0;
 531:.\Generated_Source\PSoC4/comm.c **** 	if(comm.flags.RECV) {
 4010              		.loc 1 531 0
 4011 0002 9823     		mov	r3, #152
 4012 0004 A94D     		ldr	r5, .L382
 4013 0006 5B00     		lsl	r3, r3, #1
 4014 0008 EA5C     		ldrb	r2, [r5, r3]
 528:.\Generated_Source\PSoC4/comm.c **** void comm_Handler(void) {
 4015              		.loc 1 528 0
 4016 000a 85B0     		sub	sp, sp, #20
ARM GAS  C:\Users\SDEVAS~1\AppData\Local\Temp\ccPhqTSe.s 			page 86


 4017              		.cfi_def_cfa_offset 40
 4018              		.loc 1 531 0
 4019 000c D107     		lsl	r1, r2, #31
 4020 000e 00D4     		bmi	.LCB4305
 4021 0010 B3E0     		b	.L337	@long jump
 4022              	.LCB4305:
 532:.\Generated_Source\PSoC4/comm.c **** 		//stop resending
 533:.\Generated_Source\PSoC4/comm.c **** 		comm.flags.SENT = 0;
 4023              		.loc 1 533 0
 4024 0012 0221     		mov	r1, #2
 4025 0014 8A43     		bic	r2, r1
 4026 0016 EA54     		strb	r2, [r5, r3]
 534:.\Generated_Source\PSoC4/comm.c **** 		//recv message
 535:.\Generated_Source\PSoC4/comm.c **** 		if(validateDestinationAndParse(comm.recvBuff, comm.len) == JSON_MSG_PARSE_OK) {
 4027              		.loc 1 535 0
 4028 0018 2B1C     		mov	r3, r5
 4029 001a FC33     		add	r3, r3, #252
 4030 001c 196B     		ldr	r1, [r3, #48]
 4031 001e 281C     		mov	r0, r5
 4032 0020 FFF7FEFF 		bl	validateDestinationAndParse
 4033              	.LVL600:
 4034 0024 0028     		cmp	r0, #0
 4035 0026 00D0     		beq	.LCB4316
 4036 0028 A1E0     		b	.L339	@long jump
 4037              	.LCB4316:
 536:.\Generated_Source\PSoC4/comm.c **** 			if(flags == COMM_FLAG_NACK) {
 4038              		.loc 1 536 0
 4039 002a A14C     		ldr	r4, .L382+4
 4040 002c 237D     		ldrb	r3, [r4, #20]
 4041 002e 042B     		cmp	r3, #4
 4042 0030 07D1     		bne	.L340
 537:.\Generated_Source\PSoC4/comm.c **** 				//we are in session, but receivied NACK increease error counter
 538:.\Generated_Source\PSoC4/comm.c **** 				if(error_counter++ < 3) {
 4043              		.loc 1 538 0
 4044 0032 636B     		ldr	r3, [r4, #52]
 4045 0034 5A1C     		add	r2, r3, #1
 4046 0036 6263     		str	r2, [r4, #52]
 4047 0038 022B     		cmp	r3, #2
 4048 003a 00DD     		ble	.LCB4325
 4049 003c 97E0     		b	.L339	@long jump
 4050              	.LCB4325:
 539:.\Generated_Source\PSoC4/comm.c **** 					//resend message
 540:.\Generated_Source\PSoC4/comm.c **** 					comm_RS485_SendFrame(respBuff, RESP_BUFF_LEN - respFreeSpace, rs485_frame_sent_callback);
 4051              		.loc 1 540 0
 4052 003e 9D4B     		ldr	r3, .L382+8
 4053 0040 84E0     		b	.L349
 4054              	.L340:
 4055              	.LBB61:
 541:.\Generated_Source\PSoC4/comm.c **** 				}
 542:.\Generated_Source\PSoC4/comm.c **** 			} else {
 543:.\Generated_Source\PSoC4/comm.c **** 				//reset error & timeout counter
 544:.\Generated_Source\PSoC4/comm.c **** 				error_counter = 0;
 545:.\Generated_Source\PSoC4/comm.c **** 				timeout_counter = 0;
 546:.\Generated_Source\PSoC4/comm.c **** 				resp_GenDestSrcOrder(msgSource, msgSourceLen, msgDest, msgDestLen, order, orderLen);
 4056              		.loc 1 546 0
 4057 0042 2269     		ldr	r2, [r4, #16]
 544:.\Generated_Source\PSoC4/comm.c **** 				error_counter = 0;
ARM GAS  C:\Users\SDEVAS~1\AppData\Local\Temp\ccPhqTSe.s 			page 87


 4058              		.loc 1 544 0
 4059 0044 6063     		str	r0, [r4, #52]
 545:.\Generated_Source\PSoC4/comm.c **** 				timeout_counter = 0;
 4060              		.loc 1 545 0
 4061 0046 A063     		str	r0, [r4, #56]
 4062              		.loc 1 546 0
 4063 0048 0092     		str	r2, [sp]
 4064 004a E36A     		ldr	r3, [r4, #44]
 547:.\Generated_Source\PSoC4/comm.c **** 
 548:.\Generated_Source\PSoC4/comm.c **** 				jsmn_init(&parser);
 4065              		.loc 1 548 0
 4066 004c 271C     		mov	r7, r4
 546:.\Generated_Source\PSoC4/comm.c **** 				resp_GenDestSrcOrder(msgSource, msgSourceLen, msgDest, msgDestLen, order, orderLen);
 4067              		.loc 1 546 0
 4068 004e 0193     		str	r3, [sp, #4]
 4069 0050 A16A     		ldr	r1, [r4, #40]
 4070 0052 6268     		ldr	r2, [r4, #4]
 4071 0054 636A     		ldr	r3, [r4, #36]
 4072 0056 A068     		ldr	r0, [r4, #8]
 4073              		.loc 1 548 0
 4074 0058 1837     		add	r7, r7, #24
 546:.\Generated_Source\PSoC4/comm.c **** 				resp_GenDestSrcOrder(msgSource, msgSourceLen, msgDest, msgDestLen, order, orderLen);
 4075              		.loc 1 546 0
 4076 005a FFF7FEFF 		bl	resp_GenDestSrcOrder
 4077              	.LVL601:
 4078              		.loc 1 548 0
 4079 005e 381C     		mov	r0, r7
 4080 0060 FFF7FEFF 		bl	jsmn_init
 4081              	.LVL602:
 549:.\Generated_Source\PSoC4/comm.c **** 				int r = jsmn_parse(&parser, payload, payloadLen, tokens, JSMN_TOKENS_SIZE);
 4082              		.loc 1 549 0
 4083 0064 944E     		ldr	r6, .L382+12
 4084 0066 3C23     		mov	r3, #60
 4085 0068 0093     		str	r3, [sp]
 4086 006a 381C     		mov	r0, r7
 4087 006c E168     		ldr	r1, [r4, #12]
 4088 006e 226B     		ldr	r2, [r4, #48]
 4089 0070 331C     		mov	r3, r6
 4090 0072 FFF7FEFF 		bl	jsmn_parse
 4091              	.LVL603:
 4092 0076 0390     		str	r0, [sp, #12]
 4093              	.LVL604:
 550:.\Generated_Source\PSoC4/comm.c **** 				if(r > 0) {
 4094              		.loc 1 550 0
 4095 0078 0028     		cmp	r0, #0
 4096 007a 78DD     		ble	.L339
 4097              	.LVL605:
 4098              	.LBB62:
 551:.\Generated_Source\PSoC4/comm.c **** 					comm_flags_t retflag = COMM_FLAG_UNKNOWN;
 552:.\Generated_Source\PSoC4/comm.c **** 
 553:.\Generated_Source\PSoC4/comm.c **** 					if(strncmp(order, "Set", orderLen) == 0) {
 4099              		.loc 1 553 0
 4100 007c E16A     		ldr	r1, [r4, #44]
 4101 007e 2769     		ldr	r7, [r4, #16]
 4102 0080 0291     		str	r1, [sp, #8]
 4103 0082 381C     		mov	r0, r7
 4104              	.LVL606:
ARM GAS  C:\Users\SDEVAS~1\AppData\Local\Temp\ccPhqTSe.s 			page 88


 4105 0084 8D49     		ldr	r1, .L382+16
 4106 0086 029A     		ldr	r2, [sp, #8]
 4107 0088 FFF7FEFF 		bl	strncmp
 4108              	.LVL607:
 4109 008c 0028     		cmp	r0, #0
 4110 008e 07D1     		bne	.L342
 4111              	.LBB63:
 4112              	.LBB64:
 340:.\Generated_Source\PSoC4/comm.c **** 	if(flags != COMM_FLAG_REQ) {
 4113              		.loc 1 340 0
 4114 0090 237D     		ldrb	r3, [r4, #20]
 4115              	.LBE64:
 4116              	.LBE63:
 554:.\Generated_Source\PSoC4/comm.c **** 						retflag = comm_handle_Set(flags, payload, payloadLen, tokens, r);
 4117              		.loc 1 554 0
 4118 0092 E068     		ldr	r0, [r4, #12]
 4119              	.LVL608:
 4120              	.LBB66:
 4121              	.LBB65:
 340:.\Generated_Source\PSoC4/comm.c **** 	if(flags != COMM_FLAG_REQ) {
 4122              		.loc 1 340 0
 4123 0094 012B     		cmp	r3, #1
 4124 0096 62D1     		bne	.L343
 4125 0098 311C     		mov	r1, r6
 4126 009a FFF7FEFF 		bl	comm_handle_Set.part.2
 4127              	.LVL609:
 4128 009e 3BE0     		b	.L381
 4129              	.LVL610:
 4130              	.L342:
 4131              	.LBE65:
 4132              	.LBE66:
 555:.\Generated_Source\PSoC4/comm.c **** 					} else if(strncmp(order, "Get", orderLen) == 0) {
 4133              		.loc 1 555 0
 4134 00a0 381C     		mov	r0, r7
 4135 00a2 8749     		ldr	r1, .L382+20
 4136 00a4 029A     		ldr	r2, [sp, #8]
 4137 00a6 FFF7FEFF 		bl	strncmp
 4138              	.LVL611:
 4139 00aa 0028     		cmp	r0, #0
 4140 00ac 08D1     		bne	.L345
 556:.\Generated_Source\PSoC4/comm.c **** 						retflag = comm_handle_Get(flags, payload, payloadLen, tokens, r);
 4141              		.loc 1 556 0
 4142 00ae 039B     		ldr	r3, [sp, #12]
 4143 00b0 207D     		ldrb	r0, [r4, #20]
 4144 00b2 E168     		ldr	r1, [r4, #12]
 4145 00b4 226B     		ldr	r2, [r4, #48]
 4146 00b6 0093     		str	r3, [sp]
 4147 00b8 331C     		mov	r3, r6
 4148 00ba FFF7FEFF 		bl	comm_handle_Get
 4149              	.LVL612:
 4150 00be 2BE0     		b	.L381
 4151              	.L345:
 557:.\Generated_Source\PSoC4/comm.c **** 					} else if(strncmp(order, "Info", orderLen) == 0) {
 4152              		.loc 1 557 0
 4153 00c0 381C     		mov	r0, r7
 4154 00c2 8049     		ldr	r1, .L382+24
 4155 00c4 029A     		ldr	r2, [sp, #8]
ARM GAS  C:\Users\SDEVAS~1\AppData\Local\Temp\ccPhqTSe.s 			page 89


 4156 00c6 FFF7FEFF 		bl	strncmp
 4157              	.LVL613:
 4158 00ca 0028     		cmp	r0, #0
 4159 00cc 05D1     		bne	.L346
 4160              	.LVL614:
 4161              	.LBB67:
 4162              	.LBB68:
 400:.\Generated_Source\PSoC4/comm.c **** 	if(flags == COMM_FLAG_UNKNOWN) {
 4163              		.loc 1 400 0
 4164 00ce 237D     		ldrb	r3, [r4, #20]
 4165 00d0 002B     		cmp	r3, #0
 4166 00d2 44D1     		bne	.L343
 4167 00d4 FFF7FEFF 		bl	comm_handle_Info.part.3
 4168              	.LVL615:
 4169 00d8 1EE0     		b	.L381
 4170              	.LVL616:
 4171              	.L346:
 4172              	.LBE68:
 4173              	.LBE67:
 558:.\Generated_Source\PSoC4/comm.c **** 						retflag = comm_handle_Info(flags, payload, payloadLen, tokens, r);
 559:.\Generated_Source\PSoC4/comm.c **** 					} else if(strncmp(order, "Status", orderLen) == 0) {
 4174              		.loc 1 559 0
 4175 00da 381C     		mov	r0, r7
 4176 00dc 7A49     		ldr	r1, .L382+28
 4177 00de 029A     		ldr	r2, [sp, #8]
 4178 00e0 FFF7FEFF 		bl	strncmp
 4179              	.LVL617:
 4180 00e4 0028     		cmp	r0, #0
 4181 00e6 08D1     		bne	.L347
 560:.\Generated_Source\PSoC4/comm.c **** 						retflag = comm_handle_Status(flags, payload, payloadLen, tokens, r);
 4182              		.loc 1 560 0
 4183 00e8 039B     		ldr	r3, [sp, #12]
 4184 00ea 207D     		ldrb	r0, [r4, #20]
 4185 00ec E168     		ldr	r1, [r4, #12]
 4186 00ee 226B     		ldr	r2, [r4, #48]
 4187 00f0 0093     		str	r3, [sp]
 4188 00f2 331C     		mov	r3, r6
 4189 00f4 FFF7FEFF 		bl	comm_handle_Status
 4190              	.LVL618:
 4191 00f8 0EE0     		b	.L381
 4192              	.L347:
 561:.\Generated_Source\PSoC4/comm.c **** 					} else if(strncmp(order, "Mode", orderLen) == 0) {
 4193              		.loc 1 561 0
 4194 00fa 381C     		mov	r0, r7
 4195 00fc 7349     		ldr	r1, .L382+32
 4196 00fe 029A     		ldr	r2, [sp, #8]
 4197 0100 FFF7FEFF 		bl	strncmp
 4198              	.LVL619:
 4199 0104 0028     		cmp	r0, #0
 4200 0106 2AD1     		bne	.L343
 562:.\Generated_Source\PSoC4/comm.c **** 						retflag = comm_handle_Mode(flags, payload, payloadLen, tokens, r);
 4201              		.loc 1 562 0
 4202 0108 039B     		ldr	r3, [sp, #12]
 4203 010a 207D     		ldrb	r0, [r4, #20]
 4204 010c E168     		ldr	r1, [r4, #12]
 4205 010e 226B     		ldr	r2, [r4, #48]
 4206 0110 0093     		str	r3, [sp]
ARM GAS  C:\Users\SDEVAS~1\AppData\Local\Temp\ccPhqTSe.s 			page 90


 4207 0112 331C     		mov	r3, r6
 4208 0114 FFF7FEFF 		bl	comm_handle_Mode
 4209              	.LVL620:
 4210              	.L381:
 4211 0118 041E     		sub	r4, r0, #0
 4212              	.LVL621:
 563:.\Generated_Source\PSoC4/comm.c **** 					}
 564:.\Generated_Source\PSoC4/comm.c **** 					#define X(OrderName) else if(strncmp(order, #OrderName, orderLen) == 0) { \
 565:.\Generated_Source\PSoC4/comm.c **** 						retflag = comm_handle_##OrderName(flags, payload, payloadLen, tokens, r); \
 566:.\Generated_Source\PSoC4/comm.c **** 					}
 567:.\Generated_Source\PSoC4/comm.c **** 					ATOM_ORDERS
 568:.\Generated_Source\PSoC4/comm.c **** 					#undef X
 569:.\Generated_Source\PSoC4/comm.c **** 
 570:.\Generated_Source\PSoC4/comm.c **** 					if(retflag != COMM_FLAG_UNKNOWN) {
 4213              		.loc 1 570 0
 4214 011a 20D0     		beq	.L343
 571:.\Generated_Source\PSoC4/comm.c **** 						//handler returned flag that indicates communication, we are adding it to overall payload, an
 572:.\Generated_Source\PSoC4/comm.c **** 						resp_AddFlags(retflag);
 4215              		.loc 1 572 0
 4216 011c FFF7FEFF 		bl	resp_AddFlags
 4217              	.LVL622:
 573:.\Generated_Source\PSoC4/comm.c **** 						ADD_CHAR_TO_RESP('}');
 4218              		.loc 1 573 0
 4219 0120 644B     		ldr	r3, .L382+8
 4220 0122 1A68     		ldr	r2, [r3]
 4221 0124 511C     		add	r1, r2, #1
 4222 0126 1960     		str	r1, [r3]
 4223 0128 7D21     		mov	r1, #125
 4224 012a 1170     		strb	r1, [r2]
 4225 012c 5A68     		ldr	r2, [r3, #4]
 574:.\Generated_Source\PSoC4/comm.c **** 
 575:.\Generated_Source\PSoC4/comm.c **** 						*respEnd = '\0';
 4226              		.loc 1 575 0
 4227 012e 1968     		ldr	r1, [r3]
 573:.\Generated_Source\PSoC4/comm.c **** 						ADD_CHAR_TO_RESP('}');
 4228              		.loc 1 573 0
 4229 0130 013A     		sub	r2, r2, #1
 4230 0132 5A60     		str	r2, [r3, #4]
 4231              		.loc 1 575 0
 4232 0134 0022     		mov	r2, #0
 4233 0136 0A70     		strb	r2, [r1]
 576:.\Generated_Source\PSoC4/comm.c **** 
 577:.\Generated_Source\PSoC4/comm.c **** 						if(retflag == COMM_FLAG_ACK || retflag == COMM_FLAG_NACK) {
 4234              		.loc 1 577 0
 4235 0138 022C     		cmp	r4, #2
 4236 013a 01D0     		beq	.L348
 4237              		.loc 1 577 0 is_stmt 0 discriminator 1
 4238 013c 042C     		cmp	r4, #4
 4239 013e 05D1     		bne	.L349
 4240              	.L348:
 578:.\Generated_Source\PSoC4/comm.c **** 							//this is final message from this atom
 579:.\Generated_Source\PSoC4/comm.c **** 							comm.flags.LAST_MSG = 1;
 4241              		.loc 1 579 0 is_stmt 1
 4242 0140 9822     		mov	r2, #152
 4243 0142 5200     		lsl	r2, r2, #1
 4244 0144 A95C     		ldrb	r1, [r5, r2]
 4245 0146 0820     		mov	r0, #8
ARM GAS  C:\Users\SDEVAS~1\AppData\Local\Temp\ccPhqTSe.s 			page 91


 4246 0148 0143     		orr	r1, r0
 4247 014a A954     		strb	r1, [r5, r2]
 4248              	.LVL623:
 4249              	.L349:
 580:.\Generated_Source\PSoC4/comm.c **** 						}
 581:.\Generated_Source\PSoC4/comm.c **** 
 582:.\Generated_Source\PSoC4/comm.c **** 						comm_RS485_SendFrame(respBuff, RESP_BUFF_LEN - respFreeSpace, rs485_frame_sent_callback);
 4250              		.loc 1 582 0
 4251 014c 5B68     		ldr	r3, [r3, #4]
 4252 014e 9621     		mov	r1, #150
 4253 0150 4900     		lsl	r1, r1, #1
 4254 0152 C91A     		sub	r1, r1, r3
 4255 0154 5E4A     		ldr	r2, .L382+36
 4256 0156 5F48     		ldr	r0, .L382+40
 4257 0158 FFF7FEFF 		bl	comm_RS485_SendFrame
 4258              	.LVL624:
 4259 015c 07E0     		b	.L339
 4260              	.LVL625:
 4261              	.L343:
 583:.\Generated_Source\PSoC4/comm.c **** 					} else {
 584:.\Generated_Source\PSoC4/comm.c **** 						//handler indicated that comm is over, if we are master, we should release the bus!
 585:.\Generated_Source\PSoC4/comm.c **** 						if(comm.flags.SLAVE == 0) {
 4262              		.loc 1 585 0
 4263 015e 9823     		mov	r3, #152
 4264 0160 5B00     		lsl	r3, r3, #1
 4265 0162 EB5C     		ldrb	r3, [r5, r3]
 4266 0164 5A07     		lsl	r2, r3, #29
 4267 0166 02D4     		bmi	.L339
 586:.\Generated_Source\PSoC4/comm.c **** 							comm_RS485_ReleaseSlave(rs485_slave_released_callback); //we can call this even if we are no
 4268              		.loc 1 586 0
 4269 0168 5B48     		ldr	r0, .L382+44
 4270 016a FFF7FEFF 		bl	comm_RS485_ReleaseSlave
 4271              	.LVL626:
 4272              	.L339:
 4273              	.LBE62:
 4274              	.LBE61:
 587:.\Generated_Source\PSoC4/comm.c **** 						}
 588:.\Generated_Source\PSoC4/comm.c **** 					}
 589:.\Generated_Source\PSoC4/comm.c **** 					//otherwise just wait for other events (another message or bus release?)
 590:.\Generated_Source\PSoC4/comm.c **** 				}
 591:.\Generated_Source\PSoC4/comm.c **** 			}
 592:.\Generated_Source\PSoC4/comm.c **** 		}
 593:.\Generated_Source\PSoC4/comm.c **** 		comm.flags.RECV = 0;
 4275              		.loc 1 593 0
 4276 016e 9823     		mov	r3, #152
 4277 0170 5B00     		lsl	r3, r3, #1
 4278 0172 EA5C     		ldrb	r2, [r5, r3]
 4279 0174 0121     		mov	r1, #1
 4280 0176 8A43     		bic	r2, r1
 4281 0178 EA54     		strb	r2, [r5, r3]
 4282              	.L337:
 594:.\Generated_Source\PSoC4/comm.c **** 	}
 595:.\Generated_Source\PSoC4/comm.c **** 	if(comm.flags.SENT) {
 4283              		.loc 1 595 0
 4284 017a 9826     		mov	r6, #152
 4285 017c 7600     		lsl	r6, r6, #1
 4286 017e AB5D     		ldrb	r3, [r5, r6]
ARM GAS  C:\Users\SDEVAS~1\AppData\Local\Temp\ccPhqTSe.s 			page 92


 4287 0180 9907     		lsl	r1, r3, #30
 4288 0182 23D5     		bpl	.L351
 596:.\Generated_Source\PSoC4/comm.c **** 		//message was sent,
 597:.\Generated_Source\PSoC4/comm.c **** 		if(timeout_counter > 2) {
 4289              		.loc 1 597 0
 4290 0184 4A4C     		ldr	r4, .L382+4
 4291 0186 A26B     		ldr	r2, [r4, #56]
 4292 0188 022A     		cmp	r2, #2
 4293 018a 08DD     		ble	.L352
 598:.\Generated_Source\PSoC4/comm.c **** 			//we are 3x timeouted, stop sending...
 599:.\Generated_Source\PSoC4/comm.c **** 			comm.flags.SENT = 0;
 4294              		.loc 1 599 0
 4295 018c 0222     		mov	r2, #2
 4296 018e 9343     		bic	r3, r2
 4297 0190 AB55     		strb	r3, [r5, r6]
 600:.\Generated_Source\PSoC4/comm.c **** 			//if we are MASTER here, well, release bus
 601:.\Generated_Source\PSoC4/comm.c **** 			if(comm.flags.SLAVE == 0) {
 4298              		.loc 1 601 0
 4299 0192 5907     		lsl	r1, r3, #29
 4300 0194 1AD4     		bmi	.L351
 602:.\Generated_Source\PSoC4/comm.c **** 				comm_RS485_ReleaseSlave(rs485_slave_released_callback);
 4301              		.loc 1 602 0
 4302 0196 5048     		ldr	r0, .L382+44
 4303 0198 FFF7FEFF 		bl	comm_RS485_ReleaseSlave
 4304              	.LVL627:
 4305 019c 16E0     		b	.L351
 4306              	.L352:
 603:.\Generated_Source\PSoC4/comm.c **** 			}
 604:.\Generated_Source\PSoC4/comm.c **** 		} else if(SysTimer_GetTicks() - sendingTicks > 3000) {
 4307              		.loc 1 604 0
 4308 019e FFF7FEFF 		bl	SysTimer_GetTicks
 4309              	.LVL628:
 4310 01a2 2268     		ldr	r2, [r4]
 4311 01a4 4D4B     		ldr	r3, .L382+48
 4312 01a6 801A     		sub	r0, r0, r2
 4313 01a8 9842     		cmp	r0, r3
 4314 01aa 0FD9     		bls	.L351
 605:.\Generated_Source\PSoC4/comm.c **** 			//we've got timeout, resend frame
 606:.\Generated_Source\PSoC4/comm.c **** 			comm.flags.SENT = 0;
 4315              		.loc 1 606 0
 4316 01ac AB5D     		ldrb	r3, [r5, r6]
 4317 01ae 0222     		mov	r2, #2
 4318 01b0 9343     		bic	r3, r2
 4319 01b2 AB55     		strb	r3, [r5, r6]
 607:.\Generated_Source\PSoC4/comm.c **** 			timeout_counter++;
 4320              		.loc 1 607 0
 4321 01b4 A36B     		ldr	r3, [r4, #56]
 608:.\Generated_Source\PSoC4/comm.c **** 			comm_RS485_SendFrame(respBuff, RESP_BUFF_LEN - respFreeSpace, rs485_frame_sent_callback);
 4322              		.loc 1 608 0
 4323 01b6 9621     		mov	r1, #150
 607:.\Generated_Source\PSoC4/comm.c **** 			timeout_counter++;
 4324              		.loc 1 607 0
 4325 01b8 0133     		add	r3, r3, #1
 4326 01ba A363     		str	r3, [r4, #56]
 4327              		.loc 1 608 0
 4328 01bc 3D4B     		ldr	r3, .L382+8
 4329 01be 4900     		lsl	r1, r1, #1
ARM GAS  C:\Users\SDEVAS~1\AppData\Local\Temp\ccPhqTSe.s 			page 93


 4330 01c0 5B68     		ldr	r3, [r3, #4]
 4331 01c2 4448     		ldr	r0, .L382+40
 4332 01c4 C91A     		sub	r1, r1, r3
 4333 01c6 424A     		ldr	r2, .L382+36
 4334 01c8 FFF7FEFF 		bl	comm_RS485_SendFrame
 4335              	.LVL629:
 4336              	.L351:
 609:.\Generated_Source\PSoC4/comm.c **** 		}
 610:.\Generated_Source\PSoC4/comm.c **** 	}
 611:.\Generated_Source\PSoC4/comm.c **** 	switch(comm.state) {
 4337              		.loc 1 611 0
 4338 01cc 9A23     		mov	r3, #154
 4339 01ce 5B00     		lsl	r3, r3, #1
 4340 01d0 EB5C     		ldrb	r3, [r5, r3]
 4341 01d2 022B     		cmp	r3, #2
 4342 01d4 0AD0     		beq	.L355
 4343 01d6 032B     		cmp	r3, #3
 4344 01d8 5FD0     		beq	.L356
 4345 01da 012B     		cmp	r3, #1
 4346 01dc 60D1     		bne	.L354
 4347              	.LBB69:
 612:.\Generated_Source\PSoC4/comm.c **** 	case COMM_STATE_BUS_GRANTED:
 613:.\Generated_Source\PSoC4/comm.c **** 		comm_RS485_SelectSlave(comm.schedAddr, rs485_slave_selected_callback);
 4348              		.loc 1 613 0
 4349 01de 2B1C     		mov	r3, r5
 4350 01e0 FC33     		add	r3, r3, #252
 4351 01e2 586C     		ldr	r0, [r3, #68]
 4352 01e4 3E49     		ldr	r1, .L382+52
 4353 01e6 FFF7FEFF 		bl	comm_RS485_SelectSlave
 4354              	.LVL630:
 614:.\Generated_Source\PSoC4/comm.c **** 		break;
 4355              		.loc 1 614 0
 4356 01ea 59E0     		b	.L354
 4357              	.L355:
 615:.\Generated_Source\PSoC4/comm.c **** 	case COMM_STATE_SLAVE_SELECTED:
 616:.\Generated_Source\PSoC4/comm.c **** 		//reset error & timeout counter
 617:.\Generated_Source\PSoC4/comm.c **** 		error_counter = 0;
 4358              		.loc 1 617 0
 4359 01ec 304B     		ldr	r3, .L382+4
 618:.\Generated_Source\PSoC4/comm.c **** 		timeout_counter = 0;
 619:.\Generated_Source\PSoC4/comm.c **** 		resp_GenDestSrcOrder(msgDestinationHolder, sizeof(msgDestinationHolder) - 1,
 4360              		.loc 1 619 0
 4361 01ee 2E1C     		mov	r6, r5
 4362 01f0 FC36     		add	r6, r6, #252
 617:.\Generated_Source\PSoC4/comm.c **** 		error_counter = 0;
 4363              		.loc 1 617 0
 4364 01f2 0022     		mov	r2, #0
 4365 01f4 5A63     		str	r2, [r3, #52]
 618:.\Generated_Source\PSoC4/comm.c **** 		timeout_counter = 0;
 4366              		.loc 1 618 0
 4367 01f6 9A63     		str	r2, [r3, #56]
 4368              		.loc 1 619 0
 4369 01f8 F36B     		ldr	r3, [r6, #60]
 4370 01fa 2E4C     		ldr	r4, .L382+8
 4371 01fc 0093     		str	r3, [sp]
 4372 01fe 316C     		ldr	r1, [r6, #64]
 4373 0200 201C     		mov	r0, r4
ARM GAS  C:\Users\SDEVAS~1\AppData\Local\Temp\ccPhqTSe.s 			page 94


 4374 0202 0191     		str	r1, [sp, #4]
 4375 0204 1B21     		mov	r1, #27
 4376 0206 1030     		add	r0, r0, #16
 4377 0208 364A     		ldr	r2, .L382+56
 4378 020a 0B1C     		mov	r3, r1
 4379 020c FFF7FEFF 		bl	resp_GenDestSrcOrder
 4380              	.LVL631:
 620:.\Generated_Source\PSoC4/comm.c **** 				MSG_SOURCE_HOLDER, sizeof(MSG_SOURCE_HOLDER) - 1,
 621:.\Generated_Source\PSoC4/comm.c **** 				comm.schedOrder, comm.schedOrderLen);
 622:.\Generated_Source\PSoC4/comm.c **** 
 623:.\Generated_Source\PSoC4/comm.c **** 		comm_flags_t retflag = COMM_FLAG_UNKNOWN;
 624:.\Generated_Source\PSoC4/comm.c **** 
 625:.\Generated_Source\PSoC4/comm.c **** 		if(strncmp(comm.schedOrder, "Set", comm.schedOrderLen) == 0) {
 4381              		.loc 1 625 0
 4382 0210 F76B     		ldr	r7, [r6, #60]
 4383 0212 366C     		ldr	r6, [r6, #64]
 4384 0214 381C     		mov	r0, r7
 4385 0216 2949     		ldr	r1, .L382+16
 4386 0218 321C     		mov	r2, r6
 4387 021a FFF7FEFF 		bl	strncmp
 4388              	.LVL632:
 4389 021e 0028     		cmp	r0, #0
 4390 0220 37D0     		beq	.L358
 626:.\Generated_Source\PSoC4/comm.c **** 			retflag = comm_handle_Set(COMM_FLAG_UNKNOWN, NULL, 0, NULL, 0);
 627:.\Generated_Source\PSoC4/comm.c **** 		} else if(strncmp(comm.schedOrder, "Get", comm.schedOrderLen) == 0) {
 4391              		.loc 1 627 0
 4392 0222 381C     		mov	r0, r7
 4393 0224 2649     		ldr	r1, .L382+20
 4394 0226 321C     		mov	r2, r6
 4395 0228 FFF7FEFF 		bl	strncmp
 4396              	.LVL633:
 4397 022c 0028     		cmp	r0, #0
 4398 022e 30D0     		beq	.L358
 628:.\Generated_Source\PSoC4/comm.c **** 			retflag = comm_handle_Get(COMM_FLAG_UNKNOWN, NULL, 0, NULL, 0);
 629:.\Generated_Source\PSoC4/comm.c **** 		} else if(strncmp(comm.schedOrder, "Info", comm.schedOrderLen) == 0) {
 4399              		.loc 1 629 0
 4400 0230 381C     		mov	r0, r7
 4401 0232 2449     		ldr	r1, .L382+24
 4402 0234 321C     		mov	r2, r6
 4403 0236 FFF7FEFF 		bl	strncmp
 4404              	.LVL634:
 4405 023a 0028     		cmp	r0, #0
 4406 023c 04D1     		bne	.L359
 4407              	.L361:
 4408              	.LVL635:
 4409              	.LBB70:
 4410              	.LBB71:
 4411 023e FFF7FEFF 		bl	comm_handle_Info.part.3
 4412              	.LVL636:
 4413 0242 061E     		sub	r6, r0, #0
 4414              	.LVL637:
 4415              	.LBE71:
 4416              	.LBE70:
 630:.\Generated_Source\PSoC4/comm.c **** 			retflag = comm_handle_Info(COMM_FLAG_UNKNOWN, NULL, 0, NULL, 0);
 631:.\Generated_Source\PSoC4/comm.c **** 		} else if(strncmp(comm.schedOrder, "Status", comm.schedOrderLen) == 0) {
 632:.\Generated_Source\PSoC4/comm.c **** 			retflag = comm_handle_Info(COMM_FLAG_UNKNOWN, NULL, 0, NULL, 0);
 633:.\Generated_Source\PSoC4/comm.c **** 		} else if(strncmp(comm.schedOrder, "Mode", comm.schedOrderLen) == 0) {
ARM GAS  C:\Users\SDEVAS~1\AppData\Local\Temp\ccPhqTSe.s 			page 95


 634:.\Generated_Source\PSoC4/comm.c **** 			retflag = comm_handle_Mode(COMM_FLAG_UNKNOWN, NULL, 0, NULL, 0);
 635:.\Generated_Source\PSoC4/comm.c **** 		}
 636:.\Generated_Source\PSoC4/comm.c **** 		#define X(OrderName) else if(strncmp(comm.schedOrder, #OrderName, comm.schedOrderLen) == 0) { \
 637:.\Generated_Source\PSoC4/comm.c **** 			retflag = comm_handle_##OrderName(COMM_FLAG_UNKNOWN, NULL, 0, NULL, 0); \
 638:.\Generated_Source\PSoC4/comm.c **** 		}
 639:.\Generated_Source\PSoC4/comm.c **** 		ATOM_ORDERS
 640:.\Generated_Source\PSoC4/comm.c **** 		#undef X
 641:.\Generated_Source\PSoC4/comm.c **** 
 642:.\Generated_Source\PSoC4/comm.c **** 		if(retflag != COMM_FLAG_UNKNOWN) {
 4417              		.loc 1 642 0
 4418 0244 08D1     		bne	.L360
 4419 0246 24E0     		b	.L358
 4420              	.LVL638:
 4421              	.L359:
 631:.\Generated_Source\PSoC4/comm.c **** 		} else if(strncmp(comm.schedOrder, "Status", comm.schedOrderLen) == 0) {
 4422              		.loc 1 631 0
 4423 0248 381C     		mov	r0, r7
 4424 024a 1F49     		ldr	r1, .L382+28
 4425 024c 321C     		mov	r2, r6
 4426 024e FFF7FEFF 		bl	strncmp
 4427              	.LVL639:
 4428 0252 0028     		cmp	r0, #0
 4429 0254 1DD1     		bne	.L358
 4430 0256 F2E7     		b	.L361
 4431              	.LVL640:
 4432              	.L360:
 643:.\Generated_Source\PSoC4/comm.c **** 			//handler returned flag that indicates communication, we are adding it to overall payload, and s
 644:.\Generated_Source\PSoC4/comm.c **** 			resp_AddFlags(retflag);
 4433              		.loc 1 644 0
 4434 0258 FFF7FEFF 		bl	resp_AddFlags
 4435              	.LVL641:
 645:.\Generated_Source\PSoC4/comm.c **** 			ADD_CHAR_TO_RESP('}');
 4436              		.loc 1 645 0
 4437 025c 2368     		ldr	r3, [r4]
 4438 025e 5A1C     		add	r2, r3, #1
 4439 0260 2260     		str	r2, [r4]
 4440 0262 7D22     		mov	r2, #125
 4441 0264 1A70     		strb	r2, [r3]
 4442 0266 6368     		ldr	r3, [r4, #4]
 646:.\Generated_Source\PSoC4/comm.c **** 
 647:.\Generated_Source\PSoC4/comm.c **** 			*respEnd = '\0';
 4443              		.loc 1 647 0
 4444 0268 2268     		ldr	r2, [r4]
 645:.\Generated_Source\PSoC4/comm.c **** 			ADD_CHAR_TO_RESP('}');
 4445              		.loc 1 645 0
 4446 026a 013B     		sub	r3, r3, #1
 4447 026c 6360     		str	r3, [r4, #4]
 4448              		.loc 1 647 0
 4449 026e 0023     		mov	r3, #0
 4450 0270 1370     		strb	r3, [r2]
 648:.\Generated_Source\PSoC4/comm.c **** 
 649:.\Generated_Source\PSoC4/comm.c **** 			if(retflag == COMM_FLAG_PUSH) {
 4451              		.loc 1 649 0
 4452 0272 082E     		cmp	r6, #8
 4453 0274 04D1     		bne	.L362
 650:.\Generated_Source\PSoC4/comm.c **** 				//we dont care about ACKs...
 651:.\Generated_Source\PSoC4/comm.c **** 				comm.flags.LAST_MSG = 1;
ARM GAS  C:\Users\SDEVAS~1\AppData\Local\Temp\ccPhqTSe.s 			page 96


 4454              		.loc 1 651 0
 4455 0276 9823     		mov	r3, #152
 4456 0278 5B00     		lsl	r3, r3, #1
 4457 027a EA5C     		ldrb	r2, [r5, r3]
 4458 027c 1643     		orr	r6, r2
 4459              	.LVL642:
 4460 027e EE54     		strb	r6, [r5, r3]
 4461              	.L362:
 652:.\Generated_Source\PSoC4/comm.c **** 			}
 653:.\Generated_Source\PSoC4/comm.c **** 			comm_RS485_SendFrame(respBuff, RESP_BUFF_LEN - respFreeSpace, rs485_frame_sent_callback);
 4462              		.loc 1 653 0
 4463 0280 6368     		ldr	r3, [r4, #4]
 4464 0282 9621     		mov	r1, #150
 4465 0284 4900     		lsl	r1, r1, #1
 4466 0286 C91A     		sub	r1, r1, r3
 4467 0288 114A     		ldr	r2, .L382+36
 4468 028a 1248     		ldr	r0, .L382+40
 4469 028c FFF7FEFF 		bl	comm_RS485_SendFrame
 4470              	.LVL643:
 4471 0290 06E0     		b	.L354
 4472              	.LVL644:
 4473              	.L358:
 654:.\Generated_Source\PSoC4/comm.c **** 		} else {
 655:.\Generated_Source\PSoC4/comm.c **** 			//this is defeneatly error, but release slave
 656:.\Generated_Source\PSoC4/comm.c **** 			comm_RS485_ReleaseSlave(rs485_slave_released_callback);
 4474              		.loc 1 656 0
 4475 0292 1148     		ldr	r0, .L382+44
 4476 0294 FFF7FEFF 		bl	comm_RS485_ReleaseSlave
 4477              	.LVL645:
 4478 0298 02E0     		b	.L354
 4479              	.L356:
 657:.\Generated_Source\PSoC4/comm.c **** 		}
 658:.\Generated_Source\PSoC4/comm.c **** 
 659:.\Generated_Source\PSoC4/comm.c **** 		break;
 660:.\Generated_Source\PSoC4/comm.c **** 	case COMM_STATE_SLAVE_RELEASED:
 661:.\Generated_Source\PSoC4/comm.c **** 		comm_RS485_ReleaseBus(rs485_bus_released_callback);
 4480              		.loc 1 661 0
 4481 029a 1348     		ldr	r0, .L382+60
 4482 029c FFF7FEFF 		bl	comm_RS485_ReleaseBus
 4483              	.LVL646:
 4484              	.L354:
 4485              	.LBE69:
 662:.\Generated_Source\PSoC4/comm.c **** 		break;
 663:.\Generated_Source\PSoC4/comm.c **** 	case COMM_STATE_BUS_RELEASED:
 664:.\Generated_Source\PSoC4/comm.c **** 	default:
 665:.\Generated_Source\PSoC4/comm.c **** 		break;
 666:.\Generated_Source\PSoC4/comm.c **** 	}
 667:.\Generated_Source\PSoC4/comm.c **** 	comm.state = COMM_STATE_IDLE;
 4486              		.loc 1 667 0
 4487 02a0 9A23     		mov	r3, #154
 4488 02a2 0022     		mov	r2, #0
 4489 02a4 5B00     		lsl	r3, r3, #1
 4490 02a6 EA54     		strb	r2, [r5, r3]
 668:.\Generated_Source\PSoC4/comm.c **** }
 4491              		.loc 1 668 0
 4492 02a8 05B0     		add	sp, sp, #20
 4493              		@ sp needed
ARM GAS  C:\Users\SDEVAS~1\AppData\Local\Temp\ccPhqTSe.s 			page 97


 4494 02aa F0BD     		pop	{r4, r5, r6, r7, pc}
 4495              	.L383:
 4496              		.align	2
 4497              	.L382:
 4498 02ac 00000000 		.word	comm
 4499 02b0 00000000 		.word	.LANCHOR1
 4500 02b4 00000000 		.word	.LANCHOR0
 4501 02b8 00000000 		.word	tokens
 4502 02bc 20090000 		.word	.LC262
 4503 02c0 24090000 		.word	.LC264
 4504 02c4 28090000 		.word	.LC266
 4505 02c8 2D090000 		.word	.LC268
 4506 02cc 34090000 		.word	.LC270
 4507 02d0 00000000 		.word	rs485_frame_sent_callback
 4508 02d4 00000000 		.word	respBuff
 4509 02d8 00000000 		.word	rs485_slave_released_callback
 4510 02dc B80B0000 		.word	3000
 4511 02e0 00000000 		.word	rs485_slave_selected_callback
 4512 02e4 39090000 		.word	.LC274
 4513 02e8 00000000 		.word	rs485_bus_released_callback
 4514              		.cfi_endproc
 4515              	.LFE59:
 4516              		.size	comm_Handler, .-comm_Handler
 4517              		.comm	tokens,960,4
 4518              		.global	msgDestinationHolderAtomId
 4519              		.global	msgDestinationHolderAtomType
 4520              		.global	msgDestinationHolder
 4521              		.global	respFreeSpace
 4522              		.global	respEnd
 4523              		.comm	respBuff,300,1
 4524              		.comm	comm,324,4
 4525              		.section	.rodata.str1.1,"aMS",%progbits,1
 4526              	.LC11:
 4527 0000 7B226465 		.ascii	"{\"destination\":\000"
 4527      7374696E 
 4527      6174696F 
 4527      6E223A00 
 4528              	.LC15:
 4529 0010 2C22736F 		.ascii	",\"source\":\000"
 4529      75726365 
 4529      223A00
 4530              	.LC17:
 4531 001b 2C226F72 		.ascii	",\"order\":\"\000"
 4531      64657222 
 4531      3A2200
 4532              	.LC19:
 4533 0026 736C6565 		.ascii	"sleepPeriod\000"
 4533      70506572 
 4533      696F6400 
 4534              	.LC21:
 4535 0032 73687574 		.ascii	"shutdownTime\000"
 4535      646F776E 
 4535      54696D65 
 4535      00
 4536              	.LC23:
 4537 003f 74657374 		.ascii	"test\000"
 4537      00
ARM GAS  C:\Users\SDEVAS~1\AppData\Local\Temp\ccPhqTSe.s 			page 98


 4538              	.LC25:
 4539 0044 696E6E65 		.ascii	"innerPressure\000"
 4539      72507265 
 4539      73737572 
 4539      6500
 4540              	.LC27:
 4541 0052 6F757465 		.ascii	"outerPressure\000"
 4541      72507265 
 4541      73737572 
 4541      6500
 4542              	.LC29:
 4543 0060 63757272 		.ascii	"currentFlow\000"
 4543      656E7446 
 4543      6C6F7700 
 4544              	.LC31:
 4545 006c 746F7461 		.ascii	"totalVolume\000"
 4545      6C566F6C 
 4545      756D6500 
 4546              	.LC33:
 4547 0078 76616C76 		.ascii	"valveStatus\000"
 4547      65537461 
 4547      74757300 
 4548              	.LC35:
 4549 0084 6C617374 		.ascii	"lastStartNumber\000"
 4549      53746172 
 4549      744E756D 
 4549      62657200 
 4550              	.LC37:
 4551 0094 6C617374 		.ascii	"lastStartVolume\000"
 4551      53746172 
 4551      74566F6C 
 4551      756D6500 
 4552              	.LC39:
 4553 00a4 6C617374 		.ascii	"lastStartFlow\000"
 4553      53746172 
 4553      74466C6F 
 4553      7700
 4554              	.LC41:
 4555 00b2 73746172 		.ascii	"startTime\000"
 4555      7454696D 
 4555      6500
 4556              	.LC43:
 4557 00bc 73746F70 		.ascii	"stopTime\000"
 4557      54696D65 
 4557      00
 4558              	.LC45:
 4559 00c5 6E756D53 		.ascii	"numStarts\000"
 4559      74617274 
 4559      7300
 4560              	.LC47:
 4561 00cf 766F6C50 		.ascii	"volPerStart\000"
 4561      65725374 
 4561      61727400 
 4562              	.LC49:
 4563 00db 6D617856 		.ascii	"maxVol\000"
 4563      6F6C00
 4564              	.LC51:
ARM GAS  C:\Users\SDEVAS~1\AppData\Local\Temp\ccPhqTSe.s 			page 99


 4565 00e2 6D696E56 		.ascii	"minVol\000"
 4565      6F6C00
 4566              	.LC53:
 4567 00e9 66657274 		.ascii	"fertigationTable0\000"
 4567      69676174 
 4567      696F6E54 
 4567      61626C65 
 4567      3000
 4568              	.LC55:
 4569 00fb 66657274 		.ascii	"fertigationTable1\000"
 4569      69676174 
 4569      696F6E54 
 4569      61626C65 
 4569      3100
 4570              	.LC57:
 4571 010d 66657274 		.ascii	"fertigationTable2\000"
 4571      69676174 
 4571      696F6E54 
 4571      61626C65 
 4571      3200
 4572              	.LC59:
 4573 011f 66657274 		.ascii	"fertigationTable3\000"
 4573      69676174 
 4573      696F6E54 
 4573      61626C65 
 4573      3300
 4574              	.LC61:
 4575 0131 66657274 		.ascii	"fertigationTable4\000"
 4575      69676174 
 4575      696F6E54 
 4575      61626C65 
 4575      3400
 4576              	.LC63:
 4577 0143 66657274 		.ascii	"fertigationTable5\000"
 4577      69676174 
 4577      696F6E54 
 4577      61626C65 
 4577      3500
 4578              	.LC65:
 4579 0155 66657274 		.ascii	"fertigationTable6\000"
 4579      69676174 
 4579      696F6E54 
 4579      61626C65 
 4579      3600
 4580              	.LC67:
 4581 0167 66657274 		.ascii	"fertigationTable7\000"
 4581      69676174 
 4581      696F6E54 
 4581      61626C65 
 4581      3700
 4582              	.LC69:
 4583 0179 66657274 		.ascii	"fertigationTable8\000"
 4583      69676174 
 4583      696F6E54 
 4583      61626C65 
 4583      3800
 4584              	.LC71:
ARM GAS  C:\Users\SDEVAS~1\AppData\Local\Temp\ccPhqTSe.s 			page 100


 4585 018b 66657274 		.ascii	"fertigationTable9\000"
 4585      69676174 
 4585      696F6E54 
 4585      61626C65 
 4585      3900
 4586              	.LC73:
 4587 019d 6E6F7442 		.ascii	"notBefore\000"
 4587      65666F72 
 4587      6500
 4588              	.LC75:
 4589 01a7 6E6F7441 		.ascii	"notAfter\000"
 4589      66746572 
 4589      00
 4590              	.LC77:
 4591 01b0 64696C75 		.ascii	"dilutionFactorA\000"
 4591      74696F6E 
 4591      46616374 
 4591      6F724100 
 4592              	.LC79:
 4593 01c0 64696C75 		.ascii	"dilutionFactorB\000"
 4593      74696F6E 
 4593      46616374 
 4593      6F724200 
 4594              	.LC81:
 4595 01d0 76656E74 		.ascii	"venturiSuctionA\000"
 4595      75726953 
 4595      75637469 
 4595      6F6E4100 
 4596              	.LC83:
 4597 01e0 76656E74 		.ascii	"venturiSuctionB\000"
 4597      75726953 
 4597      75637469 
 4597      6F6E4200 
 4598              	.LC85:
 4599 01f0 73717561 		.ascii	"squareMeters\000"
 4599      72654D65 
 4599      74657273 
 4599      00
 4600              	.LC87:
 4601 01fd 6C506572 		.ascii	"lPerSqMeterPerDay\000"
 4601      53714D65 
 4601      74657250 
 4601      65724461 
 4601      7900
 4602              	.LC89:
 4603 020f 63726F70 		.ascii	"cropType\000"
 4603      54797065 
 4603      00
 4604              	.LC91:
 4605 0218 53746172 		.ascii	"Start\000"
 4605      7400
 4606              	.LC93:
 4607 021e 54657374 		.ascii	"Test\000"
 4607      00
 4608              	.LC95:
 4609 0223 49646C65 		.ascii	"Idle\000"
 4609      00
ARM GAS  C:\Users\SDEVAS~1\AppData\Local\Temp\ccPhqTSe.s 			page 101


 4610              	.LC97:
 4611 0228 53687574 		.ascii	"Shutdown\000"
 4611      646F776E 
 4611      00
 4612              	.LC102:
 4613 0231 6E00     		.ascii	"n\000"
 4614              	.LC105:
 4615 0233 2C227061 		.ascii	",\"payload\":{\"n\":\"sleepPeriod\",\"t\":\"i\",\"v"
 4615      796C6F61 
 4615      64223A7B 
 4615      226E223A 
 4615      22736C65 
 4616 025b 223A00   		.ascii	"\":\000"
 4617              	.LC107:
 4618 025e 2C227061 		.ascii	",\"payload\":{\"n\":\"shutdownTime\",\"t\":\"i\",\""
 4618      796C6F61 
 4618      64223A7B 
 4618      226E223A 
 4618      22736875 
 4619 0286 76223A00 		.ascii	"v\":\000"
 4620              	.LC109:
 4621 028a 2C227061 		.ascii	",\"payload\":{\"n\":\"test\",\"t\":\"s\",\"v\":\000"
 4621      796C6F61 
 4621      64223A7B 
 4621      226E223A 
 4621      22746573 
 4622              	.LC111:
 4623 02ae 2C227061 		.ascii	",\"payload\":{\"n\":\"innerPressure\",\"t\":\"i\",\""
 4623      796C6F61 
 4623      64223A7B 
 4623      226E223A 
 4623      22696E6E 
 4624 02d7 76223A00 		.ascii	"v\":\000"
 4625              	.LC113:
 4626 02db 2C227061 		.ascii	",\"payload\":{\"n\":\"outerPressure\",\"t\":\"i\",\""
 4626      796C6F61 
 4626      64223A7B 
 4626      226E223A 
 4626      226F7574 
 4627 0304 76223A00 		.ascii	"v\":\000"
 4628              	.LC115:
 4629 0308 2C227061 		.ascii	",\"payload\":{\"n\":\"currentFlow\",\"t\":\"i\",\"v"
 4629      796C6F61 
 4629      64223A7B 
 4629      226E223A 
 4629      22637572 
 4630 0330 223A00   		.ascii	"\":\000"
 4631              	.LC117:
 4632 0333 2C227061 		.ascii	",\"payload\":{\"n\":\"totalVolume\",\"t\":\"i\",\"v"
 4632      796C6F61 
 4632      64223A7B 
 4632      226E223A 
 4632      22746F74 
 4633 035b 223A00   		.ascii	"\":\000"
 4634              	.LC119:
 4635 035e 2C227061 		.ascii	",\"payload\":{\"n\":\"valveStatus\",\"t\":\"i\",\"v"
 4635      796C6F61 
ARM GAS  C:\Users\SDEVAS~1\AppData\Local\Temp\ccPhqTSe.s 			page 102


 4635      64223A7B 
 4635      226E223A 
 4635      2276616C 
 4636 0386 223A00   		.ascii	"\":\000"
 4637              	.LC121:
 4638 0389 2C227061 		.ascii	",\"payload\":{\"n\":\"lastStartNumber\",\"t\":\"i\""
 4638      796C6F61 
 4638      64223A7B 
 4638      226E223A 
 4638      226C6173 
 4639 03b2 2C227622 		.ascii	",\"v\":\000"
 4639      3A00
 4640              	.LC123:
 4641 03b8 2C227061 		.ascii	",\"payload\":{\"n\":\"lastStartVolume\",\"t\":\"i\""
 4641      796C6F61 
 4641      64223A7B 
 4641      226E223A 
 4641      226C6173 
 4642 03e1 2C227622 		.ascii	",\"v\":\000"
 4642      3A00
 4643              	.LC125:
 4644 03e7 2C227061 		.ascii	",\"payload\":{\"n\":\"lastStartFlow\",\"t\":\"i\",\""
 4644      796C6F61 
 4644      64223A7B 
 4644      226E223A 
 4644      226C6173 
 4645 0410 76223A00 		.ascii	"v\":\000"
 4646              	.LC127:
 4647 0414 2C227061 		.ascii	",\"payload\":{\"n\":\"startTime\",\"t\":\"i\",\"v\""
 4647      796C6F61 
 4647      64223A7B 
