ARM GAS  C:\Users\SDEVAS~1\AppData\Local\Temp\ccpHkBpJ.s 			page 1


   1              		.cpu cortex-m0
   2              		.fpu softvfp
   3              		.eabi_attribute 20, 1
   4              		.eabi_attribute 21, 1
   5              		.eabi_attribute 23, 3
   6              		.eabi_attribute 24, 1
   7              		.eabi_attribute 25, 1
   8              		.eabi_attribute 26, 1
   9              		.eabi_attribute 30, 4
  10              		.eabi_attribute 34, 0
  11              		.eabi_attribute 18, 4
  12              		.code	16
  13              		.file	"comm_RS485_Timeout_PM.c"
  14              		.text
  15              	.Ltext0:
  16              		.cfi_sections	.debug_frame
  17              		.section	.text.comm_RS485_Timeout_SaveConfig,"ax",%progbits
  18              		.align	1
  19              		.global	comm_RS485_Timeout_SaveConfig
  20              		.code	16
  21              		.thumb_func
  22              		.type	comm_RS485_Timeout_SaveConfig, %function
  23              	comm_RS485_Timeout_SaveConfig:
  24              	.LFB0:
  25              		.file 1 ".\\Generated_Source\\PSoC4\\comm_RS485_Timeout_PM.c"
   1:.\Generated_Source\PSoC4/comm_RS485_Timeout_PM.c **** /*******************************************************************************
   2:.\Generated_Source\PSoC4/comm_RS485_Timeout_PM.c **** * File Name: comm_RS485_Timeout_PM.c
   3:.\Generated_Source\PSoC4/comm_RS485_Timeout_PM.c **** * Version 1.0
   4:.\Generated_Source\PSoC4/comm_RS485_Timeout_PM.c **** *
   5:.\Generated_Source\PSoC4/comm_RS485_Timeout_PM.c **** * Description:
   6:.\Generated_Source\PSoC4/comm_RS485_Timeout_PM.c **** *  This file provides Low power mode APIs for Count7 component.
   7:.\Generated_Source\PSoC4/comm_RS485_Timeout_PM.c **** *
   8:.\Generated_Source\PSoC4/comm_RS485_Timeout_PM.c **** * Note:
   9:.\Generated_Source\PSoC4/comm_RS485_Timeout_PM.c **** *  None
  10:.\Generated_Source\PSoC4/comm_RS485_Timeout_PM.c **** *
  11:.\Generated_Source\PSoC4/comm_RS485_Timeout_PM.c **** ********************************************************************************
  12:.\Generated_Source\PSoC4/comm_RS485_Timeout_PM.c **** * Copyright 2013, Cypress Semiconductor Corporation.  All rights reserved.
  13:.\Generated_Source\PSoC4/comm_RS485_Timeout_PM.c **** * You may use this file only in accordance with the license, terms, conditions,
  14:.\Generated_Source\PSoC4/comm_RS485_Timeout_PM.c **** * disclaimers, and limitations in the end user license agreement accompanying
  15:.\Generated_Source\PSoC4/comm_RS485_Timeout_PM.c **** * the software package with which this file was provided.
  16:.\Generated_Source\PSoC4/comm_RS485_Timeout_PM.c **** *******************************************************************************/
  17:.\Generated_Source\PSoC4/comm_RS485_Timeout_PM.c **** 
  18:.\Generated_Source\PSoC4/comm_RS485_Timeout_PM.c **** #include "comm_RS485_Timeout.h"
  19:.\Generated_Source\PSoC4/comm_RS485_Timeout_PM.c **** 
  20:.\Generated_Source\PSoC4/comm_RS485_Timeout_PM.c **** 
  21:.\Generated_Source\PSoC4/comm_RS485_Timeout_PM.c **** comm_RS485_Timeout_BACKUP_STRUCT comm_RS485_Timeout_backup;
  22:.\Generated_Source\PSoC4/comm_RS485_Timeout_PM.c **** 
  23:.\Generated_Source\PSoC4/comm_RS485_Timeout_PM.c **** 
  24:.\Generated_Source\PSoC4/comm_RS485_Timeout_PM.c **** /*******************************************************************************
  25:.\Generated_Source\PSoC4/comm_RS485_Timeout_PM.c **** * Function Name: comm_RS485_Timeout_SaveConfig
  26:.\Generated_Source\PSoC4/comm_RS485_Timeout_PM.c **** ********************************************************************************
  27:.\Generated_Source\PSoC4/comm_RS485_Timeout_PM.c **** *
  28:.\Generated_Source\PSoC4/comm_RS485_Timeout_PM.c **** * Summary:
  29:.\Generated_Source\PSoC4/comm_RS485_Timeout_PM.c **** *  This function saves the component configuration and non-retention registers.
  30:.\Generated_Source\PSoC4/comm_RS485_Timeout_PM.c **** *  This function is called by the Count7_Sleep() function.
  31:.\Generated_Source\PSoC4/comm_RS485_Timeout_PM.c **** *
  32:.\Generated_Source\PSoC4/comm_RS485_Timeout_PM.c **** * Parameters:
ARM GAS  C:\Users\SDEVAS~1\AppData\Local\Temp\ccpHkBpJ.s 			page 2


  33:.\Generated_Source\PSoC4/comm_RS485_Timeout_PM.c **** *  None
  34:.\Generated_Source\PSoC4/comm_RS485_Timeout_PM.c **** *
  35:.\Generated_Source\PSoC4/comm_RS485_Timeout_PM.c **** * Return:
  36:.\Generated_Source\PSoC4/comm_RS485_Timeout_PM.c **** *  None
  37:.\Generated_Source\PSoC4/comm_RS485_Timeout_PM.c **** *
  38:.\Generated_Source\PSoC4/comm_RS485_Timeout_PM.c **** * Global Variables:
  39:.\Generated_Source\PSoC4/comm_RS485_Timeout_PM.c **** *  comm_RS485_Timeout_backup - used to save component configuration and non-
  40:.\Generated_Source\PSoC4/comm_RS485_Timeout_PM.c **** *  retention registers before enter sleep mode.
  41:.\Generated_Source\PSoC4/comm_RS485_Timeout_PM.c **** *
  42:.\Generated_Source\PSoC4/comm_RS485_Timeout_PM.c **** *******************************************************************************/
  43:.\Generated_Source\PSoC4/comm_RS485_Timeout_PM.c **** void comm_RS485_Timeout_SaveConfig(void) 
  44:.\Generated_Source\PSoC4/comm_RS485_Timeout_PM.c **** {
  26              		.loc 1 44 0
  27              		.cfi_startproc
  45:.\Generated_Source\PSoC4/comm_RS485_Timeout_PM.c ****     comm_RS485_Timeout_backup.count = comm_RS485_Timeout_COUNT_REG;
  28              		.loc 1 45 0
  29 0000 024B     		ldr	r3, .L2
  46:.\Generated_Source\PSoC4/comm_RS485_Timeout_PM.c **** }
  30              		.loc 1 46 0
  31              		@ sp needed
  45:.\Generated_Source\PSoC4/comm_RS485_Timeout_PM.c ****     comm_RS485_Timeout_backup.count = comm_RS485_Timeout_COUNT_REG;
  32              		.loc 1 45 0
  33 0002 1A78     		ldrb	r2, [r3]
  34 0004 024B     		ldr	r3, .L2+4
  35 0006 5A70     		strb	r2, [r3, #1]
  36              		.loc 1 46 0
  37 0008 7047     		bx	lr
  38              	.L3:
  39 000a C046     		.align	2
  40              	.L2:
  41 000c 73000F40 		.word	1074724979
  42 0010 00000000 		.word	comm_RS485_Timeout_backup
  43              		.cfi_endproc
  44              	.LFE0:
  45              		.size	comm_RS485_Timeout_SaveConfig, .-comm_RS485_Timeout_SaveConfig
  46              		.section	.text.comm_RS485_Timeout_Sleep,"ax",%progbits
  47              		.align	1
  48              		.global	comm_RS485_Timeout_Sleep
  49              		.code	16
  50              		.thumb_func
  51              		.type	comm_RS485_Timeout_Sleep, %function
  52              	comm_RS485_Timeout_Sleep:
  53              	.LFB1:
  47:.\Generated_Source\PSoC4/comm_RS485_Timeout_PM.c **** 
  48:.\Generated_Source\PSoC4/comm_RS485_Timeout_PM.c **** 
  49:.\Generated_Source\PSoC4/comm_RS485_Timeout_PM.c **** /*******************************************************************************
  50:.\Generated_Source\PSoC4/comm_RS485_Timeout_PM.c **** * Function Name: comm_RS485_Timeout_Sleep
  51:.\Generated_Source\PSoC4/comm_RS485_Timeout_PM.c **** ********************************************************************************
  52:.\Generated_Source\PSoC4/comm_RS485_Timeout_PM.c **** *
  53:.\Generated_Source\PSoC4/comm_RS485_Timeout_PM.c **** * Summary:
  54:.\Generated_Source\PSoC4/comm_RS485_Timeout_PM.c **** *  This is the preferred API to prepare the component for low power mode
  55:.\Generated_Source\PSoC4/comm_RS485_Timeout_PM.c **** *  operation. The Count7_Sleep() API saves the current component state using
  56:.\Generated_Source\PSoC4/comm_RS485_Timeout_PM.c **** *  Count7_SaveConfig() and disables the counter.
  57:.\Generated_Source\PSoC4/comm_RS485_Timeout_PM.c **** *
  58:.\Generated_Source\PSoC4/comm_RS485_Timeout_PM.c **** * Parameters:
  59:.\Generated_Source\PSoC4/comm_RS485_Timeout_PM.c **** *  None
  60:.\Generated_Source\PSoC4/comm_RS485_Timeout_PM.c **** *
ARM GAS  C:\Users\SDEVAS~1\AppData\Local\Temp\ccpHkBpJ.s 			page 3


  61:.\Generated_Source\PSoC4/comm_RS485_Timeout_PM.c **** * Return:
  62:.\Generated_Source\PSoC4/comm_RS485_Timeout_PM.c **** *  None
  63:.\Generated_Source\PSoC4/comm_RS485_Timeout_PM.c **** *
  64:.\Generated_Source\PSoC4/comm_RS485_Timeout_PM.c **** *******************************************************************************/
  65:.\Generated_Source\PSoC4/comm_RS485_Timeout_PM.c **** void comm_RS485_Timeout_Sleep(void) 
  66:.\Generated_Source\PSoC4/comm_RS485_Timeout_PM.c **** {
  54              		.loc 1 66 0
  55              		.cfi_startproc
  56 0000 08B5     		push	{r3, lr}
  57              		.cfi_def_cfa_offset 8
  58              		.cfi_offset 3, -8
  59              		.cfi_offset 14, -4
  67:.\Generated_Source\PSoC4/comm_RS485_Timeout_PM.c ****     if(0u != (comm_RS485_Timeout_AUX_CONTROL_REG & comm_RS485_Timeout_COUNTER_START))
  60              		.loc 1 67 0
  61 0002 074B     		ldr	r3, .L8
  62 0004 1A78     		ldrb	r2, [r3]
  63 0006 2023     		mov	r3, #32
  64 0008 1A40     		and	r2, r3
  65 000a 064B     		ldr	r3, .L8+4
  66 000c 04D0     		beq	.L5
  68:.\Generated_Source\PSoC4/comm_RS485_Timeout_PM.c ****     {
  69:.\Generated_Source\PSoC4/comm_RS485_Timeout_PM.c ****         comm_RS485_Timeout_backup.enableState = 1u;
  67              		.loc 1 69 0
  68 000e 0122     		mov	r2, #1
  69 0010 1A70     		strb	r2, [r3]
  70:.\Generated_Source\PSoC4/comm_RS485_Timeout_PM.c ****         comm_RS485_Timeout_Stop();
  70              		.loc 1 70 0
  71 0012 FFF7FEFF 		bl	comm_RS485_Timeout_Stop
  72              	.LVL0:
  73 0016 00E0     		b	.L6
  74              	.L5:
  71:.\Generated_Source\PSoC4/comm_RS485_Timeout_PM.c ****     }
  72:.\Generated_Source\PSoC4/comm_RS485_Timeout_PM.c ****     else
  73:.\Generated_Source\PSoC4/comm_RS485_Timeout_PM.c ****     {
  74:.\Generated_Source\PSoC4/comm_RS485_Timeout_PM.c ****         comm_RS485_Timeout_backup.enableState = 0u;
  75              		.loc 1 74 0
  76 0018 1A70     		strb	r2, [r3]
  77              	.L6:
  75:.\Generated_Source\PSoC4/comm_RS485_Timeout_PM.c ****     }
  76:.\Generated_Source\PSoC4/comm_RS485_Timeout_PM.c **** 
  77:.\Generated_Source\PSoC4/comm_RS485_Timeout_PM.c ****     comm_RS485_Timeout_SaveConfig();
  78              		.loc 1 77 0
  79 001a FFF7FEFF 		bl	comm_RS485_Timeout_SaveConfig
  80              	.LVL1:
  78:.\Generated_Source\PSoC4/comm_RS485_Timeout_PM.c **** }
  81              		.loc 1 78 0
  82              		@ sp needed
  83 001e 08BD     		pop	{r3, pc}
  84              	.L9:
  85              		.align	2
  86              	.L8:
  87 0020 93000F40 		.word	1074725011
  88 0024 00000000 		.word	comm_RS485_Timeout_backup
  89              		.cfi_endproc
  90              	.LFE1:
  91              		.size	comm_RS485_Timeout_Sleep, .-comm_RS485_Timeout_Sleep
  92              		.section	.text.comm_RS485_Timeout_RestoreConfig,"ax",%progbits
ARM GAS  C:\Users\SDEVAS~1\AppData\Local\Temp\ccpHkBpJ.s 			page 4


  93              		.align	1
  94              		.global	comm_RS485_Timeout_RestoreConfig
  95              		.code	16
  96              		.thumb_func
  97              		.type	comm_RS485_Timeout_RestoreConfig, %function
  98              	comm_RS485_Timeout_RestoreConfig:
  99              	.LFB2:
  79:.\Generated_Source\PSoC4/comm_RS485_Timeout_PM.c **** 
  80:.\Generated_Source\PSoC4/comm_RS485_Timeout_PM.c **** 
  81:.\Generated_Source\PSoC4/comm_RS485_Timeout_PM.c **** /*******************************************************************************
  82:.\Generated_Source\PSoC4/comm_RS485_Timeout_PM.c **** * Function Name: comm_RS485_Timeout_RestoreConfig
  83:.\Generated_Source\PSoC4/comm_RS485_Timeout_PM.c **** ********************************************************************************
  84:.\Generated_Source\PSoC4/comm_RS485_Timeout_PM.c **** *
  85:.\Generated_Source\PSoC4/comm_RS485_Timeout_PM.c **** * Summary:
  86:.\Generated_Source\PSoC4/comm_RS485_Timeout_PM.c **** *  This function restores the component configuration and non-retention
  87:.\Generated_Source\PSoC4/comm_RS485_Timeout_PM.c **** *  registers. This function is called by the Count7_Wakeup() function.
  88:.\Generated_Source\PSoC4/comm_RS485_Timeout_PM.c **** *
  89:.\Generated_Source\PSoC4/comm_RS485_Timeout_PM.c **** * Parameters:
  90:.\Generated_Source\PSoC4/comm_RS485_Timeout_PM.c **** *  None
  91:.\Generated_Source\PSoC4/comm_RS485_Timeout_PM.c **** *
  92:.\Generated_Source\PSoC4/comm_RS485_Timeout_PM.c **** * Return:
  93:.\Generated_Source\PSoC4/comm_RS485_Timeout_PM.c **** *  None
  94:.\Generated_Source\PSoC4/comm_RS485_Timeout_PM.c **** *
  95:.\Generated_Source\PSoC4/comm_RS485_Timeout_PM.c **** * Global Variables:
  96:.\Generated_Source\PSoC4/comm_RS485_Timeout_PM.c **** *  comm_RS485_Timeout_backup - used to save component configuration and
  97:.\Generated_Source\PSoC4/comm_RS485_Timeout_PM.c **** *  non-retention registers before exit sleep mode.
  98:.\Generated_Source\PSoC4/comm_RS485_Timeout_PM.c **** *
  99:.\Generated_Source\PSoC4/comm_RS485_Timeout_PM.c **** *******************************************************************************/
 100:.\Generated_Source\PSoC4/comm_RS485_Timeout_PM.c **** void comm_RS485_Timeout_RestoreConfig(void) 
 101:.\Generated_Source\PSoC4/comm_RS485_Timeout_PM.c **** {
 100              		.loc 1 101 0
 101              		.cfi_startproc
 102:.\Generated_Source\PSoC4/comm_RS485_Timeout_PM.c ****     comm_RS485_Timeout_COUNT_REG = comm_RS485_Timeout_backup.count;
 102              		.loc 1 102 0
 103 0000 024B     		ldr	r3, .L11
 103:.\Generated_Source\PSoC4/comm_RS485_Timeout_PM.c **** }
 104              		.loc 1 103 0
 105              		@ sp needed
 102:.\Generated_Source\PSoC4/comm_RS485_Timeout_PM.c ****     comm_RS485_Timeout_COUNT_REG = comm_RS485_Timeout_backup.count;
 106              		.loc 1 102 0
 107 0002 5A78     		ldrb	r2, [r3, #1]
 108 0004 024B     		ldr	r3, .L11+4
 109 0006 1A70     		strb	r2, [r3]
 110              		.loc 1 103 0
 111 0008 7047     		bx	lr
 112              	.L12:
 113 000a C046     		.align	2
 114              	.L11:
 115 000c 00000000 		.word	comm_RS485_Timeout_backup
 116 0010 73000F40 		.word	1074724979
 117              		.cfi_endproc
 118              	.LFE2:
 119              		.size	comm_RS485_Timeout_RestoreConfig, .-comm_RS485_Timeout_RestoreConfig
 120              		.section	.text.comm_RS485_Timeout_Wakeup,"ax",%progbits
 121              		.align	1
 122              		.global	comm_RS485_Timeout_Wakeup
 123              		.code	16
ARM GAS  C:\Users\SDEVAS~1\AppData\Local\Temp\ccpHkBpJ.s 			page 5


 124              		.thumb_func
 125              		.type	comm_RS485_Timeout_Wakeup, %function
 126              	comm_RS485_Timeout_Wakeup:
 127              	.LFB3:
 104:.\Generated_Source\PSoC4/comm_RS485_Timeout_PM.c **** 
 105:.\Generated_Source\PSoC4/comm_RS485_Timeout_PM.c **** 
 106:.\Generated_Source\PSoC4/comm_RS485_Timeout_PM.c **** /*******************************************************************************
 107:.\Generated_Source\PSoC4/comm_RS485_Timeout_PM.c **** * Function Name: comm_RS485_Timeout_Wakeup
 108:.\Generated_Source\PSoC4/comm_RS485_Timeout_PM.c **** ********************************************************************************
 109:.\Generated_Source\PSoC4/comm_RS485_Timeout_PM.c **** *
 110:.\Generated_Source\PSoC4/comm_RS485_Timeout_PM.c **** * Summary:
 111:.\Generated_Source\PSoC4/comm_RS485_Timeout_PM.c **** *  This is the preferred API to restore the component to the state when
 112:.\Generated_Source\PSoC4/comm_RS485_Timeout_PM.c **** *  Count7_Sleep() was called. The Count7_Wakeup() function calls the
 113:.\Generated_Source\PSoC4/comm_RS485_Timeout_PM.c **** *  Count7_RestoreConfig() function to restore the configuration.
 114:.\Generated_Source\PSoC4/comm_RS485_Timeout_PM.c **** *
 115:.\Generated_Source\PSoC4/comm_RS485_Timeout_PM.c **** * Parameters:
 116:.\Generated_Source\PSoC4/comm_RS485_Timeout_PM.c **** *  None
 117:.\Generated_Source\PSoC4/comm_RS485_Timeout_PM.c **** *
 118:.\Generated_Source\PSoC4/comm_RS485_Timeout_PM.c **** * Return:
 119:.\Generated_Source\PSoC4/comm_RS485_Timeout_PM.c **** *  None
 120:.\Generated_Source\PSoC4/comm_RS485_Timeout_PM.c **** *
 121:.\Generated_Source\PSoC4/comm_RS485_Timeout_PM.c **** *******************************************************************************/
 122:.\Generated_Source\PSoC4/comm_RS485_Timeout_PM.c **** void comm_RS485_Timeout_Wakeup(void) 
 123:.\Generated_Source\PSoC4/comm_RS485_Timeout_PM.c **** {
 128              		.loc 1 123 0
 129              		.cfi_startproc
 130 0000 08B5     		push	{r3, lr}
 131              		.cfi_def_cfa_offset 8
 132              		.cfi_offset 3, -8
 133              		.cfi_offset 14, -4
 124:.\Generated_Source\PSoC4/comm_RS485_Timeout_PM.c ****     comm_RS485_Timeout_RestoreConfig();
 134              		.loc 1 124 0
 135 0002 FFF7FEFF 		bl	comm_RS485_Timeout_RestoreConfig
 136              	.LVL2:
 125:.\Generated_Source\PSoC4/comm_RS485_Timeout_PM.c **** 
 126:.\Generated_Source\PSoC4/comm_RS485_Timeout_PM.c ****     /* Restore enable state */
 127:.\Generated_Source\PSoC4/comm_RS485_Timeout_PM.c ****     if (comm_RS485_Timeout_backup.enableState != 0u)
 137              		.loc 1 127 0
 138 0006 034B     		ldr	r3, .L18
 139 0008 1B78     		ldrb	r3, [r3]
 140 000a 002B     		cmp	r3, #0
 141 000c 01D0     		beq	.L13
 128:.\Generated_Source\PSoC4/comm_RS485_Timeout_PM.c ****     {
 129:.\Generated_Source\PSoC4/comm_RS485_Timeout_PM.c ****         comm_RS485_Timeout_Enable();
 142              		.loc 1 129 0
 143 000e FFF7FEFF 		bl	comm_RS485_Timeout_Enable
 144              	.LVL3:
 145              	.L13:
 130:.\Generated_Source\PSoC4/comm_RS485_Timeout_PM.c ****     }
 131:.\Generated_Source\PSoC4/comm_RS485_Timeout_PM.c **** }
 146              		.loc 1 131 0
 147              		@ sp needed
 148 0012 08BD     		pop	{r3, pc}
 149              	.L19:
 150              		.align	2
 151              	.L18:
 152 0014 00000000 		.word	comm_RS485_Timeout_backup
ARM GAS  C:\Users\SDEVAS~1\AppData\Local\Temp\ccpHkBpJ.s 			page 6


 153              		.cfi_endproc
 154              	.LFE3:
 155              		.size	comm_RS485_Timeout_Wakeup, .-comm_RS485_Timeout_Wakeup
 156              		.comm	comm_RS485_Timeout_backup,2,1
 157              		.text
 158              	.Letext0:
 159              		.file 2 ".\\Generated_Source\\PSoC4\\cytypes.h"
 160              		.file 3 ".\\Generated_Source\\PSoC4\\comm_RS485_Timeout.h"