ARM GAS  C:\Users\SDEVAS~1\AppData\Local\Temp\ccWvuFiL.s 			page 1


   1              		.cpu cortex-m0
   2              		.fpu softvfp
   3              		.eabi_attribute 20, 1
   4              		.eabi_attribute 21, 1
   5              		.eabi_attribute 23, 3
   6              		.eabi_attribute 24, 1
   7              		.eabi_attribute 25, 1
   8              		.eabi_attribute 26, 1
   9              		.eabi_attribute 30, 4
  10              		.eabi_attribute 34, 0
  11              		.eabi_attribute 18, 4
  12              		.code	16
  13              		.file	"Counter_PM.c"
  14              		.text
  15              	.Ltext0:
  16              		.cfi_sections	.debug_frame
  17              		.section	.text.Counter_SaveConfig,"ax",%progbits
  18              		.align	1
  19              		.global	Counter_SaveConfig
  20              		.code	16
  21              		.thumb_func
  22              		.type	Counter_SaveConfig, %function
  23              	Counter_SaveConfig:
  24              	.LFB0:
  25              		.file 1 ".\\Generated_Source\\PSoC4\\Counter_PM.c"
   1:.\Generated_Source\PSoC4/Counter_PM.c **** /*******************************************************************************
   2:.\Generated_Source\PSoC4/Counter_PM.c **** * File Name: Counter_PM.c  
   3:.\Generated_Source\PSoC4/Counter_PM.c **** * Version 3.0
   4:.\Generated_Source\PSoC4/Counter_PM.c **** *
   5:.\Generated_Source\PSoC4/Counter_PM.c **** *  Description:
   6:.\Generated_Source\PSoC4/Counter_PM.c **** *    This file provides the power management source code to API for the
   7:.\Generated_Source\PSoC4/Counter_PM.c **** *    Counter.  
   8:.\Generated_Source\PSoC4/Counter_PM.c **** *
   9:.\Generated_Source\PSoC4/Counter_PM.c **** *   Note:
  10:.\Generated_Source\PSoC4/Counter_PM.c **** *     None
  11:.\Generated_Source\PSoC4/Counter_PM.c **** *
  12:.\Generated_Source\PSoC4/Counter_PM.c **** ********************************************************************************
  13:.\Generated_Source\PSoC4/Counter_PM.c **** * Copyright 2008-2012, Cypress Semiconductor Corporation.  All rights reserved.
  14:.\Generated_Source\PSoC4/Counter_PM.c **** * You may use this file only in accordance with the license, terms, conditions, 
  15:.\Generated_Source\PSoC4/Counter_PM.c **** * disclaimers, and limitations in the end user license agreement accompanying 
  16:.\Generated_Source\PSoC4/Counter_PM.c **** * the software package with which this file was provided.
  17:.\Generated_Source\PSoC4/Counter_PM.c **** *******************************************************************************/
  18:.\Generated_Source\PSoC4/Counter_PM.c **** 
  19:.\Generated_Source\PSoC4/Counter_PM.c **** #include "Counter.h"
  20:.\Generated_Source\PSoC4/Counter_PM.c **** 
  21:.\Generated_Source\PSoC4/Counter_PM.c **** static Counter_backupStruct Counter_backup;
  22:.\Generated_Source\PSoC4/Counter_PM.c **** 
  23:.\Generated_Source\PSoC4/Counter_PM.c **** 
  24:.\Generated_Source\PSoC4/Counter_PM.c **** /*******************************************************************************
  25:.\Generated_Source\PSoC4/Counter_PM.c **** * Function Name: Counter_SaveConfig
  26:.\Generated_Source\PSoC4/Counter_PM.c **** ********************************************************************************
  27:.\Generated_Source\PSoC4/Counter_PM.c **** * Summary:
  28:.\Generated_Source\PSoC4/Counter_PM.c **** *     Save the current user configuration
  29:.\Generated_Source\PSoC4/Counter_PM.c **** *
  30:.\Generated_Source\PSoC4/Counter_PM.c **** * Parameters:  
  31:.\Generated_Source\PSoC4/Counter_PM.c **** *  void
  32:.\Generated_Source\PSoC4/Counter_PM.c **** *
ARM GAS  C:\Users\SDEVAS~1\AppData\Local\Temp\ccWvuFiL.s 			page 2


  33:.\Generated_Source\PSoC4/Counter_PM.c **** * Return: 
  34:.\Generated_Source\PSoC4/Counter_PM.c **** *  void
  35:.\Generated_Source\PSoC4/Counter_PM.c **** *
  36:.\Generated_Source\PSoC4/Counter_PM.c **** * Global variables:
  37:.\Generated_Source\PSoC4/Counter_PM.c **** *  Counter_backup:  Variables of this global structure are modified to 
  38:.\Generated_Source\PSoC4/Counter_PM.c **** *  store the values of non retention configuration registers when Sleep() API is 
  39:.\Generated_Source\PSoC4/Counter_PM.c **** *  called.
  40:.\Generated_Source\PSoC4/Counter_PM.c **** *
  41:.\Generated_Source\PSoC4/Counter_PM.c **** *******************************************************************************/
  42:.\Generated_Source\PSoC4/Counter_PM.c **** void Counter_SaveConfig(void) 
  43:.\Generated_Source\PSoC4/Counter_PM.c **** {
  26              		.loc 1 43 0
  27              		.cfi_startproc
  28 0000 10B5     		push	{r4, lr}
  29              		.cfi_def_cfa_offset 8
  30              		.cfi_offset 4, -8
  31              		.cfi_offset 14, -4
  44:.\Generated_Source\PSoC4/Counter_PM.c ****     #if (!Counter_UsingFixedFunction)
  45:.\Generated_Source\PSoC4/Counter_PM.c **** 
  46:.\Generated_Source\PSoC4/Counter_PM.c ****         Counter_backup.CounterUdb = Counter_ReadCounter();
  32              		.loc 1 46 0
  33 0002 FFF7FEFF 		bl	Counter_ReadCounter
  34              	.LVL0:
  35 0006 034C     		ldr	r4, .L2
  47:.\Generated_Source\PSoC4/Counter_PM.c **** 
  48:.\Generated_Source\PSoC4/Counter_PM.c ****         #if(!Counter_ControlRegRemoved)
  49:.\Generated_Source\PSoC4/Counter_PM.c ****             Counter_backup.CounterControlRegister = Counter_ReadControlRegister();
  50:.\Generated_Source\PSoC4/Counter_PM.c ****         #endif /* (!Counter_ControlRegRemoved) */
  51:.\Generated_Source\PSoC4/Counter_PM.c **** 
  52:.\Generated_Source\PSoC4/Counter_PM.c ****     #endif /* (!Counter_UsingFixedFunction) */
  53:.\Generated_Source\PSoC4/Counter_PM.c **** }
  36              		.loc 1 53 0
  37              		@ sp needed
  46:.\Generated_Source\PSoC4/Counter_PM.c ****         Counter_backup.CounterUdb = Counter_ReadCounter();
  38              		.loc 1 46 0
  39 0008 6070     		strb	r0, [r4, #1]
  49:.\Generated_Source\PSoC4/Counter_PM.c ****             Counter_backup.CounterControlRegister = Counter_ReadControlRegister();
  40              		.loc 1 49 0
  41 000a FFF7FEFF 		bl	Counter_ReadControlRegister
  42              	.LVL1:
  43 000e A070     		strb	r0, [r4, #2]
  44              		.loc 1 53 0
  45 0010 10BD     		pop	{r4, pc}
  46              	.L3:
  47 0012 C046     		.align	2
  48              	.L2:
  49 0014 00000000 		.word	.LANCHOR0
  50              		.cfi_endproc
  51              	.LFE0:
  52              		.size	Counter_SaveConfig, .-Counter_SaveConfig
  53              		.section	.text.Counter_RestoreConfig,"ax",%progbits
  54              		.align	1
  55              		.global	Counter_RestoreConfig
  56              		.code	16
  57              		.thumb_func
  58              		.type	Counter_RestoreConfig, %function
  59              	Counter_RestoreConfig:
ARM GAS  C:\Users\SDEVAS~1\AppData\Local\Temp\ccWvuFiL.s 			page 3


  60              	.LFB1:
  54:.\Generated_Source\PSoC4/Counter_PM.c **** 
  55:.\Generated_Source\PSoC4/Counter_PM.c **** 
  56:.\Generated_Source\PSoC4/Counter_PM.c **** /*******************************************************************************
  57:.\Generated_Source\PSoC4/Counter_PM.c **** * Function Name: Counter_RestoreConfig
  58:.\Generated_Source\PSoC4/Counter_PM.c **** ********************************************************************************
  59:.\Generated_Source\PSoC4/Counter_PM.c **** *
  60:.\Generated_Source\PSoC4/Counter_PM.c **** * Summary:
  61:.\Generated_Source\PSoC4/Counter_PM.c **** *  Restores the current user configuration.
  62:.\Generated_Source\PSoC4/Counter_PM.c **** *
  63:.\Generated_Source\PSoC4/Counter_PM.c **** * Parameters:  
  64:.\Generated_Source\PSoC4/Counter_PM.c **** *  void
  65:.\Generated_Source\PSoC4/Counter_PM.c **** *
  66:.\Generated_Source\PSoC4/Counter_PM.c **** * Return: 
  67:.\Generated_Source\PSoC4/Counter_PM.c **** *  void
  68:.\Generated_Source\PSoC4/Counter_PM.c **** *
  69:.\Generated_Source\PSoC4/Counter_PM.c **** * Global variables:
  70:.\Generated_Source\PSoC4/Counter_PM.c **** *  Counter_backup:  Variables of this global structure are used to 
  71:.\Generated_Source\PSoC4/Counter_PM.c **** *  restore the values of non retention registers on wakeup from sleep mode.
  72:.\Generated_Source\PSoC4/Counter_PM.c **** *
  73:.\Generated_Source\PSoC4/Counter_PM.c **** *******************************************************************************/
  74:.\Generated_Source\PSoC4/Counter_PM.c **** void Counter_RestoreConfig(void) 
  75:.\Generated_Source\PSoC4/Counter_PM.c **** {      
  61              		.loc 1 75 0
  62              		.cfi_startproc
  63 0000 10B5     		push	{r4, lr}
  64              		.cfi_def_cfa_offset 8
  65              		.cfi_offset 4, -8
  66              		.cfi_offset 14, -4
  76:.\Generated_Source\PSoC4/Counter_PM.c ****     #if (!Counter_UsingFixedFunction)
  77:.\Generated_Source\PSoC4/Counter_PM.c **** 
  78:.\Generated_Source\PSoC4/Counter_PM.c ****        Counter_WriteCounter(Counter_backup.CounterUdb);
  67              		.loc 1 78 0
  68 0002 044C     		ldr	r4, .L5
  79:.\Generated_Source\PSoC4/Counter_PM.c **** 
  80:.\Generated_Source\PSoC4/Counter_PM.c ****         #if(!Counter_ControlRegRemoved)
  81:.\Generated_Source\PSoC4/Counter_PM.c ****             Counter_WriteControlRegister(Counter_backup.CounterControlRegister);
  82:.\Generated_Source\PSoC4/Counter_PM.c ****         #endif /* (!Counter_ControlRegRemoved) */
  83:.\Generated_Source\PSoC4/Counter_PM.c **** 
  84:.\Generated_Source\PSoC4/Counter_PM.c ****     #endif /* (!Counter_UsingFixedFunction) */
  85:.\Generated_Source\PSoC4/Counter_PM.c **** }
  69              		.loc 1 85 0
  70              		@ sp needed
  78:.\Generated_Source\PSoC4/Counter_PM.c ****        Counter_WriteCounter(Counter_backup.CounterUdb);
  71              		.loc 1 78 0
  72 0004 6078     		ldrb	r0, [r4, #1]
  73 0006 FFF7FEFF 		bl	Counter_WriteCounter
  74              	.LVL2:
  81:.\Generated_Source\PSoC4/Counter_PM.c ****             Counter_WriteControlRegister(Counter_backup.CounterControlRegister);
  75              		.loc 1 81 0
  76 000a A078     		ldrb	r0, [r4, #2]
  77 000c FFF7FEFF 		bl	Counter_WriteControlRegister
  78              	.LVL3:
  79              		.loc 1 85 0
  80 0010 10BD     		pop	{r4, pc}
  81              	.L6:
  82 0012 C046     		.align	2
ARM GAS  C:\Users\SDEVAS~1\AppData\Local\Temp\ccWvuFiL.s 			page 4


  83              	.L5:
  84 0014 00000000 		.word	.LANCHOR0
  85              		.cfi_endproc
  86              	.LFE1:
  87              		.size	Counter_RestoreConfig, .-Counter_RestoreConfig
  88              		.section	.text.Counter_Sleep,"ax",%progbits
  89              		.align	1
  90              		.global	Counter_Sleep
  91              		.code	16
  92              		.thumb_func
  93              		.type	Counter_Sleep, %function
  94              	Counter_Sleep:
  95              	.LFB2:
  86:.\Generated_Source\PSoC4/Counter_PM.c **** 
  87:.\Generated_Source\PSoC4/Counter_PM.c **** 
  88:.\Generated_Source\PSoC4/Counter_PM.c **** /*******************************************************************************
  89:.\Generated_Source\PSoC4/Counter_PM.c **** * Function Name: Counter_Sleep
  90:.\Generated_Source\PSoC4/Counter_PM.c **** ********************************************************************************
  91:.\Generated_Source\PSoC4/Counter_PM.c **** * Summary:
  92:.\Generated_Source\PSoC4/Counter_PM.c **** *     Stop and Save the user configuration
  93:.\Generated_Source\PSoC4/Counter_PM.c **** *
  94:.\Generated_Source\PSoC4/Counter_PM.c **** * Parameters:  
  95:.\Generated_Source\PSoC4/Counter_PM.c **** *  void
  96:.\Generated_Source\PSoC4/Counter_PM.c **** *
  97:.\Generated_Source\PSoC4/Counter_PM.c **** * Return: 
  98:.\Generated_Source\PSoC4/Counter_PM.c **** *  void
  99:.\Generated_Source\PSoC4/Counter_PM.c **** *
 100:.\Generated_Source\PSoC4/Counter_PM.c **** * Global variables:
 101:.\Generated_Source\PSoC4/Counter_PM.c **** *  Counter_backup.enableState:  Is modified depending on the enable 
 102:.\Generated_Source\PSoC4/Counter_PM.c **** *  state of the block before entering sleep mode.
 103:.\Generated_Source\PSoC4/Counter_PM.c **** *
 104:.\Generated_Source\PSoC4/Counter_PM.c **** *******************************************************************************/
 105:.\Generated_Source\PSoC4/Counter_PM.c **** void Counter_Sleep(void) 
 106:.\Generated_Source\PSoC4/Counter_PM.c **** {
  96              		.loc 1 106 0
  97              		.cfi_startproc
  98 0000 08B5     		push	{r3, lr}
  99              		.cfi_def_cfa_offset 8
 100              		.cfi_offset 3, -8
 101              		.cfi_offset 14, -4
 107:.\Generated_Source\PSoC4/Counter_PM.c ****     #if(!Counter_ControlRegRemoved)
 108:.\Generated_Source\PSoC4/Counter_PM.c ****         /* Save Counter's enable state */
 109:.\Generated_Source\PSoC4/Counter_PM.c ****         if(Counter_CTRL_ENABLE == (Counter_CONTROL & Counter_CTRL_ENABLE))
 102              		.loc 1 109 0
 103 0002 074B     		ldr	r3, .L12
 104 0004 1A78     		ldrb	r2, [r3]
 105 0006 074B     		ldr	r3, .L12+4
 106 0008 52B2     		sxtb	r2, r2
 107 000a 002A     		cmp	r2, #0
 108 000c 01DA     		bge	.L8
 110:.\Generated_Source\PSoC4/Counter_PM.c ****         {
 111:.\Generated_Source\PSoC4/Counter_PM.c ****             /* Counter is enabled */
 112:.\Generated_Source\PSoC4/Counter_PM.c ****             Counter_backup.CounterEnableState = 1u;
 109              		.loc 1 112 0
 110 000e 0122     		mov	r2, #1
 111 0010 00E0     		b	.L10
 112              	.L8:
ARM GAS  C:\Users\SDEVAS~1\AppData\Local\Temp\ccWvuFiL.s 			page 5


 113:.\Generated_Source\PSoC4/Counter_PM.c ****         }
 114:.\Generated_Source\PSoC4/Counter_PM.c ****         else
 115:.\Generated_Source\PSoC4/Counter_PM.c ****         {
 116:.\Generated_Source\PSoC4/Counter_PM.c ****             /* Counter is disabled */
 117:.\Generated_Source\PSoC4/Counter_PM.c ****             Counter_backup.CounterEnableState = 0u;
 113              		.loc 1 117 0
 114 0012 0022     		mov	r2, #0
 115              	.L10:
 116 0014 1A70     		strb	r2, [r3]
 118:.\Generated_Source\PSoC4/Counter_PM.c ****         }
 119:.\Generated_Source\PSoC4/Counter_PM.c ****     #else
 120:.\Generated_Source\PSoC4/Counter_PM.c ****         Counter_backup.CounterEnableState = 1u;
 121:.\Generated_Source\PSoC4/Counter_PM.c ****         if(Counter_backup.CounterEnableState != 0u)
 122:.\Generated_Source\PSoC4/Counter_PM.c ****         {
 123:.\Generated_Source\PSoC4/Counter_PM.c ****             Counter_backup.CounterEnableState = 0u;
 124:.\Generated_Source\PSoC4/Counter_PM.c ****         }
 125:.\Generated_Source\PSoC4/Counter_PM.c ****     #endif /* (!Counter_ControlRegRemoved) */
 126:.\Generated_Source\PSoC4/Counter_PM.c ****     
 127:.\Generated_Source\PSoC4/Counter_PM.c ****     Counter_Stop();
 128:.\Generated_Source\PSoC4/Counter_PM.c ****     Counter_SaveConfig();
 129:.\Generated_Source\PSoC4/Counter_PM.c **** }
 117              		.loc 1 129 0
 118              		@ sp needed
 127:.\Generated_Source\PSoC4/Counter_PM.c ****     Counter_Stop();
 119              		.loc 1 127 0
 120 0016 FFF7FEFF 		bl	Counter_Stop
 121              	.LVL4:
 128:.\Generated_Source\PSoC4/Counter_PM.c ****     Counter_SaveConfig();
 122              		.loc 1 128 0
 123 001a FFF7FEFF 		bl	Counter_SaveConfig
 124              	.LVL5:
 125              		.loc 1 129 0
 126 001e 08BD     		pop	{r3, pc}
 127              	.L13:
 128              		.align	2
 129              	.L12:
 130 0020 72000F40 		.word	1074724978
 131 0024 00000000 		.word	.LANCHOR0
 132              		.cfi_endproc
 133              	.LFE2:
 134              		.size	Counter_Sleep, .-Counter_Sleep
 135              		.section	.text.Counter_Wakeup,"ax",%progbits
 136              		.align	1
 137              		.global	Counter_Wakeup
 138              		.code	16
 139              		.thumb_func
 140              		.type	Counter_Wakeup, %function
 141              	Counter_Wakeup:
 142              	.LFB3:
 130:.\Generated_Source\PSoC4/Counter_PM.c **** 
 131:.\Generated_Source\PSoC4/Counter_PM.c **** 
 132:.\Generated_Source\PSoC4/Counter_PM.c **** /*******************************************************************************
 133:.\Generated_Source\PSoC4/Counter_PM.c **** * Function Name: Counter_Wakeup
 134:.\Generated_Source\PSoC4/Counter_PM.c **** ********************************************************************************
 135:.\Generated_Source\PSoC4/Counter_PM.c **** *
 136:.\Generated_Source\PSoC4/Counter_PM.c **** * Summary:
 137:.\Generated_Source\PSoC4/Counter_PM.c **** *  Restores and enables the user configuration
ARM GAS  C:\Users\SDEVAS~1\AppData\Local\Temp\ccWvuFiL.s 			page 6


 138:.\Generated_Source\PSoC4/Counter_PM.c **** *  
 139:.\Generated_Source\PSoC4/Counter_PM.c **** * Parameters:  
 140:.\Generated_Source\PSoC4/Counter_PM.c **** *  void
 141:.\Generated_Source\PSoC4/Counter_PM.c **** *
 142:.\Generated_Source\PSoC4/Counter_PM.c **** * Return: 
 143:.\Generated_Source\PSoC4/Counter_PM.c **** *  void
 144:.\Generated_Source\PSoC4/Counter_PM.c **** *
 145:.\Generated_Source\PSoC4/Counter_PM.c **** * Global variables:
 146:.\Generated_Source\PSoC4/Counter_PM.c **** *  Counter_backup.enableState:  Is used to restore the enable state of 
 147:.\Generated_Source\PSoC4/Counter_PM.c **** *  block on wakeup from sleep mode.
 148:.\Generated_Source\PSoC4/Counter_PM.c **** *
 149:.\Generated_Source\PSoC4/Counter_PM.c **** *******************************************************************************/
 150:.\Generated_Source\PSoC4/Counter_PM.c **** void Counter_Wakeup(void) 
 151:.\Generated_Source\PSoC4/Counter_PM.c **** {
 143              		.loc 1 151 0
 144              		.cfi_startproc
 145 0000 08B5     		push	{r3, lr}
 146              		.cfi_def_cfa_offset 8
 147              		.cfi_offset 3, -8
 148              		.cfi_offset 14, -4
 152:.\Generated_Source\PSoC4/Counter_PM.c ****     Counter_RestoreConfig();
 149              		.loc 1 152 0
 150 0002 FFF7FEFF 		bl	Counter_RestoreConfig
 151              	.LVL6:
 153:.\Generated_Source\PSoC4/Counter_PM.c ****     #if(!Counter_ControlRegRemoved)
 154:.\Generated_Source\PSoC4/Counter_PM.c ****         if(Counter_backup.CounterEnableState == 1u)
 152              		.loc 1 154 0
 153 0006 034B     		ldr	r3, .L16
 154 0008 1B78     		ldrb	r3, [r3]
 155 000a 012B     		cmp	r3, #1
 156 000c 01D1     		bne	.L14
 155:.\Generated_Source\PSoC4/Counter_PM.c ****         {
 156:.\Generated_Source\PSoC4/Counter_PM.c ****             /* Enable Counter's operation */
 157:.\Generated_Source\PSoC4/Counter_PM.c ****             Counter_Enable();
 157              		.loc 1 157 0
 158 000e FFF7FEFF 		bl	Counter_Enable
 159              	.LVL7:
 160              	.L14:
 158:.\Generated_Source\PSoC4/Counter_PM.c ****         } /* Do nothing if Counter was disabled before */    
 159:.\Generated_Source\PSoC4/Counter_PM.c ****     #endif /* (!Counter_ControlRegRemoved) */
 160:.\Generated_Source\PSoC4/Counter_PM.c ****     
 161:.\Generated_Source\PSoC4/Counter_PM.c **** }
 161              		.loc 1 161 0
 162              		@ sp needed
 163 0012 08BD     		pop	{r3, pc}
 164              	.L17:
 165              		.align	2
 166              	.L16:
 167 0014 00000000 		.word	.LANCHOR0
 168              		.cfi_endproc
 169              	.LFE3:
 170              		.size	Counter_Wakeup, .-Counter_Wakeup
 171              		.bss
 172              		.set	.LANCHOR0,. + 0
 173              		.type	Counter_backup, %object
 174              		.size	Counter_backup, 3
 175              	Counter_backup:
ARM GAS  C:\Users\SDEVAS~1\AppData\Local\Temp\ccWvuFiL.s 			page 7


 176 0000 000000   		.space	3
 177              		.text
 178              	.Letext0:
 179              		.file 2 ".\\Generated_Source\\PSoC4\\cytypes.h"
 180              		.file 3 ".\\Generated_Source\\PSoC4\\Counter.h"