ARM GAS  C:\Users\SDEVAS~1\AppData\Local\Temp\ccYUUuMD.s 			page 1


   1              		.cpu cortex-m0
   2              		.fpu softvfp
   3              		.eabi_attribute 20, 1
   4              		.eabi_attribute 21, 1
   5              		.eabi_attribute 23, 3
   6              		.eabi_attribute 24, 1
   7              		.eabi_attribute 25, 1
   8              		.eabi_attribute 26, 1
   9              		.eabi_attribute 30, 4
  10              		.eabi_attribute 34, 0
  11              		.eabi_attribute 18, 4
  12              		.code	16
  13              		.file	"Counter.c"
  14              		.text
  15              	.Ltext0:
  16              		.cfi_sections	.debug_frame
  17              		.section	.text.Counter_Enable,"ax",%progbits
  18              		.align	1
  19              		.global	Counter_Enable
  20              		.code	16
  21              		.thumb_func
  22              		.type	Counter_Enable, %function
  23              	Counter_Enable:
  24              	.LFB1:
  25              		.file 1 ".\\Generated_Source\\PSoC4\\Counter.c"
   1:.\Generated_Source\PSoC4/Counter.c **** /*******************************************************************************
   2:.\Generated_Source\PSoC4/Counter.c **** * File Name: Counter.c  
   3:.\Generated_Source\PSoC4/Counter.c **** * Version 3.0
   4:.\Generated_Source\PSoC4/Counter.c **** *
   5:.\Generated_Source\PSoC4/Counter.c **** *  Description:
   6:.\Generated_Source\PSoC4/Counter.c **** *     The Counter component consists of a 8, 16, 24 or 32-bit counter with
   7:.\Generated_Source\PSoC4/Counter.c **** *     a selectable period between 2 and 2^Width - 1.  
   8:.\Generated_Source\PSoC4/Counter.c **** *
   9:.\Generated_Source\PSoC4/Counter.c **** *   Note:
  10:.\Generated_Source\PSoC4/Counter.c **** *     None
  11:.\Generated_Source\PSoC4/Counter.c **** *
  12:.\Generated_Source\PSoC4/Counter.c **** ********************************************************************************
  13:.\Generated_Source\PSoC4/Counter.c **** * Copyright 2008-2012, Cypress Semiconductor Corporation.  All rights reserved.
  14:.\Generated_Source\PSoC4/Counter.c **** * You may use this file only in accordance with the license, terms, conditions, 
  15:.\Generated_Source\PSoC4/Counter.c **** * disclaimers, and limitations in the end user license agreement accompanying 
  16:.\Generated_Source\PSoC4/Counter.c **** * the software package with which this file was provided.
  17:.\Generated_Source\PSoC4/Counter.c **** *******************************************************************************/
  18:.\Generated_Source\PSoC4/Counter.c **** 
  19:.\Generated_Source\PSoC4/Counter.c **** #include "Counter.h"
  20:.\Generated_Source\PSoC4/Counter.c **** 
  21:.\Generated_Source\PSoC4/Counter.c **** uint8 Counter_initVar = 0u;
  22:.\Generated_Source\PSoC4/Counter.c **** 
  23:.\Generated_Source\PSoC4/Counter.c **** 
  24:.\Generated_Source\PSoC4/Counter.c **** /*******************************************************************************
  25:.\Generated_Source\PSoC4/Counter.c **** * Function Name: Counter_Init
  26:.\Generated_Source\PSoC4/Counter.c **** ********************************************************************************
  27:.\Generated_Source\PSoC4/Counter.c **** * Summary:
  28:.\Generated_Source\PSoC4/Counter.c **** *     Initialize to the schematic state
  29:.\Generated_Source\PSoC4/Counter.c **** * 
  30:.\Generated_Source\PSoC4/Counter.c **** * Parameters:  
  31:.\Generated_Source\PSoC4/Counter.c **** *  void  
  32:.\Generated_Source\PSoC4/Counter.c **** *
ARM GAS  C:\Users\SDEVAS~1\AppData\Local\Temp\ccYUUuMD.s 			page 2


  33:.\Generated_Source\PSoC4/Counter.c **** * Return: 
  34:.\Generated_Source\PSoC4/Counter.c **** *  void
  35:.\Generated_Source\PSoC4/Counter.c **** *
  36:.\Generated_Source\PSoC4/Counter.c **** *******************************************************************************/
  37:.\Generated_Source\PSoC4/Counter.c **** void Counter_Init(void) 
  38:.\Generated_Source\PSoC4/Counter.c **** {
  39:.\Generated_Source\PSoC4/Counter.c ****         #if (!Counter_UsingFixedFunction && !Counter_ControlRegRemoved)
  40:.\Generated_Source\PSoC4/Counter.c ****             uint8 ctrl;
  41:.\Generated_Source\PSoC4/Counter.c ****         #endif /* (!Counter_UsingFixedFunction && !Counter_ControlRegRemoved) */
  42:.\Generated_Source\PSoC4/Counter.c ****         
  43:.\Generated_Source\PSoC4/Counter.c ****         #if(!Counter_UsingFixedFunction) 
  44:.\Generated_Source\PSoC4/Counter.c ****             /* Interrupt State Backup for Critical Region*/
  45:.\Generated_Source\PSoC4/Counter.c ****             uint8 Counter_interruptState;
  46:.\Generated_Source\PSoC4/Counter.c ****         #endif /* (!Counter_UsingFixedFunction) */
  47:.\Generated_Source\PSoC4/Counter.c ****         
  48:.\Generated_Source\PSoC4/Counter.c ****         #if (Counter_UsingFixedFunction)
  49:.\Generated_Source\PSoC4/Counter.c ****             /* Clear all bits but the enable bit (if it's already set for Timer operation */
  50:.\Generated_Source\PSoC4/Counter.c ****             Counter_CONTROL &= Counter_CTRL_ENABLE;
  51:.\Generated_Source\PSoC4/Counter.c ****             
  52:.\Generated_Source\PSoC4/Counter.c ****             /* Clear the mode bits for continuous run mode */
  53:.\Generated_Source\PSoC4/Counter.c ****             #if (CY_PSOC5A)
  54:.\Generated_Source\PSoC4/Counter.c ****                 Counter_CONTROL2 &= ((uint8)(~Counter_CTRL_MODE_MASK));
  55:.\Generated_Source\PSoC4/Counter.c ****             #endif /* (CY_PSOC5A) */
  56:.\Generated_Source\PSoC4/Counter.c ****             #if (CY_PSOC3 || CY_PSOC5LP)
  57:.\Generated_Source\PSoC4/Counter.c ****                 Counter_CONTROL3 &= ((uint8)(~Counter_CTRL_MODE_MASK));                
  58:.\Generated_Source\PSoC4/Counter.c ****             #endif /* (CY_PSOC3 || CY_PSOC5LP) */
  59:.\Generated_Source\PSoC4/Counter.c ****             /* Check if One Shot mode is enabled i.e. RunMode !=0*/
  60:.\Generated_Source\PSoC4/Counter.c ****             #if (Counter_RunModeUsed != 0x0u)
  61:.\Generated_Source\PSoC4/Counter.c ****                 /* Set 3rd bit of Control register to enable one shot mode */
  62:.\Generated_Source\PSoC4/Counter.c ****                 Counter_CONTROL |= Counter_ONESHOT;
  63:.\Generated_Source\PSoC4/Counter.c ****             #endif /* (Counter_RunModeUsed != 0x0u) */
  64:.\Generated_Source\PSoC4/Counter.c ****             
  65:.\Generated_Source\PSoC4/Counter.c ****             /* Set the IRQ to use the status register interrupts */
  66:.\Generated_Source\PSoC4/Counter.c ****             Counter_CONTROL2 |= Counter_CTRL2_IRQ_SEL;
  67:.\Generated_Source\PSoC4/Counter.c ****             
  68:.\Generated_Source\PSoC4/Counter.c ****             /* Clear and Set SYNCTC and SYNCCMP bits of RT1 register */
  69:.\Generated_Source\PSoC4/Counter.c ****             Counter_RT1 &= ((uint8)(~Counter_RT1_MASK));
  70:.\Generated_Source\PSoC4/Counter.c ****             Counter_RT1 |= Counter_SYNC;     
  71:.\Generated_Source\PSoC4/Counter.c ****                     
  72:.\Generated_Source\PSoC4/Counter.c ****             /*Enable DSI Sync all all inputs of the Timer*/
  73:.\Generated_Source\PSoC4/Counter.c ****             Counter_RT1 &= ((uint8)(~Counter_SYNCDSI_MASK));
  74:.\Generated_Source\PSoC4/Counter.c ****             Counter_RT1 |= Counter_SYNCDSI_EN;
  75:.\Generated_Source\PSoC4/Counter.c **** 
  76:.\Generated_Source\PSoC4/Counter.c ****         #else
  77:.\Generated_Source\PSoC4/Counter.c ****             #if(!Counter_ControlRegRemoved)
  78:.\Generated_Source\PSoC4/Counter.c ****             /* Set the default compare mode defined in the parameter */
  79:.\Generated_Source\PSoC4/Counter.c ****             ctrl = Counter_CONTROL & ((uint8)(~Counter_CTRL_CMPMODE_MASK));
  80:.\Generated_Source\PSoC4/Counter.c ****             Counter_CONTROL = ctrl | Counter_DEFAULT_COMPARE_MODE;
  81:.\Generated_Source\PSoC4/Counter.c ****             
  82:.\Generated_Source\PSoC4/Counter.c ****             /* Set the default capture mode defined in the parameter */
  83:.\Generated_Source\PSoC4/Counter.c ****             ctrl = Counter_CONTROL & ((uint8)(~Counter_CTRL_CAPMODE_MASK));
  84:.\Generated_Source\PSoC4/Counter.c ****             
  85:.\Generated_Source\PSoC4/Counter.c ****             #if( 0 != Counter_CAPTURE_MODE_CONF)
  86:.\Generated_Source\PSoC4/Counter.c ****                 Counter_CONTROL = ctrl | Counter_DEFAULT_CAPTURE_MODE;
  87:.\Generated_Source\PSoC4/Counter.c ****             #else
  88:.\Generated_Source\PSoC4/Counter.c ****                 Counter_CONTROL = ctrl;
  89:.\Generated_Source\PSoC4/Counter.c ****             #endif /* 0 != Counter_CAPTURE_MODE */ 
ARM GAS  C:\Users\SDEVAS~1\AppData\Local\Temp\ccYUUuMD.s 			page 3


  90:.\Generated_Source\PSoC4/Counter.c ****             
  91:.\Generated_Source\PSoC4/Counter.c ****             #endif /* (!Counter_ControlRegRemoved) */
  92:.\Generated_Source\PSoC4/Counter.c ****         #endif /* (Counter_UsingFixedFunction) */
  93:.\Generated_Source\PSoC4/Counter.c ****         
  94:.\Generated_Source\PSoC4/Counter.c ****         /* Clear all data in the FIFO's */
  95:.\Generated_Source\PSoC4/Counter.c ****         #if (!Counter_UsingFixedFunction)
  96:.\Generated_Source\PSoC4/Counter.c ****             Counter_ClearFIFO();
  97:.\Generated_Source\PSoC4/Counter.c ****         #endif /* (!Counter_UsingFixedFunction) */
  98:.\Generated_Source\PSoC4/Counter.c ****         
  99:.\Generated_Source\PSoC4/Counter.c ****         /* Set Initial values from Configuration */
 100:.\Generated_Source\PSoC4/Counter.c ****         Counter_WritePeriod(Counter_INIT_PERIOD_VALUE);
 101:.\Generated_Source\PSoC4/Counter.c ****         #if (!(Counter_UsingFixedFunction && (CY_PSOC5A)))
 102:.\Generated_Source\PSoC4/Counter.c ****             Counter_WriteCounter(Counter_INIT_COUNTER_VALUE);
 103:.\Generated_Source\PSoC4/Counter.c ****         #endif /* (!(Counter_UsingFixedFunction && (CY_PSOC5A))) */
 104:.\Generated_Source\PSoC4/Counter.c ****         Counter_SetInterruptMode(Counter_INIT_INTERRUPTS_MASK);
 105:.\Generated_Source\PSoC4/Counter.c ****         
 106:.\Generated_Source\PSoC4/Counter.c ****         #if (!Counter_UsingFixedFunction)
 107:.\Generated_Source\PSoC4/Counter.c ****             /* Read the status register to clear the unwanted interrupts */
 108:.\Generated_Source\PSoC4/Counter.c ****             (void)Counter_ReadStatusRegister();
 109:.\Generated_Source\PSoC4/Counter.c ****             /* Set the compare value (only available to non-fixed function implementation */
 110:.\Generated_Source\PSoC4/Counter.c ****             Counter_WriteCompare(Counter_INIT_COMPARE_VALUE);
 111:.\Generated_Source\PSoC4/Counter.c ****             /* Use the interrupt output of the status register for IRQ output */
 112:.\Generated_Source\PSoC4/Counter.c ****             
 113:.\Generated_Source\PSoC4/Counter.c ****             /* CyEnterCriticalRegion and CyExitCriticalRegion are used to mark following region cri
 114:.\Generated_Source\PSoC4/Counter.c ****             /* Enter Critical Region*/
 115:.\Generated_Source\PSoC4/Counter.c ****             Counter_interruptState = CyEnterCriticalSection();
 116:.\Generated_Source\PSoC4/Counter.c ****             
 117:.\Generated_Source\PSoC4/Counter.c ****             Counter_STATUS_AUX_CTRL |= Counter_STATUS_ACTL_INT_EN_MASK;
 118:.\Generated_Source\PSoC4/Counter.c ****             
 119:.\Generated_Source\PSoC4/Counter.c ****             /* Exit Critical Region*/
 120:.\Generated_Source\PSoC4/Counter.c ****             CyExitCriticalSection(Counter_interruptState);
 121:.\Generated_Source\PSoC4/Counter.c ****             
 122:.\Generated_Source\PSoC4/Counter.c ****         #endif /* (!Counter_UsingFixedFunction) */
 123:.\Generated_Source\PSoC4/Counter.c **** }
 124:.\Generated_Source\PSoC4/Counter.c **** 
 125:.\Generated_Source\PSoC4/Counter.c **** 
 126:.\Generated_Source\PSoC4/Counter.c **** /*******************************************************************************
 127:.\Generated_Source\PSoC4/Counter.c **** * Function Name: Counter_Enable
 128:.\Generated_Source\PSoC4/Counter.c **** ********************************************************************************
 129:.\Generated_Source\PSoC4/Counter.c **** * Summary:
 130:.\Generated_Source\PSoC4/Counter.c **** *     Enable the Counter
 131:.\Generated_Source\PSoC4/Counter.c **** * 
 132:.\Generated_Source\PSoC4/Counter.c **** * Parameters:  
 133:.\Generated_Source\PSoC4/Counter.c **** *  void  
 134:.\Generated_Source\PSoC4/Counter.c **** *
 135:.\Generated_Source\PSoC4/Counter.c **** * Return: 
 136:.\Generated_Source\PSoC4/Counter.c **** *  void
 137:.\Generated_Source\PSoC4/Counter.c **** *
 138:.\Generated_Source\PSoC4/Counter.c **** * Side Effects: 
 139:.\Generated_Source\PSoC4/Counter.c **** *   If the Enable mode is set to Hardware only then this function has no effect 
 140:.\Generated_Source\PSoC4/Counter.c **** *   on the operation of the counter.
 141:.\Generated_Source\PSoC4/Counter.c **** *
 142:.\Generated_Source\PSoC4/Counter.c **** *******************************************************************************/
 143:.\Generated_Source\PSoC4/Counter.c **** void Counter_Enable(void) 
 144:.\Generated_Source\PSoC4/Counter.c **** {
  26              		.loc 1 144 0
  27              		.cfi_startproc
ARM GAS  C:\Users\SDEVAS~1\AppData\Local\Temp\ccYUUuMD.s 			page 4


 145:.\Generated_Source\PSoC4/Counter.c ****     /* Globally Enable the Fixed Function Block chosen */
 146:.\Generated_Source\PSoC4/Counter.c ****     #if (Counter_UsingFixedFunction)
 147:.\Generated_Source\PSoC4/Counter.c ****         Counter_GLOBAL_ENABLE |= Counter_BLOCK_EN_MASK;
 148:.\Generated_Source\PSoC4/Counter.c ****         Counter_GLOBAL_STBY_ENABLE |= Counter_BLOCK_STBY_EN_MASK;
 149:.\Generated_Source\PSoC4/Counter.c ****     #endif /* (Counter_UsingFixedFunction) */  
 150:.\Generated_Source\PSoC4/Counter.c ****         
 151:.\Generated_Source\PSoC4/Counter.c ****     /* Enable the counter from the control register  */
 152:.\Generated_Source\PSoC4/Counter.c ****     /* If Fixed Function then make sure Mode is set correctly */
 153:.\Generated_Source\PSoC4/Counter.c ****     /* else make sure reset is clear */
 154:.\Generated_Source\PSoC4/Counter.c ****     #if(!Counter_ControlRegRemoved || Counter_UsingFixedFunction)
 155:.\Generated_Source\PSoC4/Counter.c ****         Counter_CONTROL |= Counter_CTRL_ENABLE;                
  28              		.loc 1 155 0
  29 0000 024B     		ldr	r3, .L2
  30 0002 8022     		mov	r2, #128
  31 0004 1978     		ldrb	r1, [r3]
 156:.\Generated_Source\PSoC4/Counter.c ****     #endif /* (!Counter_ControlRegRemoved || Counter_UsingFixedFunction) */
 157:.\Generated_Source\PSoC4/Counter.c ****     
 158:.\Generated_Source\PSoC4/Counter.c **** }
  32              		.loc 1 158 0
  33              		@ sp needed
 155:.\Generated_Source\PSoC4/Counter.c ****         Counter_CONTROL |= Counter_CTRL_ENABLE;                
  34              		.loc 1 155 0
  35 0006 0A43     		orr	r2, r1
  36 0008 1A70     		strb	r2, [r3]
  37              		.loc 1 158 0
  38 000a 7047     		bx	lr
  39              	.L3:
  40              		.align	2
  41              	.L2:
  42 000c 72000F40 		.word	1074724978
  43              		.cfi_endproc
  44              	.LFE1:
  45              		.size	Counter_Enable, .-Counter_Enable
  46              		.section	.text.Counter_Stop,"ax",%progbits
  47              		.align	1
  48              		.global	Counter_Stop
  49              		.code	16
  50              		.thumb_func
  51              		.type	Counter_Stop, %function
  52              	Counter_Stop:
  53              	.LFB3:
 159:.\Generated_Source\PSoC4/Counter.c **** 
 160:.\Generated_Source\PSoC4/Counter.c **** 
 161:.\Generated_Source\PSoC4/Counter.c **** /*******************************************************************************
 162:.\Generated_Source\PSoC4/Counter.c **** * Function Name: Counter_Start
 163:.\Generated_Source\PSoC4/Counter.c **** ********************************************************************************
 164:.\Generated_Source\PSoC4/Counter.c **** * Summary:
 165:.\Generated_Source\PSoC4/Counter.c **** *  Enables the counter for operation 
 166:.\Generated_Source\PSoC4/Counter.c **** *
 167:.\Generated_Source\PSoC4/Counter.c **** * Parameters:  
 168:.\Generated_Source\PSoC4/Counter.c **** *  void  
 169:.\Generated_Source\PSoC4/Counter.c **** *
 170:.\Generated_Source\PSoC4/Counter.c **** * Return: 
 171:.\Generated_Source\PSoC4/Counter.c **** *  void
 172:.\Generated_Source\PSoC4/Counter.c **** *
 173:.\Generated_Source\PSoC4/Counter.c **** * Global variables:
 174:.\Generated_Source\PSoC4/Counter.c **** *  Counter_initVar: Is modified when this function is called for the  
ARM GAS  C:\Users\SDEVAS~1\AppData\Local\Temp\ccYUUuMD.s 			page 5


 175:.\Generated_Source\PSoC4/Counter.c **** *   first time. Is used to ensure that initialization happens only once.
 176:.\Generated_Source\PSoC4/Counter.c **** *
 177:.\Generated_Source\PSoC4/Counter.c **** *******************************************************************************/
 178:.\Generated_Source\PSoC4/Counter.c **** void Counter_Start(void) 
 179:.\Generated_Source\PSoC4/Counter.c **** {
 180:.\Generated_Source\PSoC4/Counter.c ****     if(Counter_initVar == 0u)
 181:.\Generated_Source\PSoC4/Counter.c ****     {
 182:.\Generated_Source\PSoC4/Counter.c ****         Counter_Init();
 183:.\Generated_Source\PSoC4/Counter.c ****         
 184:.\Generated_Source\PSoC4/Counter.c ****         Counter_initVar = 1u; /* Clear this bit for Initialization */        
 185:.\Generated_Source\PSoC4/Counter.c ****     }
 186:.\Generated_Source\PSoC4/Counter.c ****     
 187:.\Generated_Source\PSoC4/Counter.c ****     /* Enable the Counter */
 188:.\Generated_Source\PSoC4/Counter.c ****     Counter_Enable();        
 189:.\Generated_Source\PSoC4/Counter.c **** }
 190:.\Generated_Source\PSoC4/Counter.c **** 
 191:.\Generated_Source\PSoC4/Counter.c **** 
 192:.\Generated_Source\PSoC4/Counter.c **** /*******************************************************************************
 193:.\Generated_Source\PSoC4/Counter.c **** * Function Name: Counter_Stop
 194:.\Generated_Source\PSoC4/Counter.c **** ********************************************************************************
 195:.\Generated_Source\PSoC4/Counter.c **** * Summary:
 196:.\Generated_Source\PSoC4/Counter.c **** * Halts the counter, but does not change any modes or disable interrupts.
 197:.\Generated_Source\PSoC4/Counter.c **** *
 198:.\Generated_Source\PSoC4/Counter.c **** * Parameters:  
 199:.\Generated_Source\PSoC4/Counter.c **** *  void  
 200:.\Generated_Source\PSoC4/Counter.c **** *
 201:.\Generated_Source\PSoC4/Counter.c **** * Return: 
 202:.\Generated_Source\PSoC4/Counter.c **** *  void
 203:.\Generated_Source\PSoC4/Counter.c **** *
 204:.\Generated_Source\PSoC4/Counter.c **** * Side Effects: If the Enable mode is set to Hardware only then this function
 205:.\Generated_Source\PSoC4/Counter.c **** *               has no effect on the operation of the counter.
 206:.\Generated_Source\PSoC4/Counter.c **** *
 207:.\Generated_Source\PSoC4/Counter.c **** *******************************************************************************/
 208:.\Generated_Source\PSoC4/Counter.c **** void Counter_Stop(void) 
 209:.\Generated_Source\PSoC4/Counter.c **** {
  54              		.loc 1 209 0
  55              		.cfi_startproc
 210:.\Generated_Source\PSoC4/Counter.c ****     /* Disable Counter */
 211:.\Generated_Source\PSoC4/Counter.c ****     #if(!Counter_ControlRegRemoved || Counter_UsingFixedFunction)
 212:.\Generated_Source\PSoC4/Counter.c ****         Counter_CONTROL &= ((uint8)(~Counter_CTRL_ENABLE));        
  56              		.loc 1 212 0
  57 0000 024B     		ldr	r3, .L5
  58 0002 7F22     		mov	r2, #127
  59 0004 1978     		ldrb	r1, [r3]
 213:.\Generated_Source\PSoC4/Counter.c ****     #endif /* (!Counter_ControlRegRemoved || Counter_UsingFixedFunction) */
 214:.\Generated_Source\PSoC4/Counter.c ****     
 215:.\Generated_Source\PSoC4/Counter.c ****     /* Globally disable the Fixed Function Block chosen */
 216:.\Generated_Source\PSoC4/Counter.c ****     #if (Counter_UsingFixedFunction)
 217:.\Generated_Source\PSoC4/Counter.c ****         Counter_GLOBAL_ENABLE &= ((uint8)(~Counter_BLOCK_EN_MASK));
 218:.\Generated_Source\PSoC4/Counter.c ****         Counter_GLOBAL_STBY_ENABLE &= ((uint8)(~Counter_BLOCK_STBY_EN_MASK));
 219:.\Generated_Source\PSoC4/Counter.c ****     #endif /* (Counter_UsingFixedFunction) */
 220:.\Generated_Source\PSoC4/Counter.c **** }
  60              		.loc 1 220 0
  61              		@ sp needed
 212:.\Generated_Source\PSoC4/Counter.c ****         Counter_CONTROL &= ((uint8)(~Counter_CTRL_ENABLE));        
  62              		.loc 1 212 0
  63 0006 0A40     		and	r2, r1
ARM GAS  C:\Users\SDEVAS~1\AppData\Local\Temp\ccYUUuMD.s 			page 6


  64 0008 1A70     		strb	r2, [r3]
  65              		.loc 1 220 0
  66 000a 7047     		bx	lr
  67              	.L6:
  68              		.align	2
  69              	.L5:
  70 000c 72000F40 		.word	1074724978
  71              		.cfi_endproc
  72              	.LFE3:
  73              		.size	Counter_Stop, .-Counter_Stop
  74              		.section	.text.Counter_SetInterruptMode,"ax",%progbits
  75              		.align	1
  76              		.global	Counter_SetInterruptMode
  77              		.code	16
  78              		.thumb_func
  79              		.type	Counter_SetInterruptMode, %function
  80              	Counter_SetInterruptMode:
  81              	.LFB4:
 221:.\Generated_Source\PSoC4/Counter.c **** 
 222:.\Generated_Source\PSoC4/Counter.c **** 
 223:.\Generated_Source\PSoC4/Counter.c **** /*******************************************************************************
 224:.\Generated_Source\PSoC4/Counter.c **** * Function Name: Counter_SetInterruptMode
 225:.\Generated_Source\PSoC4/Counter.c **** ********************************************************************************
 226:.\Generated_Source\PSoC4/Counter.c **** * Summary:
 227:.\Generated_Source\PSoC4/Counter.c **** * Configures which interrupt sources are enabled to generate the final interrupt
 228:.\Generated_Source\PSoC4/Counter.c **** *
 229:.\Generated_Source\PSoC4/Counter.c **** * Parameters:  
 230:.\Generated_Source\PSoC4/Counter.c **** *  InterruptsMask: This parameter is an or'd collection of the status bits
 231:.\Generated_Source\PSoC4/Counter.c **** *                   which will be allowed to generate the counters interrupt.   
 232:.\Generated_Source\PSoC4/Counter.c **** *
 233:.\Generated_Source\PSoC4/Counter.c **** * Return: 
 234:.\Generated_Source\PSoC4/Counter.c **** *  void
 235:.\Generated_Source\PSoC4/Counter.c **** *
 236:.\Generated_Source\PSoC4/Counter.c **** *******************************************************************************/
 237:.\Generated_Source\PSoC4/Counter.c **** void Counter_SetInterruptMode(uint8 interruptsMask) 
 238:.\Generated_Source\PSoC4/Counter.c **** {
  82              		.loc 1 238 0
  83              		.cfi_startproc
  84              	.LVL0:
 239:.\Generated_Source\PSoC4/Counter.c ****     Counter_STATUS_MASK = interruptsMask;
  85              		.loc 1 239 0
  86 0000 014B     		ldr	r3, .L8
 240:.\Generated_Source\PSoC4/Counter.c **** }
  87              		.loc 1 240 0
  88              		@ sp needed
 239:.\Generated_Source\PSoC4/Counter.c ****     Counter_STATUS_MASK = interruptsMask;
  89              		.loc 1 239 0
  90 0002 1870     		strb	r0, [r3]
  91              		.loc 1 240 0
  92 0004 7047     		bx	lr
  93              	.L9:
  94 0006 C046     		.align	2
  95              	.L8:
  96 0008 82000F40 		.word	1074724994
  97              		.cfi_endproc
  98              	.LFE4:
  99              		.size	Counter_SetInterruptMode, .-Counter_SetInterruptMode
ARM GAS  C:\Users\SDEVAS~1\AppData\Local\Temp\ccYUUuMD.s 			page 7


 100              		.section	.text.Counter_ReadStatusRegister,"ax",%progbits
 101              		.align	1
 102              		.global	Counter_ReadStatusRegister
 103              		.code	16
 104              		.thumb_func
 105              		.type	Counter_ReadStatusRegister, %function
 106              	Counter_ReadStatusRegister:
 107              	.LFB5:
 241:.\Generated_Source\PSoC4/Counter.c **** 
 242:.\Generated_Source\PSoC4/Counter.c **** 
 243:.\Generated_Source\PSoC4/Counter.c **** /*******************************************************************************
 244:.\Generated_Source\PSoC4/Counter.c **** * Function Name: Counter_ReadStatusRegister
 245:.\Generated_Source\PSoC4/Counter.c **** ********************************************************************************
 246:.\Generated_Source\PSoC4/Counter.c **** * Summary:
 247:.\Generated_Source\PSoC4/Counter.c **** *   Reads the status register and returns it's state. This function should use
 248:.\Generated_Source\PSoC4/Counter.c **** *       defined types for the bit-field information as the bits in this
 249:.\Generated_Source\PSoC4/Counter.c **** *       register may be permuteable.
 250:.\Generated_Source\PSoC4/Counter.c **** *
 251:.\Generated_Source\PSoC4/Counter.c **** * Parameters:  
 252:.\Generated_Source\PSoC4/Counter.c **** *  void
 253:.\Generated_Source\PSoC4/Counter.c **** *
 254:.\Generated_Source\PSoC4/Counter.c **** * Return: 
 255:.\Generated_Source\PSoC4/Counter.c **** *  (uint8) The contents of the status register
 256:.\Generated_Source\PSoC4/Counter.c **** *
 257:.\Generated_Source\PSoC4/Counter.c **** * Side Effects:
 258:.\Generated_Source\PSoC4/Counter.c **** *   Status register bits may be clear on read. 
 259:.\Generated_Source\PSoC4/Counter.c **** *
 260:.\Generated_Source\PSoC4/Counter.c **** *******************************************************************************/
 261:.\Generated_Source\PSoC4/Counter.c **** uint8   Counter_ReadStatusRegister(void) 
 262:.\Generated_Source\PSoC4/Counter.c **** {
 108              		.loc 1 262 0
 109              		.cfi_startproc
 263:.\Generated_Source\PSoC4/Counter.c ****     return Counter_STATUS;
 110              		.loc 1 263 0
 111 0000 014B     		ldr	r3, .L11
 264:.\Generated_Source\PSoC4/Counter.c **** }
 112              		.loc 1 264 0
 113              		@ sp needed
 263:.\Generated_Source\PSoC4/Counter.c ****     return Counter_STATUS;
 114              		.loc 1 263 0
 115 0002 1878     		ldrb	r0, [r3]
 116 0004 C0B2     		uxtb	r0, r0
 117              		.loc 1 264 0
 118 0006 7047     		bx	lr
 119              	.L12:
 120              		.align	2
 121              	.L11:
 122 0008 62000F40 		.word	1074724962
 123              		.cfi_endproc
 124              	.LFE5:
 125              		.size	Counter_ReadStatusRegister, .-Counter_ReadStatusRegister
 126              		.section	.text.Counter_ReadControlRegister,"ax",%progbits
 127              		.align	1
 128              		.global	Counter_ReadControlRegister
 129              		.code	16
 130              		.thumb_func
 131              		.type	Counter_ReadControlRegister, %function
ARM GAS  C:\Users\SDEVAS~1\AppData\Local\Temp\ccYUUuMD.s 			page 8


 132              	Counter_ReadControlRegister:
 133              	.LFB6:
 265:.\Generated_Source\PSoC4/Counter.c **** 
 266:.\Generated_Source\PSoC4/Counter.c **** 
 267:.\Generated_Source\PSoC4/Counter.c **** #if(!Counter_ControlRegRemoved)
 268:.\Generated_Source\PSoC4/Counter.c **** /*******************************************************************************
 269:.\Generated_Source\PSoC4/Counter.c **** * Function Name: Counter_ReadControlRegister
 270:.\Generated_Source\PSoC4/Counter.c **** ********************************************************************************
 271:.\Generated_Source\PSoC4/Counter.c **** * Summary:
 272:.\Generated_Source\PSoC4/Counter.c **** *   Reads the control register and returns it's state. This function should use
 273:.\Generated_Source\PSoC4/Counter.c **** *       defined types for the bit-field information as the bits in this
 274:.\Generated_Source\PSoC4/Counter.c **** *       register may be permuteable.
 275:.\Generated_Source\PSoC4/Counter.c **** *
 276:.\Generated_Source\PSoC4/Counter.c **** * Parameters:  
 277:.\Generated_Source\PSoC4/Counter.c **** *  void
 278:.\Generated_Source\PSoC4/Counter.c **** *
 279:.\Generated_Source\PSoC4/Counter.c **** * Return: 
 280:.\Generated_Source\PSoC4/Counter.c **** *  (uint8) The contents of the control register
 281:.\Generated_Source\PSoC4/Counter.c **** *
 282:.\Generated_Source\PSoC4/Counter.c **** *******************************************************************************/
 283:.\Generated_Source\PSoC4/Counter.c **** uint8   Counter_ReadControlRegister(void) 
 284:.\Generated_Source\PSoC4/Counter.c **** {
 134              		.loc 1 284 0
 135              		.cfi_startproc
 285:.\Generated_Source\PSoC4/Counter.c ****     return Counter_CONTROL;
 136              		.loc 1 285 0
 137 0000 014B     		ldr	r3, .L14
 286:.\Generated_Source\PSoC4/Counter.c **** }
 138              		.loc 1 286 0
 139              		@ sp needed
 285:.\Generated_Source\PSoC4/Counter.c ****     return Counter_CONTROL;
 140              		.loc 1 285 0
 141 0002 1878     		ldrb	r0, [r3]
 142 0004 C0B2     		uxtb	r0, r0
 143              		.loc 1 286 0
 144 0006 7047     		bx	lr
 145              	.L15:
 146              		.align	2
 147              	.L14:
 148 0008 72000F40 		.word	1074724978
 149              		.cfi_endproc
 150              	.LFE6:
 151              		.size	Counter_ReadControlRegister, .-Counter_ReadControlRegister
 152              		.section	.text.Counter_WriteControlRegister,"ax",%progbits
 153              		.align	1
 154              		.global	Counter_WriteControlRegister
 155              		.code	16
 156              		.thumb_func
 157              		.type	Counter_WriteControlRegister, %function
 158              	Counter_WriteControlRegister:
 159              	.LFB7:
 287:.\Generated_Source\PSoC4/Counter.c **** 
 288:.\Generated_Source\PSoC4/Counter.c **** 
 289:.\Generated_Source\PSoC4/Counter.c **** /*******************************************************************************
 290:.\Generated_Source\PSoC4/Counter.c **** * Function Name: Counter_WriteControlRegister
 291:.\Generated_Source\PSoC4/Counter.c **** ********************************************************************************
 292:.\Generated_Source\PSoC4/Counter.c **** * Summary:
ARM GAS  C:\Users\SDEVAS~1\AppData\Local\Temp\ccYUUuMD.s 			page 9


 293:.\Generated_Source\PSoC4/Counter.c **** *   Sets the bit-field of the control register.  This function should use
 294:.\Generated_Source\PSoC4/Counter.c **** *       defined types for the bit-field information as the bits in this
 295:.\Generated_Source\PSoC4/Counter.c **** *       register may be permuteable.
 296:.\Generated_Source\PSoC4/Counter.c **** *
 297:.\Generated_Source\PSoC4/Counter.c **** * Parameters:  
 298:.\Generated_Source\PSoC4/Counter.c **** *  void
 299:.\Generated_Source\PSoC4/Counter.c **** *
 300:.\Generated_Source\PSoC4/Counter.c **** * Return: 
 301:.\Generated_Source\PSoC4/Counter.c **** *  (uint8) The contents of the control register
 302:.\Generated_Source\PSoC4/Counter.c **** *
 303:.\Generated_Source\PSoC4/Counter.c **** *******************************************************************************/
 304:.\Generated_Source\PSoC4/Counter.c **** void    Counter_WriteControlRegister(uint8 control) 
 305:.\Generated_Source\PSoC4/Counter.c **** {
 160              		.loc 1 305 0
 161              		.cfi_startproc
 162              	.LVL1:
 306:.\Generated_Source\PSoC4/Counter.c ****     Counter_CONTROL = control;
 163              		.loc 1 306 0
 164 0000 014B     		ldr	r3, .L17
 307:.\Generated_Source\PSoC4/Counter.c **** }
 165              		.loc 1 307 0
 166              		@ sp needed
 306:.\Generated_Source\PSoC4/Counter.c ****     Counter_CONTROL = control;
 167              		.loc 1 306 0
 168 0002 1870     		strb	r0, [r3]
 169              		.loc 1 307 0
 170 0004 7047     		bx	lr
 171              	.L18:
 172 0006 C046     		.align	2
 173              	.L17:
 174 0008 72000F40 		.word	1074724978
 175              		.cfi_endproc
 176              	.LFE7:
 177              		.size	Counter_WriteControlRegister, .-Counter_WriteControlRegister
 178              		.section	.text.Counter_WriteCounter,"ax",%progbits
 179              		.align	1
 180              		.global	Counter_WriteCounter
 181              		.code	16
 182              		.thumb_func
 183              		.type	Counter_WriteCounter, %function
 184              	Counter_WriteCounter:
 185              	.LFB8:
 308:.\Generated_Source\PSoC4/Counter.c **** 
 309:.\Generated_Source\PSoC4/Counter.c **** #endif  /* (!Counter_ControlRegRemoved) */
 310:.\Generated_Source\PSoC4/Counter.c **** 
 311:.\Generated_Source\PSoC4/Counter.c **** 
 312:.\Generated_Source\PSoC4/Counter.c **** #if (!(Counter_UsingFixedFunction && (CY_PSOC5A)))
 313:.\Generated_Source\PSoC4/Counter.c **** /*******************************************************************************
 314:.\Generated_Source\PSoC4/Counter.c **** * Function Name: Counter_WriteCounter
 315:.\Generated_Source\PSoC4/Counter.c **** ********************************************************************************
 316:.\Generated_Source\PSoC4/Counter.c **** * Summary:
 317:.\Generated_Source\PSoC4/Counter.c **** *   This funtion is used to set the counter to a specific value
 318:.\Generated_Source\PSoC4/Counter.c **** *
 319:.\Generated_Source\PSoC4/Counter.c **** * Parameters:  
 320:.\Generated_Source\PSoC4/Counter.c **** *  counter:  New counter value. 
 321:.\Generated_Source\PSoC4/Counter.c **** *
 322:.\Generated_Source\PSoC4/Counter.c **** * Return: 
ARM GAS  C:\Users\SDEVAS~1\AppData\Local\Temp\ccYUUuMD.s 			page 10


 323:.\Generated_Source\PSoC4/Counter.c **** *  void 
 324:.\Generated_Source\PSoC4/Counter.c **** *
 325:.\Generated_Source\PSoC4/Counter.c **** *******************************************************************************/
 326:.\Generated_Source\PSoC4/Counter.c **** void Counter_WriteCounter(uint8 counter) \
 327:.\Generated_Source\PSoC4/Counter.c ****                                    
 328:.\Generated_Source\PSoC4/Counter.c **** {
 186              		.loc 1 328 0
 187              		.cfi_startproc
 188              	.LVL2:
 329:.\Generated_Source\PSoC4/Counter.c ****     #if(Counter_UsingFixedFunction)
 330:.\Generated_Source\PSoC4/Counter.c ****         /* assert if block is already enabled */
 331:.\Generated_Source\PSoC4/Counter.c ****         CYASSERT (0u == (Counter_GLOBAL_ENABLE & Counter_BLOCK_EN_MASK));
 332:.\Generated_Source\PSoC4/Counter.c ****         /* If block is disabled, enable it and then write the counter */
 333:.\Generated_Source\PSoC4/Counter.c ****         Counter_GLOBAL_ENABLE |= Counter_BLOCK_EN_MASK;
 334:.\Generated_Source\PSoC4/Counter.c ****         CY_SET_REG16(Counter_COUNTER_LSB_PTR, (uint16)counter);
 335:.\Generated_Source\PSoC4/Counter.c ****         Counter_GLOBAL_ENABLE &= ((uint8)(~Counter_BLOCK_EN_MASK));
 336:.\Generated_Source\PSoC4/Counter.c ****     #else
 337:.\Generated_Source\PSoC4/Counter.c ****         CY_SET_REG8(Counter_COUNTER_LSB_PTR, counter);
 189              		.loc 1 337 0
 190 0000 014B     		ldr	r3, .L20
 338:.\Generated_Source\PSoC4/Counter.c ****     #endif /* (Counter_UsingFixedFunction) */
 339:.\Generated_Source\PSoC4/Counter.c **** }
 191              		.loc 1 339 0
 192              		@ sp needed
 337:.\Generated_Source\PSoC4/Counter.c ****         CY_SET_REG8(Counter_COUNTER_LSB_PTR, counter);
 193              		.loc 1 337 0
 194 0002 1870     		strb	r0, [r3]
 195              		.loc 1 339 0
 196 0004 7047     		bx	lr
 197              	.L21:
 198 0006 C046     		.align	2
 199              	.L20:
 200 0008 02000F40 		.word	1074724866
 201              		.cfi_endproc
 202              	.LFE8:
 203              		.size	Counter_WriteCounter, .-Counter_WriteCounter
 204              		.section	.text.Counter_ReadCounter,"ax",%progbits
 205              		.align	1
 206              		.global	Counter_ReadCounter
 207              		.code	16
 208              		.thumb_func
 209              		.type	Counter_ReadCounter, %function
 210              	Counter_ReadCounter:
 211              	.LFB9:
 340:.\Generated_Source\PSoC4/Counter.c **** #endif /* (!(Counter_UsingFixedFunction && (CY_PSOC5A))) */
 341:.\Generated_Source\PSoC4/Counter.c **** 
 342:.\Generated_Source\PSoC4/Counter.c **** 
 343:.\Generated_Source\PSoC4/Counter.c **** /*******************************************************************************
 344:.\Generated_Source\PSoC4/Counter.c **** * Function Name: Counter_ReadCounter
 345:.\Generated_Source\PSoC4/Counter.c **** ********************************************************************************
 346:.\Generated_Source\PSoC4/Counter.c **** * Summary:
 347:.\Generated_Source\PSoC4/Counter.c **** * Returns the current value of the counter.  It doesn't matter
 348:.\Generated_Source\PSoC4/Counter.c **** * if the counter is enabled or running.
 349:.\Generated_Source\PSoC4/Counter.c **** *
 350:.\Generated_Source\PSoC4/Counter.c **** * Parameters:  
 351:.\Generated_Source\PSoC4/Counter.c **** *  void:  
 352:.\Generated_Source\PSoC4/Counter.c **** *
ARM GAS  C:\Users\SDEVAS~1\AppData\Local\Temp\ccYUUuMD.s 			page 11


 353:.\Generated_Source\PSoC4/Counter.c **** * Return: 
 354:.\Generated_Source\PSoC4/Counter.c **** *  (uint8) The present value of the counter.
 355:.\Generated_Source\PSoC4/Counter.c **** *
 356:.\Generated_Source\PSoC4/Counter.c **** *******************************************************************************/
 357:.\Generated_Source\PSoC4/Counter.c **** uint8 Counter_ReadCounter(void) 
 358:.\Generated_Source\PSoC4/Counter.c **** {
 212              		.loc 1 358 0
 213              		.cfi_startproc
 359:.\Generated_Source\PSoC4/Counter.c ****     /* Force capture by reading Accumulator */
 360:.\Generated_Source\PSoC4/Counter.c ****     /* Must first do a software capture to be able to read the counter */
 361:.\Generated_Source\PSoC4/Counter.c ****     /* It is up to the user code to make sure there isn't already captured data in the FIFO */
 362:.\Generated_Source\PSoC4/Counter.c ****     #if(Counter_UsingFixedFunction)
 363:.\Generated_Source\PSoC4/Counter.c **** 		(void)CY_GET_REG16(Counter_COUNTER_LSB_PTR);
 364:.\Generated_Source\PSoC4/Counter.c **** 	#else
 365:.\Generated_Source\PSoC4/Counter.c **** 		(void)CY_GET_REG8(Counter_COUNTER_LSB_PTR_8BIT);
 214              		.loc 1 365 0
 215 0000 024B     		ldr	r3, .L23
 366:.\Generated_Source\PSoC4/Counter.c **** 	#endif/* (Counter_UsingFixedFunction) */
 367:.\Generated_Source\PSoC4/Counter.c ****     
 368:.\Generated_Source\PSoC4/Counter.c ****     /* Read the data from the FIFO (or capture register for Fixed Function)*/
 369:.\Generated_Source\PSoC4/Counter.c ****     #if(Counter_UsingFixedFunction)
 370:.\Generated_Source\PSoC4/Counter.c ****         return ((uint8)CY_GET_REG16(Counter_STATICCOUNT_LSB_PTR));
 371:.\Generated_Source\PSoC4/Counter.c ****     #else
 372:.\Generated_Source\PSoC4/Counter.c ****         return (CY_GET_REG8(Counter_STATICCOUNT_LSB_PTR));
 373:.\Generated_Source\PSoC4/Counter.c ****     #endif /* (Counter_UsingFixedFunction) */
 374:.\Generated_Source\PSoC4/Counter.c **** }
 216              		.loc 1 374 0
 217              		@ sp needed
 365:.\Generated_Source\PSoC4/Counter.c **** 		(void)CY_GET_REG8(Counter_COUNTER_LSB_PTR_8BIT);
 218              		.loc 1 365 0
 219 0002 1B78     		ldrb	r3, [r3]
 372:.\Generated_Source\PSoC4/Counter.c ****         return (CY_GET_REG8(Counter_STATICCOUNT_LSB_PTR));
 220              		.loc 1 372 0
 221 0004 024B     		ldr	r3, .L23+4
 222 0006 1878     		ldrb	r0, [r3]
 223 0008 C0B2     		uxtb	r0, r0
 224              		.loc 1 374 0
 225 000a 7047     		bx	lr
 226              	.L24:
 227              		.align	2
 228              	.L23:
 229 000c 02000F40 		.word	1074724866
 230 0010 42000F40 		.word	1074724930
 231              		.cfi_endproc
 232              	.LFE9:
 233              		.size	Counter_ReadCounter, .-Counter_ReadCounter
 234              		.section	.text.Counter_ReadCapture,"ax",%progbits
 235              		.align	1
 236              		.global	Counter_ReadCapture
 237              		.code	16
 238              		.thumb_func
 239              		.type	Counter_ReadCapture, %function
 240              	Counter_ReadCapture:
 241              	.LFB10:
 375:.\Generated_Source\PSoC4/Counter.c **** 
 376:.\Generated_Source\PSoC4/Counter.c **** 
 377:.\Generated_Source\PSoC4/Counter.c **** /*******************************************************************************
ARM GAS  C:\Users\SDEVAS~1\AppData\Local\Temp\ccYUUuMD.s 			page 12


 378:.\Generated_Source\PSoC4/Counter.c **** * Function Name: Counter_ReadCapture
 379:.\Generated_Source\PSoC4/Counter.c **** ********************************************************************************
 380:.\Generated_Source\PSoC4/Counter.c **** * Summary:
 381:.\Generated_Source\PSoC4/Counter.c **** *   This function returns the last value captured.
 382:.\Generated_Source\PSoC4/Counter.c **** *
 383:.\Generated_Source\PSoC4/Counter.c **** * Parameters:  
 384:.\Generated_Source\PSoC4/Counter.c **** *  void
 385:.\Generated_Source\PSoC4/Counter.c **** *
 386:.\Generated_Source\PSoC4/Counter.c **** * Return: 
 387:.\Generated_Source\PSoC4/Counter.c **** *  (uint8) Present Capture value.
 388:.\Generated_Source\PSoC4/Counter.c **** *
 389:.\Generated_Source\PSoC4/Counter.c **** *******************************************************************************/
 390:.\Generated_Source\PSoC4/Counter.c **** uint8 Counter_ReadCapture(void) 
 391:.\Generated_Source\PSoC4/Counter.c **** {
 242              		.loc 1 391 0
 243              		.cfi_startproc
 392:.\Generated_Source\PSoC4/Counter.c ****     #if(Counter_UsingFixedFunction)
 393:.\Generated_Source\PSoC4/Counter.c ****         return ((uint8)CY_GET_REG16(Counter_STATICCOUNT_LSB_PTR));
 394:.\Generated_Source\PSoC4/Counter.c ****     #else
 395:.\Generated_Source\PSoC4/Counter.c ****         return (CY_GET_REG8(Counter_STATICCOUNT_LSB_PTR));
 244              		.loc 1 395 0
 245 0000 014B     		ldr	r3, .L26
 396:.\Generated_Source\PSoC4/Counter.c ****     #endif /* (Counter_UsingFixedFunction) */
 397:.\Generated_Source\PSoC4/Counter.c **** }
 246              		.loc 1 397 0
 247              		@ sp needed
 395:.\Generated_Source\PSoC4/Counter.c ****         return (CY_GET_REG8(Counter_STATICCOUNT_LSB_PTR));
 248              		.loc 1 395 0
 249 0002 1878     		ldrb	r0, [r3]
 250 0004 C0B2     		uxtb	r0, r0
 251              		.loc 1 397 0
 252 0006 7047     		bx	lr
 253              	.L27:
 254              		.align	2
 255              	.L26:
 256 0008 42000F40 		.word	1074724930
 257              		.cfi_endproc
 258              	.LFE10:
 259              		.size	Counter_ReadCapture, .-Counter_ReadCapture
 260              		.section	.text.Counter_WritePeriod,"ax",%progbits
 261              		.align	1
 262              		.global	Counter_WritePeriod
 263              		.code	16
 264              		.thumb_func
 265              		.type	Counter_WritePeriod, %function
 266              	Counter_WritePeriod:
 267              	.LFB11:
 398:.\Generated_Source\PSoC4/Counter.c **** 
 399:.\Generated_Source\PSoC4/Counter.c **** 
 400:.\Generated_Source\PSoC4/Counter.c **** /*******************************************************************************
 401:.\Generated_Source\PSoC4/Counter.c **** * Function Name: Counter_WritePeriod
 402:.\Generated_Source\PSoC4/Counter.c **** ********************************************************************************
 403:.\Generated_Source\PSoC4/Counter.c **** * Summary:
 404:.\Generated_Source\PSoC4/Counter.c **** * Changes the period of the counter.  The new period 
 405:.\Generated_Source\PSoC4/Counter.c **** * will be loaded the next time terminal count is detected.
 406:.\Generated_Source\PSoC4/Counter.c **** *
 407:.\Generated_Source\PSoC4/Counter.c **** * Parameters:  
ARM GAS  C:\Users\SDEVAS~1\AppData\Local\Temp\ccYUUuMD.s 			page 13


 408:.\Generated_Source\PSoC4/Counter.c **** *  period: (uint8) A value of 0 will result in
 409:.\Generated_Source\PSoC4/Counter.c **** *         the counter remaining at zero.  
 410:.\Generated_Source\PSoC4/Counter.c **** *
 411:.\Generated_Source\PSoC4/Counter.c **** * Return: 
 412:.\Generated_Source\PSoC4/Counter.c **** *  void
 413:.\Generated_Source\PSoC4/Counter.c **** *
 414:.\Generated_Source\PSoC4/Counter.c **** *******************************************************************************/
 415:.\Generated_Source\PSoC4/Counter.c **** void Counter_WritePeriod(uint8 period) 
 416:.\Generated_Source\PSoC4/Counter.c **** {
 268              		.loc 1 416 0
 269              		.cfi_startproc
 270              	.LVL3:
 417:.\Generated_Source\PSoC4/Counter.c ****     #if(Counter_UsingFixedFunction)
 418:.\Generated_Source\PSoC4/Counter.c ****         CY_SET_REG16(Counter_PERIOD_LSB_PTR,(uint16)period);
 419:.\Generated_Source\PSoC4/Counter.c ****     #else
 420:.\Generated_Source\PSoC4/Counter.c ****         CY_SET_REG8(Counter_PERIOD_LSB_PTR, period);
 271              		.loc 1 420 0
 272 0000 014B     		ldr	r3, .L29
 421:.\Generated_Source\PSoC4/Counter.c ****     #endif /* (Counter_UsingFixedFunction) */
 422:.\Generated_Source\PSoC4/Counter.c **** }
 273              		.loc 1 422 0
 274              		@ sp needed
 420:.\Generated_Source\PSoC4/Counter.c ****         CY_SET_REG8(Counter_PERIOD_LSB_PTR, period);
 275              		.loc 1 420 0
 276 0002 1870     		strb	r0, [r3]
 277              		.loc 1 422 0
 278 0004 7047     		bx	lr
 279              	.L30:
 280 0006 C046     		.align	2
 281              	.L29:
 282 0008 22000F40 		.word	1074724898
 283              		.cfi_endproc
 284              	.LFE11:
 285              		.size	Counter_WritePeriod, .-Counter_WritePeriod
 286              		.section	.text.Counter_ReadPeriod,"ax",%progbits
 287              		.align	1
 288              		.global	Counter_ReadPeriod
 289              		.code	16
 290              		.thumb_func
 291              		.type	Counter_ReadPeriod, %function
 292              	Counter_ReadPeriod:
 293              	.LFB12:
 423:.\Generated_Source\PSoC4/Counter.c **** 
 424:.\Generated_Source\PSoC4/Counter.c **** 
 425:.\Generated_Source\PSoC4/Counter.c **** /*******************************************************************************
 426:.\Generated_Source\PSoC4/Counter.c **** * Function Name: Counter_ReadPeriod
 427:.\Generated_Source\PSoC4/Counter.c **** ********************************************************************************
 428:.\Generated_Source\PSoC4/Counter.c **** * Summary:
 429:.\Generated_Source\PSoC4/Counter.c **** * Reads the current period value without affecting counter operation.
 430:.\Generated_Source\PSoC4/Counter.c **** *
 431:.\Generated_Source\PSoC4/Counter.c **** * Parameters:  
 432:.\Generated_Source\PSoC4/Counter.c **** *  void:  
 433:.\Generated_Source\PSoC4/Counter.c **** *
 434:.\Generated_Source\PSoC4/Counter.c **** * Return: 
 435:.\Generated_Source\PSoC4/Counter.c **** *  (uint8) Present period value.
 436:.\Generated_Source\PSoC4/Counter.c **** *
 437:.\Generated_Source\PSoC4/Counter.c **** *******************************************************************************/
ARM GAS  C:\Users\SDEVAS~1\AppData\Local\Temp\ccYUUuMD.s 			page 14


 438:.\Generated_Source\PSoC4/Counter.c **** uint8 Counter_ReadPeriod(void) 
 439:.\Generated_Source\PSoC4/Counter.c **** {
 294              		.loc 1 439 0
 295              		.cfi_startproc
 440:.\Generated_Source\PSoC4/Counter.c ****     #if(Counter_UsingFixedFunction)
 441:.\Generated_Source\PSoC4/Counter.c ****         return ((uint8)CY_GET_REG16(Counter_PERIOD_LSB_PTR));
 442:.\Generated_Source\PSoC4/Counter.c ****     #else
 443:.\Generated_Source\PSoC4/Counter.c ****         return (CY_GET_REG8(Counter_PERIOD_LSB_PTR));
 296              		.loc 1 443 0
 297 0000 014B     		ldr	r3, .L32
 444:.\Generated_Source\PSoC4/Counter.c ****     #endif /* (Counter_UsingFixedFunction) */
 445:.\Generated_Source\PSoC4/Counter.c **** }
 298              		.loc 1 445 0
 299              		@ sp needed
 443:.\Generated_Source\PSoC4/Counter.c ****         return (CY_GET_REG8(Counter_PERIOD_LSB_PTR));
 300              		.loc 1 443 0
 301 0002 1878     		ldrb	r0, [r3]
 302 0004 C0B2     		uxtb	r0, r0
 303              		.loc 1 445 0
 304 0006 7047     		bx	lr
 305              	.L33:
 306              		.align	2
 307              	.L32:
 308 0008 22000F40 		.word	1074724898
 309              		.cfi_endproc
 310              	.LFE12:
 311              		.size	Counter_ReadPeriod, .-Counter_ReadPeriod
 312              		.section	.text.Counter_WriteCompare,"ax",%progbits
 313              		.align	1
 314              		.global	Counter_WriteCompare
 315              		.code	16
 316              		.thumb_func
 317              		.type	Counter_WriteCompare, %function
 318              	Counter_WriteCompare:
 319              	.LFB13:
 446:.\Generated_Source\PSoC4/Counter.c **** 
 447:.\Generated_Source\PSoC4/Counter.c **** 
 448:.\Generated_Source\PSoC4/Counter.c **** #if (!Counter_UsingFixedFunction)
 449:.\Generated_Source\PSoC4/Counter.c **** /*******************************************************************************
 450:.\Generated_Source\PSoC4/Counter.c **** * Function Name: Counter_WriteCompare
 451:.\Generated_Source\PSoC4/Counter.c **** ********************************************************************************
 452:.\Generated_Source\PSoC4/Counter.c **** * Summary:
 453:.\Generated_Source\PSoC4/Counter.c **** * Changes the compare value.  The compare output will 
 454:.\Generated_Source\PSoC4/Counter.c **** * reflect the new value on the next UDB clock.  The compare output will be 
 455:.\Generated_Source\PSoC4/Counter.c **** * driven high when the present counter value compares true based on the 
 456:.\Generated_Source\PSoC4/Counter.c **** * configured compare mode setting. 
 457:.\Generated_Source\PSoC4/Counter.c **** *
 458:.\Generated_Source\PSoC4/Counter.c **** * Parameters:  
 459:.\Generated_Source\PSoC4/Counter.c **** *  Compare:  New compare value. 
 460:.\Generated_Source\PSoC4/Counter.c **** *
 461:.\Generated_Source\PSoC4/Counter.c **** * Return: 
 462:.\Generated_Source\PSoC4/Counter.c **** *  void
 463:.\Generated_Source\PSoC4/Counter.c **** *
 464:.\Generated_Source\PSoC4/Counter.c **** *******************************************************************************/
 465:.\Generated_Source\PSoC4/Counter.c **** void Counter_WriteCompare(uint8 compare) \
 466:.\Generated_Source\PSoC4/Counter.c ****                                    
 467:.\Generated_Source\PSoC4/Counter.c **** {
ARM GAS  C:\Users\SDEVAS~1\AppData\Local\Temp\ccYUUuMD.s 			page 15


 320              		.loc 1 467 0
 321              		.cfi_startproc
 322              	.LVL4:
 468:.\Generated_Source\PSoC4/Counter.c ****     #if(Counter_UsingFixedFunction)
 469:.\Generated_Source\PSoC4/Counter.c ****         CY_SET_REG16(Counter_COMPARE_LSB_PTR, (uint16)compare);
 470:.\Generated_Source\PSoC4/Counter.c ****     #else
 471:.\Generated_Source\PSoC4/Counter.c ****         CY_SET_REG8(Counter_COMPARE_LSB_PTR, compare);
 323              		.loc 1 471 0
 324 0000 014B     		ldr	r3, .L35
 472:.\Generated_Source\PSoC4/Counter.c ****     #endif /* (Counter_UsingFixedFunction) */
 473:.\Generated_Source\PSoC4/Counter.c **** }
 325              		.loc 1 473 0
 326              		@ sp needed
 471:.\Generated_Source\PSoC4/Counter.c ****         CY_SET_REG8(Counter_COMPARE_LSB_PTR, compare);
 327              		.loc 1 471 0
 328 0002 1870     		strb	r0, [r3]
 329              		.loc 1 473 0
 330 0004 7047     		bx	lr
 331              	.L36:
 332 0006 C046     		.align	2
 333              	.L35:
 334 0008 32000F40 		.word	1074724914
 335              		.cfi_endproc
 336              	.LFE13:
 337              		.size	Counter_WriteCompare, .-Counter_WriteCompare
 338              		.section	.text.Counter_ReadCompare,"ax",%progbits
 339              		.align	1
 340              		.global	Counter_ReadCompare
 341              		.code	16
 342              		.thumb_func
 343              		.type	Counter_ReadCompare, %function
 344              	Counter_ReadCompare:
 345              	.LFB14:
 474:.\Generated_Source\PSoC4/Counter.c **** 
 475:.\Generated_Source\PSoC4/Counter.c **** 
 476:.\Generated_Source\PSoC4/Counter.c **** /*******************************************************************************
 477:.\Generated_Source\PSoC4/Counter.c **** * Function Name: Counter_ReadCompare
 478:.\Generated_Source\PSoC4/Counter.c **** ********************************************************************************
 479:.\Generated_Source\PSoC4/Counter.c **** * Summary:
 480:.\Generated_Source\PSoC4/Counter.c **** * Returns the compare value.
 481:.\Generated_Source\PSoC4/Counter.c **** *
 482:.\Generated_Source\PSoC4/Counter.c **** * Parameters:  
 483:.\Generated_Source\PSoC4/Counter.c **** *  void:
 484:.\Generated_Source\PSoC4/Counter.c **** *
 485:.\Generated_Source\PSoC4/Counter.c **** * Return: 
 486:.\Generated_Source\PSoC4/Counter.c **** *  (uint8) Present compare value.
 487:.\Generated_Source\PSoC4/Counter.c **** *
 488:.\Generated_Source\PSoC4/Counter.c **** *******************************************************************************/
 489:.\Generated_Source\PSoC4/Counter.c **** uint8 Counter_ReadCompare(void) 
 490:.\Generated_Source\PSoC4/Counter.c **** {
 346              		.loc 1 490 0
 347              		.cfi_startproc
 491:.\Generated_Source\PSoC4/Counter.c ****     return (CY_GET_REG8(Counter_COMPARE_LSB_PTR));
 348              		.loc 1 491 0
 349 0000 014B     		ldr	r3, .L38
 492:.\Generated_Source\PSoC4/Counter.c **** }
 350              		.loc 1 492 0
ARM GAS  C:\Users\SDEVAS~1\AppData\Local\Temp\ccYUUuMD.s 			page 16


 351              		@ sp needed
 491:.\Generated_Source\PSoC4/Counter.c ****     return (CY_GET_REG8(Counter_COMPARE_LSB_PTR));
 352              		.loc 1 491 0
 353 0002 1878     		ldrb	r0, [r3]
 354 0004 C0B2     		uxtb	r0, r0
 355              		.loc 1 492 0
 356 0006 7047     		bx	lr
 357              	.L39:
 358              		.align	2
 359              	.L38:
 360 0008 32000F40 		.word	1074724914
 361              		.cfi_endproc
 362              	.LFE14:
 363              		.size	Counter_ReadCompare, .-Counter_ReadCompare
 364              		.section	.text.Counter_ClearFIFO,"ax",%progbits
 365              		.align	1
 366              		.global	Counter_ClearFIFO
 367              		.code	16
 368              		.thumb_func
 369              		.type	Counter_ClearFIFO, %function
 370              	Counter_ClearFIFO:
 371              	.LFB15:
 493:.\Generated_Source\PSoC4/Counter.c **** 
 494:.\Generated_Source\PSoC4/Counter.c **** 
 495:.\Generated_Source\PSoC4/Counter.c **** #if (Counter_COMPARE_MODE_SOFTWARE)
 496:.\Generated_Source\PSoC4/Counter.c **** /*******************************************************************************
 497:.\Generated_Source\PSoC4/Counter.c **** * Function Name: Counter_SetCompareMode
 498:.\Generated_Source\PSoC4/Counter.c **** ********************************************************************************
 499:.\Generated_Source\PSoC4/Counter.c **** * Summary:
 500:.\Generated_Source\PSoC4/Counter.c **** *  Sets the software controlled Compare Mode.
 501:.\Generated_Source\PSoC4/Counter.c **** *
 502:.\Generated_Source\PSoC4/Counter.c **** * Parameters:
 503:.\Generated_Source\PSoC4/Counter.c **** *  compareMode:  Compare Mode Enumerated Type.
 504:.\Generated_Source\PSoC4/Counter.c **** *
 505:.\Generated_Source\PSoC4/Counter.c **** * Return:
 506:.\Generated_Source\PSoC4/Counter.c **** *  void
 507:.\Generated_Source\PSoC4/Counter.c **** *
 508:.\Generated_Source\PSoC4/Counter.c **** *******************************************************************************/
 509:.\Generated_Source\PSoC4/Counter.c **** void Counter_SetCompareMode(uint8 compareMode) 
 510:.\Generated_Source\PSoC4/Counter.c **** {
 511:.\Generated_Source\PSoC4/Counter.c ****     /* Clear the compare mode bits in the control register */
 512:.\Generated_Source\PSoC4/Counter.c ****     Counter_CONTROL &= ((uint8)(~Counter_CTRL_CMPMODE_MASK));
 513:.\Generated_Source\PSoC4/Counter.c ****     
 514:.\Generated_Source\PSoC4/Counter.c ****     /* Write the new setting */
 515:.\Generated_Source\PSoC4/Counter.c ****     Counter_CONTROL |= compareMode;
 516:.\Generated_Source\PSoC4/Counter.c **** }
 517:.\Generated_Source\PSoC4/Counter.c **** #endif  /* (Counter_COMPARE_MODE_SOFTWARE) */
 518:.\Generated_Source\PSoC4/Counter.c **** 
 519:.\Generated_Source\PSoC4/Counter.c **** 
 520:.\Generated_Source\PSoC4/Counter.c **** #if (Counter_CAPTURE_MODE_SOFTWARE)
 521:.\Generated_Source\PSoC4/Counter.c **** /*******************************************************************************
 522:.\Generated_Source\PSoC4/Counter.c **** * Function Name: Counter_SetCaptureMode
 523:.\Generated_Source\PSoC4/Counter.c **** ********************************************************************************
 524:.\Generated_Source\PSoC4/Counter.c **** * Summary:
 525:.\Generated_Source\PSoC4/Counter.c **** *  Sets the software controlled Capture Mode.
 526:.\Generated_Source\PSoC4/Counter.c **** *
 527:.\Generated_Source\PSoC4/Counter.c **** * Parameters:
ARM GAS  C:\Users\SDEVAS~1\AppData\Local\Temp\ccYUUuMD.s 			page 17


 528:.\Generated_Source\PSoC4/Counter.c **** *  captureMode:  Capture Mode Enumerated Type.
 529:.\Generated_Source\PSoC4/Counter.c **** *
 530:.\Generated_Source\PSoC4/Counter.c **** * Return:
 531:.\Generated_Source\PSoC4/Counter.c **** *  void
 532:.\Generated_Source\PSoC4/Counter.c **** *
 533:.\Generated_Source\PSoC4/Counter.c **** *******************************************************************************/
 534:.\Generated_Source\PSoC4/Counter.c **** void Counter_SetCaptureMode(uint8 captureMode) 
 535:.\Generated_Source\PSoC4/Counter.c **** {
 536:.\Generated_Source\PSoC4/Counter.c ****     /* Clear the capture mode bits in the control register */
 537:.\Generated_Source\PSoC4/Counter.c ****     Counter_CONTROL &= ((uint8)(~Counter_CTRL_CAPMODE_MASK));
 538:.\Generated_Source\PSoC4/Counter.c ****     
 539:.\Generated_Source\PSoC4/Counter.c ****     /* Write the new setting */
 540:.\Generated_Source\PSoC4/Counter.c ****     Counter_CONTROL |= ((uint8)((uint8)captureMode << Counter_CTRL_CAPMODE0_SHIFT));
 541:.\Generated_Source\PSoC4/Counter.c **** }
 542:.\Generated_Source\PSoC4/Counter.c **** #endif  /* (Counter_CAPTURE_MODE_SOFTWARE) */
 543:.\Generated_Source\PSoC4/Counter.c **** 
 544:.\Generated_Source\PSoC4/Counter.c **** 
 545:.\Generated_Source\PSoC4/Counter.c **** /*******************************************************************************
 546:.\Generated_Source\PSoC4/Counter.c **** * Function Name: Counter_ClearFIFO
 547:.\Generated_Source\PSoC4/Counter.c **** ********************************************************************************
 548:.\Generated_Source\PSoC4/Counter.c **** * Summary:
 549:.\Generated_Source\PSoC4/Counter.c **** *   This function clears all capture data from the capture FIFO
 550:.\Generated_Source\PSoC4/Counter.c **** *
 551:.\Generated_Source\PSoC4/Counter.c **** * Parameters:  
 552:.\Generated_Source\PSoC4/Counter.c **** *  void:
 553:.\Generated_Source\PSoC4/Counter.c **** *
 554:.\Generated_Source\PSoC4/Counter.c **** * Return: 
 555:.\Generated_Source\PSoC4/Counter.c **** *  None
 556:.\Generated_Source\PSoC4/Counter.c **** *
 557:.\Generated_Source\PSoC4/Counter.c **** *******************************************************************************/
 558:.\Generated_Source\PSoC4/Counter.c **** void Counter_ClearFIFO(void) 
 559:.\Generated_Source\PSoC4/Counter.c **** {
 372              		.loc 1 559 0
 373              		.cfi_startproc
 374              	.L41:
 375              	.LBB16:
 376              	.LBB17:
 263:.\Generated_Source\PSoC4/Counter.c ****     return Counter_STATUS;
 377              		.loc 1 263 0 discriminator 1
 378 0000 034B     		ldr	r3, .L45
 379 0002 1B78     		ldrb	r3, [r3]
 380              	.LBE17:
 381              	.LBE16:
 560:.\Generated_Source\PSoC4/Counter.c **** 
 561:.\Generated_Source\PSoC4/Counter.c ****     while(0u != (Counter_ReadStatusRegister() & Counter_STATUS_FIFONEMP))
 382              		.loc 1 561 0 discriminator 1
 383 0004 5A06     		lsl	r2, r3, #25
 384 0006 02D5     		bpl	.L44
 385              	.LBB18:
 386              	.LBB19:
 395:.\Generated_Source\PSoC4/Counter.c ****         return (CY_GET_REG8(Counter_STATICCOUNT_LSB_PTR));
 387              		.loc 1 395 0
 388 0008 024B     		ldr	r3, .L45+4
 389 000a 1B78     		ldrb	r3, [r3]
 390 000c F8E7     		b	.L41
 391              	.L44:
 392              	.LBE19:
ARM GAS  C:\Users\SDEVAS~1\AppData\Local\Temp\ccYUUuMD.s 			page 18


 393              	.LBE18:
 562:.\Generated_Source\PSoC4/Counter.c ****     {
 563:.\Generated_Source\PSoC4/Counter.c ****         (void)Counter_ReadCapture();
 564:.\Generated_Source\PSoC4/Counter.c ****     }
 565:.\Generated_Source\PSoC4/Counter.c **** 
 566:.\Generated_Source\PSoC4/Counter.c **** }
 394              		.loc 1 566 0
 395              		@ sp needed
 396 000e 7047     		bx	lr
 397              	.L46:
 398              		.align	2
 399              	.L45:
 400 0010 62000F40 		.word	1074724962
 401 0014 42000F40 		.word	1074724930
 402              		.cfi_endproc
 403              	.LFE15:
 404              		.size	Counter_ClearFIFO, .-Counter_ClearFIFO
 405              		.section	.text.Counter_Init,"ax",%progbits
 406              		.align	1
 407              		.global	Counter_Init
 408              		.code	16
 409              		.thumb_func
 410              		.type	Counter_Init, %function
 411              	Counter_Init:
 412              	.LFB0:
  38:.\Generated_Source\PSoC4/Counter.c **** {
 413              		.loc 1 38 0
 414              		.cfi_startproc
 415 0000 08B5     		push	{r3, lr}
 416              		.cfi_def_cfa_offset 8
 417              		.cfi_offset 3, -8
 418              		.cfi_offset 14, -4
  79:.\Generated_Source\PSoC4/Counter.c ****             ctrl = Counter_CONTROL & ((uint8)(~Counter_CTRL_CMPMODE_MASK));
 419              		.loc 1 79 0
 420 0002 124B     		ldr	r3, .L48
 421 0004 0721     		mov	r1, #7
 422 0006 1A78     		ldrb	r2, [r3]
 423              	.LVL5:
 123:.\Generated_Source\PSoC4/Counter.c **** }
 424              		.loc 1 123 0
 425              		@ sp needed
  79:.\Generated_Source\PSoC4/Counter.c ****             ctrl = Counter_CONTROL & ((uint8)(~Counter_CTRL_CMPMODE_MASK));
 426              		.loc 1 79 0
 427 0008 8A43     		bic	r2, r1
 428              	.LVL6:
  80:.\Generated_Source\PSoC4/Counter.c ****             Counter_CONTROL = ctrl | Counter_DEFAULT_COMPARE_MODE;
 429              		.loc 1 80 0
 430 000a 0121     		mov	r1, #1
 431 000c 0A43     		orr	r2, r1
 432 000e 1A70     		strb	r2, [r3]
  83:.\Generated_Source\PSoC4/Counter.c ****             ctrl = Counter_CONTROL & ((uint8)(~Counter_CTRL_CAPMODE_MASK));
 433              		.loc 1 83 0
 434 0010 1A78     		ldrb	r2, [r3]
 435 0012 0321     		mov	r1, #3
 436 0014 8A43     		bic	r2, r1
 437              	.LVL7:
  88:.\Generated_Source\PSoC4/Counter.c ****                 Counter_CONTROL = ctrl;
ARM GAS  C:\Users\SDEVAS~1\AppData\Local\Temp\ccYUUuMD.s 			page 19


 438              		.loc 1 88 0
 439 0016 1A70     		strb	r2, [r3]
  96:.\Generated_Source\PSoC4/Counter.c ****             Counter_ClearFIFO();
 440              		.loc 1 96 0
 441 0018 FFF7FEFF 		bl	Counter_ClearFIFO
 442              	.LVL8:
 443              	.LBB20:
 444              	.LBB21:
 420:.\Generated_Source\PSoC4/Counter.c ****         CY_SET_REG8(Counter_PERIOD_LSB_PTR, period);
 445              		.loc 1 420 0
 446 001c 0C4B     		ldr	r3, .L48+4
 447 001e FF22     		mov	r2, #255
 448 0020 1A70     		strb	r2, [r3]
 449              	.LVL9:
 450              	.LBE21:
 451              	.LBE20:
 452              	.LBB22:
 453              	.LBB23:
 337:.\Generated_Source\PSoC4/Counter.c ****         CY_SET_REG8(Counter_COUNTER_LSB_PTR, counter);
 454              		.loc 1 337 0
 455 0022 0C4A     		ldr	r2, .L48+8
 456 0024 0023     		mov	r3, #0
 457 0026 1370     		strb	r3, [r2]
 458              	.LVL10:
 459              	.LBE23:
 460              	.LBE22:
 461              	.LBB24:
 462              	.LBB25:
 239:.\Generated_Source\PSoC4/Counter.c ****     Counter_STATUS_MASK = interruptsMask;
 463              		.loc 1 239 0
 464 0028 0B4A     		ldr	r2, .L48+12
 465 002a 1370     		strb	r3, [r2]
 466              	.LBE25:
 467              	.LBE24:
 468              	.LBB26:
 469              	.LBB27:
 263:.\Generated_Source\PSoC4/Counter.c ****     return Counter_STATUS;
 470              		.loc 1 263 0
 471 002c 0B4B     		ldr	r3, .L48+16
 472              	.LBE27:
 473              	.LBE26:
 474              	.LBB29:
 475              	.LBB30:
 471:.\Generated_Source\PSoC4/Counter.c ****         CY_SET_REG8(Counter_COMPARE_LSB_PTR, compare);
 476              		.loc 1 471 0
 477 002e 8022     		mov	r2, #128
 478              	.LBE30:
 479              	.LBE29:
 480              	.LBB32:
 481              	.LBB28:
 263:.\Generated_Source\PSoC4/Counter.c ****     return Counter_STATUS;
 482              		.loc 1 263 0
 483 0030 1B78     		ldrb	r3, [r3]
 484              	.LVL11:
 485              	.LBE28:
 486              	.LBE32:
 487              	.LBB33:
ARM GAS  C:\Users\SDEVAS~1\AppData\Local\Temp\ccYUUuMD.s 			page 20


 488              	.LBB31:
 471:.\Generated_Source\PSoC4/Counter.c ****         CY_SET_REG8(Counter_COMPARE_LSB_PTR, compare);
 489              		.loc 1 471 0
 490 0032 0B4B     		ldr	r3, .L48+20
 491 0034 1A70     		strb	r2, [r3]
 492              	.LBE31:
 493              	.LBE33:
 115:.\Generated_Source\PSoC4/Counter.c ****             Counter_interruptState = CyEnterCriticalSection();
 494              		.loc 1 115 0
 495 0036 FFF7FEFF 		bl	CyEnterCriticalSection
 496              	.LVL12:
 117:.\Generated_Source\PSoC4/Counter.c ****             Counter_STATUS_AUX_CTRL |= Counter_STATUS_ACTL_INT_EN_MASK;
 497              		.loc 1 117 0
 498 003a 0A4B     		ldr	r3, .L48+24
 499 003c 1021     		mov	r1, #16
 500 003e 1A78     		ldrb	r2, [r3]
 501 0040 0A43     		orr	r2, r1
 502 0042 1A70     		strb	r2, [r3]
 120:.\Generated_Source\PSoC4/Counter.c ****             CyExitCriticalSection(Counter_interruptState);
 503              		.loc 1 120 0
 504 0044 FFF7FEFF 		bl	CyExitCriticalSection
 505              	.LVL13:
 123:.\Generated_Source\PSoC4/Counter.c **** }
 506              		.loc 1 123 0
 507 0048 08BD     		pop	{r3, pc}
 508              	.L49:
 509 004a C046     		.align	2
 510              	.L48:
 511 004c 72000F40 		.word	1074724978
 512 0050 22000F40 		.word	1074724898
 513 0054 02000F40 		.word	1074724866
 514 0058 82000F40 		.word	1074724994
 515 005c 62000F40 		.word	1074724962
 516 0060 32000F40 		.word	1074724914
 517 0064 92000F40 		.word	1074725010
 518              		.cfi_endproc
 519              	.LFE0:
 520              		.size	Counter_Init, .-Counter_Init
 521              		.section	.text.Counter_Start,"ax",%progbits
 522              		.align	1
 523              		.global	Counter_Start
 524              		.code	16
 525              		.thumb_func
 526              		.type	Counter_Start, %function
 527              	Counter_Start:
 528              	.LFB2:
 179:.\Generated_Source\PSoC4/Counter.c **** {
 529              		.loc 1 179 0
 530              		.cfi_startproc
 531 0000 10B5     		push	{r4, lr}
 532              		.cfi_def_cfa_offset 8
 533              		.cfi_offset 4, -8
 534              		.cfi_offset 14, -4
 180:.\Generated_Source\PSoC4/Counter.c ****     if(Counter_initVar == 0u)
 535              		.loc 1 180 0
 536 0002 054C     		ldr	r4, .L52
 537 0004 2378     		ldrb	r3, [r4]
ARM GAS  C:\Users\SDEVAS~1\AppData\Local\Temp\ccYUUuMD.s 			page 21


 538 0006 002B     		cmp	r3, #0
 539 0008 03D1     		bne	.L51
 182:.\Generated_Source\PSoC4/Counter.c ****         Counter_Init();
 540              		.loc 1 182 0
 541 000a FFF7FEFF 		bl	Counter_Init
 542              	.LVL14:
 184:.\Generated_Source\PSoC4/Counter.c ****         Counter_initVar = 1u; /* Clear this bit for Initialization */        
 543              		.loc 1 184 0
 544 000e 0123     		mov	r3, #1
 545 0010 2370     		strb	r3, [r4]
 546              	.L51:
 188:.\Generated_Source\PSoC4/Counter.c ****     Counter_Enable();        
 547              		.loc 1 188 0
 548 0012 FFF7FEFF 		bl	Counter_Enable
 549              	.LVL15:
 189:.\Generated_Source\PSoC4/Counter.c **** }
 550              		.loc 1 189 0
 551              		@ sp needed
 552 0016 10BD     		pop	{r4, pc}
 553              	.L53:
 554              		.align	2
 555              	.L52:
 556 0018 00000000 		.word	.LANCHOR0
 557              		.cfi_endproc
 558              	.LFE2:
 559              		.size	Counter_Start, .-Counter_Start
 560              		.global	Counter_initVar
 561              		.bss
 562              		.set	.LANCHOR0,. + 0
 563              		.type	Counter_initVar, %object
 564              		.size	Counter_initVar, 1
 565              	Counter_initVar:
 566 0000 00       		.space	1
 567              		.text
 568              	.Letext0:
 569              		.file 2 ".\\Generated_Source\\PSoC4\\cytypes.h"
 570              		.file 3 ".\\Generated_Source\\PSoC4\\CyLib.h"