ARM GAS  C:\Users\SDEVAS~1\AppData\Local\Temp\ccKiIaRi.s 			page 1


   1              		.cpu cortex-m0
   2              		.fpu softvfp
   3              		.eabi_attribute 20, 1
   4              		.eabi_attribute 21, 1
   5              		.eabi_attribute 23, 3
   6              		.eabi_attribute 24, 1
   7              		.eabi_attribute 25, 1
   8              		.eabi_attribute 26, 1
   9              		.eabi_attribute 30, 4
  10              		.eabi_attribute 34, 0
  11              		.eabi_attribute 18, 4
  12              		.code	16
  13              		.file	"cyfitter_cfg.c"
  14              		.text
  15              	.Ltext0:
  16              		.cfi_sections	.debug_frame
  17              		.section	.text.SetAnalogRoutingPumps,"ax",%progbits
  18              		.align	1
  19              		.global	SetAnalogRoutingPumps
  20              		.code	16
  21              		.thumb_func
  22              		.type	SetAnalogRoutingPumps, %function
  23              	SetAnalogRoutingPumps:
  24              	.LFB6:
  25              		.file 1 ".\\Generated_Source\\PSoC4\\cyfitter_cfg.c"
   1:.\Generated_Source\PSoC4/cyfitter_cfg.c **** /*******************************************************************************
   2:.\Generated_Source\PSoC4/cyfitter_cfg.c **** * FILENAME: cyfitter_cfg.c
   3:.\Generated_Source\PSoC4/cyfitter_cfg.c **** * 
   4:.\Generated_Source\PSoC4/cyfitter_cfg.c **** * PSoC Creator  3.2
   5:.\Generated_Source\PSoC4/cyfitter_cfg.c **** *
   6:.\Generated_Source\PSoC4/cyfitter_cfg.c **** * DESCRIPTION:
   7:.\Generated_Source\PSoC4/cyfitter_cfg.c **** * This file contains device initialization code.
   8:.\Generated_Source\PSoC4/cyfitter_cfg.c **** * Except for the user defined sections in CyClockStartupError(), this file should not be modified.
   9:.\Generated_Source\PSoC4/cyfitter_cfg.c **** * This file is automatically generated by PSoC Creator.
  10:.\Generated_Source\PSoC4/cyfitter_cfg.c **** *
  11:.\Generated_Source\PSoC4/cyfitter_cfg.c **** ********************************************************************************
  12:.\Generated_Source\PSoC4/cyfitter_cfg.c **** * Copyright (c) 2007-2015 Cypress Semiconductor.  All rights reserved.
  13:.\Generated_Source\PSoC4/cyfitter_cfg.c **** * You may use this file only in accordance with the license, terms, conditions, 
  14:.\Generated_Source\PSoC4/cyfitter_cfg.c **** * disclaimers, and limitations in the end user license agreement accompanying 
  15:.\Generated_Source\PSoC4/cyfitter_cfg.c **** * the software package with which this file was provided.
  16:.\Generated_Source\PSoC4/cyfitter_cfg.c **** ********************************************************************************/
  17:.\Generated_Source\PSoC4/cyfitter_cfg.c **** 
  18:.\Generated_Source\PSoC4/cyfitter_cfg.c **** #include <string.h>
  19:.\Generated_Source\PSoC4/cyfitter_cfg.c **** #include "cytypes.h"
  20:.\Generated_Source\PSoC4/cyfitter_cfg.c **** #include "cydevice_trm.h"
  21:.\Generated_Source\PSoC4/cyfitter_cfg.c **** #include "cyfitter.h"
  22:.\Generated_Source\PSoC4/cyfitter_cfg.c **** #include "CyLib.h"
  23:.\Generated_Source\PSoC4/cyfitter_cfg.c **** #include "cyfitter_cfg.h"
  24:.\Generated_Source\PSoC4/cyfitter_cfg.c **** 
  25:.\Generated_Source\PSoC4/cyfitter_cfg.c **** 
  26:.\Generated_Source\PSoC4/cyfitter_cfg.c **** #if defined(__GNUC__) || defined(__ARMCC_VERSION)
  27:.\Generated_Source\PSoC4/cyfitter_cfg.c ****     #define CYPACKED 
  28:.\Generated_Source\PSoC4/cyfitter_cfg.c ****     #define CYPACKED_ATTR __attribute__ ((packed))
  29:.\Generated_Source\PSoC4/cyfitter_cfg.c ****     #define CYALIGNED __attribute__ ((aligned))
  30:.\Generated_Source\PSoC4/cyfitter_cfg.c ****     #define CY_CFG_UNUSED __attribute__ ((unused))
  31:.\Generated_Source\PSoC4/cyfitter_cfg.c ****     #define CY_CFG_SECTION __attribute__ ((section(".psocinit")))
  32:.\Generated_Source\PSoC4/cyfitter_cfg.c ****     
ARM GAS  C:\Users\SDEVAS~1\AppData\Local\Temp\ccKiIaRi.s 			page 2


  33:.\Generated_Source\PSoC4/cyfitter_cfg.c ****     #if defined(__ARMCC_VERSION)
  34:.\Generated_Source\PSoC4/cyfitter_cfg.c ****         #define CY_CFG_MEMORY_BARRIER() __memory_changed()
  35:.\Generated_Source\PSoC4/cyfitter_cfg.c ****     #else
  36:.\Generated_Source\PSoC4/cyfitter_cfg.c ****         #define CY_CFG_MEMORY_BARRIER() __sync_synchronize()
  37:.\Generated_Source\PSoC4/cyfitter_cfg.c ****     #endif
  38:.\Generated_Source\PSoC4/cyfitter_cfg.c ****     
  39:.\Generated_Source\PSoC4/cyfitter_cfg.c **** #elif defined(__ICCARM__)
  40:.\Generated_Source\PSoC4/cyfitter_cfg.c ****     #include <intrinsics.h>
  41:.\Generated_Source\PSoC4/cyfitter_cfg.c **** 
  42:.\Generated_Source\PSoC4/cyfitter_cfg.c ****     #define CYPACKED __packed
  43:.\Generated_Source\PSoC4/cyfitter_cfg.c ****     #define CYPACKED_ATTR 
  44:.\Generated_Source\PSoC4/cyfitter_cfg.c ****     #define CYALIGNED _Pragma("data_alignment=4")
  45:.\Generated_Source\PSoC4/cyfitter_cfg.c ****     #define CY_CFG_UNUSED _Pragma("diag_suppress=Pe177")
  46:.\Generated_Source\PSoC4/cyfitter_cfg.c ****     #define CY_CFG_SECTION _Pragma("location=\".psocinit\"")
  47:.\Generated_Source\PSoC4/cyfitter_cfg.c ****     
  48:.\Generated_Source\PSoC4/cyfitter_cfg.c ****     #define CY_CFG_MEMORY_BARRIER() __DMB()
  49:.\Generated_Source\PSoC4/cyfitter_cfg.c ****     
  50:.\Generated_Source\PSoC4/cyfitter_cfg.c **** #else
  51:.\Generated_Source\PSoC4/cyfitter_cfg.c ****     #error Unsupported toolchain
  52:.\Generated_Source\PSoC4/cyfitter_cfg.c **** #endif
  53:.\Generated_Source\PSoC4/cyfitter_cfg.c **** 
  54:.\Generated_Source\PSoC4/cyfitter_cfg.c **** 
  55:.\Generated_Source\PSoC4/cyfitter_cfg.c **** CY_CFG_UNUSED
  56:.\Generated_Source\PSoC4/cyfitter_cfg.c **** static void CYMEMZERO(void *s, size_t n);
  57:.\Generated_Source\PSoC4/cyfitter_cfg.c **** CY_CFG_UNUSED
  58:.\Generated_Source\PSoC4/cyfitter_cfg.c **** static void CYMEMZERO(void *s, size_t n)
  59:.\Generated_Source\PSoC4/cyfitter_cfg.c **** {
  60:.\Generated_Source\PSoC4/cyfitter_cfg.c **** 	(void)memset(s, 0, n);
  61:.\Generated_Source\PSoC4/cyfitter_cfg.c **** }
  62:.\Generated_Source\PSoC4/cyfitter_cfg.c **** CY_CFG_UNUSED
  63:.\Generated_Source\PSoC4/cyfitter_cfg.c **** static void CYCONFIGCPY(void *dest, const void *src, size_t n);
  64:.\Generated_Source\PSoC4/cyfitter_cfg.c **** CY_CFG_UNUSED
  65:.\Generated_Source\PSoC4/cyfitter_cfg.c **** static void CYCONFIGCPY(void *dest, const void *src, size_t n)
  66:.\Generated_Source\PSoC4/cyfitter_cfg.c **** {
  67:.\Generated_Source\PSoC4/cyfitter_cfg.c **** 	(void)memcpy(dest, src, n);
  68:.\Generated_Source\PSoC4/cyfitter_cfg.c **** }
  69:.\Generated_Source\PSoC4/cyfitter_cfg.c **** CY_CFG_UNUSED
  70:.\Generated_Source\PSoC4/cyfitter_cfg.c **** static void CYCONFIGCPYCODE(void *dest, const void *src, size_t n);
  71:.\Generated_Source\PSoC4/cyfitter_cfg.c **** CY_CFG_UNUSED
  72:.\Generated_Source\PSoC4/cyfitter_cfg.c **** static void CYCONFIGCPYCODE(void *dest, const void *src, size_t n)
  73:.\Generated_Source\PSoC4/cyfitter_cfg.c **** {
  74:.\Generated_Source\PSoC4/cyfitter_cfg.c **** 	(void)memcpy(dest, src, n);
  75:.\Generated_Source\PSoC4/cyfitter_cfg.c **** }
  76:.\Generated_Source\PSoC4/cyfitter_cfg.c **** 
  77:.\Generated_Source\PSoC4/cyfitter_cfg.c **** 
  78:.\Generated_Source\PSoC4/cyfitter_cfg.c **** 
  79:.\Generated_Source\PSoC4/cyfitter_cfg.c **** /* Clock startup error codes                                                   */
  80:.\Generated_Source\PSoC4/cyfitter_cfg.c **** #define CYCLOCKSTART_NO_ERROR    0u
  81:.\Generated_Source\PSoC4/cyfitter_cfg.c **** #define CYCLOCKSTART_XTAL_ERROR  1u
  82:.\Generated_Source\PSoC4/cyfitter_cfg.c **** #define CYCLOCKSTART_32KHZ_ERROR 2u
  83:.\Generated_Source\PSoC4/cyfitter_cfg.c **** #define CYCLOCKSTART_PLL_ERROR   3u
  84:.\Generated_Source\PSoC4/cyfitter_cfg.c **** 
  85:.\Generated_Source\PSoC4/cyfitter_cfg.c **** #ifdef CY_NEED_CYCLOCKSTARTUPERROR
  86:.\Generated_Source\PSoC4/cyfitter_cfg.c **** /*******************************************************************************
  87:.\Generated_Source\PSoC4/cyfitter_cfg.c **** * Function Name: CyClockStartupError
  88:.\Generated_Source\PSoC4/cyfitter_cfg.c **** ********************************************************************************
  89:.\Generated_Source\PSoC4/cyfitter_cfg.c **** * Summary:
ARM GAS  C:\Users\SDEVAS~1\AppData\Local\Temp\ccKiIaRi.s 			page 3


  90:.\Generated_Source\PSoC4/cyfitter_cfg.c **** *  If an error is encountered during clock configuration (crystal startup error,
  91:.\Generated_Source\PSoC4/cyfitter_cfg.c **** *  PLL lock error, etc.), the system will end up here.  Unless reimplemented by
  92:.\Generated_Source\PSoC4/cyfitter_cfg.c **** *  the customer, this function will stop in an infinite loop.
  93:.\Generated_Source\PSoC4/cyfitter_cfg.c **** *
  94:.\Generated_Source\PSoC4/cyfitter_cfg.c **** * Parameters:
  95:.\Generated_Source\PSoC4/cyfitter_cfg.c **** *   void
  96:.\Generated_Source\PSoC4/cyfitter_cfg.c **** *
  97:.\Generated_Source\PSoC4/cyfitter_cfg.c **** * Return:
  98:.\Generated_Source\PSoC4/cyfitter_cfg.c **** *   void
  99:.\Generated_Source\PSoC4/cyfitter_cfg.c **** *
 100:.\Generated_Source\PSoC4/cyfitter_cfg.c **** *******************************************************************************/
 101:.\Generated_Source\PSoC4/cyfitter_cfg.c **** CY_CFG_UNUSED
 102:.\Generated_Source\PSoC4/cyfitter_cfg.c **** static void CyClockStartupError(uint8 errorCode);
 103:.\Generated_Source\PSoC4/cyfitter_cfg.c **** CY_CFG_UNUSED
 104:.\Generated_Source\PSoC4/cyfitter_cfg.c **** static void CyClockStartupError(uint8 errorCode)
 105:.\Generated_Source\PSoC4/cyfitter_cfg.c **** {
 106:.\Generated_Source\PSoC4/cyfitter_cfg.c ****     /* To remove the compiler warning if errorCode not used.                */
 107:.\Generated_Source\PSoC4/cyfitter_cfg.c ****     errorCode = errorCode;
 108:.\Generated_Source\PSoC4/cyfitter_cfg.c **** 
 109:.\Generated_Source\PSoC4/cyfitter_cfg.c ****     /* `#START CyClockStartupError` */
 110:.\Generated_Source\PSoC4/cyfitter_cfg.c **** 
 111:.\Generated_Source\PSoC4/cyfitter_cfg.c ****     /* If we have a clock startup error (bad MHz crystal, PLL lock, etc.),  */
 112:.\Generated_Source\PSoC4/cyfitter_cfg.c ****     /* we will end up here to allow the customer to implement something to  */
 113:.\Generated_Source\PSoC4/cyfitter_cfg.c ****     /* deal with the clock condition.                                       */
 114:.\Generated_Source\PSoC4/cyfitter_cfg.c **** 
 115:.\Generated_Source\PSoC4/cyfitter_cfg.c ****     /* `#END` */
 116:.\Generated_Source\PSoC4/cyfitter_cfg.c **** 
 117:.\Generated_Source\PSoC4/cyfitter_cfg.c ****     /* If nothing else, stop here since the clocks have not started         */
 118:.\Generated_Source\PSoC4/cyfitter_cfg.c ****     /* correctly.                                                           */
 119:.\Generated_Source\PSoC4/cyfitter_cfg.c ****     while(1) {}
 120:.\Generated_Source\PSoC4/cyfitter_cfg.c **** }
 121:.\Generated_Source\PSoC4/cyfitter_cfg.c **** #endif
 122:.\Generated_Source\PSoC4/cyfitter_cfg.c **** 
 123:.\Generated_Source\PSoC4/cyfitter_cfg.c **** #define CY_CFG_BASE_ADDR_COUNT 8u
 124:.\Generated_Source\PSoC4/cyfitter_cfg.c **** CYPACKED typedef struct
 125:.\Generated_Source\PSoC4/cyfitter_cfg.c **** {
 126:.\Generated_Source\PSoC4/cyfitter_cfg.c **** 	uint8 offset;
 127:.\Generated_Source\PSoC4/cyfitter_cfg.c **** 	uint8 value;
 128:.\Generated_Source\PSoC4/cyfitter_cfg.c **** } CYPACKED_ATTR cy_cfg_addrvalue_t;
 129:.\Generated_Source\PSoC4/cyfitter_cfg.c **** 
 130:.\Generated_Source\PSoC4/cyfitter_cfg.c **** 
 131:.\Generated_Source\PSoC4/cyfitter_cfg.c **** 
 132:.\Generated_Source\PSoC4/cyfitter_cfg.c **** /*******************************************************************************
 133:.\Generated_Source\PSoC4/cyfitter_cfg.c **** * Function Name: cfg_write_bytes32
 134:.\Generated_Source\PSoC4/cyfitter_cfg.c **** ********************************************************************************
 135:.\Generated_Source\PSoC4/cyfitter_cfg.c **** * Summary:
 136:.\Generated_Source\PSoC4/cyfitter_cfg.c **** *  This function is used for setting up the chip configuration areas that
 137:.\Generated_Source\PSoC4/cyfitter_cfg.c **** *  contain relatively sparse data.
 138:.\Generated_Source\PSoC4/cyfitter_cfg.c **** *
 139:.\Generated_Source\PSoC4/cyfitter_cfg.c **** * Parameters:
 140:.\Generated_Source\PSoC4/cyfitter_cfg.c **** *   void
 141:.\Generated_Source\PSoC4/cyfitter_cfg.c **** *
 142:.\Generated_Source\PSoC4/cyfitter_cfg.c **** * Return:
 143:.\Generated_Source\PSoC4/cyfitter_cfg.c **** *   void
 144:.\Generated_Source\PSoC4/cyfitter_cfg.c **** *
 145:.\Generated_Source\PSoC4/cyfitter_cfg.c **** *******************************************************************************/
 146:.\Generated_Source\PSoC4/cyfitter_cfg.c **** static void cfg_write_bytes32(const uint32 addr_table[], const cy_cfg_addrvalue_t data_table[]);
ARM GAS  C:\Users\SDEVAS~1\AppData\Local\Temp\ccKiIaRi.s 			page 4


 147:.\Generated_Source\PSoC4/cyfitter_cfg.c **** static void cfg_write_bytes32(const uint32 addr_table[], const cy_cfg_addrvalue_t data_table[])
 148:.\Generated_Source\PSoC4/cyfitter_cfg.c **** {
 149:.\Generated_Source\PSoC4/cyfitter_cfg.c **** 	/* For 32-bit little-endian architectures */
 150:.\Generated_Source\PSoC4/cyfitter_cfg.c **** 	uint32 i, j = 0u;
 151:.\Generated_Source\PSoC4/cyfitter_cfg.c **** 	for (i = 0u; i < CY_CFG_BASE_ADDR_COUNT; i++)
 152:.\Generated_Source\PSoC4/cyfitter_cfg.c **** 	{
 153:.\Generated_Source\PSoC4/cyfitter_cfg.c **** 		uint32 baseAddr = addr_table[i];
 154:.\Generated_Source\PSoC4/cyfitter_cfg.c **** 		uint8 count = (uint8)baseAddr;
 155:.\Generated_Source\PSoC4/cyfitter_cfg.c **** 		baseAddr &= 0xFFFFFF00u;
 156:.\Generated_Source\PSoC4/cyfitter_cfg.c **** 		while (count != 0u)
 157:.\Generated_Source\PSoC4/cyfitter_cfg.c **** 		{
 158:.\Generated_Source\PSoC4/cyfitter_cfg.c **** 			CY_SET_XTND_REG8((void CYFAR *)(baseAddr + data_table[j].offset), data_table[j].value);
 159:.\Generated_Source\PSoC4/cyfitter_cfg.c **** 			j++;
 160:.\Generated_Source\PSoC4/cyfitter_cfg.c **** 			count--;
 161:.\Generated_Source\PSoC4/cyfitter_cfg.c **** 		}
 162:.\Generated_Source\PSoC4/cyfitter_cfg.c **** 	}
 163:.\Generated_Source\PSoC4/cyfitter_cfg.c **** }
 164:.\Generated_Source\PSoC4/cyfitter_cfg.c **** 
 165:.\Generated_Source\PSoC4/cyfitter_cfg.c **** 
 166:.\Generated_Source\PSoC4/cyfitter_cfg.c **** /*******************************************************************************
 167:.\Generated_Source\PSoC4/cyfitter_cfg.c **** * Function Name: ClockSetup
 168:.\Generated_Source\PSoC4/cyfitter_cfg.c **** ********************************************************************************
 169:.\Generated_Source\PSoC4/cyfitter_cfg.c **** *
 170:.\Generated_Source\PSoC4/cyfitter_cfg.c **** * Summary:
 171:.\Generated_Source\PSoC4/cyfitter_cfg.c **** *   Performs the initialization of all of the clocks in the device based on the
 172:.\Generated_Source\PSoC4/cyfitter_cfg.c **** *   settings in the Clock tab of the DWR.  This includes enabling the requested
 173:.\Generated_Source\PSoC4/cyfitter_cfg.c **** *   clocks and setting the necessary dividers to produce the desired frequency. 
 174:.\Generated_Source\PSoC4/cyfitter_cfg.c **** *
 175:.\Generated_Source\PSoC4/cyfitter_cfg.c **** * Parameters:
 176:.\Generated_Source\PSoC4/cyfitter_cfg.c **** *   void
 177:.\Generated_Source\PSoC4/cyfitter_cfg.c **** *
 178:.\Generated_Source\PSoC4/cyfitter_cfg.c **** * Return:
 179:.\Generated_Source\PSoC4/cyfitter_cfg.c **** *   void
 180:.\Generated_Source\PSoC4/cyfitter_cfg.c **** *
 181:.\Generated_Source\PSoC4/cyfitter_cfg.c **** *******************************************************************************/
 182:.\Generated_Source\PSoC4/cyfitter_cfg.c **** static void ClockSetup(void);
 183:.\Generated_Source\PSoC4/cyfitter_cfg.c **** CY_CFG_SECTION
 184:.\Generated_Source\PSoC4/cyfitter_cfg.c **** static void ClockSetup(void)
 185:.\Generated_Source\PSoC4/cyfitter_cfg.c **** {
 186:.\Generated_Source\PSoC4/cyfitter_cfg.c **** 	/* Enable HALF_EN before trimming for the flash accelerator. */
 187:.\Generated_Source\PSoC4/cyfitter_cfg.c **** 	CY_SET_REG32((void CYXDATA *)(CYREG_CLK_SELECT), (CY_GET_REG32((void *)CYREG_CLK_SELECT) | 0x00040
 188:.\Generated_Source\PSoC4/cyfitter_cfg.c **** 
 189:.\Generated_Source\PSoC4/cyfitter_cfg.c **** 	/* Setup and trim IMO based on desired frequency. */
 190:.\Generated_Source\PSoC4/cyfitter_cfg.c **** 	CySysClkWriteImoFreq(24u);
 191:.\Generated_Source\PSoC4/cyfitter_cfg.c **** 
 192:.\Generated_Source\PSoC4/cyfitter_cfg.c **** 	/* Disable HALF_EN since it is not required at this IMO frequency. */
 193:.\Generated_Source\PSoC4/cyfitter_cfg.c **** 	CY_SET_REG32((void CYXDATA *)(CYREG_CLK_SELECT), (CY_GET_REG32((void *)CYREG_CLK_SELECT) & 0xFFFBF
 194:.\Generated_Source\PSoC4/cyfitter_cfg.c **** 	/* CYDEV_CLK_ILO_CONFIG Starting address: CYDEV_CLK_ILO_CONFIG */
 195:.\Generated_Source\PSoC4/cyfitter_cfg.c **** 	CY_SET_XTND_REG32((void CYFAR *)(CYREG_CLK_ILO_CONFIG), 0x80000006u);
 196:.\Generated_Source\PSoC4/cyfitter_cfg.c **** 
 197:.\Generated_Source\PSoC4/cyfitter_cfg.c **** 
 198:.\Generated_Source\PSoC4/cyfitter_cfg.c **** 	/* CYDEV_CLK_SELECT00 Starting address: CYDEV_CLK_SELECT00 */
 199:.\Generated_Source\PSoC4/cyfitter_cfg.c **** 	CY_SET_XTND_REG32((void CYFAR *)(CYREG_CLK_SELECT02), 0x00000020u);
 200:.\Generated_Source\PSoC4/cyfitter_cfg.c **** 	CY_SET_XTND_REG32((void CYFAR *)(CYREG_CLK_SELECT03), 0x00000030u);
 201:.\Generated_Source\PSoC4/cyfitter_cfg.c **** 	CY_SET_XTND_REG32((void CYFAR *)(CYREG_CLK_SELECT07), 0x00000010u);
 202:.\Generated_Source\PSoC4/cyfitter_cfg.c **** 	CY_SET_XTND_REG32((void CYFAR *)(CYREG_CLK_SELECT13), 0x00000011u);
 203:.\Generated_Source\PSoC4/cyfitter_cfg.c **** 	CY_SET_XTND_REG32((void CYFAR *)(CYREG_CLK_SELECT15), 0x00000021u);
ARM GAS  C:\Users\SDEVAS~1\AppData\Local\Temp\ccKiIaRi.s 			page 5


 204:.\Generated_Source\PSoC4/cyfitter_cfg.c **** 
 205:.\Generated_Source\PSoC4/cyfitter_cfg.c **** 	/* CYDEV_CLK_IMO_CONFIG Starting address: CYDEV_CLK_IMO_CONFIG */
 206:.\Generated_Source\PSoC4/cyfitter_cfg.c **** 	CY_SET_XTND_REG32((void CYFAR *)(CYREG_CLK_IMO_CONFIG), 0x82000000u);
 207:.\Generated_Source\PSoC4/cyfitter_cfg.c **** 
 208:.\Generated_Source\PSoC4/cyfitter_cfg.c **** 	/* CYDEV_CLK_DIVIDER_A00 Starting address: CYDEV_CLK_DIVIDER_A00 */
 209:.\Generated_Source\PSoC4/cyfitter_cfg.c **** 	CY_SET_XTND_REG32((void CYFAR *)(CYREG_CLK_DIVIDER_A00), 0x80000003u);
 210:.\Generated_Source\PSoC4/cyfitter_cfg.c **** 
 211:.\Generated_Source\PSoC4/cyfitter_cfg.c **** 	/* CYDEV_CLK_DIVIDER_B00 Starting address: CYDEV_CLK_DIVIDER_B00 */
 212:.\Generated_Source\PSoC4/cyfitter_cfg.c **** 	CY_SET_XTND_REG32((void CYFAR *)(CYREG_CLK_DIVIDER_B00), 0x80000010u);
 213:.\Generated_Source\PSoC4/cyfitter_cfg.c **** 
 214:.\Generated_Source\PSoC4/cyfitter_cfg.c **** 	/* CYDEV_CLK_DIVIDER_C00 Starting address: CYDEV_CLK_DIVIDER_C00 */
 215:.\Generated_Source\PSoC4/cyfitter_cfg.c **** 	CY_SET_XTND_REG32((void CYFAR *)(CYREG_CLK_DIVIDER_C00), 0x80000010u);
 216:.\Generated_Source\PSoC4/cyfitter_cfg.c **** 
 217:.\Generated_Source\PSoC4/cyfitter_cfg.c **** 	/* CYDEV_CLK_DIVIDER_A01 Starting address: CYDEV_CLK_DIVIDER_A01 */
 218:.\Generated_Source\PSoC4/cyfitter_cfg.c **** 	CY_SET_XTND_REG32((void CYFAR *)(CYREG_CLK_DIVIDER_A01), 0x80000017u);
 219:.\Generated_Source\PSoC4/cyfitter_cfg.c **** 
 220:.\Generated_Source\PSoC4/cyfitter_cfg.c **** 	/* CYDEV_CLK_DIVIDER_B01 Starting address: CYDEV_CLK_DIVIDER_B01 */
 221:.\Generated_Source\PSoC4/cyfitter_cfg.c **** 	CY_SET_XTND_REG32((void CYFAR *)(CYREG_CLK_DIVIDER_B01), 0x80002EDFu);
 222:.\Generated_Source\PSoC4/cyfitter_cfg.c **** 
 223:.\Generated_Source\PSoC4/cyfitter_cfg.c **** 	CY_SET_XTND_REG32((void CYFAR *)(CYREG_WDT_CONFIG), 0x00000000u);
 224:.\Generated_Source\PSoC4/cyfitter_cfg.c **** }
 225:.\Generated_Source\PSoC4/cyfitter_cfg.c **** 
 226:.\Generated_Source\PSoC4/cyfitter_cfg.c **** 
 227:.\Generated_Source\PSoC4/cyfitter_cfg.c **** /* Analog API Functions */
 228:.\Generated_Source\PSoC4/cyfitter_cfg.c **** 
 229:.\Generated_Source\PSoC4/cyfitter_cfg.c **** 
 230:.\Generated_Source\PSoC4/cyfitter_cfg.c **** /*******************************************************************************
 231:.\Generated_Source\PSoC4/cyfitter_cfg.c **** * Function Name: AnalogSetDefault
 232:.\Generated_Source\PSoC4/cyfitter_cfg.c **** ********************************************************************************
 233:.\Generated_Source\PSoC4/cyfitter_cfg.c **** *
 234:.\Generated_Source\PSoC4/cyfitter_cfg.c **** * Summary:
 235:.\Generated_Source\PSoC4/cyfitter_cfg.c **** *  Sets up the analog portions of the chip to default values based on chip
 236:.\Generated_Source\PSoC4/cyfitter_cfg.c **** *  configuration options from the project.
 237:.\Generated_Source\PSoC4/cyfitter_cfg.c **** *
 238:.\Generated_Source\PSoC4/cyfitter_cfg.c **** * Parameters:
 239:.\Generated_Source\PSoC4/cyfitter_cfg.c **** *  void
 240:.\Generated_Source\PSoC4/cyfitter_cfg.c **** *
 241:.\Generated_Source\PSoC4/cyfitter_cfg.c **** * Return:
 242:.\Generated_Source\PSoC4/cyfitter_cfg.c **** *  void
 243:.\Generated_Source\PSoC4/cyfitter_cfg.c **** *
 244:.\Generated_Source\PSoC4/cyfitter_cfg.c **** *******************************************************************************/
 245:.\Generated_Source\PSoC4/cyfitter_cfg.c **** static void AnalogSetDefault(void);
 246:.\Generated_Source\PSoC4/cyfitter_cfg.c **** static void AnalogSetDefault(void)
 247:.\Generated_Source\PSoC4/cyfitter_cfg.c **** {
 248:.\Generated_Source\PSoC4/cyfitter_cfg.c **** 	CY_SET_XTND_REG32((void CYFAR *)CYREG_SAR_MUX_SWITCH0, 0x00000003u);
 249:.\Generated_Source\PSoC4/cyfitter_cfg.c **** 	CY_SET_XTND_REG32((void CYFAR *)CYREG_SAR_MUX_SWITCH_HW_CTRL, 0x00000003u);
 250:.\Generated_Source\PSoC4/cyfitter_cfg.c **** 	SetAnalogRoutingPumps(1);
 251:.\Generated_Source\PSoC4/cyfitter_cfg.c **** }
 252:.\Generated_Source\PSoC4/cyfitter_cfg.c **** 
 253:.\Generated_Source\PSoC4/cyfitter_cfg.c **** 
 254:.\Generated_Source\PSoC4/cyfitter_cfg.c **** /*******************************************************************************
 255:.\Generated_Source\PSoC4/cyfitter_cfg.c **** * Function Name: SetAnalogRoutingPumps
 256:.\Generated_Source\PSoC4/cyfitter_cfg.c **** ********************************************************************************
 257:.\Generated_Source\PSoC4/cyfitter_cfg.c **** *
 258:.\Generated_Source\PSoC4/cyfitter_cfg.c **** * Summary:
 259:.\Generated_Source\PSoC4/cyfitter_cfg.c **** * Enables or disables the analog pumps feeding analog routing switches.
 260:.\Generated_Source\PSoC4/cyfitter_cfg.c **** * Intended to be called at startup, based on the Vdda system configuration;
ARM GAS  C:\Users\SDEVAS~1\AppData\Local\Temp\ccKiIaRi.s 			page 6


 261:.\Generated_Source\PSoC4/cyfitter_cfg.c **** * may be called during operation when the user informs us that the Vdda voltage crossed the pump th
 262:.\Generated_Source\PSoC4/cyfitter_cfg.c **** *
 263:.\Generated_Source\PSoC4/cyfitter_cfg.c **** * Parameters:
 264:.\Generated_Source\PSoC4/cyfitter_cfg.c **** *  enabled - 1 to enable the pumps, 0 to disable the pumps
 265:.\Generated_Source\PSoC4/cyfitter_cfg.c **** *
 266:.\Generated_Source\PSoC4/cyfitter_cfg.c **** * Return:
 267:.\Generated_Source\PSoC4/cyfitter_cfg.c **** *  void
 268:.\Generated_Source\PSoC4/cyfitter_cfg.c **** *
 269:.\Generated_Source\PSoC4/cyfitter_cfg.c **** *******************************************************************************/
 270:.\Generated_Source\PSoC4/cyfitter_cfg.c **** void SetAnalogRoutingPumps(uint8 enabled)
 271:.\Generated_Source\PSoC4/cyfitter_cfg.c **** {
  26              		.loc 1 271 0
  27              		.cfi_startproc
  28              	.LVL0:
 272:.\Generated_Source\PSoC4/cyfitter_cfg.c **** 	uint32 regValue = CY_GET_XTND_REG32((void *)(CYREG_SAR_PUMP_CTRL));
  29              		.loc 1 272 0
  30 0000 064B     		ldr	r3, .L5
  31 0002 1A68     		ldr	r2, [r3]
  32              	.LVL1:
  33 0004 191C     		mov	r1, r3
 273:.\Generated_Source\PSoC4/cyfitter_cfg.c **** 	if (enabled != 0u)
  34              		.loc 1 273 0
  35 0006 0028     		cmp	r0, #0
  36 0008 03D0     		beq	.L2
 274:.\Generated_Source\PSoC4/cyfitter_cfg.c **** 	{
 275:.\Generated_Source\PSoC4/cyfitter_cfg.c **** 		regValue |= 0x80000000u;
  37              		.loc 1 275 0
  38 000a 8023     		mov	r3, #128
  39 000c 1B06     		lsl	r3, r3, #24
  40 000e 1343     		orr	r3, r2
  41              	.LVL2:
  42 0010 01E0     		b	.L3
  43              	.LVL3:
  44              	.L2:
 276:.\Generated_Source\PSoC4/cyfitter_cfg.c **** 	}
 277:.\Generated_Source\PSoC4/cyfitter_cfg.c **** 	else
 278:.\Generated_Source\PSoC4/cyfitter_cfg.c **** 	{
 279:.\Generated_Source\PSoC4/cyfitter_cfg.c **** 		regValue &= ~0x80000000u;
  45              		.loc 1 279 0
  46 0012 5300     		lsl	r3, r2, #1
  47 0014 5B08     		lsr	r3, r3, #1
  48              	.LVL4:
  49              	.L3:
 280:.\Generated_Source\PSoC4/cyfitter_cfg.c **** 	}
 281:.\Generated_Source\PSoC4/cyfitter_cfg.c **** 	CY_SET_XTND_REG32((void *)(CYREG_SAR_PUMP_CTRL), regValue);
  50              		.loc 1 281 0
  51 0016 0B60     		str	r3, [r1]
 282:.\Generated_Source\PSoC4/cyfitter_cfg.c **** }
  52              		.loc 1 282 0
  53              		@ sp needed
  54 0018 7047     		bx	lr
  55              	.L6:
  56 001a C046     		.align	2
  57              	.L5:
  58 001c 80031A40 		.word	1075446656
  59              		.cfi_endproc
  60              	.LFE6:
ARM GAS  C:\Users\SDEVAS~1\AppData\Local\Temp\ccKiIaRi.s 			page 7


  61              		.size	SetAnalogRoutingPumps, .-SetAnalogRoutingPumps
  62              		.section	.psocinit,"ax",%progbits
  63              		.align	1
  64              		.global	cyfitter_cfg
  65              		.code	16
  66              		.thumb_func
  67              		.type	cyfitter_cfg, %function
  68              	cyfitter_cfg:
  69              	.LFB7:
 283:.\Generated_Source\PSoC4/cyfitter_cfg.c **** 
 284:.\Generated_Source\PSoC4/cyfitter_cfg.c **** #define CY_AMUX_UNUSED CYREG_CM0_ROM_DWT
 285:.\Generated_Source\PSoC4/cyfitter_cfg.c **** 
 286:.\Generated_Source\PSoC4/cyfitter_cfg.c **** 
 287:.\Generated_Source\PSoC4/cyfitter_cfg.c **** /*******************************************************************************
 288:.\Generated_Source\PSoC4/cyfitter_cfg.c **** * Function Name: cyfitter_cfg
 289:.\Generated_Source\PSoC4/cyfitter_cfg.c **** ********************************************************************************
 290:.\Generated_Source\PSoC4/cyfitter_cfg.c **** * Summary:
 291:.\Generated_Source\PSoC4/cyfitter_cfg.c **** *  This function is called by the start-up code for the selected device. It
 292:.\Generated_Source\PSoC4/cyfitter_cfg.c **** *  performs all of the necessary device configuration based on the design
 293:.\Generated_Source\PSoC4/cyfitter_cfg.c **** *  settings.  This includes settings from the Design Wide Resources (DWR) such
 294:.\Generated_Source\PSoC4/cyfitter_cfg.c **** *  as Clocks and Pins as well as any component configuration that is necessary.
 295:.\Generated_Source\PSoC4/cyfitter_cfg.c **** *
 296:.\Generated_Source\PSoC4/cyfitter_cfg.c **** * Parameters:  
 297:.\Generated_Source\PSoC4/cyfitter_cfg.c **** *   void
 298:.\Generated_Source\PSoC4/cyfitter_cfg.c **** *
 299:.\Generated_Source\PSoC4/cyfitter_cfg.c **** * Return:
 300:.\Generated_Source\PSoC4/cyfitter_cfg.c **** *   void
 301:.\Generated_Source\PSoC4/cyfitter_cfg.c **** *
 302:.\Generated_Source\PSoC4/cyfitter_cfg.c **** *******************************************************************************/
 303:.\Generated_Source\PSoC4/cyfitter_cfg.c **** CY_CFG_SECTION
 304:.\Generated_Source\PSoC4/cyfitter_cfg.c **** void cyfitter_cfg(void)
 305:.\Generated_Source\PSoC4/cyfitter_cfg.c **** {
  70              		.loc 1 305 0
  71              		.cfi_startproc
  72 0000 F7B5     		push	{r0, r1, r2, r4, r5, r6, r7, lr}
  73              		.cfi_def_cfa_offset 32
  74              		.cfi_offset 0, -32
  75              		.cfi_offset 1, -28
  76              		.cfi_offset 2, -24
  77              		.cfi_offset 4, -20
  78              		.cfi_offset 5, -16
  79              		.cfi_offset 6, -12
  80              		.cfi_offset 7, -8
  81              		.cfi_offset 14, -4
 306:.\Generated_Source\PSoC4/cyfitter_cfg.c **** 	/* Disable interrupts by default. Let user enable if/when they want. */
 307:.\Generated_Source\PSoC4/cyfitter_cfg.c **** 	CyGlobalIntDisable;
  82              		.loc 1 307 0
  83              	@ 307 ".\Generated_Source\PSoC4\cyfitter_cfg.c" 1
  84 0002 72B6     		CPSID   i
  85              	@ 0 "" 2
 308:.\Generated_Source\PSoC4/cyfitter_cfg.c **** 
 309:.\Generated_Source\PSoC4/cyfitter_cfg.c **** 	/* Enable the clock in the interrupt controller for the routed interrupts */
 310:.\Generated_Source\PSoC4/cyfitter_cfg.c **** 	CY_SET_REG8((void *)CYREG_UDB_UDBIF_INT_CLK_CTL, 0x01u);
  86              		.loc 1 310 0
  87              		.code	16
  88 0004 614B     		ldr	r3, .L13
  89 0006 0122     		mov	r2, #1
ARM GAS  C:\Users\SDEVAS~1\AppData\Local\Temp\ccKiIaRi.s 			page 8


  90 0008 1A70     		strb	r2, [r3]
  91              	.LVL5:
  92              	.LBB14:
  93              	.LBB15:
  94              	.LBB16:
  95              	.LBB17:
  60:.\Generated_Source\PSoC4/cyfitter_cfg.c **** 	(void)memset(s, 0, n);
  96              		.loc 1 60 0
  97 000a 8022     		mov	r2, #128
  98 000c 0021     		mov	r1, #0
  99 000e D200     		lsl	r2, r2, #3
 100 0010 5F48     		ldr	r0, .L13+4
 101 0012 FFF7FEFF 		bl	memset
 102              	.LVL6:
 103 0016 8022     		mov	r2, #128
 104 0018 D200     		lsl	r2, r2, #3
 105 001a 5E48     		ldr	r0, .L13+8
 106 001c 0021     		mov	r1, #0
 107 001e 0024     		mov	r4, #0
 108 0020 FFF7FEFF 		bl	memset
 109              	.LVL7:
 110 0024 221C     		mov	r2, r4
 111              	.LVL8:
 112              	.L11:
 113              	.LBE17:
 114              	.LBE16:
 115              	.LBE15:
 116              	.LBB18:
 117              	.LBB19:
 118              	.LBB20:
 153:.\Generated_Source\PSoC4/cyfitter_cfg.c **** 		uint32 baseAddr = addr_table[i];
 119              		.loc 1 153 0
 120 0026 5C48     		ldr	r0, .L13+12
 121 0028 2158     		ldr	r1, [r4, r0]
 122              	.LVL9:
 123 002a 2030     		add	r0, r0, #32
 154:.\Generated_Source\PSoC4/cyfitter_cfg.c **** 		uint8 count = (uint8)baseAddr;
 124              		.loc 1 154 0
 125 002c CBB2     		uxtb	r3, r1
 126 002e 0193     		str	r3, [sp, #4]
 127              	.LVL10:
 155:.\Generated_Source\PSoC4/cyfitter_cfg.c **** 		baseAddr &= 0xFFFFFF00u;
 128              		.loc 1 155 0
 129 0030 0F1C     		mov	r7, r1
 130 0032 FF23     		mov	r3, #255
 131 0034 9F43     		bic	r7, r3
 132              	.LVL11:
 133 0036 5300     		lsl	r3, r2, #1
 134 0038 C018     		add	r0, r0, r3
 135 003a 0023     		mov	r3, #0
 136              	.LVL12:
 137              	.L8:
 156:.\Generated_Source\PSoC4/cyfitter_cfg.c **** 		while (count != 0u)
 138              		.loc 1 156 0
 139 003c 019E     		ldr	r6, [sp, #4]
 140 003e DDB2     		uxtb	r5, r3
 141 0040 AE42     		cmp	r6, r5
ARM GAS  C:\Users\SDEVAS~1\AppData\Local\Temp\ccKiIaRi.s 			page 9


 142 0042 09D0     		beq	.L12
 143 0044 5D00     		lsl	r5, r3, #1
 158:.\Generated_Source\PSoC4/cyfitter_cfg.c **** 			CY_SET_XTND_REG8((void CYFAR *)(baseAddr + data_table[j].offset), data_table[j].value);
 144              		.loc 1 158 0
 145 0046 465D     		ldrb	r6, [r0, r5]
 146 0048 4519     		add	r5, r0, r5
 147 004a B446     		mov	ip, r6
 148 004c BC44     		add	ip, ip, r7
 149 004e 6D78     		ldrb	r5, [r5, #1]
 150 0050 6646     		mov	r6, ip
 151 0052 3570     		strb	r5, [r6]
 152              	.LVL13:
 153 0054 0133     		add	r3, r3, #1
 154              	.LVL14:
 155 0056 F1E7     		b	.L8
 156              	.LVL15:
 157              	.L12:
 158 0058 C9B2     		uxtb	r1, r1
 159              	.LVL16:
 160 005a 0434     		add	r4, r4, #4
 161              	.LVL17:
 162 005c 5218     		add	r2, r2, r1
 163              	.LVL18:
 164              	.LBE20:
 151:.\Generated_Source\PSoC4/cyfitter_cfg.c **** 	for (i = 0u; i < CY_CFG_BASE_ADDR_COUNT; i++)
 165              		.loc 1 151 0
 166 005e 202C     		cmp	r4, #32
 167 0060 E1D1     		bne	.L11
 168              	.LBE19:
 169              	.LBE18:
 311:.\Generated_Source\PSoC4/cyfitter_cfg.c **** 	{
 312:.\Generated_Source\PSoC4/cyfitter_cfg.c **** 		static const uint32 CYCODE cy_cfg_addr_table[] = {
 313:.\Generated_Source\PSoC4/cyfitter_cfg.c **** 			0x400F0002u, /* Base address: 0x400F0000 Count: 2 */
 314:.\Generated_Source\PSoC4/cyfitter_cfg.c **** 			0x400F3237u, /* Base address: 0x400F3200 Count: 55 */
 315:.\Generated_Source\PSoC4/cyfitter_cfg.c **** 			0x400F3323u, /* Base address: 0x400F3300 Count: 35 */
 316:.\Generated_Source\PSoC4/cyfitter_cfg.c **** 			0x400F4002u, /* Base address: 0x400F4000 Count: 2 */
 317:.\Generated_Source\PSoC4/cyfitter_cfg.c **** 			0x400F4103u, /* Base address: 0x400F4100 Count: 3 */
 318:.\Generated_Source\PSoC4/cyfitter_cfg.c **** 			0x400F4202u, /* Base address: 0x400F4200 Count: 2 */
 319:.\Generated_Source\PSoC4/cyfitter_cfg.c **** 			0x400F4302u, /* Base address: 0x400F4300 Count: 2 */
 320:.\Generated_Source\PSoC4/cyfitter_cfg.c **** 			0x400F6002u, /* Base address: 0x400F6000 Count: 2 */
 321:.\Generated_Source\PSoC4/cyfitter_cfg.c **** 		};
 322:.\Generated_Source\PSoC4/cyfitter_cfg.c **** 
 323:.\Generated_Source\PSoC4/cyfitter_cfg.c **** 		static const cy_cfg_addrvalue_t CYCODE cy_cfg_data_table[] = {
 324:.\Generated_Source\PSoC4/cyfitter_cfg.c **** 			{0x82u, 0x67u},
 325:.\Generated_Source\PSoC4/cyfitter_cfg.c **** 			{0x83u, 0x7Fu},
 326:.\Generated_Source\PSoC4/cyfitter_cfg.c **** 			{0x00u, 0x04u},
 327:.\Generated_Source\PSoC4/cyfitter_cfg.c **** 			{0x03u, 0x03u},
 328:.\Generated_Source\PSoC4/cyfitter_cfg.c **** 			{0x0Eu, 0x0Cu},
 329:.\Generated_Source\PSoC4/cyfitter_cfg.c **** 			{0x14u, 0x01u},
 330:.\Generated_Source\PSoC4/cyfitter_cfg.c **** 			{0x19u, 0x01u},
 331:.\Generated_Source\PSoC4/cyfitter_cfg.c **** 			{0x1Eu, 0x03u},
 332:.\Generated_Source\PSoC4/cyfitter_cfg.c **** 			{0x2Eu, 0x01u},
 333:.\Generated_Source\PSoC4/cyfitter_cfg.c **** 			{0x30u, 0x08u},
 334:.\Generated_Source\PSoC4/cyfitter_cfg.c **** 			{0x32u, 0x02u},
 335:.\Generated_Source\PSoC4/cyfitter_cfg.c **** 			{0x33u, 0x02u},
 336:.\Generated_Source\PSoC4/cyfitter_cfg.c **** 			{0x34u, 0x04u},
 337:.\Generated_Source\PSoC4/cyfitter_cfg.c **** 			{0x36u, 0x01u},
ARM GAS  C:\Users\SDEVAS~1\AppData\Local\Temp\ccKiIaRi.s 			page 10


 338:.\Generated_Source\PSoC4/cyfitter_cfg.c **** 			{0x37u, 0x01u},
 339:.\Generated_Source\PSoC4/cyfitter_cfg.c **** 			{0x3Eu, 0x50u},
 340:.\Generated_Source\PSoC4/cyfitter_cfg.c **** 			{0x3Fu, 0x40u},
 341:.\Generated_Source\PSoC4/cyfitter_cfg.c **** 			{0x40u, 0x14u},
 342:.\Generated_Source\PSoC4/cyfitter_cfg.c **** 			{0x41u, 0x06u},
 343:.\Generated_Source\PSoC4/cyfitter_cfg.c **** 			{0x45u, 0x5Cu},
 344:.\Generated_Source\PSoC4/cyfitter_cfg.c **** 			{0x46u, 0x20u},
 345:.\Generated_Source\PSoC4/cyfitter_cfg.c **** 			{0x47u, 0x0Eu},
 346:.\Generated_Source\PSoC4/cyfitter_cfg.c **** 			{0x48u, 0x3Bu},
 347:.\Generated_Source\PSoC4/cyfitter_cfg.c **** 			{0x49u, 0xFFu},
 348:.\Generated_Source\PSoC4/cyfitter_cfg.c **** 			{0x4Au, 0xFFu},
 349:.\Generated_Source\PSoC4/cyfitter_cfg.c **** 			{0x4Bu, 0xFFu},
 350:.\Generated_Source\PSoC4/cyfitter_cfg.c **** 			{0x4Du, 0xA0u},
 351:.\Generated_Source\PSoC4/cyfitter_cfg.c **** 			{0x4Fu, 0x01u},
 352:.\Generated_Source\PSoC4/cyfitter_cfg.c **** 			{0x50u, 0x18u},
 353:.\Generated_Source\PSoC4/cyfitter_cfg.c **** 			{0x52u, 0x80u},
 354:.\Generated_Source\PSoC4/cyfitter_cfg.c **** 			{0x54u, 0x07u},
 355:.\Generated_Source\PSoC4/cyfitter_cfg.c **** 			{0x58u, 0x04u},
 356:.\Generated_Source\PSoC4/cyfitter_cfg.c **** 			{0x59u, 0x04u},
 357:.\Generated_Source\PSoC4/cyfitter_cfg.c **** 			{0x5Au, 0x04u},
 358:.\Generated_Source\PSoC4/cyfitter_cfg.c **** 			{0x5Bu, 0x04u},
 359:.\Generated_Source\PSoC4/cyfitter_cfg.c **** 			{0x5Cu, 0x11u},
 360:.\Generated_Source\PSoC4/cyfitter_cfg.c **** 			{0x5Du, 0x11u},
 361:.\Generated_Source\PSoC4/cyfitter_cfg.c **** 			{0x5Fu, 0x01u},
 362:.\Generated_Source\PSoC4/cyfitter_cfg.c **** 			{0x60u, 0x40u},
 363:.\Generated_Source\PSoC4/cyfitter_cfg.c **** 			{0x62u, 0x80u},
 364:.\Generated_Source\PSoC4/cyfitter_cfg.c **** 			{0x64u, 0x40u},
 365:.\Generated_Source\PSoC4/cyfitter_cfg.c **** 			{0x65u, 0x40u},
 366:.\Generated_Source\PSoC4/cyfitter_cfg.c **** 			{0x66u, 0x80u},
 367:.\Generated_Source\PSoC4/cyfitter_cfg.c **** 			{0x68u, 0x40u},
 368:.\Generated_Source\PSoC4/cyfitter_cfg.c **** 			{0x6Au, 0x50u},
 369:.\Generated_Source\PSoC4/cyfitter_cfg.c **** 			{0x6Bu, 0xA8u},
 370:.\Generated_Source\PSoC4/cyfitter_cfg.c **** 			{0x6Cu, 0x40u},
 371:.\Generated_Source\PSoC4/cyfitter_cfg.c **** 			{0x6Du, 0x20u},
 372:.\Generated_Source\PSoC4/cyfitter_cfg.c **** 			{0x6Eu, 0x50u},
 373:.\Generated_Source\PSoC4/cyfitter_cfg.c **** 			{0x6Fu, 0xA8u},
 374:.\Generated_Source\PSoC4/cyfitter_cfg.c **** 			{0xB8u, 0x20u},
 375:.\Generated_Source\PSoC4/cyfitter_cfg.c **** 			{0xBEu, 0x10u},
 376:.\Generated_Source\PSoC4/cyfitter_cfg.c **** 			{0xD6u, 0x02u},
 377:.\Generated_Source\PSoC4/cyfitter_cfg.c **** 			{0xD8u, 0x04u},
 378:.\Generated_Source\PSoC4/cyfitter_cfg.c **** 			{0xDBu, 0x04u},
 379:.\Generated_Source\PSoC4/cyfitter_cfg.c **** 			{0xDDu, 0x30u},
 380:.\Generated_Source\PSoC4/cyfitter_cfg.c **** 			{0xDFu, 0x01u},
 381:.\Generated_Source\PSoC4/cyfitter_cfg.c **** 			{0x05u, 0x01u},
 382:.\Generated_Source\PSoC4/cyfitter_cfg.c **** 			{0x06u, 0x01u},
 383:.\Generated_Source\PSoC4/cyfitter_cfg.c **** 			{0x0Eu, 0x12u},
 384:.\Generated_Source\PSoC4/cyfitter_cfg.c **** 			{0x17u, 0x40u},
 385:.\Generated_Source\PSoC4/cyfitter_cfg.c **** 			{0x18u, 0x08u},
 386:.\Generated_Source\PSoC4/cyfitter_cfg.c **** 			{0x1Du, 0x81u},
 387:.\Generated_Source\PSoC4/cyfitter_cfg.c **** 			{0x1Eu, 0x18u},
 388:.\Generated_Source\PSoC4/cyfitter_cfg.c **** 			{0x26u, 0x40u},
 389:.\Generated_Source\PSoC4/cyfitter_cfg.c **** 			{0x27u, 0x20u},
 390:.\Generated_Source\PSoC4/cyfitter_cfg.c **** 			{0x37u, 0x20u},
 391:.\Generated_Source\PSoC4/cyfitter_cfg.c **** 			{0x3Eu, 0x20u},
 392:.\Generated_Source\PSoC4/cyfitter_cfg.c **** 			{0x3Fu, 0x12u},
 393:.\Generated_Source\PSoC4/cyfitter_cfg.c **** 			{0x45u, 0x82u},
 394:.\Generated_Source\PSoC4/cyfitter_cfg.c **** 			{0x4Cu, 0x04u},
ARM GAS  C:\Users\SDEVAS~1\AppData\Local\Temp\ccKiIaRi.s 			page 11


 395:.\Generated_Source\PSoC4/cyfitter_cfg.c **** 			{0x4Fu, 0x06u},
 396:.\Generated_Source\PSoC4/cyfitter_cfg.c **** 			{0x55u, 0x02u},
 397:.\Generated_Source\PSoC4/cyfitter_cfg.c **** 			{0x56u, 0x29u},
 398:.\Generated_Source\PSoC4/cyfitter_cfg.c **** 			{0x5Eu, 0x88u},
 399:.\Generated_Source\PSoC4/cyfitter_cfg.c **** 			{0x5Fu, 0x10u},
 400:.\Generated_Source\PSoC4/cyfitter_cfg.c **** 			{0x66u, 0x08u},
 401:.\Generated_Source\PSoC4/cyfitter_cfg.c **** 			{0x67u, 0x04u},
 402:.\Generated_Source\PSoC4/cyfitter_cfg.c **** 			{0x72u, 0x80u},
 403:.\Generated_Source\PSoC4/cyfitter_cfg.c **** 			{0x77u, 0x40u},
 404:.\Generated_Source\PSoC4/cyfitter_cfg.c **** 			{0x82u, 0x80u},
 405:.\Generated_Source\PSoC4/cyfitter_cfg.c **** 			{0xA2u, 0x01u},
 406:.\Generated_Source\PSoC4/cyfitter_cfg.c **** 			{0xB6u, 0x01u},
 407:.\Generated_Source\PSoC4/cyfitter_cfg.c **** 			{0xC0u, 0x90u},
 408:.\Generated_Source\PSoC4/cyfitter_cfg.c **** 			{0xC2u, 0xA0u},
 409:.\Generated_Source\PSoC4/cyfitter_cfg.c **** 			{0xC4u, 0x80u},
 410:.\Generated_Source\PSoC4/cyfitter_cfg.c **** 			{0xCCu, 0x20u},
 411:.\Generated_Source\PSoC4/cyfitter_cfg.c **** 			{0xCEu, 0x80u},
 412:.\Generated_Source\PSoC4/cyfitter_cfg.c **** 			{0xD0u, 0x90u},
 413:.\Generated_Source\PSoC4/cyfitter_cfg.c **** 			{0xD2u, 0x20u},
 414:.\Generated_Source\PSoC4/cyfitter_cfg.c **** 			{0xD6u, 0x70u},
 415:.\Generated_Source\PSoC4/cyfitter_cfg.c **** 			{0xD8u, 0x60u},
 416:.\Generated_Source\PSoC4/cyfitter_cfg.c **** 			{0x6Fu, 0x04u},
 417:.\Generated_Source\PSoC4/cyfitter_cfg.c **** 			{0xDAu, 0x80u},
 418:.\Generated_Source\PSoC4/cyfitter_cfg.c **** 			{0x83u, 0x04u},
 419:.\Generated_Source\PSoC4/cyfitter_cfg.c **** 			{0x9Fu, 0x04u},
 420:.\Generated_Source\PSoC4/cyfitter_cfg.c **** 			{0xE2u, 0x80u},
 421:.\Generated_Source\PSoC4/cyfitter_cfg.c **** 			{0x09u, 0x01u},
 422:.\Generated_Source\PSoC4/cyfitter_cfg.c **** 			{0xC2u, 0x08u},
 423:.\Generated_Source\PSoC4/cyfitter_cfg.c **** 			{0xB5u, 0x01u},
 424:.\Generated_Source\PSoC4/cyfitter_cfg.c **** 			{0xEAu, 0x08u},
 425:.\Generated_Source\PSoC4/cyfitter_cfg.c **** 			{0x10u, 0x0Au},
 426:.\Generated_Source\PSoC4/cyfitter_cfg.c **** 			{0x11u, 0x01u},
 427:.\Generated_Source\PSoC4/cyfitter_cfg.c **** 		};
 428:.\Generated_Source\PSoC4/cyfitter_cfg.c **** 
 429:.\Generated_Source\PSoC4/cyfitter_cfg.c **** 
 430:.\Generated_Source\PSoC4/cyfitter_cfg.c **** 
 431:.\Generated_Source\PSoC4/cyfitter_cfg.c **** 		CYPACKED typedef struct {
 432:.\Generated_Source\PSoC4/cyfitter_cfg.c **** 			void CYFAR *address;
 433:.\Generated_Source\PSoC4/cyfitter_cfg.c **** 			uint16 size;
 434:.\Generated_Source\PSoC4/cyfitter_cfg.c **** 		} CYPACKED_ATTR cfg_memset_t;
 435:.\Generated_Source\PSoC4/cyfitter_cfg.c **** 
 436:.\Generated_Source\PSoC4/cyfitter_cfg.c **** 		static const cfg_memset_t CYCODE cfg_memset_list [] = {
 437:.\Generated_Source\PSoC4/cyfitter_cfg.c **** 			/* address, size */
 438:.\Generated_Source\PSoC4/cyfitter_cfg.c **** 			{(void CYFAR *)(CYDEV_UDB_P0_U0_BASE), 1024u},
 439:.\Generated_Source\PSoC4/cyfitter_cfg.c **** 			{(void CYFAR *)(CYDEV_UDB_DSI0_BASE), 1024u},
 440:.\Generated_Source\PSoC4/cyfitter_cfg.c **** 		};
 441:.\Generated_Source\PSoC4/cyfitter_cfg.c **** 
 442:.\Generated_Source\PSoC4/cyfitter_cfg.c **** 		uint8 CYDATA i;
 443:.\Generated_Source\PSoC4/cyfitter_cfg.c **** 
 444:.\Generated_Source\PSoC4/cyfitter_cfg.c **** 		/* Zero out critical memory blocks before beginning configuration */
 445:.\Generated_Source\PSoC4/cyfitter_cfg.c **** 		for (i = 0u; i < (sizeof(cfg_memset_list)/sizeof(cfg_memset_list[0])); i++)
 446:.\Generated_Source\PSoC4/cyfitter_cfg.c **** 		{
 447:.\Generated_Source\PSoC4/cyfitter_cfg.c **** 			const cfg_memset_t CYCODE * CYDATA ms = &cfg_memset_list[i];
 448:.\Generated_Source\PSoC4/cyfitter_cfg.c **** 			CYMEMZERO(ms->address, (size_t)(uint32)(ms->size));
 449:.\Generated_Source\PSoC4/cyfitter_cfg.c **** 		}
 450:.\Generated_Source\PSoC4/cyfitter_cfg.c **** 
 451:.\Generated_Source\PSoC4/cyfitter_cfg.c **** 		cfg_write_bytes32(cy_cfg_addr_table, cy_cfg_data_table);
ARM GAS  C:\Users\SDEVAS~1\AppData\Local\Temp\ccKiIaRi.s 			page 12


 452:.\Generated_Source\PSoC4/cyfitter_cfg.c **** 
 453:.\Generated_Source\PSoC4/cyfitter_cfg.c **** 		/* Perform normal device configuration. Order is not critical for these items. */
 454:.\Generated_Source\PSoC4/cyfitter_cfg.c **** 		CY_SET_XTND_REG16((void CYFAR *)(CYREG_UDB_BCTL0_DRV), 0x0A00u);
 170              		.loc 1 454 0
 171 0062 4E4B     		ldr	r3, .L13+16
 172              	.LVL19:
 173 0064 A022     		mov	r2, #160
 174              	.LVL20:
 175 0066 1201     		lsl	r2, r2, #4
 176 0068 1A80     		strh	r2, [r3]
 455:.\Generated_Source\PSoC4/cyfitter_cfg.c **** 		CY_SET_XTND_REG8((void CYFAR *)(CYREG_UDB_BCTL0_DRV + 0x2u), 0x01u);
 177              		.loc 1 455 0
 178 006a 4D4B     		ldr	r3, .L13+20
 179 006c 0126     		mov	r6, #1
 180 006e 1E70     		strb	r6, [r3]
 456:.\Generated_Source\PSoC4/cyfitter_cfg.c **** 
 457:.\Generated_Source\PSoC4/cyfitter_cfg.c **** 		/* HSIOM Starting address: CYDEV_HSIOM_BASE */
 458:.\Generated_Source\PSoC4/cyfitter_cfg.c **** 		CY_SET_XTND_REG32((void CYFAR *)(CYDEV_HSIOM_BASE), 0x00990000u);
 181              		.loc 1 458 0
 182 0070 4C4A     		ldr	r2, .L13+24
 183 0072 9923     		mov	r3, #153
 184 0074 1B04     		lsl	r3, r3, #16
 185 0076 1360     		str	r3, [r2]
 459:.\Generated_Source\PSoC4/cyfitter_cfg.c **** 		CY_SET_XTND_REG32((void CYFAR *)(CYREG_HSIOM_PORT_SEL3), 0x0000EE00u);
 186              		.loc 1 459 0
 187 0078 EE21     		mov	r1, #238
 188 007a 4B4A     		ldr	r2, .L13+28
 189 007c 0902     		lsl	r1, r1, #8
 190 007e 1160     		str	r1, [r2]
 460:.\Generated_Source\PSoC4/cyfitter_cfg.c **** 		CY_SET_XTND_REG32((void CYFAR *)(CYREG_HSIOM_PORT_SEL4), 0x00000099u);
 191              		.loc 1 460 0
 192 0080 4A4A     		ldr	r2, .L13+32
 193 0082 9921     		mov	r1, #153
 194 0084 1160     		str	r1, [r2]
 461:.\Generated_Source\PSoC4/cyfitter_cfg.c **** 
 462:.\Generated_Source\PSoC4/cyfitter_cfg.c **** 		/* UDB_PA_0 Starting address: CYDEV_UDB_PA0_BASE */
 463:.\Generated_Source\PSoC4/cyfitter_cfg.c **** 		CY_SET_XTND_REG32((void CYFAR *)(CYDEV_UDB_PA0_BASE), 0x00990000u);
 195              		.loc 1 463 0
 196 0086 4A4A     		ldr	r2, .L13+36
 464:.\Generated_Source\PSoC4/cyfitter_cfg.c **** 		CY_SET_XTND_REG32((void CYFAR *)(CYREG_UDB_PA0_CFG4), 0x00800000u);
 197              		.loc 1 464 0
 198 0088 8021     		mov	r1, #128
 463:.\Generated_Source\PSoC4/cyfitter_cfg.c **** 		CY_SET_XTND_REG32((void CYFAR *)(CYDEV_UDB_PA0_BASE), 0x00990000u);
 199              		.loc 1 463 0
 200 008a 1360     		str	r3, [r2]
 201              		.loc 1 464 0
 202 008c 494A     		ldr	r2, .L13+40
 203 008e 0904     		lsl	r1, r1, #16
 204 0090 1160     		str	r1, [r2]
 465:.\Generated_Source\PSoC4/cyfitter_cfg.c **** 
 466:.\Generated_Source\PSoC4/cyfitter_cfg.c **** 		/* UDB_PA_1 Starting address: CYDEV_UDB_PA1_BASE */
 467:.\Generated_Source\PSoC4/cyfitter_cfg.c **** 		CY_SET_XTND_REG32((void CYFAR *)(CYDEV_UDB_PA1_BASE), 0x00990000u);
 205              		.loc 1 467 0
 206 0092 494A     		ldr	r2, .L13+44
 468:.\Generated_Source\PSoC4/cyfitter_cfg.c **** 
 469:.\Generated_Source\PSoC4/cyfitter_cfg.c **** 		/* UDB_PA_2 Starting address: CYDEV_UDB_PA2_BASE */
 470:.\Generated_Source\PSoC4/cyfitter_cfg.c **** 		CY_SET_XTND_REG32((void CYFAR *)(CYDEV_UDB_PA2_BASE), 0x00990004u);
ARM GAS  C:\Users\SDEVAS~1\AppData\Local\Temp\ccKiIaRi.s 			page 13


 207              		.loc 1 470 0
 208 0094 4949     		ldr	r1, .L13+48
 467:.\Generated_Source\PSoC4/cyfitter_cfg.c **** 		CY_SET_XTND_REG32((void CYFAR *)(CYDEV_UDB_PA1_BASE), 0x00990000u);
 209              		.loc 1 467 0
 210 0096 1360     		str	r3, [r2]
 211              		.loc 1 470 0
 212 0098 494A     		ldr	r2, .L13+52
 471:.\Generated_Source\PSoC4/cyfitter_cfg.c **** 		CY_SET_XTND_REG32((void CYFAR *)(CYREG_UDB_PA2_CFG4), 0x02000000u);
 472:.\Generated_Source\PSoC4/cyfitter_cfg.c **** 
 473:.\Generated_Source\PSoC4/cyfitter_cfg.c **** 		/* UDB_PA_3 Starting address: CYDEV_UDB_PA3_BASE */
 474:.\Generated_Source\PSoC4/cyfitter_cfg.c **** 		CY_SET_XTND_REG32((void CYFAR *)(CYDEV_UDB_PA3_BASE), 0x00990000u);
 475:.\Generated_Source\PSoC4/cyfitter_cfg.c **** 
 476:.\Generated_Source\PSoC4/cyfitter_cfg.c **** 		/* INT_SELECT Starting address: CYDEV_CPUSS_INTR_SELECT */
 477:.\Generated_Source\PSoC4/cyfitter_cfg.c **** 		CY_SET_XTND_REG32((void CYFAR *)(CYREG_CPUSS_INTR_SELECT), 0x00000002u);
 478:.\Generated_Source\PSoC4/cyfitter_cfg.c **** 
 479:.\Generated_Source\PSoC4/cyfitter_cfg.c **** 		/* INT_CONFIG Starting address: CYDEV_UDB_INT_CFG */
 480:.\Generated_Source\PSoC4/cyfitter_cfg.c **** 		CY_SET_XTND_REG32((void CYFAR *)(CYREG_UDB_INT_CFG), 0x00000002u);
 481:.\Generated_Source\PSoC4/cyfitter_cfg.c **** 
 482:.\Generated_Source\PSoC4/cyfitter_cfg.c **** 		/* Enable digital routing */
 483:.\Generated_Source\PSoC4/cyfitter_cfg.c **** 		CY_SET_XTND_REG8((void *)CYREG_UDB_UDBIF_BANK_CTL, CY_GET_XTND_REG8((void *)CYREG_UDB_UDBIF_BANK_
 484:.\Generated_Source\PSoC4/cyfitter_cfg.c **** 
 485:.\Generated_Source\PSoC4/cyfitter_cfg.c **** 		/* Enable UDB array */
 486:.\Generated_Source\PSoC4/cyfitter_cfg.c **** 		CY_SET_XTND_REG8((void *)CYREG_UDB_UDBIF_WAIT_CFG, (uint8)((CY_GET_XTND_REG8((void *)CYREG_UDB_UD
 213              		.loc 1 486 0
 214 009a 3C25     		mov	r5, #60
 470:.\Generated_Source\PSoC4/cyfitter_cfg.c **** 		CY_SET_XTND_REG32((void CYFAR *)(CYDEV_UDB_PA2_BASE), 0x00990004u);
 215              		.loc 1 470 0
 216 009c 1160     		str	r1, [r2]
 471:.\Generated_Source\PSoC4/cyfitter_cfg.c **** 		CY_SET_XTND_REG32((void CYFAR *)(CYREG_UDB_PA2_CFG4), 0x02000000u);
 217              		.loc 1 471 0
 218 009e 494A     		ldr	r2, .L13+56
 219 00a0 8021     		mov	r1, #128
 220 00a2 8904     		lsl	r1, r1, #18
 221 00a4 1160     		str	r1, [r2]
 474:.\Generated_Source\PSoC4/cyfitter_cfg.c **** 		CY_SET_XTND_REG32((void CYFAR *)(CYDEV_UDB_PA3_BASE), 0x00990000u);
 222              		.loc 1 474 0
 223 00a6 484A     		ldr	r2, .L13+60
 224              	.LBE14:
 225              	.LBB21:
 226              	.LBB22:
 187:.\Generated_Source\PSoC4/cyfitter_cfg.c **** 	CY_SET_REG32((void CYXDATA *)(CYREG_CLK_SELECT), (CY_GET_REG32((void *)CYREG_CLK_SELECT) | 0x00040
 227              		.loc 1 187 0
 228 00a8 484F     		ldr	r7, .L13+64
 229              	.LVL21:
 230              	.LBE22:
 231              	.LBE21:
 232              	.LBB26:
 474:.\Generated_Source\PSoC4/cyfitter_cfg.c **** 		CY_SET_XTND_REG32((void CYFAR *)(CYDEV_UDB_PA3_BASE), 0x00990000u);
 233              		.loc 1 474 0
 234 00aa 1360     		str	r3, [r2]
 477:.\Generated_Source\PSoC4/cyfitter_cfg.c **** 		CY_SET_XTND_REG32((void CYFAR *)(CYREG_CPUSS_INTR_SELECT), 0x00000002u);
 235              		.loc 1 477 0
 236 00ac 484A     		ldr	r2, .L13+68
 237 00ae 0223     		mov	r3, #2
 238 00b0 1360     		str	r3, [r2]
 480:.\Generated_Source\PSoC4/cyfitter_cfg.c **** 		CY_SET_XTND_REG32((void CYFAR *)(CYREG_UDB_INT_CFG), 0x00000002u);
 239              		.loc 1 480 0
ARM GAS  C:\Users\SDEVAS~1\AppData\Local\Temp\ccKiIaRi.s 			page 14


 240 00b2 484A     		ldr	r2, .L13+72
 241              	.LBE26:
 487:.\Generated_Source\PSoC4/cyfitter_cfg.c **** 		CY_SET_XTND_REG8((void *)CYREG_UDB_UDBIF_BANK_CTL, (uint8)(CY_GET_XTND_REG8((void *)CYREG_UDB_UDB
 488:.\Generated_Source\PSoC4/cyfitter_cfg.c **** 	}
 489:.\Generated_Source\PSoC4/cyfitter_cfg.c **** 
 490:.\Generated_Source\PSoC4/cyfitter_cfg.c **** 	/* Perform second pass device configuration. These items must be configured in specific order afte
 491:.\Generated_Source\PSoC4/cyfitter_cfg.c **** 	/* IOPINS0_0 Starting address: CYDEV_PRT0_DR */
 492:.\Generated_Source\PSoC4/cyfitter_cfg.c **** 	CY_SET_XTND_REG32((void CYFAR *)(CYREG_PRT0_DR), 0x0000002Au);
 493:.\Generated_Source\PSoC4/cyfitter_cfg.c **** 	CY_SET_XTND_REG32((void CYFAR *)(CYREG_PRT0_PC), 0x000319B6u);
 494:.\Generated_Source\PSoC4/cyfitter_cfg.c **** 	CY_SET_XTND_REG32((void CYFAR *)(CYREG_PRT0_INTCFG), 0x000000C0u);
 495:.\Generated_Source\PSoC4/cyfitter_cfg.c **** 	CY_SET_XTND_REG32((void CYFAR *)(CYREG_PRT0_PC2), 0x00000020u);
 496:.\Generated_Source\PSoC4/cyfitter_cfg.c **** 
 497:.\Generated_Source\PSoC4/cyfitter_cfg.c **** 	/* IOPINS0_1 Starting address: CYDEV_PRT1_DR */
 498:.\Generated_Source\PSoC4/cyfitter_cfg.c **** 	CY_SET_XTND_REG32((void CYFAR *)(CYREG_PRT1_PC), 0x00180DB6u);
 499:.\Generated_Source\PSoC4/cyfitter_cfg.c **** 	CY_SET_XTND_REG32((void CYFAR *)(CYREG_PRT1_PC2), 0x00000080u);
 500:.\Generated_Source\PSoC4/cyfitter_cfg.c **** 
 501:.\Generated_Source\PSoC4/cyfitter_cfg.c **** 	/* IOPINS0_2 Starting address: CYDEV_PRT2_DR */
 502:.\Generated_Source\PSoC4/cyfitter_cfg.c **** 	CY_SET_XTND_REG32((void CYFAR *)(CYREG_PRT2_DR), 0x00000003u);
 503:.\Generated_Source\PSoC4/cyfitter_cfg.c **** 	CY_SET_XTND_REG32((void CYFAR *)(CYREG_PRT2_PC), 0x00D81D80u);
 504:.\Generated_Source\PSoC4/cyfitter_cfg.c **** 	CY_SET_XTND_REG32((void CYFAR *)(CYREG_PRT2_PC2), 0x00000003u);
 505:.\Generated_Source\PSoC4/cyfitter_cfg.c **** 
 506:.\Generated_Source\PSoC4/cyfitter_cfg.c **** 	/* IOPINS0_3 Starting address: CYDEV_PRT3_DR */
 507:.\Generated_Source\PSoC4/cyfitter_cfg.c **** 	CY_SET_XTND_REG32((void CYFAR *)(CYREG_PRT3_PC), 0x00C00D80u);
 508:.\Generated_Source\PSoC4/cyfitter_cfg.c **** 
 509:.\Generated_Source\PSoC4/cyfitter_cfg.c **** 	/* IOPINS0_4 Starting address: CYDEV_PRT4_DR */
 510:.\Generated_Source\PSoC4/cyfitter_cfg.c **** 	CY_SET_XTND_REG32((void CYFAR *)(CYREG_PRT4_DR), 0x00000002u);
 511:.\Generated_Source\PSoC4/cyfitter_cfg.c **** 	CY_SET_XTND_REG32((void CYFAR *)(CYREG_PRT4_PC), 0x00000031u);
 512:.\Generated_Source\PSoC4/cyfitter_cfg.c **** 	CY_SET_XTND_REG32((void CYFAR *)(CYREG_PRT4_PC2), 0x00000002u);
 513:.\Generated_Source\PSoC4/cyfitter_cfg.c **** 
 514:.\Generated_Source\PSoC4/cyfitter_cfg.c **** 	/* Setup clocks based on selections from Clock DWR */
 515:.\Generated_Source\PSoC4/cyfitter_cfg.c **** 	ClockSetup();
 516:.\Generated_Source\PSoC4/cyfitter_cfg.c **** 
 517:.\Generated_Source\PSoC4/cyfitter_cfg.c **** 	/* Perform basic analog initialization to defaults */
 518:.\Generated_Source\PSoC4/cyfitter_cfg.c **** 	AnalogSetDefault();
 519:.\Generated_Source\PSoC4/cyfitter_cfg.c **** 
 520:.\Generated_Source\PSoC4/cyfitter_cfg.c **** }
 242              		.loc 1 520 0
 243              		@ sp needed
 244              	.LBB27:
 480:.\Generated_Source\PSoC4/cyfitter_cfg.c **** 		CY_SET_XTND_REG32((void CYFAR *)(CYREG_UDB_INT_CFG), 0x00000002u);
 245              		.loc 1 480 0
 246 00b4 1360     		str	r3, [r2]
 483:.\Generated_Source\PSoC4/cyfitter_cfg.c **** 		CY_SET_XTND_REG8((void *)CYREG_UDB_UDBIF_BANK_CTL, CY_GET_XTND_REG8((void *)CYREG_UDB_UDBIF_BANK_
 247              		.loc 1 483 0
 248 00b6 484A     		ldr	r2, .L13+76
 249 00b8 1178     		ldrb	r1, [r2]
 250 00ba 1943     		orr	r1, r3
 251 00bc 1170     		strb	r1, [r2]
 486:.\Generated_Source\PSoC4/cyfitter_cfg.c **** 		CY_SET_XTND_REG8((void *)CYREG_UDB_UDBIF_WAIT_CFG, (uint8)((CY_GET_XTND_REG8((void *)CYREG_UDB_UD
 252              		.loc 1 486 0
 253 00be 4749     		ldr	r1, .L13+80
 254 00c0 0878     		ldrb	r0, [r1]
 255 00c2 A843     		bic	r0, r5
 256 00c4 1425     		mov	r5, #20
 257 00c6 2843     		orr	r0, r5
 258 00c8 0870     		strb	r0, [r1]
 487:.\Generated_Source\PSoC4/cyfitter_cfg.c **** 		CY_SET_XTND_REG8((void *)CYREG_UDB_UDBIF_BANK_CTL, (uint8)(CY_GET_XTND_REG8((void *)CYREG_UDB_UDB
ARM GAS  C:\Users\SDEVAS~1\AppData\Local\Temp\ccKiIaRi.s 			page 15


 259              		.loc 1 487 0
 260 00ca 1178     		ldrb	r1, [r2]
 261 00cc 1620     		mov	r0, #22
 262 00ce 0143     		orr	r1, r0
 263 00d0 1170     		strb	r1, [r2]
 264              	.LBE27:
 492:.\Generated_Source\PSoC4/cyfitter_cfg.c **** 	CY_SET_XTND_REG32((void CYFAR *)(CYREG_PRT0_DR), 0x0000002Au);
 265              		.loc 1 492 0
 266 00d2 434A     		ldr	r2, .L13+84
 267 00d4 2A21     		mov	r1, #42
 268 00d6 1160     		str	r1, [r2]
 493:.\Generated_Source\PSoC4/cyfitter_cfg.c **** 	CY_SET_XTND_REG32((void CYFAR *)(CYREG_PRT0_PC), 0x000319B6u);
 269              		.loc 1 493 0
 270 00d8 4249     		ldr	r1, .L13+88
 271 00da 434A     		ldr	r2, .L13+92
 502:.\Generated_Source\PSoC4/cyfitter_cfg.c **** 	CY_SET_XTND_REG32((void CYFAR *)(CYREG_PRT2_DR), 0x00000003u);
 272              		.loc 1 502 0
 273 00dc 0325     		mov	r5, #3
 493:.\Generated_Source\PSoC4/cyfitter_cfg.c **** 	CY_SET_XTND_REG32((void CYFAR *)(CYREG_PRT0_PC), 0x000319B6u);
 274              		.loc 1 493 0
 275 00de 1160     		str	r1, [r2]
 494:.\Generated_Source\PSoC4/cyfitter_cfg.c **** 	CY_SET_XTND_REG32((void CYFAR *)(CYREG_PRT0_INTCFG), 0x000000C0u);
 276              		.loc 1 494 0
 277 00e0 424A     		ldr	r2, .L13+96
 278 00e2 C021     		mov	r1, #192
 279 00e4 1160     		str	r1, [r2]
 495:.\Generated_Source\PSoC4/cyfitter_cfg.c **** 	CY_SET_XTND_REG32((void CYFAR *)(CYREG_PRT0_PC2), 0x00000020u);
 280              		.loc 1 495 0
 281 00e6 424A     		ldr	r2, .L13+100
 498:.\Generated_Source\PSoC4/cyfitter_cfg.c **** 	CY_SET_XTND_REG32((void CYFAR *)(CYREG_PRT1_PC), 0x00180DB6u);
 282              		.loc 1 498 0
 283 00e8 4249     		ldr	r1, .L13+104
 495:.\Generated_Source\PSoC4/cyfitter_cfg.c **** 	CY_SET_XTND_REG32((void CYFAR *)(CYREG_PRT0_PC2), 0x00000020u);
 284              		.loc 1 495 0
 285 00ea 1460     		str	r4, [r2]
 498:.\Generated_Source\PSoC4/cyfitter_cfg.c **** 	CY_SET_XTND_REG32((void CYFAR *)(CYREG_PRT1_PC), 0x00180DB6u);
 286              		.loc 1 498 0
 287 00ec 424A     		ldr	r2, .L13+108
 288              	.LBB28:
 289              	.LBB23:
 190:.\Generated_Source\PSoC4/cyfitter_cfg.c **** 	CySysClkWriteImoFreq(24u);
 290              		.loc 1 190 0
 291 00ee 1820     		mov	r0, #24
 292              	.LBE23:
 293              	.LBE28:
 498:.\Generated_Source\PSoC4/cyfitter_cfg.c **** 	CY_SET_XTND_REG32((void CYFAR *)(CYREG_PRT1_PC), 0x00180DB6u);
 294              		.loc 1 498 0
 295 00f0 1160     		str	r1, [r2]
 499:.\Generated_Source\PSoC4/cyfitter_cfg.c **** 	CY_SET_XTND_REG32((void CYFAR *)(CYREG_PRT1_PC2), 0x00000080u);
 296              		.loc 1 499 0
 297 00f2 424A     		ldr	r2, .L13+112
 298 00f4 8021     		mov	r1, #128
 299 00f6 1160     		str	r1, [r2]
 502:.\Generated_Source\PSoC4/cyfitter_cfg.c **** 	CY_SET_XTND_REG32((void CYFAR *)(CYREG_PRT2_DR), 0x00000003u);
 300              		.loc 1 502 0
 301 00f8 414A     		ldr	r2, .L13+116
 503:.\Generated_Source\PSoC4/cyfitter_cfg.c **** 	CY_SET_XTND_REG32((void CYFAR *)(CYREG_PRT2_PC), 0x00D81D80u);
ARM GAS  C:\Users\SDEVAS~1\AppData\Local\Temp\ccKiIaRi.s 			page 16


 302              		.loc 1 503 0
 303 00fa 4249     		ldr	r1, .L13+120
 502:.\Generated_Source\PSoC4/cyfitter_cfg.c **** 	CY_SET_XTND_REG32((void CYFAR *)(CYREG_PRT2_DR), 0x00000003u);
 304              		.loc 1 502 0
 305 00fc 1560     		str	r5, [r2]
 503:.\Generated_Source\PSoC4/cyfitter_cfg.c **** 	CY_SET_XTND_REG32((void CYFAR *)(CYREG_PRT2_PC), 0x00D81D80u);
 306              		.loc 1 503 0
 307 00fe 424A     		ldr	r2, .L13+124
 308 0100 1160     		str	r1, [r2]
 504:.\Generated_Source\PSoC4/cyfitter_cfg.c **** 	CY_SET_XTND_REG32((void CYFAR *)(CYREG_PRT2_PC2), 0x00000003u);
 309              		.loc 1 504 0
 310 0102 424A     		ldr	r2, .L13+128
 507:.\Generated_Source\PSoC4/cyfitter_cfg.c **** 	CY_SET_XTND_REG32((void CYFAR *)(CYREG_PRT3_PC), 0x00C00D80u);
 311              		.loc 1 507 0
 312 0104 4249     		ldr	r1, .L13+132
 504:.\Generated_Source\PSoC4/cyfitter_cfg.c **** 	CY_SET_XTND_REG32((void CYFAR *)(CYREG_PRT2_PC2), 0x00000003u);
 313              		.loc 1 504 0
 314 0106 1560     		str	r5, [r2]
 507:.\Generated_Source\PSoC4/cyfitter_cfg.c **** 	CY_SET_XTND_REG32((void CYFAR *)(CYREG_PRT3_PC), 0x00C00D80u);
 315              		.loc 1 507 0
 316 0108 424A     		ldr	r2, .L13+136
 317 010a 1160     		str	r1, [r2]
 510:.\Generated_Source\PSoC4/cyfitter_cfg.c **** 	CY_SET_XTND_REG32((void CYFAR *)(CYREG_PRT4_DR), 0x00000002u);
 318              		.loc 1 510 0
 319 010c 424A     		ldr	r2, .L13+140
 511:.\Generated_Source\PSoC4/cyfitter_cfg.c **** 	CY_SET_XTND_REG32((void CYFAR *)(CYREG_PRT4_PC), 0x00000031u);
 320              		.loc 1 511 0
 321 010e 3121     		mov	r1, #49
 510:.\Generated_Source\PSoC4/cyfitter_cfg.c **** 	CY_SET_XTND_REG32((void CYFAR *)(CYREG_PRT4_DR), 0x00000002u);
 322              		.loc 1 510 0
 323 0110 1360     		str	r3, [r2]
 511:.\Generated_Source\PSoC4/cyfitter_cfg.c **** 	CY_SET_XTND_REG32((void CYFAR *)(CYREG_PRT4_PC), 0x00000031u);
 324              		.loc 1 511 0
 325 0112 424A     		ldr	r2, .L13+144
 326 0114 1160     		str	r1, [r2]
 512:.\Generated_Source\PSoC4/cyfitter_cfg.c **** 	CY_SET_XTND_REG32((void CYFAR *)(CYREG_PRT4_PC2), 0x00000002u);
 327              		.loc 1 512 0
 328 0116 424A     		ldr	r2, .L13+148
 329 0118 1360     		str	r3, [r2]
 330              	.LBB29:
 331              	.LBB24:
 187:.\Generated_Source\PSoC4/cyfitter_cfg.c **** 	CY_SET_REG32((void CYXDATA *)(CYREG_CLK_SELECT), (CY_GET_REG32((void *)CYREG_CLK_SELECT) | 0x00040
 332              		.loc 1 187 0
 333 011a 3A68     		ldr	r2, [r7]
 334 011c 8023     		mov	r3, #128
 335 011e DB02     		lsl	r3, r3, #11
 336 0120 1343     		orr	r3, r2
 337 0122 3B60     		str	r3, [r7]
 190:.\Generated_Source\PSoC4/cyfitter_cfg.c **** 	CySysClkWriteImoFreq(24u);
 338              		.loc 1 190 0
 339 0124 FFF7FEFF 		bl	CySysClkWriteImoFreq
 340              	.LVL22:
 193:.\Generated_Source\PSoC4/cyfitter_cfg.c **** 	CY_SET_REG32((void CYXDATA *)(CYREG_CLK_SELECT), (CY_GET_REG32((void *)CYREG_CLK_SELECT) & 0xFFFBF
 341              		.loc 1 193 0
 342 0128 3A68     		ldr	r2, [r7]
 343 012a 3E4B     		ldr	r3, .L13+152
 344              	.LBE24:
ARM GAS  C:\Users\SDEVAS~1\AppData\Local\Temp\ccKiIaRi.s 			page 17


 345              	.LBE29:
 346              	.LBB30:
 347              	.LBB31:
 250:.\Generated_Source\PSoC4/cyfitter_cfg.c **** 	SetAnalogRoutingPumps(1);
 348              		.loc 1 250 0
 349 012c 301C     		mov	r0, r6
 350              	.LBE31:
 351              	.LBE30:
 352              	.LBB33:
 353              	.LBB25:
 193:.\Generated_Source\PSoC4/cyfitter_cfg.c **** 	CY_SET_REG32((void CYXDATA *)(CYREG_CLK_SELECT), (CY_GET_REG32((void *)CYREG_CLK_SELECT) & 0xFFFBF
 354              		.loc 1 193 0
 355 012e 1340     		and	r3, r2
 356 0130 3B60     		str	r3, [r7]
 195:.\Generated_Source\PSoC4/cyfitter_cfg.c **** 	CY_SET_XTND_REG32((void CYFAR *)(CYREG_CLK_ILO_CONFIG), 0x80000006u);
 357              		.loc 1 195 0
 358 0132 3D4A     		ldr	r2, .L13+156
 359 0134 3D4B     		ldr	r3, .L13+160
 360 0136 1A60     		str	r2, [r3]
 199:.\Generated_Source\PSoC4/cyfitter_cfg.c **** 	CY_SET_XTND_REG32((void CYFAR *)(CYREG_CLK_SELECT02), 0x00000020u);
 361              		.loc 1 199 0
 362 0138 3D4B     		ldr	r3, .L13+164
 200:.\Generated_Source\PSoC4/cyfitter_cfg.c **** 	CY_SET_XTND_REG32((void CYFAR *)(CYREG_CLK_SELECT03), 0x00000030u);
 363              		.loc 1 200 0
 364 013a 3022     		mov	r2, #48
 199:.\Generated_Source\PSoC4/cyfitter_cfg.c **** 	CY_SET_XTND_REG32((void CYFAR *)(CYREG_CLK_SELECT02), 0x00000020u);
 365              		.loc 1 199 0
 366 013c 1C60     		str	r4, [r3]
 200:.\Generated_Source\PSoC4/cyfitter_cfg.c **** 	CY_SET_XTND_REG32((void CYFAR *)(CYREG_CLK_SELECT03), 0x00000030u);
 367              		.loc 1 200 0
 368 013e 3D4B     		ldr	r3, .L13+168
 369 0140 1A60     		str	r2, [r3]
 201:.\Generated_Source\PSoC4/cyfitter_cfg.c **** 	CY_SET_XTND_REG32((void CYFAR *)(CYREG_CLK_SELECT07), 0x00000010u);
 370              		.loc 1 201 0
 371 0142 3D4B     		ldr	r3, .L13+172
 372 0144 1022     		mov	r2, #16
 373 0146 1A60     		str	r2, [r3]
 202:.\Generated_Source\PSoC4/cyfitter_cfg.c **** 	CY_SET_XTND_REG32((void CYFAR *)(CYREG_CLK_SELECT13), 0x00000011u);
 374              		.loc 1 202 0
 375 0148 3C4B     		ldr	r3, .L13+176
 376 014a 1122     		mov	r2, #17
 377 014c 1A60     		str	r2, [r3]
 203:.\Generated_Source\PSoC4/cyfitter_cfg.c **** 	CY_SET_XTND_REG32((void CYFAR *)(CYREG_CLK_SELECT15), 0x00000021u);
 378              		.loc 1 203 0
 379 014e 3C4B     		ldr	r3, .L13+180
 380 0150 2122     		mov	r2, #33
 381 0152 1A60     		str	r2, [r3]
 206:.\Generated_Source\PSoC4/cyfitter_cfg.c **** 	CY_SET_XTND_REG32((void CYFAR *)(CYREG_CLK_IMO_CONFIG), 0x82000000u);
 382              		.loc 1 206 0
 383 0154 3B4B     		ldr	r3, .L13+184
 384 0156 8222     		mov	r2, #130
 385 0158 1206     		lsl	r2, r2, #24
 386 015a 1A60     		str	r2, [r3]
 209:.\Generated_Source\PSoC4/cyfitter_cfg.c **** 	CY_SET_XTND_REG32((void CYFAR *)(CYREG_CLK_DIVIDER_A00), 0x80000003u);
 387              		.loc 1 209 0
 388 015c 3A4A     		ldr	r2, .L13+188
 389 015e 3B4B     		ldr	r3, .L13+192
ARM GAS  C:\Users\SDEVAS~1\AppData\Local\Temp\ccKiIaRi.s 			page 18


 390 0160 1A60     		str	r2, [r3]
 212:.\Generated_Source\PSoC4/cyfitter_cfg.c **** 	CY_SET_XTND_REG32((void CYFAR *)(CYREG_CLK_DIVIDER_B00), 0x80000010u);
 391              		.loc 1 212 0
 392 0162 3B4B     		ldr	r3, .L13+196
 393 0164 3B4A     		ldr	r2, .L13+200
 394 0166 1360     		str	r3, [r2]
 215:.\Generated_Source\PSoC4/cyfitter_cfg.c **** 	CY_SET_XTND_REG32((void CYFAR *)(CYREG_CLK_DIVIDER_C00), 0x80000010u);
 395              		.loc 1 215 0
 396 0168 3B4A     		ldr	r2, .L13+204
 397 016a 1360     		str	r3, [r2]
 218:.\Generated_Source\PSoC4/cyfitter_cfg.c **** 	CY_SET_XTND_REG32((void CYFAR *)(CYREG_CLK_DIVIDER_A01), 0x80000017u);
 398              		.loc 1 218 0
 399 016c 3B4A     		ldr	r2, .L13+208
 400 016e 3C4B     		ldr	r3, .L13+212
 401 0170 1A60     		str	r2, [r3]
 221:.\Generated_Source\PSoC4/cyfitter_cfg.c **** 	CY_SET_XTND_REG32((void CYFAR *)(CYREG_CLK_DIVIDER_B01), 0x80002EDFu);
 402              		.loc 1 221 0
 403 0172 3C4A     		ldr	r2, .L13+216
 404 0174 3C4B     		ldr	r3, .L13+220
 405 0176 1A60     		str	r2, [r3]
 223:.\Generated_Source\PSoC4/cyfitter_cfg.c **** 	CY_SET_XTND_REG32((void CYFAR *)(CYREG_WDT_CONFIG), 0x00000000u);
 406              		.loc 1 223 0
 407 0178 3C4B     		ldr	r3, .L13+224
 408 017a 0022     		mov	r2, #0
 409 017c 1A60     		str	r2, [r3]
 410              	.LBE25:
 411              	.LBE33:
 412              	.LBB34:
 413              	.LBB32:
 248:.\Generated_Source\PSoC4/cyfitter_cfg.c **** 	CY_SET_XTND_REG32((void CYFAR *)CYREG_SAR_MUX_SWITCH0, 0x00000003u);
 414              		.loc 1 248 0
 415 017e 3C4B     		ldr	r3, .L13+228
 416 0180 1D60     		str	r5, [r3]
 249:.\Generated_Source\PSoC4/cyfitter_cfg.c **** 	CY_SET_XTND_REG32((void CYFAR *)CYREG_SAR_MUX_SWITCH_HW_CTRL, 0x00000003u);
 417              		.loc 1 249 0
 418 0182 3C4B     		ldr	r3, .L13+232
 419 0184 1D60     		str	r5, [r3]
 250:.\Generated_Source\PSoC4/cyfitter_cfg.c **** 	SetAnalogRoutingPumps(1);
 420              		.loc 1 250 0
 421 0186 FFF7FEFF 		bl	SetAnalogRoutingPumps
 422              	.LVL23:
 423              	.LVL24:
 424              	.LBE32:
 425              	.LBE34:
 426              		.loc 1 520 0
 427 018a F7BD     		pop	{r0, r1, r2, r4, r5, r6, r7, pc}
 428              	.L14:
 429              		.align	2
 430              	.L13:
 431 018c 1C700F40 		.word	1074753564
 432 0190 00300F40 		.word	1074737152
 433 0194 00400F40 		.word	1074741248
 434 0198 00000000 		.word	.LANCHOR0
 435 019c 00600F40 		.word	1074749440
 436 01a0 02600F40 		.word	1074749442
 437 01a4 00000140 		.word	1073807360
 438 01a8 0C000140 		.word	1073807372
ARM GAS  C:\Users\SDEVAS~1\AppData\Local\Temp\ccKiIaRi.s 			page 19


 439 01ac 10000140 		.word	1073807376
 440 01b0 00500F40 		.word	1074745344
 441 01b4 04500F40 		.word	1074745348
 442 01b8 10500F40 		.word	1074745360
 443 01bc 04009900 		.word	10027012
 444 01c0 20500F40 		.word	1074745376
 445 01c4 24500F40 		.word	1074745380
 446 01c8 30500F40 		.word	1074745392
 447 01cc 00010B40 		.word	1074462976
 448 01d0 20000040 		.word	1073741856
 449 01d4 00800F40 		.word	1074757632
 450 01d8 00700F40 		.word	1074753536
 451 01dc 01700F40 		.word	1074753537
 452 01e0 00000440 		.word	1074003968
 453 01e4 B6190300 		.word	203190
 454 01e8 08000440 		.word	1074003976
 455 01ec 0C000440 		.word	1074003980
 456 01f0 18000440 		.word	1074003992
 457 01f4 B60D1800 		.word	1576374
 458 01f8 08010440 		.word	1074004232
 459 01fc 18010440 		.word	1074004248
 460 0200 00020440 		.word	1074004480
 461 0204 801DD800 		.word	14163328
 462 0208 08020440 		.word	1074004488
 463 020c 18020440 		.word	1074004504
 464 0210 800DC000 		.word	12586368
 465 0214 08030440 		.word	1074004744
 466 0218 00040440 		.word	1074004992
 467 021c 08040440 		.word	1074005000
 468 0220 18040440 		.word	1074005016
 469 0224 FFFFFBFF 		.word	-262145
 470 0228 06000080 		.word	-2147483642
 471 022c 04010B40 		.word	1074462980
 472 0230 08020240 		.word	1073873416
 473 0234 0C020240 		.word	1073873420
 474 0238 1C020240 		.word	1073873436
 475 023c 34020240 		.word	1073873460
 476 0240 3C020240 		.word	1073873468
 477 0244 08010B40 		.word	1074462984
 478 0248 03000080 		.word	-2147483645
 479 024c 00000240 		.word	1073872896
 480 0250 10000080 		.word	-2147483632
 481 0254 40000240 		.word	1073872960
 482 0258 80000240 		.word	1073873024
 483 025c 17000080 		.word	-2147483625
 484 0260 04000240 		.word	1073872900
 485 0264 DF2E0080 		.word	-2147471649
 486 0268 44000240 		.word	1073872964
 487 026c 0C020B40 		.word	1074463244
 488 0270 00031A40 		.word	1075446528
 489 0274 40031A40 		.word	1075446592
 490              		.cfi_endproc
 491              	.LFE7:
 492              		.size	cyfitter_cfg, .-cyfitter_cfg
 493              		.section	.rodata
 494              		.align	2
 495              		.set	.LANCHOR0,. + 0
ARM GAS  C:\Users\SDEVAS~1\AppData\Local\Temp\ccKiIaRi.s 			page 20


 496              		.type	cy_cfg_addr_table.4740, %object
 497              		.size	cy_cfg_addr_table.4740, 32
 498              	cy_cfg_addr_table.4740:
 499 0000 02000F40 		.word	1074724866
 500 0004 37320F40 		.word	1074737719
 501 0008 23330F40 		.word	1074737955
 502 000c 02400F40 		.word	1074741250
 503 0010 03410F40 		.word	1074741507
 504 0014 02420F40 		.word	1074741762
 505 0018 02430F40 		.word	1074742018
 506 001c 02600F40 		.word	1074749442
 507              		.type	cy_cfg_data_table.4741, %object
 508              		.size	cy_cfg_data_table.4741, 206
 509              	cy_cfg_data_table.4741:
 510 0020 82       		.byte	-126
 511 0021 67       		.byte	103
 512 0022 83       		.byte	-125
 513 0023 7F       		.byte	127
 514 0024 00       		.byte	0
 515 0025 04       		.byte	4
 516 0026 03       		.byte	3
 517 0027 03       		.byte	3
 518 0028 0E       		.byte	14
 519 0029 0C       		.byte	12
 520 002a 14       		.byte	20
 521 002b 01       		.byte	1
 522 002c 19       		.byte	25
 523 002d 01       		.byte	1
 524 002e 1E       		.byte	30
 525 002f 03       		.byte	3
 526 0030 2E       		.byte	46
 527 0031 01       		.byte	1
 528 0032 30       		.byte	48
 529 0033 08       		.byte	8
 530 0034 32       		.byte	50
 531 0035 02       		.byte	2
 532 0036 33       		.byte	51
 533 0037 02       		.byte	2
 534 0038 34       		.byte	52
 535 0039 04       		.byte	4
 536 003a 36       		.byte	54
 537 003b 01       		.byte	1
 538 003c 37       		.byte	55
 539 003d 01       		.byte	1
 540 003e 3E       		.byte	62
 541 003f 50       		.byte	80
 542 0040 3F       		.byte	63
 543 0041 40       		.byte	64
 544 0042 40       		.byte	64
 545 0043 14       		.byte	20
 546 0044 41       		.byte	65
 547 0045 06       		.byte	6
 548 0046 45       		.byte	69
 549 0047 5C       		.byte	92
 550 0048 46       		.byte	70
 551 0049 20       		.byte	32
 552 004a 47       		.byte	71
ARM GAS  C:\Users\SDEVAS~1\AppData\Local\Temp\ccKiIaRi.s 			page 21


 553 004b 0E       		.byte	14
 554 004c 48       		.byte	72
 555 004d 3B       		.byte	59
 556 004e 49       		.byte	73
 557 004f FF       		.byte	-1
 558 0050 4A       		.byte	74
 559 0051 FF       		.byte	-1
 560 0052 4B       		.byte	75
 561 0053 FF       		.byte	-1
 562 0054 4D       		.byte	77
 563 0055 A0       		.byte	-96
 564 0056 4F       		.byte	79
 565 0057 01       		.byte	1
 566 0058 50       		.byte	80
 567 0059 18       		.byte	24
 568 005a 52       		.byte	82
 569 005b 80       		.byte	-128
 570 005c 54       		.byte	84
 571 005d 07       		.byte	7
 572 005e 58       		.byte	88
 573 005f 04       		.byte	4
 574 0060 59       		.byte	89
 575 0061 04       		.byte	4
 576 0062 5A       		.byte	90
 577 0063 04       		.byte	4
 578 0064 5B       		.byte	91
 579 0065 04       		.byte	4
 580 0066 5C       		.byte	92
 581 0067 11       		.byte	17
 582 0068 5D       		.byte	93
 583 0069 11       		.byte	17
 584 006a 5F       		.byte	95
 585 006b 01       		.byte	1
 586 006c 60       		.byte	96
 587 006d 40       		.byte	64
 588 006e 62       		.byte	98
 589 006f 80       		.byte	-128
 590 0070 64       		.byte	100
 591 0071 40       		.byte	64
 592 0072 65       		.byte	101
 593 0073 40       		.byte	64
 594 0074 66       		.byte	102
 595 0075 80       		.byte	-128
 596 0076 68       		.byte	104
 597 0077 40       		.byte	64
 598 0078 6A       		.byte	106
 599 0079 50       		.byte	80
 600 007a 6B       		.byte	107
 601 007b A8       		.byte	-88
 602 007c 6C       		.byte	108
 603 007d 40       		.byte	64
 604 007e 6D       		.byte	109
 605 007f 20       		.byte	32
 606 0080 6E       		.byte	110
 607 0081 50       		.byte	80
 608 0082 6F       		.byte	111
 609 0083 A8       		.byte	-88
ARM GAS  C:\Users\SDEVAS~1\AppData\Local\Temp\ccKiIaRi.s 			page 22


 610 0084 B8       		.byte	-72
 611 0085 20       		.byte	32
 612 0086 BE       		.byte	-66
 613 0087 10       		.byte	16
 614 0088 D6       		.byte	-42
 615 0089 02       		.byte	2
 616 008a D8       		.byte	-40
 617 008b 04       		.byte	4
 618 008c DB       		.byte	-37
 619 008d 04       		.byte	4
 620 008e DD       		.byte	-35
 621 008f 30       		.byte	48
 622 0090 DF       		.byte	-33
 623 0091 01       		.byte	1
 624 0092 05       		.byte	5
 625 0093 01       		.byte	1
 626 0094 06       		.byte	6
 627 0095 01       		.byte	1
 628 0096 0E       		.byte	14
 629 0097 12       		.byte	18
 630 0098 17       		.byte	23
 631 0099 40       		.byte	64
 632 009a 18       		.byte	24
 633 009b 08       		.byte	8
 634 009c 1D       		.byte	29
 635 009d 81       		.byte	-127
 636 009e 1E       		.byte	30
 637 009f 18       		.byte	24
 638 00a0 26       		.byte	38
 639 00a1 40       		.byte	64
 640 00a2 27       		.byte	39
 641 00a3 20       		.byte	32
 642 00a4 37       		.byte	55
 643 00a5 20       		.byte	32
 644 00a6 3E       		.byte	62
 645 00a7 20       		.byte	32
 646 00a8 3F       		.byte	63
 647 00a9 12       		.byte	18
 648 00aa 45       		.byte	69
 649 00ab 82       		.byte	-126
 650 00ac 4C       		.byte	76
 651 00ad 04       		.byte	4
 652 00ae 4F       		.byte	79
 653 00af 06       		.byte	6
 654 00b0 55       		.byte	85
 655 00b1 02       		.byte	2
 656 00b2 56       		.byte	86
 657 00b3 29       		.byte	41
 658 00b4 5E       		.byte	94
 659 00b5 88       		.byte	-120
 660 00b6 5F       		.byte	95
 661 00b7 10       		.byte	16
 662 00b8 66       		.byte	102
 663 00b9 08       		.byte	8
 664 00ba 67       		.byte	103
 665 00bb 04       		.byte	4
 666 00bc 72       		.byte	114
ARM GAS  C:\Users\SDEVAS~1\AppData\Local\Temp\ccKiIaRi.s 			page 23


 667 00bd 80       		.byte	-128
 668 00be 77       		.byte	119
 669 00bf 40       		.byte	64
 670 00c0 82       		.byte	-126
 671 00c1 80       		.byte	-128
 672 00c2 A2       		.byte	-94
 673 00c3 01       		.byte	1
 674 00c4 B6       		.byte	-74
 675 00c5 01       		.byte	1
 676 00c6 C0       		.byte	-64
 677 00c7 90       		.byte	-112
 678 00c8 C2       		.byte	-62
 679 00c9 A0       		.byte	-96
 680 00ca C4       		.byte	-60
 681 00cb 80       		.byte	-128
 682 00cc CC       		.byte	-52
 683 00cd 20       		.byte	32
 684 00ce CE       		.byte	-50
 685 00cf 80       		.byte	-128
 686 00d0 D0       		.byte	-48
 687 00d1 90       		.byte	-112
 688 00d2 D2       		.byte	-46
 689 00d3 20       		.byte	32
 690 00d4 D6       		.byte	-42
 691 00d5 70       		.byte	112
 692 00d6 D8       		.byte	-40
 693 00d7 60       		.byte	96
 694 00d8 6F       		.byte	111
 695 00d9 04       		.byte	4
 696 00da DA       		.byte	-38
 697 00db 80       		.byte	-128
 698 00dc 83       		.byte	-125
 699 00dd 04       		.byte	4
 700 00de 9F       		.byte	-97
 701 00df 04       		.byte	4
 702 00e0 E2       		.byte	-30
 703 00e1 80       		.byte	-128
 704 00e2 09       		.byte	9
 705 00e3 01       		.byte	1
 706 00e4 C2       		.byte	-62
 707 00e5 08       		.byte	8
 708 00e6 B5       		.byte	-75
 709 00e7 01       		.byte	1
 710 00e8 EA       		.byte	-22
 711 00e9 08       		.byte	8
 712 00ea 10       		.byte	16
 713 00eb 0A       		.byte	10
 714 00ec 11       		.byte	17
 715 00ed 01       		.byte	1
 716 00ee 0000     		.text
 717              	.Letext0:
 718              		.file 2 "c:\\program files (x86)\\cypress\\psoc creator\\3.2\\psoc creator\\import\\gnu\\arm\\4.8.
 719              		.file 3 ".\\Generated_Source\\PSoC4\\cytypes.h"
 720              		.file 4 ".\\Generated_Source\\PSoC4\\CyLib.h"