ARM GAS  C:\Users\SDEVAS~1\AppData\Local\Temp\ccMcedjC.s 			page 1


   1              		.cpu cortex-m0
   2              		.fpu softvfp
   3              		.eabi_attribute 20, 1
   4              		.eabi_attribute 21, 1
   5              		.eabi_attribute 23, 3
   6              		.eabi_attribute 24, 1
   7              		.eabi_attribute 25, 1
   8              		.eabi_attribute 26, 1
   9              		.eabi_attribute 30, 4
  10              		.eabi_attribute 34, 0
  11              		.eabi_attribute 18, 4
  12              		.code	16
  13              		.file	"CyFlash.c"
  14              		.text
  15              	.Ltext0:
  16              		.cfi_sections	.debug_frame
  17              		.section	.text.CySysFlashWriteRow,"ax",%progbits
  18              		.align	1
  19              		.global	CySysFlashWriteRow
  20              		.code	16
  21              		.thumb_func
  22              		.type	CySysFlashWriteRow, %function
  23              	CySysFlashWriteRow:
  24              	.LFB0:
  25              		.file 1 ".\\Generated_Source\\PSoC4\\CyFlash.c"
   1:.\Generated_Source\PSoC4/CyFlash.c **** /*******************************************************************************
   2:.\Generated_Source\PSoC4/CyFlash.c **** * File Name: CyFlash.c
   3:.\Generated_Source\PSoC4/CyFlash.c **** * Version 5.0
   4:.\Generated_Source\PSoC4/CyFlash.c **** *
   5:.\Generated_Source\PSoC4/CyFlash.c **** *  Description:
   6:.\Generated_Source\PSoC4/CyFlash.c **** *   Provides an API for the FLASH.
   7:.\Generated_Source\PSoC4/CyFlash.c **** *
   8:.\Generated_Source\PSoC4/CyFlash.c **** *  Note:
   9:.\Generated_Source\PSoC4/CyFlash.c **** *   This code is endian agnostic.
  10:.\Generated_Source\PSoC4/CyFlash.c **** *
  11:.\Generated_Source\PSoC4/CyFlash.c **** *  Note:
  12:.\Generated_Source\PSoC4/CyFlash.c **** *   Documentation of the API's in this file is located in the
  13:.\Generated_Source\PSoC4/CyFlash.c **** *   System Reference Guide provided with PSoC Creator.
  14:.\Generated_Source\PSoC4/CyFlash.c **** *
  15:.\Generated_Source\PSoC4/CyFlash.c **** ********************************************************************************
  16:.\Generated_Source\PSoC4/CyFlash.c **** * Copyright 2010-2015, Cypress Semiconductor Corporation.  All rights reserved.
  17:.\Generated_Source\PSoC4/CyFlash.c **** * You may use this file only in accordance with the license, terms, conditions,
  18:.\Generated_Source\PSoC4/CyFlash.c **** * disclaimers, and limitations in the end user license agreement accompanying
  19:.\Generated_Source\PSoC4/CyFlash.c **** * the software package with which this file was provided.
  20:.\Generated_Source\PSoC4/CyFlash.c **** *******************************************************************************/
  21:.\Generated_Source\PSoC4/CyFlash.c **** 
  22:.\Generated_Source\PSoC4/CyFlash.c **** #include "CyFlash.h"
  23:.\Generated_Source\PSoC4/CyFlash.c **** 
  24:.\Generated_Source\PSoC4/CyFlash.c **** 
  25:.\Generated_Source\PSoC4/CyFlash.c **** /*******************************************************************************
  26:.\Generated_Source\PSoC4/CyFlash.c **** * Cypress identified a defect with the Flash write functionality of the
  27:.\Generated_Source\PSoC4/CyFlash.c **** * PSoC 4000, PSoC 4100, and PSoC 4200 devices. The CySysFlashWriteRow() function
  28:.\Generated_Source\PSoC4/CyFlash.c **** * now checks the data to be written and, if necessary, modifies it to have a
  29:.\Generated_Source\PSoC4/CyFlash.c **** * non-zero checksum. After writing to Flash, the modified data is replaced
  30:.\Generated_Source\PSoC4/CyFlash.c **** * (Flash program) with the correct (original) data.
  31:.\Generated_Source\PSoC4/CyFlash.c **** *******************************************************************************/
  32:.\Generated_Source\PSoC4/CyFlash.c **** #define CY_FLASH_CHECKSUM_WORKAROUND    (CY_PSOC4_4000 || CY_PSOC4_4100 || CY_PSOC4_4200)
ARM GAS  C:\Users\SDEVAS~1\AppData\Local\Temp\ccMcedjC.s 			page 2


  33:.\Generated_Source\PSoC4/CyFlash.c **** 
  34:.\Generated_Source\PSoC4/CyFlash.c **** #if (CY_IP_FM || (CY_IP_FMLT && CY_IP_SPCIF_SYNCHRONOUS))
  35:.\Generated_Source\PSoC4/CyFlash.c ****     static CY_SYS_FLASH_CLOCK_BACKUP_STRUCT cySysFlashBackup;
  36:.\Generated_Source\PSoC4/CyFlash.c **** #endif /* (CY_IP_FM || (CY_IP_FMLT && CY_IP_SPCIF_SYNCHRONOUS)) */
  37:.\Generated_Source\PSoC4/CyFlash.c **** 
  38:.\Generated_Source\PSoC4/CyFlash.c **** static cystatus CySysFlashClockBackup(void);
  39:.\Generated_Source\PSoC4/CyFlash.c **** static cystatus CySysFlashClockRestore(void);
  40:.\Generated_Source\PSoC4/CyFlash.c **** #if(CY_IP_FMLT)
  41:.\Generated_Source\PSoC4/CyFlash.c ****     static cystatus CySysFlashClockConfig(void);
  42:.\Generated_Source\PSoC4/CyFlash.c **** #endif  /* (CY_IP_FMLT) */
  43:.\Generated_Source\PSoC4/CyFlash.c **** 
  44:.\Generated_Source\PSoC4/CyFlash.c **** 
  45:.\Generated_Source\PSoC4/CyFlash.c **** /*******************************************************************************
  46:.\Generated_Source\PSoC4/CyFlash.c **** * Function Name: CySysFlashWriteRow
  47:.\Generated_Source\PSoC4/CyFlash.c **** ********************************************************************************
  48:.\Generated_Source\PSoC4/CyFlash.c **** *
  49:.\Generated_Source\PSoC4/CyFlash.c **** * Summary:
  50:.\Generated_Source\PSoC4/CyFlash.c **** *  Erases a row of Flash and programs it with the new data.
  51:.\Generated_Source\PSoC4/CyFlash.c **** *
  52:.\Generated_Source\PSoC4/CyFlash.c **** * Parameters:
  53:.\Generated_Source\PSoC4/CyFlash.c **** *  uint16 rowNum:
  54:.\Generated_Source\PSoC4/CyFlash.c **** *   The flash row number. The number of the flash rows is defined by the
  55:.\Generated_Source\PSoC4/CyFlash.c **** *   CY_FLASH_NUMBER_ROWS macro for the selected device. Refer to the device
  56:.\Generated_Source\PSoC4/CyFlash.c **** *   datasheet for the details.
  57:.\Generated_Source\PSoC4/CyFlash.c **** *
  58:.\Generated_Source\PSoC4/CyFlash.c **** *  uint8* rowData:
  59:.\Generated_Source\PSoC4/CyFlash.c **** *   Array of bytes to write. The size of the array must be equal to the flash
  60:.\Generated_Source\PSoC4/CyFlash.c **** *   row size. The flash row size for the selected device is defined by
  61:.\Generated_Source\PSoC4/CyFlash.c **** *   the CY_FLASH_SIZEOF_ROW macro. Refer to the device datasheet for the
  62:.\Generated_Source\PSoC4/CyFlash.c **** *   details.
  63:.\Generated_Source\PSoC4/CyFlash.c **** *
  64:.\Generated_Source\PSoC4/CyFlash.c **** * Return:
  65:.\Generated_Source\PSoC4/CyFlash.c **** *  Status
  66:.\Generated_Source\PSoC4/CyFlash.c **** *     Value                     Description
  67:.\Generated_Source\PSoC4/CyFlash.c **** *    CY_SYS_FLASH_SUCCESS           Successful
  68:.\Generated_Source\PSoC4/CyFlash.c **** *    CY_SYS_FLASH_INVALID_ADDR      Specified flash row address is invalid
  69:.\Generated_Source\PSoC4/CyFlash.c **** *    CY_SYS_FLASH_PROTECTED         Specified flash row is protected
  70:.\Generated_Source\PSoC4/CyFlash.c **** *    Other non-zero                 Failure
  71:.\Generated_Source\PSoC4/CyFlash.c **** *
  72:.\Generated_Source\PSoC4/CyFlash.c **** * Side Effects:
  73:.\Generated_Source\PSoC4/CyFlash.c **** *   The IMO must be enabled before calling this function. The operation of the
  74:.\Generated_Source\PSoC4/CyFlash.c **** *   flash writing hardware is dependent on the IMO.
  75:.\Generated_Source\PSoC4/CyFlash.c **** *
  76:.\Generated_Source\PSoC4/CyFlash.c **** *   For PSoC 4000, PSoC 4100 BLE and PSoC 4200 BLE devices (PSoC 4100 BLE and
  77:.\Generated_Source\PSoC4/CyFlash.c **** *   PSoC 4200 BLE devices with 256K of Flash memory are not affected), this API
  78:.\Generated_Source\PSoC4/CyFlash.c **** *   will automatically modify the clock settings for the device. Writing to
  79:.\Generated_Source\PSoC4/CyFlash.c **** *   flash requires that changes be made to the IMO and HFCLK settings. The
  80:.\Generated_Source\PSoC4/CyFlash.c **** *   configuration is restored before returning. This will impact the operation
  81:.\Generated_Source\PSoC4/CyFlash.c **** *   of most of the hardware in the device.
  82:.\Generated_Source\PSoC4/CyFlash.c **** *
  83:.\Generated_Source\PSoC4/CyFlash.c **** *   For PSoC 4000 devices this API will automatically modify the clock settings
  84:.\Generated_Source\PSoC4/CyFlash.c **** *   for the device. Writing to flash requires that changes be made to the IMO
  85:.\Generated_Source\PSoC4/CyFlash.c **** *   and HFCLK settings. The configuration is restored before returning. HFCLK
  86:.\Generated_Source\PSoC4/CyFlash.c **** *   will have several frequency changes during the operation of this API between
  87:.\Generated_Source\PSoC4/CyFlash.c **** *   a minimum frequency of the current IMO frequency divided by 8 and a maximum
  88:.\Generated_Source\PSoC4/CyFlash.c **** *   frequency of 12 MHz. This will impact the operation of most of the hardware
  89:.\Generated_Source\PSoC4/CyFlash.c **** *   in the device.
ARM GAS  C:\Users\SDEVAS~1\AppData\Local\Temp\ccMcedjC.s 			page 3


  90:.\Generated_Source\PSoC4/CyFlash.c **** *
  91:.\Generated_Source\PSoC4/CyFlash.c **** *******************************************************************************/
  92:.\Generated_Source\PSoC4/CyFlash.c **** uint32 CySysFlashWriteRow(uint32 rowNum, const uint8 rowData[])
  93:.\Generated_Source\PSoC4/CyFlash.c **** {
  26              		.loc 1 93 0
  27              		.cfi_startproc
  28              	.LVL0:
  29 0000 F0B5     		push	{r4, r5, r6, r7, lr}
  30              		.cfi_def_cfa_offset 20
  31              		.cfi_offset 4, -20
  32              		.cfi_offset 5, -16
  33              		.cfi_offset 6, -12
  34              		.cfi_offset 7, -8
  35              		.cfi_offset 14, -4
  94:.\Generated_Source\PSoC4/CyFlash.c ****     volatile uint32 retValue = CY_SYS_FLASH_SUCCESS;
  36              		.loc 1 94 0
  37 0002 0025     		mov	r5, #0
  93:.\Generated_Source\PSoC4/CyFlash.c **** {
  38              		.loc 1 93 0
  39 0004 A9B0     		sub	sp, sp, #164
  40              		.cfi_def_cfa_offset 184
  41              		.loc 1 94 0
  42 0006 0495     		str	r5, [sp, #16]
  93:.\Generated_Source\PSoC4/CyFlash.c **** {
  43              		.loc 1 93 0
  44 0008 0290     		str	r0, [sp, #8]
  95:.\Generated_Source\PSoC4/CyFlash.c ****     volatile uint32 clkCnfRetValue = CY_SYS_FLASH_SUCCESS;
  45              		.loc 1 95 0
  46 000a 0595     		str	r5, [sp, #20]
  47              	.LVL1:
  96:.\Generated_Source\PSoC4/CyFlash.c ****     volatile uint32 parameters[(CY_FLASH_SIZEOF_ROW + CY_FLASH_SRAM_ROM_DATA) / sizeof(uint32)];
  97:.\Generated_Source\PSoC4/CyFlash.c ****     uint8  interruptState;
  98:.\Generated_Source\PSoC4/CyFlash.c **** 
  99:.\Generated_Source\PSoC4/CyFlash.c ****     #if (CY_FLASH_CHECKSUM_WORKAROUND)
 100:.\Generated_Source\PSoC4/CyFlash.c ****         uint32 needChecksumWorkaround = 0u;
 101:.\Generated_Source\PSoC4/CyFlash.c ****         uint32 savedIndex = 0u;
 102:.\Generated_Source\PSoC4/CyFlash.c ****         uint32 savedValue = 0u;
 103:.\Generated_Source\PSoC4/CyFlash.c ****         uint32 checksum = 0u;
 104:.\Generated_Source\PSoC4/CyFlash.c ****         uint32 bits = 0u;
 105:.\Generated_Source\PSoC4/CyFlash.c ****         uint32 i;
 106:.\Generated_Source\PSoC4/CyFlash.c ****     #endif  /* (CY_FLASH_CHECKSUM_WORKAROUND) */
 107:.\Generated_Source\PSoC4/CyFlash.c **** 
 108:.\Generated_Source\PSoC4/CyFlash.c ****     if ((rowNum < CY_FLASH_NUMBER_ROWS) && (rowData != 0u))
  48              		.loc 1 108 0
  49 000c FF28     		cmp	r0, #255
  50 000e 00D9     		bls	.LCB25
  51 0010 92E0     		b	.L2	@long jump
  52              	.LCB25:
  53              		.loc 1 108 0 is_stmt 0 discriminator 1
  54 0012 A942     		cmp	r1, r5
  55 0014 00D1     		bne	.LCB27
  56 0016 8FE0     		b	.L2	@long jump
  57              	.LCB27:
 109:.\Generated_Source\PSoC4/CyFlash.c ****     {
 110:.\Generated_Source\PSoC4/CyFlash.c ****         /* Copy data to be written into internal variable */
 111:.\Generated_Source\PSoC4/CyFlash.c ****         (void)memcpy((void *)&parameters[2u], rowData, CY_FLASH_SIZEOF_ROW);
  58              		.loc 1 111 0 is_stmt 1
ARM GAS  C:\Users\SDEVAS~1\AppData\Local\Temp\ccMcedjC.s 			page 4


  59 0018 8022     		mov	r2, #128
  60 001a 08A8     		add	r0, sp, #32
  61              	.LVL2:
  62 001c FFF7FEFF 		bl	memcpy
  63              	.LVL3:
 112:.\Generated_Source\PSoC4/CyFlash.c **** 
 113:.\Generated_Source\PSoC4/CyFlash.c ****         #if (CY_FLASH_CHECKSUM_WORKAROUND)
 114:.\Generated_Source\PSoC4/CyFlash.c **** 
 115:.\Generated_Source\PSoC4/CyFlash.c ****             for (i = 2u; i < ((CY_FLASH_SIZEOF_ROW / sizeof(uint32)) + 2u); i++)
  64              		.loc 1 115 0
  65 0020 0222     		mov	r2, #2
 103:.\Generated_Source\PSoC4/CyFlash.c ****         uint32 checksum = 0u;
  66              		.loc 1 103 0
  67 0022 291C     		mov	r1, r5
 101:.\Generated_Source\PSoC4/CyFlash.c ****         uint32 savedIndex = 0u;
  68              		.loc 1 101 0
  69 0024 0095     		str	r5, [sp]
  70              	.LVL4:
  71              	.L5:
  72              	.LBB7:
 116:.\Generated_Source\PSoC4/CyFlash.c ****             {
 117:.\Generated_Source\PSoC4/CyFlash.c ****                 uint32 tmp = parameters[i];
  73              		.loc 1 117 0
  74 0026 06AB     		add	r3, sp, #24
  75 0028 9000     		lsl	r0, r2, #2
  76 002a C058     		ldr	r0, [r0, r3]
  77              	.LVL5:
 118:.\Generated_Source\PSoC4/CyFlash.c ****                 if (tmp != 0u)
  78              		.loc 1 118 0
  79 002c 0028     		cmp	r0, #0
  80 002e 02D0     		beq	.L3
 119:.\Generated_Source\PSoC4/CyFlash.c ****                 {
 120:.\Generated_Source\PSoC4/CyFlash.c ****                     checksum += tmp;
  81              		.loc 1 120 0
  82 0030 0918     		add	r1, r1, r0
  83              	.LVL6:
 121:.\Generated_Source\PSoC4/CyFlash.c ****                     bits |= tmp;
  84              		.loc 1 121 0
  85 0032 0543     		orr	r5, r0
  86              	.LVL7:
  87 0034 0092     		str	r2, [sp]
  88              	.LVL8:
  89              	.L3:
  90              	.LBE7:
 115:.\Generated_Source\PSoC4/CyFlash.c ****             for (i = 2u; i < ((CY_FLASH_SIZEOF_ROW / sizeof(uint32)) + 2u); i++)
  91              		.loc 1 115 0
  92 0036 0132     		add	r2, r2, #1
  93              	.LVL9:
  94 0038 222A     		cmp	r2, #34
  95 003a F4D1     		bne	.L5
 122:.\Generated_Source\PSoC4/CyFlash.c ****                     savedIndex = i;
 123:.\Generated_Source\PSoC4/CyFlash.c ****                 }
 124:.\Generated_Source\PSoC4/CyFlash.c ****             }
 125:.\Generated_Source\PSoC4/CyFlash.c **** 
 126:.\Generated_Source\PSoC4/CyFlash.c ****             needChecksumWorkaround = ((checksum == 0u) && (bits != 0u)) ? 1u : 0u;
  96              		.loc 1 126 0
  97 003c 0029     		cmp	r1, #0
ARM GAS  C:\Users\SDEVAS~1\AppData\Local\Temp\ccMcedjC.s 			page 5


  98 003e 03D1     		bne	.L18
  99              		.loc 1 126 0 is_stmt 0 discriminator 1
 100 0040 002D     		cmp	r5, #0
 101 0042 00D0     		beq	.LCB90
 102 0044 7DE0     		b	.L7	@long jump
 103              	.LCB90:
 104 0046 00E0     		b	.L33
 105              	.L18:
 106 0048 0025     		mov	r5, #0
 107              	.LVL10:
 108              	.L33:
 102:.\Generated_Source\PSoC4/CyFlash.c ****         uint32 savedValue = 0u;
 109              		.loc 1 102 0 is_stmt 1
 110 004a 0195     		str	r5, [sp, #4]
 111              	.LVL11:
 112              	.L6:
 127:.\Generated_Source\PSoC4/CyFlash.c ****             if (needChecksumWorkaround != 0u)
 128:.\Generated_Source\PSoC4/CyFlash.c ****             {
 129:.\Generated_Source\PSoC4/CyFlash.c ****                 savedValue = parameters[savedIndex];
 130:.\Generated_Source\PSoC4/CyFlash.c ****                 parameters[savedIndex] = 0u;
 131:.\Generated_Source\PSoC4/CyFlash.c ****             }
 132:.\Generated_Source\PSoC4/CyFlash.c ****         #endif  /* (CY_FLASH_CHECKSUM_WORKAROUND) */
 133:.\Generated_Source\PSoC4/CyFlash.c **** 
 134:.\Generated_Source\PSoC4/CyFlash.c ****         /* Load Flash Bytes */
 135:.\Generated_Source\PSoC4/CyFlash.c ****         parameters[0u] = (uint32) (CY_FLASH_GET_MACRO_FROM_ROW(rowNum)        << CY_FLASH_PARAM_MAC
 136:.\Generated_Source\PSoC4/CyFlash.c ****                          (uint32) (CY_FLASH_PAGE_LATCH_START_ADDR             << CY_FLASH_PARAM_ADD
 137:.\Generated_Source\PSoC4/CyFlash.c ****                          (uint32) (CY_FLASH_KEY_TWO(CY_FLASH_API_OPCODE_LOAD) << CY_FLASH_PARAM_KEY
 138:.\Generated_Source\PSoC4/CyFlash.c ****                          CY_FLASH_KEY_ONE;
 139:.\Generated_Source\PSoC4/CyFlash.c ****         parameters[1u] = CY_FLASH_SIZEOF_ROW - 1u;
 140:.\Generated_Source\PSoC4/CyFlash.c **** 
 141:.\Generated_Source\PSoC4/CyFlash.c ****         CY_FLASH_CPUSS_SYSARG_REG = (uint32) &parameters[0u];
 113              		.loc 1 141 0
 114 004c 404C     		ldr	r4, .L35
 135:.\Generated_Source\PSoC4/CyFlash.c ****         parameters[0u] = (uint32) (CY_FLASH_GET_MACRO_FROM_ROW(rowNum)        << CY_FLASH_PARAM_MAC
 115              		.loc 1 135 0
 116 004e 414A     		ldr	r2, .L35+4
 139:.\Generated_Source\PSoC4/CyFlash.c ****         parameters[1u] = CY_FLASH_SIZEOF_ROW - 1u;
 117              		.loc 1 139 0
 118 0050 7F21     		mov	r1, #127
 119              	.LVL12:
 135:.\Generated_Source\PSoC4/CyFlash.c ****         parameters[0u] = (uint32) (CY_FLASH_GET_MACRO_FROM_ROW(rowNum)        << CY_FLASH_PARAM_MAC
 120              		.loc 1 135 0
 121 0052 0692     		str	r2, [sp, #24]
 142:.\Generated_Source\PSoC4/CyFlash.c ****         CY_FLASH_CPUSS_SYSREQ_REG = CY_FLASH_CPUSS_REQ_START | CY_FLASH_API_OPCODE_LOAD;
 122              		.loc 1 142 0
 123 0054 404E     		ldr	r6, .L35+8
 139:.\Generated_Source\PSoC4/CyFlash.c ****         parameters[1u] = CY_FLASH_SIZEOF_ROW - 1u;
 124              		.loc 1 139 0
 125 0056 5960     		str	r1, [r3, #4]
 141:.\Generated_Source\PSoC4/CyFlash.c ****         CY_FLASH_CPUSS_SYSARG_REG = (uint32) &parameters[0u];
 126              		.loc 1 141 0
 127 0058 2360     		str	r3, [r4]
 128              		.loc 1 142 0
 129 005a 404B     		ldr	r3, .L35+12
 130 005c 3360     		str	r3, [r6]
 143:.\Generated_Source\PSoC4/CyFlash.c ****         retValue = CY_FLASH_API_RETURN;
 131              		.loc 1 143 0
ARM GAS  C:\Users\SDEVAS~1\AppData\Local\Temp\ccMcedjC.s 			page 6


 132 005e 2168     		ldr	r1, [r4]
 133 0060 090F     		lsr	r1, r1, #28
 134 0062 0A29     		cmp	r1, #10
 135 0064 03D0     		beq	.L19
 136              		.loc 1 143 0 is_stmt 0 discriminator 1
 137 0066 2268     		ldr	r2, [r4]
 138 0068 0F23     		mov	r3, #15
 139 006a 1340     		and	r3, r2
 140 006c 00E0     		b	.L8
 141              	.L19:
 142              		.loc 1 143 0
 143 006e 0023     		mov	r3, #0
 144              	.L8:
 145              		.loc 1 143 0 discriminator 3
 146 0070 0493     		str	r3, [sp, #16]
 144:.\Generated_Source\PSoC4/CyFlash.c **** 
 145:.\Generated_Source\PSoC4/CyFlash.c ****         if(retValue == CY_SYS_FLASH_SUCCESS)
 147              		.loc 1 145 0 is_stmt 1 discriminator 3
 148 0072 049F     		ldr	r7, [sp, #16]
 149 0074 002F     		cmp	r7, #0
 150 0076 61D1     		bne	.L9
 146:.\Generated_Source\PSoC4/CyFlash.c ****         {
 147:.\Generated_Source\PSoC4/CyFlash.c ****             /***************************************************************
 148:.\Generated_Source\PSoC4/CyFlash.c ****             * Mask all the exceptions to guarantee that Flash write will
 149:.\Generated_Source\PSoC4/CyFlash.c ****             * occur in the atomic way. It will not affect system call
 150:.\Generated_Source\PSoC4/CyFlash.c ****             * execution (flash row write) since it is executed in the NMI
 151:.\Generated_Source\PSoC4/CyFlash.c ****             * context.
 152:.\Generated_Source\PSoC4/CyFlash.c ****             ***************************************************************/
 153:.\Generated_Source\PSoC4/CyFlash.c ****             interruptState = CyEnterCriticalSection();
 151              		.loc 1 153 0
 152 0078 FFF7FEFF 		bl	CyEnterCriticalSection
 153              	.LVL13:
 154              	.LBB8:
 155              	.LBB9:
 154:.\Generated_Source\PSoC4/CyFlash.c **** 
 155:.\Generated_Source\PSoC4/CyFlash.c ****             clkCnfRetValue = CySysFlashClockBackup();
 156:.\Generated_Source\PSoC4/CyFlash.c **** 
 157:.\Generated_Source\PSoC4/CyFlash.c ****         #if(CY_IP_FMLT)
 158:.\Generated_Source\PSoC4/CyFlash.c ****             if(clkCnfRetValue == CY_SYS_FLASH_SUCCESS)
 159:.\Generated_Source\PSoC4/CyFlash.c ****             {
 160:.\Generated_Source\PSoC4/CyFlash.c ****                 retValue = CySysFlashClockConfig();
 161:.\Generated_Source\PSoC4/CyFlash.c ****             }
 162:.\Generated_Source\PSoC4/CyFlash.c ****         #endif  /* (CY_IP_FMLT) */
 163:.\Generated_Source\PSoC4/CyFlash.c **** 
 164:.\Generated_Source\PSoC4/CyFlash.c ****             if(retValue == CY_SYS_FLASH_SUCCESS)
 165:.\Generated_Source\PSoC4/CyFlash.c ****             {
 166:.\Generated_Source\PSoC4/CyFlash.c ****                 /* Write Row */
 167:.\Generated_Source\PSoC4/CyFlash.c ****                 parameters[0u]  = (uint32) (((uint32) CY_FLASH_KEY_TWO(CY_FLASH_API_OPCODE_WRITE_RO
 168:.\Generated_Source\PSoC4/CyFlash.c ****                 parameters[0u] |= (uint32)(rowNum << 16u);
 169:.\Generated_Source\PSoC4/CyFlash.c **** 
 170:.\Generated_Source\PSoC4/CyFlash.c ****                 CY_FLASH_CPUSS_SYSARG_REG = (uint32) &parameters[0u];
 171:.\Generated_Source\PSoC4/CyFlash.c ****                 CY_FLASH_CPUSS_SYSREQ_REG = CY_FLASH_CPUSS_REQ_START | CY_FLASH_API_OPCODE_WRITE_RO
 172:.\Generated_Source\PSoC4/CyFlash.c ****                 retValue = CY_FLASH_API_RETURN;
 173:.\Generated_Source\PSoC4/CyFlash.c ****             }
 174:.\Generated_Source\PSoC4/CyFlash.c **** 
 175:.\Generated_Source\PSoC4/CyFlash.c ****             #if (CY_FLASH_CHECKSUM_WORKAROUND)
 176:.\Generated_Source\PSoC4/CyFlash.c **** 
ARM GAS  C:\Users\SDEVAS~1\AppData\Local\Temp\ccMcedjC.s 			page 7


 177:.\Generated_Source\PSoC4/CyFlash.c ****                 if ((retValue == CYRET_SUCCESS) && (needChecksumWorkaround != 0u))
 178:.\Generated_Source\PSoC4/CyFlash.c ****                 {
 179:.\Generated_Source\PSoC4/CyFlash.c ****                     (void)memset((void *)&parameters[2u], 0, CY_FLASH_SIZEOF_ROW);
 180:.\Generated_Source\PSoC4/CyFlash.c ****                     parameters[savedIndex] = savedValue;
 181:.\Generated_Source\PSoC4/CyFlash.c **** 
 182:.\Generated_Source\PSoC4/CyFlash.c ****                     /* Load Flash Bytes */
 183:.\Generated_Source\PSoC4/CyFlash.c ****                     parameters[0u] = (uint32) (CY_FLASH_GET_MACRO_FROM_ROW(rowNum)        << CY_FLA
 184:.\Generated_Source\PSoC4/CyFlash.c ****                                      (uint32) (CY_FLASH_PAGE_LATCH_START_ADDR             << CY_FLA
 185:.\Generated_Source\PSoC4/CyFlash.c ****                                      (uint32) (CY_FLASH_KEY_TWO(CY_FLASH_API_OPCODE_LOAD) << CY_FLA
 186:.\Generated_Source\PSoC4/CyFlash.c ****                                      CY_FLASH_KEY_ONE;
 187:.\Generated_Source\PSoC4/CyFlash.c ****                     parameters[1u] = CY_FLASH_SIZEOF_ROW - 1u;
 188:.\Generated_Source\PSoC4/CyFlash.c **** 
 189:.\Generated_Source\PSoC4/CyFlash.c ****                     CY_FLASH_CPUSS_SYSARG_REG = (uint32) &parameters[0u];
 190:.\Generated_Source\PSoC4/CyFlash.c ****                     CY_FLASH_CPUSS_SYSREQ_REG = CY_FLASH_CPUSS_REQ_START | CY_FLASH_API_OPCODE_LOAD
 191:.\Generated_Source\PSoC4/CyFlash.c ****                     retValue = CY_FLASH_API_RETURN;
 192:.\Generated_Source\PSoC4/CyFlash.c **** 
 193:.\Generated_Source\PSoC4/CyFlash.c **** 
 194:.\Generated_Source\PSoC4/CyFlash.c ****                     if(retValue == CY_SYS_FLASH_SUCCESS)
 195:.\Generated_Source\PSoC4/CyFlash.c ****                     {
 196:.\Generated_Source\PSoC4/CyFlash.c ****                         /* Program Row */
 197:.\Generated_Source\PSoC4/CyFlash.c ****                         parameters[0u]  =
 198:.\Generated_Source\PSoC4/CyFlash.c ****                             (uint32) (((uint32) CY_FLASH_KEY_TWO(CY_FLASH_API_OPCODE_PROGRAM_ROW) <
 199:.\Generated_Source\PSoC4/CyFlash.c ****                                                     CY_FLASH_PARAM_KEY_TWO_OFFSET) | CY_FLASH_KEY_O
 200:.\Generated_Source\PSoC4/CyFlash.c ****                         parameters[0u] |= (uint32)(rowNum << 16u);
 201:.\Generated_Source\PSoC4/CyFlash.c **** 
 202:.\Generated_Source\PSoC4/CyFlash.c ****                         CY_FLASH_CPUSS_SYSARG_REG = (uint32) &parameters[0u];
 203:.\Generated_Source\PSoC4/CyFlash.c ****                         CY_FLASH_CPUSS_SYSREQ_REG = CY_FLASH_CPUSS_REQ_START | CY_FLASH_API_OPCODE_
 204:.\Generated_Source\PSoC4/CyFlash.c ****                         retValue = CY_FLASH_API_RETURN;
 205:.\Generated_Source\PSoC4/CyFlash.c ****                     }
 206:.\Generated_Source\PSoC4/CyFlash.c ****                 }
 207:.\Generated_Source\PSoC4/CyFlash.c ****             #endif  /* (CY_FLASH_CHECKSUM_WORKAROUND) */
 208:.\Generated_Source\PSoC4/CyFlash.c **** 
 209:.\Generated_Source\PSoC4/CyFlash.c ****             if(clkCnfRetValue == CY_SYS_FLASH_SUCCESS)
 210:.\Generated_Source\PSoC4/CyFlash.c ****             {
 211:.\Generated_Source\PSoC4/CyFlash.c ****                 clkCnfRetValue = CySysFlashClockRestore();
 212:.\Generated_Source\PSoC4/CyFlash.c ****             }
 213:.\Generated_Source\PSoC4/CyFlash.c **** 
 214:.\Generated_Source\PSoC4/CyFlash.c ****             CyExitCriticalSection(interruptState);
 215:.\Generated_Source\PSoC4/CyFlash.c ****         }
 216:.\Generated_Source\PSoC4/CyFlash.c ****     }
 217:.\Generated_Source\PSoC4/CyFlash.c ****     else
 218:.\Generated_Source\PSoC4/CyFlash.c ****     {
 219:.\Generated_Source\PSoC4/CyFlash.c ****         retValue = CY_SYS_FLASH_INVALID_ADDR;
 220:.\Generated_Source\PSoC4/CyFlash.c ****     }
 221:.\Generated_Source\PSoC4/CyFlash.c **** 
 222:.\Generated_Source\PSoC4/CyFlash.c ****     return (retValue);
 223:.\Generated_Source\PSoC4/CyFlash.c **** }
 224:.\Generated_Source\PSoC4/CyFlash.c **** 
 225:.\Generated_Source\PSoC4/CyFlash.c **** 
 226:.\Generated_Source\PSoC4/CyFlash.c **** /*******************************************************************************
 227:.\Generated_Source\PSoC4/CyFlash.c **** * Function Name: CySysFlashSetWaitCycles
 228:.\Generated_Source\PSoC4/CyFlash.c **** ********************************************************************************
 229:.\Generated_Source\PSoC4/CyFlash.c **** *
 230:.\Generated_Source\PSoC4/CyFlash.c **** * Summary:
 231:.\Generated_Source\PSoC4/CyFlash.c **** *  Sets the number of clock cycles the cache will wait before it samples data
 232:.\Generated_Source\PSoC4/CyFlash.c **** *  coming back from Flash. This function must be called before increasing the
 233:.\Generated_Source\PSoC4/CyFlash.c **** *  SYSCLK clock frequency. It can optionally be called after lowering SYSCLK
ARM GAS  C:\Users\SDEVAS~1\AppData\Local\Temp\ccMcedjC.s 			page 8


 234:.\Generated_Source\PSoC4/CyFlash.c **** *  clock frequency in order to improve the CPU performance.
 235:.\Generated_Source\PSoC4/CyFlash.c **** *
 236:.\Generated_Source\PSoC4/CyFlash.c **** * Parameters:
 237:.\Generated_Source\PSoC4/CyFlash.c **** *  freq: The System clock frequency in MHz. Note: Invalid frequency will be
 238:.\Generated_Source\PSoC4/CyFlash.c **** *  ignored in Release mode and the CPU will be halted if project is compiled in
 239:.\Generated_Source\PSoC4/CyFlash.c **** *  Debug mode.
 240:.\Generated_Source\PSoC4/CyFlash.c **** *
 241:.\Generated_Source\PSoC4/CyFlash.c **** * Return:
 242:.\Generated_Source\PSoC4/CyFlash.c **** *  None
 243:.\Generated_Source\PSoC4/CyFlash.c **** *
 244:.\Generated_Source\PSoC4/CyFlash.c **** *******************************************************************************/
 245:.\Generated_Source\PSoC4/CyFlash.c **** void CySysFlashSetWaitCycles(uint32 freq)
 246:.\Generated_Source\PSoC4/CyFlash.c **** {
 247:.\Generated_Source\PSoC4/CyFlash.c ****     uint8  interruptState;
 248:.\Generated_Source\PSoC4/CyFlash.c **** 
 249:.\Generated_Source\PSoC4/CyFlash.c ****     interruptState = CyEnterCriticalSection();
 250:.\Generated_Source\PSoC4/CyFlash.c **** 
 251:.\Generated_Source\PSoC4/CyFlash.c ****     #if (CY_IP_CPUSS)
 252:.\Generated_Source\PSoC4/CyFlash.c **** 
 253:.\Generated_Source\PSoC4/CyFlash.c ****         if ( freq <= CY_FLASH_SYSCLK_BOUNDARY_MHZ )
 254:.\Generated_Source\PSoC4/CyFlash.c ****         {
 255:.\Generated_Source\PSoC4/CyFlash.c ****             CY_SYS_CLK_SELECT_REG &= (uint32)(~CY_FLASH_WAIT_STATE_EN);
 256:.\Generated_Source\PSoC4/CyFlash.c ****         }
 257:.\Generated_Source\PSoC4/CyFlash.c ****         else
 258:.\Generated_Source\PSoC4/CyFlash.c ****         {
 259:.\Generated_Source\PSoC4/CyFlash.c ****             CY_SYS_CLK_SELECT_REG |= CY_FLASH_WAIT_STATE_EN;
 260:.\Generated_Source\PSoC4/CyFlash.c ****         }
 261:.\Generated_Source\PSoC4/CyFlash.c ****     #else
 262:.\Generated_Source\PSoC4/CyFlash.c ****         if (freq <= CY_FLASH_CTL_WS_0_FREQ_MAX)
 263:.\Generated_Source\PSoC4/CyFlash.c ****         {
 264:.\Generated_Source\PSoC4/CyFlash.c ****             CY_FLASH_CTL_REG = (CY_FLASH_CTL_REG & ~CY_FLASH_CTL_WS_MASK) | CY_FLASH_CTL_WS_0_VALUE
 265:.\Generated_Source\PSoC4/CyFlash.c ****         } else
 266:.\Generated_Source\PSoC4/CyFlash.c ****         if (freq <= CY_FLASH_CTL_WS_1_FREQ_MAX)
 267:.\Generated_Source\PSoC4/CyFlash.c ****         {
 268:.\Generated_Source\PSoC4/CyFlash.c ****             CY_FLASH_CTL_REG = (CY_FLASH_CTL_REG & ~CY_FLASH_CTL_WS_MASK) | CY_FLASH_CTL_WS_1_VALUE
 269:.\Generated_Source\PSoC4/CyFlash.c ****         } else
 270:.\Generated_Source\PSoC4/CyFlash.c ****     #if (CY_IP_FMLT || CY_IP_S8FS)
 271:.\Generated_Source\PSoC4/CyFlash.c ****         if (freq <= CY_FLASH_CTL_WS_2_FREQ_MAX)
 272:.\Generated_Source\PSoC4/CyFlash.c ****         {
 273:.\Generated_Source\PSoC4/CyFlash.c ****             CY_FLASH_CTL_REG = (CY_FLASH_CTL_REG & ~CY_FLASH_CTL_WS_MASK) | CY_FLASH_CTL_WS_2_VALUE
 274:.\Generated_Source\PSoC4/CyFlash.c ****         }
 275:.\Generated_Source\PSoC4/CyFlash.c ****         else
 276:.\Generated_Source\PSoC4/CyFlash.c ****     #endif  /* (CY_IP_FMLT || CY_IP_S8FS) */
 277:.\Generated_Source\PSoC4/CyFlash.c ****         {
 278:.\Generated_Source\PSoC4/CyFlash.c ****             /* Halt CPU in debug mode if frequency is invalid */
 279:.\Generated_Source\PSoC4/CyFlash.c ****             CYASSERT(0u != 0u);
 280:.\Generated_Source\PSoC4/CyFlash.c ****         }
 281:.\Generated_Source\PSoC4/CyFlash.c **** 
 282:.\Generated_Source\PSoC4/CyFlash.c ****     #endif  /* (CY_IP_CPUSS) */
 283:.\Generated_Source\PSoC4/CyFlash.c **** 
 284:.\Generated_Source\PSoC4/CyFlash.c ****     CyExitCriticalSection(interruptState);
 285:.\Generated_Source\PSoC4/CyFlash.c **** }
 286:.\Generated_Source\PSoC4/CyFlash.c **** 
 287:.\Generated_Source\PSoC4/CyFlash.c **** 
 288:.\Generated_Source\PSoC4/CyFlash.c **** /*******************************************************************************
 289:.\Generated_Source\PSoC4/CyFlash.c **** * Function Name: CySysFlashClockBackup
 290:.\Generated_Source\PSoC4/CyFlash.c **** ********************************************************************************
ARM GAS  C:\Users\SDEVAS~1\AppData\Local\Temp\ccMcedjC.s 			page 9


 291:.\Generated_Source\PSoC4/CyFlash.c **** *
 292:.\Generated_Source\PSoC4/CyFlash.c **** * Summary:
 293:.\Generated_Source\PSoC4/CyFlash.c **** *  Backups the device clock configuration.
 294:.\Generated_Source\PSoC4/CyFlash.c **** *
 295:.\Generated_Source\PSoC4/CyFlash.c **** * Parameters:
 296:.\Generated_Source\PSoC4/CyFlash.c **** *  None
 297:.\Generated_Source\PSoC4/CyFlash.c **** *
 298:.\Generated_Source\PSoC4/CyFlash.c **** * Return:
 299:.\Generated_Source\PSoC4/CyFlash.c **** *  The same as CySysFlashWriteRow().
 300:.\Generated_Source\PSoC4/CyFlash.c **** *
 301:.\Generated_Source\PSoC4/CyFlash.c **** *******************************************************************************/
 302:.\Generated_Source\PSoC4/CyFlash.c **** static cystatus CySysFlashClockBackup(void)
 303:.\Generated_Source\PSoC4/CyFlash.c **** {
 304:.\Generated_Source\PSoC4/CyFlash.c ****     cystatus retValue = CY_SYS_FLASH_SUCCESS;
 305:.\Generated_Source\PSoC4/CyFlash.c **** #if(!CY_IP_FM)
 306:.\Generated_Source\PSoC4/CyFlash.c ****     #if !(CY_PSOC4_4000)
 307:.\Generated_Source\PSoC4/CyFlash.c ****         #if (CY_IP_SPCIF_SYNCHRONOUS)
 308:.\Generated_Source\PSoC4/CyFlash.c ****             volatile uint32   parameters[2u];
 309:.\Generated_Source\PSoC4/CyFlash.c ****         #endif /* (CY_IP_SPCIF_SYNCHRONOUS) */
 310:.\Generated_Source\PSoC4/CyFlash.c ****     #endif  /* !(CY_PSOC4_4000) */
 311:.\Generated_Source\PSoC4/CyFlash.c **** #endif  /* (!CY_IP_FM) */
 312:.\Generated_Source\PSoC4/CyFlash.c **** 
 313:.\Generated_Source\PSoC4/CyFlash.c **** #if(CY_IP_FM)
 314:.\Generated_Source\PSoC4/CyFlash.c **** 
 315:.\Generated_Source\PSoC4/CyFlash.c ****     /***************************************************************
 316:.\Generated_Source\PSoC4/CyFlash.c ****     * Preserve IMO configuration that could be changed during
 317:.\Generated_Source\PSoC4/CyFlash.c ****     * system call execution (Cypress ID #150448).
 318:.\Generated_Source\PSoC4/CyFlash.c ****     ***************************************************************/
 319:.\Generated_Source\PSoC4/CyFlash.c ****     cySysFlashBackup.imoConfigReg = CY_SYS_CLK_IMO_CONFIG_REG;
 156              		.loc 1 319 0
 157 007c 384A     		ldr	r2, .L35+16
 158 007e 394B     		ldr	r3, .L35+20
 159 0080 1168     		ldr	r1, [r2]
 160              	.LBE9:
 161              	.LBE8:
 155:.\Generated_Source\PSoC4/CyFlash.c ****             clkCnfRetValue = CySysFlashClockBackup();
 162              		.loc 1 155 0
 163 0082 0597     		str	r7, [sp, #20]
 164              	.LBB11:
 165              	.LBB10:
 166              		.loc 1 319 0
 167 0084 1960     		str	r1, [r3]
 168              	.LBE10:
 169              	.LBE11:
 164:.\Generated_Source\PSoC4/CyFlash.c ****             if(retValue == CY_SYS_FLASH_SUCCESS)
 170              		.loc 1 164 0
 171 0086 049B     		ldr	r3, [sp, #16]
 153:.\Generated_Source\PSoC4/CyFlash.c ****             interruptState = CyEnterCriticalSection();
 172              		.loc 1 153 0
 173 0088 0390     		str	r0, [sp, #12]
 174              	.LVL14:
 164:.\Generated_Source\PSoC4/CyFlash.c ****             if(retValue == CY_SYS_FLASH_SUCCESS)
 175              		.loc 1 164 0
 176 008a 002B     		cmp	r3, #0
 177 008c 13D1     		bne	.L10
 167:.\Generated_Source\PSoC4/CyFlash.c ****                 parameters[0u]  = (uint32) (((uint32) CY_FLASH_KEY_TWO(CY_FLASH_API_OPCODE_WRITE_RO
 178              		.loc 1 167 0
ARM GAS  C:\Users\SDEVAS~1\AppData\Local\Temp\ccMcedjC.s 			page 10


 179 008e 364A     		ldr	r2, .L35+24
 168:.\Generated_Source\PSoC4/CyFlash.c ****                 parameters[0u] |= (uint32)(rowNum << 16u);
 180              		.loc 1 168 0
 181 0090 0298     		ldr	r0, [sp, #8]
 167:.\Generated_Source\PSoC4/CyFlash.c ****                 parameters[0u]  = (uint32) (((uint32) CY_FLASH_KEY_TWO(CY_FLASH_API_OPCODE_WRITE_RO
 182              		.loc 1 167 0
 183 0092 0692     		str	r2, [sp, #24]
 168:.\Generated_Source\PSoC4/CyFlash.c ****                 parameters[0u] |= (uint32)(rowNum << 16u);
 184              		.loc 1 168 0
 185 0094 069A     		ldr	r2, [sp, #24]
 186 0096 0104     		lsl	r1, r0, #16
 187 0098 0A43     		orr	r2, r1
 188 009a 0692     		str	r2, [sp, #24]
 170:.\Generated_Source\PSoC4/CyFlash.c ****                 CY_FLASH_CPUSS_SYSARG_REG = (uint32) &parameters[0u];
 189              		.loc 1 170 0
 190 009c 06AA     		add	r2, sp, #24
 191 009e 2260     		str	r2, [r4]
 171:.\Generated_Source\PSoC4/CyFlash.c ****                 CY_FLASH_CPUSS_SYSREQ_REG = CY_FLASH_CPUSS_REQ_START | CY_FLASH_API_OPCODE_WRITE_RO
 192              		.loc 1 171 0
 193 00a0 324A     		ldr	r2, .L35+28
 194 00a2 3260     		str	r2, [r6]
 172:.\Generated_Source\PSoC4/CyFlash.c ****                 retValue = CY_FLASH_API_RETURN;
 195              		.loc 1 172 0
 196 00a4 2268     		ldr	r2, [r4]
 197 00a6 120F     		lsr	r2, r2, #28
 198 00a8 0A2A     		cmp	r2, #10
 199 00aa 03D0     		beq	.L11
 172:.\Generated_Source\PSoC4/CyFlash.c ****                 retValue = CY_FLASH_API_RETURN;
 200              		.loc 1 172 0 is_stmt 0 discriminator 1
 201 00ac 284B     		ldr	r3, .L35
 202 00ae 1A68     		ldr	r2, [r3]
 203 00b0 0F23     		mov	r3, #15
 204 00b2 1340     		and	r3, r2
 205              	.L11:
 172:.\Generated_Source\PSoC4/CyFlash.c ****                 retValue = CY_FLASH_API_RETURN;
 206              		.loc 1 172 0 discriminator 3
 207 00b4 0493     		str	r3, [sp, #16]
 208              	.L10:
 177:.\Generated_Source\PSoC4/CyFlash.c ****                 if ((retValue == CYRET_SUCCESS) && (needChecksumWorkaround != 0u))
 209              		.loc 1 177 0 is_stmt 1
 210 00b6 049F     		ldr	r7, [sp, #16]
 211 00b8 002F     		cmp	r7, #0
 212 00ba 31D1     		bne	.L13
 177:.\Generated_Source\PSoC4/CyFlash.c ****                 if ((retValue == CYRET_SUCCESS) && (needChecksumWorkaround != 0u))
 213              		.loc 1 177 0 is_stmt 0 discriminator 1
 214 00bc 002D     		cmp	r5, #0
 215 00be 2FD0     		beq	.L13
 179:.\Generated_Source\PSoC4/CyFlash.c ****                     (void)memset((void *)&parameters[2u], 0, CY_FLASH_SIZEOF_ROW);
 216              		.loc 1 179 0 is_stmt 1
 217 00c0 391C     		mov	r1, r7
 218 00c2 8022     		mov	r2, #128
 219 00c4 08A8     		add	r0, sp, #32
 220 00c6 FFF7FEFF 		bl	memset
 221              	.LVL15:
 180:.\Generated_Source\PSoC4/CyFlash.c ****                     parameters[savedIndex] = savedValue;
 222              		.loc 1 180 0
 223 00ca 0099     		ldr	r1, [sp]
ARM GAS  C:\Users\SDEVAS~1\AppData\Local\Temp\ccMcedjC.s 			page 11


 224 00cc 019A     		ldr	r2, [sp, #4]
 179:.\Generated_Source\PSoC4/CyFlash.c ****                     (void)memset((void *)&parameters[2u], 0, CY_FLASH_SIZEOF_ROW);
 225              		.loc 1 179 0
 226 00ce 06AD     		add	r5, sp, #24
 180:.\Generated_Source\PSoC4/CyFlash.c ****                     parameters[savedIndex] = savedValue;
 227              		.loc 1 180 0
 228 00d0 8B00     		lsl	r3, r1, #2
 229 00d2 5A51     		str	r2, [r3, r5]
 183:.\Generated_Source\PSoC4/CyFlash.c ****                     parameters[0u] = (uint32) (CY_FLASH_GET_MACRO_FROM_ROW(rowNum)        << CY_FLA
 230              		.loc 1 183 0
 231 00d4 1F4B     		ldr	r3, .L35+4
 190:.\Generated_Source\PSoC4/CyFlash.c ****                     CY_FLASH_CPUSS_SYSREQ_REG = CY_FLASH_CPUSS_REQ_START | CY_FLASH_API_OPCODE_LOAD
 232              		.loc 1 190 0
 233 00d6 2148     		ldr	r0, .L35+12
 183:.\Generated_Source\PSoC4/CyFlash.c ****                     parameters[0u] = (uint32) (CY_FLASH_GET_MACRO_FROM_ROW(rowNum)        << CY_FLA
 234              		.loc 1 183 0
 235 00d8 0693     		str	r3, [sp, #24]
 187:.\Generated_Source\PSoC4/CyFlash.c ****                     parameters[1u] = CY_FLASH_SIZEOF_ROW - 1u;
 236              		.loc 1 187 0
 237 00da 7F23     		mov	r3, #127
 238 00dc 6B60     		str	r3, [r5, #4]
 189:.\Generated_Source\PSoC4/CyFlash.c ****                     CY_FLASH_CPUSS_SYSARG_REG = (uint32) &parameters[0u];
 239              		.loc 1 189 0
 240 00de 2560     		str	r5, [r4]
 190:.\Generated_Source\PSoC4/CyFlash.c ****                     CY_FLASH_CPUSS_SYSREQ_REG = CY_FLASH_CPUSS_REQ_START | CY_FLASH_API_OPCODE_LOAD
 241              		.loc 1 190 0
 242 00e0 3060     		str	r0, [r6]
 191:.\Generated_Source\PSoC4/CyFlash.c ****                     retValue = CY_FLASH_API_RETURN;
 243              		.loc 1 191 0
 244 00e2 2368     		ldr	r3, [r4]
 245 00e4 1B0F     		lsr	r3, r3, #28
 246 00e6 0A2B     		cmp	r3, #10
 247 00e8 03D0     		beq	.L15
 191:.\Generated_Source\PSoC4/CyFlash.c ****                     retValue = CY_FLASH_API_RETURN;
 248              		.loc 1 191 0 is_stmt 0 discriminator 1
 249 00ea 194B     		ldr	r3, .L35
 250 00ec 1F68     		ldr	r7, [r3]
 251 00ee 0F23     		mov	r3, #15
 252 00f0 1F40     		and	r7, r3
 253              	.L15:
 191:.\Generated_Source\PSoC4/CyFlash.c ****                     retValue = CY_FLASH_API_RETURN;
 254              		.loc 1 191 0 discriminator 3
 255 00f2 0497     		str	r7, [sp, #16]
 194:.\Generated_Source\PSoC4/CyFlash.c ****                     if(retValue == CY_SYS_FLASH_SUCCESS)
 256              		.loc 1 194 0 is_stmt 1 discriminator 3
 257 00f4 049B     		ldr	r3, [sp, #16]
 258 00f6 002B     		cmp	r3, #0
 259 00f8 12D1     		bne	.L13
 197:.\Generated_Source\PSoC4/CyFlash.c ****                         parameters[0u]  =
 260              		.loc 1 197 0
 261 00fa 1D4A     		ldr	r2, .L35+32
 200:.\Generated_Source\PSoC4/CyFlash.c ****                         parameters[0u] |= (uint32)(rowNum << 16u);
 262              		.loc 1 200 0
 263 00fc 0298     		ldr	r0, [sp, #8]
 197:.\Generated_Source\PSoC4/CyFlash.c ****                         parameters[0u]  =
 264              		.loc 1 197 0
 265 00fe 0692     		str	r2, [sp, #24]
ARM GAS  C:\Users\SDEVAS~1\AppData\Local\Temp\ccMcedjC.s 			page 12


 200:.\Generated_Source\PSoC4/CyFlash.c ****                         parameters[0u] |= (uint32)(rowNum << 16u);
 266              		.loc 1 200 0
 267 0100 069A     		ldr	r2, [sp, #24]
 268 0102 0104     		lsl	r1, r0, #16
 269 0104 0A43     		orr	r2, r1
 270 0106 0692     		str	r2, [sp, #24]
 203:.\Generated_Source\PSoC4/CyFlash.c ****                         CY_FLASH_CPUSS_SYSREQ_REG = CY_FLASH_CPUSS_REQ_START | CY_FLASH_API_OPCODE_
 271              		.loc 1 203 0
 272 0108 1A4A     		ldr	r2, .L35+36
 202:.\Generated_Source\PSoC4/CyFlash.c ****                         CY_FLASH_CPUSS_SYSARG_REG = (uint32) &parameters[0u];
 273              		.loc 1 202 0
 274 010a 2560     		str	r5, [r4]
 203:.\Generated_Source\PSoC4/CyFlash.c ****                         CY_FLASH_CPUSS_SYSREQ_REG = CY_FLASH_CPUSS_REQ_START | CY_FLASH_API_OPCODE_
 275              		.loc 1 203 0
 276 010c 3260     		str	r2, [r6]
 204:.\Generated_Source\PSoC4/CyFlash.c ****                         retValue = CY_FLASH_API_RETURN;
 277              		.loc 1 204 0
 278 010e 2268     		ldr	r2, [r4]
 279 0110 120F     		lsr	r2, r2, #28
 280 0112 0A2A     		cmp	r2, #10
 281 0114 03D0     		beq	.L16
 204:.\Generated_Source\PSoC4/CyFlash.c ****                         retValue = CY_FLASH_API_RETURN;
 282              		.loc 1 204 0 is_stmt 0 discriminator 1
 283 0116 0E4B     		ldr	r3, .L35
 284 0118 1A68     		ldr	r2, [r3]
 285 011a 0F23     		mov	r3, #15
 286 011c 1340     		and	r3, r2
 287              	.L16:
 204:.\Generated_Source\PSoC4/CyFlash.c ****                         retValue = CY_FLASH_API_RETURN;
 288              		.loc 1 204 0 discriminator 3
 289 011e 0493     		str	r3, [sp, #16]
 290              	.L13:
 209:.\Generated_Source\PSoC4/CyFlash.c ****             if(clkCnfRetValue == CY_SYS_FLASH_SUCCESS)
 291              		.loc 1 209 0 is_stmt 1
 292 0120 059B     		ldr	r3, [sp, #20]
 293 0122 002B     		cmp	r3, #0
 294 0124 04D1     		bne	.L17
 295              	.LVL16:
 296              	.LBB12:
 297              	.LBB13:
 320:.\Generated_Source\PSoC4/CyFlash.c **** 
 321:.\Generated_Source\PSoC4/CyFlash.c **** #else   /* (CY_IP_FMLT) */
 322:.\Generated_Source\PSoC4/CyFlash.c **** 
 323:.\Generated_Source\PSoC4/CyFlash.c ****     #if (CY_PSOC4_4000)
 324:.\Generated_Source\PSoC4/CyFlash.c **** 
 325:.\Generated_Source\PSoC4/CyFlash.c ****         /***************************************************************************
 326:.\Generated_Source\PSoC4/CyFlash.c ****         * Perform firmware clock settings backup for the PSOC4 4000 devices (the
 327:.\Generated_Source\PSoC4/CyFlash.c ****         * corresponding system call is not available).
 328:.\Generated_Source\PSoC4/CyFlash.c ****         ***************************************************************************/
 329:.\Generated_Source\PSoC4/CyFlash.c **** 
 330:.\Generated_Source\PSoC4/CyFlash.c ****         /***************************************************************************
 331:.\Generated_Source\PSoC4/CyFlash.c ****         * The registers listed below are modified by CySysFlashClockConfig().
 332:.\Generated_Source\PSoC4/CyFlash.c ****         *
 333:.\Generated_Source\PSoC4/CyFlash.c ****         * The registers to be saved:
 334:.\Generated_Source\PSoC4/CyFlash.c ****         * - CY_SYS_CLK_IMO_CONFIG_REG - IMO enable state.
 335:.\Generated_Source\PSoC4/CyFlash.c ****         * - CY_SYS_CLK_SELECT_REG     - HFCLK source, divider, pump source. Save
 336:.\Generated_Source\PSoC4/CyFlash.c ****         *                               entire register as it can be directly
ARM GAS  C:\Users\SDEVAS~1\AppData\Local\Temp\ccMcedjC.s 			page 13


 337:.\Generated_Source\PSoC4/CyFlash.c ****         *                               written on restore (no special
 338:.\Generated_Source\PSoC4/CyFlash.c ****         *                               requirements).
 339:.\Generated_Source\PSoC4/CyFlash.c ****         * - CY_SYS_CLK_IMO_SELECT_REG - Save IMO frequency.
 340:.\Generated_Source\PSoC4/CyFlash.c ****         *
 341:.\Generated_Source\PSoC4/CyFlash.c ****         * The registers not to be saved:
 342:.\Generated_Source\PSoC4/CyFlash.c ****         * - CY_SYS_CLK_IMO_TRIM1_REG  - No need to save. Function of frequency.
 343:.\Generated_Source\PSoC4/CyFlash.c ****         *                               Restored by CySysClkWriteImoFreq().
 344:.\Generated_Source\PSoC4/CyFlash.c ****         * - CY_SYS_CLK_IMO_TRIM3_REG  - No need to save. Function of frequency.
 345:.\Generated_Source\PSoC4/CyFlash.c ****         *                               Restored by CySysClkWriteImoFreq().
 346:.\Generated_Source\PSoC4/CyFlash.c ****         * - REG_CPUSS_FLASH_CTL       - Flash wait cycles. Unmodified due to system
 347:.\Generated_Source\PSoC4/CyFlash.c ****         *                               clock 16 MHz limit.
 348:.\Generated_Source\PSoC4/CyFlash.c ****         ***************************************************************************/
 349:.\Generated_Source\PSoC4/CyFlash.c **** 
 350:.\Generated_Source\PSoC4/CyFlash.c ****         cySysFlashBackup.clkSelectReg = CY_SYS_CLK_SELECT_REG;
 351:.\Generated_Source\PSoC4/CyFlash.c ****         cySysFlashBackup.clkImoEna    = CY_SYS_CLK_IMO_CONFIG_REG & CY_SYS_CLK_IMO_CONFIG_ENABLE;
 352:.\Generated_Source\PSoC4/CyFlash.c ****         cySysFlashBackup.clkImoFreq   = CY_SYS_CLK_IMO_MIN_FREQ_MHZ + (CY_SYS_CLK_IMO_SELECT_REG <<
 353:.\Generated_Source\PSoC4/CyFlash.c **** 
 354:.\Generated_Source\PSoC4/CyFlash.c ****     #else
 355:.\Generated_Source\PSoC4/CyFlash.c **** 
 356:.\Generated_Source\PSoC4/CyFlash.c ****         #if (CY_IP_SPCIF_SYNCHRONOUS)
 357:.\Generated_Source\PSoC4/CyFlash.c ****             /* FM-Lite Clock Backup System Call */
 358:.\Generated_Source\PSoC4/CyFlash.c ****             parameters[0u] =
 359:.\Generated_Source\PSoC4/CyFlash.c ****                 (uint32) ((CY_FLASH_KEY_TWO(CY_FLASH_API_OPCODE_CLK_BACKUP) <<  CY_FLASH_PARAM_KEY_
 360:.\Generated_Source\PSoC4/CyFlash.c ****                             CY_FLASH_KEY_ONE);
 361:.\Generated_Source\PSoC4/CyFlash.c ****             parameters[1u] = (uint32) &cySysFlashBackup.clockSettings[0u];
 362:.\Generated_Source\PSoC4/CyFlash.c ****             CY_FLASH_CPUSS_SYSARG_REG = (uint32) &parameters[0u];
 363:.\Generated_Source\PSoC4/CyFlash.c ****             CY_FLASH_CPUSS_SYSREQ_REG = CY_FLASH_CPUSS_REQ_START | CY_FLASH_API_OPCODE_CLK_BACKUP;
 364:.\Generated_Source\PSoC4/CyFlash.c ****             retValue = CY_FLASH_API_RETURN;
 365:.\Generated_Source\PSoC4/CyFlash.c ****         #endif /* (CY_IP_SPCIF_SYNCHRONOUS) */
 366:.\Generated_Source\PSoC4/CyFlash.c **** 
 367:.\Generated_Source\PSoC4/CyFlash.c ****     #endif  /* (CY_PSOC4_4000) */
 368:.\Generated_Source\PSoC4/CyFlash.c **** 
 369:.\Generated_Source\PSoC4/CyFlash.c **** #endif  /* (CY_IP_FM) */
 370:.\Generated_Source\PSoC4/CyFlash.c **** 
 371:.\Generated_Source\PSoC4/CyFlash.c ****     return (retValue);
 372:.\Generated_Source\PSoC4/CyFlash.c **** }
 373:.\Generated_Source\PSoC4/CyFlash.c **** 
 374:.\Generated_Source\PSoC4/CyFlash.c **** 
 375:.\Generated_Source\PSoC4/CyFlash.c **** #if(CY_IP_FMLT)
 376:.\Generated_Source\PSoC4/CyFlash.c **** /*******************************************************************************
 377:.\Generated_Source\PSoC4/CyFlash.c **** * Function Name: CySysFlashClockConfig
 378:.\Generated_Source\PSoC4/CyFlash.c **** ********************************************************************************
 379:.\Generated_Source\PSoC4/CyFlash.c **** *
 380:.\Generated_Source\PSoC4/CyFlash.c **** * Summary:
 381:.\Generated_Source\PSoC4/CyFlash.c **** *  Configures the device clocks for the flash writing.
 382:.\Generated_Source\PSoC4/CyFlash.c **** *
 383:.\Generated_Source\PSoC4/CyFlash.c **** * Parameters:
 384:.\Generated_Source\PSoC4/CyFlash.c **** *  None
 385:.\Generated_Source\PSoC4/CyFlash.c **** *
 386:.\Generated_Source\PSoC4/CyFlash.c **** * Return:
 387:.\Generated_Source\PSoC4/CyFlash.c **** *  The same as CySysFlashWriteRow().
 388:.\Generated_Source\PSoC4/CyFlash.c **** *
 389:.\Generated_Source\PSoC4/CyFlash.c **** *******************************************************************************/
 390:.\Generated_Source\PSoC4/CyFlash.c **** static cystatus CySysFlashClockConfig(void)
 391:.\Generated_Source\PSoC4/CyFlash.c **** {
 392:.\Generated_Source\PSoC4/CyFlash.c ****     cystatus retValue = CY_SYS_FLASH_SUCCESS;
 393:.\Generated_Source\PSoC4/CyFlash.c **** 
ARM GAS  C:\Users\SDEVAS~1\AppData\Local\Temp\ccMcedjC.s 			page 14


 394:.\Generated_Source\PSoC4/CyFlash.c ****     /***************************************************************************
 395:.\Generated_Source\PSoC4/CyFlash.c ****     * The FM-Lite IP uses the IMO at 48MHz for the pump clock and SPC timer
 396:.\Generated_Source\PSoC4/CyFlash.c ****     * clock. The PUMP_SEL and HF clock must be set to IMO before calling Flash
 397:.\Generated_Source\PSoC4/CyFlash.c ****     * write or erase operation.
 398:.\Generated_Source\PSoC4/CyFlash.c ****     ***************************************************************************/
 399:.\Generated_Source\PSoC4/CyFlash.c **** #if (CY_PSOC4_4000)
 400:.\Generated_Source\PSoC4/CyFlash.c **** 
 401:.\Generated_Source\PSoC4/CyFlash.c ****     /***************************************************************************
 402:.\Generated_Source\PSoC4/CyFlash.c ****     * Perform firmware clock settings setup for the PSOC4 4000 devices (the
 403:.\Generated_Source\PSoC4/CyFlash.c ****     * corresponding system call is not reliable):
 404:.\Generated_Source\PSoC4/CyFlash.c ****     * - The IMO frequency should be 48 MHz
 405:.\Generated_Source\PSoC4/CyFlash.c ****     * - The IMO should be source for the HFCLK
 406:.\Generated_Source\PSoC4/CyFlash.c ****     * - The IMO should be the source for the charge pump clock
 407:.\Generated_Source\PSoC4/CyFlash.c ****     *
 408:.\Generated_Source\PSoC4/CyFlash.c ****     * Note The structure members used below are initialized by
 409:.\Generated_Source\PSoC4/CyFlash.c ****     * the CySysFlashClockBackup() function.
 410:.\Generated_Source\PSoC4/CyFlash.c ****     ***************************************************************************/
 411:.\Generated_Source\PSoC4/CyFlash.c ****     if ((cySysFlashBackup.clkImoFreq != 48u) ||
 412:.\Generated_Source\PSoC4/CyFlash.c ****         ((cySysFlashBackup.clkSelectReg & CY_SYS_CLK_SELECT_DIRECT_SEL_MASK) != CY_SYS_CLK_HFCLK_IM
 413:.\Generated_Source\PSoC4/CyFlash.c ****         (((cySysFlashBackup.clkSelectReg >> CY_SYS_CLK_SELECT_PUMP_SEL_SHIFT) & CY_SYS_CLK_SELECT_P
 414:.\Generated_Source\PSoC4/CyFlash.c ****             CY_SYS_CLK_SELECT_PUMP_SEL_IMO))
 415:.\Generated_Source\PSoC4/CyFlash.c ****     {
 416:.\Generated_Source\PSoC4/CyFlash.c ****         /***********************************************************************
 417:.\Generated_Source\PSoC4/CyFlash.c ****          Set HFCLK divider to divide-by-4 to ensure that System clock frequency
 418:.\Generated_Source\PSoC4/CyFlash.c ****         * is within the valid limit (16 MHz for the PSoC4 4000).
 419:.\Generated_Source\PSoC4/CyFlash.c ****         ***********************************************************************/
 420:.\Generated_Source\PSoC4/CyFlash.c ****         CySysClkWriteHfclkDiv(CY_SYS_CLK_HFCLK_DIV_4);
 421:.\Generated_Source\PSoC4/CyFlash.c **** 
 422:.\Generated_Source\PSoC4/CyFlash.c ****         /* The IMO frequency should be 48 MHz */
 423:.\Generated_Source\PSoC4/CyFlash.c ****         if (cySysFlashBackup.clkImoFreq != 48u)
 424:.\Generated_Source\PSoC4/CyFlash.c ****         {
 425:.\Generated_Source\PSoC4/CyFlash.c ****             CySysClkWriteImoFreq(48u);
 426:.\Generated_Source\PSoC4/CyFlash.c ****         }
 427:.\Generated_Source\PSoC4/CyFlash.c ****         CySysClkImoStart();
 428:.\Generated_Source\PSoC4/CyFlash.c **** 
 429:.\Generated_Source\PSoC4/CyFlash.c ****         /* The IMO should be source for the HFCLK */
 430:.\Generated_Source\PSoC4/CyFlash.c ****         CySysClkWriteHfclkDirect(CY_SYS_CLK_HFCLK_IMO);
 431:.\Generated_Source\PSoC4/CyFlash.c **** 
 432:.\Generated_Source\PSoC4/CyFlash.c ****         /* The IMO should be the source for the charge pump clock */
 433:.\Generated_Source\PSoC4/CyFlash.c ****         CY_SYS_CLK_SELECT_REG =  (CY_SYS_CLK_SELECT_REG &
 434:.\Generated_Source\PSoC4/CyFlash.c ****             ((uint32)~(uint32)(CY_SYS_CLK_SELECT_PUMP_SEL_MASK << CY_SYS_CLK_SELECT_PUMP_SEL_SHIFT)
 435:.\Generated_Source\PSoC4/CyFlash.c ****             ((uint32)((uint32)1u << CY_SYS_CLK_SELECT_PUMP_SEL_SHIFT));
 436:.\Generated_Source\PSoC4/CyFlash.c ****     }
 437:.\Generated_Source\PSoC4/CyFlash.c **** 
 438:.\Generated_Source\PSoC4/CyFlash.c **** #else
 439:.\Generated_Source\PSoC4/CyFlash.c **** 
 440:.\Generated_Source\PSoC4/CyFlash.c ****     #if (CY_IP_SPCIF_SYNCHRONOUS)
 441:.\Generated_Source\PSoC4/CyFlash.c ****         /* FM-Lite Clock Configuration */
 442:.\Generated_Source\PSoC4/CyFlash.c ****         CY_FLASH_CPUSS_SYSARG_REG =
 443:.\Generated_Source\PSoC4/CyFlash.c ****             (uint32) ((CY_FLASH_KEY_TWO(CY_FLASH_API_OPCODE_CLK_CONFIG) <<  CY_FLASH_PARAM_KEY_TWO_
 444:.\Generated_Source\PSoC4/CyFlash.c ****                         CY_FLASH_KEY_ONE);
 445:.\Generated_Source\PSoC4/CyFlash.c ****         CY_FLASH_CPUSS_SYSREQ_REG = CY_FLASH_CPUSS_REQ_START | CY_FLASH_API_OPCODE_CLK_CONFIG;
 446:.\Generated_Source\PSoC4/CyFlash.c ****         retValue = CY_FLASH_API_RETURN;
 447:.\Generated_Source\PSoC4/CyFlash.c ****     #endif /* (CY_IP_SPCIF_SYNCHRONOUS) */
 448:.\Generated_Source\PSoC4/CyFlash.c **** 
 449:.\Generated_Source\PSoC4/CyFlash.c **** #endif  /* (CY_PSOC4_4000) */
 450:.\Generated_Source\PSoC4/CyFlash.c **** 
ARM GAS  C:\Users\SDEVAS~1\AppData\Local\Temp\ccMcedjC.s 			page 15


 451:.\Generated_Source\PSoC4/CyFlash.c ****     return (retValue);
 452:.\Generated_Source\PSoC4/CyFlash.c **** }
 453:.\Generated_Source\PSoC4/CyFlash.c **** #endif  /* (CY_IP_FMLT) */
 454:.\Generated_Source\PSoC4/CyFlash.c **** 
 455:.\Generated_Source\PSoC4/CyFlash.c **** 
 456:.\Generated_Source\PSoC4/CyFlash.c **** /*******************************************************************************
 457:.\Generated_Source\PSoC4/CyFlash.c **** * Function Name: CySysFlashClockRestore
 458:.\Generated_Source\PSoC4/CyFlash.c **** ********************************************************************************
 459:.\Generated_Source\PSoC4/CyFlash.c **** *
 460:.\Generated_Source\PSoC4/CyFlash.c **** * Summary:
 461:.\Generated_Source\PSoC4/CyFlash.c **** *  Restores the device clock configuration.
 462:.\Generated_Source\PSoC4/CyFlash.c **** *
 463:.\Generated_Source\PSoC4/CyFlash.c **** * Parameters:
 464:.\Generated_Source\PSoC4/CyFlash.c **** *  None
 465:.\Generated_Source\PSoC4/CyFlash.c **** *
 466:.\Generated_Source\PSoC4/CyFlash.c **** * Return:
 467:.\Generated_Source\PSoC4/CyFlash.c **** *  The same as CySysFlashWriteRow().
 468:.\Generated_Source\PSoC4/CyFlash.c **** *
 469:.\Generated_Source\PSoC4/CyFlash.c **** *******************************************************************************/
 470:.\Generated_Source\PSoC4/CyFlash.c **** static cystatus CySysFlashClockRestore(void)
 471:.\Generated_Source\PSoC4/CyFlash.c **** {
 472:.\Generated_Source\PSoC4/CyFlash.c ****     cystatus retValue = CY_SYS_FLASH_SUCCESS;
 473:.\Generated_Source\PSoC4/CyFlash.c **** #if(!CY_IP_FM)
 474:.\Generated_Source\PSoC4/CyFlash.c ****     #if !(CY_PSOC4_4000)
 475:.\Generated_Source\PSoC4/CyFlash.c ****         #if (CY_IP_SPCIF_SYNCHRONOUS)
 476:.\Generated_Source\PSoC4/CyFlash.c ****             volatile uint32   parameters[2u];
 477:.\Generated_Source\PSoC4/CyFlash.c ****         #endif /* (CY_IP_SPCIF_SYNCHRONOUS) */
 478:.\Generated_Source\PSoC4/CyFlash.c ****     #endif  /* !(CY_PSOC4_4000) */
 479:.\Generated_Source\PSoC4/CyFlash.c **** #endif  /* (!CY_IP_FM) */
 480:.\Generated_Source\PSoC4/CyFlash.c **** 
 481:.\Generated_Source\PSoC4/CyFlash.c **** #if(CY_IP_FM)
 482:.\Generated_Source\PSoC4/CyFlash.c **** 
 483:.\Generated_Source\PSoC4/CyFlash.c ****     /***************************************************************
 484:.\Generated_Source\PSoC4/CyFlash.c ****     * Restore IMO configuration that could be changed during
 485:.\Generated_Source\PSoC4/CyFlash.c ****     * system call execution (Cypress ID #150448).
 486:.\Generated_Source\PSoC4/CyFlash.c ****     ***************************************************************/
 487:.\Generated_Source\PSoC4/CyFlash.c ****     CY_SYS_CLK_IMO_CONFIG_REG = cySysFlashBackup.imoConfigReg;
 298              		.loc 1 487 0
 299 0126 0F4A     		ldr	r2, .L35+20
 300 0128 0D49     		ldr	r1, .L35+16
 301 012a 1268     		ldr	r2, [r2]
 302 012c 0A60     		str	r2, [r1]
 303              	.LBE13:
 304              	.LBE12:
 211:.\Generated_Source\PSoC4/CyFlash.c ****                 clkCnfRetValue = CySysFlashClockRestore();
 305              		.loc 1 211 0
 306 012e 0593     		str	r3, [sp, #20]
 307              	.LVL17:
 308              	.L17:
 214:.\Generated_Source\PSoC4/CyFlash.c ****             CyExitCriticalSection(interruptState);
 309              		.loc 1 214 0
 310 0130 0398     		ldr	r0, [sp, #12]
 311 0132 FFF7FEFF 		bl	CyExitCriticalSection
 312              	.LVL18:
 313 0136 01E0     		b	.L9
 314              	.LVL19:
 315              	.L2:
ARM GAS  C:\Users\SDEVAS~1\AppData\Local\Temp\ccMcedjC.s 			page 16


 219:.\Generated_Source\PSoC4/CyFlash.c ****         retValue = CY_SYS_FLASH_INVALID_ADDR;
 316              		.loc 1 219 0
 317 0138 0423     		mov	r3, #4
 318 013a 0493     		str	r3, [sp, #16]
 319              	.LVL20:
 320              	.L9:
 222:.\Generated_Source\PSoC4/CyFlash.c ****     return (retValue);
 321              		.loc 1 222 0
 322 013c 0498     		ldr	r0, [sp, #16]
 223:.\Generated_Source\PSoC4/CyFlash.c **** }
 323              		.loc 1 223 0
 324 013e 29B0     		add	sp, sp, #164
 325              		@ sp needed
 326 0140 F0BD     		pop	{r4, r5, r6, r7, pc}
 327              	.LVL21:
 328              	.L7:
 129:.\Generated_Source\PSoC4/CyFlash.c ****                 savedValue = parameters[savedIndex];
 329              		.loc 1 129 0
 330 0142 0098     		ldr	r0, [sp]
 331              	.LVL22:
 126:.\Generated_Source\PSoC4/CyFlash.c ****             needChecksumWorkaround = ((checksum == 0u) && (bits != 0u)) ? 1u : 0u;
 332              		.loc 1 126 0
 333 0144 0125     		mov	r5, #1
 334              	.LVL23:
 129:.\Generated_Source\PSoC4/CyFlash.c ****                 savedValue = parameters[savedIndex];
 335              		.loc 1 129 0
 336 0146 8200     		lsl	r2, r0, #2
 337              	.LVL24:
 338 0148 9858     		ldr	r0, [r3, r2]
 130:.\Generated_Source\PSoC4/CyFlash.c ****                 parameters[savedIndex] = 0u;
 339              		.loc 1 130 0
 340 014a 9950     		str	r1, [r3, r2]
 129:.\Generated_Source\PSoC4/CyFlash.c ****                 savedValue = parameters[savedIndex];
 341              		.loc 1 129 0
 342 014c 0190     		str	r0, [sp, #4]
 343              	.LVL25:
 344 014e 7DE7     		b	.L6
 345              	.L36:
 346              		.align	2
 347              	.L35:
 348 0150 08000040 		.word	1073741832
 349 0154 B6D70000 		.word	55222
 350 0158 04000040 		.word	1073741828
 351 015c 04000080 		.word	-2147483644
 352 0160 08010B40 		.word	1074462984
 353 0164 00000000 		.word	.LANCHOR0
 354 0168 B6D80000 		.word	55478
 355 016c 05000080 		.word	-2147483643
 356 0170 B6D90000 		.word	55734
 357 0174 06000080 		.word	-2147483642
 358              		.cfi_endproc
 359              	.LFE0:
 360              		.size	CySysFlashWriteRow, .-CySysFlashWriteRow
 361              		.section	.text.CySysFlashSetWaitCycles,"ax",%progbits
 362              		.align	1
 363              		.global	CySysFlashSetWaitCycles
 364              		.code	16
ARM GAS  C:\Users\SDEVAS~1\AppData\Local\Temp\ccMcedjC.s 			page 17


 365              		.thumb_func
 366              		.type	CySysFlashSetWaitCycles, %function
 367              	CySysFlashSetWaitCycles:
 368              	.LFB1:
 246:.\Generated_Source\PSoC4/CyFlash.c **** {
 369              		.loc 1 246 0
 370              		.cfi_startproc
 371              	.LVL26:
 372 0000 10B5     		push	{r4, lr}
 373              		.cfi_def_cfa_offset 8
 374              		.cfi_offset 4, -8
 375              		.cfi_offset 14, -4
 246:.\Generated_Source\PSoC4/CyFlash.c **** {
 376              		.loc 1 246 0
 377 0002 041C     		mov	r4, r0
 249:.\Generated_Source\PSoC4/CyFlash.c ****     interruptState = CyEnterCriticalSection();
 378              		.loc 1 249 0
 379 0004 FFF7FEFF 		bl	CyEnterCriticalSection
 380              	.LVL27:
 381 0008 064B     		ldr	r3, .L41
 255:.\Generated_Source\PSoC4/CyFlash.c ****             CY_SYS_CLK_SELECT_REG &= (uint32)(~CY_FLASH_WAIT_STATE_EN);
 382              		.loc 1 255 0
 383 000a 1968     		ldr	r1, [r3]
 253:.\Generated_Source\PSoC4/CyFlash.c ****         if ( freq <= CY_FLASH_SYSCLK_BOUNDARY_MHZ )
 384              		.loc 1 253 0
 385 000c 182C     		cmp	r4, #24
 386 000e 02D8     		bhi	.L38
 255:.\Generated_Source\PSoC4/CyFlash.c ****             CY_SYS_CLK_SELECT_REG &= (uint32)(~CY_FLASH_WAIT_STATE_EN);
 387              		.loc 1 255 0
 388 0010 054A     		ldr	r2, .L41+4
 389 0012 0A40     		and	r2, r1
 390 0014 02E0     		b	.L40
 391              	.L38:
 259:.\Generated_Source\PSoC4/CyFlash.c ****             CY_SYS_CLK_SELECT_REG |= CY_FLASH_WAIT_STATE_EN;
 392              		.loc 1 259 0
 393 0016 8022     		mov	r2, #128
 394 0018 D202     		lsl	r2, r2, #11
 395 001a 0A43     		orr	r2, r1
 396              	.L40:
 397 001c 1A60     		str	r2, [r3]
 284:.\Generated_Source\PSoC4/CyFlash.c ****     CyExitCriticalSection(interruptState);
 398              		.loc 1 284 0
 399 001e FFF7FEFF 		bl	CyExitCriticalSection
 400              	.LVL28:
 285:.\Generated_Source\PSoC4/CyFlash.c **** }
 401              		.loc 1 285 0
 402              		@ sp needed
 403              	.LVL29:
 404 0022 10BD     		pop	{r4, pc}
 405              	.L42:
 406              		.align	2
 407              	.L41:
 408 0024 00010B40 		.word	1074462976
 409 0028 FFFFFBFF 		.word	-262145
 410              		.cfi_endproc
 411              	.LFE1:
 412              		.size	CySysFlashSetWaitCycles, .-CySysFlashSetWaitCycles
ARM GAS  C:\Users\SDEVAS~1\AppData\Local\Temp\ccMcedjC.s 			page 18


 413              		.bss
 414              		.align	2
 415              		.set	.LANCHOR0,. + 0
 416              		.type	cySysFlashBackup, %object
 417              		.size	cySysFlashBackup, 4
 418              	cySysFlashBackup:
 419 0000 00000000 		.space	4
 420              		.text
 421              	.Letext0:
 422              		.file 2 ".\\Generated_Source\\PSoC4\\cytypes.h"
 423              		.file 3 ".\\Generated_Source\\PSoC4\\CyFlash.h"
 424              		.file 4 ".\\Generated_Source\\PSoC4\\CyLib.h"