ARM GAS  C:\Users\SDEVAS~1\AppData\Local\Temp\cchvSIah.s 			page 1


   1              		.cpu cortex-m0
   2              		.fpu softvfp
   3              		.eabi_attribute 20, 1
   4              		.eabi_attribute 21, 1
   5              		.eabi_attribute 23, 3
   6              		.eabi_attribute 24, 1
   7              		.eabi_attribute 25, 1
   8              		.eabi_attribute 26, 1
   9              		.eabi_attribute 30, 4
  10              		.eabi_attribute 34, 0
  11              		.eabi_attribute 18, 4
  12              		.code	16
  13              		.file	"CyLFClk.c"
  14              		.text
  15              	.Ltext0:
  16              		.cfi_sections	.debug_frame
  17              		.section	.text.CySysClkIloStart,"ax",%progbits
  18              		.align	1
  19              		.global	CySysClkIloStart
  20              		.code	16
  21              		.thumb_func
  22              		.type	CySysClkIloStart, %function
  23              	CySysClkIloStart:
  24              	.LFB0:
  25              		.file 1 ".\\Generated_Source\\PSoC4\\CyLFClk.c"
   1:.\Generated_Source\PSoC4/CyLFClk.c **** /*******************************************************************************
   2:.\Generated_Source\PSoC4/CyLFClk.c **** * File Name: .c
   3:.\Generated_Source\PSoC4/CyLFClk.c **** * Version 1.0
   4:.\Generated_Source\PSoC4/CyLFClk.c **** *
   5:.\Generated_Source\PSoC4/CyLFClk.c **** * Description:
   6:.\Generated_Source\PSoC4/CyLFClk.c **** *  This file provides the source code to API for the cy_lfclk Component.
   7:.\Generated_Source\PSoC4/CyLFClk.c **** *
   8:.\Generated_Source\PSoC4/CyLFClk.c **** ********************************************************************************
   9:.\Generated_Source\PSoC4/CyLFClk.c **** * Copyright 2008-2015, Cypress Semiconductor Corporation.  All rights reserved.
  10:.\Generated_Source\PSoC4/CyLFClk.c **** * You may use this file only in accordance with the license, terms, conditions,
  11:.\Generated_Source\PSoC4/CyLFClk.c **** * disclaimers, and limitations in the end user license agreement accompanying
  12:.\Generated_Source\PSoC4/CyLFClk.c **** * the software package with which this file was provided.
  13:.\Generated_Source\PSoC4/CyLFClk.c **** *******************************************************************************/
  14:.\Generated_Source\PSoC4/CyLFClk.c **** 
  15:.\Generated_Source\PSoC4/CyLFClk.c **** 
  16:.\Generated_Source\PSoC4/CyLFClk.c **** #include "CyLFClk.h"
  17:.\Generated_Source\PSoC4/CyLFClk.c **** #include "CyLib.h"
  18:.\Generated_Source\PSoC4/CyLFClk.c **** 
  19:.\Generated_Source\PSoC4/CyLFClk.c **** 
  20:.\Generated_Source\PSoC4/CyLFClk.c **** #if (CY_IP_WCO)
  21:.\Generated_Source\PSoC4/CyLFClk.c ****     static uint32 CySysClkGetLfclkSource(void);
  22:.\Generated_Source\PSoC4/CyLFClk.c **** #endif /* (CY_IP_WCO) */
  23:.\Generated_Source\PSoC4/CyLFClk.c **** 
  24:.\Generated_Source\PSoC4/CyLFClk.c **** #if(CY_IP_SRSSV2)
  25:.\Generated_Source\PSoC4/CyLFClk.c ****     /* CySysClkLfclkPosedgeCatch() / CySysClkLfclkPosedgeRestore() */
  26:.\Generated_Source\PSoC4/CyLFClk.c ****     static uint32 lfclkPosedgeWdtCounter0Enabled = 0u;
  27:.\Generated_Source\PSoC4/CyLFClk.c ****     static uint32 lfclkPosedgeWdtCounter0Mode    = CY_SYS_WDT_MODE_NONE;
  28:.\Generated_Source\PSoC4/CyLFClk.c **** 
  29:.\Generated_Source\PSoC4/CyLFClk.c ****     static volatile uint32 disableServicedIsr = 0uL;
  30:.\Generated_Source\PSoC4/CyLFClk.c ****     static volatile uint32 wdtIsrMask = CY_SYS_WDT_COUNTER0_INT |\
  31:.\Generated_Source\PSoC4/CyLFClk.c ****                                         CY_SYS_WDT_COUNTER1_INT |\
  32:.\Generated_Source\PSoC4/CyLFClk.c ****                                         CY_SYS_WDT_COUNTER2_INT;
ARM GAS  C:\Users\SDEVAS~1\AppData\Local\Temp\cchvSIah.s 			page 2


  33:.\Generated_Source\PSoC4/CyLFClk.c **** 
  34:.\Generated_Source\PSoC4/CyLFClk.c ****     static const uint32 counterIntMaskTbl[CY_WDT_NUM_OF_WDT] = {CY_SYS_WDT_COUNTER0_INT,
  35:.\Generated_Source\PSoC4/CyLFClk.c ****                                                                 CY_SYS_WDT_COUNTER1_INT,
  36:.\Generated_Source\PSoC4/CyLFClk.c ****                                                                 CY_SYS_WDT_COUNTER2_INT};
  37:.\Generated_Source\PSoC4/CyLFClk.c **** 
  38:.\Generated_Source\PSoC4/CyLFClk.c ****     static void CySysClkLfclkPosedgeCatch(void);
  39:.\Generated_Source\PSoC4/CyLFClk.c ****     static void CySysClkLfclkPosedgeRestore(void);
  40:.\Generated_Source\PSoC4/CyLFClk.c **** 
  41:.\Generated_Source\PSoC4/CyLFClk.c ****     static uint32 CySysWdtLocked(void);
  42:.\Generated_Source\PSoC4/CyLFClk.c ****     static uint32 CySysClkIloEnabled(void);
  43:.\Generated_Source\PSoC4/CyLFClk.c **** #endif /* (CY_IP_SRSSV2) */
  44:.\Generated_Source\PSoC4/CyLFClk.c **** 
  45:.\Generated_Source\PSoC4/CyLFClk.c **** #if(CY_IP_SRSSV2)
  46:.\Generated_Source\PSoC4/CyLFClk.c ****     static cyWdtCallback cySysWdtCallback[CY_WDT_NUM_OF_WDT] = {(void *)0, (void *)0, (void *)0};
  47:.\Generated_Source\PSoC4/CyLFClk.c **** #else
  48:.\Generated_Source\PSoC4/CyLFClk.c ****     static cyWdtCallback cySysWdtCallback = (void *)0;
  49:.\Generated_Source\PSoC4/CyLFClk.c **** #endif /* (CY_IP_SRSSV2) */
  50:.\Generated_Source\PSoC4/CyLFClk.c **** 
  51:.\Generated_Source\PSoC4/CyLFClk.c **** /*******************************************************************************
  52:.\Generated_Source\PSoC4/CyLFClk.c **** * Function Name: CySysClkIloStart
  53:.\Generated_Source\PSoC4/CyLFClk.c **** ********************************************************************************
  54:.\Generated_Source\PSoC4/CyLFClk.c **** *
  55:.\Generated_Source\PSoC4/CyLFClk.c **** * Summary:
  56:.\Generated_Source\PSoC4/CyLFClk.c **** *  Enables ILO. Refer to the device datasheet for the ILO startup time.
  57:.\Generated_Source\PSoC4/CyLFClk.c **** *
  58:.\Generated_Source\PSoC4/CyLFClk.c **** * Parameters:
  59:.\Generated_Source\PSoC4/CyLFClk.c **** *  None
  60:.\Generated_Source\PSoC4/CyLFClk.c **** *
  61:.\Generated_Source\PSoC4/CyLFClk.c **** * Return:
  62:.\Generated_Source\PSoC4/CyLFClk.c **** *  None
  63:.\Generated_Source\PSoC4/CyLFClk.c **** *
  64:.\Generated_Source\PSoC4/CyLFClk.c **** *******************************************************************************/
  65:.\Generated_Source\PSoC4/CyLFClk.c **** void CySysClkIloStart(void)
  66:.\Generated_Source\PSoC4/CyLFClk.c **** {
  26              		.loc 1 66 0
  27              		.cfi_startproc
  67:.\Generated_Source\PSoC4/CyLFClk.c ****     CY_SYS_CLK_ILO_CONFIG_REG |= CY_SYS_CLK_ILO_CONFIG_ENABLE;
  28              		.loc 1 67 0
  29 0000 034B     		ldr	r3, .L2
  30 0002 8022     		mov	r2, #128
  31 0004 1968     		ldr	r1, [r3]
  32 0006 1206     		lsl	r2, r2, #24
  33 0008 0A43     		orr	r2, r1
  34 000a 1A60     		str	r2, [r3]
  68:.\Generated_Source\PSoC4/CyLFClk.c **** }
  35              		.loc 1 68 0
  36              		@ sp needed
  37 000c 7047     		bx	lr
  38              	.L3:
  39 000e C046     		.align	2
  40              	.L2:
  41 0010 04010B40 		.word	1074462980
  42              		.cfi_endproc
  43              	.LFE0:
  44              		.size	CySysClkIloStart, .-CySysClkIloStart
  45              		.section	.text.CySysWdtLock,"ax",%progbits
  46              		.align	1
ARM GAS  C:\Users\SDEVAS~1\AppData\Local\Temp\cchvSIah.s 			page 3


  47              		.global	CySysWdtLock
  48              		.code	16
  49              		.thumb_func
  50              		.type	CySysWdtLock, %function
  51              	CySysWdtLock:
  52              	.LFB3:
  69:.\Generated_Source\PSoC4/CyLFClk.c **** 
  70:.\Generated_Source\PSoC4/CyLFClk.c **** 
  71:.\Generated_Source\PSoC4/CyLFClk.c **** /*******************************************************************************
  72:.\Generated_Source\PSoC4/CyLFClk.c **** * Function Name: CySysClkIloStop
  73:.\Generated_Source\PSoC4/CyLFClk.c **** ********************************************************************************
  74:.\Generated_Source\PSoC4/CyLFClk.c **** *
  75:.\Generated_Source\PSoC4/CyLFClk.c **** * Summary:
  76:.\Generated_Source\PSoC4/CyLFClk.c **** *  Disables ILO.
  77:.\Generated_Source\PSoC4/CyLFClk.c **** *
  78:.\Generated_Source\PSoC4/CyLFClk.c **** * Parameters:
  79:.\Generated_Source\PSoC4/CyLFClk.c **** *  None.
  80:.\Generated_Source\PSoC4/CyLFClk.c **** *
  81:.\Generated_Source\PSoC4/CyLFClk.c **** * Return:
  82:.\Generated_Source\PSoC4/CyLFClk.c **** *  None.
  83:.\Generated_Source\PSoC4/CyLFClk.c **** *
  84:.\Generated_Source\PSoC4/CyLFClk.c **** * Side Effects:
  85:.\Generated_Source\PSoC4/CyLFClk.c **** *  This function has no effect if WDT is locked (CySysWdtLock() is
  86:.\Generated_Source\PSoC4/CyLFClk.c **** *  called). Call CySysWdtUnlock() to unlock WDT and stop ILO.
  87:.\Generated_Source\PSoC4/CyLFClk.c **** *
  88:.\Generated_Source\PSoC4/CyLFClk.c **** *  PSoC 4100 / PSoC 4200: Note that ILO is required for WDT's operation.
  89:.\Generated_Source\PSoC4/CyLFClk.c **** *  ILO is required for WDT operation.
  90:.\Generated_Source\PSoC4/CyLFClk.c **** *
  91:.\Generated_Source\PSoC4/CyLFClk.c **** *  PSoC 4100-BL / PSoC 4200-BL and PSoC 4100M / PSoC 4200M:
  92:.\Generated_Source\PSoC4/CyLFClk.c **** *  Stopping ILO affects the peripheral clocked by LFCLK, if
  93:.\Generated_Source\PSoC4/CyLFClk.c **** *  LFCLK is configured to be sourced by ILO.
  94:.\Generated_Source\PSoC4/CyLFClk.c **** *
  95:.\Generated_Source\PSoC4/CyLFClk.c **** *******************************************************************************/
  96:.\Generated_Source\PSoC4/CyLFClk.c **** void CySysClkIloStop(void)
  97:.\Generated_Source\PSoC4/CyLFClk.c **** {
  98:.\Generated_Source\PSoC4/CyLFClk.c ****     #if(CY_IP_SRSSV2)
  99:.\Generated_Source\PSoC4/CyLFClk.c ****         uint8  interruptState;
 100:.\Generated_Source\PSoC4/CyLFClk.c **** 
 101:.\Generated_Source\PSoC4/CyLFClk.c ****         /* Do nothing if WDT is locked or ILO is disabled */
 102:.\Generated_Source\PSoC4/CyLFClk.c ****         if (0u == CySysWdtLocked())
 103:.\Generated_Source\PSoC4/CyLFClk.c ****         {
 104:.\Generated_Source\PSoC4/CyLFClk.c ****             if (0u != CySysClkIloEnabled())
 105:.\Generated_Source\PSoC4/CyLFClk.c ****             {
 106:.\Generated_Source\PSoC4/CyLFClk.c **** 
 107:.\Generated_Source\PSoC4/CyLFClk.c ****             #if (CY_IP_WCO)
 108:.\Generated_Source\PSoC4/CyLFClk.c ****                 if (CY_SYS_CLK_LFCLK_SRC_ILO == CySysClkGetLfclkSource())
 109:.\Generated_Source\PSoC4/CyLFClk.c ****                 {
 110:.\Generated_Source\PSoC4/CyLFClk.c ****             #endif /* (CY_IP_WCO) */
 111:.\Generated_Source\PSoC4/CyLFClk.c **** 
 112:.\Generated_Source\PSoC4/CyLFClk.c ****                 interruptState = CyEnterCriticalSection();
 113:.\Generated_Source\PSoC4/CyLFClk.c ****                 CySysClkLfclkPosedgeCatch();
 114:.\Generated_Source\PSoC4/CyLFClk.c ****                 CY_SYS_CLK_ILO_CONFIG_REG &= ( uint32 ) ( ~( uint32 )CY_SYS_CLK_ILO_CONFIG_ENABLE);
 115:.\Generated_Source\PSoC4/CyLFClk.c ****                 CySysClkLfclkPosedgeRestore();
 116:.\Generated_Source\PSoC4/CyLFClk.c ****                 CyExitCriticalSection(interruptState);
 117:.\Generated_Source\PSoC4/CyLFClk.c **** 
 118:.\Generated_Source\PSoC4/CyLFClk.c ****             #if (CY_IP_WCO)
 119:.\Generated_Source\PSoC4/CyLFClk.c ****                 }
ARM GAS  C:\Users\SDEVAS~1\AppData\Local\Temp\cchvSIah.s 			page 4


 120:.\Generated_Source\PSoC4/CyLFClk.c ****                 else /* Safe to disable - shortened pulse does not impact peripheral */
 121:.\Generated_Source\PSoC4/CyLFClk.c ****                 {
 122:.\Generated_Source\PSoC4/CyLFClk.c ****                     CY_SYS_CLK_ILO_CONFIG_REG &= ( uint32 ) ( ~( uint32 )CY_SYS_CLK_ILO_CONFIG_ENAB
 123:.\Generated_Source\PSoC4/CyLFClk.c ****                 }
 124:.\Generated_Source\PSoC4/CyLFClk.c ****             #endif /* (CY_IP_WCO) */
 125:.\Generated_Source\PSoC4/CyLFClk.c **** 
 126:.\Generated_Source\PSoC4/CyLFClk.c ****             }
 127:.\Generated_Source\PSoC4/CyLFClk.c ****         }
 128:.\Generated_Source\PSoC4/CyLFClk.c ****     #else
 129:.\Generated_Source\PSoC4/CyLFClk.c ****         CY_SYS_CLK_ILO_CONFIG_REG &= ( uint32 ) ( ~( uint32 )CY_SYS_CLK_ILO_CONFIG_ENABLE);
 130:.\Generated_Source\PSoC4/CyLFClk.c ****     #endif /* (CY_IP_SRSSV2) */
 131:.\Generated_Source\PSoC4/CyLFClk.c **** }
 132:.\Generated_Source\PSoC4/CyLFClk.c **** 
 133:.\Generated_Source\PSoC4/CyLFClk.c **** #if(CY_IP_SRSSV2)
 134:.\Generated_Source\PSoC4/CyLFClk.c ****     /*******************************************************************************
 135:.\Generated_Source\PSoC4/CyLFClk.c ****     * Function Name: CySysClkIloEnabled
 136:.\Generated_Source\PSoC4/CyLFClk.c ****     ********************************************************************************
 137:.\Generated_Source\PSoC4/CyLFClk.c ****     *
 138:.\Generated_Source\PSoC4/CyLFClk.c ****     * Summary:
 139:.\Generated_Source\PSoC4/CyLFClk.c ****     *  Reports the ILO enable state.
 140:.\Generated_Source\PSoC4/CyLFClk.c ****     *
 141:.\Generated_Source\PSoC4/CyLFClk.c ****     * Parameters:
 142:.\Generated_Source\PSoC4/CyLFClk.c ****     *  None.
 143:.\Generated_Source\PSoC4/CyLFClk.c ****     *
 144:.\Generated_Source\PSoC4/CyLFClk.c ****     * Return:
 145:.\Generated_Source\PSoC4/CyLFClk.c ****     *  1 if ILO is enabled, and 0 if ILO is disabled.
 146:.\Generated_Source\PSoC4/CyLFClk.c ****     *
 147:.\Generated_Source\PSoC4/CyLFClk.c ****     *******************************************************************************/
 148:.\Generated_Source\PSoC4/CyLFClk.c ****     static uint32 CySysClkIloEnabled(void)
 149:.\Generated_Source\PSoC4/CyLFClk.c ****     {
 150:.\Generated_Source\PSoC4/CyLFClk.c ****         /* Prohibits writing to WDT registers and ILO/WCO registers when not equal to 0 */
 151:.\Generated_Source\PSoC4/CyLFClk.c ****         return ((0u != (CY_SYS_CLK_ILO_CONFIG_REG & (uint32)(CY_SYS_CLK_ILO_CONFIG_ENABLE))) ?
 152:.\Generated_Source\PSoC4/CyLFClk.c ****             (uint32) 1u :
 153:.\Generated_Source\PSoC4/CyLFClk.c ****             (uint32) 0u);
 154:.\Generated_Source\PSoC4/CyLFClk.c ****     }
 155:.\Generated_Source\PSoC4/CyLFClk.c **** #endif /* (CY_IP_SRSSV2) */
 156:.\Generated_Source\PSoC4/CyLFClk.c **** 
 157:.\Generated_Source\PSoC4/CyLFClk.c **** 
 158:.\Generated_Source\PSoC4/CyLFClk.c **** /*******************************************************************************
 159:.\Generated_Source\PSoC4/CyLFClk.c **** * Function Name: CySysClkGetLfclkSource
 160:.\Generated_Source\PSoC4/CyLFClk.c **** ********************************************************************************
 161:.\Generated_Source\PSoC4/CyLFClk.c **** *
 162:.\Generated_Source\PSoC4/CyLFClk.c **** * Summary:
 163:.\Generated_Source\PSoC4/CyLFClk.c **** *  Gets the clock source for the LFCLK clock.
 164:.\Generated_Source\PSoC4/CyLFClk.c **** *  The function is applicable only for PSoC 4100-BL and PSoC 4200-BL.
 165:.\Generated_Source\PSoC4/CyLFClk.c **** *
 166:.\Generated_Source\PSoC4/CyLFClk.c **** * Parameters:
 167:.\Generated_Source\PSoC4/CyLFClk.c **** *  None.
 168:.\Generated_Source\PSoC4/CyLFClk.c **** *
 169:.\Generated_Source\PSoC4/CyLFClk.c **** * Return:
 170:.\Generated_Source\PSoC4/CyLFClk.c **** *  The LFCLK source:
 171:.\Generated_Source\PSoC4/CyLFClk.c **** *   CY_SYS_CLK_LFCLK_SRC_ILO    Internal Low Frequency (32 kHz) Oscillator (ILO)
 172:.\Generated_Source\PSoC4/CyLFClk.c **** *   CY_SYS_CLK_LFCLK_SRC_WCO    Low Frequency Watch Crystal Oscillator (WCO)
 173:.\Generated_Source\PSoC4/CyLFClk.c **** *
 174:.\Generated_Source\PSoC4/CyLFClk.c **** *******************************************************************************/
 175:.\Generated_Source\PSoC4/CyLFClk.c **** #if (CY_IP_WCO)
 176:.\Generated_Source\PSoC4/CyLFClk.c ****     static uint32 CySysClkGetLfclkSource(void)
ARM GAS  C:\Users\SDEVAS~1\AppData\Local\Temp\cchvSIah.s 			page 5


 177:.\Generated_Source\PSoC4/CyLFClk.c ****     {
 178:.\Generated_Source\PSoC4/CyLFClk.c ****         uint32 lfclkSource;
 179:.\Generated_Source\PSoC4/CyLFClk.c ****         lfclkSource = CY_SYS_WDT_CONFIG_REG & CY_SYS_CLK_LFCLK_SEL_MASK;
 180:.\Generated_Source\PSoC4/CyLFClk.c ****         return (lfclkSource);
 181:.\Generated_Source\PSoC4/CyLFClk.c ****     }
 182:.\Generated_Source\PSoC4/CyLFClk.c **** #endif /* (CY_IP_WCO) */
 183:.\Generated_Source\PSoC4/CyLFClk.c **** 
 184:.\Generated_Source\PSoC4/CyLFClk.c **** 
 185:.\Generated_Source\PSoC4/CyLFClk.c **** /*******************************************************************************
 186:.\Generated_Source\PSoC4/CyLFClk.c **** * Function Name: CySysClkSetLfclkSource
 187:.\Generated_Source\PSoC4/CyLFClk.c **** ********************************************************************************
 188:.\Generated_Source\PSoC4/CyLFClk.c **** *
 189:.\Generated_Source\PSoC4/CyLFClk.c **** * Summary:
 190:.\Generated_Source\PSoC4/CyLFClk.c **** *  Sets the clock source for the LFCLK clock.
 191:.\Generated_Source\PSoC4/CyLFClk.c **** *
 192:.\Generated_Source\PSoC4/CyLFClk.c **** *  The switch between LFCLK sources must be done between the positive edges of
 193:.\Generated_Source\PSoC4/CyLFClk.c **** *  LFCLK, because the glitch risk is around the LFCLK positive edge. To ensure
 194:.\Generated_Source\PSoC4/CyLFClk.c **** *  that the switch can be done safely, the WDT counter value is read until it
 195:.\Generated_Source\PSoC4/CyLFClk.c **** *  changes.
 196:.\Generated_Source\PSoC4/CyLFClk.c **** *
 197:.\Generated_Source\PSoC4/CyLFClk.c **** *  That means that the positive edge just finished and the switch is performed.
 198:.\Generated_Source\PSoC4/CyLFClk.c **** *  The enabled WDT counter is used for that purpose. If no counters are enabled,
 199:.\Generated_Source\PSoC4/CyLFClk.c **** *  counter 0 is enabled. And after the LFCLK source is switched, counter 0
 200:.\Generated_Source\PSoC4/CyLFClk.c **** *  configuration is restored.
 201:.\Generated_Source\PSoC4/CyLFClk.c **** *
 202:.\Generated_Source\PSoC4/CyLFClk.c **** *  The function is applicable only for PSoC 4100-BL and PSoC 4200-BL.
 203:.\Generated_Source\PSoC4/CyLFClk.c **** *
 204:.\Generated_Source\PSoC4/CyLFClk.c **** * Parameters:
 205:.\Generated_Source\PSoC4/CyLFClk.c **** *  source: One of the available LFCLK sources.
 206:.\Generated_Source\PSoC4/CyLFClk.c **** *   CY_SYS_CLK_LFCLK_SRC_ILO    Internal Low Frequency (32 kHz) Oscillator (ILO)
 207:.\Generated_Source\PSoC4/CyLFClk.c **** *   CY_SYS_CLK_LFCLK_SRC_WCO    Low Frequency Watch Crystal Oscillator (WCO)
 208:.\Generated_Source\PSoC4/CyLFClk.c **** *
 209:.\Generated_Source\PSoC4/CyLFClk.c **** * Return:
 210:.\Generated_Source\PSoC4/CyLFClk.c **** *  None
 211:.\Generated_Source\PSoC4/CyLFClk.c **** *
 212:.\Generated_Source\PSoC4/CyLFClk.c **** * Side Effects:
 213:.\Generated_Source\PSoC4/CyLFClk.c **** *  This function has no effect if WDT is locked (CySysWdtLock() is
 214:.\Generated_Source\PSoC4/CyLFClk.c **** *  called). Call CySysWdtUnlock() to unlock WDT.
 215:.\Generated_Source\PSoC4/CyLFClk.c **** *
 216:.\Generated_Source\PSoC4/CyLFClk.c **** *  Both the current source and the new source must be running and stable before
 217:.\Generated_Source\PSoC4/CyLFClk.c **** *  calling this function.
 218:.\Generated_Source\PSoC4/CyLFClk.c **** *
 219:.\Generated_Source\PSoC4/CyLFClk.c **** *  Changing the LFCLK clock source may change the LFCLK clock frequency and
 220:.\Generated_Source\PSoC4/CyLFClk.c **** *  affect the functionality that uses this clock. For example, watchdog timer
 221:.\Generated_Source\PSoC4/CyLFClk.c **** *  "uses this clock" or "this clock uses" (WDT) is clocked by LFCLK.
 222:.\Generated_Source\PSoC4/CyLFClk.c **** *
 223:.\Generated_Source\PSoC4/CyLFClk.c **** *******************************************************************************/
 224:.\Generated_Source\PSoC4/CyLFClk.c **** #if (CY_IP_WCO)
 225:.\Generated_Source\PSoC4/CyLFClk.c ****     void CySysClkSetLfclkSource(uint32 source)
 226:.\Generated_Source\PSoC4/CyLFClk.c ****     {
 227:.\Generated_Source\PSoC4/CyLFClk.c ****         uint8  interruptState;
 228:.\Generated_Source\PSoC4/CyLFClk.c **** 
 229:.\Generated_Source\PSoC4/CyLFClk.c ****         if (CySysClkGetLfclkSource() != source)
 230:.\Generated_Source\PSoC4/CyLFClk.c ****         {
 231:.\Generated_Source\PSoC4/CyLFClk.c ****             interruptState = CyEnterCriticalSection();
 232:.\Generated_Source\PSoC4/CyLFClk.c **** 
 233:.\Generated_Source\PSoC4/CyLFClk.c ****             CySysClkLfclkPosedgeCatch();
ARM GAS  C:\Users\SDEVAS~1\AppData\Local\Temp\cchvSIah.s 			page 6


 234:.\Generated_Source\PSoC4/CyLFClk.c **** 
 235:.\Generated_Source\PSoC4/CyLFClk.c ****             CY_SYS_WDT_CONFIG_REG = (CY_SYS_WDT_CONFIG_REG & (uint32)(~CY_SYS_CLK_LFCLK_SEL_MASK)) 
 236:.\Generated_Source\PSoC4/CyLFClk.c ****                                     (source & CY_SYS_CLK_LFCLK_SEL_MASK);
 237:.\Generated_Source\PSoC4/CyLFClk.c **** 
 238:.\Generated_Source\PSoC4/CyLFClk.c ****             CySysClkLfclkPosedgeRestore();
 239:.\Generated_Source\PSoC4/CyLFClk.c **** 
 240:.\Generated_Source\PSoC4/CyLFClk.c ****             CyExitCriticalSection(interruptState);
 241:.\Generated_Source\PSoC4/CyLFClk.c ****         }
 242:.\Generated_Source\PSoC4/CyLFClk.c ****     }
 243:.\Generated_Source\PSoC4/CyLFClk.c **** #endif /* (CY_IP_WCO) */
 244:.\Generated_Source\PSoC4/CyLFClk.c **** 
 245:.\Generated_Source\PSoC4/CyLFClk.c **** 
 246:.\Generated_Source\PSoC4/CyLFClk.c **** #if (CY_IP_WCO)
 247:.\Generated_Source\PSoC4/CyLFClk.c ****     /*******************************************************************************
 248:.\Generated_Source\PSoC4/CyLFClk.c ****     * Function Name: CySysClkWcoStart
 249:.\Generated_Source\PSoC4/CyLFClk.c ****     ********************************************************************************
 250:.\Generated_Source\PSoC4/CyLFClk.c ****     *
 251:.\Generated_Source\PSoC4/CyLFClk.c ****     * Summary:
 252:.\Generated_Source\PSoC4/CyLFClk.c ****     *  Enables Watch Crystal Oscillator (WCO). WCO is used as a source for
 253:.\Generated_Source\PSoC4/CyLFClk.c ****     *  LFCLK.  Similar to ILO, WCO is also available in all modes except Hibernate
 254:.\Generated_Source\PSoC4/CyLFClk.c ****     *  and Stop modes.
 255:.\Generated_Source\PSoC4/CyLFClk.c ****     *
 256:.\Generated_Source\PSoC4/CyLFClk.c ****     *  WCO is always enabled in High Power Mode (HPM). Refer to the device
 257:.\Generated_Source\PSoC4/CyLFClk.c ****     *  datasheet for the  WCO startup time. Once WCO becomes stable it can be
 258:.\Generated_Source\PSoC4/CyLFClk.c ****     *  switched to Low Power Mode (LPM). Note that oscillator can be unstable
 259:.\Generated_Source\PSoC4/CyLFClk.c ****     *  during a switch and hence its output should not be used at that moment.
 260:.\Generated_Source\PSoC4/CyLFClk.c ****     *
 261:.\Generated_Source\PSoC4/CyLFClk.c ****     *  The CySysClkWcoSetPowerMode() function configures the WCO power mode.
 262:.\Generated_Source\PSoC4/CyLFClk.c ****     *
 263:.\Generated_Source\PSoC4/CyLFClk.c ****     * Parameters:
 264:.\Generated_Source\PSoC4/CyLFClk.c ****     *  None.
 265:.\Generated_Source\PSoC4/CyLFClk.c ****     *
 266:.\Generated_Source\PSoC4/CyLFClk.c ****     * Return:
 267:.\Generated_Source\PSoC4/CyLFClk.c ****     *  None.
 268:.\Generated_Source\PSoC4/CyLFClk.c ****     *
 269:.\Generated_Source\PSoC4/CyLFClk.c ****     *******************************************************************************/
 270:.\Generated_Source\PSoC4/CyLFClk.c ****     void CySysClkWcoStart(void)
 271:.\Generated_Source\PSoC4/CyLFClk.c ****     {
 272:.\Generated_Source\PSoC4/CyLFClk.c ****         CySysClkWcoSetHighPowerMode();
 273:.\Generated_Source\PSoC4/CyLFClk.c ****         CY_SYS_CLK_WCO_CONFIG_REG |= CY_SYS_CLK_WCO_CONFIG_LPM_ENABLE;
 274:.\Generated_Source\PSoC4/CyLFClk.c ****     }
 275:.\Generated_Source\PSoC4/CyLFClk.c **** 
 276:.\Generated_Source\PSoC4/CyLFClk.c **** 
 277:.\Generated_Source\PSoC4/CyLFClk.c ****     /*******************************************************************************
 278:.\Generated_Source\PSoC4/CyLFClk.c ****     * Function Name: CySysClkWcoStop
 279:.\Generated_Source\PSoC4/CyLFClk.c ****     ********************************************************************************
 280:.\Generated_Source\PSoC4/CyLFClk.c ****     *
 281:.\Generated_Source\PSoC4/CyLFClk.c ****     * Summary:
 282:.\Generated_Source\PSoC4/CyLFClk.c ****     *  Disables the 32KHz Crystal Oscillator.
 283:.\Generated_Source\PSoC4/CyLFClk.c ****     *
 284:.\Generated_Source\PSoC4/CyLFClk.c ****     * Parameters:
 285:.\Generated_Source\PSoC4/CyLFClk.c ****     *  None.
 286:.\Generated_Source\PSoC4/CyLFClk.c ****     *
 287:.\Generated_Source\PSoC4/CyLFClk.c ****     * Return:
 288:.\Generated_Source\PSoC4/CyLFClk.c ****     *  None.
 289:.\Generated_Source\PSoC4/CyLFClk.c ****     *
 290:.\Generated_Source\PSoC4/CyLFClk.c ****     *******************************************************************************/
ARM GAS  C:\Users\SDEVAS~1\AppData\Local\Temp\cchvSIah.s 			page 7


 291:.\Generated_Source\PSoC4/CyLFClk.c ****     void  CySysClkWcoStop(void)
 292:.\Generated_Source\PSoC4/CyLFClk.c ****     {
 293:.\Generated_Source\PSoC4/CyLFClk.c ****         uint8  interruptState;
 294:.\Generated_Source\PSoC4/CyLFClk.c **** 
 295:.\Generated_Source\PSoC4/CyLFClk.c ****         if (0u != CySysClkWcoEnabled())
 296:.\Generated_Source\PSoC4/CyLFClk.c ****         {
 297:.\Generated_Source\PSoC4/CyLFClk.c **** 
 298:.\Generated_Source\PSoC4/CyLFClk.c ****             if (CY_SYS_CLK_LFCLK_SRC_WCO == CySysClkGetLfclkSource())
 299:.\Generated_Source\PSoC4/CyLFClk.c ****             {
 300:.\Generated_Source\PSoC4/CyLFClk.c ****                 interruptState = CyEnterCriticalSection();
 301:.\Generated_Source\PSoC4/CyLFClk.c ****                 CySysClkLfclkPosedgeCatch();
 302:.\Generated_Source\PSoC4/CyLFClk.c ****                 CY_SYS_CLK_WCO_CONFIG_REG &= (uint32) ~CY_SYS_CLK_WCO_CONFIG_LPM_ENABLE;
 303:.\Generated_Source\PSoC4/CyLFClk.c ****                 CySysClkLfclkPosedgeRestore();
 304:.\Generated_Source\PSoC4/CyLFClk.c ****                 CyExitCriticalSection(interruptState);
 305:.\Generated_Source\PSoC4/CyLFClk.c ****             }
 306:.\Generated_Source\PSoC4/CyLFClk.c ****             else /* Safe to disable - shortened pulse does not impact peripheral */
 307:.\Generated_Source\PSoC4/CyLFClk.c ****             {
 308:.\Generated_Source\PSoC4/CyLFClk.c ****                 CY_SYS_CLK_WCO_CONFIG_REG &= (uint32) ~CY_SYS_CLK_WCO_CONFIG_LPM_ENABLE;
 309:.\Generated_Source\PSoC4/CyLFClk.c ****             }
 310:.\Generated_Source\PSoC4/CyLFClk.c ****         } /* Otherwise do nothing. WCO configuration cannot be changed. */
 311:.\Generated_Source\PSoC4/CyLFClk.c ****     }
 312:.\Generated_Source\PSoC4/CyLFClk.c **** 
 313:.\Generated_Source\PSoC4/CyLFClk.c **** 
 314:.\Generated_Source\PSoC4/CyLFClk.c ****     /*******************************************************************************
 315:.\Generated_Source\PSoC4/CyLFClk.c ****     * Function Name: CySysClkWcoEnabled
 316:.\Generated_Source\PSoC4/CyLFClk.c ****     ********************************************************************************
 317:.\Generated_Source\PSoC4/CyLFClk.c ****     *
 318:.\Generated_Source\PSoC4/CyLFClk.c ****     * Summary:
 319:.\Generated_Source\PSoC4/CyLFClk.c ****     *  Reports the WCO enable state.
 320:.\Generated_Source\PSoC4/CyLFClk.c ****     *
 321:.\Generated_Source\PSoC4/CyLFClk.c ****     * Parameters:
 322:.\Generated_Source\PSoC4/CyLFClk.c ****     *  None.
 323:.\Generated_Source\PSoC4/CyLFClk.c ****     *
 324:.\Generated_Source\PSoC4/CyLFClk.c ****     * Return:
 325:.\Generated_Source\PSoC4/CyLFClk.c ****     *  1 if WCO is enabled, and 0 if WCO is disabled.
 326:.\Generated_Source\PSoC4/CyLFClk.c ****     *
 327:.\Generated_Source\PSoC4/CyLFClk.c ****     *******************************************************************************/
 328:.\Generated_Source\PSoC4/CyLFClk.c ****     uint32 CySysClkWcoEnabled(void)
 329:.\Generated_Source\PSoC4/CyLFClk.c ****     {
 330:.\Generated_Source\PSoC4/CyLFClk.c ****         return ((0u != (CY_SYS_CLK_WCO_CONFIG_REG & (uint32)(CY_SYS_CLK_WCO_CONFIG_LPM_ENABLE))) ?
 331:.\Generated_Source\PSoC4/CyLFClk.c ****                 (uint32) 1u :
 332:.\Generated_Source\PSoC4/CyLFClk.c ****                 (uint32) 0u);
 333:.\Generated_Source\PSoC4/CyLFClk.c ****     }
 334:.\Generated_Source\PSoC4/CyLFClk.c **** 
 335:.\Generated_Source\PSoC4/CyLFClk.c **** 
 336:.\Generated_Source\PSoC4/CyLFClk.c ****     /*******************************************************************************
 337:.\Generated_Source\PSoC4/CyLFClk.c ****     * Function Name: CySysClkWcoSetPowerMode
 338:.\Generated_Source\PSoC4/CyLFClk.c ****     ********************************************************************************
 339:.\Generated_Source\PSoC4/CyLFClk.c ****     *
 340:.\Generated_Source\PSoC4/CyLFClk.c ****     * Summary:
 341:.\Generated_Source\PSoC4/CyLFClk.c ****     *  Sets the power mode for the 32 KHz WCO.
 342:.\Generated_Source\PSoC4/CyLFClk.c ****     *
 343:.\Generated_Source\PSoC4/CyLFClk.c ****     * Parameters:
 344:.\Generated_Source\PSoC4/CyLFClk.c ****     *  uint32 mode:
 345:.\Generated_Source\PSoC4/CyLFClk.c ****     *   CY_SYS_CLK_WCO_HPM  - The High Power mode
 346:.\Generated_Source\PSoC4/CyLFClk.c ****     *   CY_SYS_CLK_WCO_LPM  - The Low Power mode(not applicable for
 347:.\Generated_Source\PSoC4/CyLFClk.c ****     *                         PSoC 4100M / PSoC 4200M devices)
ARM GAS  C:\Users\SDEVAS~1\AppData\Local\Temp\cchvSIah.s 			page 8


 348:.\Generated_Source\PSoC4/CyLFClk.c ****     *
 349:.\Generated_Source\PSoC4/CyLFClk.c ****     * Return:
 350:.\Generated_Source\PSoC4/CyLFClk.c ****     *  A previous power mode. The same as the parameters.
 351:.\Generated_Source\PSoC4/CyLFClk.c ****     *
 352:.\Generated_Source\PSoC4/CyLFClk.c ****     * Note:
 353:.\Generated_Source\PSoC4/CyLFClk.c ****     *  The WCO Low power mode is not applicable for the PSoC 4100M/PSoC 4200M
 354:.\Generated_Source\PSoC4/CyLFClk.c ****     *  devices.
 355:.\Generated_Source\PSoC4/CyLFClk.c ****     *
 356:.\Generated_Source\PSoC4/CyLFClk.c ****     *******************************************************************************/
 357:.\Generated_Source\PSoC4/CyLFClk.c ****     uint32 CySysClkWcoSetPowerMode(uint32 mode)
 358:.\Generated_Source\PSoC4/CyLFClk.c ****     {
 359:.\Generated_Source\PSoC4/CyLFClk.c ****         uint32 status;
 360:.\Generated_Source\PSoC4/CyLFClk.c **** 
 361:.\Generated_Source\PSoC4/CyLFClk.c ****         status = CY_SYS_CLK_WCO_CONFIG_REG & CY_SYS_CLK_WCO_CONFIG_LPM_EN;
 362:.\Generated_Source\PSoC4/CyLFClk.c **** 
 363:.\Generated_Source\PSoC4/CyLFClk.c ****         switch(mode)
 364:.\Generated_Source\PSoC4/CyLFClk.c ****         {
 365:.\Generated_Source\PSoC4/CyLFClk.c ****         case CY_SYS_CLK_WCO_HPM:
 366:.\Generated_Source\PSoC4/CyLFClk.c ****                 CySysClkWcoSetHighPowerMode();
 367:.\Generated_Source\PSoC4/CyLFClk.c ****             break;
 368:.\Generated_Source\PSoC4/CyLFClk.c **** 
 369:.\Generated_Source\PSoC4/CyLFClk.c ****         #if(!CY_PSOC4_4100M && !CY_PSOC4_4200M)
 370:.\Generated_Source\PSoC4/CyLFClk.c ****             case CY_SYS_CLK_WCO_LPM:
 371:.\Generated_Source\PSoC4/CyLFClk.c ****                     CySysClkWcoSetLowPowerMode();
 372:.\Generated_Source\PSoC4/CyLFClk.c ****                 break;
 373:.\Generated_Source\PSoC4/CyLFClk.c ****         #endif /* (!CY_PSOC4_4100M && !CY_PSOC4_4200M) */
 374:.\Generated_Source\PSoC4/CyLFClk.c **** 
 375:.\Generated_Source\PSoC4/CyLFClk.c ****         default:
 376:.\Generated_Source\PSoC4/CyLFClk.c ****             CYASSERT(0u != 0u);
 377:.\Generated_Source\PSoC4/CyLFClk.c ****             break;
 378:.\Generated_Source\PSoC4/CyLFClk.c ****         }
 379:.\Generated_Source\PSoC4/CyLFClk.c **** 
 380:.\Generated_Source\PSoC4/CyLFClk.c ****         return (status);
 381:.\Generated_Source\PSoC4/CyLFClk.c ****     }
 382:.\Generated_Source\PSoC4/CyLFClk.c **** 
 383:.\Generated_Source\PSoC4/CyLFClk.c **** #endif  /* (CY_IP_WCO) */
 384:.\Generated_Source\PSoC4/CyLFClk.c **** 
 385:.\Generated_Source\PSoC4/CyLFClk.c **** 
 386:.\Generated_Source\PSoC4/CyLFClk.c **** #if(CY_IP_SRSSV2)
 387:.\Generated_Source\PSoC4/CyLFClk.c **** 
 388:.\Generated_Source\PSoC4/CyLFClk.c **** 
 389:.\Generated_Source\PSoC4/CyLFClk.c ****     /*******************************************************************************
 390:.\Generated_Source\PSoC4/CyLFClk.c ****     * Function Name: CySysWdtLock
 391:.\Generated_Source\PSoC4/CyLFClk.c ****     ********************************************************************************
 392:.\Generated_Source\PSoC4/CyLFClk.c ****     *
 393:.\Generated_Source\PSoC4/CyLFClk.c ****     * Summary:
 394:.\Generated_Source\PSoC4/CyLFClk.c ****     *  Locks out configuration changes to the Watchdog timer registers and ILO
 395:.\Generated_Source\PSoC4/CyLFClk.c ****     *  configuration register.
 396:.\Generated_Source\PSoC4/CyLFClk.c ****     *
 397:.\Generated_Source\PSoC4/CyLFClk.c ****     * Parameters:
 398:.\Generated_Source\PSoC4/CyLFClk.c ****     *  None.
 399:.\Generated_Source\PSoC4/CyLFClk.c ****     *
 400:.\Generated_Source\PSoC4/CyLFClk.c ****     * Return:
 401:.\Generated_Source\PSoC4/CyLFClk.c ****     *  None.
 402:.\Generated_Source\PSoC4/CyLFClk.c ****     *
 403:.\Generated_Source\PSoC4/CyLFClk.c ****     * Side effects:
 404:.\Generated_Source\PSoC4/CyLFClk.c ****     *  After this function is called, ILO clock can't be disabled until
ARM GAS  C:\Users\SDEVAS~1\AppData\Local\Temp\cchvSIah.s 			page 9


 405:.\Generated_Source\PSoC4/CyLFClk.c ****     *  CySysWdtUnlock() is called.
 406:.\Generated_Source\PSoC4/CyLFClk.c ****     *
 407:.\Generated_Source\PSoC4/CyLFClk.c ****     *******************************************************************************/
 408:.\Generated_Source\PSoC4/CyLFClk.c ****     void CySysWdtLock(void)
 409:.\Generated_Source\PSoC4/CyLFClk.c ****     {
  53              		.loc 1 409 0
  54              		.cfi_startproc
  55 0000 08B5     		push	{r3, lr}
  56              		.cfi_def_cfa_offset 8
  57              		.cfi_offset 3, -8
  58              		.cfi_offset 14, -4
 410:.\Generated_Source\PSoC4/CyLFClk.c ****         uint8 interruptState;
 411:.\Generated_Source\PSoC4/CyLFClk.c ****         interruptState = CyEnterCriticalSection();
  59              		.loc 1 411 0
  60 0002 FFF7FEFF 		bl	CyEnterCriticalSection
  61              	.LVL0:
 412:.\Generated_Source\PSoC4/CyLFClk.c **** 
 413:.\Generated_Source\PSoC4/CyLFClk.c ****         CY_SYS_CLK_SELECT_REG = (CY_SYS_CLK_SELECT_REG & (uint32)(~CY_SYS_WDT_CLK_LOCK_BITS_MASK)) 
  62              		.loc 1 413 0
  63 0006 044B     		ldr	r3, .L5
  64 0008 C022     		mov	r2, #192
  65 000a 1968     		ldr	r1, [r3]
  66 000c 1202     		lsl	r2, r2, #8
  67 000e 0A43     		orr	r2, r1
  68 0010 1A60     		str	r2, [r3]
 414:.\Generated_Source\PSoC4/CyLFClk.c ****                  CY_SYS_WDT_CLK_LOCK_BITS_MASK;
 415:.\Generated_Source\PSoC4/CyLFClk.c **** 
 416:.\Generated_Source\PSoC4/CyLFClk.c ****         CyExitCriticalSection(interruptState);
  69              		.loc 1 416 0
  70 0012 FFF7FEFF 		bl	CyExitCriticalSection
  71              	.LVL1:
 417:.\Generated_Source\PSoC4/CyLFClk.c ****     }
  72              		.loc 1 417 0
  73              		@ sp needed
  74 0016 08BD     		pop	{r3, pc}
  75              	.L6:
  76              		.align	2
  77              	.L5:
  78 0018 00010B40 		.word	1074462976
  79              		.cfi_endproc
  80              	.LFE3:
  81              		.size	CySysWdtLock, .-CySysWdtLock
  82              		.section	.text.CySysWdtUnlock,"ax",%progbits
  83              		.align	1
  84              		.global	CySysWdtUnlock
  85              		.code	16
  86              		.thumb_func
  87              		.type	CySysWdtUnlock, %function
  88              	CySysWdtUnlock:
  89              	.LFB5:
 418:.\Generated_Source\PSoC4/CyLFClk.c **** 
 419:.\Generated_Source\PSoC4/CyLFClk.c **** 
 420:.\Generated_Source\PSoC4/CyLFClk.c ****     /*******************************************************************************
 421:.\Generated_Source\PSoC4/CyLFClk.c ****     * Function Name: CySysWdtLocked
 422:.\Generated_Source\PSoC4/CyLFClk.c ****     ********************************************************************************
 423:.\Generated_Source\PSoC4/CyLFClk.c ****     *
 424:.\Generated_Source\PSoC4/CyLFClk.c ****     * Summary:
ARM GAS  C:\Users\SDEVAS~1\AppData\Local\Temp\cchvSIah.s 			page 10


 425:.\Generated_Source\PSoC4/CyLFClk.c ****     *  Reports the WDT lock state.
 426:.\Generated_Source\PSoC4/CyLFClk.c ****     *
 427:.\Generated_Source\PSoC4/CyLFClk.c ****     * Parameters:
 428:.\Generated_Source\PSoC4/CyLFClk.c ****     *  None
 429:.\Generated_Source\PSoC4/CyLFClk.c ****     *
 430:.\Generated_Source\PSoC4/CyLFClk.c ****     * Return:
 431:.\Generated_Source\PSoC4/CyLFClk.c ****     *  1 - WDT is locked, and 0 - WDT is unlocked.
 432:.\Generated_Source\PSoC4/CyLFClk.c ****     *
 433:.\Generated_Source\PSoC4/CyLFClk.c ****     *******************************************************************************/
 434:.\Generated_Source\PSoC4/CyLFClk.c ****     static uint32 CySysWdtLocked(void)
 435:.\Generated_Source\PSoC4/CyLFClk.c ****     {
 436:.\Generated_Source\PSoC4/CyLFClk.c ****         /* Prohibits writing to WDT registers and ILO/WCO registers when not equal 0 */
 437:.\Generated_Source\PSoC4/CyLFClk.c ****         return ((0u != (CY_SYS_CLK_SELECT_REG & (uint32)(CY_SYS_WDT_CLK_LOCK_BITS_MASK))) ? (uint32
 438:.\Generated_Source\PSoC4/CyLFClk.c ****     }
 439:.\Generated_Source\PSoC4/CyLFClk.c **** 
 440:.\Generated_Source\PSoC4/CyLFClk.c **** 
 441:.\Generated_Source\PSoC4/CyLFClk.c ****     /*******************************************************************************
 442:.\Generated_Source\PSoC4/CyLFClk.c ****     * Function Name: CySysWdtUnlock
 443:.\Generated_Source\PSoC4/CyLFClk.c ****     ********************************************************************************
 444:.\Generated_Source\PSoC4/CyLFClk.c ****     *
 445:.\Generated_Source\PSoC4/CyLFClk.c ****     * Summary:
 446:.\Generated_Source\PSoC4/CyLFClk.c ****     *  Unlocks the Watchdog Timer configuration register.
 447:.\Generated_Source\PSoC4/CyLFClk.c ****     *
 448:.\Generated_Source\PSoC4/CyLFClk.c ****     * Parameters:
 449:.\Generated_Source\PSoC4/CyLFClk.c ****     *  None.
 450:.\Generated_Source\PSoC4/CyLFClk.c ****     *
 451:.\Generated_Source\PSoC4/CyLFClk.c ****     * Return:
 452:.\Generated_Source\PSoC4/CyLFClk.c ****     *  None.
 453:.\Generated_Source\PSoC4/CyLFClk.c ****     *
 454:.\Generated_Source\PSoC4/CyLFClk.c ****     *******************************************************************************/
 455:.\Generated_Source\PSoC4/CyLFClk.c ****     void CySysWdtUnlock(void)
 456:.\Generated_Source\PSoC4/CyLFClk.c ****     {
  90              		.loc 1 456 0
  91              		.cfi_startproc
  92 0000 10B5     		push	{r4, lr}
  93              		.cfi_def_cfa_offset 8
  94              		.cfi_offset 4, -8
  95              		.cfi_offset 14, -4
 457:.\Generated_Source\PSoC4/CyLFClk.c ****         uint8 interruptState;
 458:.\Generated_Source\PSoC4/CyLFClk.c ****         interruptState = CyEnterCriticalSection();
  96              		.loc 1 458 0
  97 0002 FFF7FEFF 		bl	CyEnterCriticalSection
  98              	.LVL2:
 459:.\Generated_Source\PSoC4/CyLFClk.c **** 
 460:.\Generated_Source\PSoC4/CyLFClk.c ****         /* Removing WDT lock requires two writes */
 461:.\Generated_Source\PSoC4/CyLFClk.c ****         CY_SYS_CLK_SELECT_REG = ((CY_SYS_CLK_SELECT_REG & (uint32)(~CY_SYS_WDT_CLK_LOCK_BITS_MASK))
  99              		.loc 1 461 0
 100 0006 084B     		ldr	r3, .L8
 101 0008 084A     		ldr	r2, .L8+4
 102 000a 1968     		ldr	r1, [r3]
 103 000c 8024     		mov	r4, #128
 104 000e 1140     		and	r1, r2
 105 0010 E401     		lsl	r4, r4, #7
 106 0012 2143     		orr	r1, r4
 107 0014 1960     		str	r1, [r3]
 462:.\Generated_Source\PSoC4/CyLFClk.c ****                 CY_SYS_WDT_CLK_LOCK_BIT0);
 463:.\Generated_Source\PSoC4/CyLFClk.c **** 
ARM GAS  C:\Users\SDEVAS~1\AppData\Local\Temp\cchvSIah.s 			page 11


 464:.\Generated_Source\PSoC4/CyLFClk.c ****         CY_SYS_CLK_SELECT_REG = ((CY_SYS_CLK_SELECT_REG & (uint32)(~CY_SYS_WDT_CLK_LOCK_BITS_MASK))
 108              		.loc 1 464 0
 109 0016 1968     		ldr	r1, [r3]
 465:.\Generated_Source\PSoC4/CyLFClk.c ****                 CY_SYS_WDT_CLK_LOCK_BIT1);
 466:.\Generated_Source\PSoC4/CyLFClk.c **** 
 467:.\Generated_Source\PSoC4/CyLFClk.c ****         CyExitCriticalSection(interruptState);
 468:.\Generated_Source\PSoC4/CyLFClk.c ****     }
 110              		.loc 1 468 0
 111              		@ sp needed
 464:.\Generated_Source\PSoC4/CyLFClk.c ****         CY_SYS_CLK_SELECT_REG = ((CY_SYS_CLK_SELECT_REG & (uint32)(~CY_SYS_WDT_CLK_LOCK_BITS_MASK))
 112              		.loc 1 464 0
 113 0018 0A40     		and	r2, r1
 114 001a 8021     		mov	r1, #128
 115 001c 0902     		lsl	r1, r1, #8
 116 001e 0A43     		orr	r2, r1
 117 0020 1A60     		str	r2, [r3]
 467:.\Generated_Source\PSoC4/CyLFClk.c ****         CyExitCriticalSection(interruptState);
 118              		.loc 1 467 0
 119 0022 FFF7FEFF 		bl	CyExitCriticalSection
 120              	.LVL3:
 121              		.loc 1 468 0
 122 0026 10BD     		pop	{r4, pc}
 123              	.L9:
 124              		.align	2
 125              	.L8:
 126 0028 00010B40 		.word	1074462976
 127 002c FF3FFFFF 		.word	-49153
 128              		.cfi_endproc
 129              	.LFE5:
 130              		.size	CySysWdtUnlock, .-CySysWdtUnlock
 131              		.section	.text.CySysWdtGetEnabledStatus,"ax",%progbits
 132              		.align	1
 133              		.global	CySysWdtGetEnabledStatus
 134              		.code	16
 135              		.thumb_func
 136              		.type	CySysWdtGetEnabledStatus, %function
 137              	CySysWdtGetEnabledStatus:
 138              	.LFB6:
 469:.\Generated_Source\PSoC4/CyLFClk.c **** 
 470:.\Generated_Source\PSoC4/CyLFClk.c **** 
 471:.\Generated_Source\PSoC4/CyLFClk.c ****     /*******************************************************************************
 472:.\Generated_Source\PSoC4/CyLFClk.c ****     * Function Name: CySysWdtGetEnabledStatus
 473:.\Generated_Source\PSoC4/CyLFClk.c ****     ********************************************************************************
 474:.\Generated_Source\PSoC4/CyLFClk.c ****     *
 475:.\Generated_Source\PSoC4/CyLFClk.c ****     * Summary:
 476:.\Generated_Source\PSoC4/CyLFClk.c ****     *  Reads the enabled status of one of the three WDT counters.
 477:.\Generated_Source\PSoC4/CyLFClk.c ****     *
 478:.\Generated_Source\PSoC4/CyLFClk.c ****     * Parameters:
 479:.\Generated_Source\PSoC4/CyLFClk.c ****     *  counterNum: Valid range [0-2].  the number of the WDT counter.
 480:.\Generated_Source\PSoC4/CyLFClk.c ****     *
 481:.\Generated_Source\PSoC4/CyLFClk.c ****     * Return:
 482:.\Generated_Source\PSoC4/CyLFClk.c ****     *  The status of the WDT counter:
 483:.\Generated_Source\PSoC4/CyLFClk.c ****     *   0 - The counter is disabled.
 484:.\Generated_Source\PSoC4/CyLFClk.c ****     *   1 - The counter is enabled.
 485:.\Generated_Source\PSoC4/CyLFClk.c ****     *
 486:.\Generated_Source\PSoC4/CyLFClk.c ****     * Side Effects:
 487:.\Generated_Source\PSoC4/CyLFClk.c ****     *  This function returns an actual WDT counter status from the status register. It may
ARM GAS  C:\Users\SDEVAS~1\AppData\Local\Temp\cchvSIah.s 			page 12


 488:.\Generated_Source\PSoC4/CyLFClk.c ****     *  take up to 3 LFCLK cycles for the WDT status register to contain actual data
 489:.\Generated_Source\PSoC4/CyLFClk.c ****     *  after the WDT counter is enabled.
 490:.\Generated_Source\PSoC4/CyLFClk.c ****     *
 491:.\Generated_Source\PSoC4/CyLFClk.c ****     *
 492:.\Generated_Source\PSoC4/CyLFClk.c ****     *******************************************************************************/
 493:.\Generated_Source\PSoC4/CyLFClk.c ****     uint32 CySysWdtGetEnabledStatus(uint32 counterNum)
 494:.\Generated_Source\PSoC4/CyLFClk.c ****     {
 139              		.loc 1 494 0
 140              		.cfi_startproc
 141              	.LVL4:
 495:.\Generated_Source\PSoC4/CyLFClk.c ****         CYASSERT(counterNum < CY_SYS_WDT_COUNTERS_MAX);
 496:.\Generated_Source\PSoC4/CyLFClk.c ****         return ((CY_SYS_WDT_CONTROL_REG >> ((CY_SYS_WDT_CNT_SHIFT * counterNum) + CY_SYS_WDT_CNT_ST
 142              		.loc 1 496 0
 143 0000 044B     		ldr	r3, .L11
 144 0002 C000     		lsl	r0, r0, #3
 145              	.LVL5:
 146 0004 1B68     		ldr	r3, [r3]
 147 0006 0130     		add	r0, r0, #1
 148 0008 C340     		lsr	r3, r3, r0
 149 000a 181C     		mov	r0, r3
 150 000c 0123     		mov	r3, #1
 151 000e 1840     		and	r0, r3
 497:.\Generated_Source\PSoC4/CyLFClk.c ****     }
 152              		.loc 1 497 0
 153              		@ sp needed
 154 0010 7047     		bx	lr
 155              	.L12:
 156 0012 C046     		.align	2
 157              	.L11:
 158 0014 10020B40 		.word	1074463248
 159              		.cfi_endproc
 160              	.LFE6:
 161              		.size	CySysWdtGetEnabledStatus, .-CySysWdtGetEnabledStatus
 162              		.section	.text.CySysWdtSetMode,"ax",%progbits
 163              		.align	1
 164              		.global	CySysWdtSetMode
 165              		.code	16
 166              		.thumb_func
 167              		.type	CySysWdtSetMode, %function
 168              	CySysWdtSetMode:
 169              	.LFB7:
 498:.\Generated_Source\PSoC4/CyLFClk.c **** 
 499:.\Generated_Source\PSoC4/CyLFClk.c **** 
 500:.\Generated_Source\PSoC4/CyLFClk.c ****     /*******************************************************************************
 501:.\Generated_Source\PSoC4/CyLFClk.c ****     * Function Name: CySysWdtSetMode
 502:.\Generated_Source\PSoC4/CyLFClk.c ****     ********************************************************************************
 503:.\Generated_Source\PSoC4/CyLFClk.c ****     *
 504:.\Generated_Source\PSoC4/CyLFClk.c ****     * Summary:
 505:.\Generated_Source\PSoC4/CyLFClk.c ****     *   Writes the mode of one of the three WDT counters.
 506:.\Generated_Source\PSoC4/CyLFClk.c ****     *
 507:.\Generated_Source\PSoC4/CyLFClk.c ****     * Parameters:
 508:.\Generated_Source\PSoC4/CyLFClk.c ****     *   counterNum: Valid range [0-2].  The number of the WDT counter.
 509:.\Generated_Source\PSoC4/CyLFClk.c ****     *   mode:       Mode of operation for the counter.
 510:.\Generated_Source\PSoC4/CyLFClk.c ****     *       Define                     Mode
 511:.\Generated_Source\PSoC4/CyLFClk.c ****     *        CY_SYS_WDT_MODE_NONE       Free running
 512:.\Generated_Source\PSoC4/CyLFClk.c ****     *        CY_SYS_WDT_MODE_INT        The interrupt generated on match for counter 0
 513:.\Generated_Source\PSoC4/CyLFClk.c ****     *                                   and 1, and on bit toggle for counter 2.
ARM GAS  C:\Users\SDEVAS~1\AppData\Local\Temp\cchvSIah.s 			page 13


 514:.\Generated_Source\PSoC4/CyLFClk.c ****     *        CY_SYS_WDT_MODE_RESET      Reset on match (valid for counter 0 and 1
 515:.\Generated_Source\PSoC4/CyLFClk.c ****     *                                   only)
 516:.\Generated_Source\PSoC4/CyLFClk.c ****     *        CY_SYS_WDT_MODE_INT_RESET  Generate an interrupt.  Generate a reset on
 517:.\Generated_Source\PSoC4/CyLFClk.c ****     *                                   the 3rd non-handled interrupt.
 518:.\Generated_Source\PSoC4/CyLFClk.c ****     *                                   (valid for counter 0 and 1 only)
 519:.\Generated_Source\PSoC4/CyLFClk.c ****     * Return:
 520:.\Generated_Source\PSoC4/CyLFClk.c ****     *   None.
 521:.\Generated_Source\PSoC4/CyLFClk.c ****     *
 522:.\Generated_Source\PSoC4/CyLFClk.c ****     * Side Effects:
 523:.\Generated_Source\PSoC4/CyLFClk.c ****     *   WDT counter counterNum should be disabled to set a mode. Otherwise, this
 524:.\Generated_Source\PSoC4/CyLFClk.c ****     *   function call has no effect. If the specified counter is enabled,
 525:.\Generated_Source\PSoC4/CyLFClk.c ****     *   call the CySysWdtDisable() function with the corresponding parameter to
 526:.\Generated_Source\PSoC4/CyLFClk.c ****     *   disable the specified counter and wait for it to stop.
 527:.\Generated_Source\PSoC4/CyLFClk.c ****     *
 528:.\Generated_Source\PSoC4/CyLFClk.c ****     *******************************************************************************/
 529:.\Generated_Source\PSoC4/CyLFClk.c ****     void CySysWdtSetMode(uint32 counterNum, uint32 mode)
 530:.\Generated_Source\PSoC4/CyLFClk.c ****     {
 170              		.loc 1 530 0
 171              		.cfi_startproc
 172              	.LVL6:
 173 0000 38B5     		push	{r3, r4, r5, lr}
 174              		.cfi_def_cfa_offset 16
 175              		.cfi_offset 3, -16
 176              		.cfi_offset 4, -12
 177              		.cfi_offset 5, -8
 178              		.cfi_offset 14, -4
 179              		.loc 1 530 0
 180 0002 041C     		mov	r4, r0
 181 0004 0D1C     		mov	r5, r1
 531:.\Generated_Source\PSoC4/CyLFClk.c ****         uint32 configRegValue;
 532:.\Generated_Source\PSoC4/CyLFClk.c **** 
 533:.\Generated_Source\PSoC4/CyLFClk.c ****         CYASSERT(counterNum < CY_SYS_WDT_COUNTERS_MAX);
 534:.\Generated_Source\PSoC4/CyLFClk.c **** 
 535:.\Generated_Source\PSoC4/CyLFClk.c ****         if(0u == CySysWdtGetEnabledStatus(counterNum))
 182              		.loc 1 535 0
 183 0006 FFF7FEFF 		bl	CySysWdtGetEnabledStatus
 184              	.LVL7:
 185 000a 0028     		cmp	r0, #0
 186 000c 0BD1     		bne	.L13
 187              	.LVL8:
 188              	.LBB4:
 189              	.LBB5:
 536:.\Generated_Source\PSoC4/CyLFClk.c ****         {
 537:.\Generated_Source\PSoC4/CyLFClk.c ****             configRegValue = CY_SYS_WDT_CONFIG_REG &
 190              		.loc 1 537 0
 191 000e 064B     		ldr	r3, .L16
 538:.\Generated_Source\PSoC4/CyLFClk.c ****                                 (uint32)~((uint32)(CY_SYS_WDT_MODE_MASK << (counterNum * CY_SYS_WDT
 192              		.loc 1 538 0
 193 0010 0322     		mov	r2, #3
 194 0012 E400     		lsl	r4, r4, #3
 195              	.LVL9:
 537:.\Generated_Source\PSoC4/CyLFClk.c ****             configRegValue = CY_SYS_WDT_CONFIG_REG &
 196              		.loc 1 537 0
 197 0014 1968     		ldr	r1, [r3]
 198              		.loc 1 538 0
 199 0016 101C     		mov	r0, r2
 200 0018 A040     		lsl	r0, r0, r4
ARM GAS  C:\Users\SDEVAS~1\AppData\Local\Temp\cchvSIah.s 			page 14


 537:.\Generated_Source\PSoC4/CyLFClk.c ****             configRegValue = CY_SYS_WDT_CONFIG_REG &
 201              		.loc 1 537 0
 202 001a 8143     		bic	r1, r0
 203              	.LVL10:
 539:.\Generated_Source\PSoC4/CyLFClk.c ****             configRegValue |= (uint32)((mode & CY_SYS_WDT_MODE_MASK) << (counterNum * CY_SYS_WDT_CN
 204              		.loc 1 539 0
 205 001c 1540     		and	r5, r2
 206              	.LVL11:
 207 001e A540     		lsl	r5, r5, r4
 208 0020 0C1C     		mov	r4, r1
 209 0022 2C43     		orr	r4, r5
 210              	.LVL12:
 540:.\Generated_Source\PSoC4/CyLFClk.c ****             CY_SYS_WDT_CONFIG_REG = configRegValue;
 211              		.loc 1 540 0
 212 0024 1C60     		str	r4, [r3]
 213              	.LVL13:
 214              	.L13:
 215              	.LBE5:
 216              	.LBE4:
 541:.\Generated_Source\PSoC4/CyLFClk.c ****         }
 542:.\Generated_Source\PSoC4/CyLFClk.c ****     }
 217              		.loc 1 542 0
 218              		@ sp needed
 219 0026 38BD     		pop	{r3, r4, r5, pc}
 220              	.L17:
 221              		.align	2
 222              	.L16:
 223 0028 0C020B40 		.word	1074463244
 224              		.cfi_endproc
 225              	.LFE7:
 226              		.size	CySysWdtSetMode, .-CySysWdtSetMode
 227              		.section	.text.CySysWdtGetMode,"ax",%progbits
 228              		.align	1
 229              		.global	CySysWdtGetMode
 230              		.code	16
 231              		.thumb_func
 232              		.type	CySysWdtGetMode, %function
 233              	CySysWdtGetMode:
 234              	.LFB8:
 543:.\Generated_Source\PSoC4/CyLFClk.c **** 
 544:.\Generated_Source\PSoC4/CyLFClk.c **** 
 545:.\Generated_Source\PSoC4/CyLFClk.c ****     /*******************************************************************************
 546:.\Generated_Source\PSoC4/CyLFClk.c ****     * Function Name: CySysWdtGetMode
 547:.\Generated_Source\PSoC4/CyLFClk.c ****     ********************************************************************************
 548:.\Generated_Source\PSoC4/CyLFClk.c ****     *
 549:.\Generated_Source\PSoC4/CyLFClk.c ****     * Summary:
 550:.\Generated_Source\PSoC4/CyLFClk.c ****     *  Reads the mode of one of the three WDT counters.
 551:.\Generated_Source\PSoC4/CyLFClk.c ****     *
 552:.\Generated_Source\PSoC4/CyLFClk.c ****     * Parameters:
 553:.\Generated_Source\PSoC4/CyLFClk.c ****     *  counterNum: Valid range [0-2].  The number of the WDT counter.
 554:.\Generated_Source\PSoC4/CyLFClk.c ****     *
 555:.\Generated_Source\PSoC4/CyLFClk.c ****     * Return:
 556:.\Generated_Source\PSoC4/CyLFClk.c ****     *  The mode of the counter.  The same enumerated values as the mode parameter used in
 557:.\Generated_Source\PSoC4/CyLFClk.c ****     *  CySysWdtSetMode().
 558:.\Generated_Source\PSoC4/CyLFClk.c ****     *
 559:.\Generated_Source\PSoC4/CyLFClk.c ****     *******************************************************************************/
 560:.\Generated_Source\PSoC4/CyLFClk.c ****     uint32 CySysWdtGetMode(uint32 counterNum)
ARM GAS  C:\Users\SDEVAS~1\AppData\Local\Temp\cchvSIah.s 			page 15


 561:.\Generated_Source\PSoC4/CyLFClk.c ****     {
 235              		.loc 1 561 0
 236              		.cfi_startproc
 237              	.LVL14:
 562:.\Generated_Source\PSoC4/CyLFClk.c ****         return ((CY_SYS_WDT_CONFIG_REG >> (counterNum * CY_SYS_WDT_CNT_SHIFT)) & CY_SYS_WDT_MODE_MA
 238              		.loc 1 562 0
 239 0000 034B     		ldr	r3, .L19
 240 0002 C000     		lsl	r0, r0, #3
 241              	.LVL15:
 242 0004 1B68     		ldr	r3, [r3]
 563:.\Generated_Source\PSoC4/CyLFClk.c ****     }
 243              		.loc 1 563 0
 244              		@ sp needed
 562:.\Generated_Source\PSoC4/CyLFClk.c ****         return ((CY_SYS_WDT_CONFIG_REG >> (counterNum * CY_SYS_WDT_CNT_SHIFT)) & CY_SYS_WDT_MODE_MA
 245              		.loc 1 562 0
 246 0006 C340     		lsr	r3, r3, r0
 247 0008 181C     		mov	r0, r3
 248 000a 0323     		mov	r3, #3
 249 000c 1840     		and	r0, r3
 250              		.loc 1 563 0
 251 000e 7047     		bx	lr
 252              	.L20:
 253              		.align	2
 254              	.L19:
 255 0010 0C020B40 		.word	1074463244
 256              		.cfi_endproc
 257              	.LFE8:
 258              		.size	CySysWdtGetMode, .-CySysWdtGetMode
 259              		.section	.text.CySysWdtSetClearOnMatch,"ax",%progbits
 260              		.align	1
 261              		.global	CySysWdtSetClearOnMatch
 262              		.code	16
 263              		.thumb_func
 264              		.type	CySysWdtSetClearOnMatch, %function
 265              	CySysWdtSetClearOnMatch:
 266              	.LFB9:
 564:.\Generated_Source\PSoC4/CyLFClk.c **** 
 565:.\Generated_Source\PSoC4/CyLFClk.c **** 
 566:.\Generated_Source\PSoC4/CyLFClk.c ****     /*******************************************************************************
 567:.\Generated_Source\PSoC4/CyLFClk.c ****     * Function Name: CySysWdtSetClearOnMatch
 568:.\Generated_Source\PSoC4/CyLFClk.c ****     ********************************************************************************
 569:.\Generated_Source\PSoC4/CyLFClk.c ****     *
 570:.\Generated_Source\PSoC4/CyLFClk.c ****     * Summary:
 571:.\Generated_Source\PSoC4/CyLFClk.c ****     *  Configures the WDT counter "clear on match" setting.  If configured to "clear
 572:.\Generated_Source\PSoC4/CyLFClk.c ****     *  on match", the counter counts from 0 to MatchValue giving it a
 573:.\Generated_Source\PSoC4/CyLFClk.c ****     *  period of (MatchValue + 1).
 574:.\Generated_Source\PSoC4/CyLFClk.c ****     *
 575:.\Generated_Source\PSoC4/CyLFClk.c ****     * Parameters:
 576:.\Generated_Source\PSoC4/CyLFClk.c ****     *  counterNum:
 577:.\Generated_Source\PSoC4/CyLFClk.c ****     *   Valid range [0-1].  The number of the WDT counter.  The match values are not
 578:.\Generated_Source\PSoC4/CyLFClk.c ****     *   supported by counter 2.
 579:.\Generated_Source\PSoC4/CyLFClk.c ****     *
 580:.\Generated_Source\PSoC4/CyLFClk.c ****     * enable:
 581:.\Generated_Source\PSoC4/CyLFClk.c ****     *   0 to disable, 1 to enable
 582:.\Generated_Source\PSoC4/CyLFClk.c ****     *
 583:.\Generated_Source\PSoC4/CyLFClk.c ****     * Return:
 584:.\Generated_Source\PSoC4/CyLFClk.c ****     *   None.
ARM GAS  C:\Users\SDEVAS~1\AppData\Local\Temp\cchvSIah.s 			page 16


 585:.\Generated_Source\PSoC4/CyLFClk.c ****     *
 586:.\Generated_Source\PSoC4/CyLFClk.c ****     * Side Effects:
 587:.\Generated_Source\PSoC4/CyLFClk.c ****     *   WDT counter counterNum should be disabled. Otherwise this function call
 588:.\Generated_Source\PSoC4/CyLFClk.c ****     *   has no effect. If the specified counter is enabled, call the CySysWdtDisable()
 589:.\Generated_Source\PSoC4/CyLFClk.c ****     *   function with the corresponding parameter to disable the specified counter and
 590:.\Generated_Source\PSoC4/CyLFClk.c ****     *   wait for it to stop. This may take up to three LFCLK cycles.
 591:.\Generated_Source\PSoC4/CyLFClk.c ****     *
 592:.\Generated_Source\PSoC4/CyLFClk.c ****     *******************************************************************************/
 593:.\Generated_Source\PSoC4/CyLFClk.c ****     void CySysWdtSetClearOnMatch(uint32 counterNum, uint32 enable)
 594:.\Generated_Source\PSoC4/CyLFClk.c ****     {
 267              		.loc 1 594 0
 268              		.cfi_startproc
 269              	.LVL16:
 270 0000 38B5     		push	{r3, r4, r5, lr}
 271              		.cfi_def_cfa_offset 16
 272              		.cfi_offset 3, -16
 273              		.cfi_offset 4, -12
 274              		.cfi_offset 5, -8
 275              		.cfi_offset 14, -4
 276              		.loc 1 594 0
 277 0002 041C     		mov	r4, r0
 278 0004 0D1C     		mov	r5, r1
 595:.\Generated_Source\PSoC4/CyLFClk.c ****         uint32 configRegValue;
 596:.\Generated_Source\PSoC4/CyLFClk.c **** 
 597:.\Generated_Source\PSoC4/CyLFClk.c ****         CYASSERT((counterNum == CY_SYS_WDT_COUNTER0) ||
 598:.\Generated_Source\PSoC4/CyLFClk.c ****                  (counterNum == CY_SYS_WDT_COUNTER1));
 599:.\Generated_Source\PSoC4/CyLFClk.c **** 
 600:.\Generated_Source\PSoC4/CyLFClk.c ****         if(0u == CySysWdtGetEnabledStatus(counterNum))
 279              		.loc 1 600 0
 280 0006 FFF7FEFF 		bl	CySysWdtGetEnabledStatus
 281              	.LVL17:
 282 000a 0028     		cmp	r0, #0
 283 000c 0AD1     		bne	.L21
 601:.\Generated_Source\PSoC4/CyLFClk.c ****         {
 602:.\Generated_Source\PSoC4/CyLFClk.c ****             configRegValue = CY_SYS_WDT_CONFIG_REG &
 284              		.loc 1 602 0
 285 000e 064B     		ldr	r3, .L23
 603:.\Generated_Source\PSoC4/CyLFClk.c ****                 (uint32)~((uint32)((uint32)1u << ((counterNum * CY_SYS_WDT_CNT_SHIFT) + CY_SYS_WDT_
 286              		.loc 1 603 0
 287 0010 E400     		lsl	r4, r4, #3
 288              	.LVL18:
 289 0012 0234     		add	r4, r4, #2
 602:.\Generated_Source\PSoC4/CyLFClk.c ****             configRegValue = CY_SYS_WDT_CONFIG_REG &
 290              		.loc 1 602 0
 291 0014 1A68     		ldr	r2, [r3]
 292              		.loc 1 603 0
 293 0016 0121     		mov	r1, #1
 294 0018 A140     		lsl	r1, r1, r4
 602:.\Generated_Source\PSoC4/CyLFClk.c ****             configRegValue = CY_SYS_WDT_CONFIG_REG &
 295              		.loc 1 602 0
 296 001a 8A43     		bic	r2, r1
 297              	.LVL19:
 604:.\Generated_Source\PSoC4/CyLFClk.c **** 
 605:.\Generated_Source\PSoC4/CyLFClk.c ****             configRegValue
 606:.\Generated_Source\PSoC4/CyLFClk.c ****                 |= (uint32)(enable << ((counterNum * CY_SYS_WDT_CNT_SHIFT) + CY_SYS_WDT_CNT_MATCH_C
 298              		.loc 1 606 0
 299 001c A540     		lsl	r5, r5, r4
ARM GAS  C:\Users\SDEVAS~1\AppData\Local\Temp\cchvSIah.s 			page 17


 300              	.LVL20:
 301 001e 141C     		mov	r4, r2
 302 0020 2C43     		orr	r4, r5
 303              	.LVL21:
 607:.\Generated_Source\PSoC4/CyLFClk.c **** 
 608:.\Generated_Source\PSoC4/CyLFClk.c ****             CY_SYS_WDT_CONFIG_REG = configRegValue;
 304              		.loc 1 608 0
 305 0022 1C60     		str	r4, [r3]
 306              	.LVL22:
 307              	.L21:
 609:.\Generated_Source\PSoC4/CyLFClk.c ****         }
 610:.\Generated_Source\PSoC4/CyLFClk.c ****     }
 308              		.loc 1 610 0
 309              		@ sp needed
 310 0024 38BD     		pop	{r3, r4, r5, pc}
 311              	.L24:
 312 0026 C046     		.align	2
 313              	.L23:
 314 0028 0C020B40 		.word	1074463244
 315              		.cfi_endproc
 316              	.LFE9:
 317              		.size	CySysWdtSetClearOnMatch, .-CySysWdtSetClearOnMatch
 318              		.section	.text.CySysWdtGetClearOnMatch,"ax",%progbits
 319              		.align	1
 320              		.global	CySysWdtGetClearOnMatch
 321              		.code	16
 322              		.thumb_func
 323              		.type	CySysWdtGetClearOnMatch, %function
 324              	CySysWdtGetClearOnMatch:
 325              	.LFB10:
 611:.\Generated_Source\PSoC4/CyLFClk.c **** 
 612:.\Generated_Source\PSoC4/CyLFClk.c **** 
 613:.\Generated_Source\PSoC4/CyLFClk.c ****     /*******************************************************************************
 614:.\Generated_Source\PSoC4/CyLFClk.c ****     * Function Name: CySysWdtGetClearOnMatch
 615:.\Generated_Source\PSoC4/CyLFClk.c ****     ********************************************************************************
 616:.\Generated_Source\PSoC4/CyLFClk.c ****     *
 617:.\Generated_Source\PSoC4/CyLFClk.c ****     * Summary:
 618:.\Generated_Source\PSoC4/CyLFClk.c ****     *  Reads the "clear on match" setting for the specified counter.
 619:.\Generated_Source\PSoC4/CyLFClk.c ****     *
 620:.\Generated_Source\PSoC4/CyLFClk.c ****     * Parameters:
 621:.\Generated_Source\PSoC4/CyLFClk.c ****     *   counterNum: Valid range [0-1].  The number of the WDT counter.  The match values are
 622:.\Generated_Source\PSoC4/CyLFClk.c ****     *               not supported by counter 2.
 623:.\Generated_Source\PSoC4/CyLFClk.c ****     *
 624:.\Generated_Source\PSoC4/CyLFClk.c ****     * Return:
 625:.\Generated_Source\PSoC4/CyLFClk.c ****     *   The "clear on match" status: 1 if enabled, 0 if disabled
 626:.\Generated_Source\PSoC4/CyLFClk.c ****     *
 627:.\Generated_Source\PSoC4/CyLFClk.c ****     *******************************************************************************/
 628:.\Generated_Source\PSoC4/CyLFClk.c ****     uint32 CySysWdtGetClearOnMatch(uint32 counterNum)
 629:.\Generated_Source\PSoC4/CyLFClk.c ****     {
 326              		.loc 1 629 0
 327              		.cfi_startproc
 328              	.LVL23:
 630:.\Generated_Source\PSoC4/CyLFClk.c ****         CYASSERT((counterNum == CY_SYS_WDT_COUNTER0) ||
 631:.\Generated_Source\PSoC4/CyLFClk.c ****                  (counterNum == CY_SYS_WDT_COUNTER1));
 632:.\Generated_Source\PSoC4/CyLFClk.c **** 
 633:.\Generated_Source\PSoC4/CyLFClk.c ****         return (uint32)((CY_SYS_WDT_CONFIG_REG >>
 329              		.loc 1 633 0
ARM GAS  C:\Users\SDEVAS~1\AppData\Local\Temp\cchvSIah.s 			page 18


 330 0000 044B     		ldr	r3, .L26
 634:.\Generated_Source\PSoC4/CyLFClk.c ****                         ((counterNum * CY_SYS_WDT_CNT_SHIFT) + CY_SYS_WDT_CNT_MATCH_CLR_SHIFT)) & 0
 331              		.loc 1 634 0
 332 0002 C000     		lsl	r0, r0, #3
 333              	.LVL24:
 633:.\Generated_Source\PSoC4/CyLFClk.c ****         return (uint32)((CY_SYS_WDT_CONFIG_REG >>
 334              		.loc 1 633 0
 335 0004 1B68     		ldr	r3, [r3]
 336              		.loc 1 634 0
 337 0006 0230     		add	r0, r0, #2
 633:.\Generated_Source\PSoC4/CyLFClk.c ****         return (uint32)((CY_SYS_WDT_CONFIG_REG >>
 338              		.loc 1 633 0
 339 0008 C340     		lsr	r3, r3, r0
 340 000a 181C     		mov	r0, r3
 341 000c 0123     		mov	r3, #1
 342 000e 1840     		and	r0, r3
 635:.\Generated_Source\PSoC4/CyLFClk.c ****     }
 343              		.loc 1 635 0
 344              		@ sp needed
 345 0010 7047     		bx	lr
 346              	.L27:
 347 0012 C046     		.align	2
 348              	.L26:
 349 0014 0C020B40 		.word	1074463244
 350              		.cfi_endproc
 351              	.LFE10:
 352              		.size	CySysWdtGetClearOnMatch, .-CySysWdtGetClearOnMatch
 353              		.section	.text.CySysWdtEnable,"ax",%progbits
 354              		.align	1
 355              		.global	CySysWdtEnable
 356              		.code	16
 357              		.thumb_func
 358              		.type	CySysWdtEnable, %function
 359              	CySysWdtEnable:
 360              	.LFB11:
 636:.\Generated_Source\PSoC4/CyLFClk.c **** 
 637:.\Generated_Source\PSoC4/CyLFClk.c **** 
 638:.\Generated_Source\PSoC4/CyLFClk.c ****     /*******************************************************************************
 639:.\Generated_Source\PSoC4/CyLFClk.c ****     * Function Name: CySysWdtEnable
 640:.\Generated_Source\PSoC4/CyLFClk.c ****     ********************************************************************************
 641:.\Generated_Source\PSoC4/CyLFClk.c ****     *
 642:.\Generated_Source\PSoC4/CyLFClk.c ****     * Summary:
 643:.\Generated_Source\PSoC4/CyLFClk.c ****     *  Enables the specified WDT counters.  All the counters specified in the mask
 644:.\Generated_Source\PSoC4/CyLFClk.c ****     *  are enabled.
 645:.\Generated_Source\PSoC4/CyLFClk.c ****     *
 646:.\Generated_Source\PSoC4/CyLFClk.c ****     * Parameters:
 647:.\Generated_Source\PSoC4/CyLFClk.c ****     *  counterMask: The mask of all counters to enable.
 648:.\Generated_Source\PSoC4/CyLFClk.c ****     *       Define                       Counter
 649:.\Generated_Source\PSoC4/CyLFClk.c ****     *      CY_SYS_WDT_COUNTER0_MASK      0
 650:.\Generated_Source\PSoC4/CyLFClk.c ****     *      CY_SYS_WDT_COUNTER1_MASK      1
 651:.\Generated_Source\PSoC4/CyLFClk.c ****     *      CY_SYS_WDT_COUNTER2_MASK      2
 652:.\Generated_Source\PSoC4/CyLFClk.c ****     *
 653:.\Generated_Source\PSoC4/CyLFClk.c ****     * Return:
 654:.\Generated_Source\PSoC4/CyLFClk.c ****     *  None
 655:.\Generated_Source\PSoC4/CyLFClk.c ****     *
 656:.\Generated_Source\PSoC4/CyLFClk.c ****     * Side Effects:
 657:.\Generated_Source\PSoC4/CyLFClk.c ****     *  Enabling or disabling WDT requires 3 LFCLK cycles to come into effect.
ARM GAS  C:\Users\SDEVAS~1\AppData\Local\Temp\cchvSIah.s 			page 19


 658:.\Generated_Source\PSoC4/CyLFClk.c ****     *  Therefore, the WDT enable state must not be changed more than once in
 659:.\Generated_Source\PSoC4/CyLFClk.c ****     *  that period.
 660:.\Generated_Source\PSoC4/CyLFClk.c ****     *
 661:.\Generated_Source\PSoC4/CyLFClk.c ****     *  After WDT is enabled, it is illegal to write WDT configuration (WDT_CONFIG)
 662:.\Generated_Source\PSoC4/CyLFClk.c ****     *  and control (WDT_CONTROL) registers. This means that all WDT functions that
 663:.\Generated_Source\PSoC4/CyLFClk.c ****     *  contain 'write' in the name (with the exception of CySysWdtSetMatch()
 664:.\Generated_Source\PSoC4/CyLFClk.c ****     *  function) are illegal to call once WDT enabled.
 665:.\Generated_Source\PSoC4/CyLFClk.c ****     *
 666:.\Generated_Source\PSoC4/CyLFClk.c ****     *  PSoC 4100 / PSoC 4200:
 667:.\Generated_Source\PSoC4/CyLFClk.c ****     *  This function enables ILO.
 668:.\Generated_Source\PSoC4/CyLFClk.c ****     *
 669:.\Generated_Source\PSoC4/CyLFClk.c ****     *  PSoC 4100-BL / PSoC 4200-BL and PSoC 4100M / PSoC 4200M:
 670:.\Generated_Source\PSoC4/CyLFClk.c ****     *  LFLCK should be configured before calling this function. The desired
 671:.\Generated_Source\PSoC4/CyLFClk.c ****     *  source should be enabled and configured to be the source for LFCLK.
 672:.\Generated_Source\PSoC4/CyLFClk.c ****     *
 673:.\Generated_Source\PSoC4/CyLFClk.c ****     *******************************************************************************/
 674:.\Generated_Source\PSoC4/CyLFClk.c ****     void CySysWdtEnable(uint32 counterMask)
 675:.\Generated_Source\PSoC4/CyLFClk.c ****     {
 361              		.loc 1 675 0
 362              		.cfi_startproc
 363              	.LVL25:
 364 0000 10B5     		push	{r4, lr}
 365              		.cfi_def_cfa_offset 8
 366              		.cfi_offset 4, -8
 367              		.cfi_offset 14, -4
 368              		.loc 1 675 0
 369 0002 041C     		mov	r4, r0
 676:.\Generated_Source\PSoC4/CyLFClk.c ****         #if (!CY_IP_WCO)
 677:.\Generated_Source\PSoC4/CyLFClk.c ****             CySysClkIloStart();
 370              		.loc 1 677 0
 371 0004 FFF7FEFF 		bl	CySysClkIloStart
 372              	.LVL26:
 678:.\Generated_Source\PSoC4/CyLFClk.c ****         #endif /* (!CY_IP_WCO) */
 679:.\Generated_Source\PSoC4/CyLFClk.c **** 
 680:.\Generated_Source\PSoC4/CyLFClk.c ****         CY_SYS_WDT_CONTROL_REG |= counterMask;
 373              		.loc 1 680 0
 374 0008 094B     		ldr	r3, .L44
 375 000a 1A68     		ldr	r2, [r3]
 376 000c 2243     		orr	r2, r4
 377 000e 1A60     		str	r2, [r3]
 681:.\Generated_Source\PSoC4/CyLFClk.c **** 
 682:.\Generated_Source\PSoC4/CyLFClk.c ****         if(0u != (counterMask & CY_SYS_WDT_COUNTER0_MASK))
 378              		.loc 1 682 0
 379 0010 E107     		lsl	r1, r4, #31
 380 0012 02D5     		bpl	.L29
 381              	.L30:
 382              	.LVL27:
 383              	.LBB12:
 384              	.LBB13:
 496:.\Generated_Source\PSoC4/CyLFClk.c ****         return ((CY_SYS_WDT_CONTROL_REG >> ((CY_SYS_WDT_CNT_SHIFT * counterNum) + CY_SYS_WDT_CNT_ST
 385              		.loc 1 496 0
 386 0014 1A68     		ldr	r2, [r3]
 387              	.LBE13:
 388              	.LBE12:
 683:.\Generated_Source\PSoC4/CyLFClk.c ****         {
 684:.\Generated_Source\PSoC4/CyLFClk.c ****             while (0u == CySysWdtGetEnabledStatus(CY_SYS_WDT_COUNTER0))
 389              		.loc 1 684 0
ARM GAS  C:\Users\SDEVAS~1\AppData\Local\Temp\cchvSIah.s 			page 20


 390 0016 9107     		lsl	r1, r2, #30
 391 0018 FCD5     		bpl	.L30
 392              	.LVL28:
 393              	.L29:
 685:.\Generated_Source\PSoC4/CyLFClk.c ****             {
 686:.\Generated_Source\PSoC4/CyLFClk.c ****                 /* Wait for changes to come into effect */
 687:.\Generated_Source\PSoC4/CyLFClk.c ****             }
 688:.\Generated_Source\PSoC4/CyLFClk.c ****         }
 689:.\Generated_Source\PSoC4/CyLFClk.c **** 
 690:.\Generated_Source\PSoC4/CyLFClk.c ****         if(0u != (counterMask & CY_SYS_WDT_COUNTER1_MASK))
 394              		.loc 1 690 0
 395 001a E205     		lsl	r2, r4, #23
 396 001c 02D5     		bpl	.L31
 397              	.L32:
 398              	.LVL29:
 399              	.LBB14:
 400              	.LBB15:
 496:.\Generated_Source\PSoC4/CyLFClk.c ****         return ((CY_SYS_WDT_CONTROL_REG >> ((CY_SYS_WDT_CNT_SHIFT * counterNum) + CY_SYS_WDT_CNT_ST
 401              		.loc 1 496 0
 402 001e 1A68     		ldr	r2, [r3]
 403              	.LBE15:
 404              	.LBE14:
 691:.\Generated_Source\PSoC4/CyLFClk.c ****         {
 692:.\Generated_Source\PSoC4/CyLFClk.c ****             while (0u == CySysWdtGetEnabledStatus(CY_SYS_WDT_COUNTER1))
 405              		.loc 1 692 0
 406 0020 9105     		lsl	r1, r2, #22
 407 0022 FCD5     		bpl	.L32
 408              	.LVL30:
 409              	.L31:
 693:.\Generated_Source\PSoC4/CyLFClk.c ****             {
 694:.\Generated_Source\PSoC4/CyLFClk.c ****                 /* Wait for changes to come into effect */
 695:.\Generated_Source\PSoC4/CyLFClk.c ****             }
 696:.\Generated_Source\PSoC4/CyLFClk.c ****         }
 697:.\Generated_Source\PSoC4/CyLFClk.c **** 
 698:.\Generated_Source\PSoC4/CyLFClk.c ****         if(0u != (counterMask & CY_SYS_WDT_COUNTER2_MASK))
 410              		.loc 1 698 0
 411 0024 E203     		lsl	r2, r4, #15
 412 0026 02D5     		bpl	.L28
 413              	.L34:
 414              	.LVL31:
 415              	.LBB16:
 416              	.LBB17:
 496:.\Generated_Source\PSoC4/CyLFClk.c ****         return ((CY_SYS_WDT_CONTROL_REG >> ((CY_SYS_WDT_CNT_SHIFT * counterNum) + CY_SYS_WDT_CNT_ST
 417              		.loc 1 496 0
 418 0028 1A68     		ldr	r2, [r3]
 419              	.LBE17:
 420              	.LBE16:
 699:.\Generated_Source\PSoC4/CyLFClk.c ****         {
 700:.\Generated_Source\PSoC4/CyLFClk.c ****             while (0u == CySysWdtGetEnabledStatus(CY_SYS_WDT_COUNTER2))
 421              		.loc 1 700 0
 422 002a 9103     		lsl	r1, r2, #14
 423 002c FCD5     		bpl	.L34
 424              	.LVL32:
 425              	.L28:
 701:.\Generated_Source\PSoC4/CyLFClk.c ****             {
 702:.\Generated_Source\PSoC4/CyLFClk.c ****                 /* Wait for changes to come into effect */
 703:.\Generated_Source\PSoC4/CyLFClk.c ****             }
ARM GAS  C:\Users\SDEVAS~1\AppData\Local\Temp\cchvSIah.s 			page 21


 704:.\Generated_Source\PSoC4/CyLFClk.c ****         }
 705:.\Generated_Source\PSoC4/CyLFClk.c ****     }
 426              		.loc 1 705 0
 427              		@ sp needed
 428              	.LVL33:
 429 002e 10BD     		pop	{r4, pc}
 430              	.L45:
 431              		.align	2
 432              	.L44:
 433 0030 10020B40 		.word	1074463248
 434              		.cfi_endproc
 435              	.LFE11:
 436              		.size	CySysWdtEnable, .-CySysWdtEnable
 437              		.section	.text.CySysWdtDisable,"ax",%progbits
 438              		.align	1
 439              		.global	CySysWdtDisable
 440              		.code	16
 441              		.thumb_func
 442              		.type	CySysWdtDisable, %function
 443              	CySysWdtDisable:
 444              	.LFB12:
 706:.\Generated_Source\PSoC4/CyLFClk.c **** 
 707:.\Generated_Source\PSoC4/CyLFClk.c **** 
 708:.\Generated_Source\PSoC4/CyLFClk.c ****     /*******************************************************************************
 709:.\Generated_Source\PSoC4/CyLFClk.c ****     * Function Name: CySysWdtDisable
 710:.\Generated_Source\PSoC4/CyLFClk.c ****     ********************************************************************************
 711:.\Generated_Source\PSoC4/CyLFClk.c ****     *
 712:.\Generated_Source\PSoC4/CyLFClk.c ****     * Summary:
 713:.\Generated_Source\PSoC4/CyLFClk.c ****     *  Disables the specified WDT counters. All the counters specified in the mask
 714:.\Generated_Source\PSoC4/CyLFClk.c ****     *  are disabled. The function waits for the changes to come into effect.
 715:.\Generated_Source\PSoC4/CyLFClk.c ****     *
 716:.\Generated_Source\PSoC4/CyLFClk.c ****     * Parameters:
 717:.\Generated_Source\PSoC4/CyLFClk.c ****     *  uint32 counterMask: The mask of all counters to disable
 718:.\Generated_Source\PSoC4/CyLFClk.c ****     *    Define                       Counter
 719:.\Generated_Source\PSoC4/CyLFClk.c ****     *   CY_SYS_WDT_COUNTER0_MASK      0
 720:.\Generated_Source\PSoC4/CyLFClk.c ****     *   CY_SYS_WDT_COUNTER1_MASK      1
 721:.\Generated_Source\PSoC4/CyLFClk.c ****     *   CY_SYS_WDT_COUNTER2_MASK      2
 722:.\Generated_Source\PSoC4/CyLFClk.c ****     *
 723:.\Generated_Source\PSoC4/CyLFClk.c ****     * Return:
 724:.\Generated_Source\PSoC4/CyLFClk.c ****     *   None.
 725:.\Generated_Source\PSoC4/CyLFClk.c ****     *
 726:.\Generated_Source\PSoC4/CyLFClk.c ****     *******************************************************************************/
 727:.\Generated_Source\PSoC4/CyLFClk.c ****     void CySysWdtDisable(uint32 counterMask)
 728:.\Generated_Source\PSoC4/CyLFClk.c ****     {
 445              		.loc 1 728 0
 446              		.cfi_startproc
 447              	.LVL34:
 448              	.LBB26:
 449              	.LBB27:
 437:.\Generated_Source\PSoC4/CyLFClk.c ****         return ((0u != (CY_SYS_CLK_SELECT_REG & (uint32)(CY_SYS_WDT_CLK_LOCK_BITS_MASK))) ? (uint32
 450              		.loc 1 437 0
 451 0000 0C4B     		ldr	r3, .L70
 452 0002 1A68     		ldr	r2, [r3]
 453 0004 C023     		mov	r3, #192
 454 0006 1B02     		lsl	r3, r3, #8
 455 0008 1A42     		tst	r2, r3
 456 000a 12D1     		bne	.L46
ARM GAS  C:\Users\SDEVAS~1\AppData\Local\Temp\cchvSIah.s 			page 22


 457              	.LBE27:
 458              	.LBE26:
 729:.\Generated_Source\PSoC4/CyLFClk.c ****         if (0uL == CySysWdtLocked())
 730:.\Generated_Source\PSoC4/CyLFClk.c ****         {
 731:.\Generated_Source\PSoC4/CyLFClk.c ****             CY_SYS_WDT_CONTROL_REG &= ~counterMask;
 459              		.loc 1 731 0
 460 000c 0A4B     		ldr	r3, .L70+4
 461 000e 1A68     		ldr	r2, [r3]
 462 0010 8243     		bic	r2, r0
 463 0012 1A60     		str	r2, [r3]
 732:.\Generated_Source\PSoC4/CyLFClk.c **** 
 733:.\Generated_Source\PSoC4/CyLFClk.c ****             if(0u != (counterMask & CY_SYS_WDT_COUNTER0_MASK))
 464              		.loc 1 733 0
 465 0014 C207     		lsl	r2, r0, #31
 466 0016 02D5     		bpl	.L48
 467              	.L49:
 468              	.LVL35:
 469              	.LBB28:
 470              	.LBB29:
 496:.\Generated_Source\PSoC4/CyLFClk.c ****         return ((CY_SYS_WDT_CONTROL_REG >> ((CY_SYS_WDT_CNT_SHIFT * counterNum) + CY_SYS_WDT_CNT_ST
 471              		.loc 1 496 0
 472 0018 1A68     		ldr	r2, [r3]
 473              	.LBE29:
 474              	.LBE28:
 734:.\Generated_Source\PSoC4/CyLFClk.c ****             {
 735:.\Generated_Source\PSoC4/CyLFClk.c ****                 while (0u != CySysWdtGetEnabledStatus(CY_SYS_WDT_COUNTER0))
 475              		.loc 1 735 0
 476 001a 9107     		lsl	r1, r2, #30
 477 001c FCD4     		bmi	.L49
 478              	.LVL36:
 479              	.L48:
 736:.\Generated_Source\PSoC4/CyLFClk.c ****                 {
 737:.\Generated_Source\PSoC4/CyLFClk.c ****                     /* Wait for changes to come into effect */
 738:.\Generated_Source\PSoC4/CyLFClk.c ****                 }
 739:.\Generated_Source\PSoC4/CyLFClk.c ****             }
 740:.\Generated_Source\PSoC4/CyLFClk.c **** 
 741:.\Generated_Source\PSoC4/CyLFClk.c ****             if(0u != (counterMask & CY_SYS_WDT_COUNTER1_MASK))
 480              		.loc 1 741 0
 481 001e C205     		lsl	r2, r0, #23
 482 0020 02D5     		bpl	.L50
 483              	.L51:
 484              	.LVL37:
 485              	.LBB30:
 486              	.LBB31:
 496:.\Generated_Source\PSoC4/CyLFClk.c ****         return ((CY_SYS_WDT_CONTROL_REG >> ((CY_SYS_WDT_CNT_SHIFT * counterNum) + CY_SYS_WDT_CNT_ST
 487              		.loc 1 496 0
 488 0022 1A68     		ldr	r2, [r3]
 489              	.LBE31:
 490              	.LBE30:
 742:.\Generated_Source\PSoC4/CyLFClk.c ****             {
 743:.\Generated_Source\PSoC4/CyLFClk.c ****                 while (0u != CySysWdtGetEnabledStatus(CY_SYS_WDT_COUNTER1))
 491              		.loc 1 743 0
 492 0024 9105     		lsl	r1, r2, #22
 493 0026 FCD4     		bmi	.L51
 494              	.LVL38:
 495              	.L50:
 744:.\Generated_Source\PSoC4/CyLFClk.c ****                 {
ARM GAS  C:\Users\SDEVAS~1\AppData\Local\Temp\cchvSIah.s 			page 23


 745:.\Generated_Source\PSoC4/CyLFClk.c ****                     /* Wait for changes to come into effect */
 746:.\Generated_Source\PSoC4/CyLFClk.c ****                 }
 747:.\Generated_Source\PSoC4/CyLFClk.c ****             }
 748:.\Generated_Source\PSoC4/CyLFClk.c **** 
 749:.\Generated_Source\PSoC4/CyLFClk.c ****             if(0u != (counterMask & CY_SYS_WDT_COUNTER2_MASK))
 496              		.loc 1 749 0
 497 0028 C203     		lsl	r2, r0, #15
 498 002a 02D5     		bpl	.L46
 499              	.L53:
 500              	.LVL39:
 501              	.LBB32:
 502              	.LBB33:
 496:.\Generated_Source\PSoC4/CyLFClk.c ****         return ((CY_SYS_WDT_CONTROL_REG >> ((CY_SYS_WDT_CNT_SHIFT * counterNum) + CY_SYS_WDT_CNT_ST
 503              		.loc 1 496 0
 504 002c 1A68     		ldr	r2, [r3]
 505              	.LBE33:
 506              	.LBE32:
 750:.\Generated_Source\PSoC4/CyLFClk.c ****             {
 751:.\Generated_Source\PSoC4/CyLFClk.c ****                 while (0u != CySysWdtGetEnabledStatus(CY_SYS_WDT_COUNTER2))
 507              		.loc 1 751 0
 508 002e 9103     		lsl	r1, r2, #14
 509 0030 FCD4     		bmi	.L53
 510              	.LVL40:
 511              	.L46:
 752:.\Generated_Source\PSoC4/CyLFClk.c ****                 {
 753:.\Generated_Source\PSoC4/CyLFClk.c ****                     /* Wait for changes to come into effect */
 754:.\Generated_Source\PSoC4/CyLFClk.c ****                 }
 755:.\Generated_Source\PSoC4/CyLFClk.c ****             }
 756:.\Generated_Source\PSoC4/CyLFClk.c ****         }
 757:.\Generated_Source\PSoC4/CyLFClk.c ****     }
 512              		.loc 1 757 0
 513              		@ sp needed
 514 0032 7047     		bx	lr
 515              	.L71:
 516              		.align	2
 517              	.L70:
 518 0034 00010B40 		.word	1074462976
 519 0038 10020B40 		.word	1074463248
 520              		.cfi_endproc
 521              	.LFE12:
 522              		.size	CySysWdtDisable, .-CySysWdtDisable
 523              		.section	.text.CySysWdtSetCascade,"ax",%progbits
 524              		.align	1
 525              		.global	CySysWdtSetCascade
 526              		.code	16
 527              		.thumb_func
 528              		.type	CySysWdtSetCascade, %function
 529              	CySysWdtSetCascade:
 530              	.LFB13:
 758:.\Generated_Source\PSoC4/CyLFClk.c **** 
 759:.\Generated_Source\PSoC4/CyLFClk.c **** 
 760:.\Generated_Source\PSoC4/CyLFClk.c ****     /*******************************************************************************
 761:.\Generated_Source\PSoC4/CyLFClk.c ****     * Function Name: CySysWdtSetCascade
 762:.\Generated_Source\PSoC4/CyLFClk.c ****     ********************************************************************************
 763:.\Generated_Source\PSoC4/CyLFClk.c ****     *
 764:.\Generated_Source\PSoC4/CyLFClk.c ****     * Summary:
 765:.\Generated_Source\PSoC4/CyLFClk.c ****     *   Writes the two WDT cascade values based on the combination of mask values
ARM GAS  C:\Users\SDEVAS~1\AppData\Local\Temp\cchvSIah.s 			page 24


 766:.\Generated_Source\PSoC4/CyLFClk.c ****     *   specified.
 767:.\Generated_Source\PSoC4/CyLFClk.c ****     *
 768:.\Generated_Source\PSoC4/CyLFClk.c ****     * Parameters:
 769:.\Generated_Source\PSoC4/CyLFClk.c ****     *   cascadeMask: The mask value used to set or clear the cascade values.
 770:.\Generated_Source\PSoC4/CyLFClk.c ****     *   Define                     Cascade
 771:.\Generated_Source\PSoC4/CyLFClk.c ****     *   CY_SYS_WDT_CASCADE_NONE    Neither
 772:.\Generated_Source\PSoC4/CyLFClk.c ****     *   CY_SYS_WDT_CASCADE_01      Cascade 01
 773:.\Generated_Source\PSoC4/CyLFClk.c ****     *   CY_SYS_WDT_CASCADE_12      Cascade 12
 774:.\Generated_Source\PSoC4/CyLFClk.c ****     *
 775:.\Generated_Source\PSoC4/CyLFClk.c ****     *   To set both cascade modes, two defines should be ORed:
 776:.\Generated_Source\PSoC4/CyLFClk.c ****     *   (CY_SYS_WDT_CASCADE_01 | CY_SYS_WDT_CASCADE_12)
 777:.\Generated_Source\PSoC4/CyLFClk.c ****     *
 778:.\Generated_Source\PSoC4/CyLFClk.c ****     * Return:
 779:.\Generated_Source\PSoC4/CyLFClk.c ****     *   None.
 780:.\Generated_Source\PSoC4/CyLFClk.c ****     *
 781:.\Generated_Source\PSoC4/CyLFClk.c ****     * Side effects:
 782:.\Generated_Source\PSoC4/CyLFClk.c ****     *   If only one cascade mask is specified, the second cascade is disabled.
 783:.\Generated_Source\PSoC4/CyLFClk.c ****     *   To set both cascade modes, two defines should be ORed:
 784:.\Generated_Source\PSoC4/CyLFClk.c ****     *    (CY_SYS_WDT_CASCADE_01 | CY_SYS_WDT_CASCADE_12).
 785:.\Generated_Source\PSoC4/CyLFClk.c ****     *
 786:.\Generated_Source\PSoC4/CyLFClk.c ****     *   WDT counters that are part of the specified cascade should be disabled.
 787:.\Generated_Source\PSoC4/CyLFClk.c ****     *   Otherwise this function call has no effect. If the specified
 788:.\Generated_Source\PSoC4/CyLFClk.c ****     *   counter is enabled, call CySysWdtDisable() function with the corresponding
 789:.\Generated_Source\PSoC4/CyLFClk.c ****     *   parameter to disable the specified counter and wait for it to stop. This may
 790:.\Generated_Source\PSoC4/CyLFClk.c ****     *   take up to 3 LFCLK cycles.
 791:.\Generated_Source\PSoC4/CyLFClk.c ****     *
 792:.\Generated_Source\PSoC4/CyLFClk.c ****     *******************************************************************************/
 793:.\Generated_Source\PSoC4/CyLFClk.c ****     void CySysWdtSetCascade(uint32 cascadeMask)
 794:.\Generated_Source\PSoC4/CyLFClk.c ****     {
 531              		.loc 1 794 0
 532              		.cfi_startproc
 533              	.LVL41:
 534              	.LBB40:
 535              	.LBB41:
 496:.\Generated_Source\PSoC4/CyLFClk.c ****         return ((CY_SYS_WDT_CONTROL_REG >> ((CY_SYS_WDT_CNT_SHIFT * counterNum) + CY_SYS_WDT_CNT_ST
 536              		.loc 1 496 0
 537 0000 094B     		ldr	r3, .L74
 538              	.LBE41:
 539              	.LBE40:
 540              		.loc 1 794 0
 541 0002 10B5     		push	{r4, lr}
 542              		.cfi_def_cfa_offset 8
 543              		.cfi_offset 4, -8
 544              		.cfi_offset 14, -4
 545              	.LBB44:
 546              	.LBB42:
 496:.\Generated_Source\PSoC4/CyLFClk.c ****         return ((CY_SYS_WDT_CONTROL_REG >> ((CY_SYS_WDT_CNT_SHIFT * counterNum) + CY_SYS_WDT_CNT_ST
 547              		.loc 1 496 0
 548 0004 1C68     		ldr	r4, [r3]
 549              	.LVL42:
 550              	.LBE42:
 551              	.LBE44:
 552              	.LBB45:
 553              	.LBB46:
 554 0006 1968     		ldr	r1, [r3]
 555              	.LVL43:
 556              	.LBE46:
ARM GAS  C:\Users\SDEVAS~1\AppData\Local\Temp\cchvSIah.s 			page 25


 557              	.LBE45:
 558              	.LBB48:
 559              	.LBB49:
 560 0008 1A68     		ldr	r2, [r3]
 561              	.LVL44:
 562              	.LBE49:
 563              	.LBE48:
 564              	.LBB51:
 565              	.LBB47:
 566 000a 490A     		lsr	r1, r1, #9
 567              	.LVL45:
 568              	.LBE47:
 569              	.LBE51:
 570              	.LBB52:
 571              	.LBB43:
 572 000c 6308     		lsr	r3, r4, #1
 573              	.LBE43:
 574              	.LBE52:
 795:.\Generated_Source\PSoC4/CyLFClk.c ****         uint32 configRegValue;
 796:.\Generated_Source\PSoC4/CyLFClk.c ****         uint32 countersEnableStatus;
 797:.\Generated_Source\PSoC4/CyLFClk.c **** 
 798:.\Generated_Source\PSoC4/CyLFClk.c ****         countersEnableStatus = CySysWdtGetEnabledStatus(CY_SYS_WDT_COUNTER0) |
 575              		.loc 1 798 0
 576 000e 0B43     		orr	r3, r1
 577              	.LBB53:
 578              	.LBB50:
 496:.\Generated_Source\PSoC4/CyLFClk.c ****         return ((CY_SYS_WDT_CONTROL_REG >> ((CY_SYS_WDT_CNT_SHIFT * counterNum) + CY_SYS_WDT_CNT_ST
 579              		.loc 1 496 0
 580 0010 520C     		lsr	r2, r2, #17
 581              	.LBE50:
 582              	.LBE53:
 583              		.loc 1 798 0
 584 0012 1343     		orr	r3, r2
 799:.\Generated_Source\PSoC4/CyLFClk.c ****                             CySysWdtGetEnabledStatus(CY_SYS_WDT_COUNTER1) |
 800:.\Generated_Source\PSoC4/CyLFClk.c ****                             CySysWdtGetEnabledStatus(CY_SYS_WDT_COUNTER2);
 801:.\Generated_Source\PSoC4/CyLFClk.c **** 
 802:.\Generated_Source\PSoC4/CyLFClk.c ****         if (0u == countersEnableStatus)
 585              		.loc 1 802 0
 586 0014 DA07     		lsl	r2, r3, #31
 587 0016 05D4     		bmi	.L72
 803:.\Generated_Source\PSoC4/CyLFClk.c ****         {
 804:.\Generated_Source\PSoC4/CyLFClk.c ****             configRegValue = CY_SYS_WDT_CONFIG_REG;
 588              		.loc 1 804 0
 589 0018 044B     		ldr	r3, .L74+4
 805:.\Generated_Source\PSoC4/CyLFClk.c ****             configRegValue &= ((uint32)(~(CY_SYS_WDT_CASCADE_01|CY_SYS_WDT_CASCADE_12)));
 590              		.loc 1 805 0
 591 001a 054A     		ldr	r2, .L74+8
 804:.\Generated_Source\PSoC4/CyLFClk.c ****             configRegValue = CY_SYS_WDT_CONFIG_REG;
 592              		.loc 1 804 0
 593 001c 1968     		ldr	r1, [r3]
 594              	.LVL46:
 595              		.loc 1 805 0
 596 001e 0A40     		and	r2, r1
 597              	.LVL47:
 806:.\Generated_Source\PSoC4/CyLFClk.c ****             configRegValue |= cascadeMask;
 598              		.loc 1 806 0
 599 0020 1043     		orr	r0, r2
ARM GAS  C:\Users\SDEVAS~1\AppData\Local\Temp\cchvSIah.s 			page 26


 600              	.LVL48:
 807:.\Generated_Source\PSoC4/CyLFClk.c ****             CY_SYS_WDT_CONFIG_REG = configRegValue;
 601              		.loc 1 807 0
 602 0022 1860     		str	r0, [r3]
 603              	.LVL49:
 604              	.L72:
 808:.\Generated_Source\PSoC4/CyLFClk.c ****         }
 809:.\Generated_Source\PSoC4/CyLFClk.c ****     }
 605              		.loc 1 809 0
 606              		@ sp needed
 607 0024 10BD     		pop	{r4, pc}
 608              	.L75:
 609 0026 C046     		.align	2
 610              	.L74:
 611 0028 10020B40 		.word	1074463248
 612 002c 0C020B40 		.word	1074463244
 613 0030 F7F7FFFF 		.word	-2057
 614              		.cfi_endproc
 615              	.LFE13:
 616              		.size	CySysWdtSetCascade, .-CySysWdtSetCascade
 617              		.section	.text.CySysWdtGetCascade,"ax",%progbits
 618              		.align	1
 619              		.global	CySysWdtGetCascade
 620              		.code	16
 621              		.thumb_func
 622              		.type	CySysWdtGetCascade, %function
 623              	CySysWdtGetCascade:
 624              	.LFB14:
 810:.\Generated_Source\PSoC4/CyLFClk.c **** 
 811:.\Generated_Source\PSoC4/CyLFClk.c **** 
 812:.\Generated_Source\PSoC4/CyLFClk.c ****     /*******************************************************************************
 813:.\Generated_Source\PSoC4/CyLFClk.c ****     * Function Name: CySysWdtGetCascade
 814:.\Generated_Source\PSoC4/CyLFClk.c ****     ********************************************************************************
 815:.\Generated_Source\PSoC4/CyLFClk.c ****     *
 816:.\Generated_Source\PSoC4/CyLFClk.c ****     * Summary:
 817:.\Generated_Source\PSoC4/CyLFClk.c ****     *   Reads the two WDT cascade values returning a mask of the bits set.
 818:.\Generated_Source\PSoC4/CyLFClk.c ****     *
 819:.\Generated_Source\PSoC4/CyLFClk.c ****     * Parameters:
 820:.\Generated_Source\PSoC4/CyLFClk.c ****     *   None.
 821:.\Generated_Source\PSoC4/CyLFClk.c ****     *
 822:.\Generated_Source\PSoC4/CyLFClk.c ****     * Return:
 823:.\Generated_Source\PSoC4/CyLFClk.c ****     *   The mask of the cascade values set.
 824:.\Generated_Source\PSoC4/CyLFClk.c ****     *   Define                     Cascade
 825:.\Generated_Source\PSoC4/CyLFClk.c ****     *   CY_SYS_WDT_CASCADE_NONE    Neither
 826:.\Generated_Source\PSoC4/CyLFClk.c ****     *   CY_SYS_WDT_CASCADE_01      Cascade 01
 827:.\Generated_Source\PSoC4/CyLFClk.c ****     *   CY_SYS_WDT_CASCADE_12      Cascade 12
 828:.\Generated_Source\PSoC4/CyLFClk.c ****     *
 829:.\Generated_Source\PSoC4/CyLFClk.c ****     *******************************************************************************/
 830:.\Generated_Source\PSoC4/CyLFClk.c ****     uint32 CySysWdtGetCascade(void)
 831:.\Generated_Source\PSoC4/CyLFClk.c ****     {
 625              		.loc 1 831 0
 626              		.cfi_startproc
 832:.\Generated_Source\PSoC4/CyLFClk.c ****         return (CY_SYS_WDT_CONFIG_REG & (CY_SYS_WDT_CASCADE_01 | CY_SYS_WDT_CASCADE_12));
 627              		.loc 1 832 0
 628 0000 024B     		ldr	r3, .L77
 833:.\Generated_Source\PSoC4/CyLFClk.c ****     }
 629              		.loc 1 833 0
ARM GAS  C:\Users\SDEVAS~1\AppData\Local\Temp\cchvSIah.s 			page 27


 630              		@ sp needed
 832:.\Generated_Source\PSoC4/CyLFClk.c ****         return (CY_SYS_WDT_CONFIG_REG & (CY_SYS_WDT_CASCADE_01 | CY_SYS_WDT_CASCADE_12));
 631              		.loc 1 832 0
 632 0002 1868     		ldr	r0, [r3]
 633 0004 024B     		ldr	r3, .L77+4
 634 0006 1840     		and	r0, r3
 635              		.loc 1 833 0
 636 0008 7047     		bx	lr
 637              	.L78:
 638 000a C046     		.align	2
 639              	.L77:
 640 000c 0C020B40 		.word	1074463244
 641 0010 08080000 		.word	2056
 642              		.cfi_endproc
 643              	.LFE14:
 644              		.size	CySysWdtGetCascade, .-CySysWdtGetCascade
 645              		.section	.text.CySysWdtSetMatch,"ax",%progbits
 646              		.align	1
 647              		.global	CySysWdtSetMatch
 648              		.code	16
 649              		.thumb_func
 650              		.type	CySysWdtSetMatch, %function
 651              	CySysWdtSetMatch:
 652              	.LFB15:
 834:.\Generated_Source\PSoC4/CyLFClk.c **** 
 835:.\Generated_Source\PSoC4/CyLFClk.c **** 
 836:.\Generated_Source\PSoC4/CyLFClk.c ****     /*******************************************************************************
 837:.\Generated_Source\PSoC4/CyLFClk.c ****     * Function Name: CySysWdtSetMatch
 838:.\Generated_Source\PSoC4/CyLFClk.c ****     ********************************************************************************
 839:.\Generated_Source\PSoC4/CyLFClk.c ****     *
 840:.\Generated_Source\PSoC4/CyLFClk.c ****     * Summary:
 841:.\Generated_Source\PSoC4/CyLFClk.c ****     *  Configures the WDT counter match comparison value.
 842:.\Generated_Source\PSoC4/CyLFClk.c ****     *
 843:.\Generated_Source\PSoC4/CyLFClk.c ****     * Parameters:
 844:.\Generated_Source\PSoC4/CyLFClk.c ****     *  counterNum:
 845:.\Generated_Source\PSoC4/CyLFClk.c ****     *   Valid range [0-1]. The number of the WDT counter. The match values are not
 846:.\Generated_Source\PSoC4/CyLFClk.c ****     *   supported by counter 2.
 847:.\Generated_Source\PSoC4/CyLFClk.c ****     *
 848:.\Generated_Source\PSoC4/CyLFClk.c ****     *  match:
 849:.\Generated_Source\PSoC4/CyLFClk.c ****     *   Valid range [0-65535]. The value to be used to match against the counter.
 850:.\Generated_Source\PSoC4/CyLFClk.c ****     *
 851:.\Generated_Source\PSoC4/CyLFClk.c ****     * Return:
 852:.\Generated_Source\PSoC4/CyLFClk.c ****     *   None.
 853:.\Generated_Source\PSoC4/CyLFClk.c ****     *
 854:.\Generated_Source\PSoC4/CyLFClk.c ****     *******************************************************************************/
 855:.\Generated_Source\PSoC4/CyLFClk.c ****     void CySysWdtSetMatch(uint32 counterNum, uint32 match)
 856:.\Generated_Source\PSoC4/CyLFClk.c ****     {
 653              		.loc 1 856 0
 654              		.cfi_startproc
 655              	.LVL50:
 656 0000 38B5     		push	{r3, r4, r5, lr}
 657              		.cfi_def_cfa_offset 16
 658              		.cfi_offset 3, -16
 659              		.cfi_offset 4, -12
 660              		.cfi_offset 5, -8
 661              		.cfi_offset 14, -4
 662              		.loc 1 856 0
ARM GAS  C:\Users\SDEVAS~1\AppData\Local\Temp\cchvSIah.s 			page 28


 663 0002 051C     		mov	r5, r0
 857:.\Generated_Source\PSoC4/CyLFClk.c ****         uint32 regValue;
 858:.\Generated_Source\PSoC4/CyLFClk.c **** 
 859:.\Generated_Source\PSoC4/CyLFClk.c ****         CYASSERT((counterNum == CY_SYS_WDT_COUNTER0) ||
 860:.\Generated_Source\PSoC4/CyLFClk.c ****                  (counterNum == CY_SYS_WDT_COUNTER1));
 861:.\Generated_Source\PSoC4/CyLFClk.c **** 
 862:.\Generated_Source\PSoC4/CyLFClk.c ****         /* Wait for previous changes to come into effect */
 863:.\Generated_Source\PSoC4/CyLFClk.c ****         CyDelayUs(CY_SYS_WDT_3LFCLK_DELAY_US);
 664              		.loc 1 863 0
 665 0004 C920     		mov	r0, #201
 666              	.LVL51:
 856:.\Generated_Source\PSoC4/CyLFClk.c ****     {
 667              		.loc 1 856 0
 668 0006 0C1C     		mov	r4, r1
 669              		.loc 1 863 0
 670 0008 FFF7FEFF 		bl	CyDelayUs
 671              	.LVL52:
 864:.\Generated_Source\PSoC4/CyLFClk.c **** 
 865:.\Generated_Source\PSoC4/CyLFClk.c ****         regValue = CY_SYS_WDT_MATCH_REG;
 672              		.loc 1 865 0
 673 000c 064B     		ldr	r3, .L80
 866:.\Generated_Source\PSoC4/CyLFClk.c ****         regValue &= (uint32)~((uint32)(CY_SYS_WDT_LOWER_16BITS_MASK << (counterNum * CY_SYS_WDT_CNT
 674              		.loc 1 866 0
 675 000e 0749     		ldr	r1, .L80+4
 676 0010 2801     		lsl	r0, r5, #4
 865:.\Generated_Source\PSoC4/CyLFClk.c ****         regValue = CY_SYS_WDT_MATCH_REG;
 677              		.loc 1 865 0
 678 0012 1A68     		ldr	r2, [r3]
 679              	.LVL53:
 680              		.loc 1 866 0
 681 0014 8140     		lsl	r1, r1, r0
 682 0016 8A43     		bic	r2, r1
 683              	.LVL54:
 867:.\Generated_Source\PSoC4/CyLFClk.c ****         CY_SYS_WDT_MATCH_REG = (regValue | (match << (counterNum * CY_SYS_WDT_CNT_MATCH_SHIFT)));
 684              		.loc 1 867 0
 685 0018 8440     		lsl	r4, r4, r0
 686              	.LVL55:
 687 001a 101C     		mov	r0, r2
 688 001c 2043     		orr	r0, r4
 689 001e 1860     		str	r0, [r3]
 868:.\Generated_Source\PSoC4/CyLFClk.c **** 
 869:.\Generated_Source\PSoC4/CyLFClk.c ****         /* Make sure match synchronization has started */
 870:.\Generated_Source\PSoC4/CyLFClk.c ****         CyDelayUs(CY_SYS_WDT_1LFCLK_DELAY_US);
 690              		.loc 1 870 0
 691 0020 4320     		mov	r0, #67
 692 0022 FFF7FEFF 		bl	CyDelayUs
 693              	.LVL56:
 871:.\Generated_Source\PSoC4/CyLFClk.c ****     }
 694              		.loc 1 871 0
 695              		@ sp needed
 696              	.LVL57:
 697 0026 38BD     		pop	{r3, r4, r5, pc}
 698              	.L81:
 699              		.align	2
 700              	.L80:
 701 0028 08020B40 		.word	1074463240
 702 002c FFFF0000 		.word	65535
ARM GAS  C:\Users\SDEVAS~1\AppData\Local\Temp\cchvSIah.s 			page 29


 703              		.cfi_endproc
 704              	.LFE15:
 705              		.size	CySysWdtSetMatch, .-CySysWdtSetMatch
 706              		.section	.text.CySysWdtSetToggleBit,"ax",%progbits
 707              		.align	1
 708              		.global	CySysWdtSetToggleBit
 709              		.code	16
 710              		.thumb_func
 711              		.type	CySysWdtSetToggleBit, %function
 712              	CySysWdtSetToggleBit:
 713              	.LFB16:
 872:.\Generated_Source\PSoC4/CyLFClk.c **** 
 873:.\Generated_Source\PSoC4/CyLFClk.c **** 
 874:.\Generated_Source\PSoC4/CyLFClk.c ****     /*******************************************************************************
 875:.\Generated_Source\PSoC4/CyLFClk.c ****     * Function Name: CySysWdtSetToggleBit
 876:.\Generated_Source\PSoC4/CyLFClk.c ****     ********************************************************************************
 877:.\Generated_Source\PSoC4/CyLFClk.c ****     *
 878:.\Generated_Source\PSoC4/CyLFClk.c ****     * Summary:
 879:.\Generated_Source\PSoC4/CyLFClk.c ****     *  Configures which bit in WDT counter 2 to monitor for a toggle. When that
 880:.\Generated_Source\PSoC4/CyLFClk.c ****     *  bit toggles, an interrupt is generated if the mode for counter 2 has
 881:.\Generated_Source\PSoC4/CyLFClk.c ****     *  enabled interrupts.
 882:.\Generated_Source\PSoC4/CyLFClk.c ****     *
 883:.\Generated_Source\PSoC4/CyLFClk.c ****     * Parameters:
 884:.\Generated_Source\PSoC4/CyLFClk.c ****     *  bit:
 885:.\Generated_Source\PSoC4/CyLFClk.c ****     *   Valid range [0-31].  Counter 2 bit to monitor for a toggle.
 886:.\Generated_Source\PSoC4/CyLFClk.c ****     *
 887:.\Generated_Source\PSoC4/CyLFClk.c ****     * Return:
 888:.\Generated_Source\PSoC4/CyLFClk.c ****     *   None.
 889:.\Generated_Source\PSoC4/CyLFClk.c ****     *
 890:.\Generated_Source\PSoC4/CyLFClk.c ****     * Side effects:
 891:.\Generated_Source\PSoC4/CyLFClk.c ****     *   WDT Counter 2 should be disabled. Otherwise this function call has no
 892:.\Generated_Source\PSoC4/CyLFClk.c ****     *   effect.
 893:.\Generated_Source\PSoC4/CyLFClk.c ****     *
 894:.\Generated_Source\PSoC4/CyLFClk.c ****     *   If the specified counter is enabled, call the CySysWdtDisable() function with
 895:.\Generated_Source\PSoC4/CyLFClk.c ****     *   the corresponding parameter to disable the specified counter and wait for it to
 896:.\Generated_Source\PSoC4/CyLFClk.c ****     *   stop. This may take up to 3 LFCLK cycles.
 897:.\Generated_Source\PSoC4/CyLFClk.c ****     *
 898:.\Generated_Source\PSoC4/CyLFClk.c ****     *******************************************************************************/
 899:.\Generated_Source\PSoC4/CyLFClk.c ****     void CySysWdtSetToggleBit(uint32 bits)
 900:.\Generated_Source\PSoC4/CyLFClk.c ****     {
 714              		.loc 1 900 0
 715              		.cfi_startproc
 716              	.LVL58:
 717              	.LBB56:
 718              	.LBB57:
 496:.\Generated_Source\PSoC4/CyLFClk.c ****         return ((CY_SYS_WDT_CONTROL_REG >> ((CY_SYS_WDT_CNT_SHIFT * counterNum) + CY_SYS_WDT_CNT_ST
 719              		.loc 1 496 0
 720 0000 064B     		ldr	r3, .L84
 721 0002 1B68     		ldr	r3, [r3]
 722              	.LBE57:
 723              	.LBE56:
 901:.\Generated_Source\PSoC4/CyLFClk.c ****         uint32 configRegValue;
 902:.\Generated_Source\PSoC4/CyLFClk.c **** 
 903:.\Generated_Source\PSoC4/CyLFClk.c ****         if (0u == CySysWdtGetEnabledStatus(CY_SYS_WDT_COUNTER2))
 724              		.loc 1 903 0
 725 0004 9A03     		lsl	r2, r3, #14
 726 0006 08D4     		bmi	.L82
ARM GAS  C:\Users\SDEVAS~1\AppData\Local\Temp\cchvSIah.s 			page 30


 904:.\Generated_Source\PSoC4/CyLFClk.c ****         {
 905:.\Generated_Source\PSoC4/CyLFClk.c ****             configRegValue = CY_SYS_WDT_CONFIG_REG;
 727              		.loc 1 905 0
 728 0008 054B     		ldr	r3, .L84+4
 906:.\Generated_Source\PSoC4/CyLFClk.c ****             configRegValue &= (uint32)(~((uint32)(CY_SYS_WDT_CONFIG_BITS2_MASK << CY_SYS_WDT_CONFIG
 729              		.loc 1 906 0
 730 000a 064A     		ldr	r2, .L84+8
 905:.\Generated_Source\PSoC4/CyLFClk.c ****             configRegValue = CY_SYS_WDT_CONFIG_REG;
 731              		.loc 1 905 0
 732 000c 1968     		ldr	r1, [r3]
 733              	.LVL59:
 734              		.loc 1 906 0
 735 000e 0A40     		and	r2, r1
 736              	.LVL60:
 907:.\Generated_Source\PSoC4/CyLFClk.c ****             configRegValue |= ((bits & CY_SYS_WDT_CONFIG_BITS2_MASK) << CY_SYS_WDT_CONFIG_BITS2_POS
 737              		.loc 1 907 0
 738 0010 1F21     		mov	r1, #31
 739 0012 0840     		and	r0, r1
 740              	.LVL61:
 741 0014 0006     		lsl	r0, r0, #24
 742 0016 1043     		orr	r0, r2
 743              	.LVL62:
 908:.\Generated_Source\PSoC4/CyLFClk.c ****             CY_SYS_WDT_CONFIG_REG = configRegValue;
 744              		.loc 1 908 0
 745 0018 1860     		str	r0, [r3]
 746              	.LVL63:
 747              	.L82:
 909:.\Generated_Source\PSoC4/CyLFClk.c ****         }
 910:.\Generated_Source\PSoC4/CyLFClk.c ****     }
 748              		.loc 1 910 0
 749              		@ sp needed
 750 001a 7047     		bx	lr
 751              	.L85:
 752              		.align	2
 753              	.L84:
 754 001c 10020B40 		.word	1074463248
 755 0020 0C020B40 		.word	1074463244
 756 0024 FFFFFFE0 		.word	-520093697
 757              		.cfi_endproc
 758              	.LFE16:
 759              		.size	CySysWdtSetToggleBit, .-CySysWdtSetToggleBit
 760              		.section	.text.CySysWdtGetToggleBit,"ax",%progbits
 761              		.align	1
 762              		.global	CySysWdtGetToggleBit
 763              		.code	16
 764              		.thumb_func
 765              		.type	CySysWdtGetToggleBit, %function
 766              	CySysWdtGetToggleBit:
 767              	.LFB17:
 911:.\Generated_Source\PSoC4/CyLFClk.c **** 
 912:.\Generated_Source\PSoC4/CyLFClk.c **** 
 913:.\Generated_Source\PSoC4/CyLFClk.c ****     /*******************************************************************************
 914:.\Generated_Source\PSoC4/CyLFClk.c ****     * Function Name: CySysWdtGetToggleBit
 915:.\Generated_Source\PSoC4/CyLFClk.c ****     ********************************************************************************
 916:.\Generated_Source\PSoC4/CyLFClk.c ****     *
 917:.\Generated_Source\PSoC4/CyLFClk.c ****     * Summary:
 918:.\Generated_Source\PSoC4/CyLFClk.c ****     *  Reads which bit in WDT counter 2 is monitored for a toggle.
ARM GAS  C:\Users\SDEVAS~1\AppData\Local\Temp\cchvSIah.s 			page 31


 919:.\Generated_Source\PSoC4/CyLFClk.c ****     *
 920:.\Generated_Source\PSoC4/CyLFClk.c ****     * Parameters:
 921:.\Generated_Source\PSoC4/CyLFClk.c ****     *  None.
 922:.\Generated_Source\PSoC4/CyLFClk.c ****     *
 923:.\Generated_Source\PSoC4/CyLFClk.c ****     * Return:
 924:.\Generated_Source\PSoC4/CyLFClk.c ****     *  The bit that is monitored (range of 0 to 31)
 925:.\Generated_Source\PSoC4/CyLFClk.c ****     *
 926:.\Generated_Source\PSoC4/CyLFClk.c ****     *******************************************************************************/
 927:.\Generated_Source\PSoC4/CyLFClk.c ****     uint32 CySysWdtGetToggleBit(void)
 928:.\Generated_Source\PSoC4/CyLFClk.c ****     {
 768              		.loc 1 928 0
 769              		.cfi_startproc
 929:.\Generated_Source\PSoC4/CyLFClk.c ****         return ((CY_SYS_WDT_CONFIG_REG >> CY_SYS_WDT_CONFIG_BITS2_POS) & CY_SYS_WDT_CONFIG_BITS2_MA
 770              		.loc 1 929 0
 771 0000 024B     		ldr	r3, .L87
 930:.\Generated_Source\PSoC4/CyLFClk.c ****     }
 772              		.loc 1 930 0
 773              		@ sp needed
 929:.\Generated_Source\PSoC4/CyLFClk.c ****         return ((CY_SYS_WDT_CONFIG_REG >> CY_SYS_WDT_CONFIG_BITS2_POS) & CY_SYS_WDT_CONFIG_BITS2_MA
 774              		.loc 1 929 0
 775 0002 1868     		ldr	r0, [r3]
 776 0004 C000     		lsl	r0, r0, #3
 777 0006 C00E     		lsr	r0, r0, #27
 778              		.loc 1 930 0
 779 0008 7047     		bx	lr
 780              	.L88:
 781 000a C046     		.align	2
 782              	.L87:
 783 000c 0C020B40 		.word	1074463244
 784              		.cfi_endproc
 785              	.LFE17:
 786              		.size	CySysWdtGetToggleBit, .-CySysWdtGetToggleBit
 787              		.section	.text.CySysWdtGetMatch,"ax",%progbits
 788              		.align	1
 789              		.global	CySysWdtGetMatch
 790              		.code	16
 791              		.thumb_func
 792              		.type	CySysWdtGetMatch, %function
 793              	CySysWdtGetMatch:
 794              	.LFB18:
 931:.\Generated_Source\PSoC4/CyLFClk.c **** 
 932:.\Generated_Source\PSoC4/CyLFClk.c **** 
 933:.\Generated_Source\PSoC4/CyLFClk.c ****     /*******************************************************************************
 934:.\Generated_Source\PSoC4/CyLFClk.c ****     * Function Name: CySysWdtGetMatch
 935:.\Generated_Source\PSoC4/CyLFClk.c ****     ********************************************************************************
 936:.\Generated_Source\PSoC4/CyLFClk.c ****     *
 937:.\Generated_Source\PSoC4/CyLFClk.c ****     * Summary:
 938:.\Generated_Source\PSoC4/CyLFClk.c ****     *  Reads the WDT counter match comparison value.
 939:.\Generated_Source\PSoC4/CyLFClk.c ****     *
 940:.\Generated_Source\PSoC4/CyLFClk.c ****     * Parameters:
 941:.\Generated_Source\PSoC4/CyLFClk.c ****     *  counterNum: Valid range [0-1].  The number of the WDT counter.  The match values
 942:.\Generated_Source\PSoC4/CyLFClk.c ****     *               are not supported by counter 2.
 943:.\Generated_Source\PSoC4/CyLFClk.c ****     *
 944:.\Generated_Source\PSoC4/CyLFClk.c ****     * Return:
 945:.\Generated_Source\PSoC4/CyLFClk.c ****     *  A 16-bit match value.
 946:.\Generated_Source\PSoC4/CyLFClk.c ****     *
 947:.\Generated_Source\PSoC4/CyLFClk.c ****     *******************************************************************************/
ARM GAS  C:\Users\SDEVAS~1\AppData\Local\Temp\cchvSIah.s 			page 32


 948:.\Generated_Source\PSoC4/CyLFClk.c ****     uint32 CySysWdtGetMatch(uint32 counterNum)
 949:.\Generated_Source\PSoC4/CyLFClk.c ****     {
 795              		.loc 1 949 0
 796              		.cfi_startproc
 797              	.LVL64:
 950:.\Generated_Source\PSoC4/CyLFClk.c ****         CYASSERT((counterNum == CY_SYS_WDT_COUNTER0) ||
 951:.\Generated_Source\PSoC4/CyLFClk.c ****                  (counterNum == CY_SYS_WDT_COUNTER1));
 952:.\Generated_Source\PSoC4/CyLFClk.c **** 
 953:.\Generated_Source\PSoC4/CyLFClk.c ****         return ((uint32)(CY_SYS_WDT_MATCH_REG >> (counterNum * CY_SYS_WDT_CNT_MATCH_SHIFT)) & CY_SY
 798              		.loc 1 953 0
 799 0000 024B     		ldr	r3, .L90
 800 0002 0001     		lsl	r0, r0, #4
 801              	.LVL65:
 802 0004 1B68     		ldr	r3, [r3]
 954:.\Generated_Source\PSoC4/CyLFClk.c ****     }
 803              		.loc 1 954 0
 804              		@ sp needed
 953:.\Generated_Source\PSoC4/CyLFClk.c ****         return ((uint32)(CY_SYS_WDT_MATCH_REG >> (counterNum * CY_SYS_WDT_CNT_MATCH_SHIFT)) & CY_SY
 805              		.loc 1 953 0
 806 0006 C340     		lsr	r3, r3, r0
 807 0008 98B2     		uxth	r0, r3
 808              		.loc 1 954 0
 809 000a 7047     		bx	lr
 810              	.L91:
 811              		.align	2
 812              	.L90:
 813 000c 08020B40 		.word	1074463240
 814              		.cfi_endproc
 815              	.LFE18:
 816              		.size	CySysWdtGetMatch, .-CySysWdtGetMatch
 817              		.section	.text.CySysWdtGetCount,"ax",%progbits
 818              		.align	1
 819              		.global	CySysWdtGetCount
 820              		.code	16
 821              		.thumb_func
 822              		.type	CySysWdtGetCount, %function
 823              	CySysWdtGetCount:
 824              	.LFB19:
 955:.\Generated_Source\PSoC4/CyLFClk.c **** 
 956:.\Generated_Source\PSoC4/CyLFClk.c **** 
 957:.\Generated_Source\PSoC4/CyLFClk.c ****     /*******************************************************************************
 958:.\Generated_Source\PSoC4/CyLFClk.c ****     * Function Name: CySysWdtGetCount
 959:.\Generated_Source\PSoC4/CyLFClk.c ****     ********************************************************************************
 960:.\Generated_Source\PSoC4/CyLFClk.c ****     *
 961:.\Generated_Source\PSoC4/CyLFClk.c ****     * Summary:
 962:.\Generated_Source\PSoC4/CyLFClk.c ****     *  Reads the current WDT counter value.
 963:.\Generated_Source\PSoC4/CyLFClk.c ****     *
 964:.\Generated_Source\PSoC4/CyLFClk.c ****     * Parameters:
 965:.\Generated_Source\PSoC4/CyLFClk.c ****     *  counterNum: Valid range [0-2].  The number of the WDT counter.
 966:.\Generated_Source\PSoC4/CyLFClk.c ****     *
 967:.\Generated_Source\PSoC4/CyLFClk.c ****     * Return:
 968:.\Generated_Source\PSoC4/CyLFClk.c ****     *  A live counter value.  Counter 0 and 1 are 16 bit counters and counter
 969:.\Generated_Source\PSoC4/CyLFClk.c ****     *  2 is a 32 bit counter.
 970:.\Generated_Source\PSoC4/CyLFClk.c ****     *
 971:.\Generated_Source\PSoC4/CyLFClk.c ****     *******************************************************************************/
 972:.\Generated_Source\PSoC4/CyLFClk.c ****     uint32 CySysWdtGetCount(uint32 counterNum)
 973:.\Generated_Source\PSoC4/CyLFClk.c ****     {
ARM GAS  C:\Users\SDEVAS~1\AppData\Local\Temp\cchvSIah.s 			page 33


 825              		.loc 1 973 0
 826              		.cfi_startproc
 827              	.LVL66:
 974:.\Generated_Source\PSoC4/CyLFClk.c ****         uint32 regValue = 0u;
 975:.\Generated_Source\PSoC4/CyLFClk.c **** 
 976:.\Generated_Source\PSoC4/CyLFClk.c ****         switch(counterNum)
 828              		.loc 1 976 0
 829 0000 0128     		cmp	r0, #1
 830 0002 0AD0     		beq	.L94
 831 0004 0028     		cmp	r0, #0
 832 0006 04D0     		beq	.L95
 833 0008 0228     		cmp	r0, #2
 834 000a 0AD1     		bne	.L99
 977:.\Generated_Source\PSoC4/CyLFClk.c ****         {
 978:.\Generated_Source\PSoC4/CyLFClk.c ****             /* WDT Counter 0 */
 979:.\Generated_Source\PSoC4/CyLFClk.c ****             case 0u:
 980:.\Generated_Source\PSoC4/CyLFClk.c ****                 regValue = CY_SYS_WDT_CTRLOW_REG & CY_SYS_WDT_LOWER_16BITS_MASK;
 981:.\Generated_Source\PSoC4/CyLFClk.c ****             break;
 982:.\Generated_Source\PSoC4/CyLFClk.c **** 
 983:.\Generated_Source\PSoC4/CyLFClk.c ****             /* WDT Counter 1 */
 984:.\Generated_Source\PSoC4/CyLFClk.c ****             case 1u:
 985:.\Generated_Source\PSoC4/CyLFClk.c ****                 regValue = (CY_SYS_WDT_CTRLOW_REG >> CY_SYS_WDT_CNT_MATCH_SHIFT) & CY_SYS_WDT_LOWER
 986:.\Generated_Source\PSoC4/CyLFClk.c ****             break;
 987:.\Generated_Source\PSoC4/CyLFClk.c **** 
 988:.\Generated_Source\PSoC4/CyLFClk.c ****             /* WDT Counter 2 */
 989:.\Generated_Source\PSoC4/CyLFClk.c ****             case 2u:
 990:.\Generated_Source\PSoC4/CyLFClk.c ****                 regValue = CY_SYS_WDT_CTRHIGH_REG;
 835              		.loc 1 990 0
 836 000c 064B     		ldr	r3, .L100
 837 000e 1868     		ldr	r0, [r3]
 838              	.LVL67:
 991:.\Generated_Source\PSoC4/CyLFClk.c ****             break;
 839              		.loc 1 991 0
 840 0010 08E0     		b	.L93
 841              	.LVL68:
 842              	.L95:
 980:.\Generated_Source\PSoC4/CyLFClk.c ****                 regValue = CY_SYS_WDT_CTRLOW_REG & CY_SYS_WDT_LOWER_16BITS_MASK;
 843              		.loc 1 980 0
 844 0012 064B     		ldr	r3, .L100+4
 845 0014 1868     		ldr	r0, [r3]
 846              	.LVL69:
 847 0016 80B2     		uxth	r0, r0
 848              	.LVL70:
 981:.\Generated_Source\PSoC4/CyLFClk.c ****             break;
 849              		.loc 1 981 0
 850 0018 04E0     		b	.L93
 851              	.LVL71:
 852              	.L94:
 985:.\Generated_Source\PSoC4/CyLFClk.c ****                 regValue = (CY_SYS_WDT_CTRLOW_REG >> CY_SYS_WDT_CNT_MATCH_SHIFT) & CY_SYS_WDT_LOWER
 853              		.loc 1 985 0
 854 001a 044B     		ldr	r3, .L100+4
 855 001c 1868     		ldr	r0, [r3]
 856              	.LVL72:
 857 001e 000C     		lsr	r0, r0, #16
 858              	.LVL73:
 986:.\Generated_Source\PSoC4/CyLFClk.c ****             break;
 859              		.loc 1 986 0
ARM GAS  C:\Users\SDEVAS~1\AppData\Local\Temp\cchvSIah.s 			page 34


 860 0020 00E0     		b	.L93
 861              	.LVL74:
 862              	.L99:
 974:.\Generated_Source\PSoC4/CyLFClk.c ****         uint32 regValue = 0u;
 863              		.loc 1 974 0
 864 0022 0020     		mov	r0, #0
 865              	.LVL75:
 866              	.L93:
 992:.\Generated_Source\PSoC4/CyLFClk.c **** 
 993:.\Generated_Source\PSoC4/CyLFClk.c ****             default:
 994:.\Generated_Source\PSoC4/CyLFClk.c ****                 CYASSERT(0u != 0u);
 995:.\Generated_Source\PSoC4/CyLFClk.c ****             break;
 996:.\Generated_Source\PSoC4/CyLFClk.c ****         }
 997:.\Generated_Source\PSoC4/CyLFClk.c **** 
 998:.\Generated_Source\PSoC4/CyLFClk.c ****         return (regValue);
 999:.\Generated_Source\PSoC4/CyLFClk.c ****     }
 867              		.loc 1 999 0
 868              		@ sp needed
 869 0024 7047     		bx	lr
 870              	.L101:
 871 0026 C046     		.align	2
 872              	.L100:
 873 0028 04020B40 		.word	1074463236
 874 002c 00020B40 		.word	1074463232
 875              		.cfi_endproc
 876              	.LFE19:
 877              		.size	CySysWdtGetCount, .-CySysWdtGetCount
 878              		.section	.text.CySysClkIloStop,"ax",%progbits
 879              		.align	1
 880              		.global	CySysClkIloStop
 881              		.code	16
 882              		.thumb_func
 883              		.type	CySysClkIloStop, %function
 884              	CySysClkIloStop:
 885              	.LFB1:
  97:.\Generated_Source\PSoC4/CyLFClk.c **** {
 886              		.loc 1 97 0
 887              		.cfi_startproc
 888 0000 F7B5     		push	{r0, r1, r2, r4, r5, r6, r7, lr}
 889              		.cfi_def_cfa_offset 32
 890              		.cfi_offset 0, -32
 891              		.cfi_offset 1, -28
 892              		.cfi_offset 2, -24
 893              		.cfi_offset 4, -20
 894              		.cfi_offset 5, -16
 895              		.cfi_offset 6, -12
 896              		.cfi_offset 7, -8
 897              		.cfi_offset 14, -4
 898              	.LBB74:
 899              	.LBB75:
 437:.\Generated_Source\PSoC4/CyLFClk.c ****         return ((0u != (CY_SYS_CLK_SELECT_REG & (uint32)(CY_SYS_WDT_CLK_LOCK_BITS_MASK))) ? (uint32
 900              		.loc 1 437 0
 901 0002 284B     		ldr	r3, .L119
 902 0004 1A68     		ldr	r2, [r3]
 903 0006 C023     		mov	r3, #192
 904 0008 1B02     		lsl	r3, r3, #8
 905 000a 1A40     		and	r2, r3
ARM GAS  C:\Users\SDEVAS~1\AppData\Local\Temp\cchvSIah.s 			page 35


 906 000c 0092     		str	r2, [sp]
 907 000e 48D1     		bne	.L102
 908              	.LBE75:
 909              	.LBE74:
 910              	.LBB76:
 911              	.LBB77:
 151:.\Generated_Source\PSoC4/CyLFClk.c ****         return ((0u != (CY_SYS_CLK_ILO_CONFIG_REG & (uint32)(CY_SYS_CLK_ILO_CONFIG_ENABLE))) ?
 912              		.loc 1 151 0
 913 0010 254F     		ldr	r7, .L119+4
 914 0012 3B68     		ldr	r3, [r7]
 152:.\Generated_Source\PSoC4/CyLFClk.c ****             (uint32) 1u :
 915              		.loc 1 152 0
 916 0014 002B     		cmp	r3, #0
 917 0016 44DA     		bge	.L102
 918              	.LBE77:
 919              	.LBE76:
 112:.\Generated_Source\PSoC4/CyLFClk.c ****                 interruptState = CyEnterCriticalSection();
 920              		.loc 1 112 0
 921 0018 FFF7FEFF 		bl	CyEnterCriticalSection
 922              	.LVL76:
 923              	.LBB78:
 924              	.LBB79:
 925              	.LBB80:
 926              	.LBB81:
 496:.\Generated_Source\PSoC4/CyLFClk.c ****         return ((CY_SYS_WDT_CONTROL_REG >> ((CY_SYS_WDT_CNT_SHIFT * counterNum) + CY_SYS_WDT_CNT_ST
 927              		.loc 1 496 0
 928 001c 234E     		ldr	r6, .L119+8
 929              	.LBE81:
 930              	.LBE80:
 931              	.LBE79:
 932              	.LBE78:
 112:.\Generated_Source\PSoC4/CyLFClk.c ****                 interruptState = CyEnterCriticalSection();
 933              		.loc 1 112 0
 934 001e 0190     		str	r0, [sp, #4]
 935              	.LVL77:
 936              	.LBB93:
 937              	.LBB92:
 938              	.LBB83:
 939              	.LBB82:
 496:.\Generated_Source\PSoC4/CyLFClk.c ****         return ((CY_SYS_WDT_CONTROL_REG >> ((CY_SYS_WDT_CNT_SHIFT * counterNum) + CY_SYS_WDT_CNT_ST
 940              		.loc 1 496 0
 941 0020 3368     		ldr	r3, [r6]
 942 0022 0125     		mov	r5, #1
 943 0024 224C     		ldr	r4, .L119+12
 944              	.LBE82:
 945              	.LBE83:
1000:.\Generated_Source\PSoC4/CyLFClk.c **** 
1001:.\Generated_Source\PSoC4/CyLFClk.c **** 
1002:.\Generated_Source\PSoC4/CyLFClk.c ****     /*******************************************************************************
1003:.\Generated_Source\PSoC4/CyLFClk.c ****     * Function Name: CySysWdtGetInterruptSource
1004:.\Generated_Source\PSoC4/CyLFClk.c ****     ********************************************************************************
1005:.\Generated_Source\PSoC4/CyLFClk.c ****     *
1006:.\Generated_Source\PSoC4/CyLFClk.c ****     * Summary:
1007:.\Generated_Source\PSoC4/CyLFClk.c ****     *   Reads a mask containing all the WDT counters interrupts that are currently
1008:.\Generated_Source\PSoC4/CyLFClk.c ****     *   set by the hardware, if a corresponding mode is selected.
1009:.\Generated_Source\PSoC4/CyLFClk.c ****     *
1010:.\Generated_Source\PSoC4/CyLFClk.c ****     * Parameters:
ARM GAS  C:\Users\SDEVAS~1\AppData\Local\Temp\cchvSIah.s 			page 36


1011:.\Generated_Source\PSoC4/CyLFClk.c ****     *   None.
1012:.\Generated_Source\PSoC4/CyLFClk.c ****     *
1013:.\Generated_Source\PSoC4/CyLFClk.c ****     * Return:
1014:.\Generated_Source\PSoC4/CyLFClk.c ****     *   The mask of interrupts set.
1015:.\Generated_Source\PSoC4/CyLFClk.c ****     *   Define                    Counter
1016:.\Generated_Source\PSoC4/CyLFClk.c ****     *   CY_SYS_WDT_COUNTER0_INT    0
1017:.\Generated_Source\PSoC4/CyLFClk.c ****     *   CY_SYS_WDT_COUNTER1_INT    1
1018:.\Generated_Source\PSoC4/CyLFClk.c ****     *   CY_SYS_WDT_COUNTER2_INT    2
1019:.\Generated_Source\PSoC4/CyLFClk.c ****     *
1020:.\Generated_Source\PSoC4/CyLFClk.c ****     *******************************************************************************/
1021:.\Generated_Source\PSoC4/CyLFClk.c ****     uint32 CySysWdtGetInterruptSource(void)
1022:.\Generated_Source\PSoC4/CyLFClk.c ****     {
1023:.\Generated_Source\PSoC4/CyLFClk.c ****         return (CY_SYS_WDT_CONTROL_REG & (CY_SYS_WDT_COUNTER0_INT | CY_SYS_WDT_COUNTER1_INT | CY_SY
1024:.\Generated_Source\PSoC4/CyLFClk.c ****     }
1025:.\Generated_Source\PSoC4/CyLFClk.c **** 
1026:.\Generated_Source\PSoC4/CyLFClk.c **** 
1027:.\Generated_Source\PSoC4/CyLFClk.c ****     /*******************************************************************************
1028:.\Generated_Source\PSoC4/CyLFClk.c ****     * Function Name: CySysWdtClearInterrupt
1029:.\Generated_Source\PSoC4/CyLFClk.c ****     ********************************************************************************
1030:.\Generated_Source\PSoC4/CyLFClk.c ****     *
1031:.\Generated_Source\PSoC4/CyLFClk.c ****     * Summary:
1032:.\Generated_Source\PSoC4/CyLFClk.c ****     *   Clears all the WDT counter interrupts set in the mask. Calling this function
1033:.\Generated_Source\PSoC4/CyLFClk.c ****     *   also prevents from Reset when the counter mode is set to generate
1034:.\Generated_Source\PSoC4/CyLFClk.c ****     *   3 interrupts and then the device resets.
1035:.\Generated_Source\PSoC4/CyLFClk.c ****     *
1036:.\Generated_Source\PSoC4/CyLFClk.c ****     *   All the WDT interrupts are to be cleared by the firmware, otherwise
1037:.\Generated_Source\PSoC4/CyLFClk.c ****     *   interrupts are generated continuously.
1038:.\Generated_Source\PSoC4/CyLFClk.c ****     *
1039:.\Generated_Source\PSoC4/CyLFClk.c ****     * Parameters:
1040:.\Generated_Source\PSoC4/CyLFClk.c ****     *   counterMask: The mask of all the counters to enable.
1041:.\Generated_Source\PSoC4/CyLFClk.c ****     *   Define                    Counter
1042:.\Generated_Source\PSoC4/CyLFClk.c ****     *   CY_SYS_WDT_COUNTER0_INT    0
1043:.\Generated_Source\PSoC4/CyLFClk.c ****     *   CY_SYS_WDT_COUNTER1_INT    1
1044:.\Generated_Source\PSoC4/CyLFClk.c ****     *   CY_SYS_WDT_COUNTER2_INT    2
1045:.\Generated_Source\PSoC4/CyLFClk.c ****     *
1046:.\Generated_Source\PSoC4/CyLFClk.c ****     * Return:
1047:.\Generated_Source\PSoC4/CyLFClk.c ****     *   None
1048:.\Generated_Source\PSoC4/CyLFClk.c ****     *
1049:.\Generated_Source\PSoC4/CyLFClk.c ****     * Side effects:
1050:.\Generated_Source\PSoC4/CyLFClk.c ****     *   This function temporary removes the watchdog lock, if it was set, and
1051:.\Generated_Source\PSoC4/CyLFClk.c ****     *   restores the lock state after cleaning the WDT interrupts that are set in
1052:.\Generated_Source\PSoC4/CyLFClk.c ****     *   a mask.
1053:.\Generated_Source\PSoC4/CyLFClk.c ****     *
1054:.\Generated_Source\PSoC4/CyLFClk.c ****     *******************************************************************************/
1055:.\Generated_Source\PSoC4/CyLFClk.c ****     void CySysWdtClearInterrupt(uint32 counterMask)
1056:.\Generated_Source\PSoC4/CyLFClk.c ****     {
1057:.\Generated_Source\PSoC4/CyLFClk.c ****         uint8 interruptState;
1058:.\Generated_Source\PSoC4/CyLFClk.c ****         uint32 wdtLockState;
1059:.\Generated_Source\PSoC4/CyLFClk.c **** 
1060:.\Generated_Source\PSoC4/CyLFClk.c ****         interruptState = CyEnterCriticalSection();
1061:.\Generated_Source\PSoC4/CyLFClk.c **** 
1062:.\Generated_Source\PSoC4/CyLFClk.c ****         if (0u != CySysWdtLocked())
1063:.\Generated_Source\PSoC4/CyLFClk.c ****         {
1064:.\Generated_Source\PSoC4/CyLFClk.c ****             wdtLockState = 1u;
1065:.\Generated_Source\PSoC4/CyLFClk.c ****             CySysWdtUnlock();
1066:.\Generated_Source\PSoC4/CyLFClk.c ****         }
1067:.\Generated_Source\PSoC4/CyLFClk.c ****         else
ARM GAS  C:\Users\SDEVAS~1\AppData\Local\Temp\cchvSIah.s 			page 37


1068:.\Generated_Source\PSoC4/CyLFClk.c ****         {
1069:.\Generated_Source\PSoC4/CyLFClk.c ****             wdtLockState = 0u;
1070:.\Generated_Source\PSoC4/CyLFClk.c ****         }
1071:.\Generated_Source\PSoC4/CyLFClk.c **** 
1072:.\Generated_Source\PSoC4/CyLFClk.c ****         /* Set new WDT control register value */
1073:.\Generated_Source\PSoC4/CyLFClk.c ****         counterMask &= (CY_SYS_WDT_COUNTER0_INT |
1074:.\Generated_Source\PSoC4/CyLFClk.c ****                         CY_SYS_WDT_COUNTER1_INT |
1075:.\Generated_Source\PSoC4/CyLFClk.c ****                         CY_SYS_WDT_COUNTER2_INT);
1076:.\Generated_Source\PSoC4/CyLFClk.c **** 
1077:.\Generated_Source\PSoC4/CyLFClk.c ****         CY_SYS_WDT_CONTROL_REG = counterMask | (CY_SYS_WDT_CONTROL_REG & ~(CY_SYS_WDT_COUNTER0_INT 
1078:.\Generated_Source\PSoC4/CyLFClk.c ****                                                                            CY_SYS_WDT_COUNTER1_INT 
1079:.\Generated_Source\PSoC4/CyLFClk.c ****                                                                            CY_SYS_WDT_COUNTER2_INT)
1080:.\Generated_Source\PSoC4/CyLFClk.c **** 
1081:.\Generated_Source\PSoC4/CyLFClk.c ****         /* Read the CY_SYS_WDT_CONTROL_REG to clear the interrupt request.
1082:.\Generated_Source\PSoC4/CyLFClk.c ****          * Cypress ID #207093, #206231
1083:.\Generated_Source\PSoC4/CyLFClk.c ****         */
1084:.\Generated_Source\PSoC4/CyLFClk.c ****         (void)CY_SYS_WDT_CONTROL_REG;
1085:.\Generated_Source\PSoC4/CyLFClk.c **** 
1086:.\Generated_Source\PSoC4/CyLFClk.c ****         if (1u == wdtLockState)
1087:.\Generated_Source\PSoC4/CyLFClk.c ****         {
1088:.\Generated_Source\PSoC4/CyLFClk.c ****             CySysWdtLock();
1089:.\Generated_Source\PSoC4/CyLFClk.c ****         }
1090:.\Generated_Source\PSoC4/CyLFClk.c **** 
1091:.\Generated_Source\PSoC4/CyLFClk.c ****         CyExitCriticalSection(interruptState);
1092:.\Generated_Source\PSoC4/CyLFClk.c ****     }
1093:.\Generated_Source\PSoC4/CyLFClk.c **** 
1094:.\Generated_Source\PSoC4/CyLFClk.c **** 
1095:.\Generated_Source\PSoC4/CyLFClk.c ****     /*******************************************************************************
1096:.\Generated_Source\PSoC4/CyLFClk.c ****     * Function Name: CySysWdtResetCounters
1097:.\Generated_Source\PSoC4/CyLFClk.c ****     ********************************************************************************
1098:.\Generated_Source\PSoC4/CyLFClk.c ****     *
1099:.\Generated_Source\PSoC4/CyLFClk.c ****     * Summary:
1100:.\Generated_Source\PSoC4/CyLFClk.c ****     *  Resets all the WDT counters set in the mask.
1101:.\Generated_Source\PSoC4/CyLFClk.c ****     *
1102:.\Generated_Source\PSoC4/CyLFClk.c ****     * Parameters:
1103:.\Generated_Source\PSoC4/CyLFClk.c ****     *  counterMask: The mask of all the counters to reset.
1104:.\Generated_Source\PSoC4/CyLFClk.c ****     *   Define                       Counter
1105:.\Generated_Source\PSoC4/CyLFClk.c ****     *   CY_SYS_WDT_COUNTER0_RESET    0
1106:.\Generated_Source\PSoC4/CyLFClk.c ****     *   CY_SYS_WDT_COUNTER1_RESET    1
1107:.\Generated_Source\PSoC4/CyLFClk.c ****     *   CY_SYS_WDT_COUNTER2_RESET    2
1108:.\Generated_Source\PSoC4/CyLFClk.c ****     *
1109:.\Generated_Source\PSoC4/CyLFClk.c ****     * Return:
1110:.\Generated_Source\PSoC4/CyLFClk.c ****     *   None
1111:.\Generated_Source\PSoC4/CyLFClk.c ****     *
1112:.\Generated_Source\PSoC4/CyLFClk.c ****     * Side effects:
1113:.\Generated_Source\PSoC4/CyLFClk.c ****     *   This function does not reset counter values if the Watchdog is locked.
1114:.\Generated_Source\PSoC4/CyLFClk.c ****     *   This function waits while corresponding counters will be reset. This may
1115:.\Generated_Source\PSoC4/CyLFClk.c ****     *   take up to 3 LFCLK cycles.
1116:.\Generated_Source\PSoC4/CyLFClk.c ****     *   The LFCLK source must be enabled. Otherwise, the function will never exit.
1117:.\Generated_Source\PSoC4/CyLFClk.c ****     *
1118:.\Generated_Source\PSoC4/CyLFClk.c ****     *******************************************************************************/
1119:.\Generated_Source\PSoC4/CyLFClk.c ****     void CySysWdtResetCounters(uint32 countersMask)
1120:.\Generated_Source\PSoC4/CyLFClk.c ****     {
1121:.\Generated_Source\PSoC4/CyLFClk.c ****         /* Set new WDT reset value */
1122:.\Generated_Source\PSoC4/CyLFClk.c ****         CY_SYS_WDT_CONTROL_REG |= (countersMask & CY_SYS_WDT_COUNTERS_RESET);
1123:.\Generated_Source\PSoC4/CyLFClk.c **** 
1124:.\Generated_Source\PSoC4/CyLFClk.c ****         while (0uL != (CY_SYS_WDT_CONTROL_REG & CY_SYS_WDT_COUNTERS_RESET))
ARM GAS  C:\Users\SDEVAS~1\AppData\Local\Temp\cchvSIah.s 			page 38


1125:.\Generated_Source\PSoC4/CyLFClk.c ****         {
1126:.\Generated_Source\PSoC4/CyLFClk.c ****             /* Wait for reset to come into effect */
1127:.\Generated_Source\PSoC4/CyLFClk.c ****         }
1128:.\Generated_Source\PSoC4/CyLFClk.c ****     }
1129:.\Generated_Source\PSoC4/CyLFClk.c **** 
1130:.\Generated_Source\PSoC4/CyLFClk.c **** 
1131:.\Generated_Source\PSoC4/CyLFClk.c ****     /*******************************************************************************
1132:.\Generated_Source\PSoC4/CyLFClk.c ****     * Function Name: CySysWdtSetInterruptCallback
1133:.\Generated_Source\PSoC4/CyLFClk.c ****     ********************************************************************************
1134:.\Generated_Source\PSoC4/CyLFClk.c ****     *
1135:.\Generated_Source\PSoC4/CyLFClk.c ****     * Summary:
1136:.\Generated_Source\PSoC4/CyLFClk.c ****     *  Sets the ISR callback function for the particular WDT counter.
1137:.\Generated_Source\PSoC4/CyLFClk.c ****     *  These functions are called on the WDT interrupt.
1138:.\Generated_Source\PSoC4/CyLFClk.c ****     *
1139:.\Generated_Source\PSoC4/CyLFClk.c ****     * Parameters:
1140:.\Generated_Source\PSoC4/CyLFClk.c ****     *  counterNum : The number of the WDT counter.
1141:.\Generated_Source\PSoC4/CyLFClk.c ****     *  function   : The pointer to the callback function.
1142:.\Generated_Source\PSoC4/CyLFClk.c ****     *
1143:.\Generated_Source\PSoC4/CyLFClk.c ****     * Return:
1144:.\Generated_Source\PSoC4/CyLFClk.c ****     *  The pointer to the previous callback function.
1145:.\Generated_Source\PSoC4/CyLFClk.c ****     *  NULL is returned if the specified address is not set.
1146:.\Generated_Source\PSoC4/CyLFClk.c ****     *
1147:.\Generated_Source\PSoC4/CyLFClk.c ****     *******************************************************************************/
1148:.\Generated_Source\PSoC4/CyLFClk.c ****     cyWdtCallback CySysWdtSetInterruptCallback(uint32 counterNum, cyWdtCallback function)
1149:.\Generated_Source\PSoC4/CyLFClk.c ****     {
1150:.\Generated_Source\PSoC4/CyLFClk.c ****         cyWdtCallback prevCallback = (void *)0;
1151:.\Generated_Source\PSoC4/CyLFClk.c **** 
1152:.\Generated_Source\PSoC4/CyLFClk.c ****         if(counterNum < CY_WDT_NUM_OF_WDT)
1153:.\Generated_Source\PSoC4/CyLFClk.c ****         {
1154:.\Generated_Source\PSoC4/CyLFClk.c ****             prevCallback = cySysWdtCallback[counterNum];
1155:.\Generated_Source\PSoC4/CyLFClk.c ****             cySysWdtCallback[counterNum] = function;
1156:.\Generated_Source\PSoC4/CyLFClk.c ****         }
1157:.\Generated_Source\PSoC4/CyLFClk.c ****         else
1158:.\Generated_Source\PSoC4/CyLFClk.c ****         {
1159:.\Generated_Source\PSoC4/CyLFClk.c ****             CYASSERT(0u != 0u);
1160:.\Generated_Source\PSoC4/CyLFClk.c ****         }
1161:.\Generated_Source\PSoC4/CyLFClk.c **** 
1162:.\Generated_Source\PSoC4/CyLFClk.c ****         return((cyWdtCallback)prevCallback);
1163:.\Generated_Source\PSoC4/CyLFClk.c ****     }
1164:.\Generated_Source\PSoC4/CyLFClk.c **** 
1165:.\Generated_Source\PSoC4/CyLFClk.c **** 
1166:.\Generated_Source\PSoC4/CyLFClk.c ****     /*******************************************************************************
1167:.\Generated_Source\PSoC4/CyLFClk.c ****     * Function Name: CySysWdtGetInterruptCallback
1168:.\Generated_Source\PSoC4/CyLFClk.c ****     ********************************************************************************
1169:.\Generated_Source\PSoC4/CyLFClk.c ****     *
1170:.\Generated_Source\PSoC4/CyLFClk.c ****     * Summary:
1171:.\Generated_Source\PSoC4/CyLFClk.c ****     *  Gets the ISR callback function for the particular WDT counter.
1172:.\Generated_Source\PSoC4/CyLFClk.c ****     *
1173:.\Generated_Source\PSoC4/CyLFClk.c ****     * Parameters:
1174:.\Generated_Source\PSoC4/CyLFClk.c ****     *  counterNum : The number of the WDT counter.
1175:.\Generated_Source\PSoC4/CyLFClk.c ****     *
1176:.\Generated_Source\PSoC4/CyLFClk.c ****     * Return:
1177:.\Generated_Source\PSoC4/CyLFClk.c ****     *  The pointer to the callback function registered for a particular WDT by
1178:.\Generated_Source\PSoC4/CyLFClk.c ****     *  a particular address that are passed through arguments.
1179:.\Generated_Source\PSoC4/CyLFClk.c ****     *
1180:.\Generated_Source\PSoC4/CyLFClk.c ****     *******************************************************************************/
1181:.\Generated_Source\PSoC4/CyLFClk.c ****     cyWdtCallback CySysWdtGetInterruptCallback(uint32 counterNum)
ARM GAS  C:\Users\SDEVAS~1\AppData\Local\Temp\cchvSIah.s 			page 39


1182:.\Generated_Source\PSoC4/CyLFClk.c ****     {
1183:.\Generated_Source\PSoC4/CyLFClk.c ****         cyWdtCallback retCallback = (void *)0;
1184:.\Generated_Source\PSoC4/CyLFClk.c **** 
1185:.\Generated_Source\PSoC4/CyLFClk.c ****         if(counterNum < CY_WDT_NUM_OF_WDT)
1186:.\Generated_Source\PSoC4/CyLFClk.c ****         {
1187:.\Generated_Source\PSoC4/CyLFClk.c ****             retCallback = (cyWdtCallback)cySysWdtCallback[counterNum];
1188:.\Generated_Source\PSoC4/CyLFClk.c ****         }
1189:.\Generated_Source\PSoC4/CyLFClk.c ****         else
1190:.\Generated_Source\PSoC4/CyLFClk.c ****         {
1191:.\Generated_Source\PSoC4/CyLFClk.c ****             CYASSERT(0u != 0u);
1192:.\Generated_Source\PSoC4/CyLFClk.c ****         }
1193:.\Generated_Source\PSoC4/CyLFClk.c **** 
1194:.\Generated_Source\PSoC4/CyLFClk.c ****         return(retCallback);
1195:.\Generated_Source\PSoC4/CyLFClk.c ****     }
1196:.\Generated_Source\PSoC4/CyLFClk.c **** 
1197:.\Generated_Source\PSoC4/CyLFClk.c **** 
1198:.\Generated_Source\PSoC4/CyLFClk.c ****     /*******************************************************************************
1199:.\Generated_Source\PSoC4/CyLFClk.c ****     * Function Name: CySysWdtEnableCounterIsr
1200:.\Generated_Source\PSoC4/CyLFClk.c ****     ********************************************************************************
1201:.\Generated_Source\PSoC4/CyLFClk.c ****     *
1202:.\Generated_Source\PSoC4/CyLFClk.c ****     * Summary:
1203:.\Generated_Source\PSoC4/CyLFClk.c ****     *  Enables the ISR callback servicing for the particular WDT counter
1204:.\Generated_Source\PSoC4/CyLFClk.c ****     *
1205:.\Generated_Source\PSoC4/CyLFClk.c ****     * Parameters:
1206:.\Generated_Source\PSoC4/CyLFClk.c ****     *  counterNum: Valid range [0-2].  The number of the WDT counter.
1207:.\Generated_Source\PSoC4/CyLFClk.c ****     *
1208:.\Generated_Source\PSoC4/CyLFClk.c ****     *******************************************************************************/
1209:.\Generated_Source\PSoC4/CyLFClk.c ****     void CySysWdtEnableCounterIsr(uint32 counterNum)
1210:.\Generated_Source\PSoC4/CyLFClk.c ****     {
1211:.\Generated_Source\PSoC4/CyLFClk.c ****         if(counterNum <= CY_SYS_WDT_COUNTER2)
1212:.\Generated_Source\PSoC4/CyLFClk.c ****         {
1213:.\Generated_Source\PSoC4/CyLFClk.c ****             disableServicedIsr &= ~counterIntMaskTbl[counterNum];
1214:.\Generated_Source\PSoC4/CyLFClk.c ****             wdtIsrMask |= counterIntMaskTbl[counterNum];
1215:.\Generated_Source\PSoC4/CyLFClk.c ****         }
1216:.\Generated_Source\PSoC4/CyLFClk.c ****         else
1217:.\Generated_Source\PSoC4/CyLFClk.c ****         {
1218:.\Generated_Source\PSoC4/CyLFClk.c ****             CYASSERT(0u != 0u);
1219:.\Generated_Source\PSoC4/CyLFClk.c ****         }
1220:.\Generated_Source\PSoC4/CyLFClk.c ****     }
1221:.\Generated_Source\PSoC4/CyLFClk.c **** 
1222:.\Generated_Source\PSoC4/CyLFClk.c **** 
1223:.\Generated_Source\PSoC4/CyLFClk.c ****     /*******************************************************************************
1224:.\Generated_Source\PSoC4/CyLFClk.c ****     * Function Name: CySysWdtDisableCounterIsr
1225:.\Generated_Source\PSoC4/CyLFClk.c ****     ********************************************************************************
1226:.\Generated_Source\PSoC4/CyLFClk.c ****     *
1227:.\Generated_Source\PSoC4/CyLFClk.c ****     * Summary:
1228:.\Generated_Source\PSoC4/CyLFClk.c ****     *  Disables the ISR callback servicing for the particular WDT counter
1229:.\Generated_Source\PSoC4/CyLFClk.c ****     *
1230:.\Generated_Source\PSoC4/CyLFClk.c ****     * Parameters:
1231:.\Generated_Source\PSoC4/CyLFClk.c ****     *  counterNum: Valid range [0-2].  The number of the WDT counter.
1232:.\Generated_Source\PSoC4/CyLFClk.c ****     *
1233:.\Generated_Source\PSoC4/CyLFClk.c ****     *******************************************************************************/
1234:.\Generated_Source\PSoC4/CyLFClk.c ****     void CySysWdtDisableCounterIsr(uint32 counterNum)
1235:.\Generated_Source\PSoC4/CyLFClk.c ****     {
1236:.\Generated_Source\PSoC4/CyLFClk.c ****         if(counterNum <= CY_SYS_WDT_COUNTER2)
1237:.\Generated_Source\PSoC4/CyLFClk.c ****         {
1238:.\Generated_Source\PSoC4/CyLFClk.c ****             wdtIsrMask &= ~counterIntMaskTbl[counterNum];
ARM GAS  C:\Users\SDEVAS~1\AppData\Local\Temp\cchvSIah.s 			page 40


1239:.\Generated_Source\PSoC4/CyLFClk.c ****         }
1240:.\Generated_Source\PSoC4/CyLFClk.c ****         else
1241:.\Generated_Source\PSoC4/CyLFClk.c ****         {
1242:.\Generated_Source\PSoC4/CyLFClk.c ****             CYASSERT(0u != 0u);
1243:.\Generated_Source\PSoC4/CyLFClk.c ****         }
1244:.\Generated_Source\PSoC4/CyLFClk.c ****     }
1245:.\Generated_Source\PSoC4/CyLFClk.c **** 
1246:.\Generated_Source\PSoC4/CyLFClk.c **** 
1247:.\Generated_Source\PSoC4/CyLFClk.c ****     /*******************************************************************************
1248:.\Generated_Source\PSoC4/CyLFClk.c ****     * Function Name: CySysWdtIsr
1249:.\Generated_Source\PSoC4/CyLFClk.c ****     ********************************************************************************
1250:.\Generated_Source\PSoC4/CyLFClk.c ****     *
1251:.\Generated_Source\PSoC4/CyLFClk.c ****     * Summary:
1252:.\Generated_Source\PSoC4/CyLFClk.c ****     *  This is the handler of the WDT interrupt in CPU NVIC. The handler checks
1253:.\Generated_Source\PSoC4/CyLFClk.c ****     *  which WDT triggered in the interrupt and calls the respective callback
1254:.\Generated_Source\PSoC4/CyLFClk.c ****     *  functions configured by the user by using CySysWdtSetIsrCallback() API.
1255:.\Generated_Source\PSoC4/CyLFClk.c ****     *
1256:.\Generated_Source\PSoC4/CyLFClk.c ****     *  The order of the callback execution is incremental. Callback-0 is
1257:.\Generated_Source\PSoC4/CyLFClk.c ****     *  run as the first one and callback-2 is called as the last one.
1258:.\Generated_Source\PSoC4/CyLFClk.c ****     *
1259:.\Generated_Source\PSoC4/CyLFClk.c ****     * Parameters:
1260:.\Generated_Source\PSoC4/CyLFClk.c ****     *  None.
1261:.\Generated_Source\PSoC4/CyLFClk.c ****     *
1262:.\Generated_Source\PSoC4/CyLFClk.c ****     * Return:
1263:.\Generated_Source\PSoC4/CyLFClk.c ****     *  None.
1264:.\Generated_Source\PSoC4/CyLFClk.c ****     *
1265:.\Generated_Source\PSoC4/CyLFClk.c ****     * Side Effects:
1266:.\Generated_Source\PSoC4/CyLFClk.c ****     *  This function clears the WDT interrupt every time when it is called.
1267:.\Generated_Source\PSoC4/CyLFClk.c ****     *  Reset after the 3rd interrupt does not happen if this function is registered
1268:.\Generated_Source\PSoC4/CyLFClk.c ****     *  as the interrupt handler even if the "Watchdog with Interrupt" mode is
1269:.\Generated_Source\PSoC4/CyLFClk.c ****     *  selected on the "Low Frequency Clocks" tab.
1270:.\Generated_Source\PSoC4/CyLFClk.c ****     *
1271:.\Generated_Source\PSoC4/CyLFClk.c ****     *******************************************************************************/
1272:.\Generated_Source\PSoC4/CyLFClk.c ****     void CySysWdtIsr(void)
1273:.\Generated_Source\PSoC4/CyLFClk.c ****     {
1274:.\Generated_Source\PSoC4/CyLFClk.c ****         if(0u != (CY_SYS_WDT_COUNTER0_INT & CY_SYS_WDT_CONTROL_REG))
1275:.\Generated_Source\PSoC4/CyLFClk.c ****         {
1276:.\Generated_Source\PSoC4/CyLFClk.c ****             if(0u != (CY_SYS_WDT_COUNTER0_INT & wdtIsrMask))
1277:.\Generated_Source\PSoC4/CyLFClk.c ****             {
1278:.\Generated_Source\PSoC4/CyLFClk.c ****                 wdtIsrMask &= ~(disableServicedIsr & CY_SYS_WDT_COUNTER0_INT);
1279:.\Generated_Source\PSoC4/CyLFClk.c ****                 disableServicedIsr  &= ~CY_SYS_WDT_COUNTER0_INT;
1280:.\Generated_Source\PSoC4/CyLFClk.c ****                 if(cySysWdtCallback[CY_SYS_WDT_COUNTER0] != (void *) 0)
1281:.\Generated_Source\PSoC4/CyLFClk.c ****                 {
1282:.\Generated_Source\PSoC4/CyLFClk.c ****                     (void)(cySysWdtCallback[CY_SYS_WDT_COUNTER0])();
1283:.\Generated_Source\PSoC4/CyLFClk.c ****                 }
1284:.\Generated_Source\PSoC4/CyLFClk.c ****             }
1285:.\Generated_Source\PSoC4/CyLFClk.c ****             CySysWdtClearInterrupt(CY_SYS_WDT_COUNTER0_INT);
1286:.\Generated_Source\PSoC4/CyLFClk.c ****         }
1287:.\Generated_Source\PSoC4/CyLFClk.c **** 
1288:.\Generated_Source\PSoC4/CyLFClk.c ****         if(0u != (CY_SYS_WDT_COUNTER1_INT & CY_SYS_WDT_CONTROL_REG))
1289:.\Generated_Source\PSoC4/CyLFClk.c ****         {
1290:.\Generated_Source\PSoC4/CyLFClk.c ****             if(0u != (CY_SYS_WDT_COUNTER1_INT & wdtIsrMask))
1291:.\Generated_Source\PSoC4/CyLFClk.c ****             {
1292:.\Generated_Source\PSoC4/CyLFClk.c ****                 wdtIsrMask &= ~(disableServicedIsr & CY_SYS_WDT_COUNTER1_INT);
1293:.\Generated_Source\PSoC4/CyLFClk.c ****                 disableServicedIsr  &= ~CY_SYS_WDT_COUNTER1_INT;
1294:.\Generated_Source\PSoC4/CyLFClk.c ****                 if(cySysWdtCallback[CY_SYS_WDT_COUNTER1] != (void *) 0)
1295:.\Generated_Source\PSoC4/CyLFClk.c ****                 {
ARM GAS  C:\Users\SDEVAS~1\AppData\Local\Temp\cchvSIah.s 			page 41


1296:.\Generated_Source\PSoC4/CyLFClk.c ****                     (void)(cySysWdtCallback[CY_SYS_WDT_COUNTER1])();
1297:.\Generated_Source\PSoC4/CyLFClk.c ****                 }
1298:.\Generated_Source\PSoC4/CyLFClk.c ****             }
1299:.\Generated_Source\PSoC4/CyLFClk.c ****             CySysWdtClearInterrupt(CY_SYS_WDT_COUNTER1_INT);
1300:.\Generated_Source\PSoC4/CyLFClk.c ****         }
1301:.\Generated_Source\PSoC4/CyLFClk.c **** 
1302:.\Generated_Source\PSoC4/CyLFClk.c ****         if(0u != (CY_SYS_WDT_COUNTER2_INT & CY_SYS_WDT_CONTROL_REG))
1303:.\Generated_Source\PSoC4/CyLFClk.c ****         {
1304:.\Generated_Source\PSoC4/CyLFClk.c ****             if(0u != (CY_SYS_WDT_COUNTER2_INT & wdtIsrMask))
1305:.\Generated_Source\PSoC4/CyLFClk.c ****             {
1306:.\Generated_Source\PSoC4/CyLFClk.c ****                 if(cySysWdtCallback[CY_SYS_WDT_COUNTER2] != (void *) 0)
1307:.\Generated_Source\PSoC4/CyLFClk.c ****                 {
1308:.\Generated_Source\PSoC4/CyLFClk.c ****                     (void)(cySysWdtCallback[CY_SYS_WDT_COUNTER2])();
1309:.\Generated_Source\PSoC4/CyLFClk.c ****                 }
1310:.\Generated_Source\PSoC4/CyLFClk.c ****             }
1311:.\Generated_Source\PSoC4/CyLFClk.c ****             CySysWdtClearInterrupt(CY_SYS_WDT_COUNTER2_INT);
1312:.\Generated_Source\PSoC4/CyLFClk.c ****         }
1313:.\Generated_Source\PSoC4/CyLFClk.c ****     }
1314:.\Generated_Source\PSoC4/CyLFClk.c **** 
1315:.\Generated_Source\PSoC4/CyLFClk.c **** 
1316:.\Generated_Source\PSoC4/CyLFClk.c ****     /*******************************************************************************
1317:.\Generated_Source\PSoC4/CyLFClk.c ****     * Function Name: CySysTimerDelay
1318:.\Generated_Source\PSoC4/CyLFClk.c ****     ********************************************************************************
1319:.\Generated_Source\PSoC4/CyLFClk.c ****     *
1320:.\Generated_Source\PSoC4/CyLFClk.c ****     * Summary:
1321:.\Generated_Source\PSoC4/CyLFClk.c ****     *  The function implements the delay specified in the LFCLK clock ticks. The
1322:.\Generated_Source\PSoC4/CyLFClk.c ****     *  specified WDT counter should be configured as described below and started.
1323:.\Generated_Source\PSoC4/CyLFClk.c ****     *
1324:.\Generated_Source\PSoC4/CyLFClk.c ****     *  This function can operate in two modes: the "WAIT" and "INTERRUPT" modes. In
1325:.\Generated_Source\PSoC4/CyLFClk.c ****     *  the "WAIT" mode, the function waits for the specified number of ticks. In the
1326:.\Generated_Source\PSoC4/CyLFClk.c ****     *  "INTERRUPT" mode, the interrupt is generated after the specified number of
1327:.\Generated_Source\PSoC4/CyLFClk.c ****     *  ticks.
1328:.\Generated_Source\PSoC4/CyLFClk.c ****     *
1329:.\Generated_Source\PSoC4/CyLFClk.c ****     *  For the correct function operation, the "Clear On Match" option should be
1330:.\Generated_Source\PSoC4/CyLFClk.c ****     *  disabled for the specified WDT counter. Use CySysWdtSetClearOnMatch()
1331:.\Generated_Source\PSoC4/CyLFClk.c ****     *  function with the "enable" parameter equal to zero for the used WDT counter.
1332:.\Generated_Source\PSoC4/CyLFClk.c ****     *
1333:.\Generated_Source\PSoC4/CyLFClk.c ****     *  The corresponding WDT counter should be configured to match the selected
1334:.\Generated_Source\PSoC4/CyLFClk.c ****     *  mode: "Free running Timer" for the "WAIT" mode, and
1335:.\Generated_Source\PSoC4/CyLFClk.c ****     *  "Periodic Timer" / "Watchdog (w/Interrupt)" for the "INTERRUPT" mode.
1336:.\Generated_Source\PSoC4/CyLFClk.c ****     *
1337:.\Generated_Source\PSoC4/CyLFClk.c ****     *  This can be configured in two ways:
1338:.\Generated_Source\PSoC4/CyLFClk.c ****     *  - Through the DWR page. Open the "Clocks" tab, click the "Edit Clocks..."
1339:.\Generated_Source\PSoC4/CyLFClk.c ****     *    button, in the "Configure System Clocks" window click on the
1340:.\Generated_Source\PSoC4/CyLFClk.c ****     *    "Low Frequency Clocks" tab and choose the appropriate option for the used
1341:.\Generated_Source\PSoC4/CyLFClk.c ****     *    WDT counter.
1342:.\Generated_Source\PSoC4/CyLFClk.c ****     *
1343:.\Generated_Source\PSoC4/CyLFClk.c ****     *  - Through the CySysWdtSetMode() function. Call it with the appropriate mode
1344:.\Generated_Source\PSoC4/CyLFClk.c ****     *    parameter for the used WDT counter.
1345:.\Generated_Source\PSoC4/CyLFClk.c ****     *
1346:.\Generated_Source\PSoC4/CyLFClk.c ****     *  For the "INTERRUPT" mode, the recommended sequence is the following:
1347:.\Generated_Source\PSoC4/CyLFClk.c ****     *  - Call the CySysWdtDisableCounterIsr() function to disable servicing
1348:.\Generated_Source\PSoC4/CyLFClk.c ****     *    interrupts of the specified WDT counter.
1349:.\Generated_Source\PSoC4/CyLFClk.c ****     *
1350:.\Generated_Source\PSoC4/CyLFClk.c ****     *  - Call the CySysWdtSetInterruptCallback() function to register the callback
1351:.\Generated_Source\PSoC4/CyLFClk.c ****     *    function for the corresponding WDT counter.
1352:.\Generated_Source\PSoC4/CyLFClk.c ****     *
ARM GAS  C:\Users\SDEVAS~1\AppData\Local\Temp\cchvSIah.s 			page 42


1353:.\Generated_Source\PSoC4/CyLFClk.c ****     *  - Call the CySysTimerDelay() function.
1354:.\Generated_Source\PSoC4/CyLFClk.c ****     *
1355:.\Generated_Source\PSoC4/CyLFClk.c ****     * Parameters:
1356:.\Generated_Source\PSoC4/CyLFClk.c ****     *  counterNum: Valid range [0-1]. The number of the WDT counter (WDT0 or WDT1).
1357:.\Generated_Source\PSoC4/CyLFClk.c ****     *  delayType : Defines the operation mode.
1358:.\Generated_Source\PSoC4/CyLFClk.c ****     *               CY_SYS_TIMER_WAIT       "WAIT" mode.
1359:.\Generated_Source\PSoC4/CyLFClk.c ****     *               CY_SYS_TIMER_INTERRUPT  "INTERRUPT" mode.
1360:.\Generated_Source\PSoC4/CyLFClk.c ****     *  delay:  The delay value in the LFCLK ticks (allowable range - 16-bit value).
1361:.\Generated_Source\PSoC4/CyLFClk.c ****     *
1362:.\Generated_Source\PSoC4/CyLFClk.c ****     * Return:
1363:.\Generated_Source\PSoC4/CyLFClk.c ****     *  None
1364:.\Generated_Source\PSoC4/CyLFClk.c ****     *
1365:.\Generated_Source\PSoC4/CyLFClk.c ****     * Side effects:
1366:.\Generated_Source\PSoC4/CyLFClk.c ****     *  In the "INTERRUPT" mode, this function enables ISR callback servicing
1367:.\Generated_Source\PSoC4/CyLFClk.c ****     *  from the corresponding WDT counter. Servicing of this ISR callback will be
1368:.\Generated_Source\PSoC4/CyLFClk.c ****     *  disabled after the expiration of the delay time.
1369:.\Generated_Source\PSoC4/CyLFClk.c ****     *
1370:.\Generated_Source\PSoC4/CyLFClk.c ****     *******************************************************************************/
1371:.\Generated_Source\PSoC4/CyLFClk.c ****     void CySysTimerDelay(uint32 counterNum, cy_sys_timer_delaytype_enum delayType, uint32 delay)
1372:.\Generated_Source\PSoC4/CyLFClk.c ****     {
1373:.\Generated_Source\PSoC4/CyLFClk.c ****         uint32 regValue;
1374:.\Generated_Source\PSoC4/CyLFClk.c ****         uint32 matchValue;
1375:.\Generated_Source\PSoC4/CyLFClk.c **** 
1376:.\Generated_Source\PSoC4/CyLFClk.c ****         if((counterNum < CY_SYS_WDT_COUNTER2) && (0uL == CySysWdtGetClearOnMatch(counterNum)) && (d
1377:.\Generated_Source\PSoC4/CyLFClk.c ****         {
1378:.\Generated_Source\PSoC4/CyLFClk.c ****             regValue   = CySysWdtGetCount(counterNum);
1379:.\Generated_Source\PSoC4/CyLFClk.c ****             matchValue = (regValue + delay) & (uint32)UINT16_MAX_VAL;
1380:.\Generated_Source\PSoC4/CyLFClk.c **** 
1381:.\Generated_Source\PSoC4/CyLFClk.c ****             CySysTimerDelayUntilMatch(counterNum, delayType, matchValue);
1382:.\Generated_Source\PSoC4/CyLFClk.c ****         }
1383:.\Generated_Source\PSoC4/CyLFClk.c ****         else
1384:.\Generated_Source\PSoC4/CyLFClk.c ****         {
1385:.\Generated_Source\PSoC4/CyLFClk.c ****             CYASSERT(0u != 0u);
1386:.\Generated_Source\PSoC4/CyLFClk.c ****         }
1387:.\Generated_Source\PSoC4/CyLFClk.c ****     }
1388:.\Generated_Source\PSoC4/CyLFClk.c **** 
1389:.\Generated_Source\PSoC4/CyLFClk.c **** 
1390:.\Generated_Source\PSoC4/CyLFClk.c ****     /*******************************************************************************
1391:.\Generated_Source\PSoC4/CyLFClk.c ****     * Function Name: CySysTimerDelayUntilMatch
1392:.\Generated_Source\PSoC4/CyLFClk.c ****     ********************************************************************************
1393:.\Generated_Source\PSoC4/CyLFClk.c ****     *
1394:.\Generated_Source\PSoC4/CyLFClk.c ****     * Summary:
1395:.\Generated_Source\PSoC4/CyLFClk.c ****     *  The function implements the delay specified as the number of LFCLK ticks
1396:.\Generated_Source\PSoC4/CyLFClk.c ****     *  between the specified WDT counter's current value and the "match" passed as
1397:.\Generated_Source\PSoC4/CyLFClk.c ****     *  the parameter to this function. The current WDT counter value can be obtained
1398:.\Generated_Source\PSoC4/CyLFClk.c ****     *  using the CySysWdtGetCount() function.
1399:.\Generated_Source\PSoC4/CyLFClk.c ****     *
1400:.\Generated_Source\PSoC4/CyLFClk.c ****     *  This function can operate in two modes: the "WAIT" and "INTERRUPT" mode. In
1401:.\Generated_Source\PSoC4/CyLFClk.c ****     *  the "WAIT" mode, the function waits while the used WDT counter value becomes
1402:.\Generated_Source\PSoC4/CyLFClk.c ****     *  equal to the match value. In the "INTERRUPT" mode, the interrupt is generated
1403:.\Generated_Source\PSoC4/CyLFClk.c ****     *  when the used WDT counter became equal to the "match" value.
1404:.\Generated_Source\PSoC4/CyLFClk.c ****     *
1405:.\Generated_Source\PSoC4/CyLFClk.c ****     *  For the correct function operation, the "Clear On Match" option should be
1406:.\Generated_Source\PSoC4/CyLFClk.c ****     *  disabled for the specified WDT counter. Use CySysWdtSetClearOnMatch()
1407:.\Generated_Source\PSoC4/CyLFClk.c ****     *  function with the "enable" parameter equal to zero for the used WDT counter.
1408:.\Generated_Source\PSoC4/CyLFClk.c ****     *
1409:.\Generated_Source\PSoC4/CyLFClk.c ****     *  The corresponding WDT counter should be configured to match the selected mode:
ARM GAS  C:\Users\SDEVAS~1\AppData\Local\Temp\cchvSIah.s 			page 43


1410:.\Generated_Source\PSoC4/CyLFClk.c ****     *  "Free running Timer" for the "WAIT" mode, and "Periodic Timer" / "Watchdog
1411:.\Generated_Source\PSoC4/CyLFClk.c ****     *  (w/Interrupt)" for the "INTERRUPT" mode.
1412:.\Generated_Source\PSoC4/CyLFClk.c ****     *
1413:.\Generated_Source\PSoC4/CyLFClk.c ****     *  This can be configured in two ways:
1414:.\Generated_Source\PSoC4/CyLFClk.c ****     *  - Through the DWR page. Open the "Clocks" tab, click the "Edit Clocks..."
1415:.\Generated_Source\PSoC4/CyLFClk.c ****     *    button, in the "Configure System Clocks" window click on the
1416:.\Generated_Source\PSoC4/CyLFClk.c ****     *    "Low Frequency Clocks" tab and choose the appropriate option for the used
1417:.\Generated_Source\PSoC4/CyLFClk.c ****     *    WDT counter.
1418:.\Generated_Source\PSoC4/CyLFClk.c ****     *
1419:.\Generated_Source\PSoC4/CyLFClk.c ****     *  - Through the CySysWdtSetMode() function. Call it with the appropriate "mode"
1420:.\Generated_Source\PSoC4/CyLFClk.c ****     *    parameter for the used WDT counter.
1421:.\Generated_Source\PSoC4/CyLFClk.c ****     *
1422:.\Generated_Source\PSoC4/CyLFClk.c ****     *  For the "INTERRUPT" mode, the recommended sequence is the following:
1423:.\Generated_Source\PSoC4/CyLFClk.c ****     *  - Call the CySysWdtDisableCounterIsr() function to disable servicing
1424:.\Generated_Source\PSoC4/CyLFClk.c ****     *    interrupts of the specified WDT counter.
1425:.\Generated_Source\PSoC4/CyLFClk.c ****     *
1426:.\Generated_Source\PSoC4/CyLFClk.c ****     *  - Call the CySysWdtSetInterruptCallback() function to register the callback
1427:.\Generated_Source\PSoC4/CyLFClk.c ****     *    function for the corresponding WDT counter.
1428:.\Generated_Source\PSoC4/CyLFClk.c ****     *
1429:.\Generated_Source\PSoC4/CyLFClk.c ****     *  - Call the CySysTimerDelay() function.
1430:.\Generated_Source\PSoC4/CyLFClk.c ****     *
1431:.\Generated_Source\PSoC4/CyLFClk.c ****     * Parameters:
1432:.\Generated_Source\PSoC4/CyLFClk.c ****     *  counterNum: Valid range [0-1]. The number of the WDT counter (WDT0 or WDT1).
1433:.\Generated_Source\PSoC4/CyLFClk.c ****     *  delayType : Defines the operation mode.
1434:.\Generated_Source\PSoC4/CyLFClk.c ****     *               CY_SYS_TIMER_WAIT       "WAIT" mode.
1435:.\Generated_Source\PSoC4/CyLFClk.c ****     *               CY_SYS_TIMER_INTERRUPT  "INTERRUPT" mode.
1436:.\Generated_Source\PSoC4/CyLFClk.c ****     *  delay:  The delay value in the LFCLK ticks (allowable range - 16-bit value).
1437:.\Generated_Source\PSoC4/CyLFClk.c ****     *
1438:.\Generated_Source\PSoC4/CyLFClk.c ****     * Return:
1439:.\Generated_Source\PSoC4/CyLFClk.c ****     *  None
1440:.\Generated_Source\PSoC4/CyLFClk.c ****     *
1441:.\Generated_Source\PSoC4/CyLFClk.c ****     * Side effects:
1442:.\Generated_Source\PSoC4/CyLFClk.c ****     *  In the "INTERRUPT" mode, this function enables ISR callback servicing
1443:.\Generated_Source\PSoC4/CyLFClk.c ****     *  from the corresponding WDT counter. Servicing of this ISR callback will be
1444:.\Generated_Source\PSoC4/CyLFClk.c ****     *  disabled after the expiration of the delay time.
1445:.\Generated_Source\PSoC4/CyLFClk.c ****     *
1446:.\Generated_Source\PSoC4/CyLFClk.c ****     *******************************************************************************/
1447:.\Generated_Source\PSoC4/CyLFClk.c ****     void CySysTimerDelayUntilMatch(uint32 counterNum, cy_sys_timer_delaytype_enum delayType, uint32
1448:.\Generated_Source\PSoC4/CyLFClk.c ****     {
1449:.\Generated_Source\PSoC4/CyLFClk.c ****         uint32 tmpValue;
1450:.\Generated_Source\PSoC4/CyLFClk.c **** 
1451:.\Generated_Source\PSoC4/CyLFClk.c ****         if((counterNum < CY_SYS_WDT_COUNTER2) && (0uL == CySysWdtGetClearOnMatch(counterNum)) && (m
1452:.\Generated_Source\PSoC4/CyLFClk.c ****         {
1453:.\Generated_Source\PSoC4/CyLFClk.c ****             if(delayType == CY_SYS_TIMER_WAIT)
1454:.\Generated_Source\PSoC4/CyLFClk.c ****             {
1455:.\Generated_Source\PSoC4/CyLFClk.c ****                 do
1456:.\Generated_Source\PSoC4/CyLFClk.c ****                 {
1457:.\Generated_Source\PSoC4/CyLFClk.c ****                     tmpValue = CySysWdtGetCount(counterNum);
1458:.\Generated_Source\PSoC4/CyLFClk.c ****                 }while(tmpValue > match);
1459:.\Generated_Source\PSoC4/CyLFClk.c **** 
1460:.\Generated_Source\PSoC4/CyLFClk.c ****                 do
1461:.\Generated_Source\PSoC4/CyLFClk.c ****                 {
1462:.\Generated_Source\PSoC4/CyLFClk.c ****                     tmpValue = CySysWdtGetCount(counterNum);
1463:.\Generated_Source\PSoC4/CyLFClk.c ****                 }while(tmpValue < match);
1464:.\Generated_Source\PSoC4/CyLFClk.c ****             }
1465:.\Generated_Source\PSoC4/CyLFClk.c ****             else
1466:.\Generated_Source\PSoC4/CyLFClk.c ****             {
ARM GAS  C:\Users\SDEVAS~1\AppData\Local\Temp\cchvSIah.s 			page 44


1467:.\Generated_Source\PSoC4/CyLFClk.c ****                 tmpValue = counterIntMaskTbl[counterNum];
1468:.\Generated_Source\PSoC4/CyLFClk.c ****                 CySysWdtSetMatch(counterNum, match);
1469:.\Generated_Source\PSoC4/CyLFClk.c **** 
1470:.\Generated_Source\PSoC4/CyLFClk.c ****                 disableServicedIsr  |= tmpValue;
1471:.\Generated_Source\PSoC4/CyLFClk.c ****                 wdtIsrMask |= tmpValue;
1472:.\Generated_Source\PSoC4/CyLFClk.c ****             }
1473:.\Generated_Source\PSoC4/CyLFClk.c ****         }
1474:.\Generated_Source\PSoC4/CyLFClk.c ****         else
1475:.\Generated_Source\PSoC4/CyLFClk.c ****         {
1476:.\Generated_Source\PSoC4/CyLFClk.c ****             CYASSERT(0u != 0u);
1477:.\Generated_Source\PSoC4/CyLFClk.c ****         }
1478:.\Generated_Source\PSoC4/CyLFClk.c ****     }
1479:.\Generated_Source\PSoC4/CyLFClk.c **** 
1480:.\Generated_Source\PSoC4/CyLFClk.c **** 
1481:.\Generated_Source\PSoC4/CyLFClk.c ****     /*******************************************************************************
1482:.\Generated_Source\PSoC4/CyLFClk.c ****     * Function Name: CySysWatchdogFeed
1483:.\Generated_Source\PSoC4/CyLFClk.c ****     ********************************************************************************
1484:.\Generated_Source\PSoC4/CyLFClk.c ****     *
1485:.\Generated_Source\PSoC4/CyLFClk.c ****     * Summary:
1486:.\Generated_Source\PSoC4/CyLFClk.c ****     *  Feeds the watchdog counter before it causes the device reset. Supported only
1487:.\Generated_Source\PSoC4/CyLFClk.c ****     *  for WDT0 and WDT1 in the "Watchdog" or "Watchdog w/ Interrupts" modes.
1488:.\Generated_Source\PSoC4/CyLFClk.c ****     *
1489:.\Generated_Source\PSoC4/CyLFClk.c ****     * Parameters:
1490:.\Generated_Source\PSoC4/CyLFClk.c ****     *  counterNum:    The number of the WDT counter.
1491:.\Generated_Source\PSoC4/CyLFClk.c ****     *
1492:.\Generated_Source\PSoC4/CyLFClk.c ****     * Return:
1493:.\Generated_Source\PSoC4/CyLFClk.c ****     *  None.
1494:.\Generated_Source\PSoC4/CyLFClk.c ****     *
1495:.\Generated_Source\PSoC4/CyLFClk.c ****     * Side effects:
1496:.\Generated_Source\PSoC4/CyLFClk.c ****     *  Clears the WDT counter in the "Watchdog" mode or clears the WDT interrupt in
1497:.\Generated_Source\PSoC4/CyLFClk.c ****     *  "Watchdog w/ Interrupts" mode. Does nothing in other modes.
1498:.\Generated_Source\PSoC4/CyLFClk.c ****     *
1499:.\Generated_Source\PSoC4/CyLFClk.c ****     *******************************************************************************/
1500:.\Generated_Source\PSoC4/CyLFClk.c ****     void CySysWatchdogFeed(uint32 counterNum)
1501:.\Generated_Source\PSoC4/CyLFClk.c ****     {
1502:.\Generated_Source\PSoC4/CyLFClk.c ****         if(counterNum == CY_SYS_WDT_COUNTER0)
1503:.\Generated_Source\PSoC4/CyLFClk.c ****         {
1504:.\Generated_Source\PSoC4/CyLFClk.c ****             if(CY_SYS_WDT_MODE_INT_RESET == CySysWdtGetMode(counterNum))
1505:.\Generated_Source\PSoC4/CyLFClk.c ****             {
1506:.\Generated_Source\PSoC4/CyLFClk.c ****                 CySysWdtClearInterrupt(CY_SYS_WDT_COUNTER0_MASK);
1507:.\Generated_Source\PSoC4/CyLFClk.c ****             }
1508:.\Generated_Source\PSoC4/CyLFClk.c ****             else if(CY_SYS_WDT_MODE_RESET == CySysWdtGetMode(counterNum))
1509:.\Generated_Source\PSoC4/CyLFClk.c ****             {
1510:.\Generated_Source\PSoC4/CyLFClk.c ****                 CySysWdtResetCounters(CY_SYS_WDT_COUNTER0_RESET);
1511:.\Generated_Source\PSoC4/CyLFClk.c ****                 CySysWdtClearInterrupt(CY_SYS_WDT_COUNTER0_MASK);
1512:.\Generated_Source\PSoC4/CyLFClk.c ****             }
1513:.\Generated_Source\PSoC4/CyLFClk.c ****             else
1514:.\Generated_Source\PSoC4/CyLFClk.c ****             {
1515:.\Generated_Source\PSoC4/CyLFClk.c ****                 /* Do nothing. */
1516:.\Generated_Source\PSoC4/CyLFClk.c ****             }
1517:.\Generated_Source\PSoC4/CyLFClk.c ****         }
1518:.\Generated_Source\PSoC4/CyLFClk.c ****         else if(counterNum == CY_SYS_WDT_COUNTER1)
1519:.\Generated_Source\PSoC4/CyLFClk.c ****         {
1520:.\Generated_Source\PSoC4/CyLFClk.c ****             if(CY_SYS_WDT_MODE_INT_RESET == CySysWdtGetMode(counterNum))
1521:.\Generated_Source\PSoC4/CyLFClk.c ****             {
1522:.\Generated_Source\PSoC4/CyLFClk.c ****                 CySysWdtClearInterrupt(CY_SYS_WDT_COUNTER1_MASK);
1523:.\Generated_Source\PSoC4/CyLFClk.c ****             }
ARM GAS  C:\Users\SDEVAS~1\AppData\Local\Temp\cchvSIah.s 			page 45


1524:.\Generated_Source\PSoC4/CyLFClk.c ****             else if(CY_SYS_WDT_MODE_RESET == CySysWdtGetMode(counterNum))
1525:.\Generated_Source\PSoC4/CyLFClk.c ****             {
1526:.\Generated_Source\PSoC4/CyLFClk.c ****                 CySysWdtResetCounters(CY_SYS_WDT_COUNTER1_RESET);
1527:.\Generated_Source\PSoC4/CyLFClk.c ****                 CySysWdtClearInterrupt(CY_SYS_WDT_COUNTER1_MASK);
1528:.\Generated_Source\PSoC4/CyLFClk.c ****             }
1529:.\Generated_Source\PSoC4/CyLFClk.c ****             else
1530:.\Generated_Source\PSoC4/CyLFClk.c ****             {
1531:.\Generated_Source\PSoC4/CyLFClk.c ****                 /* Do nothing. */
1532:.\Generated_Source\PSoC4/CyLFClk.c ****             }
1533:.\Generated_Source\PSoC4/CyLFClk.c ****         }
1534:.\Generated_Source\PSoC4/CyLFClk.c ****         else
1535:.\Generated_Source\PSoC4/CyLFClk.c ****         {
1536:.\Generated_Source\PSoC4/CyLFClk.c ****             /* Do nothing. */
1537:.\Generated_Source\PSoC4/CyLFClk.c ****         }
1538:.\Generated_Source\PSoC4/CyLFClk.c ****     }
1539:.\Generated_Source\PSoC4/CyLFClk.c **** 
1540:.\Generated_Source\PSoC4/CyLFClk.c **** 
1541:.\Generated_Source\PSoC4/CyLFClk.c ****     /*******************************************************************************
1542:.\Generated_Source\PSoC4/CyLFClk.c ****     * Function Name: CySysClkLfclkPosedgeCatch
1543:.\Generated_Source\PSoC4/CyLFClk.c ****     ********************************************************************************
1544:.\Generated_Source\PSoC4/CyLFClk.c ****     *
1545:.\Generated_Source\PSoC4/CyLFClk.c ****     * Summary:
1546:.\Generated_Source\PSoC4/CyLFClk.c ****     *  Returns once the LFCLK positive edge occurred.
1547:.\Generated_Source\PSoC4/CyLFClk.c ****     *
1548:.\Generated_Source\PSoC4/CyLFClk.c ****     *  CySysClkLfclkPosedgeRestore() should be called after this function
1549:.\Generated_Source\PSoC4/CyLFClk.c ****     *  to restore the WDT configuration.
1550:.\Generated_Source\PSoC4/CyLFClk.c ****     *
1551:.\Generated_Source\PSoC4/CyLFClk.c ****     *  A pair of the CySysClkLfclkPosedgeCatch() and CySysClkLfclkPosedgeRestore()
1552:.\Generated_Source\PSoC4/CyLFClk.c ****     *  functions is expected to be called inside a critical section.
1553:.\Generated_Source\PSoC4/CyLFClk.c ****     *
1554:.\Generated_Source\PSoC4/CyLFClk.c ****     *  To ensure that the WDT counter value is read until it changes, the enabled
1555:.\Generated_Source\PSoC4/CyLFClk.c ****     *  WDT counter is used. If no counter is enabled, counter 0 is enabled.
1556:.\Generated_Source\PSoC4/CyLFClk.c ****     *  And after the LFCLK source is switched, the counter 0 configuration
1557:.\Generated_Source\PSoC4/CyLFClk.c ****     *  is restored.
1558:.\Generated_Source\PSoC4/CyLFClk.c ****     *
1559:.\Generated_Source\PSoC4/CyLFClk.c ****     *  Not applicable for the PSoC 4000 devices.
1560:.\Generated_Source\PSoC4/CyLFClk.c ****     *
1561:.\Generated_Source\PSoC4/CyLFClk.c ****     * Parameters:
1562:.\Generated_Source\PSoC4/CyLFClk.c ****     *  None.
1563:.\Generated_Source\PSoC4/CyLFClk.c ****     *
1564:.\Generated_Source\PSoC4/CyLFClk.c ****     * Return:
1565:.\Generated_Source\PSoC4/CyLFClk.c ****     *  None.
1566:.\Generated_Source\PSoC4/CyLFClk.c ****     *
1567:.\Generated_Source\PSoC4/CyLFClk.c ****     * Side Effects:
1568:.\Generated_Source\PSoC4/CyLFClk.c ****     *  This function has no effect if WDT is locked (CySysWdtLock() is
1569:.\Generated_Source\PSoC4/CyLFClk.c ****     *  called). Call CySysWdtUnlock() to unlock WDT.
1570:.\Generated_Source\PSoC4/CyLFClk.c ****     *
1571:.\Generated_Source\PSoC4/CyLFClk.c ****     *******************************************************************************/
1572:.\Generated_Source\PSoC4/CyLFClk.c ****     static void CySysClkLfclkPosedgeCatch(void)
1573:.\Generated_Source\PSoC4/CyLFClk.c ****     {
1574:.\Generated_Source\PSoC4/CyLFClk.c ****         uint32 firstCount;
1575:.\Generated_Source\PSoC4/CyLFClk.c ****         static uint32 lfclkPosedgeEnabledWdtCounter = 0u;
1576:.\Generated_Source\PSoC4/CyLFClk.c **** 
1577:.\Generated_Source\PSoC4/CyLFClk.c ****         if (0u != CySysWdtGetEnabledStatus(CY_SYS_WDT_COUNTER0))
 946              		.loc 1 1577 0
 947 0026 9A07     		lsl	r2, r3, #30
 948 0028 02D5     		bpl	.L118
ARM GAS  C:\Users\SDEVAS~1\AppData\Local\Temp\cchvSIah.s 			page 46


1578:.\Generated_Source\PSoC4/CyLFClk.c ****         {
1579:.\Generated_Source\PSoC4/CyLFClk.c ****             lfclkPosedgeEnabledWdtCounter = CY_SYS_WDT_COUNTER0;
 949              		.loc 1 1579 0
 950 002a 009A     		ldr	r2, [sp]
 951 002c 2260     		str	r2, [r4]
 952 002e 19E0     		b	.L105
 953              	.L118:
 954              	.LVL78:
 955              	.LBB84:
 956              	.LBB85:
 496:.\Generated_Source\PSoC4/CyLFClk.c ****         return ((CY_SYS_WDT_CONTROL_REG >> ((CY_SYS_WDT_CNT_SHIFT * counterNum) + CY_SYS_WDT_CNT_ST
 957              		.loc 1 496 0
 958 0030 3368     		ldr	r3, [r6]
 959 0032 5B0A     		lsr	r3, r3, #9
 960              	.LBE85:
 961              	.LBE84:
1580:.\Generated_Source\PSoC4/CyLFClk.c ****         }
1581:.\Generated_Source\PSoC4/CyLFClk.c ****         else if (0u != CySysWdtGetEnabledStatus(CY_SYS_WDT_COUNTER1))
 962              		.loc 1 1581 0
 963 0034 2B42     		tst	r3, r5
 964 0036 01D0     		beq	.L106
1582:.\Generated_Source\PSoC4/CyLFClk.c ****         {
1583:.\Generated_Source\PSoC4/CyLFClk.c ****             lfclkPosedgeEnabledWdtCounter = CY_SYS_WDT_COUNTER1;
 965              		.loc 1 1583 0
 966 0038 2560     		str	r5, [r4]
 967 003a 13E0     		b	.L105
 968              	.L106:
 969              	.LVL79:
 970              	.LBB86:
 971              	.LBB87:
 496:.\Generated_Source\PSoC4/CyLFClk.c ****         return ((CY_SYS_WDT_CONTROL_REG >> ((CY_SYS_WDT_CNT_SHIFT * counterNum) + CY_SYS_WDT_CNT_ST
 972              		.loc 1 496 0
 973 003c 3168     		ldr	r1, [r6]
 974 003e 490C     		lsr	r1, r1, #17
 975 0040 2940     		and	r1, r5
 976              	.LBE87:
 977              	.LBE86:
1584:.\Generated_Source\PSoC4/CyLFClk.c ****         }
1585:.\Generated_Source\PSoC4/CyLFClk.c ****         else if (0u != CySysWdtGetEnabledStatus(CY_SYS_WDT_COUNTER2))
 978              		.loc 1 1585 0
 979 0042 02D0     		beq	.L107
1586:.\Generated_Source\PSoC4/CyLFClk.c ****         {
1587:.\Generated_Source\PSoC4/CyLFClk.c ****             lfclkPosedgeEnabledWdtCounter = CY_SYS_WDT_COUNTER2;
 980              		.loc 1 1587 0
 981 0044 0223     		mov	r3, #2
 982 0046 2360     		str	r3, [r4]
 983 0048 0CE0     		b	.L105
 984              	.L107:
 985              	.LBB88:
 986              	.LBB89:
 562:.\Generated_Source\PSoC4/CyLFClk.c ****         return ((CY_SYS_WDT_CONFIG_REG >> (counterNum * CY_SYS_WDT_CNT_SHIFT)) & CY_SYS_WDT_MODE_MA
 987              		.loc 1 562 0
 988 004a 1A4B     		ldr	r3, .L119+16
 989              	.LBE89:
 990              	.LBE88:
1588:.\Generated_Source\PSoC4/CyLFClk.c ****         }
1589:.\Generated_Source\PSoC4/CyLFClk.c ****         else /* All WDT counters are disabled */
ARM GAS  C:\Users\SDEVAS~1\AppData\Local\Temp\cchvSIah.s 			page 47


1590:.\Generated_Source\PSoC4/CyLFClk.c ****         {
1591:.\Generated_Source\PSoC4/CyLFClk.c ****             /* Configure WDT counter # 0 */
1592:.\Generated_Source\PSoC4/CyLFClk.c ****             lfclkPosedgeWdtCounter0Enabled = 1u;
 991              		.loc 1 1592 0
 992 004c 6560     		str	r5, [r4, #4]
1593:.\Generated_Source\PSoC4/CyLFClk.c ****             lfclkPosedgeEnabledWdtCounter = CY_SYS_WDT_COUNTER0;
 993              		.loc 1 1593 0
 994 004e 2160     		str	r1, [r4]
 995              	.LVL80:
 996              	.LBB91:
 997              	.LBB90:
 562:.\Generated_Source\PSoC4/CyLFClk.c ****         return ((CY_SYS_WDT_CONFIG_REG >> (counterNum * CY_SYS_WDT_CNT_SHIFT)) & CY_SYS_WDT_MODE_MA
 998              		.loc 1 562 0
 999 0050 1A68     		ldr	r2, [r3]
 1000 0052 0323     		mov	r3, #3
 1001 0054 1340     		and	r3, r2
 1002              	.LBE90:
 1003              	.LBE91:
1594:.\Generated_Source\PSoC4/CyLFClk.c **** 
1595:.\Generated_Source\PSoC4/CyLFClk.c ****             lfclkPosedgeWdtCounter0Mode = CySysWdtGetMode(CY_SYS_WDT_COUNTER0);
1596:.\Generated_Source\PSoC4/CyLFClk.c ****             CySysWdtSetMode(CY_SYS_WDT_COUNTER0, CY_SYS_WDT_MODE_NONE);
 1004              		.loc 1 1596 0
 1005 0056 081C     		mov	r0, r1
1595:.\Generated_Source\PSoC4/CyLFClk.c ****             lfclkPosedgeWdtCounter0Mode = CySysWdtGetMode(CY_SYS_WDT_COUNTER0);
 1006              		.loc 1 1595 0
 1007 0058 A360     		str	r3, [r4, #8]
 1008              		.loc 1 1596 0
 1009 005a FFF7FEFF 		bl	CySysWdtSetMode
 1010              	.LVL81:
1597:.\Generated_Source\PSoC4/CyLFClk.c ****             CySysWdtEnable(CY_SYS_WDT_COUNTER0_MASK);
 1011              		.loc 1 1597 0
 1012 005e 281C     		mov	r0, r5
 1013 0060 FFF7FEFF 		bl	CySysWdtEnable
 1014              	.LVL82:
 1015              	.L105:
1598:.\Generated_Source\PSoC4/CyLFClk.c ****         }
1599:.\Generated_Source\PSoC4/CyLFClk.c **** 
1600:.\Generated_Source\PSoC4/CyLFClk.c ****         firstCount = CySysWdtGetCount(lfclkPosedgeEnabledWdtCounter);
 1016              		.loc 1 1600 0
 1017 0064 2568     		ldr	r5, [r4]
 1018 0066 281C     		mov	r0, r5
 1019 0068 FFF7FEFF 		bl	CySysWdtGetCount
 1020              	.LVL83:
 1021 006c 0090     		str	r0, [sp]
 1022              	.LVL84:
 1023              	.L109:
1601:.\Generated_Source\PSoC4/CyLFClk.c ****         while (CySysWdtGetCount(lfclkPosedgeEnabledWdtCounter) == firstCount)
 1024              		.loc 1 1601 0
 1025 006e 281C     		mov	r0, r5
 1026 0070 FFF7FEFF 		bl	CySysWdtGetCount
 1027              	.LVL85:
 1028 0074 009B     		ldr	r3, [sp]
 1029 0076 9842     		cmp	r0, r3
 1030 0078 F9D0     		beq	.L109
 1031              	.LBE92:
 1032              	.LBE93:
 114:.\Generated_Source\PSoC4/CyLFClk.c ****                 CY_SYS_CLK_ILO_CONFIG_REG &= ( uint32 ) ( ~( uint32 )CY_SYS_CLK_ILO_CONFIG_ENABLE);
ARM GAS  C:\Users\SDEVAS~1\AppData\Local\Temp\cchvSIah.s 			page 48


 1033              		.loc 1 114 0
 1034 007a 3B68     		ldr	r3, [r7]
 1035 007c 5B00     		lsl	r3, r3, #1
 1036 007e 5B08     		lsr	r3, r3, #1
 1037 0080 3B60     		str	r3, [r7]
 1038              	.LBB94:
 1039              	.LBB95:
1602:.\Generated_Source\PSoC4/CyLFClk.c ****         {
1603:.\Generated_Source\PSoC4/CyLFClk.c ****             /* Wait for counter to increment */
1604:.\Generated_Source\PSoC4/CyLFClk.c ****         }
1605:.\Generated_Source\PSoC4/CyLFClk.c ****     }
1606:.\Generated_Source\PSoC4/CyLFClk.c **** 
1607:.\Generated_Source\PSoC4/CyLFClk.c **** 
1608:.\Generated_Source\PSoC4/CyLFClk.c ****     /*******************************************************************************
1609:.\Generated_Source\PSoC4/CyLFClk.c ****     * Function Name: CySysClkLfclkPosedgeRestore
1610:.\Generated_Source\PSoC4/CyLFClk.c ****     ********************************************************************************
1611:.\Generated_Source\PSoC4/CyLFClk.c ****     *
1612:.\Generated_Source\PSoC4/CyLFClk.c ****     * Summary:
1613:.\Generated_Source\PSoC4/CyLFClk.c ****     *  Restores the WDT configuration after a CySysClkLfclkPosedgeCatch() call.
1614:.\Generated_Source\PSoC4/CyLFClk.c ****     *
1615:.\Generated_Source\PSoC4/CyLFClk.c ****     *  A pair of the CySysClkLfclkPosedgeCatch() and CySysClkLfclkPosedgeRestore()
1616:.\Generated_Source\PSoC4/CyLFClk.c ****     *  functions is expected to be called inside a critical section.
1617:.\Generated_Source\PSoC4/CyLFClk.c ****     *
1618:.\Generated_Source\PSoC4/CyLFClk.c ****     *  Not applicable for the PSoC 4000 devices.
1619:.\Generated_Source\PSoC4/CyLFClk.c ****     *
1620:.\Generated_Source\PSoC4/CyLFClk.c ****     * Parameters:
1621:.\Generated_Source\PSoC4/CyLFClk.c ****     *  None.
1622:.\Generated_Source\PSoC4/CyLFClk.c ****     *
1623:.\Generated_Source\PSoC4/CyLFClk.c ****     * Return:
1624:.\Generated_Source\PSoC4/CyLFClk.c ****     *  None.
1625:.\Generated_Source\PSoC4/CyLFClk.c ****     *
1626:.\Generated_Source\PSoC4/CyLFClk.c ****     * Side Effects:
1627:.\Generated_Source\PSoC4/CyLFClk.c ****     *  This function has no effect if WDT is locked (CySysWdtLock() is
1628:.\Generated_Source\PSoC4/CyLFClk.c ****     *  called). Call CySysWdtUnlock() to unlock WDT.
1629:.\Generated_Source\PSoC4/CyLFClk.c ****     *
1630:.\Generated_Source\PSoC4/CyLFClk.c ****     *******************************************************************************/
1631:.\Generated_Source\PSoC4/CyLFClk.c ****     static void CySysClkLfclkPosedgeRestore(void)
1632:.\Generated_Source\PSoC4/CyLFClk.c ****     {
1633:.\Generated_Source\PSoC4/CyLFClk.c ****         if (lfclkPosedgeWdtCounter0Enabled != 0u)
 1040              		.loc 1 1633 0
 1041 0082 6268     		ldr	r2, [r4, #4]
 1042 0084 002A     		cmp	r2, #0
 1043 0086 09D0     		beq	.L110
1634:.\Generated_Source\PSoC4/CyLFClk.c ****         {
1635:.\Generated_Source\PSoC4/CyLFClk.c ****             /* Restore counter # 0 configuration and force its shutdown */
1636:.\Generated_Source\PSoC4/CyLFClk.c ****             CY_SYS_WDT_CONTROL_REG &= (uint32)(~CY_SYS_WDT_COUNTER0_MASK);
 1044              		.loc 1 1636 0
 1045 0088 3368     		ldr	r3, [r6]
 1046 008a 0122     		mov	r2, #1
 1047 008c 9343     		bic	r3, r2
 1048 008e 3360     		str	r3, [r6]
1637:.\Generated_Source\PSoC4/CyLFClk.c ****             CySysWdtSetMode(CY_SYS_WDT_COUNTER0, lfclkPosedgeWdtCounter0Mode);
 1049              		.loc 1 1637 0
 1050 0090 0020     		mov	r0, #0
 1051 0092 A168     		ldr	r1, [r4, #8]
 1052 0094 FFF7FEFF 		bl	CySysWdtSetMode
 1053              	.LVL86:
ARM GAS  C:\Users\SDEVAS~1\AppData\Local\Temp\cchvSIah.s 			page 49


1638:.\Generated_Source\PSoC4/CyLFClk.c ****             lfclkPosedgeWdtCounter0Enabled = 0u;
 1054              		.loc 1 1638 0
 1055 0098 0023     		mov	r3, #0
 1056 009a 6360     		str	r3, [r4, #4]
 1057              	.L110:
 1058              	.LBE95:
 1059              	.LBE94:
 116:.\Generated_Source\PSoC4/CyLFClk.c ****                 CyExitCriticalSection(interruptState);
 1060              		.loc 1 116 0
 1061 009c 0198     		ldr	r0, [sp, #4]
 1062 009e FFF7FEFF 		bl	CyExitCriticalSection
 1063              	.LVL87:
 1064              	.L102:
 131:.\Generated_Source\PSoC4/CyLFClk.c **** }
 1065              		.loc 1 131 0
 1066              		@ sp needed
 1067 00a2 F7BD     		pop	{r0, r1, r2, r4, r5, r6, r7, pc}
 1068              	.L120:
 1069              		.align	2
 1070              	.L119:
 1071 00a4 00010B40 		.word	1074462976
 1072 00a8 04010B40 		.word	1074462980
 1073 00ac 10020B40 		.word	1074463248
 1074 00b0 00000000 		.word	.LANCHOR0
 1075 00b4 0C020B40 		.word	1074463244
 1076              		.cfi_endproc
 1077              	.LFE1:
 1078              		.size	CySysClkIloStop, .-CySysClkIloStop
 1079              		.section	.text.CySysWdtGetInterruptSource,"ax",%progbits
 1080              		.align	1
 1081              		.global	CySysWdtGetInterruptSource
 1082              		.code	16
 1083              		.thumb_func
 1084              		.type	CySysWdtGetInterruptSource, %function
 1085              	CySysWdtGetInterruptSource:
 1086              	.LFB20:
1022:.\Generated_Source\PSoC4/CyLFClk.c ****     {
 1087              		.loc 1 1022 0
 1088              		.cfi_startproc
1023:.\Generated_Source\PSoC4/CyLFClk.c ****         return (CY_SYS_WDT_CONTROL_REG & (CY_SYS_WDT_COUNTER0_INT | CY_SYS_WDT_COUNTER1_INT | CY_SY
 1089              		.loc 1 1023 0
 1090 0000 024B     		ldr	r3, .L122
1024:.\Generated_Source\PSoC4/CyLFClk.c ****     }
 1091              		.loc 1 1024 0
 1092              		@ sp needed
1023:.\Generated_Source\PSoC4/CyLFClk.c ****         return (CY_SYS_WDT_CONTROL_REG & (CY_SYS_WDT_COUNTER0_INT | CY_SYS_WDT_COUNTER1_INT | CY_SY
 1093              		.loc 1 1023 0
 1094 0002 1868     		ldr	r0, [r3]
 1095 0004 024B     		ldr	r3, .L122+4
 1096 0006 1840     		and	r0, r3
1024:.\Generated_Source\PSoC4/CyLFClk.c ****     }
 1097              		.loc 1 1024 0
 1098 0008 7047     		bx	lr
 1099              	.L123:
 1100 000a C046     		.align	2
 1101              	.L122:
 1102 000c 10020B40 		.word	1074463248
ARM GAS  C:\Users\SDEVAS~1\AppData\Local\Temp\cchvSIah.s 			page 50


 1103 0010 04040400 		.word	263172
 1104              		.cfi_endproc
 1105              	.LFE20:
 1106              		.size	CySysWdtGetInterruptSource, .-CySysWdtGetInterruptSource
 1107              		.section	.text.CySysWdtClearInterrupt,"ax",%progbits
 1108              		.align	1
 1109              		.global	CySysWdtClearInterrupt
 1110              		.code	16
 1111              		.thumb_func
 1112              		.type	CySysWdtClearInterrupt, %function
 1113              	CySysWdtClearInterrupt:
 1114              	.LFB21:
1056:.\Generated_Source\PSoC4/CyLFClk.c ****     {
 1115              		.loc 1 1056 0
 1116              		.cfi_startproc
 1117              	.LVL88:
 1118 0000 38B5     		push	{r3, r4, r5, lr}
 1119              		.cfi_def_cfa_offset 16
 1120              		.cfi_offset 3, -16
 1121              		.cfi_offset 4, -12
 1122              		.cfi_offset 5, -8
 1123              		.cfi_offset 14, -4
1056:.\Generated_Source\PSoC4/CyLFClk.c ****     {
 1124              		.loc 1 1056 0
 1125 0002 041C     		mov	r4, r0
1060:.\Generated_Source\PSoC4/CyLFClk.c ****         interruptState = CyEnterCriticalSection();
 1126              		.loc 1 1060 0
 1127 0004 FFF7FEFF 		bl	CyEnterCriticalSection
 1128              	.LVL89:
 1129              	.LBB98:
 1130              	.LBB99:
 437:.\Generated_Source\PSoC4/CyLFClk.c ****         return ((0u != (CY_SYS_CLK_SELECT_REG & (uint32)(CY_SYS_WDT_CLK_LOCK_BITS_MASK))) ? (uint32
 1131              		.loc 1 437 0
 1132 0008 0D4B     		ldr	r3, .L129
 1133 000a C022     		mov	r2, #192
 1134 000c 1B68     		ldr	r3, [r3]
 1135 000e 1202     		lsl	r2, r2, #8
 1136              	.LBE99:
 1137              	.LBE98:
1060:.\Generated_Source\PSoC4/CyLFClk.c ****         interruptState = CyEnterCriticalSection();
 1138              		.loc 1 1060 0
 1139 0010 051C     		mov	r5, r0
 1140              	.LVL90:
 1141              	.LBB101:
 1142              	.LBB100:
 437:.\Generated_Source\PSoC4/CyLFClk.c ****         return ((0u != (CY_SYS_CLK_SELECT_REG & (uint32)(CY_SYS_WDT_CLK_LOCK_BITS_MASK))) ? (uint32
 1143              		.loc 1 437 0
 1144 0012 1A40     		and	r2, r3
 1145 0014 10D1     		bne	.L125
 1146              	.LVL91:
 1147              	.L127:
 1148              	.LBE100:
 1149              	.LBE101:
1077:.\Generated_Source\PSoC4/CyLFClk.c ****         CY_SYS_WDT_CONTROL_REG = counterMask | (CY_SYS_WDT_CONTROL_REG & ~(CY_SYS_WDT_COUNTER0_INT 
 1150              		.loc 1 1077 0
 1151 0016 0B4B     		ldr	r3, .L129+4
1073:.\Generated_Source\PSoC4/CyLFClk.c ****         counterMask &= (CY_SYS_WDT_COUNTER0_INT |
ARM GAS  C:\Users\SDEVAS~1\AppData\Local\Temp\cchvSIah.s 			page 51


 1152              		.loc 1 1073 0
 1153 0018 0B49     		ldr	r1, .L129+8
1077:.\Generated_Source\PSoC4/CyLFClk.c ****         CY_SYS_WDT_CONTROL_REG = counterMask | (CY_SYS_WDT_CONTROL_REG & ~(CY_SYS_WDT_COUNTER0_INT 
 1154              		.loc 1 1077 0
 1155 001a 1868     		ldr	r0, [r3]
1073:.\Generated_Source\PSoC4/CyLFClk.c ****         counterMask &= (CY_SYS_WDT_COUNTER0_INT |
 1156              		.loc 1 1073 0
 1157 001c 0C40     		and	r4, r1
 1158              	.LVL92:
1077:.\Generated_Source\PSoC4/CyLFClk.c ****         CY_SYS_WDT_CONTROL_REG = counterMask | (CY_SYS_WDT_CONTROL_REG & ~(CY_SYS_WDT_COUNTER0_INT 
 1159              		.loc 1 1077 0
 1160 001e 0B49     		ldr	r1, .L129+12
 1161 0020 0140     		and	r1, r0
 1162 0022 0C43     		orr	r4, r1
 1163              	.LVL93:
 1164 0024 1C60     		str	r4, [r3]
1084:.\Generated_Source\PSoC4/CyLFClk.c ****         (void)CY_SYS_WDT_CONTROL_REG;
 1165              		.loc 1 1084 0
 1166 0026 1B68     		ldr	r3, [r3]
1086:.\Generated_Source\PSoC4/CyLFClk.c ****         if (1u == wdtLockState)
 1167              		.loc 1 1086 0
 1168 0028 012A     		cmp	r2, #1
 1169 002a 01D1     		bne	.L126
 1170              	.LVL94:
1088:.\Generated_Source\PSoC4/CyLFClk.c ****             CySysWdtLock();
 1171              		.loc 1 1088 0
 1172 002c FFF7FEFF 		bl	CySysWdtLock
 1173              	.LVL95:
 1174              	.L126:
1091:.\Generated_Source\PSoC4/CyLFClk.c ****         CyExitCriticalSection(interruptState);
 1175              		.loc 1 1091 0
 1176 0030 281C     		mov	r0, r5
 1177 0032 FFF7FEFF 		bl	CyExitCriticalSection
 1178              	.LVL96:
1092:.\Generated_Source\PSoC4/CyLFClk.c ****     }
 1179              		.loc 1 1092 0
 1180              		@ sp needed
 1181              	.LVL97:
 1182 0036 38BD     		pop	{r3, r4, r5, pc}
 1183              	.LVL98:
 1184              	.L125:
1065:.\Generated_Source\PSoC4/CyLFClk.c ****             CySysWdtUnlock();
 1185              		.loc 1 1065 0
 1186 0038 FFF7FEFF 		bl	CySysWdtUnlock
 1187              	.LVL99:
1064:.\Generated_Source\PSoC4/CyLFClk.c ****             wdtLockState = 1u;
 1188              		.loc 1 1064 0
 1189 003c 0122     		mov	r2, #1
 1190 003e EAE7     		b	.L127
 1191              	.L130:
 1192              		.align	2
 1193              	.L129:
 1194 0040 00010B40 		.word	1074462976
 1195 0044 10020B40 		.word	1074463248
 1196 0048 04040400 		.word	263172
 1197 004c FBFBFBFF 		.word	-263173
 1198              		.cfi_endproc
ARM GAS  C:\Users\SDEVAS~1\AppData\Local\Temp\cchvSIah.s 			page 52


 1199              	.LFE21:
 1200              		.size	CySysWdtClearInterrupt, .-CySysWdtClearInterrupt
 1201              		.section	.text.CySysWdtResetCounters,"ax",%progbits
 1202              		.align	1
 1203              		.global	CySysWdtResetCounters
 1204              		.code	16
 1205              		.thumb_func
 1206              		.type	CySysWdtResetCounters, %function
 1207              	CySysWdtResetCounters:
 1208              	.LFB22:
1120:.\Generated_Source\PSoC4/CyLFClk.c ****     {
 1209              		.loc 1 1120 0
 1210              		.cfi_startproc
 1211              	.LVL100:
1122:.\Generated_Source\PSoC4/CyLFClk.c ****         CY_SYS_WDT_CONTROL_REG |= (countersMask & CY_SYS_WDT_COUNTERS_RESET);
 1212              		.loc 1 1122 0
 1213 0000 044B     		ldr	r3, .L134
 1214 0002 054A     		ldr	r2, .L134+4
 1215 0004 1968     		ldr	r1, [r3]
 1216 0006 1040     		and	r0, r2
 1217              	.LVL101:
 1218 0008 0843     		orr	r0, r1
 1219 000a 1860     		str	r0, [r3]
 1220              	.L133:
1124:.\Generated_Source\PSoC4/CyLFClk.c ****         while (0uL != (CY_SYS_WDT_CONTROL_REG & CY_SYS_WDT_COUNTERS_RESET))
 1221              		.loc 1 1124 0 discriminator 1
 1222 000c 1968     		ldr	r1, [r3]
 1223 000e 1142     		tst	r1, r2
 1224 0010 FCD1     		bne	.L133
1128:.\Generated_Source\PSoC4/CyLFClk.c ****     }
 1225              		.loc 1 1128 0
 1226              		@ sp needed
 1227 0012 7047     		bx	lr
 1228              	.L135:
 1229              		.align	2
 1230              	.L134:
 1231 0014 10020B40 		.word	1074463248
 1232 0018 08080800 		.word	526344
 1233              		.cfi_endproc
 1234              	.LFE22:
 1235              		.size	CySysWdtResetCounters, .-CySysWdtResetCounters
 1236              		.section	.text.CySysWdtSetInterruptCallback,"ax",%progbits
 1237              		.align	1
 1238              		.global	CySysWdtSetInterruptCallback
 1239              		.code	16
 1240              		.thumb_func
 1241              		.type	CySysWdtSetInterruptCallback, %function
 1242              	CySysWdtSetInterruptCallback:
 1243              	.LFB23:
1149:.\Generated_Source\PSoC4/CyLFClk.c ****     {
 1244              		.loc 1 1149 0
 1245              		.cfi_startproc
 1246              	.LVL102:
1152:.\Generated_Source\PSoC4/CyLFClk.c ****         if(counterNum < CY_WDT_NUM_OF_WDT)
 1247              		.loc 1 1152 0
 1248 0000 0228     		cmp	r0, #2
 1249 0002 05D8     		bhi	.L138
ARM GAS  C:\Users\SDEVAS~1\AppData\Local\Temp\cchvSIah.s 			page 53


1154:.\Generated_Source\PSoC4/CyLFClk.c ****             prevCallback = cySysWdtCallback[counterNum];
 1250              		.loc 1 1154 0
 1251 0004 034B     		ldr	r3, .L139
 1252 0006 8000     		lsl	r0, r0, #2
 1253              	.LVL103:
 1254 0008 1B18     		add	r3, r3, r0
 1255 000a D868     		ldr	r0, [r3, #12]
 1256              	.LVL104:
1155:.\Generated_Source\PSoC4/CyLFClk.c ****             cySysWdtCallback[counterNum] = function;
 1257              		.loc 1 1155 0
 1258 000c D960     		str	r1, [r3, #12]
 1259 000e 00E0     		b	.L137
 1260              	.LVL105:
 1261              	.L138:
1150:.\Generated_Source\PSoC4/CyLFClk.c ****         cyWdtCallback prevCallback = (void *)0;
 1262              		.loc 1 1150 0
 1263 0010 0020     		mov	r0, #0
 1264              	.LVL106:
 1265              	.L137:
1163:.\Generated_Source\PSoC4/CyLFClk.c ****     }
 1266              		.loc 1 1163 0
 1267              		@ sp needed
 1268 0012 7047     		bx	lr
 1269              	.L140:
 1270              		.align	2
 1271              	.L139:
 1272 0014 00000000 		.word	.LANCHOR0
 1273              		.cfi_endproc
 1274              	.LFE23:
 1275              		.size	CySysWdtSetInterruptCallback, .-CySysWdtSetInterruptCallback
 1276              		.section	.text.CySysWdtGetInterruptCallback,"ax",%progbits
 1277              		.align	1
 1278              		.global	CySysWdtGetInterruptCallback
 1279              		.code	16
 1280              		.thumb_func
 1281              		.type	CySysWdtGetInterruptCallback, %function
 1282              	CySysWdtGetInterruptCallback:
 1283              	.LFB24:
1182:.\Generated_Source\PSoC4/CyLFClk.c ****     {
 1284              		.loc 1 1182 0
 1285              		.cfi_startproc
 1286              	.LVL107:
1185:.\Generated_Source\PSoC4/CyLFClk.c ****         if(counterNum < CY_WDT_NUM_OF_WDT)
 1287              		.loc 1 1185 0
 1288 0000 0228     		cmp	r0, #2
 1289 0002 04D8     		bhi	.L143
1187:.\Generated_Source\PSoC4/CyLFClk.c ****             retCallback = (cyWdtCallback)cySysWdtCallback[counterNum];
 1290              		.loc 1 1187 0
 1291 0004 034B     		ldr	r3, .L144
 1292 0006 8000     		lsl	r0, r0, #2
 1293              	.LVL108:
 1294 0008 1818     		add	r0, r3, r0
 1295 000a C068     		ldr	r0, [r0, #12]
 1296              	.LVL109:
 1297 000c 00E0     		b	.L142
 1298              	.LVL110:
 1299              	.L143:
ARM GAS  C:\Users\SDEVAS~1\AppData\Local\Temp\cchvSIah.s 			page 54


1183:.\Generated_Source\PSoC4/CyLFClk.c ****         cyWdtCallback retCallback = (void *)0;
 1300              		.loc 1 1183 0
 1301 000e 0020     		mov	r0, #0
 1302              	.LVL111:
 1303              	.L142:
1195:.\Generated_Source\PSoC4/CyLFClk.c ****     }
 1304              		.loc 1 1195 0
 1305              		@ sp needed
 1306 0010 7047     		bx	lr
 1307              	.L145:
 1308 0012 C046     		.align	2
 1309              	.L144:
 1310 0014 00000000 		.word	.LANCHOR0
 1311              		.cfi_endproc
 1312              	.LFE24:
 1313              		.size	CySysWdtGetInterruptCallback, .-CySysWdtGetInterruptCallback
 1314              		.section	.text.CySysWdtEnableCounterIsr,"ax",%progbits
 1315              		.align	1
 1316              		.global	CySysWdtEnableCounterIsr
 1317              		.code	16
 1318              		.thumb_func
 1319              		.type	CySysWdtEnableCounterIsr, %function
 1320              	CySysWdtEnableCounterIsr:
 1321              	.LFB25:
1210:.\Generated_Source\PSoC4/CyLFClk.c ****     {
 1322              		.loc 1 1210 0
 1323              		.cfi_startproc
 1324              	.LVL112:
1211:.\Generated_Source\PSoC4/CyLFClk.c ****         if(counterNum <= CY_SYS_WDT_COUNTER2)
 1325              		.loc 1 1211 0
 1326 0000 0228     		cmp	r0, #2
 1327 0002 0AD8     		bhi	.L146
1213:.\Generated_Source\PSoC4/CyLFClk.c ****             disableServicedIsr &= ~counterIntMaskTbl[counterNum];
 1328              		.loc 1 1213 0
 1329 0004 054B     		ldr	r3, .L148
 1330 0006 064A     		ldr	r2, .L148+4
 1331 0008 8000     		lsl	r0, r0, #2
 1332              	.LVL113:
 1333 000a 9969     		ldr	r1, [r3, #24]
 1334 000c 8258     		ldr	r2, [r0, r2]
 1335 000e 9143     		bic	r1, r2
 1336 0010 9961     		str	r1, [r3, #24]
1214:.\Generated_Source\PSoC4/CyLFClk.c ****             wdtIsrMask |= counterIntMaskTbl[counterNum];
 1337              		.loc 1 1214 0
 1338 0012 044B     		ldr	r3, .L148+8
 1339 0014 1968     		ldr	r1, [r3]
 1340 0016 0A43     		orr	r2, r1
 1341 0018 1A60     		str	r2, [r3]
 1342              	.L146:
1220:.\Generated_Source\PSoC4/CyLFClk.c ****     }
 1343              		.loc 1 1220 0
 1344              		@ sp needed
 1345 001a 7047     		bx	lr
 1346              	.L149:
 1347              		.align	2
 1348              	.L148:
 1349 001c 00000000 		.word	.LANCHOR0
ARM GAS  C:\Users\SDEVAS~1\AppData\Local\Temp\cchvSIah.s 			page 55


 1350 0020 00000000 		.word	.LANCHOR1
 1351 0024 00000000 		.word	.LANCHOR2
 1352              		.cfi_endproc
 1353              	.LFE25:
 1354              		.size	CySysWdtEnableCounterIsr, .-CySysWdtEnableCounterIsr
 1355              		.section	.text.CySysWdtDisableCounterIsr,"ax",%progbits
 1356              		.align	1
 1357              		.global	CySysWdtDisableCounterIsr
 1358              		.code	16
 1359              		.thumb_func
 1360              		.type	CySysWdtDisableCounterIsr, %function
 1361              	CySysWdtDisableCounterIsr:
 1362              	.LFB26:
1235:.\Generated_Source\PSoC4/CyLFClk.c ****     {
 1363              		.loc 1 1235 0
 1364              		.cfi_startproc
 1365              	.LVL114:
1236:.\Generated_Source\PSoC4/CyLFClk.c ****         if(counterNum <= CY_SYS_WDT_COUNTER2)
 1366              		.loc 1 1236 0
 1367 0000 0228     		cmp	r0, #2
 1368 0002 06D8     		bhi	.L150
1238:.\Generated_Source\PSoC4/CyLFClk.c ****             wdtIsrMask &= ~counterIntMaskTbl[counterNum];
 1369              		.loc 1 1238 0
 1370 0004 034B     		ldr	r3, .L152
 1371 0006 0449     		ldr	r1, .L152+4
 1372 0008 8000     		lsl	r0, r0, #2
 1373              	.LVL115:
 1374 000a 1A68     		ldr	r2, [r3]
 1375 000c 4158     		ldr	r1, [r0, r1]
 1376 000e 8A43     		bic	r2, r1
 1377 0010 1A60     		str	r2, [r3]
 1378              	.L150:
1244:.\Generated_Source\PSoC4/CyLFClk.c ****     }
 1379              		.loc 1 1244 0
 1380              		@ sp needed
 1381 0012 7047     		bx	lr
 1382              	.L153:
 1383              		.align	2
 1384              	.L152:
 1385 0014 00000000 		.word	.LANCHOR2
 1386 0018 00000000 		.word	.LANCHOR1
 1387              		.cfi_endproc
 1388              	.LFE26:
 1389              		.size	CySysWdtDisableCounterIsr, .-CySysWdtDisableCounterIsr
 1390              		.section	.text.CySysWdtIsr,"ax",%progbits
 1391              		.align	1
 1392              		.global	CySysWdtIsr
 1393              		.code	16
 1394              		.thumb_func
 1395              		.type	CySysWdtIsr, %function
 1396              	CySysWdtIsr:
 1397              	.LFB27:
1273:.\Generated_Source\PSoC4/CyLFClk.c ****     {
 1398              		.loc 1 1273 0
 1399              		.cfi_startproc
 1400 0000 38B5     		push	{r3, r4, r5, lr}
 1401              		.cfi_def_cfa_offset 16
ARM GAS  C:\Users\SDEVAS~1\AppData\Local\Temp\cchvSIah.s 			page 56


 1402              		.cfi_offset 3, -16
 1403              		.cfi_offset 4, -12
 1404              		.cfi_offset 5, -8
 1405              		.cfi_offset 14, -4
1274:.\Generated_Source\PSoC4/CyLFClk.c ****         if(0u != (CY_SYS_WDT_COUNTER0_INT & CY_SYS_WDT_CONTROL_REG))
 1406              		.loc 1 1274 0
 1407 0002 234C     		ldr	r4, .L186
 1408 0004 0422     		mov	r2, #4
 1409 0006 2368     		ldr	r3, [r4]
 1410 0008 1342     		tst	r3, r2
 1411 000a 13D0     		beq	.L155
1276:.\Generated_Source\PSoC4/CyLFClk.c ****             if(0u != (CY_SYS_WDT_COUNTER0_INT & wdtIsrMask))
 1412              		.loc 1 1276 0
 1413 000c 2149     		ldr	r1, .L186+4
 1414 000e 0B68     		ldr	r3, [r1]
 1415 0010 1342     		tst	r3, r2
 1416 0012 0CD0     		beq	.L157
1278:.\Generated_Source\PSoC4/CyLFClk.c ****                 wdtIsrMask &= ~(disableServicedIsr & CY_SYS_WDT_COUNTER0_INT);
 1417              		.loc 1 1278 0
 1418 0014 204B     		ldr	r3, .L186+8
 1419 0016 0868     		ldr	r0, [r1]
 1420 0018 9D69     		ldr	r5, [r3, #24]
 1421 001a 1540     		and	r5, r2
 1422 001c A843     		bic	r0, r5
 1423 001e 0860     		str	r0, [r1]
1279:.\Generated_Source\PSoC4/CyLFClk.c ****                 disableServicedIsr  &= ~CY_SYS_WDT_COUNTER0_INT;
 1424              		.loc 1 1279 0
 1425 0020 9969     		ldr	r1, [r3, #24]
 1426 0022 9143     		bic	r1, r2
 1427 0024 9961     		str	r1, [r3, #24]
1280:.\Generated_Source\PSoC4/CyLFClk.c ****                 if(cySysWdtCallback[CY_SYS_WDT_COUNTER0] != (void *) 0)
 1428              		.loc 1 1280 0
 1429 0026 DB68     		ldr	r3, [r3, #12]
 1430 0028 002B     		cmp	r3, #0
 1431 002a 00D0     		beq	.L157
1282:.\Generated_Source\PSoC4/CyLFClk.c ****                     (void)(cySysWdtCallback[CY_SYS_WDT_COUNTER0])();
 1432              		.loc 1 1282 0
 1433 002c 9847     		blx	r3
 1434              	.LVL116:
 1435              	.L157:
1285:.\Generated_Source\PSoC4/CyLFClk.c ****             CySysWdtClearInterrupt(CY_SYS_WDT_COUNTER0_INT);
 1436              		.loc 1 1285 0
 1437 002e 0420     		mov	r0, #4
 1438 0030 FFF7FEFF 		bl	CySysWdtClearInterrupt
 1439              	.LVL117:
 1440              	.L155:
1288:.\Generated_Source\PSoC4/CyLFClk.c ****         if(0u != (CY_SYS_WDT_COUNTER1_INT & CY_SYS_WDT_CONTROL_REG))
 1441              		.loc 1 1288 0
 1442 0034 8021     		mov	r1, #128
 1443 0036 2368     		ldr	r3, [r4]
 1444 0038 C900     		lsl	r1, r1, #3
 1445 003a 0B42     		tst	r3, r1
 1446 003c 15D0     		beq	.L159
1290:.\Generated_Source\PSoC4/CyLFClk.c ****             if(0u != (CY_SYS_WDT_COUNTER1_INT & wdtIsrMask))
 1447              		.loc 1 1290 0
 1448 003e 154A     		ldr	r2, .L186+4
 1449 0040 1368     		ldr	r3, [r2]
ARM GAS  C:\Users\SDEVAS~1\AppData\Local\Temp\cchvSIah.s 			page 57


 1450 0042 0B42     		tst	r3, r1
 1451 0044 0DD0     		beq	.L161
1292:.\Generated_Source\PSoC4/CyLFClk.c ****                 wdtIsrMask &= ~(disableServicedIsr & CY_SYS_WDT_COUNTER1_INT);
 1452              		.loc 1 1292 0
 1453 0046 144B     		ldr	r3, .L186+8
 1454 0048 1068     		ldr	r0, [r2]
 1455 004a 9D69     		ldr	r5, [r3, #24]
 1456 004c 2940     		and	r1, r5
 1457 004e 8843     		bic	r0, r1
 1458 0050 1060     		str	r0, [r2]
1293:.\Generated_Source\PSoC4/CyLFClk.c ****                 disableServicedIsr  &= ~CY_SYS_WDT_COUNTER1_INT;
 1459              		.loc 1 1293 0
 1460 0052 9969     		ldr	r1, [r3, #24]
 1461 0054 114A     		ldr	r2, .L186+12
 1462 0056 0A40     		and	r2, r1
 1463 0058 9A61     		str	r2, [r3, #24]
1294:.\Generated_Source\PSoC4/CyLFClk.c ****                 if(cySysWdtCallback[CY_SYS_WDT_COUNTER1] != (void *) 0)
 1464              		.loc 1 1294 0
 1465 005a 1B69     		ldr	r3, [r3, #16]
 1466 005c 002B     		cmp	r3, #0
 1467 005e 00D0     		beq	.L161
1296:.\Generated_Source\PSoC4/CyLFClk.c ****                     (void)(cySysWdtCallback[CY_SYS_WDT_COUNTER1])();
 1468              		.loc 1 1296 0
 1469 0060 9847     		blx	r3
 1470              	.LVL118:
 1471              	.L161:
1299:.\Generated_Source\PSoC4/CyLFClk.c ****             CySysWdtClearInterrupt(CY_SYS_WDT_COUNTER1_INT);
 1472              		.loc 1 1299 0
 1473 0062 8020     		mov	r0, #128
 1474 0064 C000     		lsl	r0, r0, #3
 1475 0066 FFF7FEFF 		bl	CySysWdtClearInterrupt
 1476              	.LVL119:
 1477              	.L159:
1302:.\Generated_Source\PSoC4/CyLFClk.c ****         if(0u != (CY_SYS_WDT_COUNTER2_INT & CY_SYS_WDT_CONTROL_REG))
 1478              		.loc 1 1302 0
 1479 006a 8023     		mov	r3, #128
 1480 006c 2268     		ldr	r2, [r4]
 1481 006e DB02     		lsl	r3, r3, #11
 1482 0070 1A42     		tst	r2, r3
 1483 0072 0CD0     		beq	.L154
1304:.\Generated_Source\PSoC4/CyLFClk.c ****             if(0u != (CY_SYS_WDT_COUNTER2_INT & wdtIsrMask))
 1484              		.loc 1 1304 0
 1485 0074 074A     		ldr	r2, .L186+4
 1486 0076 1268     		ldr	r2, [r2]
 1487 0078 1A42     		tst	r2, r3
 1488 007a 04D0     		beq	.L164
1306:.\Generated_Source\PSoC4/CyLFClk.c ****                 if(cySysWdtCallback[CY_SYS_WDT_COUNTER2] != (void *) 0)
 1489              		.loc 1 1306 0
 1490 007c 064B     		ldr	r3, .L186+8
 1491 007e 5B69     		ldr	r3, [r3, #20]
 1492 0080 002B     		cmp	r3, #0
 1493 0082 00D0     		beq	.L164
1308:.\Generated_Source\PSoC4/CyLFClk.c ****                     (void)(cySysWdtCallback[CY_SYS_WDT_COUNTER2])();
 1494              		.loc 1 1308 0
 1495 0084 9847     		blx	r3
 1496              	.LVL120:
 1497              	.L164:
ARM GAS  C:\Users\SDEVAS~1\AppData\Local\Temp\cchvSIah.s 			page 58


1311:.\Generated_Source\PSoC4/CyLFClk.c ****             CySysWdtClearInterrupt(CY_SYS_WDT_COUNTER2_INT);
 1498              		.loc 1 1311 0
 1499 0086 8020     		mov	r0, #128
 1500 0088 C002     		lsl	r0, r0, #11
 1501 008a FFF7FEFF 		bl	CySysWdtClearInterrupt
 1502              	.LVL121:
 1503              	.L154:
1313:.\Generated_Source\PSoC4/CyLFClk.c ****     }
 1504              		.loc 1 1313 0
 1505              		@ sp needed
 1506 008e 38BD     		pop	{r3, r4, r5, pc}
 1507              	.L187:
 1508              		.align	2
 1509              	.L186:
 1510 0090 10020B40 		.word	1074463248
 1511 0094 00000000 		.word	.LANCHOR2
 1512 0098 00000000 		.word	.LANCHOR0
 1513 009c FFFBFFFF 		.word	-1025
 1514              		.cfi_endproc
 1515              	.LFE27:
 1516              		.size	CySysWdtIsr, .-CySysWdtIsr
 1517              		.section	.text.CySysTimerDelayUntilMatch,"ax",%progbits
 1518              		.align	1
 1519              		.global	CySysTimerDelayUntilMatch
 1520              		.code	16
 1521              		.thumb_func
 1522              		.type	CySysTimerDelayUntilMatch, %function
 1523              	CySysTimerDelayUntilMatch:
 1524              	.LFB29:
1448:.\Generated_Source\PSoC4/CyLFClk.c ****     {
 1525              		.loc 1 1448 0
 1526              		.cfi_startproc
 1527              	.LVL122:
 1528 0000 70B5     		push	{r4, r5, r6, lr}
 1529              		.cfi_def_cfa_offset 16
 1530              		.cfi_offset 4, -16
 1531              		.cfi_offset 5, -12
 1532              		.cfi_offset 6, -8
 1533              		.cfi_offset 14, -4
1448:.\Generated_Source\PSoC4/CyLFClk.c ****     {
 1534              		.loc 1 1448 0
 1535 0002 041C     		mov	r4, r0
 1536 0004 0E1C     		mov	r6, r1
 1537 0006 151C     		mov	r5, r2
1451:.\Generated_Source\PSoC4/CyLFClk.c ****         if((counterNum < CY_SYS_WDT_COUNTER2) && (0uL == CySysWdtGetClearOnMatch(counterNum)) && (m
 1538              		.loc 1 1451 0
 1539 0008 0128     		cmp	r0, #1
 1540 000a 22D8     		bhi	.L188
1451:.\Generated_Source\PSoC4/CyLFClk.c ****         if((counterNum < CY_SYS_WDT_COUNTER2) && (0uL == CySysWdtGetClearOnMatch(counterNum)) && (m
 1541              		.loc 1 1451 0 is_stmt 0 discriminator 1
 1542 000c FFF7FEFF 		bl	CySysWdtGetClearOnMatch
 1543              	.LVL123:
 1544 0010 0028     		cmp	r0, #0
 1545 0012 1ED1     		bne	.L188
 1546 0014 0F4B     		ldr	r3, .L196
 1547 0016 9D42     		cmp	r5, r3
 1548 0018 1BD8     		bhi	.L188
ARM GAS  C:\Users\SDEVAS~1\AppData\Local\Temp\cchvSIah.s 			page 59


1453:.\Generated_Source\PSoC4/CyLFClk.c ****             if(delayType == CY_SYS_TIMER_WAIT)
 1549              		.loc 1 1453 0 is_stmt 1
 1550 001a 002E     		cmp	r6, #0
 1551 001c 0AD1     		bne	.L192
 1552              	.L194:
1457:.\Generated_Source\PSoC4/CyLFClk.c ****                     tmpValue = CySysWdtGetCount(counterNum);
 1553              		.loc 1 1457 0
 1554 001e 201C     		mov	r0, r4
 1555 0020 FFF7FEFF 		bl	CySysWdtGetCount
 1556              	.LVL124:
1458:.\Generated_Source\PSoC4/CyLFClk.c ****                 }while(tmpValue > match);
 1557              		.loc 1 1458 0
 1558 0024 A842     		cmp	r0, r5
 1559 0026 FAD8     		bhi	.L194
 1560              	.L195:
1462:.\Generated_Source\PSoC4/CyLFClk.c ****                     tmpValue = CySysWdtGetCount(counterNum);
 1561              		.loc 1 1462 0
 1562 0028 201C     		mov	r0, r4
 1563              	.LVL125:
 1564 002a FFF7FEFF 		bl	CySysWdtGetCount
 1565              	.LVL126:
1463:.\Generated_Source\PSoC4/CyLFClk.c ****                 }while(tmpValue < match);
 1566              		.loc 1 1463 0
 1567 002e A842     		cmp	r0, r5
 1568 0030 FAD3     		bcc	.L195
 1569 0032 0EE0     		b	.L188
 1570              	.LVL127:
 1571              	.L192:
1467:.\Generated_Source\PSoC4/CyLFClk.c ****                 tmpValue = counterIntMaskTbl[counterNum];
 1572              		.loc 1 1467 0
 1573 0034 084B     		ldr	r3, .L196+4
 1574 0036 A200     		lsl	r2, r4, #2
1468:.\Generated_Source\PSoC4/CyLFClk.c ****                 CySysWdtSetMatch(counterNum, match);
 1575              		.loc 1 1468 0
 1576 0038 201C     		mov	r0, r4
 1577 003a 291C     		mov	r1, r5
1467:.\Generated_Source\PSoC4/CyLFClk.c ****                 tmpValue = counterIntMaskTbl[counterNum];
 1578              		.loc 1 1467 0
 1579 003c D658     		ldr	r6, [r2, r3]
 1580              	.LVL128:
1468:.\Generated_Source\PSoC4/CyLFClk.c ****                 CySysWdtSetMatch(counterNum, match);
 1581              		.loc 1 1468 0
 1582 003e FFF7FEFF 		bl	CySysWdtSetMatch
 1583              	.LVL129:
1470:.\Generated_Source\PSoC4/CyLFClk.c ****                 disableServicedIsr  |= tmpValue;
 1584              		.loc 1 1470 0
 1585 0042 064B     		ldr	r3, .L196+8
 1586 0044 9A69     		ldr	r2, [r3, #24]
 1587 0046 3243     		orr	r2, r6
 1588 0048 9A61     		str	r2, [r3, #24]
1471:.\Generated_Source\PSoC4/CyLFClk.c ****                 wdtIsrMask |= tmpValue;
 1589              		.loc 1 1471 0
 1590 004a 054B     		ldr	r3, .L196+12
 1591 004c 1A68     		ldr	r2, [r3]
 1592 004e 1643     		orr	r6, r2
 1593              	.LVL130:
 1594 0050 1E60     		str	r6, [r3]
ARM GAS  C:\Users\SDEVAS~1\AppData\Local\Temp\cchvSIah.s 			page 60


 1595              	.LVL131:
 1596              	.L188:
1478:.\Generated_Source\PSoC4/CyLFClk.c ****     }
 1597              		.loc 1 1478 0
 1598              		@ sp needed
 1599              	.LVL132:
 1600              	.LVL133:
 1601 0052 70BD     		pop	{r4, r5, r6, pc}
 1602              	.L197:
 1603              		.align	2
 1604              	.L196:
 1605 0054 FFFF0000 		.word	65535
 1606 0058 00000000 		.word	.LANCHOR1
 1607 005c 00000000 		.word	.LANCHOR0
 1608 0060 00000000 		.word	.LANCHOR2
 1609              		.cfi_endproc
 1610              	.LFE29:
 1611              		.size	CySysTimerDelayUntilMatch, .-CySysTimerDelayUntilMatch
 1612              		.section	.text.CySysTimerDelay,"ax",%progbits
 1613              		.align	1
 1614              		.global	CySysTimerDelay
 1615              		.code	16
 1616              		.thumb_func
 1617              		.type	CySysTimerDelay, %function
 1618              	CySysTimerDelay:
 1619              	.LFB28:
1372:.\Generated_Source\PSoC4/CyLFClk.c ****     {
 1620              		.loc 1 1372 0
 1621              		.cfi_startproc
 1622              	.LVL134:
 1623 0000 70B5     		push	{r4, r5, r6, lr}
 1624              		.cfi_def_cfa_offset 16
 1625              		.cfi_offset 4, -16
 1626              		.cfi_offset 5, -12
 1627              		.cfi_offset 6, -8
 1628              		.cfi_offset 14, -4
1372:.\Generated_Source\PSoC4/CyLFClk.c ****     {
 1629              		.loc 1 1372 0
 1630 0002 041C     		mov	r4, r0
 1631 0004 0E1C     		mov	r6, r1
 1632 0006 151C     		mov	r5, r2
1376:.\Generated_Source\PSoC4/CyLFClk.c ****         if((counterNum < CY_SYS_WDT_COUNTER2) && (0uL == CySysWdtGetClearOnMatch(counterNum)) && (d
 1633              		.loc 1 1376 0
 1634 0008 0128     		cmp	r0, #1
 1635 000a 0FD8     		bhi	.L198
1376:.\Generated_Source\PSoC4/CyLFClk.c ****         if((counterNum < CY_SYS_WDT_COUNTER2) && (0uL == CySysWdtGetClearOnMatch(counterNum)) && (d
 1636              		.loc 1 1376 0 is_stmt 0 discriminator 1
 1637 000c FFF7FEFF 		bl	CySysWdtGetClearOnMatch
 1638              	.LVL135:
 1639 0010 0028     		cmp	r0, #0
 1640 0012 0BD1     		bne	.L198
 1641 0014 064B     		ldr	r3, .L202
 1642 0016 9D42     		cmp	r5, r3
 1643 0018 08D8     		bhi	.L198
1378:.\Generated_Source\PSoC4/CyLFClk.c ****             regValue   = CySysWdtGetCount(counterNum);
 1644              		.loc 1 1378 0 is_stmt 1
 1645 001a 201C     		mov	r0, r4
ARM GAS  C:\Users\SDEVAS~1\AppData\Local\Temp\cchvSIah.s 			page 61


 1646 001c FFF7FEFF 		bl	CySysWdtGetCount
 1647              	.LVL136:
1379:.\Generated_Source\PSoC4/CyLFClk.c ****             matchValue = (regValue + delay) & (uint32)UINT16_MAX_VAL;
 1648              		.loc 1 1379 0
 1649 0020 4519     		add	r5, r0, r5
 1650              	.LVL137:
 1651 0022 AAB2     		uxth	r2, r5
1381:.\Generated_Source\PSoC4/CyLFClk.c ****             CySysTimerDelayUntilMatch(counterNum, delayType, matchValue);
 1652              		.loc 1 1381 0
 1653 0024 201C     		mov	r0, r4
 1654              	.LVL138:
 1655 0026 311C     		mov	r1, r6
 1656 0028 FFF7FEFF 		bl	CySysTimerDelayUntilMatch
 1657              	.LVL139:
 1658              	.L198:
1387:.\Generated_Source\PSoC4/CyLFClk.c ****     }
 1659              		.loc 1 1387 0
 1660              		@ sp needed
 1661              	.LVL140:
 1662 002c 70BD     		pop	{r4, r5, r6, pc}
 1663              	.L203:
 1664 002e C046     		.align	2
 1665              	.L202:
 1666 0030 FFFF0000 		.word	65535
 1667              		.cfi_endproc
 1668              	.LFE28:
 1669              		.size	CySysTimerDelay, .-CySysTimerDelay
 1670              		.section	.text.CySysWatchdogFeed,"ax",%progbits
 1671              		.align	1
 1672              		.global	CySysWatchdogFeed
 1673              		.code	16
 1674              		.thumb_func
 1675              		.type	CySysWatchdogFeed, %function
 1676              	CySysWatchdogFeed:
 1677              	.LFB30:
1501:.\Generated_Source\PSoC4/CyLFClk.c ****     {
 1678              		.loc 1 1501 0
 1679              		.cfi_startproc
 1680              	.LVL141:
 1681 0000 10B5     		push	{r4, lr}
 1682              		.cfi_def_cfa_offset 8
 1683              		.cfi_offset 4, -8
 1684              		.cfi_offset 14, -4
1501:.\Generated_Source\PSoC4/CyLFClk.c ****     {
 1685              		.loc 1 1501 0
 1686 0002 041E     		sub	r4, r0, #0
1502:.\Generated_Source\PSoC4/CyLFClk.c ****         if(counterNum == CY_SYS_WDT_COUNTER0)
 1687              		.loc 1 1502 0
 1688 0004 0DD1     		bne	.L205
1504:.\Generated_Source\PSoC4/CyLFClk.c ****             if(CY_SYS_WDT_MODE_INT_RESET == CySysWdtGetMode(counterNum))
 1689              		.loc 1 1504 0
 1690 0006 FFF7FEFF 		bl	CySysWdtGetMode
 1691              	.LVL142:
 1692 000a 0328     		cmp	r0, #3
 1693 000c 07D0     		beq	.L213
1508:.\Generated_Source\PSoC4/CyLFClk.c ****             else if(CY_SYS_WDT_MODE_RESET == CySysWdtGetMode(counterNum))
 1694              		.loc 1 1508 0
ARM GAS  C:\Users\SDEVAS~1\AppData\Local\Temp\cchvSIah.s 			page 62


 1695 000e 201C     		mov	r0, r4
 1696 0010 FFF7FEFF 		bl	CySysWdtGetMode
 1697              	.LVL143:
 1698 0014 0228     		cmp	r0, #2
 1699 0016 17D1     		bne	.L204
1510:.\Generated_Source\PSoC4/CyLFClk.c ****                 CySysWdtResetCounters(CY_SYS_WDT_COUNTER0_RESET);
 1700              		.loc 1 1510 0
 1701 0018 0820     		mov	r0, #8
 1702 001a FFF7FEFF 		bl	CySysWdtResetCounters
 1703              	.LVL144:
 1704              	.L213:
1511:.\Generated_Source\PSoC4/CyLFClk.c ****                 CySysWdtClearInterrupt(CY_SYS_WDT_COUNTER0_MASK);
 1705              		.loc 1 1511 0
 1706 001e 0120     		mov	r0, #1
 1707 0020 10E0     		b	.L211
 1708              	.LVL145:
 1709              	.L205:
1518:.\Generated_Source\PSoC4/CyLFClk.c ****         else if(counterNum == CY_SYS_WDT_COUNTER1)
 1710              		.loc 1 1518 0
 1711 0022 0128     		cmp	r0, #1
 1712 0024 10D1     		bne	.L204
1520:.\Generated_Source\PSoC4/CyLFClk.c ****             if(CY_SYS_WDT_MODE_INT_RESET == CySysWdtGetMode(counterNum))
 1713              		.loc 1 1520 0
 1714 0026 FFF7FEFF 		bl	CySysWdtGetMode
 1715              	.LVL146:
 1716 002a 0328     		cmp	r0, #3
 1717 002c 08D0     		beq	.L212
1524:.\Generated_Source\PSoC4/CyLFClk.c ****             else if(CY_SYS_WDT_MODE_RESET == CySysWdtGetMode(counterNum))
 1718              		.loc 1 1524 0
 1719 002e 201C     		mov	r0, r4
 1720 0030 FFF7FEFF 		bl	CySysWdtGetMode
 1721              	.LVL147:
 1722 0034 0228     		cmp	r0, #2
 1723 0036 07D1     		bne	.L204
1526:.\Generated_Source\PSoC4/CyLFClk.c ****                 CySysWdtResetCounters(CY_SYS_WDT_COUNTER1_RESET);
 1724              		.loc 1 1526 0
 1725 0038 8020     		mov	r0, #128
 1726 003a 0001     		lsl	r0, r0, #4
 1727 003c FFF7FEFF 		bl	CySysWdtResetCounters
 1728              	.LVL148:
 1729              	.L212:
1527:.\Generated_Source\PSoC4/CyLFClk.c ****                 CySysWdtClearInterrupt(CY_SYS_WDT_COUNTER1_MASK);
 1730              		.loc 1 1527 0
 1731 0040 8020     		mov	r0, #128
 1732 0042 4000     		lsl	r0, r0, #1
 1733              	.L211:
 1734 0044 FFF7FEFF 		bl	CySysWdtClearInterrupt
 1735              	.LVL149:
 1736              	.L204:
1538:.\Generated_Source\PSoC4/CyLFClk.c ****     }
 1737              		.loc 1 1538 0
 1738              		@ sp needed
 1739              	.LVL150:
 1740 0048 10BD     		pop	{r4, pc}
 1741              		.cfi_endproc
 1742              	.LFE30:
 1743              		.size	CySysWatchdogFeed, .-CySysWatchdogFeed
ARM GAS  C:\Users\SDEVAS~1\AppData\Local\Temp\cchvSIah.s 			page 63


 1744              		.section	.rodata
 1745              		.align	2
 1746              		.set	.LANCHOR1,. + 0
 1747              		.type	counterIntMaskTbl, %object
 1748              		.size	counterIntMaskTbl, 12
 1749              	counterIntMaskTbl:
 1750 0000 04000000 		.word	4
 1751 0004 00040000 		.word	1024
 1752 0008 00000400 		.word	262144
 1753              		.data
 1754              		.align	2
 1755              		.set	.LANCHOR2,. + 0
 1756              		.type	wdtIsrMask, %object
 1757              		.size	wdtIsrMask, 4
 1758              	wdtIsrMask:
 1759 0000 04040400 		.word	263172
 1760              		.bss
 1761              		.align	2
 1762              		.set	.LANCHOR0,. + 0
 1763              		.type	lfclkPosedgeEnabledWdtCounter.4839, %object
 1764              		.size	lfclkPosedgeEnabledWdtCounter.4839, 4
 1765              	lfclkPosedgeEnabledWdtCounter.4839:
 1766 0000 00000000 		.space	4
 1767              		.type	lfclkPosedgeWdtCounter0Enabled, %object
 1768              		.size	lfclkPosedgeWdtCounter0Enabled, 4
 1769              	lfclkPosedgeWdtCounter0Enabled:
 1770 0004 00000000 		.space	4
 1771              		.type	lfclkPosedgeWdtCounter0Mode, %object
 1772              		.size	lfclkPosedgeWdtCounter0Mode, 4
 1773              	lfclkPosedgeWdtCounter0Mode:
 1774 0008 00000000 		.space	4
 1775              		.type	cySysWdtCallback, %object
 1776              		.size	cySysWdtCallback, 12
 1777              	cySysWdtCallback:
 1778 000c 00000000 		.space	12
 1778      00000000 
 1778      00000000 
 1779              		.type	disableServicedIsr, %object
 1780              		.size	disableServicedIsr, 4
 1781              	disableServicedIsr:
 1782 0018 00000000 		.space	4
 1783              		.text
 1784              	.Letext0:
 1785              		.file 2 ".\\Generated_Source\\PSoC4\\cytypes.h"
 1786              		.file 3 ".\\Generated_Source\\PSoC4\\CyLFClk.h"
 1787              		.file 4 ".\\Generated_Source\\PSoC4\\CyLib.h"