ARM GAS  C:\Users\SDEVAS~1\AppData\Local\Temp\cchvSIah.s 			page 1


   1              		.cpu cortex-m0
   2              		.fpu softvfp
   3              		.eabi_attribute 20, 1
   4              		.eabi_attribute 21, 1
   5              		.eabi_attribute 23, 3
   6              		.eabi_attribute 24, 1
   7              		.eabi_attribute 25, 1
   8              		.eabi_attribute 26, 1
   9              		.eabi_attribute 30, 4
  10              		.eabi_attribute 34, 0
  11              		.eabi_attribute 18, 4
  12              		.code	16
  13              		.file	"CyLFClk.c"
  14              		.text
  15              	.Ltext0:
  16              		.cfi_sections	.debug_frame
  17              		.section	.text.CySysClkIloStart,"ax",%progbits
  18              		.align	1
  19              		.global	CySysClkIloStart
  20              		.code	16
  21              		.thumb_func
  22              		.type	CySysClkIloStart, %function
  23              	CySysClkIloStart:
  24              	.LFB0:
  25              		.file 1 ".\\Generated_Source\\PSoC4\\CyLFClk.c"
   1:.\Generated_Source\PSoC4/CyLFClk.c **** /*******************************************************************************
   2:.\Generated_Source\PSoC4/CyLFClk.c **** * File Name: .c
   3:.\Generated_Source\PSoC4/CyLFClk.c **** * Version 1.0
   4:.\Generated_Source\PSoC4/CyLFClk.c **** *
   5:.\Generated_Source\PSoC4/CyLFClk.c **** * Description:
   6:.\Generated_Source\PSoC4/CyLFClk.c **** *  This file provides the source code to API for the cy_lfclk Component.
   7:.\Generated_Source\PSoC4/CyLFClk.c **** *
   8:.\Generated_Source\PSoC4/CyLFClk.c **** ********************************************************************************
   9:.\Generated_Source\PSoC4/CyLFClk.c **** * Copyright 2008-2015, Cypress Semiconductor Corporation.  All rights reserved.
  10:.\Generated_Source\PSoC4/CyLFClk.c **** * You may use this file only in accordance with the license, terms, conditions,
  11:.\Generated_Source\PSoC4/CyLFClk.c **** * disclaimers, and limitations in the end user license agreement accompanying
  12:.\Generated_Source\PSoC4/CyLFClk.c **** * the software package with which this file was provided.
  13:.\Generated_Source\PSoC4/CyLFClk.c **** *******************************************************************************/
  14:.\Generated_Source\PSoC4/CyLFClk.c **** 
  15:.\Generated_Source\PSoC4/CyLFClk.c **** 
  16:.\Generated_Source\PSoC4/CyLFClk.c **** #include "CyLFClk.h"
  17:.\Generated_Source\PSoC4/CyLFClk.c **** #include "CyLib.h"
  18:.\Generated_Source\PSoC4/CyLFClk.c **** 
  19:.\Generated_Source\PSoC4/CyLFClk.c **** 
  20:.\Generated_Source\PSoC4/CyLFClk.c **** #if (CY_IP_WCO)
  21:.\Generated_Source\PSoC4/CyLFClk.c ****     static uint32 CySysClkGetLfclkSource(void);
  22:.\Generated_Source\PSoC4/CyLFClk.c **** #endif /* (CY_IP_WCO) */
  23:.\Generated_Source\PSoC4/CyLFClk.c **** 
  24:.\Generated_Source\PSoC4/CyLFClk.c **** #if(CY_IP_SRSSV2)
  25:.\Generated_Source\PSoC4/CyLFClk.c ****     /* CySysClkLfclkPosedgeCatch() / CySysClkLfclkPosedgeRestore() */
  26:.\Generated_Source\PSoC4/CyLFClk.c ****     static uint32 lfclkPosedgeWdtCounter0Enabled = 0u;
  27:.\Generated_Source\PSoC4/CyLFClk.c ****     static uint32 lfclkPosedgeWdtCounter0Mode    = CY_SYS_WDT_MODE_NONE;
  28:.\Generated_Source\PSoC4/CyLFClk.c **** 
  29:.\Generated_Source\PSoC4/CyLFClk.c ****     static volatile uint32 disableServicedIsr = 0uL;
  30:.\Generated_Source\PSoC4/CyLFClk.c ****     static volatile uint32 wdtIsrMask = CY_SYS_WDT_COUNTER0_INT |\
  31:.\Generated_Source\PSoC4/CyLFClk.c ****                                         CY_SYS_WDT_COUNTER1_INT |\
  32:.\Generated_Source\PSoC4/CyLFClk.c ****                                         CY_SYS_WDT_COUNTER2_INT;
ARM GAS  C:\Users\SDEVAS~1\AppData\Local\Temp\cchvSIah.s 			page 2


  33:.\Generated_Source\PSoC4/CyLFClk.c **** 
  34:.\Generated_Source\PSoC4/CyLFClk.c ****     static const uint32 counterIntMaskTbl[CY_WDT_NUM_OF_WDT] = {CY_SYS_WDT_COUNTER0_INT,
  35:.\Generated_Source\PSoC4/CyLFClk.c ****                                                                 CY_SYS_WDT_COUNTER1_INT,
  36:.\Generated_Source\PSoC4/CyLFClk.c ****                                                                 CY_SYS_WDT_COUNTER2_INT};
  37:.\Generated_Source\PSoC4/CyLFClk.c **** 
  38:.\Generated_Source\PSoC4/CyLFClk.c ****     static void CySysClkLfclkPosedgeCatch(void);
  39:.\Generated_Source\PSoC4/CyLFClk.c ****     static void CySysClkLfclkPosedgeRestore(void);
  40:.\Generated_Source\PSoC4/CyLFClk.c **** 
  41:.\Generated_Source\PSoC4/CyLFClk.c ****     static uint32 CySysWdtLocked(void);
  42:.\Generated_Source\PSoC4/CyLFClk.c ****     static uint32 CySysClkIloEnabled(void);
  43:.\Generated_Source\PSoC4/CyLFClk.c **** #endif /* (CY_IP_SRSSV2) */
  44:.\Generated_Source\PSoC4/CyLFClk.c **** 
  45:.\Generated_Source\PSoC4/CyLFClk.c **** #if(CY_IP_SRSSV2)
  46:.\Generated_Source\PSoC4/CyLFClk.c ****     static cyWdtCallback cySysWdtCallback[CY_WDT_NUM_OF_WDT] = {(void *)0, (void *)0, (void *)0};
  47:.\Generated_Source\PSoC4/CyLFClk.c **** #else
  48:.\Generated_Source\PSoC4/CyLFClk.c ****     static cyWdtCallback cySysWdtCallback = (void *)0;
  49:.\Generated_Source\PSoC4/CyLFClk.c **** #endif /* (CY_IP_SRSSV2) */
  50:.\Generated_Source\PSoC4/CyLFClk.c **** 
  51:.\Generated_Source\PSoC4/CyLFClk.c **** /*******************************************************************************
  52:.\Generated_Source\PSoC4/CyLFClk.c **** * Function Name: CySysClkIloStart
  53:.\Generated_Source\PSoC4/CyLFClk.c **** ********************************************************************************
  54:.\Generated_Source\PSoC4/CyLFClk.c **** *
  55:.\Generated_Source\PSoC4/CyLFClk.c **** * Summary:
  56:.\Generated_Source\PSoC4/CyLFClk.c **** *  Enables ILO. Refer to the device datasheet for the ILO startup time.
  57:.\Generated_Source\PSoC4/CyLFClk.c **** *
  58:.\Generated_Source\PSoC4/CyLFClk.c **** * Parameters:
  59:.\Generated_Source\PSoC4/CyLFClk.c **** *  None
  60:.\Generated_Source\PSoC4/CyLFClk.c **** *
  61:.\Generated_Source\PSoC4/CyLFClk.c **** * Return:
  62:.\Generated_Source\PSoC4/CyLFClk.c **** *  None
  63:.\Generated_Source\PSoC4/CyLFClk.c **** *
  64:.\Generated_Source\PSoC4/CyLFClk.c **** *******************************************************************************/
  65:.\Generated_Source\PSoC4/CyLFClk.c **** void CySysClkIloStart(void)
  66:.\Generated_Source\PSoC4/CyLFClk.c **** {
  26              		.loc 1 66 0
  27              		.cfi_startproc
  67:.\Generated_Source\PSoC4/CyLFClk.c ****     CY_SYS_CLK_ILO_CONFIG_REG |= CY_SYS_CLK_ILO_CONFIG_ENABLE;
  28              		.loc 1 67 0
  29 0000 034B     		ldr	r3, .L2
  30 0002 8022     		mov	r2, #128
  31 0004 1968     		ldr	r1, [r3]
  32 0006 1206     		lsl	r2, r2, #24
  33 0008 0A43     		orr	r2, r1
  34 000a 1A60     		str	r2, [r3]
  68:.\Generated_Source\PSoC4/CyLFClk.c **** }
  35              		.loc 1 68 0
  36              		@ sp needed
  37 000c 7047     		bx	lr
  38              	.L3:
  39 000e C046     		.align	2
  40              	.L2:
  41 0010 04010B40 		.word	1074462980
  42              		.cfi_endproc
  43              	.LFE0:
  44              		.size	CySysClkIloStart, .-CySysClkIloStart
  45              		.section	.text.CySysWdtLock,"ax",%progbits
  46              		.align	1
ARM GAS  C:\Users\SDEVAS~1\AppData\Local\Temp\cchvSIah.s 			page 3


  47              		.global	CySysWdtLock
  48              		.code	16
  49              		.thumb_func
  50              		.type	CySysWdtLock, %function
  51              	CySysWdtLock:
  52              	.LFB3:
  69:.\Generated_Source\PSoC4/CyLFClk.c **** 
  70:.\Generated_Source\PSoC4/CyLFClk.c **** 
  71:.\Generated_Source\PSoC4/CyLFClk.c **** /*******************************************************************************
  72:.\Generated_Source\PSoC4/CyLFClk.c **** * Function Name: CySysClkIloStop
  73:.\Generated_Source\PSoC4/CyLFClk.c **** ********************************************************************************
  74:.\Generated_Source\PSoC4/CyLFClk.c **** *
  75:.\Generated_Source\PSoC4/CyLFClk.c **** * Summary:
  76:.\Generated_Source\PSoC4/CyLFClk.c **** *  Disables ILO.
  77:.\Generated_Source\PSoC4/CyLFClk.c **** *
  78:.\Generated_Source\PSoC4/CyLFClk.c **** * Parameters:
  79:.\Generated_Source\PSoC4/CyLFClk.c **** *  None.
  80:.\Generated_Source\PSoC4/CyLFClk.c **** *
  81:.\Generated_Source\PSoC4/CyLFClk.c **** * Return:
  82:.\Generated_Source\PSoC4/CyLFClk.c **** *  None.
  83:.\Generated_Source\PSoC4/CyLFClk.c **** *
  84:.\Generated_Source\PSoC4/CyLFClk.c **** * Side Effects:
  85:.\Generated_Source\PSoC4/CyLFClk.c **** *  This function has no effect if WDT is locked (CySysWdtLock() is
  86:.\Generated_Source\PSoC4/CyLFClk.c **** *  called). Call CySysWdtUnlock() to unlock WDT and stop ILO.
  87:.\Generated_Source\PSoC4/CyLFClk.c **** *
  88:.\Generated_Source\PSoC4/CyLFClk.c **** *  PSoC 4100 / PSoC 4200: Note that ILO is required for WDT's operation.
  89:.\Generated_Source\PSoC4/CyLFClk.c **** *  ILO is required for WDT operation.
  90:.\Generated_Source\PSoC4/CyLFClk.c **** *
  91:.\Generated_Source\PSoC4/CyLFClk.c **** *  PSoC 4100-BL / PSoC 4200-BL and PSoC 4100M / PSoC 4200M:
  92:.\Generated_Source\PSoC4/CyLFClk.c **** *  Stopping ILO affects the peripheral clocked by LFCLK, if
  93:.\Generated_Source\PSoC4/CyLFClk.c **** *  LFCLK is configured to be sourced by ILO.
  94:.\Generated_Source\PSoC4/CyLFClk.c **** *
  95:.\Generated_Source\PSoC4/CyLFClk.c **** *******************************************************************************/
  96:.\Generated_Source\PSoC4/CyLFClk.c **** void CySysClkIloStop(void)
  97:.\Generated_Source\PSoC4/CyLFClk.c **** {
  98:.\Generated_Source\PSoC4/CyLFClk.c ****     #if(CY_IP_SRSSV2)
  99:.\Generated_Source\PSoC4/CyLFClk.c ****         uint8  interruptState;
 100:.\Generated_Source\PSoC4/CyLFClk.c **** 
 101:.\Generated_Source\PSoC4/CyLFClk.c ****         /* Do nothing if WDT is locked or ILO is disabled */
 102:.\Generated_Source\PSoC4/CyLFClk.c ****         if (0u == CySysWdtLocked())
 103:.\Generated_Source\PSoC4/CyLFClk.c ****         {
 104:.\Generated_Source\PSoC4/CyLFClk.c ****             if (0u != CySysClkIloEnabled())
 105:.\Generated_Source\PSoC4/CyLFClk.c ****             {
 106:.\Generated_Source\PSoC4/CyLFClk.c **** 
 107:.\Generated_Source\PSoC4/CyLFClk.c ****             #if (CY_IP_WCO)
 108:.\Generated_Source\PSoC4/CyLFClk.c ****                 if (CY_SYS_CLK_LFCLK_SRC_ILO == CySysClkGetLfclkSource())
 109:.\Generated_Source\PSoC4/CyLFClk.c ****                 {
 110:.\Generated_Source\PSoC4/CyLFClk.c ****             #endif /* (CY_IP_WCO) */
 111:.\Generated_Source\PSoC4/CyLFClk.c **** 
 112:.\Generated_Source\PSoC4/CyLFClk.c ****                 interruptState = CyEnterCriticalSection();
 113:.\Generated_Source\PSoC4/CyLFClk.c ****                 CySysClkLfclkPosedgeCatch();
 114:.\Generated_Source\PSoC4/CyLFClk.c ****                 CY_SYS_CLK_ILO_CONFIG_REG &= ( uint32 ) ( ~( uint32 )CY_SYS_CLK_ILO_CONFIG_ENABLE);
 115:.\Generated_Source\PSoC4/CyLFClk.c ****                 CySysClkLfclkPosedgeRestore();
 116:.\Generated_Source\PSoC4/CyLFClk.c ****                 CyExitCriticalSection(interruptState);
 117:.\Generated_Source\PSoC4/CyLFClk.c **** 
 118:.\Generated_Source\PSoC4/CyLFClk.c ****             #if (CY_IP_WCO)
 119:.\Generated_Source\PSoC4/CyLFClk.c ****                 }
ARM GAS  C:\Users\SDEVAS~1\AppData\Local\Temp\cchvSIah.s 			page 4


 120:.\Generated_Source\PSoC4/CyLFClk.c ****                 else /* Safe to disable - shortened pulse does not impact peripheral */
 121:.\Generated_Source\PSoC4/CyLFClk.c ****                 {
 122:.\Generated_Source\PSoC4/CyLFClk.c ****                     CY_SYS_CLK_ILO_CONFIG_REG &= ( uint32 ) ( ~( uint32 )CY_SYS_CLK_ILO_CONFIG_ENAB
 123:.\Generated_Source\PSoC4/CyLFClk.c ****                 }
 124:.\Generated_Source\PSoC4/CyLFClk.c ****             #endif /* (CY_IP_WCO) */
 125:.\Generated_Source\PSoC4/CyLFClk.c **** 
 126:.\Generated_Source\PSoC4/CyLFClk.c ****             }
 127:.\Generated_Source\PSoC4/CyLFClk.c ****         }
 128:.\Generated_Source\PSoC4/CyLFClk.c ****     #else
 129:.\Generated_Source\PSoC4/CyLFClk.c ****         CY_SYS_CLK_ILO_CONFIG_REG &= ( uint32 ) ( ~( uint32 )CY_SYS_CLK_ILO_CONFIG_ENABLE);
 130:.\Generated_Source\PSoC4/CyLFClk.c ****     #endif /* (CY_IP_SRSSV2) */
 131:.\Generated_Source\PSoC4/CyLFClk.c **** }
 132:.\Generated_Source\PSoC4/CyLFClk.c **** 
 133:.\Generated_Source\PSoC4/CyLFClk.c **** #if(CY_IP_SRSSV2)
 134:.\Generated_Source\PSoC4/CyLFClk.c ****     /*******************************************************************************
 135:.\Generated_Source\PSoC4/CyLFClk.c ****     * Function Name: CySysClkIloEnabled
 136:.\Generated_Source\PSoC4/CyLFClk.c ****     ********************************************************************************
 137:.\Generated_Source\PSoC4/CyLFClk.c ****     *
 138:.\Generated_Source\PSoC4/CyLFClk.c ****     * Summary:
 139:.\Generated_Source\PSoC4/CyLFClk.c ****     *  Reports the ILO enable state.
 140:.\Generated_Source\PSoC4/CyLFClk.c ****     *
 141:.\Generated_Source\PSoC4/CyLFClk.c ****     * Parameters:
 142:.\Generated_Source\PSoC4/CyLFClk.c ****     *  None.
 143:.\Generated_Source\PSoC4/CyLFClk.c ****     *
 144:.\Generated_Source\PSoC4/CyLFClk.c ****     * Return:
 145:.\Generated_Source\PSoC4/CyLFClk.c ****     *  1 if ILO is enabled, and 0 if ILO is disabled.
 146:.\Generated_Source\PSoC4/CyLFClk.c ****     *
 147:.\Generated_Source\PSoC4/CyLFClk.c ****     *******************************************************************************/
 148:.\Generated_Source\PSoC4/CyLFClk.c ****     static uint32 CySysClkIloEnabled(void)
 149:.\Generated_Source\PSoC4/CyLFClk.c ****     {
 150:.\Generated_Source\PSoC4/CyLFClk.c ****         /* Prohibits writing to WDT registers and ILO/WCO registers when not equal to 0 */
 151:.\Generated_Source\PSoC4/CyLFClk.c ****         return ((0u != (CY_SYS_CLK_ILO_CONFIG_REG & (uint32)(CY_SYS_CLK_ILO_CONFIG_ENABLE))) ?
 152:.\Generated_Source\PSoC4/CyLFClk.c ****             (uint32) 1u :
 153:.\Generated_Source\PSoC4/CyLFClk.c ****             (uint32) 0u);
 154:.\Generated_Source\PSoC4/CyLFClk.c ****     }
 155:.\Generated_Source\PSoC4/CyLFClk.c **** #endif /* (CY_IP_SRSSV2) */
 156:.\Generated_Source\PSoC4/CyLFClk.c **** 
 157:.\Generated_Source\PSoC4/CyLFClk.c **** 
 158:.\Generated_Source\PSoC4/CyLFClk.c **** /*******************************************************************************
 159:.\Generated_Source\PSoC4/CyLFClk.c **** * Function Name: CySysClkGetLfclkSource
 160:.\Generated_Source\PSoC4/CyLFClk.c **** ********************************************************************************
 161:.\Generated_Source\PSoC4/CyLFClk.c **** *
 162:.\Generated_Source\PSoC4/CyLFClk.c **** * Summary:
 163:.\Generated_Source\PSoC4/CyLFClk.c **** *  Gets the clock source for the LFCLK clock.
 164:.\Generated_Source\PSoC4/CyLFClk.c **** *  The function is applicable only for PSoC 4100-BL and PSoC 4200-BL.
 165:.\Generated_Source\PSoC4/CyLFClk.c **** *
 166:.\Generated_Source\PSoC4/CyLFClk.c **** * Parameters:
 167:.\Generated_Source\PSoC4/CyLFClk.c **** *  None.
 168:.\Generated_Source\PSoC4/CyLFClk.c **** *
 169:.\Generated_Source\PSoC4/CyLFClk.c **** * Return:
 170:.\Generated_Source\PSoC4/CyLFClk.c **** *  The LFCLK source:
 171:.\Generated_Source\PSoC4/CyLFClk.c **** *   CY_SYS_CLK_LFCLK_SRC_ILO    Internal Low Frequency (32 kHz) Oscillator (ILO)
 172:.\Generated_Source\PSoC4/CyLFClk.c **** *   CY_SYS_CLK_LFCLK_SRC_WCO    Low Frequency Watch Crystal Oscillator (WCO)
 173:.\Generated_Source\PSoC4/CyLFClk.c **** *
 174:.\Generated_Source\PSoC4/CyLFClk.c **** *******************************************************************************/
 175:.\Generated_Source\PSoC4/CyLFClk.c **** #if (CY_IP_WCO)
 176:.\Generated_Source\PSoC4/CyLFClk.c ****     static uint32 CySysClkGetLfclkSource(void)
ARM GAS  C:\Users\SDEVAS~1\AppData\Local\Temp\cchvSIah.s 			page 5


 177:.\Generated_Source\PSoC4/CyLFClk.c ****     {
 178:.\Generated_Source\PSoC4/CyLFClk.c ****         uint32 lfclkSource;
 179:.\Generated_Source\PSoC4/CyLFClk.c ****         lfclkSource = CY_SYS_WDT_CONFIG_REG & CY_SYS_CLK_LFCLK_SEL_MASK;
 180:.\Generated_Source\PSoC4/CyLFClk.c ****         return (lfclkSource);
 181:.\Generated_Source\PSoC4/CyLFClk.c ****     }
 182:.\Generated_Source\PSoC4/CyLFClk.c **** #endif /* (CY_IP_WCO) */
 183:.\Generated_Source\PSoC4/CyLFClk.c **** 
 184:.\Generated_Source\PSoC4/CyLFClk.c **** 
 185:.\Generated_Source\PSoC4/CyLFClk.c **** /*******************************************************************************
 186:.\Generated_Source\PSoC4/CyLFClk.c **** * Function Name: CySysClkSetLfclkSource
 187:.\Generated_Source\PSoC4/CyLFClk.c **** ********************************************************************************
 188:.\Generated_Source\PSoC4/CyLFClk.c **** *
 189:.\Generated_Source\PSoC4/CyLFClk.c **** * Summary:
 190:.\Generated_Source\PSoC4/CyLFClk.c **** *  Sets the clock source for the LFCLK clock.
 191:.\Generated_Source\PSoC4/CyLFClk.c **** *
 192:.\Generated_Source\PSoC4/CyLFClk.c **** *  The switch between LFCLK sources must be done between the positive edges of
 193:.\Generated_Source\PSoC4/CyLFClk.c **** *  LFCLK, because the glitch risk is around the LFCLK positive edge. To ensure
 194:.\Generated_Source\PSoC4/CyLFClk.c **** *  that the switch can be done safely, the WDT counter value is read until it
 195:.\Generated_Source\PSoC4/CyLFClk.c **** *  changes.
 196:.\Generated_Source\PSoC4/CyLFClk.c **** *
 197:.\Generated_Source\PSoC4/CyLFClk.c **** *  That means that the positive edge just finished and the switch is performed.
 198:.\Generated_Source\PSoC4/CyLFClk.c **** *  The enabled WDT counter is used for that purpose. If no counters are enabled,
 199:.\Generated_Source\PSoC4/CyLFClk.c **** *  counter 0 is enabled. And after the LFCLK source is switched, counter 0
 200:.\Generated_Source\PSoC4/CyLFClk.c **** *  configuration is restored.
 201:.\Generated_Source\PSoC4/CyLFClk.c **** *
 202:.\Generated_Source\PSoC4/CyLFClk.c **** *  The function is applicable only for PSoC 4100-BL and PSoC 4200-BL.
 203:.\Generated_Source\PSoC4/CyLFClk.c **** *
 204:.\Generated_Source\PSoC4/CyLFClk.c **** * Parameters:
 205:.\Generated_Source\PSoC4/CyLFClk.c **** *  source: One of the available LFCLK sources.
 206:.\Generated_Source\PSoC4/CyLFClk.c **** *   CY_SYS_CLK_LFCLK_SRC_ILO    Internal Low Frequency (32 kHz) Oscillator (ILO)
 207:.\Generated_Source\PSoC4/CyLFClk.c **** *   CY_SYS_CLK_LFCLK_SRC_WCO    Low Frequency Watch Crystal Oscillator (WCO)
 208:.\Generated_Source\PSoC4/CyLFClk.c **** *
 209:.\Generated_Source\PSoC4/CyLFClk.c **** * Return:
 210:.\Generated_Source\PSoC4/CyLFClk.c **** *  None
 211:.\Generated_Source\PSoC4/CyLFClk.c **** *
 212:.\Generated_Source\PSoC4/CyLFClk.c **** * Side Effects:
 213:.\Generated_Source\PSoC4/CyLFClk.c **** *  This function has no effect if WDT is locked (CySysWdtLock() is
 214:.\Generated_Source\PSoC4/CyLFClk.c **** *  called). Call CySysWdtUnlock() to unlock WDT.
 215:.\Generated_Source\PSoC4/CyLFClk.c **** *
 216:.\Generated_Source\PSoC4/CyLFClk.c **** *  Both the current source and the new source must be running and stable before
 217:.\Generated_Source\PSoC4/CyLFClk.c **** *  calling this function.
 218:.\Generated_Source\PSoC4/CyLFClk.c **** *
 219:.\Generated_Source\PSoC4/CyLFClk.c **** *  Changing the LFCLK clock source may change the LFCLK clock frequency and
 220:.\Generated_Source\PSoC4/CyLFClk.c **** *  affect the functionality that uses this clock. For example, watchdog timer
 221:.\Generated_Source\PSoC4/CyLFClk.c **** *  "uses this clock" or "this clock uses" (WDT) is clocked by LFCLK.
 222:.\Generated_Source\PSoC4/CyLFClk.c **** *
 223:.\Generated_Source\PSoC4/CyLFClk.c **** *******************************************************************************/
 224:.\Generated_Source\PSoC4/CyLFClk.c **** #if (CY_IP_WCO)
 225:.\Generated_Source\PSoC4/CyLFClk.c ****     void CySysClkSetLfclkSource(uint32 source)
 226:.\Generated_Source\PSoC4/CyLFClk.c ****     {
 227:.\Generated_Source\PSoC4/CyLFClk.c ****         uint8  interruptState;
 228:.\Generated_Source\PSoC4/CyLFClk.c **** 
 229:.\Generated_Source\PSoC4/CyLFClk.c ****         if (CySysClkGetLfclkSource() != source)
 230:.\Generated_Source\PSoC4/CyLFClk.c ****         {
 231:.\Generated_Source\PSoC4/CyLFClk.c ****             interruptState = CyEnterCriticalSection();
 232:.\Generated_Source\PSoC4/CyLFClk.c **** 
 233:.\Generated_Source\PSoC4/CyLFClk.c ****             CySysClkLfclkPosedgeCatch();
ARM GAS  C:\Users\SDEVAS~1\AppData\Local\Temp\cchvSIah.s 			page 6


 234:.\Generated_Source\PSoC4/CyLFClk.c **** 
 235:.\Generated_Source\PSoC4/CyLFClk.c ****             CY_SYS_WDT_CONFIG_REG = (CY_SYS_WDT_CONFIG_REG & (uint32)(~CY_SYS_CLK_LFCLK_SEL_MASK)) 
 236:.\Generated_Source\PSoC4/CyLFClk.c ****                                     (source & CY_SYS_CLK_LFCLK_SEL_MASK);
 237:.\Generated_Source\PSoC4/CyLFClk.c **** 
 238:.\Generated_Source\PSoC4/CyLFClk.c ****             CySysClkLfclkPosedgeRestore();
 239:.\Generated_Source\PSoC4/CyLFClk.c **** 
 240:.\Generated_Source\PSoC4/CyLFClk.c ****             CyExitCriticalSection(interruptState);
 241:.\Generated_Source\PSoC4/CyLFClk.c ****         }
 242:.\Generated_Source\PSoC4/CyLFClk.c ****     }
 243:.\Generated_Source\PSoC4/CyLFClk.c **** #endif /* (CY_IP_WCO) */
 244:.\Generated_Source\PSoC4/CyLFClk.c **** 
 245:.\Generated_Source\PSoC4/CyLFClk.c **** 
 246:.\Generated_Source\PSoC4/CyLFClk.c **** #if (CY_IP_WCO)
 247:.\Generated_Source\PSoC4/CyLFClk.c ****     /*******************************************************************************
 248:.\Generated_Source\PSoC4/CyLFClk.c ****     * Function Name: CySysClkWcoStart
 249:.\Generated_Source\PSoC4/CyLFClk.c ****     ********************************************************************************
 250:.\Generated_Source\PSoC4/CyLFClk.c ****     *
 251:.\Generated_Source\PSoC4/CyLFClk.c ****     * Summary:
 252:.\Generated_Source\PSoC4/CyLFClk.c ****     *  Enables Watch Crystal Oscillator (WCO). WCO is used as a source for
 253:.\Generated_Source\PSoC4/CyLFClk.c ****     *  LFCLK.  Similar to ILO, WCO is also available in all modes except Hibernate
 254:.\Generated_Source\PSoC4/CyLFClk.c ****     *  and Stop modes.
 255:.\Generated_Source\PSoC4/CyLFClk.c ****     *
 256:.\Generated_Source\PSoC4/CyLFClk.c ****     *  WCO is always enabled in High Power Mode (HPM). Refer to the device
 257:.\Generated_Source\PSoC4/CyLFClk.c ****     *  datasheet for the  WCO startup time. Once WCO becomes stable it can be
 258:.\Generated_Source\PSoC4/CyLFClk.c ****     *  switched to Low Power Mode (LPM). Note that oscillator can be unstable
 259:.\Generated_Source\PSoC4/CyLFClk.c ****     *  during a switch and hence its output should not be used at that moment.
 260:.\Generated_Source\PSoC4/CyLFClk.c ****     *
 261:.\Generated_Source\PSoC4/CyLFClk.c ****     *  The CySysClkWcoSetPowerMode() function configures the WCO power mode.
 262:.\Generated_Source\PSoC4/CyLFClk.c ****     *
 263:.\Generated_Source\PSoC4/CyLFClk.c ****     * Parameters:
 264:.\Generated_Source\PSoC4/CyLFClk.c ****     *  None.
 265:.\Generated_Source\PSoC4/CyLFClk.c ****     *
 266:.\Generated_Source\PSoC4/CyLFClk.c ****     * Return:
 267:.\Generated_Source\PSoC4/CyLFClk.c ****     *  None.
 268:.\Generated_Source\PSoC4/CyLFClk.c ****     *
 269:.\Generated_Source\PSoC4/CyLFClk.c ****     *******************************************************************************/
 270:.\Generated_Source\PSoC4/CyLFClk.c ****     void CySysClkWcoStart(void)
 271:.\Generated_Source\PSoC4/CyLFClk.c ****     {
 272:.\Generated_Source\PSoC4/CyLFClk.c ****         CySysClkWcoSetHighPowerMode();
 273:.\Generated_Source\PSoC4/CyLFClk.c ****         CY_SYS_CLK_WCO_CONFIG_REG |= CY_SYS_CLK_WCO_CONFIG_LPM_ENABLE;
 274:.\Generated_Source\PSoC4/CyLFClk.c ****     }
 275:.\Generated_Source\PSoC4/CyLFClk.c **** 
 276:.\Generated_Source\PSoC4/CyLFClk.c **** 
 277:.\Generated_Source\PSoC4/CyLFClk.c ****     /*******************************************************************************
 278:.\Generated_Source\PSoC4/CyLFClk.c ****     * Function Name: CySysClkWcoStop
 279:.\Generated_Source\PSoC4/CyLFClk.c ****     ********************************************************************************
 280:.\Generated_Source\PSoC4/CyLFClk.c ****     *
 281:.\Generated_Source\PSoC4/CyLFClk.c ****     * Summary:
 282:.\Generated_Source\PSoC4/CyLFClk.c ****     *  Disables the 32KHz Crystal Oscillator.
 283:.\Generated_Source\PSoC4/CyLFClk.c ****     *
 284:.\Generated_Source\PSoC4/CyLFClk.c ****     * Parameters:
 285:.\Generated_Source\PSoC4/CyLFClk.c ****     *  None.
 286:.\Generated_Source\PSoC4/CyLFClk.c ****     *
 287:.\Generated_Source\PSoC4/CyLFClk.c ****     * Return:
 288:.\Generated_Source\PSoC4/CyLFClk.c ****     *  None.
 289:.\Generated_Source\PSoC4/CyLFClk.c ****     *
 290:.\Generated_Source\PSoC4/CyLFClk.c ****     *******************************************************************************/
ARM GAS  C:\Users\SDEVAS~1\AppData\Local\Temp\cchvSIah.s 			page 7


 291:.\Generated_Source\PSoC4/CyLFClk.c ****     void  CySysClkWcoStop(void)
 292:.\Generated_Source\PSoC4/CyLFClk.c ****     {
 293:.\Generated_Source\PSoC4/CyLFClk.c ****         uint8  interruptState;
 294:.\Generated_Source\PSoC4/CyLFClk.c **** 
 295:.\Generated_Source\PSoC4/CyLFClk.c ****         if (0u != CySysClkWcoEnabled())
 296:.\Generated_Source\PSoC4/CyLFClk.c ****         {
 297:.\Generated_Source\PSoC4/CyLFClk.c **** 
 298:.\Generated_Source\PSoC4/CyLFClk.c ****             if (CY_SYS_CLK_LFCLK_SRC_WCO == CySysClkGetLfclkSource())
 299:.\Generated_Source\PSoC4/CyLFClk.c ****             {
 300:.\Generated_Source\PSoC4/CyLFClk.c ****                 interruptState = CyEnterCriticalSection();
 301:.\Generated_Source\PSoC4/CyLFClk.c ****                 CySysClkLfclkPosedgeCatch();
 302:.\Generated_Source\PSoC4/CyLFClk.c ****                 CY_SYS_CLK_WCO_CONFIG_REG &= (uint32) ~CY_SYS_CLK_WCO_CONFIG_LPM_ENABLE;
 303:.\Generated_Source\PSoC4/CyLFClk.c ****                 CySysClkLfclkPosedgeRestore();
 304:.\Generated_Source\PSoC4/CyLFClk.c ****                 CyExitCriticalSection(interruptState);
 305:.\Generated_Source\PSoC4/CyLFClk.c ****             }
 306:.\Generated_Source\PSoC4/CyLFClk.c ****             else /* Safe to disable - shortened pulse does not impact peripheral */
 307:.\Generated_Source\PSoC4/CyLFClk.c ****             {
 308:.\Generated_Source\PSoC4/CyLFClk.c ****                 CY_SYS_CLK_WCO_CONFIG_REG &= (uint32) ~CY_SYS_CLK_WCO_CONFIG_LPM_ENABLE;
 309:.\Generated_Source\PSoC4/CyLFClk.c ****             }
 310:.\Generated_Source\PSoC4/CyLFClk.c ****         } /* Otherwise do nothing. WCO configuration cannot be changed. */
 311:.\Generated_Source\PSoC4/CyLFClk.c ****     }
 312:.\Generated_Source\PSoC4/CyLFClk.c **** 
 313:.\Generated_Source\PSoC4/CyLFClk.c **** 
 314:.\Generated_Source\PSoC4/CyLFClk.c ****     /*******************************************************************************
 315:.\Generated_Source\PSoC4/CyLFClk.c ****     * Function Name: CySysClkWcoEnabled
 316:.\Generated_Source\PSoC4/CyLFClk.c ****     ********************************************************************************
 317:.\Generated_Source\PSoC4/CyLFClk.c ****     *
 318:.\Generated_Source\PSoC4/CyLFClk.c ****     * Summary:
 319:.\Generated_Source\PSoC4/CyLFClk.c ****     *  Reports the WCO enable state.
 320:.\Generated_Source\PSoC4/CyLFClk.c ****     *
 321:.\Generated_Source\PSoC4/CyLFClk.c ****     * Parameters:
 322:.\Generated_Source\PSoC4/CyLFClk.c ****     *  None.
 323:.\Generated_Source\PSoC4/CyLFClk.c ****     *
 324:.\Generated_Source\PSoC4/CyLFClk.c ****     * Return:
 325:.\Generated_Source\PSoC4/CyLFClk.c ****     *  1 if WCO is enabled, and 0 if WCO is disabled.
 326:.\Generated_Source\PSoC4/CyLFClk.c ****     *
 327:.\Generated_Source\PSoC4/CyLFClk.c ****     *******************************************************************************/
 328:.\Generated_Source\PSoC4/CyLFClk.c ****     uint32 CySysClkWcoEnabled(void)
 329:.\Generated_Source\PSoC4/CyLFClk.c ****     {
 330:.\Generated_Source\PSoC4/CyLFClk.c ****         return ((0u != (CY_SYS_CLK_WCO_CONFIG_REG & (uint32)(CY_SYS_CLK_WCO_CONFIG_LPM_ENABLE))) ?
 331:.\Generated_Source\PSoC4/CyLFClk.c ****                 (uint32) 1u :
 332:.\Generated_Source\PSoC4/CyLFClk.c ****                 (uint32) 0u);
 333:.\Generated_Source\PSoC4/CyLFClk.c ****     }
 334:.\Generated_Source\PSoC4/CyLFClk.c **** 
 335:.\Generated_Source\PSoC4/CyLFClk.c **** 
 336:.\Generated_Source\PSoC4/CyLFClk.c ****     /*******************************************************************************
 337:.\Generated_Source\PSoC4/CyLFClk.c ****     * Function Name: CySysClkWcoSetPowerMode
 338:.\Generated_Source\PSoC4/CyLFClk.c ****     ********************************************************************************
 339:.\Generated_Source\PSoC4/CyLFClk.c ****     *
 340:.\Generated_Source\PSoC4/CyLFClk.c ****     * Summary:
 341:.\Generated_Source\PSoC4/CyLFClk.c ****     *  Sets the power mode for the 32 KHz WCO.
 342:.\Generated_Source\PSoC4/CyLFClk.c ****     *
 343:.\Generated_Source\PSoC4/CyLFClk.c ****     * Parameters:
 344:.\Generated_Source\PSoC4/CyLFClk.c ****     *  uint32 mode:
 345:.\Generated_Source\PSoC4/CyLFClk.c ****     *   CY_SYS_CLK_WCO_HPM  - The High Power mode
 346:.\Generated_Source\PSoC4/CyLFClk.c ****     *   CY_SYS_CLK_WCO_LPM  - The Low Power mode(not applicable for
 347:.\Generated_Source\PSoC4/CyLFClk.c ****     *                         PSoC 4100M / PSoC 4200M devices)
ARM GAS  C:\Users\SDEVAS~1\AppData\Local\Temp\cchvSIah.s 			page 8


 348:.\Generated_Source\PSoC4/CyLFClk.c ****     *
 349:.\Generated_Source\PSoC4/CyLFClk.c ****     * Return:
 350:.\Generated_Source\PSoC4/CyLFClk.c ****     *  A previous power mode. The same as the parameters.
 351:.\Generated_Source\PSoC4/CyLFClk.c ****     *
 352:.\Generated_Source\PSoC4/CyLFClk.c ****     * Note:
 353:.\Generated_Source\PSoC4/CyLFClk.c ****     *  The WCO Low power mode is not applicable for the PSoC 4100M/PSoC 4200M
 354:.\Generated_Source\PSoC4/CyLFClk.c ****     *  devices.
 355:.\Generated_Source\PSoC4/CyLFClk.c ****     *
 356:.\Generated_Source\PSoC4/CyLFClk.c ****     *******************************************************************************/
 357:.\Generated_Source\PSoC4/CyLFClk.c ****     uint32 CySysClkWcoSetPowerMode(uint32 mode)
 358:.\Generated_Source\PSoC4/CyLFClk.c ****     {
 359:.\Generated_Source\PSoC4/CyLFClk.c ****         uint32 status;
 360:.\Generated_Source\PSoC4/CyLFClk.c **** 
 361:.\Generated_Source\PSoC4/CyLFClk.c ****         status = CY_SYS_CLK_WCO_CONFIG_REG & CY_SYS_CLK_WCO_CONFIG_LPM_EN;
 362:.\Generated_Source\PSoC4/CyLFClk.c **** 
 363:.\Generated_Source\PSoC4/CyLFClk.c ****         switch(mode)
 364:.\Generated_Source\PSoC4/CyLFClk.c ****         {
 365:.\Generated_Source\PSoC4/CyLFClk.c ****         case CY_SYS_CLK_WCO_HPM:
 366:.\Generated_Source\PSoC4/CyLFClk.c ****                 CySysClkWcoSetHighPowerMode();
 367:.\Generated_Source\PSoC4/CyLFClk.c ****             break;
 368:.\Generated_Source\PSoC4/CyLFClk.c **** 
 369:.\Generated_Source\PSoC4/CyLFClk.c ****         #if(!CY_PSOC4_4100M && !CY_PSOC4_4200M)
 370:.\Generated_Source\PSoC4/CyLFClk.c ****             case CY_SYS_CLK_WCO_LPM:
 371:.\Generated_Source\PSoC4/CyLFClk.c ****                     CySysClkWcoSetLowPowerMode();
 372:.\Generated_Source\PSoC4/CyLFClk.c ****                 break;
 373:.\Generated_Source\PSoC4/CyLFClk.c ****         #endif /* (!CY_PSOC4_4100M && !CY_PSOC4_4200M) */
 374:.\Generated_Source\PSoC4/CyLFClk.c **** 
 375:.\Generated_Source\PSoC4/CyLFClk.c ****         default:
 376:.\Generated_Source\PSoC4/CyLFClk.c ****             CYASSERT(0u != 0u);
 377:.\Generated_Source\PSoC4/CyLFClk.c ****             break;
 378:.\Generated_Source\PSoC4/CyLFClk.c ****         }
 379:.\Generated_Source\PSoC4/CyLFClk.c **** 
 380:.\Generated_Source\PSoC4/CyLFClk.c ****         return (status);
 381:.\Generated_Source\PSoC4/CyLFClk.c ****     }
 382:.\Generated_Source\PSoC4/CyLFClk.c **** 
 383:.\Generated_Source\PSoC4/CyLFClk.c **** #endif  /* (CY_IP_WCO) */
 384:.\Generated_Source\PSoC4/CyLFClk.c **** 
 385:.\Generated_Source\PSoC4/CyLFClk.c **** 
 386:.\Generated_Source\PSoC4/CyLFClk.c **** #if(CY_IP_SRSSV2)
 387:.\Generated_Source\PSoC4/CyLFClk.c **** 
 388:.\Generated_Source\PSoC4/CyLFClk.c **** 
 389:.\Generated_Source\PSoC4/CyLFClk.c ****     /*******************************************************************************
 390:.\Generated_Source\PSoC4/CyLFClk.c ****     * Function Name: CySysWdtLock
 391:.\Generated_Source\PSoC4/CyLFClk.c ****     ********************************************************************************
 392:.\Generated_Source\PSoC4/CyLFClk.c ****     *
 393:.\Generated_Source\PSoC4/CyLFClk.c ****     * Summary:
 394:.\Generated_Source\PSoC4/CyLFClk.c ****     *  Locks out configuration changes to the Watchdog timer registers and ILO
 395:.\Generated_Source\PSoC4/CyLFClk.c ****     *  configuration register.
 396:.\Generated_Source\PSoC4/CyLFClk.c ****     *
 397:.\Generated_Source\PSoC4/CyLFClk.c ****     * Parameters:
 398:.\Generated_Source\PSoC4/CyLFClk.c ****     *  None.
 399:.\Generated_Source\PSoC4/CyLFClk.c ****     *
 400:.\Generated_Source\PSoC4/CyLFClk.c ****     * Return:
 401:.\Generated_Source\PSoC4/CyLFClk.c ****     *  None.
 402:.\Generated_Source\PSoC4/CyLFClk.c ****     *
 403:.\Generated_Source\PSoC4/CyLFClk.c ****     * Side effects:
 404:.\Generated_Source\PSoC4/CyLFClk.c ****     *  After this function is called, ILO clock can't be disabled until
ARM GAS  C:\Users\SDEVAS~1\AppData\Local\Temp\cchvSIah.s 			page 9


 405:.\Generated_Source\PSoC4/CyLFClk.c ****     *  CySysWdtUnlock() is called.
 406:.\Generated_Source\PSoC4/CyLFClk.c ****     *
 407:.\Generated_Source\PSoC4/CyLFClk.c ****     *******************************************************************************/
 408:.\Generated_Source\PSoC4/CyLFClk.c ****     void CySysWdtLock(void)
 409:.\Generated_Source\PSoC4/CyLFClk.c ****     {
  53              		.loc 1 409 0
  54              		.cfi_startproc
  55 0000 08B5     		push	{r3, lr}
  56              		.cfi_def_cfa_offset 8
  57              		.cfi_offset 3, -8
  58              		.cfi_offset 14, -4
 410:.\Generated_Source\PSoC4/CyLFClk.c ****         uint8 interruptState;
 411:.\Generated_Source\PSoC4/CyLFClk.c ****         interruptState = CyEnterCriticalSection();
  59              		.loc 1 411 0
  60 0002 FFF7FEFF 		bl	CyEnterCriticalSection
  61              	.LVL0:
 412:.\Generated_Source\PSoC4/CyLFClk.c **** 
 413:.\Generated_Source\PSoC4/CyLFClk.c ****         CY_SYS_CLK_SELECT_REG = (CY_SYS_CLK_SELECT_REG & (uint32)(~CY_SYS_WDT_CLK_LOCK_BITS_MASK)) 
  62              		.loc 1 413 0
  63 0006 044B     		ldr	r3, .L5
  64 0008 C022     		mov	r2, #192
  65 000a 1968     		ldr	r1, [r3]
  66 000c 1202     		lsl	r2, r2, #8
  67 000e 0A43     		orr	r2, r1
  68 0010 1A60     		str	r2, [r3]
 414:.\Generated_Source\PSoC4/CyLFClk.c ****                  CY_SYS_WDT_CLK_LOCK_BITS_MASK;
 415:.\Generated_Source\PSoC4/CyLFClk.c **** 
 416:.\Generated_Source\PSoC4/CyLFClk.c ****         CyExitCriticalSection(interruptState);
  69              		.loc 1 416 0
  70 0012 FFF7FEFF 		bl	CyExitCriticalSection
  71              	.LVL1:
 417:.\Generated_Source\PSoC4/CyLFClk.c ****     }
  72              		.loc 1 417 0
  73              		@ sp needed
  74 0016 08BD     		pop	{r3, pc}
  75              	.L6:
  76              		.align	2
  77              	.L5:
  78 0018 00010B40 		.word	1074462976
  79              		.cfi_endproc
  80              	.LFE3:
  81              		.size	CySysWdtLock, .-CySysWdtLock
  82              		.section	.text.CySysWdtUnlock,"ax",%progbits
  83              		.align	1
  84              		.global	CySysWdtUnlock
  85              		.code	16
  86              		.thumb_func
  87              		.type	CySysWdtUnlock, %function
  88              	CySysWdtUnlock:
  89              	.LFB5:
 418:.\Generated_Source\PSoC4/CyLFClk.c **** 
 419:.\Generated_Source\PSoC4/CyLFClk.c **** 
 420:.\Generated_Source\PSoC4/CyLFClk.c ****     /*******************************************************************************
 421:.\Generated_Source\PSoC4/CyLFClk.c ****     * Function Name: CySysWdtLocked
 422:.\Generated_Source\PSoC4/CyLFClk.c ****     ********************************************************************************
 423:.\Generated_Source\PSoC4/CyLFClk.c ****     *
 424:.\Generated_Source\PSoC4/CyLFClk.c ****     * Summary:
ARM GAS  C:\Users\SDEVAS~1\AppData\Local\Temp\cchvSIah.s 			page 10


 425:.\Generated_Source\PSoC4/CyLFClk.c ****     *  Reports the WDT lock state.
 426:.\Generated_Source\PSoC4/CyLFClk.c ****     *
 427:.\Generated_Source\PSoC4/CyLFClk.c ****     * Parameters:
 428:.\Generated_Source\PSoC4/CyLFClk.c ****     *  None
 429:.\Generated_Source\PSoC4/CyLFClk.c ****     *
 430:.\Generated_Source\PSoC4/CyLFClk.c ****     * Return:
 431:.\Generated_Source\PSoC4/CyLFClk.c ****     *  1 - WDT is locked, and 0 - WDT is unlocked.
 432:.\Generated_Source\PSoC4/CyLFClk.c ****     *
 433:.\Generated_Source\PSoC4/CyLFClk.c ****     *******************************************************************************/
 434:.\Generated_Source\PSoC4/CyLFClk.c ****     static uint32 CySysWdtLocked(void)
 435:.\Generated_Source\PSoC4/CyLFClk.c ****     {
 436:.\Generated_Source\PSoC4/CyLFClk.c ****         /* Prohibits writing to WDT registers and ILO/WCO registers when not equal 0 */
 437:.\Generated_Source\PSoC4/CyLFClk.c ****         return ((0u != (CY_SYS_CLK_SELECT_REG & (uint32)(CY_SYS_WDT_CLK_LOCK_BITS_MASK))) ? (uint32
 438:.\Generated_Source\PSoC4/CyLFClk.c ****     }
 439:.\Generated_Source\PSoC4/CyLFClk.c **** 
 440:.\Generated_Source\PSoC4/CyLFClk.c **** 
 441:.\Generated_Source\PSoC4/CyLFClk.c ****     /*******************************************************************************
 442:.\Generated_Source\PSoC4/CyLFClk.c ****     * Function Name: CySysWdtUnlock
 443:.\Generated_Source\PSoC4/CyLFClk.c ****     ********************************************************************************
 444:.\Generated_Source\PSoC4/CyLFClk.c ****     *
 445:.\Generated_Source\PSoC4/CyLFClk.c ****     * Summary:
 446:.\Generated_Source\PSoC4/CyLFClk.c ****     *  Unlocks the Watchdog Timer configuration register.
 447:.\Generated_Source\PSoC4/CyLFClk.c ****     *
 448:.\Generated_Source\PSoC4/CyLFClk.c ****     * Parameters:
 449:.\Generated_Source\PSoC4/CyLFClk.c ****     *  None.
 450:.\Generated_Source\PSoC4/CyLFClk.c ****     *
 451:.\Generated_Source\PSoC4/CyLFClk.c ****     * Return:
 452:.\Generated_Source\PSoC4/CyLFClk.c ****     *  None.
 453:.\Generated_Source\PSoC4/CyLFClk.c ****     *
 454:.\Generated_Source\PSoC4/CyLFClk.c ****     *******************************************************************************/
 455:.\Generated_Source\PSoC4/CyLFClk.c ****     void CySysWdtUnlock(void)
 456:.\Generated_Source\PSoC4/CyLFClk.c ****     {
  90              		.loc 1 456 0
  91              		.cfi_startproc
  92 0000 10B5     		push	{r4, lr}
  93              		.cfi_def_cfa_offset 8
  94              		.cfi_offset 4, -8
  95              		.cfi_offset 14, -4
 457:.\Generated_Source\PSoC4/CyLFClk.c ****         uint8 interruptState;
 458:.\Generated_Source\PSoC4/CyLFClk.c ****         interruptState = CyEnterCriticalSection();
  96              		.loc 1 458 0
  97 0002 FFF7FEFF 		bl	CyEnterCriticalSection
  98              	.LVL2:
 459:.\Generated_Source\PSoC4/CyLFClk.c **** 
 460:.\Generated_Source\PSoC4/CyLFClk.c ****         /* Removing WDT lock requires two writes */
 461:.\Generated_Source\PSoC4/CyLFClk.c ****         CY_SYS_CLK_SELECT_REG = ((CY_SYS_CLK_SELECT_REG & (uint32)(~CY_SYS_WDT_CLK_LOCK_BITS_MASK))
  99              		.loc 1 461 0
 100 0006 084B     		ldr	r3, .L8
 101 0008 084A     		ldr	r2, .L8+4
 102 000a 1968     		ldr	r1, [r3]
 103 000c 8024     		mov	r4, #128
 104 000e 1140     		and	r1, r2
 105 0010 E401     		lsl	r4, r4, #7
 106 0012 2143     		orr	r1, r4
 107 0014 1960     		str	r1, [r3]
 462:.\Generated_Source\PSoC4/CyLFClk.c ****                 CY_SYS_WDT_CLK_LOCK_BIT0);
 463:.\Generated_Source\PSoC4/CyLFClk.c **** 
ARM GAS  C:\Users\SDEVAS~1\AppData\Local\Temp\cchvSIah.s 			page 11


 464:.\Generated_Source\PSoC4/CyLFClk.c ****         CY_SYS_CLK_SELECT_REG = ((CY_SYS_CLK_SELECT_REG & (uint32)(~CY_SYS_WDT_CLK_LOCK_BITS_MASK))
 108              		.loc 1 464 0
 109 0016 1968     		ldr	r1, [r3]
 465:.\Generated_Source\PSoC4/CyLFClk.c ****                 CY_SYS_WDT_CLK_LOCK_BIT1);
 466:.\Generated_Source\PSoC4/CyLFClk.c **** 
 467:.\Generated_Source\PSoC4/CyLFClk.c ****         CyExitCriticalSection(interruptState);
 468:.\Generated_Source\PSoC4/CyLFClk.c ****     }
 110              		.loc 1 468 0
 111              		@ sp needed
 464:.\Generated_Source\PSoC4/CyLFClk.c ****         CY_SYS_CLK_SELECT_REG = ((CY_SYS_CLK_SELECT_REG & (uint32)(~CY_SYS_WDT_CLK_LOCK_BITS_MASK))
 112              		.loc 1 464 0
 113 0018 0A40     		and	r2, r1
 114 001a 8021     		mov	r1, #128
 115 001c 0902     		lsl	r1, r1, #8
 116 001e 0A43     		orr	r2, r1
 117 0020 1A60     		str	r2, [r3]
 467:.\Generated_Source\PSoC4/CyLFClk.c ****         CyExitCriticalSection(interruptState);
 118              		.loc 1 467 0
 119 0022 FFF7FEFF 		bl	CyExitCriticalSection
 120              	.LVL3:
 121              		.loc 1 468 0
 122 0026 10BD     		pop	{r4, pc}
 123              	.L9:
 124              		.align	2
 125              	.L8:
 126 0028 00010B40 		.word	1074462976
 127 002c FF3FFFFF 		.word	-49153
 128              		.cfi_endproc
 129              	.LFE5:
 130              		.size	CySysWdtUnlock, .-CySysWdtUnlock
 131              		.section	.text.CySysWdtGetEnabledStatus,"ax",%progbits
 132              		.align	1
 133              		.global	CySysWdtGetEnabledStatus
 134              		.code	16
 135              		.thumb_func
 136              		.type	CySysWdtGetEnabledStatus, %function
 137              	CySysWdtGetEnabledStatus:
 138              	.LFB6:
 469:.\Generated_Source\PSoC4/CyLFClk.c **** 
 470:.\Generated_Source\PSoC4/CyLFClk.c **** 
 471:.\Generated_Source\PSoC4/CyLFClk.c ****     /*******************************************************************************
 472:.\Generated_Source\PSoC4/CyLFClk.c ****     * Function Name: CySysWdtGetEnabledStatus
 473:.\Generated_Source\PSoC4/CyLFClk.c ****     ********************************************************************************
 474:.\Generated_Source\PSoC4/CyLFClk.c ****     *
 475:.\Generated_Source\PSoC4/CyLFClk.c ****     * Summary:
 476:.\Generated_Source\PSoC4/CyLFClk.c ****     *  Reads the enabled status of one of the three WDT counters.
 477:.\Generated_Source\PSoC4/CyLFClk.c ****     *
 478:.\Generated_Source\PSoC4/CyLFClk.c ****     * Parameters:
 479:.\Generated_Source\PSoC4/CyLFClk.c ****     *  counterNum: Valid range [0-2].  the number of the WDT counter.
 480:.\Generated_Source\PSoC4/CyLFClk.c ****     *
 481:.\Generated_Source\PSoC4/CyLFClk.c ****     * Return:
 482:.\Generated_Source\PSoC4/CyLFClk.c ****     *  The status of the WDT counter:
 483:.\Generated_Source\PSoC4/CyLFClk.c ****     *   0 - The counter is disabled.
 484:.\Generated_Source\PSoC4/CyLFClk.c ****     *   1 - The counter is enabled.
 485:.\Generated_Source\PSoC4/CyLFClk.c ****     *
 486:.\Generated_Source\PSoC4/CyLFClk.c ****     * Side Effects:
 487:.\Generated_Source\PSoC4/CyLFClk.c ****     *  This function returns an actual WDT counter status from the status register. It may
ARM GAS  C:\Users\SDEVAS~1\AppData\Local\Temp\cchvSIah.s 			page 12


 488:.\Generated_Source\PSoC4/CyLFClk.c ****     *  take up to 3 LFCLK cycles for the WDT status register to contain actual data
 489:.\Generated_Source\PSoC4/CyLFClk.c ****     *  after the WDT counter is enabled.
 490:.\Generated_Source\PSoC4/CyLFClk.c ****     *
 491:.\Generated_Source\PSoC4/CyLFClk.c ****     *
 492:.\Generated_Source\PSoC4/CyLFClk.c ****     *******************************************************************************/
 493:.\Generated_Source\PSoC4/CyLFClk.c ****     uint32 CySysWdtGetEnabledStatus(uint32 counterNum)
 494:.\Generated_Source\PSoC4/CyLFClk.c ****     {
 139              		.loc 1 494 0
 140              		.cfi_startproc
 141              	.LVL4:
 495:.\Generated_Source\PSoC4/CyLFClk.c ****         CYASSERT(counterNum < CY_SYS_WDT_COUNTERS_MAX);
 496:.\Generated_Source\PSoC4/CyLFClk.c ****         return ((CY_SYS_WDT_CONTROL_REG >> ((CY_SYS_WDT_CNT_SHIFT * counterNum) + CY_SYS_WDT_CNT_ST
 142              		.loc 1 496 0
 143 0000 044B     		ldr	r3, .L11
 144 0002 C000     		lsl	r0, r0, #3
 145              	.LVL5:
 146 0004 1B68     		ldr	r3, [r3]
 147 0006 0130     		add	r0, r0, #1
 148 0008 C340     		lsr	r3, r3, r0
 149 000a 181C     		mov	r0, r3
 150 000c 0123     		mov	r3, #1
 151 000e 1840     		and	r0, r3
 497:.\Generated_Source\PSoC4/CyLFClk.c ****     }
 152              		.loc 1 497 0
 153              		@ sp needed
 154 0010 7047     		bx	lr
 155              	.L12:
 156 0012 C046     		.align	2
 157              	.L11:
 158 0014 10020B40 		.word	1074463248
 159              		.cfi_endproc
 160              	.LFE6:
 161              		.size	CySysWdtGetEnabledStatus, .-CySysWdtGetEnabledStatus
 162              		.section	.text.CySysWdtSetMode,"ax",%progbits
 163              		.align	1
 164              		.global	CySysWdtSetMode
 165              		.code	16
 166              		.thumb_func
 167              		.type	CySysWdtSetMode, %function
 168              	CySysWdtSetMode:
 169              	.LFB7:
 498:.\Generated_Source\PSoC4/CyLFClk.c **** 
 499:.\Generated_Source\PSoC4/CyLFClk.c **** 
 500:.\Generated_Source\PSoC4/CyLFClk.c ****     /*******************************************************************************
 501:.\Generated_Source\PSoC4/CyLFClk.c ****     * Function Name: CySysWdtSetMode
 502:.\Generated_Source\PSoC4/CyLFClk.c ****     ********************************************************************************
 503:.\Generated_Source\PSoC4/CyLFClk.c ****     *
 504:.\Generated_Source\PSoC4/CyLFClk.c ****     * Summary:
 505:.\Generated_Source\PSoC4/CyLFClk.c ****     *   Writes the mode of one of the three WDT counters.
 506:.\Generated_Source\PSoC4/CyLFClk.c ****     *
 507:.\Generated_Source\PSoC4/CyLFClk.c ****     * Parameters:
 508:.\Generated_Source\PSoC4/CyLFClk.c ****     *   counterNum: Valid range [0-2].  The number of the WDT counter.
 509:.\Generated_Source\PSoC4/CyLFClk.c ****     *   mode:       Mode of operation for the counter.
 510:.\Generated_Source\PSoC4/CyLFClk.c ****     *       Define                     Mode
 511:.\Generated_Source\PSoC4/CyLFClk.c ****     *        CY_SYS_WDT_MODE_NONE       Free running
 512:.\Generated_Source\PSoC4/CyLFClk.c ****     *        CY_SYS_WDT_MODE_INT        The interrupt generated on match for counter 0
 513:.\Generated_Source\PSoC4/CyLFClk.c ****     *                                   and 1, and on bit toggle for counter 2.
ARM GAS  C:\Users\SDEVAS~1\AppData\Local\Temp\cchvSIah.s 			page 13


 514:.\Generated_Source\PSoC4/CyLFClk.c ****     *        CY_SYS_WDT_MODE_RESET      Reset on match (valid for counter 0 and 1
 515:.\Generated_Source\PSoC4/CyLFClk.c ****     *                                   only)
 516:.\Generated_Source\PSoC4/CyLFClk.c ****     *        CY_SYS_WDT_MODE_INT_RESET  Generate an interrupt.  Generate a reset on
 517:.\Generated_Source\PSoC4/CyLFClk.c ****     *                                   the 3rd non-handled interrupt.
 518:.\Generated_Source\PSoC4/CyLFClk.c ****     *                                   (valid for counter 0 and 1 only)
 519:.\Generated_Source\PSoC4/CyLFClk.c ****     * Return:
 520:.\Generated_Source\PSoC4/CyLFClk.c ****     *   None.
 521:.\Generated_Source\PSoC4/CyLFClk.c ****     *
 522:.\Generated_Source\PSoC4/CyLFClk.c ****     * Side Effects:
 523:.\Generated_Source\PSoC4/CyLFClk.c ****     *   WDT counter counterNum should be disabled to set a mode. Otherwise, this
 524:.\Generated_Source\PSoC4/CyLFClk.c ****     *   function call has no effect. If the specified counter is enabled,
 525:.\Generated_Source\PSoC4/CyLFClk.c ****     *   call the CySysWdtDisable() function with the corresponding parameter to
 526:.\Generated_Source\PSoC4/CyLFClk.c ****     *   disable the specified counter and wait for it to stop.
 527:.\Generated_Source\PSoC4/CyLFClk.c ****     *
 528:.\Generated_Source\PSoC4/CyLFClk.c ****     *******************************************************************************/
 529:.\Generated_Source\PSoC4/CyLFClk.c ****     void CySysWdtSetMode(uint32 counterNum, uint32 mode)
 530:.\Generated_Source\PSoC4/CyLFClk.c ****     {
 170              		.loc 1 530 0
 171              		.cfi_startproc
 172              	.LVL6:
 173 0000 38B5     		push	{r3, r4, r5, lr}
 174              		.cfi_def_cfa_offset 16
 175              		.cfi_offset 3, -16
 176              		.cfi_offset 4, -12
 177              		.cfi_offset 5, -8
 178              		.cfi_offset 14, -4
 179              		.loc 1 530 0
 180 0002 041C     		mov	r4, r0
 181 0004 0D1C     		mov	r5, r1
 531:.\Generated_Source\PSoC4/CyLFClk.c ****         uint32 configRegValue;
 532:.\Generated_Source\PSoC4/CyLFClk.c **** 
 533:.\Generated_Source\PSoC4/CyLFClk.c ****         CYASSERT(counterNum < CY_SYS_WDT_COUNTERS_MAX);
 534:.\Generated_Source\PSoC4/CyLFClk.c **** 
 535:.\Generated_Source\PSoC4/CyLFClk.c ****         if(0u == CySysWdtGetEnabledStatus(counterNum))
 182              		.loc 1 535 0
 183 0006 FFF7FEFF 		bl	CySysWdtGetEnabledStatus
 184              	.LVL7:
 185 000a 0028     		cmp	r0, #0
 186 000c 0BD1     		bne	.L13
 187              	.LVL8:
 188              	.LBB4:
 189              	.LBB5:
 536:.\Generated_Source\PSoC4/CyLFClk.c ****         {
 537:.\Generated_Source\PSoC4/CyLFClk.c ****             configRegValue = CY_SYS_WDT_CONFIG_REG &
 190              		.loc 1 537 0
 191 000e 064B     		ldr	r3, .L16
 538:.\Generated_Source\PSoC4/CyLFClk.c ****                                 (uint32)~((uint32)(CY_SYS_WDT_MODE_MASK << (counterNum * CY_SYS_WDT
 192              		.loc 1 538 0
 193 0010 0322     		mov	r2, #3
 194 0012 E400     		lsl	r4, r4, #3
 195              	.LVL9:
 537:.\Generated_Source\PSoC4/CyLFClk.c ****             configRegValue = CY_SYS_WDT_CONFIG_REG &
 196              		.loc 1 537 0
 197 0014 1968     		ldr	r1, [r3]
 198              		.loc 1 538 0
 199 0016 101C     		mov	r0, r2
 200 0018 A040     		lsl	r0, r0, r4
ARM GAS  C:\Users\SDEVAS~1\AppData\Local\Temp\cchvSIah.s 			page 14


 537:.\Generated_Source\PSoC4/CyLFClk.c ****             configRegValue = CY_SYS_WDT_CONFIG_REG &
 201              		.loc 1 537 0
 202 001a 8143     		bic	r1, r0
 203              	.LVL10:
 539:.\Generated_Source\PSoC4/CyLFClk.c ****             configRegValue |= (uint32)((mode & CY_SYS_WDT_MODE_MASK) << (counterNum * CY_SYS_WDT_CN
 204              		.loc 1 539 0
 205 001c 1540     		and	r5, r2
 206              	.LVL11:
 207 001e A540     		lsl	r5, r5, r4
 208 0020 0C1C     		mov	r4, r1
 209 0022 2C43     		orr	r4, r5
 210              	.LVL12:
 540:.\Generated_Source\PSoC4/CyLFClk.c ****             CY_SYS_WDT_CONFIG_REG = configRegValue;
 211              		.loc 1 540 0
 212 0024 1C60     		str	r4, [r3]
 213              	.LVL13:
 214              	.L13:
 215              	.LBE5:
 216              	.LBE4:
 541:.\Generated_Source\PSoC4/CyLFClk.c ****         }
 542:.\Generated_Source\PSoC4/CyLFClk.c ****     }
 217              		.loc 1 542 0
 218              		@ sp needed
 219 0026 38BD     		pop	{r3, r4, r5, pc}
 220              	.L17:
 221              		.align	2
 222              	.L16:
 223 0028 0C020B40 		.word	1074463244
 224              		.cfi_endproc
 225              	.LFE7:
 226              		.size	CySysWdtSetMode, .-CySysWdtSetMode
 227              		.section	.text.CySysWdtGetMode,"ax",%progbits
 228              		.align	1
 229              		.global	CySysWdtGetMode
 230              		.code	16
 231              		.thumb_func
 232              		.type	CySysWdtGetMode, %function
 233              	CySysWdtGetMode:
 234              	.LFB8:
 543:.\Generated_Source\PSoC4/CyLFClk.c **** 
 544:.\Generated_Source\PSoC4/CyLFClk.c **** 
 545:.\Generated_Source\PSoC4/CyLFClk.c ****     /*******************************************************************************
 546:.\Generated_Source\PSoC4/CyLFClk.c ****     * Function Name: CySysWdtGetMode
 547:.\Generated_Source\PSoC4/CyLFClk.c ****     ********************************************************************************
 548:.\Generated_Source\PSoC4/CyLFClk.c ****     *
 549:.\Generated_Source\PSoC4/CyLFClk.c ****     * Summary:
 550:.\Generated_Source\PSoC4/CyLFClk.c ****     *  Reads the mode of one of the three WDT counters.
 551:.\Generated_Source\PSoC4/CyLFClk.c ****     *
 552:.\Generated_Source\PSoC4/CyLFClk.c ****     * Parameters:
 553:.\Generated_Source\PSoC4/CyLFClk.c ****     *  counterNum: Valid range [0-2].  The number of the WDT counter.
 554:.\Generated_Source\PSoC4/CyLFClk.c ****     *
 555:.\Generated_Source\PSoC4/CyLFClk.c ****     * Return:
 556:.\Generated_Source\PSoC4/CyLFClk.c ****     *  The mode of the counter.  The same enumerated values as the mode parameter used in
 557:.\Generated_Source\PSoC4/CyLFClk.c ****     *  CySysWdtSetMode().
 558:.\Generated_Source\PSoC4/CyLFClk.c ****     *
 559:.\Generated_Source\PSoC4/CyLFClk.c ****     *******************************************************************************/
 560:.\Generated_Source\PSoC4/CyLFClk.c ****     uint32 CySysWdtGetMode(uint32 counterNum)
ARM GAS  C:\Users\SDEVAS~1\AppData\Local\Temp\cchvSIah.s 			page 15


 561:.\Generated_Source\PSoC4/CyLFClk.c ****     {
 235              		.loc 1 561 0
 236              		.cfi_startproc
 237              	.LVL14:
 562:.\Generated_Source\PSoC4/CyLFClk.c ****         return ((CY_SYS_WDT_CONFIG_REG >> (counterNum * CY_SYS_WDT_CNT_SHIFT)) & CY_SYS_WDT_MODE_MA
 238              		.loc 1 562 0
 239 0000 034B     		ldr	r3, .L19
 240 0002 C000     		lsl	r0, r0, #3
 241              	.LVL15:
 242 0004 1B68     		ldr	r3, [r3]
 563:.\Generated_Source\PSoC4/CyLFClk.c ****     }
 243              		.loc 1 563 0
 244              		@ sp needed
 562:.\Generated_Source\PSoC4/CyLFClk.c ****         return ((CY_SYS_WDT_CONFIG_REG >> (counterNum * CY_SYS_WDT_CNT_SHIFT)) & CY_SYS_WDT_MODE_MA
 245              		.loc 1 562 0
 246 0006 C340     		lsr	r3, r3, r0
 247 0008 181C     		mov	r0, r3
 248 000a 0323     		mov	r3, #3
 249 000c 1840     		and	r0, r3
 250              		.loc 1 563 0
 251 000e 7047     		bx	lr
 252              	.L20:
 253              		.align	2
 254              	.L19:
 255 0010 0C020B40 		.word	1074463244
 256              		.cfi_endproc
 257              	.LFE8:
 258              		.size	CySysWdtGetMode, .-CySysWdtGetMode
 259              		.section	.text.CySysWdtSetClearOnMatch,"ax",%progbits
 260              		.align	1
 261              		.global	CySysWdtSetClearOnMatch
 262              		.code	16
 263              		.thumb_func
 264              		.type	CySysWdtSetClearOnMatch, %function
 265              	CySysWdtSetClearOnMatch:
 266              	.LFB9:
 564:.\Generated_Source\PSoC4/CyLFClk.c **** 
 565:.\Generated_Source\PSoC4/CyLFClk.c **** 
 566:.\Generated_Source\PSoC4/CyLFClk.c ****     /*******************************************************************************
 567:.\Generated_Source\PSoC4/CyLFClk.c ****     * Function Name: CySysWdtSetClearOnMatch
 568:.\Generated_Source\PSoC4/CyLFClk.c ****     ********************************************************************************
 569:.\Generated_Source\PSoC4/CyLFClk.c ****     *
 570:.\Generated_Source\PSoC4/CyLFClk.c ****     * Summary:
 571:.\Generated_Source\PSoC4/CyLFClk.c ****     *  Configures the WDT counter "clear on match" setting.  If configured to "clear
 572:.\Generated_Source\PSoC4/CyLFClk.c ****     *  on match", the counter counts from 0 to MatchValue giving it a
 573:.\Generated_Source\PSoC4/CyLFClk.c ****     *  period of (MatchValue + 1).
 574:.\Generated_Source\PSoC4/CyLFClk.c ****     *
 575:.\Generated_Source\PSoC4/CyLFClk.c ****     * Parameters:
 576:.\Generated_Source\PSoC4/CyLFClk.c ****     *  counterNum:
 577:.\Generated_Source\PSoC4/CyLFClk.c ****     *   Valid range [0-1].  The number of the WDT counter.  The match values are not
 578:.\Generated_Source\PSoC4/CyLFClk.c ****     *   supported by counter 2.
 579:.\Generated_Source\PSoC4/CyLFClk.c ****     *
 580:.\Generated_Source\PSoC4/CyLFClk.c ****     * enable:
 581:.\Generated_Source\PSoC4/CyLFClk.c ****     *   0 to disable, 1 to enable
 582:.\Generated_Source\PSoC4/CyLFClk.c ****     *
 583:.\Generated_Source\PSoC4/CyLFClk.c ****     * Return:
 584:.\Generated_Source\PSoC4/CyLFClk.c ****     *   None.
ARM GAS  C:\Users\SDEVAS~1\AppData\Local\Temp\cchvSIah.s 			page 16


 585:.\Generated_Source\PSoC4/CyLFClk.c ****     *
 586:.\Generated_Source\PSoC4/CyLFClk.c ****     * Side Effects:
 587:.\Generated_Source\PSoC4/CyLFClk.c ****     *   WDT counter counterNum should be disabled. Otherwise this function call
 588:.\Generated_Source\PSoC4/CyLFClk.c ****     *   has no effect. If the specified counter is enabled, call the CySysWdtDisable()
 589:.\Generated_Source\PSoC4/CyLFClk.c ****     *   function with the corresponding parameter to disable the specified counter and
 590:.\Generated_Source\PSoC4/CyLFClk.c ****     *   wait for it to stop. This may take up to three LFCLK cycles.
 591:.\Generated_Source\PSoC4/CyLFClk.c ****     *
 592:.\Generated_Source\PSoC4/CyLFClk.c ****     *******************************************************************************/
 593:.\Generated_Source\PSoC4/CyLFClk.c ****     void CySysWdtSetClearOnMatch(uint32 counterNum, uint32 enable)
 594:.\Generated_Source\PSoC4/CyLFClk.c ****     {
 267              		.loc 1 594 0
 268              		.cfi_startproc
 269              	.LVL16:
 270 0000 38B5     		push	{r3, r4, r5, lr}
 271              		.cfi_def_cfa_offset 16
 272              		.cfi_offset 3, -16
 273              		.cfi_offset 4, -12
 274              		.cfi_offset 5, -8
 275              		.cfi_offset 14, -4
 276              		.loc 1 594 0
 277 0002 041C     		mov	r4, r0
 278 0004 0D1C     		mov	r5, r1
 595:.\Generated_Source\PSoC4/CyLFClk.c ****         uint32 configRegValue;
 596:.\Generated_Source\PSoC4/CyLFClk.c **** 
 597:.\Generated_Source\PSoC4/CyLFClk.c ****         CYASSERT((counterNum == CY_SYS_WDT_COUNTER0) ||
 598:.\Generated_Source\PSoC4/CyLFClk.c ****                  (counterNum == CY_SYS_WDT_COUNTER1));
 599:.\Generated_Source\PSoC4/CyLFClk.c **** 
 600:.\Generated_Source\PSoC4/CyLFClk.c ****         if(0u == CySysWdtGetEnabledStatus(counterNum))
 279              		.loc 1 600 0
 280 0006 FFF7FEFF 		bl	CySysWdtGetEnabledStatus
 281              	.LVL17:
 282 000a 0028     		cmp	r0, #0
 283 000c 0AD1     		bne	.L21
 601:.\Generated_Source\PSoC4/CyLFClk.c ****         {
 602:.\Generated_Source\PSoC4/CyLFClk.c ****             configRegValue = CY_SYS_WDT_CONFIG_REG &
 284              		.loc 1 602 0
 285 000e 064B     		ldr	r3, .L23
 603:.\Generated_Source\PSoC4/CyLFClk.c ****                 (uint32)~((uint32)((uint32)1u << ((counterNum * CY_SYS_WDT_CNT_SHIFT) + CY_SYS_WDT_
 286              		.loc 1 603 0
 287 0010 E400     		lsl	r4, r4, #3
 288              	.LVL18:
 289 0012 0234     		add	r4, r4, #2
 602:.\Generated_Source\PSoC4/CyLFClk.c ****             configRegValue = CY_SYS_WDT_CONFIG_REG &
 290              		.loc 1 602 0
 291 0014 1A68     		ldr	r2, [r3]
 292              		.loc 1 603 0
 293 0016 0121     		mov	r1, #1
 294 0018 A140     		lsl	r1, r1, r4
 602:.\Generated_Source\PSoC4/CyLFClk.c ****             configRegValue = CY_SYS_WDT_CONFIG_REG &
 295              		.loc 1 602 0
 296 001a 8A43     		bic	r2, r1
 297              	.LVL19:
 604:.\Generated_Source\PSoC4/CyLFClk.c **** 
 605:.\Generated_Source\PSoC4/CyLFClk.c ****             configRegValue
 606:.\Generated_Source\PSoC4/CyLFClk.c ****                 |= (uint32)(enable << ((counterNum * CY_SYS_WDT_CNT_SHIFT) + CY_SYS_WDT_CNT_MATCH_C
 298              		.loc 1 606 0
 299 001c A540     		lsl	r5, r5, r4
ARM GAS  C:\Users\SDEVAS~1\AppData\Local\Temp\cchvSIah.s 			page 17


 300              	.LVL20:
 301 001e 141C     		mov	r4, r2
 302 0020 2C43     		orr	r4, r5
 303              	.LVL21:
 607:.\Generated_Source\PSoC4/CyLFClk.c **** 
 608:.\Generated_Source\PSoC4/CyLFClk.c ****             CY_SYS_WDT_CONFIG_REG = configRegValue;
 304              		.loc 1 608 0
 305 0022 1C60     		str	r4, [r3]
 306              	.LVL22:
 307              	.L21:
 609:.\Generated_Source\PSoC4/CyLFClk.c ****         }
 610:.\Generated_Source\PSoC4/CyLFClk.c ****     }
 308              		.loc 1 610 0
 309              		@ sp needed
 310 0024 38BD     		pop	{r3, r4, r5, pc}
 311              	.L24:
 312 0026 C046     		.align	2
 313              	.L23:
 314 0028 0C020B40 		.word	1074463244
 315              		.cfi_endproc
 316              	.LFE9:
 317              		.size	CySysWdtSetClearOnMatch, .-CySysWdtSetClearOnMatch
 318              		.section	.text.CySysWdtGetClearOnMatch,"ax",%progbits
 319              		.align	1
 320              		.global	CySysWdtGetClearOnMatch
 321              		.code	16
 322              		.thumb_func
 323              		.type	CySysWdtGetClearOnMatch, %function
 324              	CySysWdtGetClearOnMatch:
 325              	.LFB10:
 611:.\Generated_Source\PSoC4/CyLFClk.c **** 
 612:.\Generated_Source\PSoC4/CyLFClk.c **** 
 613:.\Generated_Source\PSoC4/CyLFClk.c ****     /*******************************************************************************
 614:.\Generated_Source\PSoC4/CyLFClk.c ****     * Function Name: CySysWdtGetClearOnMatch
 615:.\Generated_Source\PSoC4/CyLFClk.c ****     ********************************************************************************
 616:.\Generated_Source\PSoC4/CyLFClk.c ****     *
 617:.\Generated_Source\PSoC4/CyLFClk.c ****     * Summary:
 618:.\Generated_Source\PSoC4/CyLFClk.c ****     *  Reads the "clear on match" setting for the specified counter.
 619:.\Generated_Source\PSoC4/CyLFClk.c ****     *
 620:.\Generated_Source\PSoC4/CyLFClk.c ****     * Parameters:
 621:.\Generated_Source\PSoC4/CyLFClk.c ****     *   counterNum: Valid range [0-1].  The number of the WDT counter.  The match values are
 622:.\Generated_Source\PSoC4/CyLFClk.c ****     *               not supported by counter 2.
 623:.\Generated_Source\PSoC4/CyLFClk.c ****     *
 624:.\Generated_Source\PSoC4/CyLFClk.c ****     * Return:
 625:.\Generated_Source\PSoC4/CyLFClk.c ****     *   The "clear on match" status: 1 if enabled, 0 if disabled
 626:.\Generated_Source\PSoC4/CyLFClk.c ****     *
 627:.\Generated_Source\PSoC4/CyLFClk.c ****     *******************************************************************************/
 628:.\Generated_Source\PSoC4/CyLFClk.c ****     uint32 CySysWdtGetClearOnMatch(uint32 counterNum)
 629:.\Generated_Source\PSoC4/CyLFClk.c ****     {
 326              		.loc 1 629 0
 327              		.cfi_startproc
 328              	.LVL23:
 630:.\Generated_Source\PSoC4/CyLFClk.c ****         CYASSERT((counterNum == CY_SYS_WDT_COUNTER0) ||
 631:.\Generated_Source\PSoC4/CyLFClk.c ****                  (counterNum == CY_SYS_WDT_COUNTER1));
 632:.\Generated_Source\PSoC4/CyLFClk.c **** 
 633:.\Generated_Source\PSoC4/CyLFClk.c ****         return (uint32)((CY_SYS_WDT_CONFIG_REG >>
 329              		.loc 1 633 0
ARM GAS  C:\Users\SDEVAS~1\AppData\Local\Temp\cchvSIah.s 			page 18


 330 0000 044B     		ldr	r3, .L26
 634:.\Generated_Source\PSoC4/CyLFClk.c ****                         ((counterNum * CY_SYS_WDT_CNT_SHIFT) + CY_SYS_WDT_CNT_MATCH_CLR_SHIFT)) & 0
 331              		.loc 1 634 0
 332 0002 C000     		lsl	r0, r0, #3
 333              	.LVL24:
 633:.\Generated_Source\PSoC4/CyLFClk.c ****         return (uint32)((CY_SYS_WDT_CONFIG_REG >>
 334              		.loc 1 633 0
 335 0004 1B68     		ldr	r3, [r3]
 336              		.loc 1 634 0
 337 0006 0230     		add	r0, r0, #2
 633:.\Generated_Source\PSoC4/CyLFClk.c ****         return (uint32)((CY_SYS_WDT_CONFIG_REG >>
 338              		.loc 1 633 0
 339 0008 C340     		lsr	r3, r3, r0
 340 000a 181C     		mov	r0, r3
 341 000c 0123     		mov	r3, #1
 342 000e 1840     		and	r0, r3
 635:.\Generated_Source\PSoC4/CyLFClk.c ****     }
 343              		.loc 1 635 0
 344              		@ sp needed
 345 0010 7047     		bx	lr
 346              	.L27:
 347 0012 C046     		.align	2
 348              	.L26:
 349 0014 0C020B40 		.word	1074463244
 350              		.cfi_endproc
 351              	.LFE10:
 352              		.size	CySysWdtGetClearOnMatch, .-CySysWdtGetClearOnMatch
 353              		.section	.text.CySysWdtEnable,"ax",%progbits
 354              		.align	1
 355              		.global	CySysWdtEnable
 356              		.code	16
 357              		.thumb_func
 358              		.type	CySysWdtEnable, %function
 359              	CySysWdtEnable:
 360              	.LFB11:
 636:.\Generated_Source\PSoC4/CyLFClk.c **** 
 637:.\Generated_Source\PSoC4/CyLFClk.c **** 
 638:.\Generated_Source\PSoC4/CyLFClk.c ****     /*******************************************************************************
 639:.\Generated_Source\PSoC4/CyLFClk.c ****     * Function Name: CySysWdtEnable
 640:.\Generated_Source\PSoC4/CyLFClk.c ****     ********************************************************************************
 641:.\Generated_Source\PSoC4/CyLFClk.c ****     *
 642:.\Generated_Source\PSoC4/CyLFClk.c ****     * Summary:
 643:.\Generated_Source\PSoC4/CyLFClk.c ****     *  Enables the specified WDT counters.  All the counters specified in the mask
 644:.\Generated_Source\PSoC4/CyLFClk.c ****     *  are enabled.
 645:.\Generated_Source\PSoC4/CyLFClk.c ****     *
 646:.\Generated_Source\PSoC4/CyLFClk.c ****     * Parameters:
 647:.\Generated_Source\PSoC4/CyLFClk.c ****     *  counterMask: The mask of all counters to enable.
 648:.\Generated_Source\PSoC4/CyLFClk.c ****     *       Define                       Counter
 649:.\Generated_Source\PSoC4/CyLFClk.c ****     *      CY_SYS_WDT_COUNTER0_MASK      0
 650:.\Generated_Source\PSoC4/CyLFClk.c ****     *      CY_SYS_WDT_COUNTER1_MASK      1
 651:.\Generated_Source\PSoC4/CyLFClk.c ****     *      CY_SYS_WDT_COUNTER2_MASK      2
 652:.\Generated_Source\PSoC4/CyLFClk.c ****     *
 653:.\Generated_Source\PSoC4/CyLFClk.c ****     * Return:
 654:.\Generated_Source\PSoC4/CyLFClk.c ****     *  None
 655:.\Generated_Source\PSoC4/CyLFClk.c ****     *
 656:.\Generated_Source\PSoC4/CyLFClk.c ****     * Side Effects:
 657:.\Generated_Source\PSoC4/CyLFClk.c ****     *  Enabling or disabling WDT requires 3 LFCLK cycles to come into effect.
ARM GAS  C:\Users\SDEVAS~1\AppData\Local\Temp\cchvSIah.s 			page 19


 658:.\Generated_Source\PSoC4/CyLFClk.c ****     *  Therefore, the WDT enable state must not be changed more than once in
 659:.\Generated_Source\PSoC4/CyLFClk.c ****     *  that period.
 660:.\Generated_Source\PSoC4/CyLFClk.c ****     *
 661:.\Generated_Source\PSoC4/CyLFClk.c ****     *  After WDT is enabled, it is illegal to write WDT configuration (WDT_CONFIG)
 662:.\Generated_Source\PSoC4/CyLFClk.c ****     *  and control (WDT_CONTROL) registers. This means that all WDT functions that
 663:.\Generated_Source\PSoC4/CyLFClk.c ****     *  contain 'write' in the name (with the exception of CySysWdtSetMatch()
 664:.\Generated_Source\PSoC4/CyLFClk.c ****     *  function) are illegal to call once WDT enabled.
 665:.\Generated_Source\PSoC4/CyLFClk.c ****     *
 666:.\Generated_Source\PSoC4/CyLFClk.c ****     *  PSoC 4100 / PSoC 4200:
 667:.\Generated_Source\PSoC4/CyLFClk.c ****     *  This function enables ILO.
 668:.\Generated_Source\PSoC4/CyLFClk.c ****     *
 669:.\Generated_Source\PSoC4/CyLFClk.c ****     *  PSoC 4100-BL / PSoC 4200-BL and PSoC 4100M / PSoC 4200M:
 670:.\Generated_Source\PSoC4/CyLFClk.c ****     *  LFLCK should be configured before calling this function. The desired
 671:.\Generated_Source\PSoC4/CyLFClk.c ****     *  source should be enabled and configured to be the source for LFCLK.
 672:.\Generated_Source\PSoC4/CyLFClk.c ****     *
 673:.\Generated_Source\PSoC4/CyLFClk.c ****     *******************************************************************************/
 674:.\Generated_Source\PSoC4/CyLFClk.c ****     void CySysWdtEnable(uint32 counterMask)
 675:.\Generated_Source\PSoC4/CyLFClk.c ****     {
 361              		.loc 1 675 0
 362              		.cfi_startproc
 363              	.LVL25:
 364 0000 10B5     		push	{r4, lr}
 365              		.cfi_def_cfa_offset 8
 366              		.cfi_offset 4, -8
 367              		.cfi_offset 14, -4
 368              		.loc 1 675 0
 369 0002 041C     		mov	r4, r0
 676:.\Generated_Source\PSoC4/CyLFClk.c ****         #if (!CY_IP_WCO)
 677:.\Generated_Source\PSoC4/CyLFClk.c ****             CySysClkIloStart();
 370              		.loc 1 677 0
 371 0004 FFF7FEFF 		bl	CySysClkIloStart
 372              	.LVL26:
 678:.\Generated_Source\PSoC4/CyLFClk.c ****         #endif /* (!CY_IP_WCO) */
 679:.\Generated_Source\PSoC4/CyLFClk.c **** 
 680:.\Generated_Source\PSoC4/CyLFClk.c ****         CY_SYS_WDT_CONTROL_REG |= counterMask;
 373              		.loc 1 680 0
 374 0008 094B     		ldr	r3, .L44
 375 000a 1A68     		ldr	r2, [r3]
 376 000c 2243     		orr	r2, r4
 377 000e 1A60     		str	r2, [r3]
 681:.\Generated_Source\PSoC4/CyLFClk.c **** 
 682:.\Generated_Source\PSoC4/CyLFClk.c ****         if(0u != (counterMask & CY_SYS_WDT_COUNTER0_MASK))
 378              		.loc 1 682 0
 379 0010 E107     		lsl	r1, r4, #31
 380 0012 02D5     		bpl	.L29
 381              	.L30:
 382              	.LVL27:
 383              	.LBB12:
 384              	.LBB13:
 496:.\Generated_Source\PSoC4/CyLFClk.c ****         return ((CY_SYS_WDT_CONTROL_REG >> ((CY_SYS_WDT_CNT_SHIFT * counterNum) + CY_SYS_WDT_CNT_ST
 385              		.loc 1 496 0
 386 0014 1A68     		ldr	r2, [r3]
 387              	.LBE13:
 388              	.LBE12:
 683:.\Generated_Source\PSoC4/CyLFClk.c ****         {
 684:.\Generated_Source\PSoC4/CyLFClk.c ****             while (0u == CySysWdtGetEnabledStatus(CY_SYS_WDT_COUNTER0))
 389              		.loc 1 684 0
ARM GAS  C:\Users\SDEVAS~1\AppData\Local\Temp\cchvSIah.s 			page 20


 390 0016 9107     		lsl	r1, r2, #30
 391 0018 FCD5     		bpl	.L30
 392              	.LVL28:
 393              	.L29:
 685:.\Generated_Source\PSoC4/CyLFClk.c ****             {
 686:.\Generated_Source\PSoC4/CyLFClk.c ****                 /* Wait for changes to come into effect */
 687:.\Generated_Source\PSoC4/CyLFClk.c ****             }
 688:.\Generated_Source\PSoC4/CyLFClk.c ****         }
 689:.\Generated_Source\PSoC4/CyLFClk.c **** 
 690:.\Generated_Source\PSoC4/CyLFClk.c ****         if(0u != (counterMask & CY_SYS_WDT_COUNTER1_MASK))
 394              		.loc 1 690 0
 395 001a E205     		lsl	r2, r4, #23
 396 001c 02D5     		bpl	.L31
 397              	.L32:
 398              	.LVL29:
 399              	.LBB14:
 400              	.LBB15:
 496:.\Generated_Source\PSoC4/CyLFClk.c ****         return ((CY_SYS_WDT_CONTROL_REG >> ((CY_SYS_WDT_CNT_SHIFT * counterNum) + CY_SYS_WDT_CNT_ST
 401              		.loc 1 496 0
 402 001e 1A68     		ldr	r2, [r3]
 403              	.LBE15:
 404              	.LBE14:
 691:.\Generated_Source\PSoC4/CyLFClk.c ****         {
 692:.\Generated_Source\PSoC4/CyLFClk.c ****             while (0u == CySysWdtGetEnabledStatus(CY_SYS_WDT_COUNTER1))
 405              		.loc 1 692 0
 406 0020 9105     		lsl	r1, r2, #22
 407 0022 FCD5     		bpl	.L32
 408              	.LVL30:
 409              	.L31:
 693:.\Generated_Source\PSoC4/CyLFClk.c ****             {
 694:.\Generated_Source\PSoC4/CyLFClk.c ****                 /* Wait for changes to come into effect */
 695:.\Generated_Source\PSoC4/CyLFClk.c ****             }
 696:.\Generated_Source\PSoC4/CyLFClk.c ****         }
 697:.\Generated_Source\PSoC4/CyLFClk.c **** 
 698:.\Generated_Source\PSoC4/CyLFClk.c ****         if(0u != (counterMask & CY_SYS_WDT_COUNTER2_MASK))
 410              		.loc 1 698 0
 411 0024 E203     		lsl	r2, r4, #15
 412 0026 02D5     		bpl	.L28
 413              	.L34:
 414              	.LVL31:
 415              	.LBB16:
 416              	.LBB17:
 496:.\Generated_Source\PSoC4/CyLFClk.c ****         return ((CY_SYS_WDT_CONTROL_REG >> ((CY_SYS_WDT_CNT_SHIFT * counterNum) + CY_SYS_WDT_CNT_ST
 417              		.loc 1 496 0
 418 0028 1A68     		ldr	r2, [r3]
 419              	.LBE17:
 420              	.LBE16:
 699:.\Generated_Source\PSoC4/CyLFClk.c ****         {
 700:.\Generated_Source\PSoC4/CyLFClk.c ****             while (0u == CySysWdtGetEnabledStatus(CY_SYS_WDT_COUNTER2))
 421              		.loc 1 700 0
 422 002a 9103     		lsl	r1, r2, #14
 423 002c FCD5     		bpl	.L34
 424              	.LVL32:
 425              	.L28:
 701:.\Generated_Source\PSoC4/CyLFClk.c ****             {
 702:.\Generated_Source\PSoC4/CyLFClk.c ****                 /* Wait for changes to come into effect */
 703:.\Generated_Source\PSoC4/CyLFClk.c ****             }
ARM GAS  C:\Users\SDEVAS~1\AppData\Local\Temp\cchvSIah.s 			page 21


 704:.\Generated_Source\PSoC4/CyLFClk.c ****         }
 705:.\Generated_Source\PSoC4/CyLFClk.c ****     }
 426              		.loc 1 705 0
 427              		@ sp needed
 428              	.LVL33:
 429 002e 10BD     		pop	{r4, pc}
 430              	.L45:
 431              		.align	2
 432              	.L44:
 433 0030 10020B40 		.word	1074463248
 434              		.cfi_endproc
 435              	.LFE11:
 436              		.size	CySysWdtEnable, .-CySysWdtEnable
 437              		.section	.text.CySysWdtDisable,"ax",%progbits
 438              		.align	1
 439              		.global	CySysWdtDisable
 440              		.code	16
 441              		.thumb_func
 442              		.type	CySysWdtDisable, %function
 443              	CySysWdtDisable:
 444              	.LFB12:
 706:.\Generated_Source\PSoC4/CyLFClk.c **** 
 707:.\Generated_Source\PSoC4/CyLFClk.c **** 
 708:.\Generated_Source\PSoC4/CyLFClk.c ****     /*******************************************************************************
 709:.\Generated_Source\PSoC4/CyLFClk.c ****     * Function Name: CySysWdtDisable
 710:.\Generated_Source\PSoC4/CyLFClk.c ****     ********************************************************************************
 711:.\Generated_Source\PSoC4/CyLFClk.c ****     *
 712:.\Generated_Source\PSoC4/CyLFClk.c ****     * Summary:
 713:.\Generated_Source\PSoC4/CyLFClk.c ****     *  Disables the specified WDT counters. All the counters specified in the mask
 714:.\Generated_Source\PSoC4/CyLFClk.c ****     *  are disabled. The function waits for the changes to come into effect.
 715:.\Generated_Source\PSoC4/CyLFClk.c ****     *
 716:.\Generated_Source\PSoC4/CyLFClk.c ****     * Parameters:
 717:.\Generated_Source\PSoC4/CyLFClk.c ****     *  uint32 counterMask: The mask of all counters to disable
 718:.\Generated_Source\PSoC4/CyLFClk.c ****     *    Define                       Counter
 719:.\Generated_Source\PSoC4/CyLFClk.c ****     *   CY_SYS_WDT_COUNTER0_MASK      0
 720:.\Generated_Source\PSoC4/CyLFClk.c ****     *   CY_SYS_WDT_COUNTER1_MASK      1
 721:.\Generated_Source\PSoC4/CyLFClk.c ****     *   CY_SYS_WDT_COUNTER2_MASK      2
 722:.\Generated_Source\PSoC4/CyLFClk.c ****     *
 723:.\Generated_Source\PSoC4/CyLFClk.c ****     * Return:
 724:.\Generated_Source\PSoC4/CyLFClk.c ****     *   None.
 725:.\Generated_Source\PSoC4/CyLFClk.c ****     *
 726:.\Generated_Source\PSoC4/CyLFClk.c ****     *******************************************************************************/
 727:.\Generated_Source\PSoC4/CyLFClk.c ****     void CySysWdtDisable(uint32 counterMask)
 728:.\Generated_Source\PSoC4/CyLFClk.c ****     {
 445              		.loc 1 728 0
 446              		.cfi_startproc
 447              	.LVL34:
 448              	.LBB26:
 449              	.LBB27:
 437:.\Generated_Source\PSoC4/CyLFClk.c ****         return ((0u != (CY_SYS_CLK_SELECT_REG & (uint32)(CY_SYS_WDT_CLK_LOCK_BITS_MASK))) ? (uint32
 450              		.loc 1 437 0
 451 0000 0C4B     		ldr	r3, .L70
 452 0002 1A68     		ldr	r2, [r3]
 453 0004 C023     		mov	r3, #192
 454 0006 1B02     		lsl	r3, r3, #8
 455 0008 1A42     		tst	r2, r3
 456 000a 12D1     		bne	.L46
ARM GAS  C:\Users\SDEVAS~1\AppData\Local\Temp\cchvSIah.s 			page 22


 457              	.LBE27:
 458              	.LBE26:
 729:.\Generated_Source\PSoC4/CyLFClk.c ****         if (0uL == CySysWdtLocked())
 730:.\Generated_Source\PSoC4/CyLFClk.c ****         {
 731:.\Generated_Source\PSoC4/CyLFClk.c ****             CY_SYS_WDT_CONTROL_REG &= ~counterMask;
 459              		.loc 1 731 0
 460 000c 0A4B     		ldr	r3, .L70+4
 461 000e 1A68     		ldr	r2, [r3]
 462 0010 8243     		bic	r2, r0
 463 0012 1A60     		str	r2, [r3]
 732:.\Generated_Source\PSoC4/CyLFClk.c **** 
 733:.\Generated_Source\PSoC4/CyLFClk.c ****             if(0u != (counterMask & CY_SYS_WDT_COUNTER0_MASK))
 464              		.loc 1 733 0
 465 0014 C207     		lsl	r2, r0, #31
 466 0016 02D5     		bpl	.L48
 467              	.L49:
 468              	.LVL35:
 469              	.LBB28:
 470              	.LBB29:
 496:.\Generated_Source\PSoC4/CyLFClk.c ****         return ((CY_SYS_WDT_CONTROL_REG >> ((CY_SYS_WDT_CNT_SHIFT * counterNum) + CY_SYS_WDT_CNT_ST
 471              		.loc 1 496 0
 472 0018 1A68     		ldr	r2, [r3]
 473              	.LBE29:
 474              	.LBE28:
 734:.\Generated_Source\PSoC4/CyLFClk.c ****             {
 735:.\Generated_Source\PSoC4/CyLFClk.c ****                 while (0u != CySysWdtGetEnabledStatus(CY_SYS_WDT_COUNTER0))
 475              		.loc 1 735 0
 476 001a 9107     		lsl	r1, r2, #30
 477 001c FCD4     		bmi	.L49
 478              	.LVL36:
 479              	.L48:
 736:.\Generated_Source\PSoC4/CyLFClk.c ****                 {
 737:.\Generated_Source\PSoC4/CyLFClk.c ****                     /* Wait for changes to come into effect */
 738:.\Generated_Source\PSoC4/CyLFClk.c ****                 }
 739:.\Generated_Source\PSoC4/CyLFClk.c ****             }
 740:.\Generated_Source\PSoC4/CyLFClk.c **** 
 741:.\Generated_Source\PSoC4/CyLFClk.c ****             if(0u != (counterMask & CY_SYS_WDT_COUNTER1_MASK))
 480              		.loc 1 741 0
 481 001e C205     		lsl	r2, r0, #23
 482 0020 02D5     		bpl	.L50
 483              	.L51:
 484              	.LVL37:
 485              	.LBB30:
 486              	.LBB31:
 496:.\Generated_Source\PSoC4/CyLFClk.c ****         return ((CY_SYS_WDT_CONTROL_REG >> ((CY_SYS_WDT_CNT_SHIFT * counterNum) + CY_SYS_WDT_CNT_ST
 487              		.loc 1 496 0
 488 0022 1A68     		ldr	r2, [r3]
 489              	.LBE31:
 490              	.LBE30:
 742:.\Generated_Source\PSoC4/CyLFClk.c ****             {
 743:.\Generated_Source\PSoC4/CyLFClk.c ****                 while (0u != CySysWdtGetEnabledStatus(CY_SYS_WDT_COUNTER1))
 491              		.loc 1 743 0
 492 0024 9105     		lsl	r1, r2, #22
 493 0026 FCD4     		bmi	.L51
 494              	.LVL38:
 495              	.L50:
 744:.\Generated_Source\PSoC4/CyLFClk.c ****                 {
ARM GAS  C:\Users\SDEVAS~1\AppData\Local\Temp\cchvSIah.s 			page 23


 745:.\Generated_Source\PSoC4/CyLFClk.c ****                     /* Wait for changes to come into effect */
 746:.\Generated_Source\PSoC4/CyLFClk.c ****                 }
 747:.\Generated_Source\PSoC4/CyLFClk.c ****             }
 748:.\Generated_Source\PSoC4/CyLFClk.c **** 
 749:.\Generated_Source\PSoC4/CyLFClk.c ****             if(0u != (counterMask & CY_SYS_WDT_COUNTER2_MASK))
 496              		.loc 1 749 0
 497 0028 C203     		lsl	r2, r0, #15
 498 002a 02D5     		bpl	.L46
 499              	.L53:
 500              	.LVL39:
 501              	.LBB32:
 502              	.LBB33:
 496:.\Generated_Source\PSoC4/CyLFClk.c ****         return ((CY_SYS_WDT_CONTROL_REG >> ((CY_SYS_WDT_CNT_SHIFT * counterNum) + CY_SYS_WDT_CNT_ST
 503              		.loc 1 496 0
 504 002c 1A68     		ldr	r2, [r3]
 505              	.LBE33:
 506              	.LBE32:
 750:.\Generated_Source\PSoC4/CyLFClk.c ****             {
 751:.\Generated_Source\PSoC4/CyLFClk.c ****                 while (0u != CySysWdtGetEnabledStatus(CY_SYS_WDT_COUNTER2))
 507              		.loc 1 751 0
 508 002e 9103     		lsl	r1, r2, #14
 509 0030 FCD4     		bmi	.L53
 510              	.LVL40:
 511              	.L46:
 752:.\Generated_Source\PSoC4/CyLFClk.c ****                 {
 753:.\Generated_Source\PSoC4/CyLFClk.c ****                     /* Wait for changes to come into effect */
 754:.\Generated_Source\PSoC4/CyLFClk.c ****                 }
 755:.\Generated_Source\PSoC4/CyLFClk.c ****             }
 756:.\Generated_Source\PSoC4/CyLFClk.c ****         }
 757:.\Generated_Source\PSoC4/CyLFClk.c ****     }
 512              		.loc 1 757 0
 513              		@ sp needed
 514 0032 7047     		bx	lr
 515              	.L71:
 516              		.align	2
 517              	.L70:
 518 0034 00010B40 		.word	1074462976
 519 0038 10020B40 		.word	1074463248
 520              		.cfi_endproc
 521              	.LFE12:
 522              		.size	CySysWdtDisable, .-CySysWdtDisable
 523              		.section	.text.CySysWdtSetCascade,"ax",%progbits
 524              		.align	1
 525              		.global	CySysWdtSetCascade
 526              		.code	16
 527              		.thumb_func
 528              		.type	CySysWdtSetCascade, %function
 529              	CySysWdtSetCascade:
 530              	.LFB13:
 758:.\Generated_Source\PSoC4/CyLFClk.c **** 
 759:.\Generated_Source\PSoC4/CyLFClk.c **** 
 760:.\Generated_Source\PSoC4/CyLFClk.c ****     /*******************************************************************************
 761:.\Generated_Source\PSoC4/CyLFClk.c ****     * Function Name: CySysWdtSetCascade
 762:.\Generated_Source\PSoC4/CyLFClk.c ****     ********************************************************************************
 763:.\Generated_Source\PSoC4/CyLFClk.c ****     *
 764:.\Generated_Source\PSoC4/CyLFClk.c ****     * Summary:
 765:.\Generated_Source\PSoC4/CyLFClk.c ****     *   Writes the two WDT cascade values based on the combination of mask values
ARM GAS  C:\Users\SDEVAS~1\AppData\Local\Temp\cchvSIah.s 			page 24


 766:.\Generated_Source\PSoC4/CyLFClk.c ****     *   specified.
 767:.\Generated_Source\PSoC4/CyLFClk.c ****     *
 768:.\Generated_Source\PSoC4/CyLFClk.c ****     * Parameters:
 769:.\Generated_Source\PSoC4/CyLFClk.c ****     *   cascadeMask: The mask value used to set or clear the cascade values.
 770:.\Generated_Source\PSoC4/CyLFClk.c ****     *   Define                     Cascade
 771:.\Generated_Source\PSoC4/CyLFClk.c ****     *   CY_SYS_WDT_CASCADE_NONE    Neither
 772:.\Generated_Source\PSoC4/CyLFClk.c ****     *   CY_SYS_WDT_CASCADE_01      Cascade 01
 773:.\Generated_Source\PSoC4/CyLFClk.c ****     *   CY_SYS_WDT_CASCADE_12      Cascade 12
 774:.\Generated_Source\PSoC4/CyLFClk.c ****     *
 775:.\Generated_Source\PSoC4/CyLFClk.c ****     *   To set both cascade modes, two defines should be ORed:
 776:.\Generated_Source\PSoC4/CyLFClk.c ****     *   (CY_SYS_WDT_CASCADE_01 | CY_SYS_WDT_CASCADE_12)
 777:.\Generated_Source\PSoC4/CyLFClk.c ****     *
 778:.\Generated_Source\PSoC4/CyLFClk.c ****     * Return:
 779:.\Generated_Source\PSoC4/CyLFClk.c ****     *   None.
 780:.\Generated_Source\PSoC4/CyLFClk.c ****     *
 781:.\Generated_Source\PSoC4/CyLFClk.c ****     * Side effects:
 782:.\Generated_Source\PSoC4/CyLFClk.c ****     *   If only one cascade mask is specified, the second cascade is disabled.
 783:.\Generated_Source\PSoC4/CyLFClk.c ****     *   To set both cascade modes, two defines should be ORed:
 784:.\Generated_Source\PSoC4/CyLFClk.c ****     *    (CY_SYS_WDT_CASCADE_01 | CY_SYS_WDT_CASCADE_12).
 785:.\Generated_Source\PSoC4/CyLFClk.c ****     *
 786:.\Generated_Source\PSoC4/CyLFClk.c ****     *   WDT counters that are part of the specified cascade should be disabled.
 787:.\Generated_Source\PSoC4/CyLFClk.c ****     *   Otherwise this function call has no effect. If the specified
 788:.\Generated_Source\PSoC4/CyLFClk.c ****     *   counter is enabled, call CySysWdtDisable() function with the corresponding
 789:.\Generated_Source\PSoC4/CyLFClk.c ****     *   parameter to disable the specified counter and wait for it to stop. This may
 790:.\Generated_Source\PSoC4/CyLFClk.c ****     *   take up to 3 LFCLK cycles.
 791:.\Generated_Source\PSoC4/CyLFClk.c ****     *
 792:.\Generated_Source\PSoC4/CyLFClk.c ****     *******************************************************************************/
 793:.\Generated_Source\PSoC4/CyLFClk.c ****     void CySysWdtSetCascade(uint32 cascadeMask)
 794:.\Generated_Source\PSoC4/CyLFClk.c ****     {
 531              		.loc 1 794 0
 532              		.cfi_startproc
 533              	.LVL41:
 534              	.LBB40:
 535              	.LBB41:
 496:.\Generated_Source\PSoC4/CyLFClk.c ****         return ((CY_SYS_WDT_CONTROL_REG >> ((CY_SYS_WDT_CNT_SHIFT * counterNum) + CY_SYS_WDT_CNT_ST
 536              		.loc 1 496 0
 537 0000 094B     		ldr	r3, .L74
 538              	.LBE41:
 539              	.LBE40:
 540              		.loc 1 794 0
 541 0002 10B5     		push	{r4, lr}
 542              		.cfi_def_cfa_offset 8
 543              		.cfi_offset 4, -8
 544              		.cfi_offset 14, -4
 545              	.LBB44:
 546              	.LBB42:
 496:.\Generated_Source\PSoC4/CyLFClk.c ****         return ((CY_SYS_WDT_CONTROL_REG >> ((CY_SYS_WDT_CNT_SHIFT * counterNum) + CY_SYS_WDT_CNT_ST
 547              		.loc 1 496 0
 548 0004 1C68     		ldr	r4, [r3]
 549              	.LVL42:
 550              	.LBE42:
 551              	.LBE44:
 552              	.LBB45:
 553              	.LBB46:
 554 0006 1968     		ldr	r1, [r3]
 555              	.LVL43:
 556              	.LBE46:
ARM GAS  C:\Users\SDEVAS~1\AppData\Local\Temp\cchvSIah.s 			page 25


 557              	.LBE45:
 558              	.LBB48:
 559              	.LBB49:
 560 0008 1A68     		ldr	r2, [r3]
 561              	.LVL44:
 562              	.LBE49:
 563              	.LBE48:
 564              	.LBB51:
 565              	.LBB47:
 566 000a 490A     		lsr	r1, r1, #9
 567              	.LVL45:
 568              	.LBE47:
 569              	.LBE51:
 570              	.LBB52:
 571              	.LBB43:
 572 000c 6308     		lsr	r3, r4, #1
 573              	.LBE43:
 574              	.LBE52:
 795:.\Generated_Source\PSoC4/CyLFClk.c ****         uint32 configRegValue;
 796:.\Generated_Source\PSoC4/CyLFClk.c ****         uint32 countersEnableStatus;
 797:.\Generated_Source\PSoC4/CyLFClk.c **** 
 798:.\Generated_Source\PSoC4/CyLFClk.c ****         countersEnableStatus = CySysWdtGetEnabledStatus(CY_SYS_WDT_COUNTER0) |
 575              		.loc 1 798 0
 576 000e 0B43     		orr	r3, r1
 577              	.LBB53:
 578              	.LBB50:
 496:.\Generated_Source\PSoC4/CyLFClk.c ****         return ((CY_SYS_WDT_CONTROL_REG >> ((CY_SYS_WDT_CNT_SHIFT * counterNum) + CY_SYS_WDT_CNT_ST
 579              		.loc 1 496 0
 580 0010 520C     		lsr	r2, r2, #17
 581              	.LBE50:
 582              	.LBE53:
 583              		.loc 1 798 0
 584 0012 1343     		orr	r3, r2
 799:.\Generated_Source\PSoC4/CyLFClk.c ****                             CySysWdtGetEnabledStatus(CY_SYS_WDT_COUNTER1) |
 800:.\Generated_Source\PSoC4/CyLFClk.c ****                             CySysWdtGetEnabledStatus(CY_SYS_WDT_COUNTER2);
 801:.\Generated_Source\PSoC4/CyLFClk.c **** 
 802:.\Generated_Source\PSoC4/CyLFClk.c ****         if (0u == countersEnableStatus)
 585              		.loc 1 802 0
 586 0014 DA07     		lsl	r2, r3, #31
 587 0016 05D4     		bmi	.L72
 803:.\Generated_Source\PSoC4/CyLFClk.c ****         {
 804:.\Generated_Source\PSoC4/CyLFClk.c ****             configRegValue = CY_SYS_WDT_CONFIG_REG;
 588              		.loc 1 804 0
 589 0018 044B     		ldr	r3, .L74+4
 805:.\Generated_Source\PSoC4/CyLFClk.c ****             configRegValue &= ((uint32)(~(CY_SYS_WDT_CASCADE_01|CY_SYS_WDT_CASCADE_12)));
 590              		.loc 1 805 0
 591 001a 054A     		ldr	r2, .L74+8
 804:.\Generated_Source\PSoC4/CyLFClk.c ****             configRegValue = CY_SYS_WDT_CONFIG_REG;
 592              		.loc 1 804 0
 593 001c 1968     		ldr	r1, [r3]
 594              	.LVL46:
 595              		.loc 1 805 0
 596 001e 0A40     		and	r2, r1
 597              	.LVL47:
 806:.\Generated_Source\PSoC4/CyLFClk.c ****             configRegValue |= cascadeMask;
 598              		.loc 1 806 0
 599 0020 1043     		orr	r0, r2
ARM GAS  C:\Users\SDEVAS~1\AppData\Local\Temp\cchvSIah.s 			page 26


 600              	.LVL48:
 807:.\Generated_Source\PSoC4/CyLFClk.c ****             CY_SYS_WDT_CONFIG_REG = configRegValue;
 601              		.loc 1 807 0
 602 0022 1860     		str	r0, [r3]
 603              	.LVL49:
 604              	.L72:
 808:.\Generated_Source\PSoC4/CyLFClk.c ****         }
 809:.\Generated_Source\PSoC4/CyLFClk.c ****     }
 605              		.loc 1 809 0
 606              		@ sp needed
 607 0024 10BD     		pop	{r4, pc}
 608              	.L75:
 609 0026 C046     		.align	2
 610              	.L74:
 611 0028 10020B40 		.word	1074463248
 612 002c 0C020B40 		.word	1074463244
 613 0030 F7F7FFFF 		.word	-2057
 614              		.cfi_endproc
 615              	.LFE13:
 616              		.size	CySysWdtSetCascade, .-CySysWdtSetCascade
 617              		.section	.text.CySysWdtGetCascade,"ax",%progbits
 618              		.align	1
 619              		.global	CySysWdtGetCascade
 620              		.code	16
 621              		.thumb_func
 622              		.type	CySysWdtGetCascade, %function
 623              	CySysWdtGetCascade:
 624              	.LFB14:
 810:.\Generated_Source\PSoC4/CyLFClk.c **** 
 811:.\Generated_Source\PSoC4/CyLFClk.c **** 
 812:.\Generated_Source\PSoC4/CyLFClk.c ****     /*******************************************************************************
 813:.\Generated_Source\PSoC4/CyLFClk.c ****     * Function Name: CySysWdtGetCascade
 814:.\Generated_Source\PSoC4/CyLFClk.c ****     ********************************************************************************
 815:.\Generated_Source\PSoC4/CyLFClk.c ****     *
 816:.\Generated_Source\PSoC4/CyLFClk.c ****     * Summary:
 817:.\Generated_Source\PSoC4/CyLFClk.c ****     *   Reads the two WDT cascade values returning a mask of the bits set.
 818:.\Generated_Source\PSoC4/CyLFClk.c ****     *
 819:.\Generated_Source\PSoC4/CyLFClk.c ****     * Parameters:
 820:.\Generated_Source\PSoC4/CyLFClk.c ****     *   None.
 821:.\Generated_Source\PSoC4/CyLFClk.c ****     *
 822:.\Generated_Source\PSoC4/CyLFClk.c ****     * Return:
 823:.\Generated_Source\PSoC4/CyLFClk.c ****     *   The mask of the cascade values set.
 824:.\Generated_Source\PSoC4/CyLFClk.c ****     *   Define                     Cascade
 825:.\Generated_Source\PSoC4/CyLFClk.c ****     *   CY_SYS_WDT_CASCADE_NONE    Neither
 826:.\Generated_Source\PSoC4/CyLFClk.c ****     *   CY_SYS_WDT_CASCADE_01      Cascade 01
 827:.\Generated_Source\PSoC4/CyLFClk.c ****     *   CY_SYS_WDT_CASCADE_12      Cascade 12
 828:.\Generated_Source\PSoC4/CyLFClk.c ****     *
 829:.\Generated_Source\PSoC4/CyLFClk.c ****     *******************************************************************************/
 830:.\Generated_Source\PSoC4/CyLFClk.c ****     uint32 CySysWdtGetCascade(void)
 831:.\Generated_Source\PSoC4/CyLFClk.c ****     {
 625              		.loc 1 831 0
 626              		.cfi_startproc
 832:.\Generated_Source\PSoC4/CyLFClk.c ****         return (CY_SYS_WDT_CONFIG_REG & (CY_SYS_WDT_CASCADE_01 | CY_SYS_WDT_CASCADE_12));
 627              		.loc 1 832 0
 628 0000 024B     		ldr	r3, .L77
 833:.\Generated_Source\PSoC4/CyLFClk.c ****     }
 629              		.loc 1 833 0
ARM GAS  C:\Users\SDEVAS~1\AppData\Local\Temp\cchvSIah.s 			page 27


 630              		@ sp needed
 832:.\Generated_Source\PSoC4/CyLFClk.c ****         return (CY_SYS_WDT_CONFIG_REG & (CY_SYS_WDT_CASCADE_01 | CY_SYS_WDT_CASCADE_12));
 631              		.loc 1 832 0
 632 0002 1868     		ldr	r0, [r3]
 633 0004 024B     		ldr	r3, .L77+4
 634 0006 1840     		and	r0, r3
 635              		.loc 1 833 0
 636 0008 7047     		bx	lr
 637              	.L78:
 638 000a C046     		.align	2
 639              	.L77:
 640 000c 0C020B40 		.word	1074463244
 641 0010 08080000 		.word	2056
 642              		.cfi_endproc
 643              	.LFE14:
 644              		.size	CySysWdtGetCascade, .-CySysWdtGetCascade
 645              		.section	.text.CySysWdtSetMatch,"ax",%progbits
 646              		.align	1
 647              		.global	CySysWdtSetMatch
 648              		.code	16
 649              		.thumb_func
 650              		.type	CySysWdtSetMatch, %function
 651              	CySysWdtSetMatch:
 652              	.LFB15:
 834:.\Generated_Source\PSoC4/CyLFClk.c **** 
 835:.\Generated_Source\PSoC4/CyLFClk.c **** 
 836:.\Generated_Source\PSoC4/CyLFClk.c ****     /*******************************************************************************
 837:.\Generated_Source\PSoC4/CyLFClk.c ****     * Function Name: CySysWdtSetMatch
 838:.\Generated_Source\PSoC4/CyLFClk.c ****     ********************************************************************************
 839:.\Generated_Source\PSoC4/CyLFClk.c ****     *
 840:.\Generated_Source\PSoC4/CyLFClk.c ****     * Summary:
 841:.\Generated_Source\PSoC4/CyLFClk.c ****     *  Configures the WDT counter match comparison value.
 842:.\Generated_Source\PSoC4/CyLFClk.c ****     *
 843:.\Generated_Source\PSoC4/CyLFClk.c ****     * Parameters:
 844:.\Generated_Source\PSoC4/CyLFClk.c ****     *  counterNum:
 845:.\Generated_Source\PSoC4/CyLFClk.c ****     *   Valid range [0-1]. The number of the WDT counter. The match values are not
 846:.\Generated_Source\PSoC4/CyLFClk.c ****     *   supported by counter 2.
 847:.\Generated_Source\PSoC4/CyLFClk.c ****     *
 848:.\Generated_Source\PSoC4/CyLFClk.c ****     *  match:
 849:.\Generated_Source\PSoC4/CyLFClk.c ****     *   Valid range [0-65535]. The value to be used to match against the counter.
 850:.\Generated_Source\PSoC4/CyLFClk.c ****     *
 851:.\Generated_Source\PSoC4/CyLFClk.c ****     * Return:
 852:.\Generated_Source\PSoC4/CyLFClk.c ****     *   None.
 853:.\Generated_Source\PSoC4/CyLFClk.c ****     *
 854:.\Generated_Source\PSoC4/CyLFClk.c ****     *******************************************************************************/
 855:.\Generated_Source\PSoC4/CyLFClk.c ****     void CySysWdtSetMatch(uint32 counterNum, uint32 match)
 856:.\Generated_Source\PSoC4/CyLFClk.c ****     {
 653              		.loc 1 856 0
 654              		.cfi_startproc
 655              	.LVL50:
 656 0000 38B5     		push	{r3, r4, r5, lr}
 657              		.cfi_def_cfa_offset 16
 658              		.cfi_offset 3, -16
 659              		.cfi_offset 4, -12
 660              		.cfi_offset 5, -8
 661              		.cfi_offset 14, -4
 662              		.loc 1 856 0
ARM GAS  C:\Users\SDEVAS~1\AppData\Local\Temp\cchvSIah.s 			page 28


 663 0002 051C     		mov	r5, r0
 857:.\Generated_Source\PSoC4/CyLFClk.c ****         uint32 regValue;
 858:.\Generated_Source\PSoC4/CyLFClk.c **** 
 859:.\Generated_Source\PSoC4/CyLFClk.c ****         CYASSERT((counterNum == CY_SYS_WDT_COUNTER0) ||
 860:.\Generated_Source\PSoC4/CyLFClk.c ****                  (counterNum == CY_SYS_WDT_COUNTER1));
 861:.\Generated_Source\PSoC4/CyLFClk.c **** 
 862:.\Generated_Source\PSoC4/CyLFClk.c ****         /* Wait for previous changes to come into effect */
 863:.\Generated_Source\PSoC4/CyLFClk.c ****         CyDelayUs(CY_SYS_WDT_3LFCLK_DELAY_US);
 664              		.loc 1 863 0
 665 0004 C920     		mov	r0, #201
 666              	.LVL51:
 856:.\Generated_Source\PSoC4/CyLFClk.c ****     {
 667              		.loc 1 856 0
 668 0006 0C1C     		mov	r4, r1
 669              		.loc 1 863 0
 670 0008 FFF7FEFF 		bl	CyDelayUs
 671              	.LVL52:
 864:.\Generated_Source\PSoC4/CyLFClk.c **** 
 865:.\Generated_Source\PSoC4/CyLFClk.c ****         regValue = CY_SYS_WDT_MATCH_REG;
 672              		.loc 1 865 0
 673 000c 064B     		ldr	r3, .L80
 866:.\Generated_Source\PSoC4/CyLFClk.c ****         regValue &= (uint32)~((uint32)(CY_SYS_WDT_LOWER_16BITS_MASK << (counterNum * CY_SYS_WDT_CNT
 674              		.loc 1 866 0
 675 000e 0749     		ldr	r1, .L80+4
 676 0010 2801     		lsl	r0, r5, #4
 865:.\Generated_Source\PSoC4/CyLFClk.c ****         regValue = CY_SYS_WDT_MATCH_REG;
 677              		.loc 1 865 0
 678 0012 1A68     		ldr	r2, [r3]
 679              	.LVL53:
 680              		.loc 1 866 0
 681 0014 8140     		lsl	r1, r1, r0
 682 0016 8A43     		bic	r2, r1
 683              	.LVL54:
 867:.\Generated_Source\PSoC4/CyLFClk.c ****         CY_SYS_WDT_MATCH_REG = (regValue | (match << (counterNum * CY_SYS_WDT_CNT_MATCH_SHIFT)));
 684              		.loc 1 867 0
 685 0018 8440     		lsl	r4, r4, r0
 686              	.LVL55:
 687 001a 101C     		mov	r0, r2
 688 001c 2043     		orr	r0, r4
 689 001e 1860     		str	r0, [r3]
 868:.\Generated_Source\PSoC4/CyLFClk.c **** 
 869:.\Generated_Source\PSoC4/CyLFClk.c ****         /* Make sure match synchronization has started */
 870:.\Generated_Source\PSoC4/CyLFClk.c ****         CyDelayUs(CY_SYS_WDT_1LFCLK_DELAY_US);
 690              		.loc 1 870 0
 691 0020 4320     		mov	r0, #67
 692 0022 FFF7FEFF 		bl	CyDelayUs
 693              	.LVL56:
 871:.\Generated_Source\PSoC4/CyLFClk.c ****     }
 694              		.loc 1 871 0
 695              		@ sp needed
 696              	.LVL57:
 697 0026 38BD     		pop	{r3, r4, r5, pc}
 698              	.L81:
 699              		.align	2
 700              	.L80:
 701 0028 08020B40 		.word	1074463240
 702 002c FFFF0000 		.word	65535
ARM GAS  C:\Users\SDEVAS~1\AppData\Local\Temp\cchvSIah.s 			page 29


 703              		.cfi_endproc
 704              	.LFE15:
 705              		.size	CySysWdtSetMatch, .-CySysWdtSetMatch
 706              		.section	.text.CySysWdtSetToggleBit,"ax",%progbits
 707              		.align	1
 708              		.global	CySysWdtSetToggleBit
 709              		.code	16
 710              		.thumb_func
 711              		.type	CySysWdtSetToggleBit, %function
 712              	CySysWdtSetToggleBit:
 713              	.LFB16:
 872:.\Generated_Source\PSoC4/CyLFClk.c **** 
 873:.\Generated_Source\PSoC4/CyLFClk.c **** 
 874:.\Generated_Source\PSoC4/CyLFClk.c ****     /*******************************************************************************
 875:.\Generated_Source\PSoC4/CyLFClk.c ****     * Function Name: CySysWdtSetToggleBit
 876:.\Generated_Source\PSoC4/CyLFClk.c ****     ********************************************************************************
 877:.\Generated_Source\PSoC4/CyLFClk.c ****     *
 878:.\Generated_Source\PSoC4/CyLFClk.c ****     * Summary:
 879:.\Generated_Source\PSoC4/CyLFClk.c ****     *  Configures which bit in WDT counter 2 to monitor for a toggle. When that
 880:.\Generated_Source\PSoC4/CyLFClk.c ****     *  bit toggles, an interrupt is generated if the mode for counter 2 has
 881:.\Generated_Source\PSoC4/CyLFClk.c ****     *  enabled interrupts.
 882:.\Generated_Source\PSoC4/CyLFClk.c ****     *
 883:.\Generated_Source\PSoC4/CyLFClk.c ****     * Parameters:
 884:.\Generated_Source\PSoC4/CyLFClk.c ****     *  bit:
 885:.\Generated_Source\PSoC4/CyLFClk.c ****     *   Valid range [0-31].  Counter 2 bit to monitor for a toggle.
 886:.\Generated_Source\PSoC4/CyLFClk.c ****     *
 887:.\Generated_Source\PSoC4/CyLFClk.c ****     * Return:
 888:.\Generated_Source\PSoC4/CyLFClk.c ****     *   None.
 889:.\Generated_Source\PSoC4/CyLFClk.c ****     *
 890:.\Generated_Source\PSoC4/CyLFClk.c ****     * Side effects:
 891:.\Generated_Source\PSoC4/CyLFClk.c ****     *   WDT Counter 2 should be disabled. Otherwise this function call has no
 892:.\Generated_Source\PSoC4/CyLFClk.c ****     *   effect.
 893:.\Generated_Source\PSoC4/CyLFClk.c ****     *
 894:.\Generated_Source\PSoC4/CyLFClk.c ****     *   If the specified counter is enabled, call the CySysWdtDisable() function with
 895:.\Generated_Source\PSoC4/CyLFClk.c ****     *   the corresponding parameter to disable the specified counter and wait for it to
 896:.\Generated_Source\PSoC4/CyLFClk.c ****     *   stop. This may take up to 3 LFCLK cycles.
 897:.\Generated_Source\PSoC4/CyLFClk.c ****     *
 898:.\Generated_Source\PSoC4/CyLFClk.c ****     *******************************************************************************/
 899:.\Generated_Source\PSoC4/CyLFClk.c ****     void CySysWdtSetToggleBit(uint32 bits)
 900:.\Generated_Source\PSoC4/CyLFClk.c ****     {
 714              		.loc 1 900 0
 715              		.cfi_startproc
 716              	.LVL58:
 717              	.LBB56:
 718              	.LBB57:
 496:.\Generated_Source\PSoC4/CyLFClk.c ****         return ((CY_SYS_WDT_CONTROL_REG >> ((CY_SYS_WDT_CNT_SHIFT * counterNum) + CY_SYS_WDT_CNT_ST
 719              		.loc 1 496 0
 720 0000 064B     		ldr	r3, .L84
 721 0002 1B68     		ldr	r3, [r3]
 722              	.LBE57:
 723              	.LBE56:
 901:.\Generated_Source\PSoC4/CyLFClk.c ****         uint32 configRegValue;
 902:.\Generated_Source\PSoC4/CyLFClk.c **** 
 903:.\Generated_Source\PSoC4/CyLFClk.c ****         if (0u == CySysWdtGetEnabledStatus(CY_SYS_WDT_COUNTER2))
 724              		.loc 1 903 0
 725 0004 9A03     		lsl	r2, r3, #14
 726 0006 08D4     		bmi	.L82
ARM GAS  C:\Users\SDEVAS~1\AppData\Local\Temp\cchvSIah.s 			page 30


 904:.\Generated_Source\PSoC4/CyLFClk.c ****         {
 905:.\Generated_Source\PSoC4/CyLFClk.c ****             configRegValue = CY_SYS_WDT_CONFIG_REG;
 727              		.loc 1 905 0
 728 0008 054B     		ldr	r3, .L84+4
 906:.\Generated_Source\PSoC4/CyLFClk.c ****             configRegValue &= (uint32)(~((uint32)(CY_SYS_WDT_CONFIG_BITS2_MASK << CY_SYS_WDT_CONFIG
 729              		.loc 1 906 0
 730 000a 064A     		ldr	r2, .L84+8
 905:.\Generated_Source\PSoC4/CyLFClk.c ****             configRegValue = CY_SYS_WDT_CONFIG_REG;
 731              		.loc 1 905 0
 732 000c 1968     		ldr	r1, [r3]
 733              	.LVL59:
 734              		.loc 1 906 0
 735 000e 0A40     		and	r2, r1
 736              	.LVL60:
 907:.\Generated_Source\PSoC4/CyLFClk.c ****             configRegValue |= ((bits & CY_SYS_WDT_CONFIG_BITS2_MASK) << CY_SYS_WDT_CONFIG_BITS2_POS
 737              		.loc 1 907 0
 738 0010 1F21     		mov	r1, #31
 739 0012 0840     		and	r0, r1
 740              	.LVL61:
 741 0014 0006     		lsl	r0, r0, #24
 742 0016 1043     		orr	r0, r2
 743              	.LVL62:
 908:.\Generated_Source\PSoC4/CyLFClk.c ****             CY_SYS_WDT_CONFIG_REG = configRegValue;
 744              		.loc 1 908 0
 745 0018 1860     		str	r0, [r3]
 746              	.LVL63:
 747              	.L82:
 909:.\Generated_Source\PSoC4/CyLFClk.c ****         }
 910:.\Generated_Source\PSoC4/CyLFClk.c ****     }
 748              		.loc 1 910 0
 749              		@ sp needed
 750 001a 7047     		bx	lr
 751              	.L85:
 752              		.align	2
 753              	.L84:
 754 001c 10020B40 		.word	1074463248
 755 0020 0C020B40 		.word	1074463244
 756 0024 FFFFFFE0 		.word	-520093697
 757              		.cfi_endproc
 758              	.LFE16:
 759              		.size	CySysWdtSetToggleBit, .-CySysWdtSetToggleBit
 760              		.section	.text.CySysWdtGetToggleBit,"ax",%progbits
 761              		.align	1
 762              		.global	CySysWdtGetToggleBit
 763              		.code	16
 764              		.thumb_func
 765              		.type	CySysWdtGetToggleBit, %function
 766              	CySysWdtGetToggleBit:
 767              	.LFB17:
 911:.\Generated_Source\PSoC4/CyLFClk.c **** 
 912:.\Generated_Source\PSoC4/CyLFClk.c **** 
 913:.\Generated_Source\PSoC4/CyLFClk.c ****     /*******************************************************************************
 914:.\Generated_Source\PSoC4/CyLFClk.c ****     * Function Name: CySysWdtGetToggleBit
 915:.\Generated_Source\PSoC4/CyLFClk.c ****     ********************************************************************************
 916:.\Generated_Source\PSoC4/CyLFClk.c ****     *
 917:.\Generated_Source\PSoC4/CyLFClk.c ****     * Summary:
 918:.\Generated_Source\PSoC4/CyLFClk.c ****     *  Reads which bit in WDT counter 2 is monitored for a toggle.
ARM GAS  C:\Users\SDEVAS~1\AppData\Local\Temp\cchvSIah.s 			page 31


 919:.\Generated_Source\PSoC4/CyLFClk.c ****     *
 920:.\Generated_Source\PSoC4/CyLFClk.c ****     * Parameters:
 921:.\Generated_Source\PSoC4/CyLFClk.c ****     *  None.
 922:.\Generated_Source\PSoC4/CyLFClk.c ****     *
 923:.\Generated_Source\PSoC4/CyLFClk.c ****     * Return:
 924:.\Generated_Source\PSoC4/CyLFClk.c ****     *  The bit that is monitored (range of 0 to 31)
 925:.\Generated_Source\PSoC4/CyLFClk.c ****     *
 926:.\Generated_Source\PSoC4/CyLFClk.c ****     *******************************************************************************/
 927:.\Generated_Source\PSoC4/CyLFClk.c ****     uint32 CySysWdtGetToggleBit(void)
 928:.\Generated_Source\PSoC4/CyLFClk.c ****     {
 768              		.loc 1 928 0
 769              		.cfi_startproc
 929:.\Generated_Source\PSoC4/CyLFClk.c ****         return ((CY_SYS_WDT_CONFIG_REG >> CY_SYS_WDT_CONFIG_BITS2_POS) & CY_SYS_WDT_CONFIG_BITS2_MA
 770              		.loc 1 929 0
 771 0000 024B     		ldr	r3, .L87
 930:.\Generated_Source\PSoC4/CyLFClk.c ****     }
 772              		.loc 1 930 0
 773              		@ sp needed
 929:.\Generated_Source\PSoC4/CyLFClk.c ****         return ((CY_SYS_WDT_CONFIG_REG >> CY_SYS_WDT_CONFIG_BITS2_POS) & CY_SYS_WDT_CONFIG_BITS2_MA
 774              		.loc 1 929 0
 775 0002 1868     		ldr	r0, [r3]
 776 0004 C000     		lsl	r0, r0, #3
 777 0006 C00E     		lsr	r0, r0, #27
 778              		.loc 1 930 0
 779 0008 7047     		bx	lr
 780              	.L88:
 781 000a C046     		.align	2
 782              	.L87:
 783 000c 0C020B40 		.word	1074463244
 784              		.cfi_endproc
 785              	.LFE17:
 786              		.size	CySysWdtGetToggleBit, .-CySysWdtGetToggleBit
 787              		.section	.text.CySysWdtGetMatch,"ax",%progbits
 788              		.align	1
 789              		.global	CySysWdtGetMatch
 790              		.code	16
 791              		.thumb_func
 792              		.type	CySysWdtGetMatch, %function
 793              	CySysWdtGetMatch:
 794              	.LFB18:
 931:.\Generated_Source\PSoC4/CyLFClk.c **** 
 932:.\Generated_Source\PSoC4/CyLFClk.c **** 
 933:.\Generated_Source\PSoC4/CyLFClk.c ****     /*******************************************************************************
 934:.\Generated_Source\PSoC4/CyLFClk.c ****     * Function Name: CySysWdtGetMatch
 935:.\Generated_Source\PSoC4/CyLFClk.c ****     ********************************************************************************
 936:.\Generated_Source\PSoC4/CyLFClk.c ****     *
 937:.\Generated_Source\PSoC4/CyLFClk.c ****     * Summary:
 938:.\Generated_Source\PSoC4/CyLFClk.c ****     *  Reads the WDT counter match comparison value.
 939:.\Generated_Source\PSoC4/CyLFClk.c ****     *
 940:.\Generated_Source\PSoC4/CyLFClk.c ****     * Parameters:
 941:.\Generated_Source\PSoC4/CyLFClk.c ****     *  counterNum: Valid range [0-1].  The number of the WDT counter.  The match values
 942:.\Generated_Source\PSoC4/CyLFClk.c ****     *               are not supported by counter 2.
 943:.\Generated_Source\PSoC4/CyLFClk.c ****     *
 944:.\Generated_Source\PSoC4/CyLFClk.c ****     * Return:
 945:.\Generated_Source\PSoC4/CyLFClk.c ****     *  A 16-bit match value.
 946:.\Generated_Source\PSoC4/CyLFClk.c ****     *
 947:.\Generated_Source\PSoC4/CyLFClk.c ****     *******************************************************************************/
ARM GAS  C:\Users\SDEVAS~1\AppData\Local\Temp\cchvSIah.s 			page 32


 948:.\Generated_Source\PSoC4/CyLFClk.c ****     uint32 CySysWdtGetMatch(uint32 counterNum)
 949:.\Generated_Source\PSoC4/CyLFClk.c ****     {
 795              		.loc 1 949 0
 796              		.cfi_startproc
 797              	.LVL64:
 950:.\Generated_Source\PSoC4/CyLFClk.c ****         CYASSERT((counterNum == CY_SYS_WDT_COUNTER0) ||
 951:.\Generated_Source\PSoC4/CyLFClk.c ****                  (counterNum == CY_SYS_WDT_COUNTER1));
 952:.\Generated_Source\PSoC4/CyLFClk.c **** 
 953:.\Generated_Source\PSoC4/CyLFClk.c ****         return ((uint32)(CY_SYS_WDT_MATCH_REG >> (counterNum * CY_SYS_WDT_CNT_MATCH_SHIFT)) & CY_SY
 798              		.loc 1 953 0
 799 0000 024B     		ldr	r3, .L90
 800 0002 0001     		lsl	r0, r0, #4
 801              	.LVL65:
 802 0004 1B68     		ldr	r3, [r3]
 954:.\Generated_Source\PSoC4/CyLFClk.c ****     }
 803              		.loc 1 954 0
 804              		@ sp needed
 953:.\Generated_Source\PSoC4/CyLFClk.c ****         return ((uint32)(CY_SYS_WDT_MATCH_REG >> (counterNum * CY_SYS_WDT_CNT_MATCH_SHIFT)) & CY_SY
 805              		.loc 1 953 0
 806 0006 C340     		lsr	r3, r3, r0
 807 0008 98B2     		uxth	r0, r3
 808              		.loc 1 954 0
 809 000a 7047     		bx	lr
 810              	.L91:
 811              		.align	2
 812              	.L90:
 813 000c 08020B40 		.word	1074463240
 814              		.cfi_endproc
 815              	.LFE18:
 816              		.size	CySysWdtGetMatch, .-CySysWdtGetMatch
 817              		.section	.text.CySysWdtGetCount,"ax",%progbits
 818              		.align	1
 819              		.global	CySysWdtGetCount
 820              		.code	16
 821              		.thumb_func
 822              		.type	CySysWdtGetCount, %function
 823              	CySysWdtGetCount:
 824              	.LFB19:
 955:.\Generated_Source\PSoC4/CyLFClk.c **** 
 956:.\Generated_Source\PSoC4/CyLFClk.c **** 
 957:.\Generated_Source\PSoC4/CyLFClk.c ****     /*******************************************************************************
 958:.\Generated_Source\PSoC4/CyLFClk.c ****     * Function Name: CySysWdtGetCount
 959:.\Generated_Source\PSoC4/CyLFClk.c ****     ********************************************************************************
 960:.\Generated_Source\PSoC4/CyLFClk.c ****     *
 961:.\Generated_Source\PSoC4/CyLFClk.c ****     * Summary:
 962:.\Generated_Source\PSoC4/CyLFClk.c ****     *  Reads the current WDT counter value.
 963:.\Generated_Source\PSoC4/CyLFClk.c ****     *
 964:.\Generated_Source\PSoC4/CyLFClk.c ****     * Parameters:
 965:.\Generated_Source\PSoC4/CyLFClk.c ****     *  counterNum: Valid range [0-2].  The number of the WDT counter.
 966:.\Generated_Source\PSoC4/CyLFClk.c ****     *
 967:.\Generated_Source\PSoC4/CyLFClk.c ****     * Return:
 968:.\Generated_Source\PSoC4/CyLFClk.c ****     *  A live counter value.  Counter 0 and 1 are 16 bit counters and counter
 969:.\Generated_Source\PSoC4/CyLFClk.c ****     *  2 is a 32 bit counter.
 970:.\Generated_Source\PSoC4/CyLFClk.c ****     *
 971:.\Generated_Source\PSoC4/CyLFClk.c ****     *******************************************************************************/
 972:.\Generated_Source\PSoC4/CyLFClk.c ****     uint32 CySysWdtGetCount(uint32 counterNum)
 973:.\Generated_Source\PSoC4/CyLFClk.c ****     {
ARM GAS  C:\Users\SDEVAS~1\AppData\Local\Temp\cchvSIah.s 			page 33


 825              		.loc 1 973 0
 826              		.cfi_startproc
 827              	.LVL66:
 974:.\Generated_Source\PSoC4/CyLFClk.c ****         uint32 regValue = 0u;
 975:.\Generated_Source\PSoC4/CyLFClk.c **** 
 976:.\Generated_Source\PSoC4/CyLFClk.c ****         switch(counterNum)
 828              		.loc 1 976 0
 829 0000 0128     		cmp	r0, #1
 830 0002 0AD0     		beq	.L94
 831 0004 0028     		cmp	r0, #0
 832 0006 04D0     		beq	.L95
 833 0008 0228     		cmp	r0, #2
 834 000a 0AD1     		bne	.L99
 977:.\Generated_Source\PSoC4/CyLFClk.c ****         {
 978:.\Generated_Source\PSoC4/CyLFClk.c ****             /* WDT Counter 0 */
 979:.\Generated_Source\PSoC4/CyLFClk.c ****             case 0u:
 980:.\Generated_Source\PSoC4/CyLFClk.c ****                 regValue = CY_SYS_WDT_CTRLOW_REG & CY_SYS_WDT_LOWER_16BITS_MASK;
 981:.\Generated_Source\PSoC4/CyLFClk.c ****             break;
 982:.\Generated_Source\PSoC4/CyLFClk.c **** 
 983:.\Generated_Source\PSoC4/CyLFClk.c ****             /* WDT Counter 1 */
 984:.\Generated_Source\PSoC4/CyLFClk.c ****             case 1u:
 985:.\Generated_Source\PSoC4/CyLFClk.c ****                 regValue = (CY_SYS_WDT_CTRLOW_REG >> CY_SYS_WDT_CNT_MATCH_SHIFT) & CY_SYS_WDT_LOWER
 986:.\Generated_Source\PSoC4/CyLFClk.c ****             break;
 987:.\Generated_Source\PSoC4/CyLFClk.c **** 
 988:.\Generated_Source\PSoC4/CyLFClk.c ****             /* WDT Counter 2 */
 989:.\Generated_Source\PSoC4/CyLFClk.c ****             case 2u:
 990:.\Generated_Source\PSoC4/CyLFClk.c ****                 regValue = CY_SYS_WDT_CTRHIGH_REG;
 835              		.loc 1 990 0
 836 000c 064B     		ldr	r3, .L100
 837 000e 1868     		ldr	r0, [r3]
 838              	.LVL67:
 991:.\Generated_Source\PSoC4/CyLFClk.c ****             break;
 839              		.loc 1 991 0
 840 0010 08E0     		b	.L93
 841              	.LVL68:
 842              	.L95:
 980:.\Generated_Source\PSoC4/CyLFClk.c ****                 regValue = CY_SYS_WDT_CTRLOW_REG & CY_SYS_WDT_LOWER_16BITS_MASK;
 843              		.loc 1 980 0
 844 0012 064B     		ldr	r3, .L100+4
 845 0014 1868     		ldr	r0, [r3]
 846              	.LVL69:
 847 0016 80B2     		uxth	r0, r0
 848              	.LVL70:
 981:.\Generated_Source\PSoC4/CyLFClk.c ****             break;
 849              		.loc 1 981 0
 850 0018 04E0     		b	.L93
 851              	.LVL71:
 852              	.L94:
 985:.\Generated_Source\PSoC4/CyLFClk.c ****                 regValue = (CY_SYS_WDT_CTRLOW_REG >> CY_SYS_WDT_CNT_MATCH_SHIFT) & CY_SYS_WDT_LOWER
 853              		.loc 1 985 0
 854 001a 044B     		ldr	r3, .L100+4
 855 001c 1868     		ldr	r0, [r3]
 856              	.LVL72:
 857 001e 000C     		lsr	r0, r0, #16
 858              	.LVL73:
 986:.\Generated_Source\PSoC4/CyLFClk.c ****             break;
 859              		.loc 1 986 0
ARM GAS  C:\Users\SDEVAS~1\AppData\Local\Temp\cchvSIah.s 			page 34


 860 0020 00E0     		b	.L93
 861              	.LVL74:
 862              	.L99:
 974:.\Generated_Source\PSoC4/CyLFClk.c ****         uint32 regValue = 0u;
 863              		.loc 1 974 0
 864 0022 0020     		mov	r0, #0
 865              	.LVL75:
 866              	.L93:
 992:.\Generated_Source\PSoC4/CyLFClk.c **** 
 993:.\Generated_Source\PSoC4/CyLFClk.c ****             default:
 994:.\Generated_Source\PSoC4/CyLFClk.c ****                 CYASSERT(0u != 0u);
 995:.\Generated_Source\PSoC4/CyLFClk.c ****             break;
 996:.\Generated_Source\PSoC4/CyLFClk.c ****         }
 997:.\Generated_Source\PSoC4/CyLFClk.c **** 
 998:.\Generated_Source\PSoC4/CyLFClk.c ****         return (regValue);
 999:.\Generated_Source\PSoC4/CyLFClk.c ****     }
 867              		.loc 1 999 0
 868              		@ sp needed
 869 0024 7047     		bx	lr
 870              	.L101:
 871 0026 C046     		.align	2
 872              	.L100:
 873 0028 04020B40 		.word	1074463236
 874 002c 00020B40 		.word	1074463232
 875              		.cfi_endproc
 876              	.LFE19:
 877              		.size	CySysWdtGetCount, .-CySysWdtGetCount
 878              		.section	.text.CySysClkIloStop,"ax",%progbits
 879              		.align	1
 880              		.global	CySysClkIloStop
 881              		.code	16
 882              		.thumb_func
 883              		.type	CySysClkIloStop, %function
 884              	CySysClkIloStop:
 885              	.LFB1:
  97:.\Generated_Source\PSoC4/CyLFClk.c **** {
 886              		.loc 1 97 0
 887              		.cfi_startproc
 888 0000 F7B5     		push	{r0, r1, r2, r4, r5, r6, r7, lr}
 889              		.cfi_def_cfa_offset 32
 890              		.cfi_offset 0, -32
 891              		.cfi_offset 1, -28
 892              		.cfi_offset 2, -24
 893              		.cfi_offset 4, -20
 894              		.cfi_offset 5, -16
 895              		.cfi_offset 6, -12
 896              		.cfi_offset 7, -8
 897              		.cfi_offset 14, -4
 898              	.LBB74:
 899              	.LBB75:
 437:.\Generated_Source\PSoC4/CyLFClk.c ****         return ((0u != (CY_SYS_CLK_SELECT_REG & (uint32)(CY_SYS_WDT_CLK_LOCK_BITS_MASK))) ? (uint32
 900              		.loc 1 437 0
 901 0002 284B     		ldr	r3, .L119
 902 0004 1A68     		ldr	r2, [r3]
 903 0006 C023     		mov	r3, #192
 904 0008 1B02     		lsl	r3, r3, #8
 905 000a 1A40     		and	r2, r3
ARM GAS  C:\Users\SDEVAS~1\AppData\Local\Temp\cchvSIah.s 			page 35


 906 000c 0092     		str	r2, [sp]
 907 000e 48D1     		bne	.L102
 908              	.LBE75:
 909              	.LBE74:
 910              	.LBB76:
 911              	.LBB77:
 151:.\Generated_Source\PSoC4/CyLFClk.c ****         return ((0u != (CY_SYS_CLK_ILO_CONFIG_REG & (uint32)(CY_SYS_CLK_ILO_CONFIG_ENABLE))) ?
 912              		.loc 1 151 0
 913 0010 254F     		ldr	r7, .L119+4
 914 0012 3B68     		ldr	r3, [r7]
 152:.\Generated_Source\PSoC4/CyLFClk.c ****             (uint32) 1u :
 915              		.loc 1 152 0
 916 0014 002B     		cmp	r3, #0
 917 0016 44DA     		bge	.L102
 918              	.LBE77:
 919              	.LBE76:
 112:.\Generated_Source\PSoC4/CyLFClk.c ****                 interruptState = CyEnterCriticalSection();
 920              		.loc 1 112 0
 921 0018 FFF7FEFF 		bl	CyEnterCriticalSection
 922              	.LVL76:
 923              	.LBB78:
 924              	.LBB79:
 925              	.LBB80:
 926              	.LBB81:
 496:.\Generated_Source\PSoC4/CyLFClk.c ****         return ((CY_SYS_WDT_CONTROL_REG >> ((CY_SYS_WDT_CNT_SHIFT * counterNum) + CY_SYS_WDT_CNT_ST
 927              		.loc 1 496 0
 928 001c 234E     		ldr	r6, .L119+8
 929              	.LBE81:
 930              	.LBE80:
 931              	.LBE79:
 932              	.LBE78:
 112:.\Generated_Source\PSoC4/CyLFClk.c ****                 interruptState = CyEnterCriticalSection();
 933              		.loc 1 112 0
 934 001e 0190     		str	r0, [sp, #4]
 935              	.LVL77:
 936              	.LBB93:
 937              	.LBB92:
 938              	.LBB83:
 939              	.LBB82:
 496:.\Generated_Source\PSoC4/CyLFClk.c ****         return ((CY_SYS_WDT_CONTROL_REG >> ((CY_SYS_WDT_CNT_SHIFT * counterNum) + CY_SYS_WDT_CNT_ST
 940              		.loc 1 496 0
 941 0020 3368     		ldr	r3, [r6]
 942 0022 0125     		mov	r5, #1
 943 0024 224C     		ldr	r4, .L119+12
 944              	.LBE82:
 945              	.LBE83:
1000:.\Generated_Source\PSoC4/CyLFClk.c **** 
1001:.\Generated_Source\PSoC4/CyLFClk.c **** 
1002:.\Generated_Source\PSoC4/CyLFClk.c ****     /*******************************************************************************
1003:.\Generated_Source\PSoC4/CyLFClk.c ****     * Function Name: CySysWdtGetInterruptSource
1004:.\Generated_Source\PSoC4/CyLFClk.c ****     ********************************************************************************
1005:.\Generated_Source\PSoC4/CyLFClk.c ****     *
1006:.\Generated_Source\PSoC4/CyLFClk.c ****     * Summary:
1007:.\Generated_Source\PSoC4/CyLFClk.c ****     *   Reads a mask containing all the WDT counters interrupts that are currently
1008:.\Generated_Source\PSoC4/CyLFClk.c ****     *   set by the hardware, if a corresponding mode is selected.
1009:.\Generated_Source\PSoC4/CyLFClk.c ****     *
1010:.\Generated_Source\PSoC4/CyLFClk.c ****     * Parameters:
ARM GAS  C:\Users\SDEVAS~1\AppData\Local\Temp\cchvSIah.s 			page 36


1011:.\Generated_Source\PSoC4/CyLFClk.c ****     *   None.
1012:.\Generated_Source\PSoC4/CyLFClk.c ****     *
1013:.\Generated_Source\PSoC4/CyLFClk.c ****     * Return:
1014:.\Generated_Source\PSoC4/CyLFClk.c ****     *   The mask of interrupts set.
1015:.\Generated_Source\PSoC4/CyLFClk.c ****     *   Define                    Counter
1016:.\Generated_Source\PSoC4/CyLFClk.c ****     *   CY_SYS_WDT_COUNTER0_INT    0
1017:.\Generated_Source\PSoC4/CyLFClk.c ****     *   CY_SYS_WDT_COUNTER1_INT    1
1018:.\Generated_Source\PSoC4/CyLFClk.c ****     *   CY_SYS_WDT_COUNTER2_INT    2
1019:.\Generated_Source\PSoC4/CyLFClk.c ****     *
1020:.\Generated_Source\PSoC4/CyLFClk.c ****     *******************************************************************************/
1021:.\Generated_Source\PSoC4/CyLFClk.c ****     uint32 CySysWdtGetInterruptSource(void)
1022:.\Generated_Source\PSoC4/CyLFClk.c ****     {
1023:.\Generated_Source\PSoC4/CyLFClk.c ****         return (CY_SYS_WDT_CONTROL_REG & (CY_SYS_WDT_COUNTER0_INT | CY_SYS_WDT_COUNTER1_INT | CY_SY
1024:.\Generated_Source\PSoC4/CyLFClk.c ****     }
1025:.\Generated_Source\PSoC4/CyLFClk.c **** 
1026:.\Generated_Source\PSoC4/CyLFClk.c **** 
1027:.\Generated_Source\PSoC4/CyLFClk.c ****     /*******************************************************************************
1028:.\Generated_Source\PSoC4/CyLFClk.c ****     * Function Name: CySysWdtClearInterrupt
1029:.\Generated_Source\PSoC4/CyLFClk.c ****     ********************************************************************************
1030:.\Generated_Source\PSoC4/CyLFClk.c ****     *
1031:.\Generated_Source\PSoC4/CyLFClk.c ****     * Summary:
1032:.\Generated_Source\PSoC4/CyLFClk.c ****     *   Clears all the WDT counter interrupts set in the mask. Calling this function
1033:.\Generated_Source\PSoC4/CyLFClk.c ****     *   also prevents from Reset when the counter mode is set to generate
1034:.\Generated_Source\PSoC4/CyLFClk.c ****     *   3 interrupts and then the device resets.
1035:.\Generated_Source\PSoC4/CyLFClk.c ****     *
1036:.\Generated_Source\PSoC4/CyLFClk.c ****     *   All the WDT interrupts are to be cleared by the firmware, otherwise
1037:.\Generated_Source\PSoC4/CyLFClk.c ****     *   interrupts are generated continuously.
1038:.\Generated_Source\PSoC4/CyLFClk.c ****     *
1039:.\Generated_Source\PSoC4/CyLFClk.c ****     * Parameters:
1040:.\Generated_Source\PSoC4/CyLFClk.c ****     *   counterMask: The mask of all the counters to enable.
1041:.\Generated_Source\PSoC4/CyLFClk.c ****     *   Define                    Counter
1042:.\Generated_Source\PSoC4/CyLFClk.c ****     *   CY_SYS_WDT_COUNTER0_INT    0
1043:.\Generated_Source\PSoC4/CyLFClk.c ****     *   CY_SYS_WDT_COUNTER1_INT    1
1044:.\Generated_Source\PSoC4/CyLFClk.c ****     *   CY_SYS_WDT_COUNTER2_INT    2
1045:.\Generated_Source\PSoC4/CyLFClk.c ****     *
1046:.\Generated_Source\PSoC4/CyLFClk.c ****     * Return:
1047:.\Generated_Source\PSoC4/CyLFClk.c ****     *   None
1048:.\Generated_Source\PSoC4/CyLFClk.c ****     *
1049:.\Generated_Source\PSoC4/CyLFClk.c ****     * Side effects:
1050:.\Generated_Source\PSoC4/CyLFClk.c ****     *   This function temporary removes the watchdog lock, if it was set, and
1051:.\Generated_Source\PSoC4/CyLFClk.c ****     *   restores the lock state after cleaning the WDT interrupts that are set in
1052:.\Generated_Source\PSoC4/CyLFClk.c ****     *   a mask.
1053:.\Generated_Source\PSoC4/CyLFClk.c ****     *
1054:.\Generated_Source\PSoC4/CyLFClk.c ****     *******************************************************************************/
1055:.\Generated_Source\PSoC4/CyLFClk.c ****     void CySysWdtClearInterrupt(uint32 counterMask)
1056:.\Generated_Source\PSoC4/CyLFClk.c ****     {
1057:.\Generated_Source\PSoC4/CyLFClk.c ****         uint8 interruptState;
1058:.\Generated_Source\PSoC4/CyLFClk.c ****         uint32 wdtLockState;
1059:.\Generated_Source\PSoC4/CyLFClk.c **** 
1060:.\Generated_Source\PSoC4/CyLFClk.c ****         interruptState = CyEnterCriticalSection();
1061:.\Generated_Source\PSoC4/CyLFClk.c **** 
1062:.\Generated_Source\PSoC4/CyLFClk.c ****         if (0u != CySysWdtLocked())
1063:.\Generated_Source\PSoC4/CyLFClk.c ****         {
1064:.\Generated_Source\PSoC4/CyLFClk.c ****             wdtLockState = 1u;
1065:.\Generated_Source\PSoC4/CyLFClk.c ****             CySysWdtUnlock();
1066:.\Generated_Source\PSoC4/CyLFClk.c ****         }
1067:.\Generated_Source\PSoC4/CyLFClk.c ****         else
ARM GAS  C:\Users\SDEVAS~1\AppData\Local\Temp\cchvSIah.s 			page 37


1068:.\Generated_Source\PSoC4/CyLFClk.c ****         {
1069:.\Generated_Source\PSoC4/CyLFClk.c ****             wdtLockState = 0u;
1070:.\Generated_Source\PSoC4/CyLFClk.c ****         }
1071:.\Generated_Source\PSoC4/CyLFClk.c **** 
1072:.\Generated_Source\PSoC4/CyLFClk.c ****         /* Set new WDT control register value */
1073:.\Generated_Source\PSoC4/CyLFClk.c ****         counterMask &= (CY_SYS_WDT_COUNTER0_INT |
1074:.\Generated_Source\PSoC4/CyLFClk.c ****                         CY_SYS_WDT_COUNTER1_INT |
1075:.\Generated_Source\PSoC4/CyLFClk.c ****                         CY_SYS_WDT_COUNTER2_INT);
1076:.\Generated_Source\PSoC4/CyLFClk.c **** 
1077:.\Generated_Source\PSoC4/CyLFClk.c ****         CY_SYS_WDT_CONTROL_REG = counterMask | (CY_SYS_WDT_CONTROL_REG & ~(CY_SYS_WDT_COUNTER0_INT 
1078:.\Generated_Source\PSoC4/CyLFClk.c ****                                                                            CY_SYS_WDT_COUNTER1_INT 
1079:.\Generated_Source\PSoC4/CyLFClk.c ****                                                                            CY_SYS_WDT_COUNTER2_INT)
1080:.\Generated_Source\PSoC4/CyLFClk.c **** 
1081:.\Generated_Source\PSoC4/CyLFClk.c ****         /* Read the CY_SYS_WDT_CONTROL_REG to clear the interrupt request.
1082:.\Generated_Source\PSoC4/CyLFClk.c ****          * Cypress ID #207093, #206231
1083:.\Generated_Source\PSoC4/CyLFClk.c ****         */
1084:.\Generated_Source\PSoC4/CyLFClk.c ****         (void)CY_SYS_WDT_CONTROL_REG;
1085:.\Generated_Source\PSoC4/CyLFClk.c **** 
1086:.\Generated_Source\PSoC4/CyLFClk.c ****         if (1u == wdtLockState)
1087:.\Generated_Source\PSoC4/CyLFClk.c ****         {
1088:.\Generated_Source\PSoC4/CyLFClk.c ****             CySysWdtLock();
1089:.\Generated_Source\PSoC4/CyLFClk.c ****         }
1090:.\Generated_Source\PSoC4/CyLFClk.c **** 
1091:.\Generated_Source\PSoC4/CyLFClk.c ****         CyExitCriticalSection(interruptState);
1092:.\Generated_Source\PSoC4/CyLFClk.c ****     }
1093:.\Generated_Source\PSoC4/CyLFClk.c **** 
1094:.\Generated_Source\PSoC4/CyLFClk.c **** 
1095:.\Generated_Source\PSoC4/CyLFClk.c ****     /*******************************************************************************
1096:.\Generated_Source\PSoC4/CyLFClk.c ****     * Function Name: CySysWdtResetCounters
1097:.\Generated_Source\PSoC4/CyLFClk.c ****     ********************************************************************************
1098:.\Generated_Source\PSoC4/CyLFClk.c ****     *
1099:.\Generated_Source\PSoC4/CyLFClk.c ****     * Summary:
1100:.\Generated_Source\PSoC4/CyLFClk.c ****     *  Resets all the WDT counters set in the mask.
1101:.\Generated_Source\PSoC4/CyLFClk.c ****     *
1102:.\Generated_Source\PSoC4/CyLFClk.c ****     * Parameters:
1103:.\Generated_Source\PSoC4/CyLFClk.c ****     *  counterMask: The mask of all the counters to reset.
1104:.\Generated_Source\PSoC4/CyLFClk.c ****     *   Define                       Counter
1105:.\Generated_Source\PSoC4/CyLFClk.c ****     *   CY_SYS_WDT_COUNTER0_RESET    0
1106:.\Generated_Source\PSoC4/CyLFClk.c ****     *   CY_SYS_WDT_COUNTER1_RESET    1
1107:.\Generated_Source\PSoC4/CyLFClk.c ****     *   CY_SYS_WDT_COUNTER2_RESET    2
1108:.\Generated_Source\PSoC4/CyLFClk.c ****     *
1109:.\Generated_Source\PSoC4/CyLFClk.c ****     * Return:
1110:.\Generated_Source\PSoC4/CyLFClk.c ****     *   None
1111:.\Generated_Source\PSoC4/CyLFClk.c ****     *
1112:.\Generated_Source\PSoC4/CyLFClk.c ****     * Side effects:
1113:.\Generated_Source\PSoC4/CyLFClk.c ****     *   This function does not reset counter values if the Watchdog is locked.
1114:.\Generated_Source\PSoC4/CyLFClk.c ****     *   This function waits while corresponding counters will be reset. This may
1115:.\Generated_Source\PSoC4/CyLFClk.c ****     *   take up to 3 LFCLK cycles.
1116:.\Generated_Source\PSoC4/CyLFClk.c ****     *   The LFCLK source must be enabled. Otherwise, the function will never exit.
1117:.\Generated_Source\PSoC4/CyLFClk.c ****     *
1118:.\Generated_Source\PSoC4/CyLFClk.c ****     *******************************************************************************/
1119:.\Generated_Source\PSoC4/CyLFClk.c ****     void CySysWdtResetCounters(uint32 countersMask)
1120:.\Generated_Source\PSoC4/CyLFClk.c ****     {
1121:.\Generated_Source\PSoC4/CyLFClk.c ****         /* Set new WDT reset value */
1122:.\Generated_Source\PSoC4/CyLFClk.c ****         CY_SYS_WDT_CONTROL_REG |= (countersMask & CY_SYS_WDT_COUNTERS_RESET);
1123:.\Generated_Source\PSoC4/CyLFClk.c **** 
1124:.\Generated_Source\PSoC4/CyLFClk.c ****         while (0uL != (CY_SYS_WDT_CONTROL_REG & CY_SYS_WDT_COUNTERS_RESET))
ARM GAS  C:\Users\SDEVAS~1\AppData\Local\Temp\cchvSIah.s 			page 38


1125:.\Generated_Source\PSoC4/CyLFClk.c ****         {
1126:.\Generated_Source\PSoC4/CyLFClk.c ****             /* Wait for reset to come into effect */
1127:.\Generated_Source\PSoC4/CyLFClk.c ****         }
1128:.\Generated_Source\PSoC4/CyLFClk.c ****     }
1129:.\Generated_Source\PSoC4/CyLFClk.c **** 
1130:.\Generated_Source\PSoC4/CyLFClk.c **** 
1131:.\Generated_Source\PSoC4/CyLFClk.c ****     /*******************************************************************************
1132:.\Generated_Source\PSoC4/CyLFClk.c ****     * Function Name: CySysWdtSetInterruptCallback
1133:.\Generated_Source\PSoC4/CyLFClk.c ****     ********************************************************************************
1134:.\Generated_Source\PSoC4/CyLFClk.c ****     *
1135:.\Generated_Source\PSoC4/CyLFClk.c ****     * Summary:
1136:.\Generated_Source\PSoC4/CyLFClk.c ****     *  Sets the ISR callback function for the particular WDT counter.
1137:.\Generated_Source\PSoC4/CyLFClk.c ****     *  These functions are called on the WDT interrupt.
1138:.\Generated_Source\PSoC4/CyLFClk.c ****     *
1139:.\Generated_Source\PSoC4/CyLFClk.c ****     * Parameters:
1140:.\Generated_Source\PSoC4/CyLFClk.c ****     *  counterNum : The number of the WDT counter.
1141:.\Generated_Source\PSoC4/CyLFClk.c ****     *  function   : The pointer to the callback function.
1142:.\Generated_Source\PSoC4/CyLFClk.c ****     *
1143:.\Generated_Source\PSoC4/CyLFClk.c ****     * Return:
1144:.\Generated_Source\PSoC4/CyLFClk.c ****     *  The pointer to the previous callback function.
1145:.\Generated_Source\PSoC4/CyLFClk.c ****     *  NULL is returned if the specified address is not set.
1146:.\Generated_Source\PSoC4/CyLFClk.c ****     *
1147:.\Generated_Source\PSoC4/CyLFClk.c ****     *******************************************************************************/
1148:.\Generated_Source\PSoC4/CyLFClk.c ****     cyWdtCallback CySysWdtSetInterruptCallback(uint32 counterNum, cyWdtCallback function)
1149:.\Generated_Source\PSoC4/CyLFClk.c ****     {
1150:.\Generated_Source\PSoC4/CyLFClk.c ****         cyWdtCallback prevCallback = (void *)0;
1151:.\Generated_Source\PSoC4/CyLFClk.c **** 
1152:.\Generated_Source\PSoC4/CyLFClk.c ****         if(counterNum < CY_WDT_NUM_OF_WDT)
1153:.\Generated_Source\PSoC4/CyLFClk.c ****         {
1154:.\Generated_Source\PSoC4/CyLFClk.c ****             prevCallback = cySysWdtCallback[counterNum];
1155:.\Generated_Source\PSoC4/CyLFClk.c ****             cySysWdtCallback[counterNum] = function;
1156:.\Generated_Source\PSoC4/CyLFClk.c ****         }
1157:.\Generated_Source\PSoC4/CyLFClk.c ****         else
1158:.\Generated_Source\PSoC4/CyLFClk.c ****         {
1159:.\Generated_Source\PSoC4/CyLFClk.c ****             CYASSERT(0u != 0u);
1160:.\Generated_Source\PSoC4/CyLFClk.c ****         }
1161:.\Generated_Source\PSoC4/CyLFClk.c **** 
1162:.\Generated_Source\PSoC4/CyLFClk.c ****         return((cyWdtCallback)prevCallback);
1163:.\Generated_Source\PSoC4/CyLFClk.c ****     }
1164:.\Generated_Source\PSoC4/CyLFClk.c **** 
1165:.\Generated_Source\PSoC4/CyLFClk.c **** 
1166:.\Generated_Source\PSoC4/CyLFClk.c ****     /*******************************************************************************
1167:.\Generated_Source\PSoC4/CyLFClk.c ****     * Function Name: CySysWdtGetInterruptCallback
1168:.\Generated_Source\PSoC4/CyLFClk.c ****     ********************************************************************************
1169:.\Generated_Source\PSoC4/CyLFClk.c ****     *
1170:.\Generated_Source\PSoC4/CyLFClk.c ****     * Summary:
1171:.\Generated_Source\PSoC4/CyLFClk.c ****     *  Gets the ISR callback function for the particular WDT counter.
1172:.\Generated_Source\PSoC4/CyLFClk.c ****     *
1173:.\Generated_Source\PSoC4/CyLFClk.c ****     * Parameters:
1174:.\Generated_Source\PSoC4/CyLFClk.c ****     *  counterNum : The number of the WDT counter.
1175:.\Generated_Source\PSoC4/CyLFClk.c ****     *
1176:.\Generated_Source\PSoC4/CyLFClk.c ****     * Return:
1177:.\Generated_Source\PSoC4/CyLFClk.c ****     *  The pointer to the callback function registered for a particular WDT by
1178:.\Generated_Source\PSoC4/CyLFClk.c ****     *  a particular address that are passed through arguments.
1179:.\Generated_Source\PSoC4/CyLFClk.c ****     *
1180:.\Generated_Source\PSoC4/CyLFClk.c ****     *******************************************************************************/
1181:.\Generated_Source\PSoC4/CyLFClk.c ****     cyWdtCallback CySysWdtGetInterruptCallback(uint32 counterNum)
ARM GAS  C:\Users\SDEVAS~1\AppData\Local\Temp\cchvSIah.s 			page 39


1182:.\Generated_Source\PSoC4/CyLFClk.c ****     {
1183:.\Generated_Source\PSoC4/CyLFClk.c ****         cyWdtCallback retCallback = (void *)0;
1184:.\Generated_Source\PSoC4/CyLFClk.c **** 
1185:.\Generated_Source\PSoC4/CyLFClk.c ****         if(counterNum < CY_WDT_NUM_OF_WDT)
1186:.\Generated_Source\PSoC4/CyLFClk.c ****         {
1187:.\Generated_Source\PSoC4/CyLFClk.c ****             retCallback = (cyWdtCallback)cySysWdtCallback[counterNum];
1188:.\Generated_Source\PSoC4/CyLFClk.c ****         }
1189:.\Generated_Source\PSoC4/CyLFClk.c ****         else
1190:.\Generated_Source\PSoC4/CyLFClk.c ****         {
1191:.\Generated_Source\PSoC4/CyLFClk.c ****             CYASSERT(0u != 0u);
1192:.\Generated_Source\PSoC4/CyLFClk.c ****         }
1193:.\Generated_Source\PSoC4/CyLFClk.c **** 
1194:.\Generated_Source\PSoC4/CyLFClk.c ****         return(retCallback);
1195:.\Generated_Source\PSoC4/CyLFClk.c ****     }
1196:.\Generated_Source\PSoC4/CyLFClk.c **** 
1197:.\Generated_Source\PSoC4/CyLFClk.c **** 
1198:.\Generated_Source\PSoC4/CyLFClk.c ****     /*******************************************************************************
1199:.\Generated_Source\PSoC4/CyLFClk.c ****     * Function Name: CySysWdtEnableCounterIsr
1200:.\Generated_Source\PSoC4/CyLFClk.c ****     ********************************************************************************
1201:.\Generated_Source\PSoC4/CyLFClk.c ****     *
1202:.\Generated_Source\PSoC4/CyLFClk.c ****     * Summary:
1203:.\Generated_Source\PSoC4/CyLFClk.c ****     *  Enables the ISR callback servicing for the particular WDT counter
1204:.\Generated_Source\PSoC4/CyLFClk.c ****     *
1205:.\Generated_Source\PSoC4/CyLFClk.c ****     * Parameters:
1206:.\Generated_Source\PSoC4/CyLFClk.c ****     *  counterNum: Valid range [0-2].  The number of the WDT counter.
1207:.\Generated_Source\PSoC4/CyLFClk.c ****     *
1208:.\Generated_Source\PSoC4/CyLFClk.c ****     *******************************************************************************/
1209:.\Generated_Source\PSoC4/CyLFClk.c ****     void CySysWdtEnableCounterIsr(uint32 counterNum)
1210:.\Generated_Source\PSoC4/CyLFClk.c ****     {
1211:.\Generated_Source\PSoC4/CyLFClk.c ****         if(counterNum <= CY_SYS_WDT_COUNTER2)
1212:.\Generated_Source\PSoC4/CyLFClk.c ****         {
1213:.\Generated_Source\PSoC4/CyLFClk.c ****             disableServicedIsr &= ~counterIntMaskTbl[counterNum];
1214:.\Generated_Source\PSoC4/CyLFClk.c ****             wdtIsrMask |= counterIntMaskTbl[counterNum];
1215:.\Generated_Source\PSoC4/CyLFClk.c ****         }
1216:.\Generated_Source\PSoC4/CyLFClk.c ****         else
1217:.\Generated_Source\PSoC4/CyLFClk.c ****         {
1218:.\Generated_Source\PSoC4/CyLFClk.c ****             CYASSERT(0u != 0u);
1219:.\Generated_Source\PSoC4/CyLFClk.c ****         }
1220:.\Generated_Source\PSoC4/CyLFClk.c ****     }
1221:.\Generated_Source\PSoC4/CyLFClk.c **** 
1222:.\Generated_Source\PSoC4/CyLFClk.c **** 
1223:.\Generated_Source\PSoC4/CyLFClk.c ****     /*******************************************************************************
1224:.\Generated_Source\PSoC4/CyLFClk.c ****     * Function Name: CySysWdtDisableCounterIsr
1225:.\Generated_Source\PSoC4/CyLFClk.c ****     ********************************************************************************
1226:.\Generated_Source\PSoC4/CyLFClk.c ****     *
1227:.\Generated_Source\PSoC4/CyLFClk.c ****     * Summary:
1228:.\Generated_Source\PSoC4/CyLFClk.c ****     *  Disables the ISR callback servicing for the particular WDT counter
1229:.\Generated_Source\PSoC4/CyLFClk.c ****     *
1230:.\Generated_Source\PSoC4/CyLFClk.c ****     * Parameters:
1231:.\Generated_Source\PSoC4/CyLFClk.c ****     *  counterNum: Valid range [0-2].  The number of the WDT counter.
1232:.\Generated_Source\PSoC4/CyLFClk.c ****     *
1233:.\Generated_Source\PSoC4/CyLFClk.c ****     *******************************************************************************/
1234:.\Generated_Source\PSoC4/CyLFClk.c ****     void CySysWdtDisableCounterIsr(uint32 counterNum)
1235:.\Generated_Source\PSoC4/CyLFClk.c ****     {
1236:.\Generated_Source\PSoC4/CyLFClk.c ****         if(counterNum <= CY_SYS_WDT_COUNTER2)
1237:.\Generated_Source\PSoC4/CyLFClk.c ****         {
1238:.\Generated_Source\PSoC4/CyLFClk.c ****             wdtIsrMask &= ~counterIntMaskTbl[counterNum];
ARM GAS  C:\Users\SDEVAS~1\AppData\Local\Temp\cchvSIah.s 			page 40


1239:.\Generated_Source\PSoC4/CyLFClk.c ****         }
1240:.\Generated_Source\PSoC4/CyLFClk.c ****         else
1241:.\Generated_Source\PSoC4/CyLFClk.c ****         {
1242:.\Generated_Source\PSoC4/CyLFClk.c ****             CYASSERT(0u != 0u);
1243:.\Generated_Source\PSoC4/CyLFClk.c ****         }
1244:.\Generated_Source\PSoC4/CyLFClk.c ****     }
1245:.\Generated_Source\PSoC4/CyLFClk.c **** 
1246:.\Generated_Source\PSoC4/CyLFClk.c **** 
1247:.\Generated_Source\PSoC4/CyLFClk.c ****     /*******************************************************************************
1248:.\Generated_Source\PSoC4/CyLFClk.c ****     * Function Name: CySysWdtIsr
1249:.\Generated_Source\PSoC4/CyLFClk.c ****     ********************************************************************************
1250:.\Generated_Source\PSoC4/CyLFClk.c ****     *
1251:.\Generated_Source\PSoC4/CyLFClk.c ****     * Summary:
1252:.\Generated_Source\PSoC4/CyLFClk.c ****     *  This is the handler of the WDT interrupt in CPU NVIC. The handler checks
1253:.\Generated_Source\PSoC4/CyLFClk.c ****     *  which WDT triggered in the interrupt and calls the respective callback
1254:.\Generated_Source\PSoC4/CyLFClk.c ****     *  functions configured by the user by using CySysWdtSetIsrCallback() API.
1255:.\Generated_Source\PSoC4/CyLFClk.c ****     *
1256:.\Generated_Source\PSoC4/CyLFClk.c ****     *  The order of the callback execution is incremental. Callback-0 is
1257:.\Generated_Source\PSoC4/CyLFClk.c ****     *  run as the first one and callback-2 is called as the last one.
1258:.\Generated_Source\PSoC4/CyLFClk.c ****     *
1259:.\Generated_Source\PSoC4/CyLFClk.c ****     * Parameters:
1260:.\Generated_Source\PSoC4/CyLFClk.c ****     *  None.
1261:.\Generated_Source\PSoC4/CyLFClk.c ****     *
1262:.\Generated_Source\PSoC4/CyLFClk.c ****     * Return:
1263:.\Generated_Source\PSoC4/CyLFClk.c ****     *  None.
1264:.\Generated_Source\PSoC4/CyLFClk.c ****     *
1265:.\Generated_Source\PSoC4/CyLFClk.c ****     * Side Effects:
1266:.\Generated_Source\PSoC4/CyLFClk.c ****     *  This function clears the WDT interrupt every time when it is called.
1267:.\Generated_Source\PSoC4/CyLFClk.c ****     *  Reset after the 3rd interrupt does not happen if this function is registered
1268:.\Generated_Source\PSoC4/CyLFClk.c ****     *  as the interrupt handler even if the "Watchdog with Interrupt" mode is
1269:.\Generated_Source\PSoC4/CyLFClk.c ****     *  selected on the "Low Frequency Clocks" tab.
1270:.\Generated_Source\PSoC4/CyLFClk.c ****     *
1271:.\Generated_Source\PSoC4/CyLFClk.c ****     *******************************************************************************/
1272:.\Generated_Source\PSoC4/CyLFClk.c ****     void CySysWdtIsr(void)
1273:.\Generated_Source\PSoC4/CyLFClk.c ****     {
1274:.\Generated_Source\PSoC4/CyLFClk.c ****         if(0u != (CY_SYS_WDT_COUNTER0_INT & CY_SYS_WDT_CONTROL_REG))
1275:.\Generated_Source\PSoC4/CyLFClk.c ****         {
1276:.\Generated_Source\PSoC4/CyLFClk.c ****             if(0u != (CY_SYS_WDT_COUNTER0_INT & wdtIsrMask))
1277:.\Generated_Source\PSoC4/CyLFClk.c ****             {
1278:.\Generated_Source\PSoC4/CyLFClk.c ****                 wdtIsrMask &= ~(disableServicedIsr & CY_SYS_WDT_COUNTER0_INT);
1279:.\Generated_Source\PSoC4/CyLFClk.c ****                 disableServicedIsr  &= ~CY_SYS_WDT_COUNTER0_INT;
1280:.\Generated_Source\PSoC4/CyLFClk.c ****                 if(cySysWdtCallback[CY_SYS_WDT_COUNTER0] != (void *) 0)
1281:.\Generated_Source\PSoC4/CyLFClk.c ****                 {
1282:.\Generated_Source\PSoC4/CyLFClk.c ****                     (void)(cySysWdtCallback[CY_SYS_WDT_COUNTER0])();
1283:.\Generated_Source\PSoC4/CyLFClk.c ****                 }
1284:.\Generated_Source\PSoC4/CyLFClk.c ****             }
1285:.\Generated_Source\PSoC4/CyLFClk.c ****             CySysWdtClearInterrupt(CY_SYS_WDT_COUNTER0_INT);
1286:.\Generated_Source\PSoC4/CyLFClk.c ****         }
1287:.\Generated_Source\PSoC4/CyLFClk.c **** 
1288:.\Generated_Source\PSoC4/CyLFClk.c ****         if(0u != (CY_SYS_WDT_COUNTER1_INT & CY_SYS_WDT_CONTROL_REG))
1289:.\Generated_Source\PSoC4/CyLFClk.c ****         {
1290:.\Generated_Source\PSoC4/CyLFClk.c ****             if(0u != (CY_SYS_WDT_COUNTER1_INT & wdtIsrMask))
1291:.\Generated_Source\PSoC4/CyLFClk.c ****             {
1292:.\Generated_Source\PSoC4/CyLFClk.c ****                 wdtIsrMask &= ~(disableServicedIsr & CY_SYS_WDT_COUNTER1_INT);
1293:.\Generated_Source\PSoC4/CyLFClk.c ****                 disableServicedIsr  &= ~CY_SYS_WDT_COUNTER1_INT;
1294:.\Generated_Source\PSoC4/CyLFClk.c ****                 if(cySysWdtCallback[CY_SYS_WDT_COUNTER1] != (void *) 0)
1295:.\Generated_Source\PSoC4/CyLFClk.c ****                 {
ARM GAS  C:\Users\SDEVAS~1\AppData\Local\Temp\cchvSIah.s 			page 41


1296:.\Generated_Source\PSoC4/CyLFClk.c ****                     (void)(cySysWdtCallback[CY_SYS_WDT_COUNTER1])();
1297:.\Generated_Source\PSoC4/CyLFClk.c ****                 }
1298:.\Generated_Source\PSoC4/CyLFClk.c ****             }
1299:.\Generated_Source\PSoC4/CyLFClk.c ****             CySysWdtClearInterrupt(CY_SYS_WDT_COUNTER1_INT);
1300:.\Generated_Source\PSoC4/CyLFClk.c ****         }
1301:.\Generated_Source\PSoC4/CyLFClk.c **** 
1302:.\Generated_Source\PSoC4/CyLFClk.c ****         if(0u != (CY_SYS_WDT_COUNTER2_INT & CY_SYS_WDT_CONTROL_REG))
1303:.\Generated_Source\PSoC4/CyLFClk.c ****         {
1304:.\Generated_Source\PSoC4/CyLFClk.c ****             if(0u != (CY_SYS_WDT_COUNTER2_INT & wdtIsrMask))
1305:.\Generated_Source\PSoC4/CyLFClk.c ****             {
1306:.\Generated_Source\PSoC4/CyLFClk.c ****                 if(cySysWdtCallback[CY_SYS_WDT_COUNTER2] != (void *) 0)
1307:.\Generated_Source\PSoC4/CyLFClk.c ****                 {
1308:.\Generated_Source\PSoC4/CyLFClk.c ****                     (void)(cySysWdtCallback[CY_SYS_WDT_COUNTER2])();
1309:.\Generated_Source\PSoC4/CyLFClk.c ****                 }
1310:.\Generated_Source\PSoC4/CyLFClk.c ****             }
1311:.\Generated_Source\PSoC4/CyLFClk.c ****             CySysWdtClearInterrupt(CY_SYS_WDT_COUNTER2_INT);
1312:.\Generated_Source\PSoC4/CyLFClk.c ****         }
1313:.\Generated_Source\PSoC4/CyLFClk.c ****     }
1314:.\Generated_Source\PSoC4/CyLFClk.c **** 
1315:.\Generated_Source\PSoC4/CyLFClk.c **** 
1316:.\Generated_Source\PSoC4/CyLFClk.c ****     /*******************************************************************************
1317:.\Generated_Source\PSoC4/CyLFClk.c ****     * Function Name: CySysTimerDelay
1318:.\Generated_Source\PSoC4/CyLFClk.c ****     ********************************************************************************
1319:.\Generated_Source\PSoC4/CyLFClk.c ****     *
1320:.\Generated_Source\PSoC4/CyLFClk.c ****     * Summary:
1321:.\Generated_Source\PSoC4/CyLFClk.c ****     *  The function implements the delay specified in the LFCLK clock ticks. The
1322:.\Generated_Source\PSoC4/CyLFClk.c ****     *  specified WDT counter should be configured as described below and started.
1323:.\Generated_Source\PSoC4/CyLFClk.c ****     *
1324:.\Generated_Source\PSoC4/CyLFClk.c ****     *  This function can operate in two modes: the "WAIT" and "INTERRUPT" modes. In
1325:.\Generated_Source\PSoC4/CyLFClk.c ****     *  the "WAIT" mode, the function waits for the specified number of ticks. In the
1326:.\Generated_Source\PSoC4/CyLFClk.c ****     *  "INTERRUPT" mode, the interrupt is generated after the specified number of
1327:.\Generated_Source\PSoC4/CyLFClk.c ****     *  ticks.
1328:.\Generated_Source\PSoC4/CyLFClk.c ****     *
1329:.\Generated_Source\PSoC4/CyLFClk.c ****     *  For the correct function operation, the "Clear On Match" option should be
1330:.\Generated_Source\PSoC4/CyLFClk.c ****     *  disabled for the specified WDT counter. Use CySysWdtSetClearOnMatch()
1331:.\Generated_Source\PSoC4/CyLFClk.c ****     *  function with the "enable" parameter equal to zero for the used WDT counter.
1332:.\Generated_Source\PSoC4/CyLFClk.c ****     *
1333:.\Generated_Source\PSoC4/CyLFClk.c ****     *  The corresponding WDT counter should be configured to match the selected
1334:.\Generated_Source\PSoC4/CyLFClk.c ****     *  mode: "Free running Timer" for the "WAIT" mode, and
1335:.\Generated_Source\PSoC4/CyLFClk.c ****     *  "Periodic Timer" / "Watchdog (w/Interrupt)" for the "INTERRUPT" mode.
1336:.\Generated_Source\PSoC4/CyLFClk.c ****     *
1337:.\Generated_Source\PSoC4/CyLFClk.c ****     *  This can be configured in two ways:
1338:.\Generated_Source\PSoC4/CyLFClk.c ****     *  - Through the DWR page. Open the "Clocks" tab, click the "Edit Clocks..."
1339:.\Generated_Source\PSoC4/CyLFClk.c ****     *    button, in the "Configure System Clocks" window click on the
1340:.\Generated_Source\PSoC4/CyLFClk.c ****     *    "Low Frequency Clocks" tab and choose the appropriate option for the used
1341:.\Generated_Source\PSoC4/CyLFClk.c ****     *    WDT counter.
1342:.\Generated_Source\PSoC4/CyLFClk.c ****     *
1343:.\Generated_Source\PSoC4/CyLFClk.c ****     *  - Through the CySysWdtSetMode() function. Call it with the appropriate mode
1344:.\Generated_Source\PSoC4/CyLFClk.c ****     *    parameter for the used WDT counter.
1345:.\Generated_Source\PSoC4/CyLFClk.c ****     *
1346:.\Generated_Source\PSoC4/CyLFClk.c ****     *  For the "INTERRUPT" mode, the recommended sequence is the following:
1347:.\Generated_Source\PSoC4/CyLFClk.c ****     *  - Call the CySysWdtDisableCounterIsr() function to disable servicing
1348:.\Generated_Source\PSoC4/CyLFClk.c ****     *    interrupts of the specified WDT counter.
1349:.\Generated_Source\PSoC4/CyLFClk.c ****     *
1350:.\Generated_Source\PSoC4/CyLFClk.c ****     *  - Call the CySysWdtSetInterruptCallback() function to register the callback
1351:.\Generated_Source\PSoC4/CyLFClk.c ****     *    function for the corresponding WDT counter.
1352:.\Generated_Source\PSoC4/CyLFClk.c ****     *
ARM GAS  C:\Users\SDEVAS~1\AppData\Local\Temp\cchvSIah.s 			page 42


1353:.\Generated_Source\PSoC4/CyLFClk.c ****     *  - Call the CySysTimerDelay() function.
1354:.\Generated_Source\PSoC4/CyLFClk.c ****     *
1355:.\Generated_Source\PSoC4/CyLFClk.c ****     * Parameters:
1356:.\Generated_Source\PSoC4/CyLFClk.c ****     *  counterNum: Valid range [0-1]. The number of the WDT counter (WDT0 or WDT1).
1357:.\Generated_Source\PSoC4/CyLFClk.c ****     *  delayType : Defines the operation mode.
1358:.\Generated_Source\PSoC4/CyLFClk.c ****     *               CY_SYS_TIMER_WAIT       "WAIT" mode.
1359:.\Generated_Source\PSoC4/CyLFClk.c ****     *               CY_SYS_TIMER_INTERRUPT  "INTERRUPT" mode.
1360:.\Generated_Source\PSoC4/CyLFClk.c ****     *  delay:  The delay value in the LFCLK ticks (allowable range - 16-bit value).
1361:.\Generated_Source\PSoC4/CyLFClk.c ****     *
1362:.\Generated_Source\PSoC4/CyLFClk.c ****     * Return:
1363:.\Generated_Source\PSoC4/CyLFClk.c ****     *  None
1364:.\Generated_Source\PSoC4/CyLFClk.c ****     *
1365:.\Generated_Source\PSoC4/CyLFClk.c ****     * Side effects:
1366:.\Generated_Source\PSoC4/CyLFClk.c ****     *  In the "INTERRUPT" mode, this function enables ISR callback servicing
1367:.\Generated_Source\PSoC4/CyLFClk.c ****     *  from the corresponding WDT counter. Servicing of this ISR callback will be
1368:.\Generated_Source\PSoC4/CyLFClk.c ****     *  disabled after the expiration of the delay time.
1369:.\Generated_Source\PSoC4/CyLFClk.c ****     *
1370:.\Generated_Source\PSoC4/CyLFClk.c ****     *******************************************************************************/
1371:.\Generated_Source\PSoC4/CyLFClk.c ****     void CySysTimerDelay(uint32 counterNum, cy_sys_timer_delaytype_enum delayType, uint32 delay)
1372:.\Generated_Source\PSoC4/CyLFClk.c ****     {
1373:.\Generated_Source\PSoC4/CyLFClk.c ****         uint32 regValue;
1374:.\Generated_Source\PSoC4/CyLFClk.c ****         uint32 matchValue;
1375:.\Generated_Source\PSoC4/CyLFClk.c **** 
1376:.\Generated_Source\PSoC4/CyLFClk.c ****         if((counterNum < CY_SYS_WDT_COUNTER2) && (0uL == CySysWdtGetClearOnMatch(counterNum)) && (d
1377:.\Generated_Source\PSoC4/CyLFClk.c ****         {
1378:.\Generated_Source\PSoC4/CyLFClk.c ****             regValue   = CySysWdtGetCount(counterNum);
1379:.\Generated_Source\PSoC4/CyLFClk.c ****             matchValue = (regValue + delay) & (uint32)UINT16_MAX_VAL;
1380:.\Generated_Source\PSoC4/CyLFClk.c **** 
1381:.\Generated_Source\PSoC4/CyLFClk.c ****             CySysTimerDelayUntilMatch(counterNum, delayType, matchValue);
1382:.\Generated_Source\PSoC4/CyLFClk.c ****         }
1383:.\Generated_Source\PSoC4/CyLFClk.c ****         else
1384:.\Generated_Source\PSoC4/CyLFClk.c ****         {
1385:.\Generated_Source\PSoC4/CyLFClk.c ****             CYASSERT(0u != 0u);
1386:.\Generated_Source\PSoC4/CyLFClk.c ****         }
1387:.\Generated_Source\PSoC4/CyLFClk.c ****     }
1388:.\Generated_Source\PSoC4/CyLFClk.c **** 
1389:.\Generated_Source\PSoC4/CyLFClk.c **** 
1390:.\Generated_Source\PSoC4/CyLFClk.c ****     /*******************************************************************************
1391:.\Generated_Source\PSoC4/CyLFClk.c ****     * Function Name: CySysTimerDelayUntilMatch
1392:.\Generated_Source\PSoC4/CyLFClk.c ****     ********************************************************************************
1393:.\Generated_Source\PSoC4/CyLFClk.c ****     *
1394:.\Generated_Source\PSoC4/CyLFClk.c ****     * Summary:
1395:.\Generated_Source\PSoC4/CyLFClk.c ****     *  The function implements the delay specified as the number of LFCLK ticks
1396:.\Generated_Source\PSoC4/CyLFClk.c ****     *  between the specified WDT counter's current value and the "match" passed as
1397:.\Generated_Source\PSoC4/CyLFClk.c ****     *  the parameter to this function. The current WDT counter value can be obtained
1398:.\Generated_Source\PSoC4/CyLFClk.c ****     *  using the CySysWdtGetCount() function.
1399:.\Generated_Source\PSoC4/CyLFClk.c ****     *
1400:.\Generated_Source\PSoC4/CyLFClk.c ****     *  This function can operate in two modes: the "WAIT" and "INTERRUPT" mode. In
1401:.\Generated_Source\PSoC4/CyLFClk.c ****     *  the "WAIT" mode, the function waits while the used WDT counter value becomes
1402:.\Generated_Source\PSoC4/CyLFClk.c ****     *  equal to the match value. In the "INTERRUPT" mode, the interrupt is generated
1403:.\Generated_Source\PSoC4/CyLFClk.c ****     *  when the used WDT counter became equal to the "match" value.
1404:.\Generated_Source\PSoC4/CyLFClk.c ****     *
1405:.\Generated_Source\PSoC4/CyLFClk.c ****     *  For the correct function operation, the "Clear On Match" option should be
1406:.\Generated_Source\PSoC4/CyLFClk.c ****     *  disabled for the specified WDT counter. Use CySysWdtSetClearOnMatch()
1407:.\Generated_Source\PSoC4/CyLFClk.c ****     *  function with the "enable" parameter equal to zero for the used WDT counter.
1408:.\Generated_Source\PSoC4/CyLFClk.c ****     *
1409:.\Generated_Source\PSoC4/CyLFClk.c ****     *  The corresponding WDT counter should be configured to match the selected mode:
ARM GAS  C:\Users\SDEVAS~1\AppData\Local\Temp\cchvSIah.s 			page 43


1410:.\Generated_Source\PSoC4/CyLFClk.c ****     *  "Free running Timer" for the "WAIT" mode, and "Periodic Timer" / "Watchdog
1411:.\Generated_Source\PSoC4/CyLFClk.c ****     *  (w/Interrupt)" for the "INTERRUPT" mode.
1412:.\Generated_Source\PSoC4/CyLFClk.c ****     *
1413:.\Generated_Source\PSoC4/CyLFClk.c ****     *  This can be configured in two ways:
1414:.\Generated_Source\PSoC4/CyLFClk.c ****     *  - Through the DWR page. Open the "Clocks" tab, click the "Edit Clocks..."
1415:.\Generated_Source\PSoC4/CyLFClk.c ****     *    button, in the "Configure System Clocks" window click on the
1416:.\Generated_Source\PSoC4/CyLFClk.c ****     *    "Low Frequency Clocks" tab and choose the appropriate option for the used
1417:.\Generated_Source\PSoC4/CyLFClk.c ****     *    WDT counter.
1418:.\Generated_Source\PSoC4/CyLFClk.c ****     *
1419:.\Generated_Source\PSoC4/CyLFClk.c ****     *  - Through the CySysWdtSetMode() function. Call it with the appropriate "mode"
1420:.\Generated_Source\PSoC4/CyLFClk.c ****     *    parameter for the used WDT counter.
1421:.\Generated_Source\PSoC4/CyLFClk.c ****     *
1422:.\Generated_Source\PSoC4/CyLFClk.c ****     *  For the "INTERRUPT" mode, the recommended sequence is the following:
1423:.\Generated_Source\PSoC4/CyLFClk.c ****     *  - Call the CySysWdtDisableCounterIsr() function to disable servicing
1424:.\Generated_Source\PSoC4/CyLFClk.c ****     *    interrupts of the specified WDT counter.
1425:.\Generated_Source\PSoC4/CyLFClk.c ****     *
1426:.\Generated_Source\PSoC4/CyLFClk.c ****     *  - Call the CySysWdtSetInterruptCallback() function to register the callback
1427:.\Generated_Source\PSoC4/CyLFClk.c ****     *    function for the corresponding WDT counter.
1428:.\Generated_Source\PSoC4/CyLFClk.c ****     *
1429:.\Generated_Source\PSoC4/CyLFClk.c ****     *  - Call the CySysTimerDelay() function.
1430:.\Generated_Source\PSoC4/CyLFClk.c ****     *
1431:.\Generated_Source\PSoC4/CyLFClk.c ****     * Parameters:
1432:.\Generated_Source\PSoC4/CyLFClk.c ****     *  counterNum: Valid range [0-1]. The number of the WDT counter (WDT0 or WDT1).
1433:.\Generated_Source\PSoC4/CyLFClk.c ****     *  delayType : Defines the operation mode.
1434:.\Generated_Source\PSoC4/CyLFClk.c ****     *               CY_SYS_TIMER_WAIT       "WAIT" mode.
1435:.\Generated_Source\PSoC4/CyLFClk.c ****     *               CY_SYS_TIMER_INTERRUPT  "INTERRUPT" mode.
1436:.\Generated_Source\PSoC4/CyLFClk.c ****     *  delay:  The delay value in the LFCLK ticks (allowable range - 16-bit value).
1437:.\Generated_Source\PSoC4/CyLFClk.c ****     *
1438:.\Generated_Source\PSoC4/CyLFClk.c ****     * Return:
1439:.\Generated_Source\PSoC4/CyLFClk.c ****     *  None
1440:.\Generated_Source\PSoC4/CyLFClk.c ****     *
1441:.\Generated_Source\PSoC4/CyLFClk.c ****     * Side effects:
1442:.\Generated_Source\PSoC4/CyLFClk.c ****     *  In the "INTERRUPT" mode, this function enables ISR callback servicing
1443:.\Generated_Source\PSoC4/CyLFClk.c ****     *  from the corresponding WDT counter. Servicing of this ISR callback will be
1444:.\Generated_Source\PSoC4/CyLFClk.c ****     *  disabled after the expiration of the delay time.
1445:.\Generated_Source\PSoC4/CyLFClk.c ****     *
1446:.\Generated_Source\PSoC4/CyLFClk.c ****     *******************************************************************************/
1447:.\Generated_Source\PSoC4/CyLFClk.c ****     void CySysTimerDelayUntilMatch(uint32 counterNum, cy_sys_timer_delaytype_enum delayType, uint32
1448:.\Generated_Source\PSoC4/CyLFClk.c ****     {
1449:.\Generated_Source\PSoC4/CyLFClk.c ****         uint32 tmpValue;
1450:.\Generated_Source\PSoC4/CyLFClk.c **** 
1451:.\Generated_Source\PSoC4/CyLFClk.c ****         if((counterNum < CY_SYS_WDT_COUNTER2) && (0uL == CySysWdtGetClearOnMatch(counterNum)) && (m
1452:.\Generated_Source\PSoC4/CyLFClk.c ****         {
1453:.\Generated_Source\PSoC4/CyLFClk.c ****             if(delayType == CY_SYS_TIMER_WAIT)
1454:.\Generated_Source\PSoC4/CyLFClk.c ****             {
1455:.\Generated_Source\PSoC4/CyLFClk.c ****                 do
1456:.\Generated_Source\PSoC4/CyLFClk.c ****                 {
1457:.\Generated_Source\PSoC4/CyLFClk.c ****                     tmpValue = CySysWdtGetCount(counterNum);
1458:.\Generated_Source\PSoC4/CyLFClk.c ****                 }while(tmpValue > match);
1459:.\Generated_Source\PSoC4/CyLFClk.c **** 
1460:.\Generated_Source\PSoC4/CyLFClk.c ****                 do
1461:.\Generated_Source\PSoC4/CyLFClk.c ****                 {
1462:.\Generated_Source\PSoC4/CyLFClk.c ****                     tmpValue = CySysWdtGetCount(counterNum);
1463:.\Generated_Source\PSoC4/CyLFClk.c ****                 }while(tmpValue < match);
1464:.\Generated_Source\PSoC4/CyLFClk.c ****             }
1465:.\Generated_Source\PSoC4/CyLFClk.c ****             else
1466:.\Generated_Source\PSoC4/CyLFClk.c ****             {
ARM GAS  C:\Users\SDEVAS~1\AppData\Local\Temp\cchvSIah.s 			page 44


1467:.\Generated_Source\PSoC4/CyLFClk.c ****                 tmpValue = counterIntMaskTbl[counterNum];
1468:.\Generated_Source\PSoC4/CyLFClk.c ****                 CySysWdtSetMatch(counterNum, match);
1469:.\Generated_Source\PSoC4/CyLFClk.c **** 
1470:.\Generated_Source\PSoC4/CyLFClk.c ****                 disableServicedIsr  |= tmpValue;
1471:.\Generated_Source\PSoC4/CyLFClk.c ****                 wdtIsrMask |= tmpValue;
1472:.\Generated_Source\PSoC4/CyLFClk.c ****             }
1473:.\Generated_Source\PSoC4/CyLFClk.c ****         }
1474:.\Generated_Source\PSoC4/CyLFClk.c ****         else
1475:.\Generated_Source\PSoC4/CyLFClk.c ****         {
1476:.\Generated_Source\PSoC4/CyLFClk.c ****             CYASSERT(0u != 0u);
1477:.\Generated_Source\PSoC4/CyLFClk.c ****         }
1478:.\Generated_Source\PSoC4/CyLFClk.c ****     }
1479:.\Generated_Source\PSoC4/CyLFClk.c **** 
1480:.\Generated_Source\PSoC4/CyLFClk.c **** 
1481:.\Generated_Source\PSoC4/CyLFClk.c ****     /*******************************************************************************
1482:.\Generated_Source\PSoC4/CyLFClk.c ****     * Function Name: CySysWatchdogFeed
1483:.\Generated_Source\PSoC4/CyLFClk.c ****     ********************************************************************************
1484:.\Generated_Source\PSoC4/CyLFClk.c ****     *
1485:.\Generated_Source\PSoC4/CyLFClk.c ****     * Summary:
1486:.\Generated_Source\PSoC4/CyLFClk.c ****     *  Feeds the watchdog counter before it causes the device reset. Supported only
1487:.\Generated_Source\PSoC4/CyLFClk.c ****     *  for WDT0 and WDT1 in the "Watchdog" or "Watchdog w/ Interrupts" modes.
1488:.\Generated_Source\PSoC4/CyLFClk.c ****     *
1489:.\Generated_Source\PSoC4/CyLFClk.c ****     * Parameters:
1490:.\Generated_Source\PSoC4/CyLFClk.c ****     *  counterNum:    The number of the WDT counter.
1491:.\Generated_Source\PSoC4/CyLFClk.c ****     *
1492:.\Generated_Source\PSoC4/CyLFClk.c ****     * Return:
1493:.\Generated_Source\PSoC4/CyLFClk.c ****     *  None.
1494:.\Generated_Source\PSoC4/CyLFClk.c ****     *
1495:.\Generated_Source\PSoC4/CyLFClk.c ****     * Side effects:
1496:.\Generated_Source\PSoC4/CyLFClk.c ****     *  Clears the WDT counter in the "Watchdog" mode or clears the WDT interrupt in
1497:.\Generated_Source\PSoC4/CyLFClk.c ****     *  "Watchdog w/ Interrupts" mode. Does nothing in other modes.
1498:.\Generated_Source\PSoC4/CyLFClk.c ****     *
1499:.\Generated_Source\PSoC4/CyLFClk.c ****     *******************************************************************************/
1500:.\Generated_Source\PSoC4/CyLFClk.c ****     void CySysWatchdogFeed(uint32 counterNum)
1501:.\Generated_Source\PSoC4/CyLFClk.c ****     {
1502:.\Generated_Source\PSoC4/CyLFClk.c ****         if(counterNum == CY_SYS_WDT_COUNTER0)
1503:.\Generated_Source\PSoC4/CyLFClk.c ****         {
1504:.\Generated_Source\PSoC4/CyLFClk.c ****             if(CY_SYS_WDT_MODE_INT_RESET == CySysWdtGetMode(counterNum))
1505:.\Generated_Source\PSoC4/CyLFClk.c ****             {
1506:.\Generated_Source\PSoC4/CyLFClk.c ****                 CySysWdtClearInterrupt(CY_SYS_WDT_COUNTER0_MASK);
1507:.\Generated_Source\PSoC4/CyLFClk.c ****             }
1508:.\Generated_Source\PSoC4/CyLFClk.c ****             else if(CY_SYS_WDT_MODE_RESET == CySysWdtGetMode(counterNum))
1509:.\Generated_Source\PSoC4/CyLFClk.c ****             {
1510:.\Generated_Source\PSoC4/CyLFClk.c ****                 CySysWdtResetCounters(CY_SYS_WDT_COUNTER0_RESET);
1511:.\Generated_Source\PSoC4/CyLFClk.c ****                 CySysWdtClearInterrupt(CY_SYS_WDT_COUNTER0_MASK);
1512:.\Generated_Source\PSoC4/CyLFClk.c ****             }
1513:.\Generated_Source\PSoC4/CyLFClk.c ****             else
1514:.\Generated_Source\PSoC4/CyLFClk.c ****             {
1515:.\Generated_Source\PSoC4/CyLFClk.c ****                 /* Do nothing. */
1516:.\Generated_Source\PSoC4/CyLFClk.c ****             }
1517:.\Generated_Source\PSoC4/CyLFClk.c ****         }
1518:.\Generated_Source\PSoC4/CyLFClk.c ****         else if(counterNum == CY_SYS_WDT_COUNTER1)
1519:.\Generated_Source\PSoC4/CyLFClk.c ****         {
1520:.\Generated_Source\PSoC4/CyLFClk.c ****             if(CY_SYS_WDT_MODE_INT_RESET == CySysWdtGetMode(counterNum))
1521:.\Generated_Source\PSoC4/CyLFClk.c ****             {
1522:.\Generated_Source\PSoC4/CyLFClk.c ****                 CySysWdtClearInterrupt(CY_SYS_WDT_COUNTER1_MASK);
1523:.\Generated_Source\PSoC4/CyLFClk.c ****             }
ARM GAS  C:\Users\SDEVAS~1\AppData\Local\Temp\cchvSIah.s 			page 45


1524:.\Generated_Source\PSoC4/CyLFClk.c ****             else if(CY_SYS_WDT_MODE_RESET == CySysWdtGetMode(counterNum))
1525:.\Generated_Source\PSoC4/CyLFClk.c ****             {
1526:.\Generated_Source\PSoC4/CyLFClk.c ****                 CySysWdtResetCounters(CY_SYS_WDT_COUNTER1_RESET);
1527:.\Generated_Source\PSoC4/CyLFClk.c ****                 CySysWdtClearInterrupt(CY_SYS_WDT_COUNTER1_MASK);
1528:.\Generated_Source\PSoC4/CyLFClk.c ****             }
1529:.\Generated_Source\PSoC4/CyLFClk.c ****             else
1530:.\Generated_Source\PSoC4/CyLFClk.c ****             {
1531:.\Generated_Source\PSoC4/CyLFClk.c ****                 /* Do nothing. */
1532:.\Generated_Source\PSoC4/CyLFClk.c ****             }
1533:.\Generated_Source\PSoC4/CyLFClk.c ****         }
1534:.\Generated_Source\PSoC4/CyLFClk.c ****         else
1535:.\Generated_Source\PSoC4/CyLFClk.c ****         {
1536:.\Generated_Source\PSoC4/CyLFClk.c ****             /* Do nothing. */
1537:.\Generated_Source\PSoC4/CyLFClk.c ****         }
1538:.\Generated_Source\PSoC4/CyLFClk.c ****     }
1539:.\Generated_Source\PSoC4/CyLFClk.c **** 
1540:.\Generated_Source\PSoC4/CyLFClk.c **** 
1541:.\Generated_Source\PSoC4/CyLFClk.c ****     /*******************************************************************************
1542:.\Generated_Source\PSoC4/CyLFClk.c ****     * Function Name: CySysClkLfclkPosedgeCatch
1543:.\Generated_Source\PSoC4/CyLFClk.c ****     ********************************************************************************
1544:.\Generated_Source\PSoC4/CyLFClk.c ****     *
1545:.\Generated_Source\PSoC4/CyLFClk.c ****     * Summary:
1546:.\Generated_Source\PSoC4/CyLFClk.c ****     *  Returns once the LFCLK positive edge occurred.
1547:.\Generated_Source\PSoC4/CyLFClk.c ****     *
1548:.\Generated_Source\PSoC4/CyLFClk.c ****     *  CySysClkLfclkPosedgeRestore() should be called after this function
1549:.\Generated_Source\PSoC4/CyLFClk.c ****     *  to restore the WDT configuration.
1550:.\Generated_Source\PSoC4/CyLFClk.c ****     *
1551:.\Generated_Source\PSoC4/CyLFClk.c ****     *  A pair of the CySysClkLfclkPosedgeCatch() and CySysClkLfclkPosedgeRestore()
1552:.\Generated_Source\PSoC4/CyLFClk.c ****     *  functions is expected to be called inside a critical section.
1553:.\Generated_Source\PSoC4/CyLFClk.c ****     *
1554:.\Generated_Source\PSoC4/CyLFClk.c ****     *  To ensure that the WDT counter value is read until it changes, the enabled
1555:.\Generated_Source\PSoC4/CyLFClk.c ****     *  WDT counter is used. If no counter is enabled, counter 0 is enabled.
1556:.\Generated_Source\PSoC4/CyLFClk.c ****     *  And after the LFCLK source is switched, the counter 0 configuration
1557:.\Generated_Source\PSoC4/CyLFClk.c ****     *  is restored.
1558:.\Generated_Source\PSoC4/CyLFClk.c ****     *
1559:.\Generated_Source\PSoC4/CyLFClk.c ****     *  Not applicable for the PSoC 4000 devices.
1560:.\Generated_Source\PSoC4/CyLFClk.c ****     *
1561:.\Generated_Source\PSoC4/CyLFClk.c ****     * Parameters:
1562:.\Generated_Source\PSoC4/CyLFClk.c ****     *  None.
1563:.\Generated_Source\PSoC4/CyLFClk.c ****     *
1564:.\Generated_Source\PSoC4/CyLFClk.c ****     * Return:
1565:.\Generated_Source\PSoC4/CyLFClk.c ****     *  None.
1566:.\Generated_Source\PSoC4/CyLFClk.c ****     *
1567:.\Generated_Source\PSoC4/CyLFClk.c ****     * Side Effects:
1568:.\Generated_Source\PSoC4/CyLFClk.c ****     *  This function has no effect if WDT is locked (CySysWdtLock() is
1569:.\Generated_Source\PSoC4/CyLFClk.c ****     *  called). Call CySysWdtUnlock() to unlock WDT.
1570:.\Generated_Source\PSoC4/CyLFClk.c ****     *
1571:.\Generated_Source\PSoC4/CyLFClk.c ****     *******************************************************************************/
1572:.\Generated_Source\PSoC4/CyLFClk.c ****     static void CySysClkLfclkPosedgeCatch(void)
1573:.\Generated_Source\PSoC4/CyLFClk.c ****     {
1574:.\Generated_Source\PSoC4/CyLFClk.c ****         uint32 firstCount;
1575:.\Generated_Source\PSoC4/CyLFClk.c ****         static uint32 lfclkPosedgeEnabledWdtCounter = 0u;
1576:.\Generated_Source\PSoC4/CyLFClk.c **** 
1577:.\Generated_Source\PSoC4/CyLFClk.c ****         if (0u != CySysWdtGetEnabledStatus(CY_SYS_WDT_COUNTER0))
 946              		.loc 1 1577 0
 947 0026 9A07     		lsl	r2, r3, #30
 948 0028 02D5     		bpl	.L118
ARM GAS  C:\Users\SDEVAS~1\AppData\Local\Temp\cchvSIah.s 			page 46


1578:.\Generated_Source\PSoC4/CyLFClk.c ****         {
1579:.\Generated_Source\PSoC4/CyLFClk.c ****             lfclkPosedgeEnabledWdtCounter = CY_SYS_WDT_COUNTER0;
 949              		.loc 1 1579 0
 950 002a 009A     		ldr	r2, [sp]
 951 002c 2260     		str	r2, [r4]
 952 002e 19E0     		b	.L105
 953              	.L118:
 954              	.LVL78:
 955              	.LBB84:
 956              	.LBB85:
 496:.\Generated_Source\PSoC4/CyLFClk.c ****         return ((CY_SYS_WDT_CONTROL_REG >> ((CY_SYS_WDT_CNT_SHIFT * counterNum) + CY_SYS_WDT_CNT_ST
 957              		.loc 1 496 0
 958 0030 3368     		ldr	r3, [r6]
 959 0032 5B0A     		lsr	r3, r3, #9
 960              	.LBE85:
 961              	.LBE84:
1580:.\Generated_Source\PSoC4/CyLFClk.c ****         }
1581:.\Generated_Source\PSoC4/CyLFClk.c ****         else if (0u != CySysWdtGetEnabledStatus(CY_SYS_WDT_COUNTER1))
 962              		.loc 1 1581 0
 963 0034 2B42     		tst	r3, r5
 964 0036 01D0     		beq	.L106
1582:.\Generated_Source\PSoC4/CyLFClk.c ****         {
1583:.\Generated_Source\PSoC4/CyLFClk.c ****             lfclkPosedgeEnabledWdtCounter = CY_SYS_WDT_COUNTER1;
 965              		.loc 1 1583 0
 966 0038 2560     		str	r5, [r4]
 967 003a 13E0     		b	.L105
 968              	.L106:
 969              	.LVL79:
 970              	.LBB86:
 971              	.LBB87:
 496:.\Generated_Source\PSoC4/CyLFClk.c ****         return ((CY_SYS_WDT_CONTROL_REG >> ((CY_SYS_WDT_CNT_SHIFT * counterNum) + CY_SYS_WDT_CNT_ST
 972              		.loc 1 496 0
 973 003c 3168     		ldr	r1, [r6]
 974 003e 490C     		lsr	r1, r1, #17
 975 0040 2940     		and	r1, r5
 976              	.LBE87:
 977              	.LBE86:
1584:.\Generated_Source\PSoC4/CyLFClk.c ****         }
1585:.\Generated_Source\PSoC4/CyLFClk.c ****         else if (0u != CySysWdtGetEnabledStatus(CY_SYS_WDT_COUNTER2))
 978              		.loc 1 1585 0
 979 0042 02D0     		beq	.L107
1586:.\Generated_Source\PSoC4/CyLFClk.c ****         {
1587:.\Generated_Source\PSoC4/CyLFClk.c ****             lfclkPosedgeEnabledWdtCounter = CY_SYS_WDT_COUNTER2;
 980              		.loc 1 1587 0
 981 0044 0223     		mov	r3, #2
 982 0046 2360     		str	r3, [r4]
 983 0048 0CE0     		b	.L105
 984              	.L107:
 985              	.LBB88:
 986              	.LBB89:
 562:.\Generated_Source\PSoC4/CyLFClk.c ****         return ((CY_SYS_WDT_CONFIG_REG >> (counterNum * CY_SYS_WDT_CNT_SHIFT)) & CY_SYS_WDT_MODE_MA
 987              		.loc 1 562 0
 988 004a 1A4B     		ldr	r3, .L119+16
 989              	.LBE89:
 990              	.LBE88:
1588:.\Generated_Source\PSoC4/CyLFClk.c ****         }
1589:.\Generated_Source\PSoC4/CyLFClk.c ****         else /* All WDT counters are disabled */
ARM GAS  C:\Users\SDEVAS~1\AppData\Local\Temp\cchvSIah.s 			page 47


1590:.\Generated_Source\PSoC4/CyLFClk.c ****         {
1591:.\Generated_Source\PSoC4/CyLFClk.c ****             /* Configure WDT counter # 0 */
1592:.\Generated_Source\PSoC4/CyLFClk.c ****             lfclkPosedgeWdtCounter0Enabled = 1u;
 991              		.loc 1 1592 0
 992 004c 6560     		str	r5, [r4, #4]
1593:.\Generated_Source\PSoC4/CyLFClk.c ****             lfclkPosedgeEnabledWdtCounter = CY_SYS_WDT_COUNTER0;
 993              		.loc 1 1593 0
 994 004e 2160     		str	r1, [r4]
 995              	.LVL80:
 996              	.LBB91:
 997              	.LBB90:
 562:.\Generated_Source\PSoC4/CyLFClk.c ****         return ((CY_SYS_WDT_CONFIG_REG >> (counterNum * CY_SYS_WDT_CNT_SHIFT)) & CY_SYS_WDT_MODE_MA
 998              		.loc 1 562 0
 999 0050 1A68     		ldr	r2, [r3]
 1000 0052 0323     		mov	r3, #3
 1001 0054 1340     		and	r3, r2
 1002              	.LBE90:
 1003              	.LBE91:
1594:.\Generated_Source\PSoC4/CyLFClk.c **** 
1595:.\Generated_Source\PSoC4/CyLFClk.c ****             lfclkPosedgeWdtCounter0Mode = CySysWdtGetMode(CY_SYS_WDT_COUNTER0);
1596:.\Generated_Source\PSoC4/CyLFClk.c ****             CySysWdtSetMode(CY_SYS_WDT_COUNTER0, CY_SYS_WDT_MODE_NONE);
 1004              		.loc 1 1596 0
 1005 0056 081C     		mov	r0, r1
1595:.\Generated_Source\PSoC4/CyLFClk.c ****             lfclkPosedgeWdtCounter0Mode = CySysWdtGetMode(CY_SYS_WDT_COUNTER0);
 1006              		.loc 1 1595 0
 1007 0058 A360     		str	r3, [r4, #8]
 1008              		.loc 1 1596 0
 1009 005a FFF7FEFF 		bl	CySysWdtSetMode
 1010              	.LVL81:
1597:.\Generated_Source\PSoC4/CyLFClk.c ****             CySysWdtEnable(CY_SYS_WDT_COUNTER0_MASK);
 1011              		.loc 1 1597 0
 1012 005e 281C     		mov	r0, r5
 1013 0060 FFF7FEFF 		bl	CySysWdtEnable
 1014              	.LVL82:
 1015              	.L105:
1598:.\Generated_Source\PSoC4/CyLFClk.c ****         }
1599:.\Generated_Source\PSoC4/CyLFClk.c **** 
1600:.\Generated_Source\PSoC4/CyLFClk.c ****         firstCount = CySysWdtGetCount(lfclkPosedgeEnabledWdtCounter);
 1016              		.loc 1 1600 0
 1017 0064 2568     		ldr	r5, [r4]
 1018 0066 281C     		mov	r0, r5
 1019 0068 FFF7FEFF 		bl	CySysWdtGetCount
 1020              	.LVL83:
 1021 006c 0090     		str	r0, [sp]
 1022              	.LVL84:
 1023              	.L109:
1601:.\Generated_Source\PSoC4/CyLFClk.c ****         while (CySysWdtGetCount(lfclkPosedgeEnabledWdtCounter) == firstCount)
 1024              		.loc 1 1601 0
 1025 006e 281C     		mov	r0, r5
 1026 0070 FFF7FEFF 		bl	CySysWdtGetCount
 1027              	.LVL85:
 1028 0074 009B     		ldr	r3, [sp]
 1029 0076 9842     		cmp	r0, r3
 1030 0078 F9D0     		beq	.L109
 1031              	.LBE92:
 1032              	.LBE93:
 114:.\Generated_Source\PSoC4/CyLFClk.c ****                 CY_SYS_CLK_ILO_CONFIG_REG &= ( uint32 ) ( ~( uint32 )CY_SYS_CLK_ILO_CONFIG_ENABLE);
ARM GAS  C:\Users\SDEVAS~1\AppData\Local\Temp\cchvSIah.s 			page 48


 1033              		.loc 1 114 0
 1034 007a 3B68     		ldr	r3, [r7]
 1035 007c 5B00     		lsl	r3, r3, #1
 1036 007e 5B08     		lsr	r3, r3, #1
 1037 0080 3B60     		str	r3, [r7]
 1038              	.LBB94:
 1039              	.LBB95:
1602:.\Generated_Source\PSoC4/CyLFClk.c ****         {
1603:.\Generated_Source\PSoC4/CyLFClk.c ****             /* Wait for counter to increment */
1604:.\Generated_Source\PSoC4/CyLFClk.c ****         }
1605:.\Generated_Source\PSoC4/CyLFClk.c ****     }
1606:.\Generated_Source\PSoC4/CyLFClk.c **** 
1607:.\Generated_Source\PSoC4/CyLFClk.c **** 
1608:.\Generated_Source\PSoC4/CyLFClk.c ****     /*******************************************************************************
1609:.\Generated_Source\PSoC4/CyLFClk.c ****     * Function Name: CySysClkLfclkPosedgeRestore
1610:.\Generated_Source\PSoC4/CyLFClk.c ****     ********************************************************************************
1611:.\Generated_Source\PSoC4/CyLFClk.c ****     *
1612:.\Generated_Source\PSoC4/CyLFClk.c ****     * Summary:
1613:.\Generated_Source\PSoC4/CyLFClk.c ****     *  Restores the WDT configuration after a CySysClkLfclkPosedgeCatch() call.
1614:.\Generated_Source\PSoC4/CyLFClk.c ****     *
1615:.\Generated_Source\PSoC4/CyLFClk.c ****     *  A pair of the CySysClkLfclkPosedgeCatch() and CySysClkLfclkPosedgeRestore()
1616:.\Generated_Source\PSoC4/CyLFClk.c ****     *  functions is expected to be called inside a critical section.
1617:.\Generated_Source\PSoC4/CyLFClk.c ****     *
1618:.\Generated_Source\PSoC4/CyLFClk.c ****     *  Not applicable for the PSoC 4000 devices.
1619:.\Generated_Source\PSoC4/CyLFClk.c ****     *
1620:.\Generated_Source\PSoC4/CyLFClk.c ****     * Parameters:
1621:.\Generated_Source\PSoC4/CyLFClk.c ****     *  None.
1622:.\Generated_Source\PSoC4/CyLFClk.c ****     *
1623:.\Generated_Source\PSoC4/CyLFClk.c ****     * Return:
1624:.\Generated_Source\PSoC4/CyLFClk.c ****     *  None.
1625:.\Generated_Source\PSoC4/CyLFClk.c ****     *
1626:.\Generated_Source\PSoC4/CyLFClk.c ****     * Side Effects:
1627:.\Generated_Source\PSoC4/CyLFClk.c ****     *  This function has no effect if WDT is locked (CySysWdtLock() is
1628:.\Generated_Source\PSoC4/CyLFClk.c ****     *  called). Call CySysWdtUnlock() to unlock WDT.
1629:.\Generated_Source\PSoC4/CyLFClk.c ****     *
1630:.\Generated_Source\PSoC4/CyLFClk.c ****     *******************************************************************************/
1631:.\Generated_Source\PSoC4/CyLFClk.c ****     static void CySysClkLfclkPosedgeRestore(void)
1632:.\Generated_Source\PSoC4/CyLFClk.c ****     {
1633:.\Generated_Source\PSoC4/CyLFClk.c ****         if (lfclkPosedgeWdtCounter0Enabled != 0u)
 1040              		.loc 1 1633 0
 1041 0082 6268     		ldr	r2, [r4, #4]
 1042 0084 002A     		cmp	r2, #0
 1043 0086 09D0     		beq	.L110
1634:.\Generated_Source\PSoC4/CyLFClk.c ****         {
1635:.\Generated_Source\PSoC4/CyLFClk.c ****             /* Restore counter # 0 configuration and force its shutdown */
1636:.\Generated_Source\PSoC4/CyLFClk.c ****             CY_SYS_WDT_CONTROL_REG &= (uint32)(~CY_SYS_WDT_COUNTER0_MASK);
 1044              		.loc 1 1636 0
 1045 0088 3368     		ldr	r3, [r6]
 1046 008a 0122     		mov	r2, #1
 1047 008c 9343     		bic	r3, r2
 1048 008e 3360     		str	r3, [r6]
1637:.\Generated_Source\PSoC4/CyLFClk.c ****             CySysWdtSetMode(CY_SYS_WDT_COUNTER0, lfclkPosedgeWdtCounter0Mode);
 1049              		.loc 1 1637 0
 1050 0090 0020     		mov	r0, #0
 1051 0092 A168     		ldr	r1, [r4, #8]
 1052 0094 FFF7FEFF 		bl	CySysWdtSetMode
 1053              	.LVL86:
ARM GAS  C:\Users\SDEVAS~1\AppData\Local\Temp\cchvSIah.s 			page 49


1638:.\Generated_Source\PSoC4/CyLFClk.c ****             lfclkPosedgeWdtCounter0Enabled = 0u;
 1054              		.loc 1 1638 0
 1055 0098 0023     		mov	r3, #0
 1056 009a 6360     		str	r3, [r4, #4]
 1057              	.L110:
 1058              	.LBE95:
 1059              	.LBE94:
 116:.\Generated_Source\PSoC4/CyLFClk.c ****                 CyExitCriticalSection(interruptState);
 1060              		.loc 1 116 0
 1061 009c 0198     		ldr	r0, [sp, #4]
 1062 009e FFF7FEFF 		bl	CyExitCriticalSection
 1063              	.LVL87:
 1064              	.L102:
 131:.\Generated_Source\PSoC4/CyLFClk.c **** }
 1065              		.loc 1 131 0
 1066              		@ sp needed
 1067 00a2 F7BD     		pop	{r0, r1, r2, r4, r5, r6, r7, pc}
 1068              	.L120:
 1069              		.align	2
 1070              	.L119:
 1071 00a4 00010B40 		.word	1074462976
 1072 00a8 04010B40 		.word	1074462980
 1073 00ac 10020B40 		.word	1074463248
 1074 00b0 00000000 		.word	.LANCHOR0
 1075 00b4 0C020B40 		.word	1074463244
 1076              		.cfi_endproc
 1077              	.LFE1:
 1078              		.size	CySysClkIloStop, .-CySysClkIloStop
 1079              		.section	.text.CySysWdtGetInterruptSource,"ax",%progbits
 1080              		.align	1
 1081              		.global	CySysWdtGetInterruptSource
 1082              		.code	16
 1083              		.thumb_func
 1084              		.type	CySysWdtGetInterruptSource, %function
 1085              	CySysWdtGetInterruptSource:
 1086              	.LFB20:
1022:.\Generated_Source\PSoC4/CyLFClk.c ****     {
 1087              		.loc 1 1022 0
 1088              		.cfi_startproc
1023:.\Generated_Source\PSoC4/CyLFClk.c ****         return (CY_SYS_WDT_CONTROL_REG & (CY_SYS_WDT_COUNTER0_INT | CY_SYS_WDT_COUNTER1_INT | CY_SY
 1089              		.loc 1 1023 0
 1090 0000 024B     		ldr	r3, .L122
1024:.\Generated_Source\PSoC4/CyLFClk.c ****     }
 1091              		.loc 1 1024 0
 1092              		@ sp needed
1023:.\Generated_Source\PSoC4/CyLFClk.c ****         return (CY_SYS_WDT_CONTROL_REG & (CY_SYS_WDT_COUNTER0_INT | CY_SYS_WDT_COUNTER1_INT | CY_SY
 1093              		.loc 1 1023 0
 1094 0002 1868     		ldr	r0, [r3]
 1095 0004 024B     		ldr	r3, .L122+4
 1096 0006 1840     		and	r0, r3
1024:.\Generated_Source\PSoC4/CyLFClk.c ****     }
 1097              		.loc 1 1024 0
 1098 0008 7047     		bx	lr
 1099              	.L123:
 1100 000a C046     		.align	2
 1101              	.L122:
 1102 000c 10020B40 		.word	1074463248
ARM GAS  C:\Users\SDEVAS~1\AppData\Local\Temp\cchvSIah.s 			page 50


 1103 0010 04040400 		.word	263172
 1104              		.cfi_endproc
 1105              	.LFE20:
 1106              		.size	CySysWdtGetInterruptSource, .-CySysWdtGetInterruptSource
 1107              		.section	.text.CySysWdtClearInterrupt,"ax",%progbits
 1108              		.align	1
 1109              		.global	CySysWdtClearInterrupt
 1110              		.code	16
 1111              		.thumb_func
 1112              		.type	CySysWdtClearInterrupt, %function
 1113              	CySysWdtClearInterrupt:
 1114              	.LFB21:
1056:.\Generated_Source\PSoC4/CyLFClk.c ****     {
 1115              		.loc 1 1056 0
 1116              		.cfi_startproc
 1117              	.LVL88:
 1118 0000 38B5     		push	{r3, r4, r5, lr}
 1119              		.cfi_def_cfa_offset 16
 1120              		.cfi_offset 3, -16
 1121              		.cfi_offset 4, -12
 1122              		.cfi_offset 5, -8
 1123              		.cfi_offset 14, -4
1056:.\Generated_Source\PSoC4/CyLFClk.c ****     {
 1124              		.loc 1 1056 0
 1125 0002 041C     		mov	r4, r0
1060:.\Generated_Source\PSoC4/CyLFClk.c ****         interruptState = CyEnterCriticalSection();
 1126              		.loc 1 1060 0
 1127 0004 FFF7FEFF 		bl	CyEnterCriticalSection
 1128              	.LVL89:
 1129              	.LBB98:
 1130              	.LBB99:
 437:.\Generated_Source\PSoC4/CyLFClk.c ****         return ((0u != (CY_SYS_CLK_SELECT_REG & (uint32)(CY_SYS_WDT_CLK_LOCK_BITS_MASK))) ? (uint32
 1131              		.loc 1 437 0
 1132 0008 0D4B     		ldr	r3, .L129
 1133 000a C022     		mov	r2, #192
 1134 000c 1B68     		ldr	r3, [r3]
 1135 000e 1202     		lsl	r2, r2, #8
 1136              	.LBE99:
 1137              	.LBE98:
1060:.\Generated_Source\PSoC4/CyLFClk.c ****         interruptState = CyEnterCriticalSection();
 1138              		.loc 1 1060 0
 1139 0010 051C     		mov	r5, r0
 1140              	.LVL90:
 1141              	.LBB101:
 1142              	.LBB100:
 437:.\Generated_Source\PSoC4/CyLFClk.c ****         return ((0u != (CY_SYS_CLK_SELECT_REG & (uint32)(CY_SYS_WDT_CLK_LOCK_BITS_MASK))) ? (uint32
 1143              		.loc 1 437 0
 1144 0012 1A40     		and	r2, r3
 1145 0014 10D1     		bne	.L125
 1146              	.LVL91:
 1147              	.L127:
 1148              	.LBE100:
 1149              	.LBE101:
1077:.\Generated_Source\PSoC4/CyLFClk.c ****         CY_SYS_WDT_CONTROL_REG = counterMask | (CY_SYS_WDT_CONTROL_REG & ~(CY_SYS_WDT_COUNTER0_INT 
 1150              		.loc 1 1077 0
 1151 0016 0B4B     		ldr	r3, .L129+4
1073:.\Generated_Source\PSoC4/CyLFClk.c ****         counterMask &= (CY_SYS_WDT_COUNTER0_INT |
ARM GAS  C:\Users\SDEVAS~1\AppData\Local\Temp\cchvSIah.s 			page 51


 1152              		.loc 1 1073 0
 1153 0018 0B49     		ldr	r1, .L129+8
1077:.\Generated_Source\PSoC4/CyLFClk.c ****         CY_SYS_WDT_CONTROL_REG = counterMask | (CY_SYS_WDT_CONTROL_REG & ~(CY_SYS_WDT_COUNTER0_INT 
 1154              		.loc 1 1077 0
 1155 001a 1868     		ldr	r0, [r3]
1073:.\Generated_Source\PSoC4/CyLFClk.c ****         counterMask &= (CY_SYS_WDT_COUNTER0_INT |
 1156              		.loc 1 1073 0
 1157 001c 0C40     		and	r4, r1
 1158              	.LVL92:
1077:.\Generated_Source\PSoC4/CyLFClk.c ****         CY_SYS_WDT_CONTROL_REG = counterMask | (CY_SYS_WDT_CONTROL_REG & ~(CY_SYS_WDT_COUNTER0_INT 
 1159              		.loc 1 1077 0
 1160 001e 0B49     		ldr	r1, .L129+12
 1161 0020 0140     		and	r1, r0
 1162 0022 0C43     		orr	r4, r1
 1163              	.LVL93:
 1164 0024 1C60     		str	r4, [r3]
1084:.\Generated_Source\PSoC4/CyLFClk.c ****         (void)CY_SYS_WDT_CONTROL_REG;
 1165              		.loc 1 1084 0
 1166 0026 1B68     		ldr	r3, [r3]
1086:.\Generated_Source\PSoC4/CyLFClk.c ****         if (1u == wdtLockState)
 1167              		.loc 1 1086 0
 1168 0028 012A     		cmp	r2, #1
 1169 002a 01D1     		bne	.L126
 1170              	.LVL94:
1088:.\Generated_Source\PSoC4/CyLFClk.c ****             CySysWdtLock();
 1171              		.loc 1 1088 0
 1172 002c FFF7FEFF 		bl	CySysWdtLock
 1173              	.LVL95:
 1174              	.L126:
1091:.\Generated_Source\PSoC4/CyLFClk.c ****         CyExitCriticalSection(interruptState);
 1175              		.loc 1 1091 0
 1176 0030 281C     		mov	r0, r5
 1177 0032 FFF7FEFF 		bl	CyExitCriticalSection
 1178              	.LVL96:
1092:.\Generated_Source\PSoC4/CyLFClk.c ****     }
 1179              		.loc 1 1092 0
 1180              		@ sp needed
 1181              	.LVL97:
 1182 0036 38BD     		pop	{r3, r4, r5, pc}
 1183              	.LVL98:
 1184              	.L125:
1065:.\Generated_Source\PSoC4/CyLFClk.c ****             CySysWdtUnlock();
 1185              		.loc 1 1065 0
 1186 0038 FFF7FEFF 		bl	CySysWdtUnlock
 1187              	.LVL99:
1064:.\Generated_Source\PSoC4/CyLFClk.c ****             wdtLockState = 1u;
 1188              		.loc 1 1064 0
 1189 003c 0122     		mov	r2, #1
 1190 003e EAE7     		b	.L127
 1191              	.L130:
 1192              		.align	2
 1193              	.L129:
 1194 0040 00010B40 		.word	1074462976
 1195 0044 10020B40 		.word	1074463248
 1196 0048 04040400 		.word	263172
 1197 004c FBFBFBFF 		.word	-263173
 1198              		.cfi_endproc
ARM GAS  C:\Users\SDEVAS~1\AppData\Local\Temp\cchvSIah.s 			page 52


 1199              	.LFE21:
 1200              		.size	CySysWdtClearInterrupt, .-CySysWdtClearInterrupt
 1201              		.section	.text.CySysWdtResetCounters,"ax",%progbits
 1202              		.align	1
 1203              		.global	CySysWdtResetCounters
 1204              		.code	16
 1205              		.thumb_func
 1206              		.type	CySysWdtResetCounters, %function
 1207              	CySysWdtResetCounters:
 1208              	.LFB22:
1120:.\Generated_Source\PSoC4/CyLFClk.c ****     {
 1209              		.loc 1 1120 0
 1210              		.cfi_startproc
 1211              	.LVL100:
1122:.\Generated_Source\PSoC4/CyLFClk.c ****         CY_SYS_WDT_CONTROL_REG |= (countersMask & CY_SYS_WDT_COUNTERS_RESET);
 1212              		.loc 1 1122 0
 1213 0000 044B     		ldr	r3, .L134
 1214 0002 054A     		ldr	r2, .L134+4
 1215 0004 1968     		ldr	r1, [r3]
 1216 0006 1040     		and	r0, r2
 1217              	.LVL101:
 1218 0008 0843     		orr	r0, r1
 1219 000a 1860     		str	r0, [r3]
 1220              	.L133:
1124:.\Generated_Source\PSoC4/CyLFClk.c ****         while (0uL != (CY_SYS_WDT_CONTROL_REG & CY_SYS_WDT_COUNTERS_RESET))
 1221              		.loc 1 1124 0 discriminator 1
 1222 000c 1968     		ldr	r1, [r3]
 1223 000e 1142     		tst	r1, r2
 1224 0010 FCD1     		bne	.L133
1128:.\Generated_Source\PSoC4/CyLFClk.c ****     }
 1225              		.loc 1 1128 0
 1226              		@ sp needed
 1227 0012 7047     		bx	lr
 1228              	.L135:
 1229              		.align	2
 1230              	.L134:
 1231 0014 10020B40 		.word	1074463248
 1232 0018 08080800 		.word	526344
 1233              		.cfi_endproc
 1234              	.LFE22:
 1235              		.size	CySysWdtResetCounters, .-CySysWdtResetCounters
 1236              		.section	.text.CySysWdtSetInterruptCallback,"ax",%progbits
 1237              		.align	1
 1238              		.global	CySysWdtSetInterruptCallback
 1239              		.code	16
 1240              		.thumb_func
 1241              		.type	CySysWdtSetInterruptCallback, %function
 1242              	CySysWdtSetInterruptCallback:
 1243              	.LFB23:
1149:.\Generated_Source\PSoC4/CyLFClk.c ****     {
 1244              		.loc 1 1149 0
 1245              		.cfi_startproc
 1246              	.LVL102:
1152:.\Generated_Source\PSoC4/CyLFClk.c ****         if(counterNum < CY_WDT_NUM_OF_WDT)
 1247              		.loc 1 1152 0
 1248 0000 0228     		cmp	r0, #2
 1249 0002 05D8     		bhi	.L138
ARM GAS  C:\Users\SDEVAS~1\AppData\Local\Temp\cchvSIah.s 			page 53


1154:.\Generated_Source\PSoC4/CyLFClk.c ****             prevCallback = cySysWdtCallback[counterNum];
 1250              		.loc 1 1154 0
 1251 0004 034B     		ldr	r3, .L139
 1252 0006 8000     		lsl	r0, r0, #2
 1253              	.LVL103:
 1254 0008 1B18     		add	r3, r3, r0
 1255 000a D868     		ldr	r0, [r3, #12]
 1256              	.LVL104:
1155:.\Generated_Source\PSoC4/CyLFClk.c ****             cySysWdtCallback[counterNum] = function;
 1257              		.loc 1 1155 0
 1258 000c D960     		str	r1, [r3, #12]
 1259 000e 00E0     		b	.L137
 1260              	.LVL105:
 1261              	.L138:
1150:.\Generated_Source\PSoC4/CyLFClk.c ****         cyWdtCallback prevCallback = (void *)0;
 1262              		.loc 1 1150 0
 1263 0010 0020     		mov	r0, #0
 1264              	.LVL106:
 1265              	.L137:
1163:.\Generated_Source\PSoC4/CyLFClk.c ****     }
 1266              		.loc 1 1163 0
 1267              		@ sp needed
 1268 0012 7047     		bx	lr
 1269              	.L140:
 1270              		.align	2
 1271              	.L139:
 1272 0014 00000000 		.word	.LANCHOR0
 1273              		.cfi_endproc
 1274              	.LFE23:
 1275              		.size	CySysWdtSetInterruptCallback, .-CySysWdtSetInterruptCallback
 1276              		.section	.text.CySysWdtGetInterruptCallback,"ax",%progbits
 1277              		.align	1
 1278              		.global	CySysWdtGetInterruptCallback
 1279              		.code	16
 1280              		.thumb_func
 1281              		.type	CySysWdtGetInterruptCallback, %function
 1282              	CySysWdtGetInterruptCallback:
 1283              	.LFB24:
1182:.\Generated_Source\PSoC4/CyLFClk.c ****     {
 1284              		.loc 1 1182 0
 1285              		.cfi_startproc
 1286              	.LVL107:
1185:.\Generated_Source\PSoC4/CyLFClk.c ****         if(counterNum < CY_WDT_NUM_OF_WDT)
 1287              		.loc 1 1185 0
 1288 0000 0228     		cmp	r0, #2
 1289 0002 04D8     		bhi	.L143
1187:.\Generated_Source\PSoC4/CyLFClk.c ****             retCallback = (cyWdtCallback)cySysWdtCallback[counterNum];
 1290              		.loc 1 1187 0
 1291 0004 034B     		ldr	r3, .L144
 1292 0006 8000     		lsl	r0, r0, #2
 1293              	.LVL108:
 1294 0008 1818     		add	r0, r3, r0
 1295 000a C068     		ldr	r0, [r0, #12]
 1296              	.LVL109:
 1297 000c 00E0     		b	.L142
 1298              	.LVL110:
 1299              	.L143:
ARM GAS  C:\Users\SDEVAS~1\AppData\Local\Temp\cchvSIah.s 			page 54


1183:.\Generated_Source\PSoC4/CyLFClk.c ****         cyWdtCallback retCallback = (void *)0;
 1300              		.loc 1 1183 0
 1301 000e 0020     		mov	r0, #0
 1302              	.LVL111:
 1303              	.L142:
1195:.\Generated_Source\PSoC4/CyLFClk.c ****     }
 1304              		.loc 1 1195 0
 1305              		@ sp needed
 1306 0010 7047     		bx	lr
 1307              	.L145:
 1308 0012 C046     		.align	2
 1309              	.L144:
 1310 0014 00000000 		.word	.LANCHOR0
 1311              		.cfi_endproc
 1312              	.LFE24:
 1313              		.size	CySysWdtGetInterruptCallback, .-CySysWdtGetInterruptCallback
 1314              		.section	.text.CySysWdtEnableCounterIsr,"ax",%progbits
 1315              		.align	1
 1316              		.global	CySysWdtEnableCounterIsr
 1317              		.code	16
 1318              		.thumb_func
 1319              		.type	CySysWdtEnableCounterIsr, %function
 1320              	CySysWdtEnableCounterIsr:
 1321              	.LFB25:
1210:.\Generated_Source\PSoC4/CyLFClk.c ****     {
 1322              		.loc 1 1210 0
 1323              		.cfi_startproc
 1324              	.LVL112:
1211:.\Generated_Source\PSoC4/CyLFClk.c ****         if(counterNum <= CY_SYS_WDT_COUNTER2)
 1325              		.loc 1 1211 0
 1326 0000 0228     		cmp	r0, #2
 1327 0002 0AD8     		bhi	.L146
1213:.\Generated_Source\PSoC4/CyLFClk.c ****             disableServicedIsr &= ~counterIntMaskTbl[counterNum];
 1328              		.loc 1 1213 0
 1329 0004 054B     		ldr	r3, .L148
 1330 0006 064A     		ldr	r2, .L148+4
 1331 0008 8000     		lsl	r0, r0, #2
 1332              	.LVL113:
 1333 000a 9969     		ldr	r1, [r3, #24]
 1334 000c 8258     		ldr	r2, [r0, r2]
 1335 000e 9143     		bic	r1, r2
 1336 0010 9961     		str	r1, [r3, #24]
1214:.\Generated_Source\PSoC4/CyLFClk.c ****             wdtIsrMask |= counterIntMaskTbl[counterNum];
 1337              		.loc 1 1214 0
 1338 0012 044B     		ldr	r3, .L148+8
 1339 0014 1968     		ldr	r1, [r3]
 1340 0016 0A43     		orr	r2, r1
 1341 0018 1A60     		str	r2, [r3]
 1342              	.L146:
1220:.\Generated_Source\PSoC4/CyLFClk.c ****     }
 1343              		.loc 1 1220 0
 1344              		@ sp needed
 1345 001a 7047     		bx	lr
 1346              	.L149:
 1347              		.align	2
 1348              	.L148:
 1349 001c 00000000 		.word	.LANCHOR0
ARM GAS  C:\Users\SDEVAS~1\AppData\Local\Temp\cchvSIah.s 			page 55


 1350 0020 00000000 		.word	.LANCHOR1
 1351 0024 00000000 		.word	.LANCHOR2
 1352              		.cfi_endproc
 1353              	.LFE25:
 1354              		.size	CySysWdtEnableCounterIsr, .-CySysWdtEnableCounterIsr
 1355              		.section	.text.CySysWdtDisableCounterIsr,"ax",%progbits
 1356              		.align	1
 1357              		.global	CySysWdtDisableCounterIsr
 1358              		.code	16
 1359              		.thumb_func
 1360              		.type	CySysWdtDisableCounterIsr, %function
 1361              	CySysWdtDisableCounterIsr:
 1362              	.LFB26:
1235:.\Generated_Source\PSoC4/CyLFClk.c ****     {
 1363              		.loc 1 1235 0
 1364              		.cfi_startproc
 1365              	.LVL114:
1236:.\Generated_Source\PSoC4/CyLFClk.c ****         if(counterNum <= CY_SYS_WDT_COUNTER2)
 1366              		.loc 1 1236 0
 1367 0000 0228     		cmp	r0, #2
 1368 0002 06D8     		bhi	.L150
1238:.\Generated_Source\PSoC4/CyLFClk.c ****             wdtIsrMask &= ~counterIntMaskTbl[counterNum];
 1369              		.loc 1 1238 0
 1370 0004 034B     		ldr	r3, .L152
 1371 0006 0449     		ldr	r1, .L152+4
 1372 0008 8000     		lsl	r0, r0, #2
 1373              	.LVL115:
 1374 000a 1A68     		ldr	r2, [r3]
 1375 000c 4158     		ldr	r1, [r0, r1]
 1376 000e 8A43     		bic	r2, r1
 1377 0010 1A60     		str	r2, [r3]
 1378              	.L150:
1244:.\Generated_Source\PSoC4/CyLFClk.c ****     }
 1379              		.loc 1 1244 0
 1380              		@ sp needed
 1381 0012 7047     		bx	lr
 1382              	.L153:
 1383              		.align	2
 1384              	.L152:
 1385 0014 00000000 		.word	.LANCHOR2
 1386 0018 00000000 		.word	.LANCHOR1
 1387              		.cfi_endproc
 1388              	.LFE26:
 1389              		.size	CySysWdtDisableCounterIsr, .-CySysWdtDisableCounterIsr
 1390              		.section	.text.CySysWdtIsr,"ax",%progbits
 1391              		.align	1
 1392              		.global	CySysWdtIsr
 1393              		.code	16
 1394              		.thumb_func
 1395              		.type	CySysWdtIsr, %function
 1396              	CySysWdtIsr:
 1397              	.LFB27:
1273:.\Generated_Source\PSoC4/CyLFClk.c ****     {
 1398              		.loc 1 1273 0
 1399              		.cfi_startproc
 1400 0000 38B5     		push	{r3, r4, r5, lr}
 1401              		.cfi_def_cfa_offset 16
ARM GAS  C:\Users\SDEVAS~1\AppData\Local\Temp\cchvSIah.s 			page 56


 1402              		.cfi_offset 3, -16
 1403              		.cfi_offset 4, -12
 1404              		.cfi_offset 5, -8
 1405              		.cfi_offset 14, -4
1274:.\Generated_Source\PSoC4/CyLFClk.c ****         if(0u != (CY_SYS_WDT_COUNTER0_INT & CY_SYS_WDT_CONTROL_REG))
 1406              		.loc 1 1274 0
 1407 0002 234C     		ldr	r4, .L186
 1408 0004 0422     		mov	r2, #4
 1409 0006 2368     		ldr	r3, [r4]
 1410 0008 1342     		tst	r3, r2
 1411 000a 13D0     		beq	.L155
1276:.\Generated_Source\PSoC4/CyLFClk.c ****             if(0u != (CY_SYS_WDT_COUNTER0_INT & wdtIsrMask))
 1412              		.loc 1 1276 0
 1413 000c 2149     		ldr	r1, .L186+4
 1414 000e 0B68     		ldr	r3, [r1]
 1415 0010 1342     		tst	r3, r2
 1416 0012 0CD0     		beq	.L157
1278:.\Generated_Source\PSoC4/CyLFClk.c ****                 wdtIsrMask &= ~(disableServicedIsr & CY_SYS_WDT_COUNTER0_INT);
 1417              		.loc 1 1278 0
 1418 0014 204B     		ldr	r3, .L186+8
 1419 0016 0868     		ldr	r0, [r1]
 1420 0018 9D69     		ldr	r5, [r3, #24]
 1421 001a 1540     		and	r5, r2
 1422 001c A843     		bic	r0, r5
 1423 001e 0860     		str	r0, [r1]
1279:.\Generated_Source\PSoC4/CyLFClk.c ****                 disableServicedIsr  &= ~CY_SYS_WDT_COUNTER0_INT;
 1424              		.loc 1 1279 0
 1425 0020 9969     		ldr	r1, [r3, #24]
 1426 0022 9143     		bic	r1, r2
 1427 0024 9961     		str	r1, [r3, #24]
1280:.\Generated_Source\PSoC4/CyLFClk.c ****                 if(cySysWdtCallback[CY_SYS_WDT_COUNTER0] != (void *) 0)
 1428              		.loc 1 1280 0
 1429 0026 DB68     		ldr	r3, [r3, #12]
 1430 0028 002B     		cmp	r3, #0
 1431 002a 00D0     		beq	.L157
1282:.\Generated_Source\PSoC4/CyLFClk.c ****                     (void)(cySysWdtCallback[CY_SYS_WDT_COUNTER0])();
 1432              		.loc 1 1282 0
 1433 002c 9847     		blx	r3
 1434              	.LVL116:
 1435              	.L157:
1285:.\Generated_Source\PSoC4/CyLFClk.c ****             CySysWdtClearInterrupt(CY_SYS_WDT_COUNTER0_INT);
 1436              		.loc 1 1285 0
 1437 002e 0420     		mov	r0, #4
 1438 0030 FFF7FEFF 		bl	CySysWdtClearInterrupt
 1439              	.LVL117:
 1440              	.L155:
1288:.\Generated_Source\PSoC4/CyLFClk.c ****         if(0u != (CY_SYS_WDT_COUNTER1_INT & CY_SYS_WDT_CONTROL_REG))
 1441              		.loc 1 1288 0
 1442 0034 8021     		mov	r1, #128
 1443 0036 2368     		ldr	r3, [r4]
 1444 0038 C900     		lsl	r1, r1, #3
 1445 003a 0B42     		tst	r3, r1
 1446 003c 15D0     		beq	.L159
1290:.\Generated_Source\PSoC4/CyLFClk.c ****             if(0u != (CY_SYS_WDT_COUNTER1_INT & wdtIsrMask))
 1447              		.loc 1 1290 0
 1448 003e 154A     		ldr	r2, .L186+4
 1449 0040 1368     		ldr	r3, [r2]
ARM GAS  C:\Users\SDEVAS~1\AppData\Local\Temp\cchvSIah.s 			page 57


 1450 0042 0B42     		tst	r3, r1
 1451 0044 0DD0     		beq	.L161
1292:.\Generated_Source\PSoC4/CyLFClk.c ****                 wdtIsrMask &= ~(disableServicedIsr & CY_SYS_WDT_COUNTER1_INT);
 1452              		.loc 1 1292 0
 1453 0046 144B     		ldr	r3, .L186+8
 1454 0048 1068     		ldr	r0, [r2]
 1455 004a 9D69     		ldr	r5, [r3, #24]
 1456 004c 2940     		and	r1, r5
 1457 004e 8843     		bic	r0, r1
 1458 0050 1060     		str	r0, [r2]
1293:.\Generated_Source\PSoC4/CyLFClk.c ****                 disableServicedIsr  &= ~CY_SYS_WDT_COUNTER1_INT;
 1459              		.loc 1 1293 0
 1460 0052 9969     		ldr	r1, [r3, #24]
 1461 0054 114A     		ldr	r2, .L186+12
 1462 0056 0A40     		and	r2, r1
 1463 0058 9A61     		str	r2, [r3, #24]
1294:.\Generated_Source\PSoC4/CyLFClk.c ****                 if(cySysWdtCallback[CY_SYS_WDT_COUNTER1] != (void *) 0)
 1464              		.loc 1 1294 0
 1465 005a 1B69     		ldr	r3, [r3, #16]
 1466 005c 002B     		cmp	r3, #0
 1467 005e 00D0     		beq	.L161
1296:.\Generated_Source\PSoC4/CyLFClk.c ****                     (void)(cySysWdtCallback[CY_SYS_WDT_COUNTER1])();
 1468              		.loc 1 1296 0
 1469 0060 9847     		blx	r3
 1470              	.LVL118:
 1471              	.L161:
1299:.\Generated_Source\PSoC4/CyLFClk.c ****             CySysWdtClearInterrupt(CY_SYS_WDT_COUNTER1_INT);
 1472              		.loc 1 1299 0
 1473 0062 8020     		mov	r0, #128
 1474 0064 C000     		lsl	r0, r0, #3
 1475 0066 FFF7FEFF 		bl	CySysWdtClearInterrupt
 1476              	.LVL119:
 1477              	.L159:
1302:.\Generated_Source\PSoC4/CyLFClk.c ****         if(0u != (CY_SYS_WDT_COUNTER2_INT & CY_SYS_WDT_CONTROL_REG))
 1478              		.loc 1 1302 0
 1479 006a 8023     		mov	r3, #128
 1480 006c 2268     		ldr	r2, [r4]
 1481 006e DB02     		lsl	r3, r3, #11
 1482 0070 1A42     		tst	r2, r3
 1483 0072 0CD0     		beq	.L154
1304:.\Generated_Source\PSoC4/CyLFClk.c ****             if(0u != (CY_SYS_WDT_COUNTER2_INT & wdtIsrMask))
 1484              		.loc 1 1304 0
 1485 0074 074A     		ldr	r2, .L186+4
 1486 0076 1268     		ldr	r2, [r2]
 1487 0078 1A42     		tst	r2, r3
 1488 007a 04D0     		beq	.L164
1306:.\Generated_Source\PSoC4/CyLFClk.c ****                 if(cySysWdtCallback[CY_SYS_WDT_COUNTER2] != (void *) 0)
 1489              		.loc 1 1306 0
 1490 007c 064B     		ldr	r3, .L186+8
 1491 007e 5B69     		ldr	r3, [r3, #20]
 1492 0080 002B     		cmp	r3, #0
 1493 0082 00D0     		beq	.L164
1308:.\Generated_Source\PSoC4/CyLFClk.c ****                     (void)(cySysWdtCallback[CY_SYS_WDT_COUNTER2])();
 1494              		.loc 1 1308 0
 1495 0084 9847     		blx	r3
 1496              	.LVL120:
 1497              	.L164:
ARM GAS  C:\Users\SDEVAS~1\AppData\Local\Temp\cchvSIah.s 			page 58


1311:.\Generated_Source\PSoC4/CyLFClk.c ****             CySysWdtClearInterrupt(CY_SYS_WDT_COUNTER2_INT);
 1498              		.loc 1 1311 0
 1499 0086 8020     		mov	r0, #128
 1500 0088 C002     		lsl	r0, r0, #11
 1501 008a FFF7FEFF 		bl	CySysWdtClearInterrupt
 1502              	.LVL121:
 1503              	.L154:
1313:.\Generated_Source\PSoC4/CyLFClk.c ****     }
 1504              		.loc 1 1313 0
 1505              		@ sp needed
 1506 008e 38BD     		pop	{r3, r4, r5, pc}
 1507              	.L187:
 1508              		.align	2
 1509              	.L186:
 1510 0090 10020B40 		.word	1074463248
 1511 0094 00000000 		.word	.LANCHOR2
 1512 0098 00000000 		.word	.LANCHOR0
 1513 009c FFFBFFFF 		.word	-1025
 1514              		.cfi_endproc
 1515              	.LFE27:
 1516              		.size	CySysWdtIsr, .-CySysWdtIsr
 1517              		.section	.text.CySysTimerDelayUntilMatch,"ax",%progbits
 1518              		.align	1
 1519              		.global	CySysTimerDelayUntilMatch
 1520              		.code	16
 1521              		.thumb_func
 1522              		.type	CySysTimerDelayUntilMatch, %function
 1523              	CySysTimerDelayUntilMatch:
 1524              	.LFB29:
1448:.\Generated_Source\PSoC4/CyLFClk.c ****     {
 1525              		.loc 1 1448 0
 1526              		.cfi_startproc
 1527              	.LVL122:
 1528 0000 70B5     		push	{r4, r5, r6, lr}
 1529              		.cfi_def_cfa_offset 16
 1530              		.cfi_offset 4, -16
 1531              		.cfi_offset 5, -12
 1532              		.cfi_offset 6, -8
 1533              		.cfi_offset 14, -4
1448:.\Generated_Source\PSoC4/CyLFClk.c ****     {
 1534              		.loc 1 1448 0
 1535 0002 041C     		mov	r4, r0
 1536 0004 0E1C     		mov	r6, r1
 1537 0006 151C     		mov	r5, r2
1451:.\Generated_Source\PSoC4/CyLFClk.c ****         if((counterNum < CY_SYS_WDT_COUNTER2) && (0uL == CySysWdtGetClearOnMatch(counterNum)) && (m
 1538              		.loc 1 1451 0
 1539 0008 0128     		cmp	r0, #1
 1540 000a 22D8     		bhi	.L188
1451:.\Generated_Source\PSoC4/CyLFClk.c ****         if((counterNum < CY_SYS_WDT_COUNTER2) && (0uL == CySysWdtGetClearOnMatch(counterNum)) && (m
 1541              		.loc 1 1451 0 is_stmt 0 discriminator 1
 1542 000c FFF7FEFF 		bl	CySysWdtGetClearOnMatch
 1543              	.LVL123:
 1544 0010 0028     		cmp	r0, #0
 1545 0012 1ED1     		bne	.L188
 1546 0014 0F4B     		ldr	r3, .L196
 1547 0016 9D42     		cmp	r5, r3
 1548 0018 1BD8     		bhi	.L188
ARM GAS  C:\Users\SDEVAS~1\AppData\Local\Temp\cchvSIah.s 			page 59


1453:.\Generated_Source\PSoC4/CyLFClk.c ****             if(delayType == CY_SYS_TIMER_WAIT)
 1549              		.loc 1 1453 0 is_stmt 1
 1550 001a 002E     		cmp	r6, #0
 1551 001c 0AD1     		bne	.L192
 1552              	.L194:
1457:.\Generated_Source\PSoC4/CyLFClk.c ****                     tmpValue = CySysWdtGetCount(counterNum);
 1553              		.loc 1 1457 0
 1554 001e 201C     		mov	r0, r4
 1555 0020 FFF7FEFF 		bl	CySysWdtGetCount
 1556              	.LVL124:
1458:.\Generated_Source\PSoC4/CyLFClk.c ****                 }while(tmpValue > match);
 1557              		.loc 1 1458 0
 1558 0024 A842     		cmp	r0, r5
 1559 0026 FAD8     		bhi	.L194
 1560              	.L195:
1462:.\Generated_Source\PSoC4/CyLFClk.c ****                     tmpValue = CySysWdtGetCount(counterNum);
 1561              		.loc 1 1462 0
 1562 0028 201C     		mov	r0, r4
 1563              	.LVL125:
 1564 002a FFF7FEFF 		bl	CySysWdtGetCount
 1565              	.LVL126:
1463:.\Generated_Source\PSoC4/CyLFClk.c ****                 }while(tmpValue < match);
 1566              		.loc 1 1463 0
 1567 002e A842     		cmp	r0, r5
 1568 0030 FAD3     		bcc	.L195
 1569 0032 0EE0     		b	.L188
 1570              	.LVL127:
 1571              	.L192:
1467:.\Generated_Source\PSoC4/CyLFClk.c ****                 tmpValue = counterIntMaskTbl[counterNum];
 1572              		.loc 1 1467 0
 1573 0034 084B     		ldr	r3, .L196+4
 1574 0036 A200     		lsl	r2, r4, #2
1468:.\Generated_Source\PSoC4/CyLFClk.c ****                 CySysWdtSetMatch(counterNum, match);
 1575              		.loc 1 1468 0
 1576 0038 201C     		mov	r0, r4
 1577 003a 291C     		mov	r1, r5
1467:.\Generated_Source\PSoC4/CyLFClk.c ****                 tmpValue = counterIntMaskTbl[counterNum];
 1578              		.loc 1 1467 0
 1579 003c D658     		ldr	r6, [r2, r3]
 1580              	.LVL128:
1468:.\Generated_Source\PSoC4/CyLFClk.c ****                 CySysWdtSetMatch(counterNum, match);
 1581              		.loc 1 1468 0
 1582 003e FFF7FEFF 		bl	CySysWdtSetMatch
 1583              	.LVL129:
1470:.\Generated_Source\PSoC4/CyLFClk.c ****                 disableServicedIsr  |= tmpValue;
 1584              		.loc 1 1470 0
 1585 0042 064B     		ldr	r3, .L196+8
 1586 0044 9A69     		ldr	r2, [r3, #24]
 1587 0046 3243     		orr	r2, r6
 1588 0048 9A61     		str	r2, [r3, #24]
1471:.\Generated_Source\PSoC4/CyLFClk.c ****                 wdtIsrMask |= tmpValue;
 1589              		.loc 1 1471 0
 1590 004a 054B     		ldr	r3, .L196+12
 1591 004c 1A68     		ldr	r2, [r3]
 1592 004e 1643     		orr	r6, r2
 1593              	.LVL130:
 1594 0050 1E60     		str	r6, [r3]
ARM GAS  C:\Users\SDEVAS~1\AppData\Local\Temp\cchvSIah.s 			page 60


 1595              	.LVL131:
 1596              	.L188:
1478:.\Generated_Source\PSoC4/CyLFClk.c ****     }
 1597              		.loc 1 1478 0
 1598              		@ sp needed
 1599              	.LVL132:
 1600              	.LVL133:
 1601 0052 70BD     		pop	{r4, r5, r6, pc}
 1602              	.L197:
 1603              		.align	2
 1604              	.L196:
 1605 0054 FFFF0000 		.word	65535
 1606 0058 00000000 		.word	.LANCHOR1
 1607 005c 00000000 		.word	.LANCHOR0
 1608 0060 00000000 		.word	.LANCHOR2
 1609              		.cfi_endproc
 1610              	.LFE29:
 1611              		.size	CySysTimerDelayUntilMatch, .-CySysTimerDelayUntilMatch
 1612              		.section	.text.CySysTimerDelay,"ax",%progbits
 1613              		.align	1
 1614              		.global	CySysTimerDelay
 1615              		.code	16
 1616              		.thumb_func
 1617              		.type	CySysTimerDelay, %function
 1618              	CySysTimerDelay:
 1619              	.LFB28:
1372:.\Generated_Source\PSoC4/CyLFClk.c ****     {
 1620              		.loc 1 1372 0
 1621              		.cfi_startproc
 1622              	.LVL134:
 1623 0000 70B5     		push	{r4, r5, r6, lr}
 1624              		.cfi_def_cfa_offset 16
 1625              		.cfi_offset 4, -16
 1626              		.cfi_offset 5, -12
 1627              		.cfi_offset 6, -8
 1628              		.cfi_offset 14, -4
1372:.\Generated_Source\PSoC4/CyLFClk.c ****     {
 1629              		.loc 1 1372 0
 1630 0002 041C     		mov	r4, r0
 1631 0004 0E1C     		mov	r6, r1
 1632 0006 151C     		mov	r5, r2
1376:.\Generated_Source\PSoC4/CyLFClk.c ****         if((counterNum < CY_SYS_WDT_COUNTER2) && (0uL == CySysWdtGetClearOnMatch(counterNum)) && (d
 1633              		.loc 1 1376 0
 1634 0008 0128     		cmp	r0, #1
 1635 000a 0FD8     		bhi	.L198
1376:.\Generated_Source\PSoC4/CyLFClk.c ****         if((counterNum < CY_SYS_WDT_COUNTER2) && (0uL == CySysWdtGetClearOnMatch(counterNum)) && (d
 1636              		.loc 1 1376 0 is_stmt 0 discriminator 1
 1637 000c FFF7FEFF 		bl	CySysWdtGetClearOnMatch
 1638              	.LVL135:
 1639 0010 0028     		cmp	r0, #0
 1640 0012 0BD1     		bne	.L198
 1641 0014 064B     		ldr	r3, .L202
 1642 0016 9D42     		cmp	r5, r3
 1643 0018 08D8     		bhi	.L198
1378:.\Generated_Source\PSoC4/CyLFClk.c ****             regValue   = CySysWdtGetCount(counterNum);
 1644              		.loc 1 1378 0 is_stmt 1
 1645 001a 201C     		mov	r0, r4
ARM GAS  C:\Users\SDEVAS~1\AppData\Local\Temp\cchvSIah.s 			page 61


 1646 001c FFF7FEFF 		bl	CySysWdtGetCount
 1647              	.LVL136:
1379:.\Generated_Source\PSoC4/CyLFClk.c ****             matchValue = (regValue + delay) & (uint32)UINT16_MAX_VAL;
 1648              		.loc 1 1379 0
 1649 0020 4519     		add	r5, r0, r5
 1650              	.LVL137:
 1651 0022 AAB2     		uxth	r2, r5
1381:.\Generated_Source\PSoC4/CyLFClk.c ****             CySysTimerDelayUntilMatch(counterNum, delayType, matchValue);
 1652              		.loc 1 1381 0
 1653 0024 201C     		mov	r0, r4
 1654              	.LVL138:
 1655 0026 311C     		mov	r1, r6
 1656 0028 FFF7FEFF 		bl	CySysTimerDelayUntilMatch
 1657              	.LVL139:
 1658              	.L198:
1387:.\Generated_Source\PSoC4/CyLFClk.c ****     }
 1659              		.loc 1 1387 0
 1660              		@ sp needed
 1661              	.LVL140:
 1662 002c 70BD     		pop	{r4, r5, r6, pc}
 1663              	.L203:
 1664 002e C046     		.align	2
 1665              	.L202:
 1666 0030 FFFF0000 		.word	65535
 1667              		.cfi_endproc
 1668              	.LFE28:
 1669              		.size	CySysTimerDelay, .-CySysTimerDelay
 1670              		.section	.text.CySysWatchdogFeed,"ax",%progbits
 1671              		.align	1
 1672              		.global	CySysWatchdogFeed
 1673              		.code	16
 1674              		.thumb_func
 1675              		.type	CySysWatchdogFeed, %function
 1676              	CySysWatchdogFeed:
 1677              	.LFB30:
1501:.\Generated_Source\PSoC4/CyLFClk.c ****     {
 1678              		.loc 1 1501 0
 1679              		.cfi_startproc
 1680              	.LVL141:
 1681 0000 10B5     		push	{r4, lr}
 1682              		.cfi_def_cfa_offset 8
 1683              		.cfi_offset 4, -8
 1684              		.cfi_offset 14, -4
1501:.\Generated_Source\PSoC4/CyLFClk.c ****     {
 1685              		.loc 1 1501 0
 1686 0002 041E     		sub	r4, r0, #0
1502:.\Generated_Source\PSoC4/CyLFClk.c ****         if(counterNum == CY_SYS_WDT_COUNTER0)
 1687              		.loc 1 1502 0
 1688 0004 0DD1     		bne	.L205
1504:.\Generated_Source\PSoC4/CyLFClk.c ****             if(CY_SYS_WDT_MODE_INT_RESET == CySysWdtGetMode(counterNum))
 1689              		.loc 1 1504 0
 1690 0006 FFF7FEFF 		bl	CySysWdtGetMode
 1691              	.LVL142:
 1692 000a 0328     		cmp	r0, #3
 1693 000c 07D0     		beq	.L213
1508:.\Generated_Source\PSoC4/CyLFClk.c ****             else if(CY_SYS_WDT_MODE_RESET == CySysWdtGetMode(counterNum))
 1694              		.loc 1 1508 0
ARM GAS  C:\Users\SDEVAS~1\AppData\Local\Temp\cchvSIah.s 			page 62


 1695 000e 201C     		mov	r0, r4
 1696 0010 FFF7FEFF 		bl	CySysWdtGetMode
 1697              	.LVL143:
 1698 0014 0228     		cmp	r0, #2
 1699 0016 17D1     		bne	.L204
1510:.\Generated_Source\PSoC4/CyLFClk.c ****                 CySysWdtResetCounters(CY_SYS_WDT_COUNTER0_RESET);
 1700              		.loc 1 1510 0
 1701 0018 0820     		mov	r0, #8
 1702 001a FFF7FEFF 		bl	CySysWdtResetCounters
 1703              	.LVL144:
 1704              	.L213:
1511:.\Generated_Source\PSoC4/CyLFClk.c ****                 CySysWdtClearInterrupt(CY_SYS_WDT_COUNTER0_MASK);
 1705              		.loc 1 1511 0
 1706 001e 0120     		mov	r0, #1
 1707 0020 10E0     		b	.L211
 1708              	.LVL145:
 1709              	.L205:
1518:.\Generated_Source\PSoC4/CyLFClk.c ****         else if(counterNum == CY_SYS_WDT_COUNTER1)
 1710              		.loc 1 1518 0
 1711 0022 0128     		cmp	r0, #1
 1712 0024 10D1     		bne	.L204
1520:.\Generated_Source\PSoC4/CyLFClk.c ****             if(CY_SYS_WDT_MODE_INT_RESET == CySysWdtGetMode(counterNum))
 1713              		.loc 1 1520 0
 1714 0026 FFF7FEFF 		bl	CySysWdtGetMode
 1715              	.LVL146:
 1716 002a 0328     		cmp	r0, #3
 1717 002c 08D0     		beq	.L212
1524:.\Generated_Source\PSoC4/CyLFClk.c ****             else if(CY_SYS_WDT_MODE_RESET == CySysWdtGetMode(counterNum))
 1718              		.loc 1 1524 0
 1719 002e 201C     		mov	r0, r4
 1720 0030 FFF7FEFF 		bl	CySysWdtGetMode
 1721              	.LVL147:
 1722 0034 0228     		cmp	r0, #2
 1723 0036 07D1     		bne	.L204
1526:.\Generated_Source\PSoC4/CyLFClk.c ****                 CySysWdtResetCounters(CY_SYS_WDT_COUNTER1_RESET);
 1724              		.loc 1 1526 0
 1725 0038 8020     		mov	r0, #128
 1726 003a 0001     		lsl	r0, r0, #4
 1727 003c FFF7FEFF 		bl	CySysWdtResetCounters
 1728              	.LVL148:
 1729              	.L212:
1527:.\Generated_Source\PSoC4/CyLFClk.c ****                 CySysWdtClearInterrupt(CY_SYS_WDT_COUNTER1_MASK);
 1730              		.loc 1 1527 0
 1731 0040 8020     		mov	r0, #128
 1732 0042 4000     		lsl	r0, r0, #1
 1733              	.L211:
 1734 0044 FFF7FEFF 		bl	CySysWdtClearInterrupt
 1735              	.LVL149:
 1736              	.L204:
1538:.\Generated_Source\PSoC4/CyLFClk.c ****     }
 1737              		.loc 1 1538 0
 1738              		@ sp needed
 1739              	.LVL150:
 1740 0048 10BD     		pop	{r4, pc}
 1741              		.cfi_endproc
 1742              	.LFE30:
 1743              		.size	CySysWatchdogFeed, .-CySysWatchdogFeed
ARM GAS  C:\Users\SDEVAS~1\AppData\Local\Temp\cchvSIah.s 			page 63


 1744              		.section	.rodata
 1745              		.align	2
 1746              		.set	.LANCHOR1,. + 0
 1747              		.type	counterIntMaskTbl, %object
 1748              		.size	counterIntMaskTbl, 12
 1749              	counterIntMaskTbl:
 1750 0000 04000000 		.word	4
 1751 0004 00040000 		.word	1024
 1752 0008 00000400 		.word	262144
 1753              		.data
 1754              		.align	2
 1755              		.set	.LANCHOR2,. + 0
 1756              		.type	wdtIsrMask, %object
 1757              		.size	wdtIsrMask, 4
 1758              	wdtIsrMask:
 1759 0000 04040400 		.word	263172
 1760              		.bss
 1761              		.align	2
 1762              		.set	.LANCHOR0,. + 0
 1763              		.type	lfclkPosedgeEnabledWdtCounter.4839, %object
 1764              		.size	lfclkPosedgeEnabledWdtCounter.4839, 4
 1765              	lfclkPosedgeEnabledWdtCounter.4839:
 1766 0000 00000000 		.space	4
 1767              		.type	lfclkPosedgeWdtCounter0Enabled, %object
 1768              		.size	lfclkPosedgeWdtCounter0Enabled, 4
 1769              	lfclkPosedgeWdtCounter0Enabled:
 1770 0004 00000000 		.space	4
 1771              		.type	lfclkPosedgeWdtCounter0Mode, %object
 1772              		.size	lfclkPosedgeWdtCounter0Mode, 4
 1773              	lfclkPosedgeWdtCounter0Mode:
 1774 0008 00000000 		.space	4
 1775              		.type	cySysWdtCallback, %object
 1776              		.size	cySysWdtCallback, 12
 1777              	cySysWdtCallback:
 1778 000c 00000000 		.space	12
 1778      00000000 
 1778      00000000 
 1779              		.type	disableServicedIsr, %object
 1780              		.size	disableServicedIsr, 4
 1781              	disableServicedIsr:
 1782 0018 00000000 		.space	4
 1783              		.text
 1784              	.Letext0:
 1785              		.file 2 ".\\Generated_Source\\PSoC4\\cytypes.h"
 1786              		.file 3 ".\\Generated_Source\\PSoC4\\CyLFClk.h"
 1787              		.file 4 ".\\Generated_Source\\PSoC4\\CyLib.h"
 1788              		.section	.debug_info,"",%progbits
 1789              	.Ldebug_info0:
 1790 0000 350C0000 		.4byte	0xc35
 1791 0004 0400     		.2byte	0x4
 1792 0006 00000000 		.4byte	.Ldebug_abbrev0
 1793 000a 04       		.byte	0x4
 1794 000b 01       		.uleb128 0x1
 1795 000c F7040000 		.4byte	.LASF80
 1796 0010 01       		.byte	0x1
 1797 0011 57030000 		.4byte	.LASF81
 1798 0015 71000000 		.4byte	.LASF82
ARM GAS  C:\Users\SDEVAS~1\AppData\Local\Temp\cchvSIah.s 			page 64


 1799 0019 B0000000 		.4byte	.Ldebug_ranges0+0xb0
 1800 001d 00000000 		.4byte	0
 1801 0021 00000000 		.4byte	.Ldebug_line0
 1802 0025 02       		.uleb128 0x2
 1803 0026 01       		.byte	0x1
 1804 0027 06       		.byte	0x6
 1805 0028 24010000 		.4byte	.LASF0
 1806 002c 02       		.uleb128 0x2
 1807 002d 01       		.byte	0x1
 1808 002e 08       		.byte	0x8
 1809 002f 3E040000 		.4byte	.LASF1
 1810 0033 02       		.uleb128 0x2
 1811 0034 02       		.byte	0x2
 1812 0035 05       		.byte	0x5
 1813 0036 70040000 		.4byte	.LASF2
 1814 003a 02       		.uleb128 0x2
 1815 003b 02       		.byte	0x2
 1816 003c 07       		.byte	0x7
 1817 003d DC020000 		.4byte	.LASF3
 1818 0041 02       		.uleb128 0x2
 1819 0042 04       		.byte	0x4
 1820 0043 05       		.byte	0x5
 1821 0044 7F010000 		.4byte	.LASF4
 1822 0048 02       		.uleb128 0x2
 1823 0049 04       		.byte	0x4
 1824 004a 07       		.byte	0x7
 1825 004b 7B020000 		.4byte	.LASF5
 1826 004f 02       		.uleb128 0x2
 1827 0050 08       		.byte	0x8
 1828 0051 05       		.byte	0x5
 1829 0052 16010000 		.4byte	.LASF6
 1830 0056 02       		.uleb128 0x2
 1831 0057 08       		.byte	0x8
 1832 0058 07       		.byte	0x7
 1833 0059 FF000000 		.4byte	.LASF7
 1834 005d 03       		.uleb128 0x3
 1835 005e 04       		.byte	0x4
 1836 005f 05       		.byte	0x5
 1837 0060 696E7400 		.ascii	"int\000"
 1838 0064 02       		.uleb128 0x2
 1839 0065 04       		.byte	0x4
 1840 0066 07       		.byte	0x7
 1841 0067 57020000 		.4byte	.LASF8
 1842 006b 04       		.uleb128 0x4
 1843 006c 91010000 		.4byte	.LASF9
 1844 0070 02       		.byte	0x2
 1845 0071 B3       		.byte	0xb3
 1846 0072 2C000000 		.4byte	0x2c
 1847 0076 04       		.uleb128 0x4
 1848 0077 00000000 		.4byte	.LASF10
 1849 007b 02       		.byte	0x2
 1850 007c B4       		.byte	0xb4
 1851 007d 3A000000 		.4byte	0x3a
 1852 0081 04       		.uleb128 0x4
 1853 0082 C2010000 		.4byte	.LASF11
 1854 0086 02       		.byte	0x2
 1855 0087 B5       		.byte	0xb5
ARM GAS  C:\Users\SDEVAS~1\AppData\Local\Temp\cchvSIah.s 			page 65


 1856 0088 48000000 		.4byte	0x48
 1857 008c 02       		.uleb128 0x2
 1858 008d 04       		.byte	0x4
 1859 008e 04       		.byte	0x4
 1860 008f FF030000 		.4byte	.LASF12
 1861 0093 02       		.uleb128 0x2
 1862 0094 08       		.byte	0x8
 1863 0095 04       		.byte	0x4
 1864 0096 9E010000 		.4byte	.LASF13
 1865 009a 02       		.uleb128 0x2
 1866 009b 01       		.byte	0x1
 1867 009c 08       		.byte	0x8
 1868 009d DC040000 		.4byte	.LASF14
 1869 00a1 05       		.uleb128 0x5
 1870 00a2 7A030000 		.4byte	.LASF15
 1871 00a6 02       		.byte	0x2
 1872 00a7 5F01     		.2byte	0x15f
 1873 00a9 AD000000 		.4byte	0xad
 1874 00ad 06       		.uleb128 0x6
 1875 00ae 81000000 		.4byte	0x81
 1876 00b2 07       		.uleb128 0x7
 1877 00b3 04       		.byte	0x4
 1878 00b4 B8000000 		.4byte	0xb8
 1879 00b8 08       		.uleb128 0x8
 1880 00b9 09       		.uleb128 0x9
 1881 00ba 01       		.byte	0x1
 1882 00bb 03       		.byte	0x3
 1883 00bc 16       		.byte	0x16
 1884 00bd CE000000 		.4byte	0xce
 1885 00c1 0A       		.uleb128 0xa
 1886 00c2 C0030000 		.4byte	.LASF16
 1887 00c6 00       		.sleb128 0
 1888 00c7 0A       		.uleb128 0xa
 1889 00c8 1A060000 		.4byte	.LASF17
 1890 00cc 01       		.sleb128 1
 1891 00cd 00       		.byte	0
 1892 00ce 04       		.uleb128 0x4
 1893 00cf 5E010000 		.4byte	.LASF18
 1894 00d3 03       		.byte	0x3
 1895 00d4 19       		.byte	0x19
 1896 00d5 B9000000 		.4byte	0xb9
 1897 00d9 04       		.uleb128 0x4
 1898 00da 46010000 		.4byte	.LASF19
 1899 00de 03       		.byte	0x3
 1900 00df 2D       		.byte	0x2d
 1901 00e0 B2000000 		.4byte	0xb2
 1902 00e4 02       		.uleb128 0x2
 1903 00e5 04       		.byte	0x4
 1904 00e6 07       		.byte	0x7
 1905 00e7 A0030000 		.4byte	.LASF20
 1906 00eb 0B       		.uleb128 0xb
 1907 00ec 40000000 		.4byte	.LASF78
 1908 00f0 01       		.byte	0x1
 1909 00f1 1102     		.2byte	0x211
 1910 00f3 01       		.byte	0x1
 1911 00f4 1D010000 		.4byte	0x11d
 1912 00f8 0C       		.uleb128 0xc
ARM GAS  C:\Users\SDEVAS~1\AppData\Local\Temp\cchvSIah.s 			page 66


 1913 00f9 A8000000 		.4byte	.LASF21
 1914 00fd 01       		.byte	0x1
 1915 00fe 1102     		.2byte	0x211
 1916 0100 81000000 		.4byte	0x81
 1917 0104 0C       		.uleb128 0xc
 1918 0105 E1040000 		.4byte	.LASF22
 1919 0109 01       		.byte	0x1
 1920 010a 1102     		.2byte	0x211
 1921 010c 81000000 		.4byte	0x81
 1922 0110 0D       		.uleb128 0xd
 1923 0111 C1050000 		.4byte	.LASF30
 1924 0115 01       		.byte	0x1
 1925 0116 1302     		.2byte	0x213
 1926 0118 81000000 		.4byte	0x81
 1927 011c 00       		.byte	0
 1928 011d 0E       		.uleb128 0xe
 1929 011e 31030000 		.4byte	.LASF83
 1930 0122 01       		.byte	0x1
 1931 0123 41       		.byte	0x41
 1932 0124 00000000 		.4byte	.LFB0
 1933 0128 14000000 		.4byte	.LFE0-.LFB0
 1934 012c 01       		.uleb128 0x1
 1935 012d 9C       		.byte	0x9c
 1936 012e 0F       		.uleb128 0xf
 1937 012f 39010000 		.4byte	.LASF23
 1938 0133 01       		.byte	0x1
 1939 0134 9801     		.2byte	0x198
 1940 0136 00000000 		.4byte	.LFB3
 1941 013a 1C000000 		.4byte	.LFE3-.LFB3
 1942 013e 01       		.uleb128 0x1
 1943 013f 9C       		.byte	0x9c
 1944 0140 67010000 		.4byte	0x167
 1945 0144 10       		.uleb128 0x10
 1946 0145 8D020000 		.4byte	.LASF25
 1947 0149 01       		.byte	0x1
 1948 014a 9A01     		.2byte	0x19a
 1949 014c 6B000000 		.4byte	0x6b
 1950 0150 00000000 		.4byte	.LLST0
 1951 0154 11       		.uleb128 0x11
 1952 0155 06000000 		.4byte	.LVL0
 1953 0159 0F0C0000 		.4byte	0xc0f
 1954 015d 11       		.uleb128 0x11
 1955 015e 16000000 		.4byte	.LVL1
 1956 0162 1A0C0000 		.4byte	0xc1a
 1957 0166 00       		.byte	0
 1958 0167 0F       		.uleb128 0xf
 1959 0168 50000000 		.4byte	.LASF24
 1960 016c 01       		.byte	0x1
 1961 016d C701     		.2byte	0x1c7
 1962 016f 00000000 		.4byte	.LFB5
 1963 0173 30000000 		.4byte	.LFE5-.LFB5
 1964 0177 01       		.uleb128 0x1
 1965 0178 9C       		.byte	0x9c
 1966 0179 A0010000 		.4byte	0x1a0
 1967 017d 10       		.uleb128 0x10
 1968 017e 8D020000 		.4byte	.LASF25
 1969 0182 01       		.byte	0x1
ARM GAS  C:\Users\SDEVAS~1\AppData\Local\Temp\cchvSIah.s 			page 67


 1970 0183 C901     		.2byte	0x1c9
 1971 0185 6B000000 		.4byte	0x6b
 1972 0189 13000000 		.4byte	.LLST1
 1973 018d 11       		.uleb128 0x11
 1974 018e 06000000 		.4byte	.LVL2
 1975 0192 0F0C0000 		.4byte	0xc0f
 1976 0196 11       		.uleb128 0x11
 1977 0197 26000000 		.4byte	.LVL3
 1978 019b 1A0C0000 		.4byte	0xc1a
 1979 019f 00       		.byte	0
 1980 01a0 12       		.uleb128 0x12
 1981 01a1 EF020000 		.4byte	.LASF26
 1982 01a5 01       		.byte	0x1
 1983 01a6 ED01     		.2byte	0x1ed
 1984 01a8 81000000 		.4byte	0x81
 1985 01ac 01       		.byte	0x1
 1986 01ad BE010000 		.4byte	0x1be
 1987 01b1 0C       		.uleb128 0xc
 1988 01b2 A8000000 		.4byte	.LASF21
 1989 01b6 01       		.byte	0x1
 1990 01b7 ED01     		.2byte	0x1ed
 1991 01b9 81000000 		.4byte	0x81
 1992 01bd 00       		.byte	0
 1993 01be 13       		.uleb128 0x13
 1994 01bf A0010000 		.4byte	0x1a0
 1995 01c3 00000000 		.4byte	.LFB6
 1996 01c7 18000000 		.4byte	.LFE6-.LFB6
 1997 01cb 01       		.uleb128 0x1
 1998 01cc 9C       		.byte	0x9c
 1999 01cd DB010000 		.4byte	0x1db
 2000 01d1 14       		.uleb128 0x14
 2001 01d2 B1010000 		.4byte	0x1b1
 2002 01d6 26000000 		.4byte	.LLST2
 2003 01da 00       		.byte	0
 2004 01db 13       		.uleb128 0x13
 2005 01dc EB000000 		.4byte	0xeb
 2006 01e0 00000000 		.4byte	.LFB7
 2007 01e4 2C000000 		.4byte	.LFE7-.LFB7
 2008 01e8 01       		.uleb128 0x1
 2009 01e9 9C       		.byte	0x9c
 2010 01ea 49020000 		.4byte	0x249
 2011 01ee 14       		.uleb128 0x14
 2012 01ef F8000000 		.4byte	0xf8
 2013 01f3 47000000 		.4byte	.LLST3
 2014 01f7 14       		.uleb128 0x14
 2015 01f8 04010000 		.4byte	0x104
 2016 01fc 73000000 		.4byte	.LLST4
 2017 0200 15       		.uleb128 0x15
 2018 0201 10010000 		.4byte	0x110
 2019 0205 16       		.uleb128 0x16
 2020 0206 0E000000 		.4byte	.LBB4
 2021 020a 18000000 		.4byte	.LBE4-.LBB4
 2022 020e 38020000 		.4byte	0x238
 2023 0212 14       		.uleb128 0x14
 2024 0213 04010000 		.4byte	0x104
 2025 0217 9F000000 		.4byte	.LLST5
 2026 021b 14       		.uleb128 0x14
ARM GAS  C:\Users\SDEVAS~1\AppData\Local\Temp\cchvSIah.s 			page 68


 2027 021c F8000000 		.4byte	0xf8
 2028 0220 C0000000 		.4byte	.LLST6
 2029 0224 17       		.uleb128 0x17
 2030 0225 0E000000 		.4byte	.LBB5
 2031 0229 18000000 		.4byte	.LBE5-.LBB5
 2032 022d 18       		.uleb128 0x18
 2033 022e 10010000 		.4byte	0x110
 2034 0232 E1000000 		.4byte	.LLST7
 2035 0236 00       		.byte	0
 2036 0237 00       		.byte	0
 2037 0238 19       		.uleb128 0x19
 2038 0239 0A000000 		.4byte	.LVL7
 2039 023d A0010000 		.4byte	0x1a0
 2040 0241 1A       		.uleb128 0x1a
 2041 0242 01       		.uleb128 0x1
 2042 0243 50       		.byte	0x50
 2043 0244 02       		.uleb128 0x2
 2044 0245 74       		.byte	0x74
 2045 0246 00       		.sleb128 0
 2046 0247 00       		.byte	0
 2047 0248 00       		.byte	0
 2048 0249 12       		.uleb128 0x12
 2049 024a B1050000 		.4byte	.LASF27
 2050 024e 01       		.byte	0x1
 2051 024f 3002     		.2byte	0x230
 2052 0251 81000000 		.4byte	0x81
 2053 0255 01       		.byte	0x1
 2054 0256 67020000 		.4byte	0x267
 2055 025a 0C       		.uleb128 0xc
 2056 025b A8000000 		.4byte	.LASF21
 2057 025f 01       		.byte	0x1
 2058 0260 3002     		.2byte	0x230
 2059 0262 81000000 		.4byte	0x81
 2060 0266 00       		.byte	0
 2061 0267 13       		.uleb128 0x13
 2062 0268 49020000 		.4byte	0x249
 2063 026c 00000000 		.4byte	.LFB8
 2064 0270 14000000 		.4byte	.LFE8-.LFB8
 2065 0274 01       		.uleb128 0x1
 2066 0275 9C       		.byte	0x9c
 2067 0276 84020000 		.4byte	0x284
 2068 027a 14       		.uleb128 0x14
 2069 027b 5A020000 		.4byte	0x25a
 2070 027f FF000000 		.4byte	.LLST8
 2071 0283 00       		.byte	0
 2072 0284 0F       		.uleb128 0xf
 2073 0285 86050000 		.4byte	.LASF28
 2074 0289 01       		.byte	0x1
 2075 028a 5102     		.2byte	0x251
 2076 028c 00000000 		.4byte	.LFB9
 2077 0290 2C000000 		.4byte	.LFE9-.LFB9
 2078 0294 01       		.uleb128 0x1
 2079 0295 9C       		.byte	0x9c
 2080 0296 DB020000 		.4byte	0x2db
 2081 029a 1B       		.uleb128 0x1b
 2082 029b A8000000 		.4byte	.LASF21
 2083 029f 01       		.byte	0x1
ARM GAS  C:\Users\SDEVAS~1\AppData\Local\Temp\cchvSIah.s 			page 69


 2084 02a0 5102     		.2byte	0x251
 2085 02a2 81000000 		.4byte	0x81
 2086 02a6 20010000 		.4byte	.LLST9
 2087 02aa 1B       		.uleb128 0x1b
 2088 02ab 97010000 		.4byte	.LASF29
 2089 02af 01       		.byte	0x1
 2090 02b0 5102     		.2byte	0x251
 2091 02b2 81000000 		.4byte	0x81
 2092 02b6 4C010000 		.4byte	.LLST10
 2093 02ba 10       		.uleb128 0x10
 2094 02bb C1050000 		.4byte	.LASF30
 2095 02bf 01       		.byte	0x1
 2096 02c0 5302     		.2byte	0x253
 2097 02c2 81000000 		.4byte	0x81
 2098 02c6 78010000 		.4byte	.LLST11
 2099 02ca 19       		.uleb128 0x19
 2100 02cb 0A000000 		.4byte	.LVL17
 2101 02cf A0010000 		.4byte	0x1a0
 2102 02d3 1A       		.uleb128 0x1a
 2103 02d4 01       		.uleb128 0x1
 2104 02d5 50       		.byte	0x50
 2105 02d6 02       		.uleb128 0x2
 2106 02d7 74       		.byte	0x74
 2107 02d8 00       		.sleb128 0
 2108 02d9 00       		.byte	0
 2109 02da 00       		.byte	0
 2110 02db 1C       		.uleb128 0x1c
 2111 02dc 3F020000 		.4byte	.LASF44
 2112 02e0 01       		.byte	0x1
 2113 02e1 7402     		.2byte	0x274
 2114 02e3 81000000 		.4byte	0x81
 2115 02e7 00000000 		.4byte	.LFB10
 2116 02eb 18000000 		.4byte	.LFE10-.LFB10
 2117 02ef 01       		.uleb128 0x1
 2118 02f0 9C       		.byte	0x9c
 2119 02f1 06030000 		.4byte	0x306
 2120 02f5 1B       		.uleb128 0x1b
 2121 02f6 A8000000 		.4byte	.LASF21
 2122 02fa 01       		.byte	0x1
 2123 02fb 7402     		.2byte	0x274
 2124 02fd 81000000 		.4byte	0x81
 2125 0301 96010000 		.4byte	.LLST12
 2126 0305 00       		.byte	0
 2127 0306 0F       		.uleb128 0xf
 2128 0307 07020000 		.4byte	.LASF31
 2129 030b 01       		.byte	0x1
 2130 030c A202     		.2byte	0x2a2
 2131 030e 00000000 		.4byte	.LFB11
 2132 0312 34000000 		.4byte	.LFE11-.LFB11
 2133 0316 01       		.uleb128 0x1
 2134 0317 9C       		.byte	0x9c
 2135 0318 90030000 		.4byte	0x390
 2136 031c 1B       		.uleb128 0x1b
 2137 031d 33020000 		.4byte	.LASF32
 2138 0321 01       		.byte	0x1
 2139 0322 A202     		.2byte	0x2a2
 2140 0324 81000000 		.4byte	0x81
ARM GAS  C:\Users\SDEVAS~1\AppData\Local\Temp\cchvSIah.s 			page 70


 2141 0328 B7010000 		.4byte	.LLST13
 2142 032c 1D       		.uleb128 0x1d
 2143 032d A0010000 		.4byte	0x1a0
 2144 0331 14000000 		.4byte	.LBB12
 2145 0335 02000000 		.4byte	.LBE12-.LBB12
 2146 0339 01       		.byte	0x1
 2147 033a AC02     		.2byte	0x2ac
 2148 033c 4A030000 		.4byte	0x34a
 2149 0340 14       		.uleb128 0x14
 2150 0341 B1010000 		.4byte	0x1b1
 2151 0345 E3010000 		.4byte	.LLST14
 2152 0349 00       		.byte	0
 2153 034a 1D       		.uleb128 0x1d
 2154 034b A0010000 		.4byte	0x1a0
 2155 034f 1E000000 		.4byte	.LBB14
 2156 0353 02000000 		.4byte	.LBE14-.LBB14
 2157 0357 01       		.byte	0x1
 2158 0358 B402     		.2byte	0x2b4
 2159 035a 68030000 		.4byte	0x368
 2160 035e 14       		.uleb128 0x14
 2161 035f B1010000 		.4byte	0x1b1
 2162 0363 F7010000 		.4byte	.LLST15
 2163 0367 00       		.byte	0
 2164 0368 1D       		.uleb128 0x1d
 2165 0369 A0010000 		.4byte	0x1a0
 2166 036d 28000000 		.4byte	.LBB16
 2167 0371 02000000 		.4byte	.LBE16-.LBB16
 2168 0375 01       		.byte	0x1
 2169 0376 BC02     		.2byte	0x2bc
 2170 0378 86030000 		.4byte	0x386
 2171 037c 14       		.uleb128 0x14
 2172 037d B1010000 		.4byte	0x1b1
 2173 0381 0B020000 		.4byte	.LLST16
 2174 0385 00       		.byte	0
 2175 0386 11       		.uleb128 0x11
 2176 0387 08000000 		.4byte	.LVL26
 2177 038b 1D010000 		.4byte	0x11d
 2178 038f 00       		.byte	0
 2179 0390 1E       		.uleb128 0x1e
 2180 0391 2F040000 		.4byte	.LASF47
 2181 0395 01       		.byte	0x1
 2182 0396 B201     		.2byte	0x1b2
 2183 0398 81000000 		.4byte	0x81
 2184 039c 01       		.byte	0x1
 2185 039d 0F       		.uleb128 0xf
 2186 039e 84040000 		.4byte	.LASF33
 2187 03a2 01       		.byte	0x1
 2188 03a3 D702     		.2byte	0x2d7
 2189 03a5 00000000 		.4byte	.LFB12
 2190 03a9 3C000000 		.4byte	.LFE12-.LFB12
 2191 03ad 01       		.uleb128 0x1
 2192 03ae 9C       		.byte	0x9c
 2193 03af 28040000 		.4byte	0x428
 2194 03b3 1F       		.uleb128 0x1f
 2195 03b4 33020000 		.4byte	.LASF32
 2196 03b8 01       		.byte	0x1
 2197 03b9 D702     		.2byte	0x2d7
ARM GAS  C:\Users\SDEVAS~1\AppData\Local\Temp\cchvSIah.s 			page 71


 2198 03bb 81000000 		.4byte	0x81
 2199 03bf 01       		.uleb128 0x1
 2200 03c0 50       		.byte	0x50
 2201 03c1 20       		.uleb128 0x20
 2202 03c2 90030000 		.4byte	0x390
 2203 03c6 00000000 		.4byte	.LBB26
 2204 03ca 0C000000 		.4byte	.LBE26-.LBB26
 2205 03ce 01       		.byte	0x1
 2206 03cf D902     		.2byte	0x2d9
 2207 03d1 1D       		.uleb128 0x1d
 2208 03d2 A0010000 		.4byte	0x1a0
 2209 03d6 18000000 		.4byte	.LBB28
 2210 03da 02000000 		.4byte	.LBE28-.LBB28
 2211 03de 01       		.byte	0x1
 2212 03df DF02     		.2byte	0x2df
 2213 03e1 EF030000 		.4byte	0x3ef
 2214 03e5 14       		.uleb128 0x14
 2215 03e6 B1010000 		.4byte	0x1b1
 2216 03ea 1F020000 		.4byte	.LLST17
 2217 03ee 00       		.byte	0
 2218 03ef 1D       		.uleb128 0x1d
 2219 03f0 A0010000 		.4byte	0x1a0
 2220 03f4 22000000 		.4byte	.LBB30
 2221 03f8 02000000 		.4byte	.LBE30-.LBB30
 2222 03fc 01       		.byte	0x1
 2223 03fd E702     		.2byte	0x2e7
 2224 03ff 0D040000 		.4byte	0x40d
 2225 0403 14       		.uleb128 0x14
 2226 0404 B1010000 		.4byte	0x1b1
 2227 0408 33020000 		.4byte	.LLST18
 2228 040c 00       		.byte	0
 2229 040d 21       		.uleb128 0x21
 2230 040e A0010000 		.4byte	0x1a0
 2231 0412 2C000000 		.4byte	.LBB32
 2232 0416 02000000 		.4byte	.LBE32-.LBB32
 2233 041a 01       		.byte	0x1
 2234 041b EF02     		.2byte	0x2ef
 2235 041d 14       		.uleb128 0x14
 2236 041e B1010000 		.4byte	0x1b1
 2237 0422 47020000 		.4byte	.LLST19
 2238 0426 00       		.byte	0
 2239 0427 00       		.byte	0
 2240 0428 0F       		.uleb128 0xf
 2241 0429 9E050000 		.4byte	.LASF34
 2242 042d 01       		.byte	0x1
 2243 042e 1903     		.2byte	0x319
 2244 0430 00000000 		.4byte	.LFB13
 2245 0434 34000000 		.4byte	.LFE13-.LFB13
 2246 0438 01       		.uleb128 0x1
 2247 0439 9C       		.byte	0x9c
 2248 043a BC040000 		.4byte	0x4bc
 2249 043e 1B       		.uleb128 0x1b
 2250 043f F9050000 		.4byte	.LASF35
 2251 0443 01       		.byte	0x1
 2252 0444 1903     		.2byte	0x319
 2253 0446 81000000 		.4byte	0x81
 2254 044a 5B020000 		.4byte	.LLST20
ARM GAS  C:\Users\SDEVAS~1\AppData\Local\Temp\cchvSIah.s 			page 72


 2255 044e 10       		.uleb128 0x10
 2256 044f C1050000 		.4byte	.LASF30
 2257 0453 01       		.byte	0x1
 2258 0454 1B03     		.2byte	0x31b
 2259 0456 81000000 		.4byte	0x81
 2260 045a 7C020000 		.4byte	.LLST21
 2261 045e 10       		.uleb128 0x10
 2262 045f E7010000 		.4byte	.LASF36
 2263 0463 01       		.byte	0x1
 2264 0464 1C03     		.2byte	0x31c
 2265 0466 81000000 		.4byte	0x81
 2266 046a A5020000 		.4byte	.LLST22
 2267 046e 22       		.uleb128 0x22
 2268 046f A0010000 		.4byte	0x1a0
 2269 0473 00000000 		.4byte	.LBB40
 2270 0477 00000000 		.4byte	.Ldebug_ranges0+0
 2271 047b 01       		.byte	0x1
 2272 047c 1E03     		.2byte	0x31e
 2273 047e 89040000 		.4byte	0x489
 2274 0482 23       		.uleb128 0x23
 2275 0483 B1010000 		.4byte	0x1b1
 2276 0487 00       		.byte	0
 2277 0488 00       		.byte	0
 2278 0489 22       		.uleb128 0x22
 2279 048a A0010000 		.4byte	0x1a0
 2280 048e 06000000 		.4byte	.LBB45
 2281 0492 20000000 		.4byte	.Ldebug_ranges0+0x20
 2282 0496 01       		.byte	0x1
 2283 0497 1F03     		.2byte	0x31f
 2284 0499 A4040000 		.4byte	0x4a4
 2285 049d 23       		.uleb128 0x23
 2286 049e B1010000 		.4byte	0x1b1
 2287 04a2 01       		.byte	0x1
 2288 04a3 00       		.byte	0
 2289 04a4 24       		.uleb128 0x24
 2290 04a5 A0010000 		.4byte	0x1a0
 2291 04a9 08000000 		.4byte	.LBB48
 2292 04ad 38000000 		.4byte	.Ldebug_ranges0+0x38
 2293 04b1 01       		.byte	0x1
 2294 04b2 2003     		.2byte	0x320
 2295 04b4 23       		.uleb128 0x23
 2296 04b5 B1010000 		.4byte	0x1b1
 2297 04b9 02       		.byte	0x2
 2298 04ba 00       		.byte	0
 2299 04bb 00       		.byte	0
 2300 04bc 25       		.uleb128 0x25
 2301 04bd CD000000 		.4byte	.LASF42
 2302 04c1 01       		.byte	0x1
 2303 04c2 3E03     		.2byte	0x33e
 2304 04c4 81000000 		.4byte	0x81
 2305 04c8 00000000 		.4byte	.LFB14
 2306 04cc 14000000 		.4byte	.LFE14-.LFB14
 2307 04d0 01       		.uleb128 0x1
 2308 04d1 9C       		.byte	0x9c
 2309 04d2 0F       		.uleb128 0xf
 2310 04d3 D6010000 		.4byte	.LASF37
 2311 04d7 01       		.byte	0x1
ARM GAS  C:\Users\SDEVAS~1\AppData\Local\Temp\cchvSIah.s 			page 73


 2312 04d8 5703     		.2byte	0x357
 2313 04da 00000000 		.4byte	.LFB15
 2314 04de 30000000 		.4byte	.LFE15-.LFB15
 2315 04e2 01       		.uleb128 0x1
 2316 04e3 9C       		.byte	0x9c
 2317 04e4 3D050000 		.4byte	0x53d
 2318 04e8 1B       		.uleb128 0x1b
 2319 04e9 A8000000 		.4byte	.LASF21
 2320 04ed 01       		.byte	0x1
 2321 04ee 5703     		.2byte	0x357
 2322 04f0 81000000 		.4byte	0x81
 2323 04f4 C8020000 		.4byte	.LLST23
 2324 04f8 1B       		.uleb128 0x1b
 2325 04f9 BA030000 		.4byte	.LASF38
 2326 04fd 01       		.byte	0x1
 2327 04fe 5703     		.2byte	0x357
 2328 0500 81000000 		.4byte	0x81
 2329 0504 F4020000 		.4byte	.LLST24
 2330 0508 10       		.uleb128 0x10
 2331 0509 88010000 		.4byte	.LASF39
 2332 050d 01       		.byte	0x1
 2333 050e 5903     		.2byte	0x359
 2334 0510 81000000 		.4byte	0x81
 2335 0514 20030000 		.4byte	.LLST25
 2336 0518 26       		.uleb128 0x26
 2337 0519 0C000000 		.4byte	.LVL52
 2338 051d 2B0C0000 		.4byte	0xc2b
 2339 0521 2C050000 		.4byte	0x52c
 2340 0525 1A       		.uleb128 0x1a
 2341 0526 01       		.uleb128 0x1
 2342 0527 50       		.byte	0x50
 2343 0528 02       		.uleb128 0x2
 2344 0529 08       		.byte	0x8
 2345 052a C9       		.byte	0xc9
 2346 052b 00       		.byte	0
 2347 052c 19       		.uleb128 0x19
 2348 052d 26000000 		.4byte	.LVL56
 2349 0531 2B0C0000 		.4byte	0xc2b
 2350 0535 1A       		.uleb128 0x1a
 2351 0536 01       		.uleb128 0x1
 2352 0537 50       		.byte	0x50
 2353 0538 02       		.uleb128 0x2
 2354 0539 08       		.byte	0x8
 2355 053a 43       		.byte	0x43
 2356 053b 00       		.byte	0
 2357 053c 00       		.byte	0
 2358 053d 0F       		.uleb128 0xf
 2359 053e 42030000 		.4byte	.LASF40
 2360 0542 01       		.byte	0x1
 2361 0543 8303     		.2byte	0x383
 2362 0545 00000000 		.4byte	.LFB16
 2363 0549 28000000 		.4byte	.LFE16-.LFB16
 2364 054d 01       		.uleb128 0x1
 2365 054e 9C       		.byte	0x9c
 2366 054f 8B050000 		.4byte	0x58b
 2367 0553 1B       		.uleb128 0x1b
 2368 0554 7A010000 		.4byte	.LASF41
ARM GAS  C:\Users\SDEVAS~1\AppData\Local\Temp\cchvSIah.s 			page 74


 2369 0558 01       		.byte	0x1
 2370 0559 8303     		.2byte	0x383
 2371 055b 81000000 		.4byte	0x81
 2372 055f 48030000 		.4byte	.LLST26
 2373 0563 10       		.uleb128 0x10
 2374 0564 C1050000 		.4byte	.LASF30
 2375 0568 01       		.byte	0x1
 2376 0569 8503     		.2byte	0x385
 2377 056b 81000000 		.4byte	0x81
 2378 056f 69030000 		.4byte	.LLST27
 2379 0573 21       		.uleb128 0x21
 2380 0574 A0010000 		.4byte	0x1a0
 2381 0578 00000000 		.4byte	.LBB56
 2382 057c 04000000 		.4byte	.LBE56-.LBB56
 2383 0580 01       		.byte	0x1
 2384 0581 8703     		.2byte	0x387
 2385 0583 23       		.uleb128 0x23
 2386 0584 B1010000 		.4byte	0x1b1
 2387 0588 02       		.byte	0x2
 2388 0589 00       		.byte	0
 2389 058a 00       		.byte	0
 2390 058b 25       		.uleb128 0x25
 2391 058c 05060000 		.4byte	.LASF43
 2392 0590 01       		.byte	0x1
 2393 0591 9F03     		.2byte	0x39f
 2394 0593 81000000 		.4byte	0x81
 2395 0597 00000000 		.4byte	.LFB17
 2396 059b 10000000 		.4byte	.LFE17-.LFB17
 2397 059f 01       		.uleb128 0x1
 2398 05a0 9C       		.byte	0x9c
 2399 05a1 1C       		.uleb128 0x1c
 2400 05a2 A9030000 		.4byte	.LASF45
 2401 05a6 01       		.byte	0x1
 2402 05a7 B403     		.2byte	0x3b4
 2403 05a9 81000000 		.4byte	0x81
 2404 05ad 00000000 		.4byte	.LFB18
 2405 05b1 10000000 		.4byte	.LFE18-.LFB18
 2406 05b5 01       		.uleb128 0x1
 2407 05b6 9C       		.byte	0x9c
 2408 05b7 CC050000 		.4byte	0x5cc
 2409 05bb 1B       		.uleb128 0x1b
 2410 05bc A8000000 		.4byte	.LASF21
 2411 05c0 01       		.byte	0x1
 2412 05c1 B403     		.2byte	0x3b4
 2413 05c3 81000000 		.4byte	0x81
 2414 05c7 92030000 		.4byte	.LLST28
 2415 05cb 00       		.byte	0
 2416 05cc 1C       		.uleb128 0x1c
 2417 05cd E6040000 		.4byte	.LASF46
 2418 05d1 01       		.byte	0x1
 2419 05d2 CC03     		.2byte	0x3cc
 2420 05d4 81000000 		.4byte	0x81
 2421 05d8 00000000 		.4byte	.LFB19
 2422 05dc 30000000 		.4byte	.LFE19-.LFB19
 2423 05e0 01       		.uleb128 0x1
 2424 05e1 9C       		.byte	0x9c
 2425 05e2 07060000 		.4byte	0x607
ARM GAS  C:\Users\SDEVAS~1\AppData\Local\Temp\cchvSIah.s 			page 75


 2426 05e6 1B       		.uleb128 0x1b
 2427 05e7 A8000000 		.4byte	.LASF21
 2428 05eb 01       		.byte	0x1
 2429 05ec CC03     		.2byte	0x3cc
 2430 05ee 81000000 		.4byte	0x81
 2431 05f2 B3030000 		.4byte	.LLST29
 2432 05f6 10       		.uleb128 0x10
 2433 05f7 88010000 		.4byte	.LASF39
 2434 05fb 01       		.byte	0x1
 2435 05fc CE03     		.2byte	0x3ce
 2436 05fe 81000000 		.4byte	0x81
 2437 0602 1F040000 		.4byte	.LLST30
 2438 0606 00       		.byte	0
 2439 0607 27       		.uleb128 0x27
 2440 0608 94040000 		.4byte	.LASF48
 2441 060c 01       		.byte	0x1
 2442 060d 94       		.byte	0x94
 2443 060e 81000000 		.4byte	0x81
 2444 0612 01       		.byte	0x1
 2445 0613 28       		.uleb128 0x28
 2446 0614 B3000000 		.4byte	.LASF84
 2447 0618 01       		.byte	0x1
 2448 0619 2406     		.2byte	0x624
 2449 061b 01       		.byte	0x1
 2450 061c 39060000 		.4byte	0x639
 2451 0620 0D       		.uleb128 0xd
 2452 0621 64020000 		.4byte	.LASF49
 2453 0625 01       		.byte	0x1
 2454 0626 2606     		.2byte	0x626
 2455 0628 81000000 		.4byte	0x81
 2456 062c 0D       		.uleb128 0xd
 2457 062d 4C040000 		.4byte	.LASF50
 2458 0631 01       		.byte	0x1
 2459 0632 2706     		.2byte	0x627
 2460 0634 81000000 		.4byte	0x81
 2461 0638 00       		.byte	0
 2462 0639 29       		.uleb128 0x29
 2463 063a A7020000 		.4byte	.LASF85
 2464 063e 01       		.byte	0x1
 2465 063f 5F06     		.2byte	0x65f
 2466 0641 01       		.byte	0x1
 2467 0642 2A       		.uleb128 0x2a
 2468 0643 A5010000 		.4byte	.LASF51
 2469 0647 01       		.byte	0x1
 2470 0648 60       		.byte	0x60
 2471 0649 00000000 		.4byte	.LFB1
 2472 064d B8000000 		.4byte	.LFE1-.LFB1
 2473 0651 01       		.uleb128 0x1
 2474 0652 9C       		.byte	0x9c
 2475 0653 AA070000 		.4byte	0x7aa
 2476 0657 2B       		.uleb128 0x2b
 2477 0658 8D020000 		.4byte	.LASF25
 2478 065c 01       		.byte	0x1
 2479 065d 63       		.byte	0x63
 2480 065e 6B000000 		.4byte	0x6b
 2481 0662 83040000 		.4byte	.LLST31
 2482 0666 2C       		.uleb128 0x2c
ARM GAS  C:\Users\SDEVAS~1\AppData\Local\Temp\cchvSIah.s 			page 76


 2483 0667 90030000 		.4byte	0x390
 2484 066b 02000000 		.4byte	.LBB74
 2485 066f 0E000000 		.4byte	.LBE74-.LBB74
 2486 0673 01       		.byte	0x1
 2487 0674 66       		.byte	0x66
 2488 0675 2C       		.uleb128 0x2c
 2489 0676 07060000 		.4byte	0x607
 2490 067a 10000000 		.4byte	.LBB76
 2491 067e 08000000 		.4byte	.LBE76-.LBB76
 2492 0682 01       		.byte	0x1
 2493 0683 68       		.byte	0x68
 2494 0684 2D       		.uleb128 0x2d
 2495 0685 13060000 		.4byte	0x613
 2496 0689 1C000000 		.4byte	.LBB78
 2497 068d 50000000 		.4byte	.Ldebug_ranges0+0x50
 2498 0691 01       		.byte	0x1
 2499 0692 71       		.byte	0x71
 2500 0693 6B070000 		.4byte	0x76b
 2501 0697 2E       		.uleb128 0x2e
 2502 0698 50000000 		.4byte	.Ldebug_ranges0+0x50
 2503 069c 18       		.uleb128 0x18
 2504 069d 20060000 		.4byte	0x620
 2505 06a1 97040000 		.4byte	.LLST32
 2506 06a5 2F       		.uleb128 0x2f
 2507 06a6 2C060000 		.4byte	0x62c
 2508 06aa 05       		.uleb128 0x5
 2509 06ab 03       		.byte	0x3
 2510 06ac 00000000 		.4byte	lfclkPosedgeEnabledWdtCounter.4839
 2511 06b0 22       		.uleb128 0x22
 2512 06b1 A0010000 		.4byte	0x1a0
 2513 06b5 1C000000 		.4byte	.LBB80
 2514 06b9 68000000 		.4byte	.Ldebug_ranges0+0x68
 2515 06bd 01       		.byte	0x1
 2516 06be 2906     		.2byte	0x629
 2517 06c0 CE060000 		.4byte	0x6ce
 2518 06c4 14       		.uleb128 0x14
 2519 06c5 B1010000 		.4byte	0x1b1
 2520 06c9 AB040000 		.4byte	.LLST33
 2521 06cd 00       		.byte	0
 2522 06ce 1D       		.uleb128 0x1d
 2523 06cf A0010000 		.4byte	0x1a0
 2524 06d3 30000000 		.4byte	.LBB84
 2525 06d7 04000000 		.4byte	.LBE84-.LBB84
 2526 06db 01       		.byte	0x1
 2527 06dc 2D06     		.2byte	0x62d
 2528 06de EC060000 		.4byte	0x6ec
 2529 06e2 14       		.uleb128 0x14
 2530 06e3 B1010000 		.4byte	0x1b1
 2531 06e7 BF040000 		.4byte	.LLST34
 2532 06eb 00       		.byte	0
 2533 06ec 1D       		.uleb128 0x1d
 2534 06ed A0010000 		.4byte	0x1a0
 2535 06f1 3C000000 		.4byte	.LBB86
 2536 06f5 06000000 		.4byte	.LBE86-.LBB86
 2537 06f9 01       		.byte	0x1
 2538 06fa 3106     		.2byte	0x631
 2539 06fc 0A070000 		.4byte	0x70a
ARM GAS  C:\Users\SDEVAS~1\AppData\Local\Temp\cchvSIah.s 			page 77


 2540 0700 14       		.uleb128 0x14
 2541 0701 B1010000 		.4byte	0x1b1
 2542 0705 D3040000 		.4byte	.LLST35
 2543 0709 00       		.byte	0
 2544 070a 22       		.uleb128 0x22
 2545 070b 49020000 		.4byte	0x249
 2546 070f 4A000000 		.4byte	.LBB88
 2547 0713 80000000 		.4byte	.Ldebug_ranges0+0x80
 2548 0717 01       		.byte	0x1
 2549 0718 3B06     		.2byte	0x63b
 2550 071a 28070000 		.4byte	0x728
 2551 071e 14       		.uleb128 0x14
 2552 071f 5A020000 		.4byte	0x25a
 2553 0723 E7040000 		.4byte	.LLST36
 2554 0727 00       		.byte	0
 2555 0728 11       		.uleb128 0x11
 2556 0729 5E000000 		.4byte	.LVL81
 2557 072d EB000000 		.4byte	0xeb
 2558 0731 26       		.uleb128 0x26
 2559 0732 64000000 		.4byte	.LVL82
 2560 0736 06030000 		.4byte	0x306
 2561 073a 45070000 		.4byte	0x745
 2562 073e 1A       		.uleb128 0x1a
 2563 073f 01       		.uleb128 0x1
 2564 0740 50       		.byte	0x50
 2565 0741 02       		.uleb128 0x2
 2566 0742 75       		.byte	0x75
 2567 0743 00       		.sleb128 0
 2568 0744 00       		.byte	0
 2569 0745 26       		.uleb128 0x26
 2570 0746 6C000000 		.4byte	.LVL83
 2571 074a CC050000 		.4byte	0x5cc
 2572 074e 59070000 		.4byte	0x759
 2573 0752 1A       		.uleb128 0x1a
 2574 0753 01       		.uleb128 0x1
 2575 0754 50       		.byte	0x50
 2576 0755 02       		.uleb128 0x2
 2577 0756 75       		.byte	0x75
 2578 0757 00       		.sleb128 0
 2579 0758 00       		.byte	0
 2580 0759 19       		.uleb128 0x19
 2581 075a 74000000 		.4byte	.LVL85
 2582 075e CC050000 		.4byte	0x5cc
 2583 0762 1A       		.uleb128 0x1a
 2584 0763 01       		.uleb128 0x1
 2585 0764 50       		.byte	0x50
 2586 0765 02       		.uleb128 0x2
 2587 0766 75       		.byte	0x75
 2588 0767 00       		.sleb128 0
 2589 0768 00       		.byte	0
 2590 0769 00       		.byte	0
 2591 076a 00       		.byte	0
 2592 076b 30       		.uleb128 0x30
 2593 076c 39060000 		.4byte	0x639
 2594 0770 82000000 		.4byte	.LBB94
 2595 0774 1A000000 		.4byte	.LBE94-.LBB94
 2596 0778 01       		.byte	0x1
ARM GAS  C:\Users\SDEVAS~1\AppData\Local\Temp\cchvSIah.s 			page 78


 2597 0779 73       		.byte	0x73
 2598 077a 8E070000 		.4byte	0x78e
 2599 077e 19       		.uleb128 0x19
 2600 077f 98000000 		.4byte	.LVL86
 2601 0783 EB000000 		.4byte	0xeb
 2602 0787 1A       		.uleb128 0x1a
 2603 0788 01       		.uleb128 0x1
 2604 0789 50       		.byte	0x50
 2605 078a 01       		.uleb128 0x1
 2606 078b 30       		.byte	0x30
 2607 078c 00       		.byte	0
 2608 078d 00       		.byte	0
 2609 078e 11       		.uleb128 0x11
 2610 078f 1C000000 		.4byte	.LVL76
 2611 0793 0F0C0000 		.4byte	0xc0f
 2612 0797 19       		.uleb128 0x19
 2613 0798 A2000000 		.4byte	.LVL87
 2614 079c 1A0C0000 		.4byte	0xc1a
 2615 07a0 1A       		.uleb128 0x1a
 2616 07a1 01       		.uleb128 0x1
 2617 07a2 50       		.byte	0x50
 2618 07a3 04       		.uleb128 0x4
 2619 07a4 7D       		.byte	0x7d
 2620 07a5 04       		.sleb128 4
 2621 07a6 94       		.byte	0x94
 2622 07a7 01       		.byte	0x1
 2623 07a8 00       		.byte	0
 2624 07a9 00       		.byte	0
 2625 07aa 25       		.uleb128 0x25
 2626 07ab A7040000 		.4byte	.LASF52
 2627 07af 01       		.byte	0x1
 2628 07b0 FD03     		.2byte	0x3fd
 2629 07b2 81000000 		.4byte	0x81
 2630 07b6 00000000 		.4byte	.LFB20
 2631 07ba 14000000 		.4byte	.LFE20-.LFB20
 2632 07be 01       		.uleb128 0x1
 2633 07bf 9C       		.byte	0x9c
 2634 07c0 0F       		.uleb128 0xf
 2635 07c1 E8030000 		.4byte	.LASF53
 2636 07c5 01       		.byte	0x1
 2637 07c6 1F04     		.2byte	0x41f
 2638 07c8 00000000 		.4byte	.LFB21
 2639 07cc 50000000 		.4byte	.LFE21-.LFB21
 2640 07d0 01       		.uleb128 0x1
 2641 07d1 9C       		.byte	0x9c
 2642 07d2 46080000 		.4byte	0x846
 2643 07d6 1B       		.uleb128 0x1b
 2644 07d7 33020000 		.4byte	.LASF32
 2645 07db 01       		.byte	0x1
 2646 07dc 1F04     		.2byte	0x41f
 2647 07de 81000000 		.4byte	0x81
 2648 07e2 FB040000 		.4byte	.LLST37
 2649 07e6 10       		.uleb128 0x10
 2650 07e7 8D020000 		.4byte	.LASF25
 2651 07eb 01       		.byte	0x1
 2652 07ec 2104     		.2byte	0x421
 2653 07ee 6B000000 		.4byte	0x6b
ARM GAS  C:\Users\SDEVAS~1\AppData\Local\Temp\cchvSIah.s 			page 79


 2654 07f2 56050000 		.4byte	.LLST38
 2655 07f6 10       		.uleb128 0x10
 2656 07f7 D0050000 		.4byte	.LASF54
 2657 07fb 01       		.byte	0x1
 2658 07fc 2204     		.2byte	0x422
 2659 07fe 81000000 		.4byte	0x81
 2660 0802 8A050000 		.4byte	.LLST39
 2661 0806 31       		.uleb128 0x31
 2662 0807 90030000 		.4byte	0x390
 2663 080b 08000000 		.4byte	.LBB98
 2664 080f 98000000 		.4byte	.Ldebug_ranges0+0x98
 2665 0813 01       		.byte	0x1
 2666 0814 2604     		.2byte	0x426
 2667 0816 11       		.uleb128 0x11
 2668 0817 08000000 		.4byte	.LVL89
 2669 081b 0F0C0000 		.4byte	0xc0f
 2670 081f 11       		.uleb128 0x11
 2671 0820 30000000 		.4byte	.LVL95
 2672 0824 2E010000 		.4byte	0x12e
 2673 0828 26       		.uleb128 0x26
 2674 0829 36000000 		.4byte	.LVL96
 2675 082d 1A0C0000 		.4byte	0xc1a
 2676 0831 3C080000 		.4byte	0x83c
 2677 0835 1A       		.uleb128 0x1a
 2678 0836 01       		.uleb128 0x1
 2679 0837 50       		.byte	0x50
 2680 0838 02       		.uleb128 0x2
 2681 0839 75       		.byte	0x75
 2682 083a 00       		.sleb128 0
 2683 083b 00       		.byte	0
 2684 083c 11       		.uleb128 0x11
 2685 083d 3C000000 		.4byte	.LVL99
 2686 0841 67010000 		.4byte	0x167
 2687 0845 00       		.byte	0
 2688 0846 0F       		.uleb128 0xf
 2689 0847 D2030000 		.4byte	.LASF55
 2690 084b 01       		.byte	0x1
 2691 084c 5F04     		.2byte	0x45f
 2692 084e 00000000 		.4byte	.LFB22
 2693 0852 1C000000 		.4byte	.LFE22-.LFB22
 2694 0856 01       		.uleb128 0x1
 2695 0857 9C       		.byte	0x9c
 2696 0858 6D080000 		.4byte	0x86d
 2697 085c 1B       		.uleb128 0x1b
 2698 085d B5010000 		.4byte	.LASF56
 2699 0861 01       		.byte	0x1
 2700 0862 5F04     		.2byte	0x45f
 2701 0864 81000000 		.4byte	0x81
 2702 0868 B5050000 		.4byte	.LLST40
 2703 086c 00       		.byte	0
 2704 086d 1C       		.uleb128 0x1c
 2705 086e 16020000 		.4byte	.LASF57
 2706 0872 01       		.byte	0x1
 2707 0873 7C04     		.2byte	0x47c
 2708 0875 D9000000 		.4byte	0xd9
 2709 0879 00000000 		.4byte	.LFB23
 2710 087d 18000000 		.4byte	.LFE23-.LFB23
ARM GAS  C:\Users\SDEVAS~1\AppData\Local\Temp\cchvSIah.s 			page 80


 2711 0881 01       		.uleb128 0x1
 2712 0882 9C       		.byte	0x9c
 2713 0883 B6080000 		.4byte	0x8b6
 2714 0887 1B       		.uleb128 0x1b
 2715 0888 A8000000 		.4byte	.LASF21
 2716 088c 01       		.byte	0x1
 2717 088d 7C04     		.2byte	0x47c
 2718 088f 81000000 		.4byte	0x81
 2719 0893 D6050000 		.4byte	.LLST41
 2720 0897 1F       		.uleb128 0x1f
 2721 0898 30010000 		.4byte	.LASF58
 2722 089c 01       		.byte	0x1
 2723 089d 7C04     		.2byte	0x47c
 2724 089f D9000000 		.4byte	0xd9
 2725 08a3 01       		.uleb128 0x1
 2726 08a4 51       		.byte	0x51
 2727 08a5 10       		.uleb128 0x10
 2728 08a6 C9010000 		.4byte	.LASF59
 2729 08aa 01       		.byte	0x1
 2730 08ab 7E04     		.2byte	0x47e
 2731 08ad D9000000 		.4byte	0xd9
 2732 08b1 10060000 		.4byte	.LLST42
 2733 08b5 00       		.byte	0
 2734 08b6 1C       		.uleb128 0x1c
 2735 08b7 08030000 		.4byte	.LASF60
 2736 08bb 01       		.byte	0x1
 2737 08bc 9D04     		.2byte	0x49d
 2738 08be D9000000 		.4byte	0xd9
 2739 08c2 00000000 		.4byte	.LFB24
 2740 08c6 18000000 		.4byte	.LFE24-.LFB24
 2741 08ca 01       		.uleb128 0x1
 2742 08cb 9C       		.byte	0x9c
 2743 08cc F1080000 		.4byte	0x8f1
 2744 08d0 1B       		.uleb128 0x1b
 2745 08d1 A8000000 		.4byte	.LASF21
 2746 08d5 01       		.byte	0x1
 2747 08d6 9D04     		.2byte	0x49d
 2748 08d8 81000000 		.4byte	0x81
 2749 08dc 46060000 		.4byte	.LLST43
 2750 08e0 10       		.uleb128 0x10
 2751 08e1 6F020000 		.4byte	.LASF61
 2752 08e5 01       		.byte	0x1
 2753 08e6 9F04     		.2byte	0x49f
 2754 08e8 D9000000 		.4byte	0xd9
 2755 08ec 80060000 		.4byte	.LLST44
 2756 08f0 00       		.byte	0
 2757 08f1 0F       		.uleb128 0xf
 2758 08f2 C3020000 		.4byte	.LASF62
 2759 08f6 01       		.byte	0x1
 2760 08f7 B904     		.2byte	0x4b9
 2761 08f9 00000000 		.4byte	.LFB25
 2762 08fd 28000000 		.4byte	.LFE25-.LFB25
 2763 0901 01       		.uleb128 0x1
 2764 0902 9C       		.byte	0x9c
 2765 0903 18090000 		.4byte	0x918
 2766 0907 1B       		.uleb128 0x1b
 2767 0908 A8000000 		.4byte	.LASF21
ARM GAS  C:\Users\SDEVAS~1\AppData\Local\Temp\cchvSIah.s 			page 81


 2768 090c 01       		.byte	0x1
 2769 090d B904     		.2byte	0x4b9
 2770 090f 81000000 		.4byte	0x81
 2771 0913 B6060000 		.4byte	.LLST45
 2772 0917 00       		.byte	0
 2773 0918 0F       		.uleb128 0xf
 2774 0919 C2040000 		.4byte	.LASF63
 2775 091d 01       		.byte	0x1
 2776 091e D204     		.2byte	0x4d2
 2777 0920 00000000 		.4byte	.LFB26
 2778 0924 1C000000 		.4byte	.LFE26-.LFB26
 2779 0928 01       		.uleb128 0x1
 2780 0929 9C       		.byte	0x9c
 2781 092a 3F090000 		.4byte	0x93f
 2782 092e 1B       		.uleb128 0x1b
 2783 092f A8000000 		.4byte	.LASF21
 2784 0933 01       		.byte	0x1
 2785 0934 D204     		.2byte	0x4d2
 2786 0936 81000000 		.4byte	0x81
 2787 093a D7060000 		.4byte	.LLST46
 2788 093e 00       		.byte	0
 2789 093f 32       		.uleb128 0x32
 2790 0940 25030000 		.4byte	.LASF64
 2791 0944 01       		.byte	0x1
 2792 0945 F804     		.2byte	0x4f8
 2793 0947 00000000 		.4byte	.LFB27
 2794 094b A0000000 		.4byte	.LFE27-.LFB27
 2795 094f 01       		.uleb128 0x1
 2796 0950 9C       		.byte	0x9c
 2797 0951 8F090000 		.4byte	0x98f
 2798 0955 26       		.uleb128 0x26
 2799 0956 34000000 		.4byte	.LVL117
 2800 095a C0070000 		.4byte	0x7c0
 2801 095e 68090000 		.4byte	0x968
 2802 0962 1A       		.uleb128 0x1a
 2803 0963 01       		.uleb128 0x1
 2804 0964 50       		.byte	0x50
 2805 0965 01       		.uleb128 0x1
 2806 0966 34       		.byte	0x34
 2807 0967 00       		.byte	0
 2808 0968 26       		.uleb128 0x26
 2809 0969 6A000000 		.4byte	.LVL119
 2810 096d C0070000 		.4byte	0x7c0
 2811 0971 7D090000 		.4byte	0x97d
 2812 0975 1A       		.uleb128 0x1a
 2813 0976 01       		.uleb128 0x1
 2814 0977 50       		.byte	0x50
 2815 0978 03       		.uleb128 0x3
 2816 0979 0A       		.byte	0xa
 2817 097a 0004     		.2byte	0x400
 2818 097c 00       		.byte	0
 2819 097d 19       		.uleb128 0x19
 2820 097e 8E000000 		.4byte	.LVL121
 2821 0982 C0070000 		.4byte	0x7c0
 2822 0986 1A       		.uleb128 0x1a
 2823 0987 01       		.uleb128 0x1
 2824 0988 50       		.byte	0x50
ARM GAS  C:\Users\SDEVAS~1\AppData\Local\Temp\cchvSIah.s 			page 82


 2825 0989 03       		.uleb128 0x3
 2826 098a 40       		.byte	0x40
 2827 098b 3E       		.byte	0x3e
 2828 098c 24       		.byte	0x24
 2829 098d 00       		.byte	0
 2830 098e 00       		.byte	0
 2831 098f 0F       		.uleb128 0xf
 2832 0990 05040000 		.4byte	.LASF65
 2833 0994 01       		.byte	0x1
 2834 0995 A705     		.2byte	0x5a7
 2835 0997 00000000 		.4byte	.LFB29
 2836 099b 64000000 		.4byte	.LFE29-.LFB29
 2837 099f 01       		.uleb128 0x1
 2838 09a0 9C       		.byte	0x9c
 2839 09a1 380A0000 		.4byte	0xa38
 2840 09a5 1B       		.uleb128 0x1b
 2841 09a6 A8000000 		.4byte	.LASF21
 2842 09aa 01       		.byte	0x1
 2843 09ab A705     		.2byte	0x5a7
 2844 09ad 81000000 		.4byte	0x81
 2845 09b1 F8060000 		.4byte	.LLST47
 2846 09b5 1B       		.uleb128 0x1b
 2847 09b6 7A040000 		.4byte	.LASF66
 2848 09ba 01       		.byte	0x1
 2849 09bb A705     		.2byte	0x5a7
 2850 09bd CE000000 		.4byte	0xce
 2851 09c1 24070000 		.4byte	.LLST48
 2852 09c5 1B       		.uleb128 0x1b
 2853 09c6 BA030000 		.4byte	.LASF38
 2854 09ca 01       		.byte	0x1
 2855 09cb A705     		.2byte	0x5a7
 2856 09cd 81000000 		.4byte	0x81
 2857 09d1 45070000 		.4byte	.LLST49
 2858 09d5 10       		.uleb128 0x10
 2859 09d6 97030000 		.4byte	.LASF67
 2860 09da 01       		.byte	0x1
 2861 09db A905     		.2byte	0x5a9
 2862 09dd 81000000 		.4byte	0x81
 2863 09e1 71070000 		.4byte	.LLST50
 2864 09e5 26       		.uleb128 0x26
 2865 09e6 10000000 		.4byte	.LVL123
 2866 09ea DB020000 		.4byte	0x2db
 2867 09ee F9090000 		.4byte	0x9f9
 2868 09f2 1A       		.uleb128 0x1a
 2869 09f3 01       		.uleb128 0x1
 2870 09f4 50       		.byte	0x50
 2871 09f5 02       		.uleb128 0x2
 2872 09f6 74       		.byte	0x74
 2873 09f7 00       		.sleb128 0
 2874 09f8 00       		.byte	0
 2875 09f9 26       		.uleb128 0x26
 2876 09fa 24000000 		.4byte	.LVL124
 2877 09fe CC050000 		.4byte	0x5cc
 2878 0a02 0D0A0000 		.4byte	0xa0d
 2879 0a06 1A       		.uleb128 0x1a
 2880 0a07 01       		.uleb128 0x1
 2881 0a08 50       		.byte	0x50
ARM GAS  C:\Users\SDEVAS~1\AppData\Local\Temp\cchvSIah.s 			page 83


 2882 0a09 02       		.uleb128 0x2
 2883 0a0a 74       		.byte	0x74
 2884 0a0b 00       		.sleb128 0
 2885 0a0c 00       		.byte	0
 2886 0a0d 26       		.uleb128 0x26
 2887 0a0e 2E000000 		.4byte	.LVL126
 2888 0a12 CC050000 		.4byte	0x5cc
 2889 0a16 210A0000 		.4byte	0xa21
 2890 0a1a 1A       		.uleb128 0x1a
 2891 0a1b 01       		.uleb128 0x1
 2892 0a1c 50       		.byte	0x50
 2893 0a1d 02       		.uleb128 0x2
 2894 0a1e 74       		.byte	0x74
 2895 0a1f 00       		.sleb128 0
 2896 0a20 00       		.byte	0
 2897 0a21 19       		.uleb128 0x19
 2898 0a22 42000000 		.4byte	.LVL129
 2899 0a26 D2040000 		.4byte	0x4d2
 2900 0a2a 1A       		.uleb128 0x1a
 2901 0a2b 01       		.uleb128 0x1
 2902 0a2c 51       		.byte	0x51
 2903 0a2d 02       		.uleb128 0x2
 2904 0a2e 75       		.byte	0x75
 2905 0a2f 00       		.sleb128 0
 2906 0a30 1A       		.uleb128 0x1a
 2907 0a31 01       		.uleb128 0x1
 2908 0a32 50       		.byte	0x50
 2909 0a33 02       		.uleb128 0x2
 2910 0a34 74       		.byte	0x74
 2911 0a35 00       		.sleb128 0
 2912 0a36 00       		.byte	0
 2913 0a37 00       		.byte	0
 2914 0a38 0F       		.uleb128 0xf
 2915 0a39 1F040000 		.4byte	.LASF68
 2916 0a3d 01       		.byte	0x1
 2917 0a3e 5B05     		.2byte	0x55b
 2918 0a40 00000000 		.4byte	.LFB28
 2919 0a44 34000000 		.4byte	.LFE28-.LFB28
 2920 0a48 01       		.uleb128 0x1
 2921 0a49 9C       		.byte	0x9c
 2922 0a4a E70A0000 		.4byte	0xae7
 2923 0a4e 1B       		.uleb128 0x1b
 2924 0a4f A8000000 		.4byte	.LASF21
 2925 0a53 01       		.byte	0x1
 2926 0a54 5B05     		.2byte	0x55b
 2927 0a56 81000000 		.4byte	0x81
 2928 0a5a AE070000 		.4byte	.LLST51
 2929 0a5e 1B       		.uleb128 0x1b
 2930 0a5f 7A040000 		.4byte	.LASF66
 2931 0a63 01       		.byte	0x1
 2932 0a64 5B05     		.2byte	0x55b
 2933 0a66 CE000000 		.4byte	0xce
 2934 0a6a DA070000 		.4byte	.LLST52
 2935 0a6e 1B       		.uleb128 0x1b
 2936 0a6f 6A040000 		.4byte	.LASF69
 2937 0a73 01       		.byte	0x1
 2938 0a74 5B05     		.2byte	0x55b
ARM GAS  C:\Users\SDEVAS~1\AppData\Local\Temp\cchvSIah.s 			page 84


 2939 0a76 81000000 		.4byte	0x81
 2940 0a7a FB070000 		.4byte	.LLST53
 2941 0a7e 10       		.uleb128 0x10
 2942 0a7f 88010000 		.4byte	.LASF39
 2943 0a83 01       		.byte	0x1
 2944 0a84 5D05     		.2byte	0x55d
 2945 0a86 81000000 		.4byte	0x81
 2946 0a8a 27080000 		.4byte	.LLST54
 2947 0a8e 10       		.uleb128 0x10
 2948 0a8f 9C020000 		.4byte	.LASF70
 2949 0a93 01       		.byte	0x1
 2950 0a94 5E05     		.2byte	0x55e
 2951 0a96 81000000 		.4byte	0x81
 2952 0a9a 3A080000 		.4byte	.LLST55
 2953 0a9e 26       		.uleb128 0x26
 2954 0a9f 10000000 		.4byte	.LVL135
 2955 0aa3 DB020000 		.4byte	0x2db
 2956 0aa7 B20A0000 		.4byte	0xab2
 2957 0aab 1A       		.uleb128 0x1a
 2958 0aac 01       		.uleb128 0x1
 2959 0aad 50       		.byte	0x50
 2960 0aae 02       		.uleb128 0x2
 2961 0aaf 74       		.byte	0x74
 2962 0ab0 00       		.sleb128 0
 2963 0ab1 00       		.byte	0
 2964 0ab2 26       		.uleb128 0x26
 2965 0ab3 20000000 		.4byte	.LVL136
 2966 0ab7 CC050000 		.4byte	0x5cc
 2967 0abb C60A0000 		.4byte	0xac6
 2968 0abf 1A       		.uleb128 0x1a
 2969 0ac0 01       		.uleb128 0x1
 2970 0ac1 50       		.byte	0x50
 2971 0ac2 02       		.uleb128 0x2
 2972 0ac3 74       		.byte	0x74
 2973 0ac4 00       		.sleb128 0
 2974 0ac5 00       		.byte	0
 2975 0ac6 19       		.uleb128 0x19
 2976 0ac7 2C000000 		.4byte	.LVL139
 2977 0acb 8F090000 		.4byte	0x98f
 2978 0acf 1A       		.uleb128 0x1a
 2979 0ad0 01       		.uleb128 0x1
 2980 0ad1 52       		.byte	0x52
 2981 0ad2 06       		.uleb128 0x6
 2982 0ad3 75       		.byte	0x75
 2983 0ad4 00       		.sleb128 0
 2984 0ad5 0A       		.byte	0xa
 2985 0ad6 FFFF     		.2byte	0xffff
 2986 0ad8 1A       		.byte	0x1a
 2987 0ad9 1A       		.uleb128 0x1a
 2988 0ada 01       		.uleb128 0x1
 2989 0adb 51       		.byte	0x51
 2990 0adc 02       		.uleb128 0x2
 2991 0add 76       		.byte	0x76
 2992 0ade 00       		.sleb128 0
 2993 0adf 1A       		.uleb128 0x1a
 2994 0ae0 01       		.uleb128 0x1
 2995 0ae1 50       		.byte	0x50
ARM GAS  C:\Users\SDEVAS~1\AppData\Local\Temp\cchvSIah.s 			page 85


 2996 0ae2 02       		.uleb128 0x2
 2997 0ae3 74       		.byte	0x74
 2998 0ae4 00       		.sleb128 0
 2999 0ae5 00       		.byte	0
 3000 0ae6 00       		.byte	0
 3001 0ae7 0F       		.uleb128 0xf
 3002 0ae8 5F000000 		.4byte	.LASF71
 3003 0aec 01       		.byte	0x1
 3004 0aed DC05     		.2byte	0x5dc
 3005 0aef 00000000 		.4byte	.LFB30
 3006 0af3 4A000000 		.4byte	.LFE30-.LFB30
 3007 0af7 01       		.uleb128 0x1
 3008 0af8 9C       		.byte	0x9c
 3009 0af9 840B0000 		.4byte	0xb84
 3010 0afd 1B       		.uleb128 0x1b
 3011 0afe A8000000 		.4byte	.LASF21
 3012 0b02 01       		.byte	0x1
 3013 0b03 DC05     		.2byte	0x5dc
 3014 0b05 81000000 		.4byte	0x81
 3015 0b09 6B080000 		.4byte	.LLST56
 3016 0b0d 26       		.uleb128 0x26
 3017 0b0e 0A000000 		.4byte	.LVL142
 3018 0b12 49020000 		.4byte	0x249
 3019 0b16 210B0000 		.4byte	0xb21
 3020 0b1a 1A       		.uleb128 0x1a
 3021 0b1b 01       		.uleb128 0x1
 3022 0b1c 50       		.byte	0x50
 3023 0b1d 02       		.uleb128 0x2
 3024 0b1e 74       		.byte	0x74
 3025 0b1f 00       		.sleb128 0
 3026 0b20 00       		.byte	0
 3027 0b21 26       		.uleb128 0x26
 3028 0b22 14000000 		.4byte	.LVL143
 3029 0b26 49020000 		.4byte	0x249
 3030 0b2a 350B0000 		.4byte	0xb35
 3031 0b2e 1A       		.uleb128 0x1a
 3032 0b2f 01       		.uleb128 0x1
 3033 0b30 50       		.byte	0x50
 3034 0b31 02       		.uleb128 0x2
 3035 0b32 74       		.byte	0x74
 3036 0b33 00       		.sleb128 0
 3037 0b34 00       		.byte	0
 3038 0b35 26       		.uleb128 0x26
 3039 0b36 1E000000 		.4byte	.LVL144
 3040 0b3a 46080000 		.4byte	0x846
 3041 0b3e 480B0000 		.4byte	0xb48
 3042 0b42 1A       		.uleb128 0x1a
 3043 0b43 01       		.uleb128 0x1
 3044 0b44 50       		.byte	0x50
 3045 0b45 01       		.uleb128 0x1
 3046 0b46 38       		.byte	0x38
 3047 0b47 00       		.byte	0
 3048 0b48 11       		.uleb128 0x11
 3049 0b49 2A000000 		.4byte	.LVL146
 3050 0b4d 49020000 		.4byte	0x249
 3051 0b51 26       		.uleb128 0x26
 3052 0b52 34000000 		.4byte	.LVL147
ARM GAS  C:\Users\SDEVAS~1\AppData\Local\Temp\cchvSIah.s 			page 86


 3053 0b56 49020000 		.4byte	0x249
 3054 0b5a 650B0000 		.4byte	0xb65
 3055 0b5e 1A       		.uleb128 0x1a
 3056 0b5f 01       		.uleb128 0x1
 3057 0b60 50       		.byte	0x50
 3058 0b61 02       		.uleb128 0x2
 3059 0b62 74       		.byte	0x74
 3060 0b63 00       		.sleb128 0
 3061 0b64 00       		.byte	0
 3062 0b65 26       		.uleb128 0x26
 3063 0b66 40000000 		.4byte	.LVL148
 3064 0b6a 46080000 		.4byte	0x846
 3065 0b6e 7A0B0000 		.4byte	0xb7a
 3066 0b72 1A       		.uleb128 0x1a
 3067 0b73 01       		.uleb128 0x1
 3068 0b74 50       		.byte	0x50
 3069 0b75 03       		.uleb128 0x3
 3070 0b76 0A       		.byte	0xa
 3071 0b77 0008     		.2byte	0x800
 3072 0b79 00       		.byte	0
 3073 0b7a 11       		.uleb128 0x11
 3074 0b7b 48000000 		.4byte	.LVL149
 3075 0b7f C0070000 		.4byte	0x7c0
 3076 0b83 00       		.byte	0
 3077 0b84 33       		.uleb128 0x33
 3078 0b85 E0000000 		.4byte	.LASF72
 3079 0b89 01       		.byte	0x1
 3080 0b8a 1A       		.byte	0x1a
 3081 0b8b 81000000 		.4byte	0x81
 3082 0b8f 05       		.uleb128 0x5
 3083 0b90 03       		.byte	0x3
 3084 0b91 04000000 		.4byte	lfclkPosedgeWdtCounter0Enabled
 3085 0b95 33       		.uleb128 0x33
 3086 0b96 DD050000 		.4byte	.LASF73
 3087 0b9a 01       		.byte	0x1
 3088 0b9b 1B       		.byte	0x1b
 3089 0b9c 81000000 		.4byte	0x81
 3090 0ba0 05       		.uleb128 0x5
 3091 0ba1 03       		.byte	0x3
 3092 0ba2 08000000 		.4byte	lfclkPosedgeWdtCounter0Mode
 3093 0ba6 33       		.uleb128 0x33
 3094 0ba7 73050000 		.4byte	.LASF74
 3095 0bab 01       		.byte	0x1
 3096 0bac 1D       		.byte	0x1d
 3097 0bad AD000000 		.4byte	0xad
 3098 0bb1 05       		.uleb128 0x5
 3099 0bb2 03       		.byte	0x3
 3100 0bb3 18000000 		.4byte	disableServicedIsr
 3101 0bb7 33       		.uleb128 0x33
 3102 0bb8 FC010000 		.4byte	.LASF75
 3103 0bbc 01       		.byte	0x1
 3104 0bbd 1E       		.byte	0x1e
 3105 0bbe AD000000 		.4byte	0xad
 3106 0bc2 05       		.uleb128 0x5
 3107 0bc3 03       		.byte	0x3
 3108 0bc4 00000000 		.4byte	wdtIsrMask
 3109 0bc8 34       		.uleb128 0x34
ARM GAS  C:\Users\SDEVAS~1\AppData\Local\Temp\cchvSIah.s 			page 87


 3110 0bc9 81000000 		.4byte	0x81
 3111 0bcd D80B0000 		.4byte	0xbd8
 3112 0bd1 35       		.uleb128 0x35
 3113 0bd2 E4000000 		.4byte	0xe4
 3114 0bd6 02       		.byte	0x2
 3115 0bd7 00       		.byte	0
 3116 0bd8 33       		.uleb128 0x33
 3117 0bd9 1D000000 		.4byte	.LASF76
 3118 0bdd 01       		.byte	0x1
 3119 0bde 22       		.byte	0x22
 3120 0bdf E90B0000 		.4byte	0xbe9
 3121 0be3 05       		.uleb128 0x5
 3122 0be4 03       		.byte	0x3
 3123 0be5 00000000 		.4byte	counterIntMaskTbl
 3124 0be9 36       		.uleb128 0x36
 3125 0bea C80B0000 		.4byte	0xbc8
 3126 0bee 34       		.uleb128 0x34
 3127 0bef D9000000 		.4byte	0xd9
 3128 0bf3 FE0B0000 		.4byte	0xbfe
 3129 0bf7 35       		.uleb128 0x35
 3130 0bf8 E4000000 		.4byte	0xe4
 3131 0bfc 02       		.byte	0x2
 3132 0bfd 00       		.byte	0
 3133 0bfe 33       		.uleb128 0x33
 3134 0bff 2F000000 		.4byte	.LASF77
 3135 0c03 01       		.byte	0x1
 3136 0c04 2E       		.byte	0x2e
 3137 0c05 EE0B0000 		.4byte	0xbee
 3138 0c09 05       		.uleb128 0x5
 3139 0c0a 03       		.byte	0x3
 3140 0c0b 0C000000 		.4byte	cySysWdtCallback
 3141 0c0f 37       		.uleb128 0x37
 3142 0c10 80030000 		.4byte	.LASF86
 3143 0c14 04       		.byte	0x4
 3144 0c15 5E       		.byte	0x5e
 3145 0c16 6B000000 		.4byte	0x6b
 3146 0c1a 38       		.uleb128 0x38
 3147 0c1b 07000000 		.4byte	.LASF79
 3148 0c1f 04       		.byte	0x4
 3149 0c20 5F       		.byte	0x5f
 3150 0c21 2B0C0000 		.4byte	0xc2b
 3151 0c25 39       		.uleb128 0x39
 3152 0c26 6B000000 		.4byte	0x6b
 3153 0c2a 00       		.byte	0
 3154 0c2b 3A       		.uleb128 0x3a
 3155 0c2c 54010000 		.4byte	.LASF87
 3156 0c30 04       		.byte	0x4
 3157 0c31 58       		.byte	0x58
 3158 0c32 39       		.uleb128 0x39
 3159 0c33 76000000 		.4byte	0x76
 3160 0c37 00       		.byte	0
 3161 0c38 00       		.byte	0
 3162              		.section	.debug_abbrev,"",%progbits
 3163              	.Ldebug_abbrev0:
 3164 0000 01       		.uleb128 0x1
 3165 0001 11       		.uleb128 0x11
 3166 0002 01       		.byte	0x1
ARM GAS  C:\Users\SDEVAS~1\AppData\Local\Temp\cchvSIah.s 			page 88


 3167 0003 25       		.uleb128 0x25
 3168 0004 0E       		.uleb128 0xe
 3169 0005 13       		.uleb128 0x13
 3170 0006 0B       		.uleb128 0xb
 3171 0007 03       		.uleb128 0x3
 3172 0008 0E       		.uleb128 0xe
 3173 0009 1B       		.uleb128 0x1b
 3174 000a 0E       		.uleb128 0xe
 3175 000b 55       		.uleb128 0x55
 3176 000c 17       		.uleb128 0x17
 3177 000d 11       		.uleb128 0x11
 3178 000e 01       		.uleb128 0x1
 3179 000f 10       		.uleb128 0x10
 3180 0010 17       		.uleb128 0x17
 3181 0011 00       		.byte	0
 3182 0012 00       		.byte	0
 3183 0013 02       		.uleb128 0x2
 3184 0014 24       		.uleb128 0x24
 3185 0015 00       		.byte	0
 3186 0016 0B       		.uleb128 0xb
 3187 0017 0B       		.uleb128 0xb
 3188 0018 3E       		.uleb128 0x3e
 3189 0019 0B       		.uleb128 0xb
 3190 001a 03       		.uleb128 0x3
 3191 001b 0E       		.uleb128 0xe
 3192 001c 00       		.byte	0
 3193 001d 00       		.byte	0
 3194 001e 03       		.uleb128 0x3
 3195 001f 24       		.uleb128 0x24
 3196 0020 00       		.byte	0
 3197 0021 0B       		.uleb128 0xb
 3198 0022 0B       		.uleb128 0xb
 3199 0023 3E       		.uleb128 0x3e
 3200 0024 0B       		.uleb128 0xb
 3201 0025 03       		.uleb128 0x3
 3202 0026 08       		.uleb128 0x8
 3203 0027 00       		.byte	0
 3204 0028 00       		.byte	0
 3205 0029 04       		.uleb128 0x4
 3206 002a 16       		.uleb128 0x16
 3207 002b 00       		.byte	0
 3208 002c 03       		.uleb128 0x3
 3209 002d 0E       		.uleb128 0xe
 3210 002e 3A       		.uleb128 0x3a
 3211 002f 0B       		.uleb128 0xb
 3212 0030 3B       		.uleb128 0x3b
 3213 0031 0B       		.uleb128 0xb
 3214 0032 49       		.uleb128 0x49
 3215 0033 13       		.uleb128 0x13
 3216 0034 00       		.byte	0
 3217 0035 00       		.byte	0
 3218 0036 05       		.uleb128 0x5
 3219 0037 16       		.uleb128 0x16
 3220 0038 00       		.byte	0
 3221 0039 03       		.uleb128 0x3
 3222 003a 0E       		.uleb128 0xe
 3223 003b 3A       		.uleb128 0x3a
ARM GAS  C:\Users\SDEVAS~1\AppData\Local\Temp\cchvSIah.s 			page 89


 3224 003c 0B       		.uleb128 0xb
 3225 003d 3B       		.uleb128 0x3b
 3226 003e 05       		.uleb128 0x5
 3227 003f 49       		.uleb128 0x49
 3228 0040 13       		.uleb128 0x13
 3229 0041 00       		.byte	0
 3230 0042 00       		.byte	0
 3231 0043 06       		.uleb128 0x6
 3232 0044 35       		.uleb128 0x35
 3233 0045 00       		.byte	0
 3234 0046 49       		.uleb128 0x49
 3235 0047 13       		.uleb128 0x13
 3236 0048 00       		.byte	0
 3237 0049 00       		.byte	0
 3238 004a 07       		.uleb128 0x7
 3239 004b 0F       		.uleb128 0xf
 3240 004c 00       		.byte	0
 3241 004d 0B       		.uleb128 0xb
 3242 004e 0B       		.uleb128 0xb
 3243 004f 49       		.uleb128 0x49
 3244 0050 13       		.uleb128 0x13
 3245 0051 00       		.byte	0
 3246 0052 00       		.byte	0
 3247 0053 08       		.uleb128 0x8
 3248 0054 15       		.uleb128 0x15
 3249 0055 00       		.byte	0
 3250 0056 27       		.uleb128 0x27
 3251 0057 19       		.uleb128 0x19
 3252 0058 00       		.byte	0
 3253 0059 00       		.byte	0
 3254 005a 09       		.uleb128 0x9
 3255 005b 04       		.uleb128 0x4
 3256 005c 01       		.byte	0x1
 3257 005d 0B       		.uleb128 0xb
 3258 005e 0B       		.uleb128 0xb
 3259 005f 3A       		.uleb128 0x3a
 3260 0060 0B       		.uleb128 0xb
 3261 0061 3B       		.uleb128 0x3b
 3262 0062 0B       		.uleb128 0xb
 3263 0063 01       		.uleb128 0x1
 3264 0064 13       		.uleb128 0x13
 3265 0065 00       		.byte	0
 3266 0066 00       		.byte	0
 3267 0067 0A       		.uleb128 0xa
 3268 0068 28       		.uleb128 0x28
 3269 0069 00       		.byte	0
 3270 006a 03       		.uleb128 0x3
 3271 006b 0E       		.uleb128 0xe
 3272 006c 1C       		.uleb128 0x1c
 3273 006d 0D       		.uleb128 0xd
 3274 006e 00       		.byte	0
 3275 006f 00       		.byte	0
 3276 0070 0B       		.uleb128 0xb
 3277 0071 2E       		.uleb128 0x2e
 3278 0072 01       		.byte	0x1
 3279 0073 3F       		.uleb128 0x3f
 3280 0074 19       		.uleb128 0x19
ARM GAS  C:\Users\SDEVAS~1\AppData\Local\Temp\cchvSIah.s 			page 90


 3281 0075 03       		.uleb128 0x3
 3282 0076 0E       		.uleb128 0xe
 3283 0077 3A       		.uleb128 0x3a
 3284 0078 0B       		.uleb128 0xb
 3285 0079 3B       		.uleb128 0x3b
 3286 007a 05       		.uleb128 0x5
 3287 007b 27       		.uleb128 0x27
 3288 007c 19       		.uleb128 0x19
 3289 007d 20       		.uleb128 0x20
 3290 007e 0B       		.uleb128 0xb
 3291 007f 01       		.uleb128 0x1
 3292 0080 13       		.uleb128 0x13
 3293 0081 00       		.byte	0
 3294 0082 00       		.byte	0
 3295 0083 0C       		.uleb128 0xc
 3296 0084 05       		.uleb128 0x5
 3297 0085 00       		.byte	0
 3298 0086 03       		.uleb128 0x3
 3299 0087 0E       		.uleb128 0xe
 3300 0088 3A       		.uleb128 0x3a
 3301 0089 0B       		.uleb128 0xb
 3302 008a 3B       		.uleb128 0x3b
 3303 008b 05       		.uleb128 0x5
 3304 008c 49       		.uleb128 0x49
 3305 008d 13       		.uleb128 0x13
 3306 008e 00       		.byte	0
 3307 008f 00       		.byte	0
 3308 0090 0D       		.uleb128 0xd
 3309 0091 34       		.uleb128 0x34
 3310 0092 00       		.byte	0
 3311 0093 03       		.uleb128 0x3
 3312 0094 0E       		.uleb128 0xe
 3313 0095 3A       		.uleb128 0x3a
 3314 0096 0B       		.uleb128 0xb
 3315 0097 3B       		.uleb128 0x3b
 3316 0098 05       		.uleb128 0x5
 3317 0099 49       		.uleb128 0x49
 3318 009a 13       		.uleb128 0x13
 3319 009b 00       		.byte	0
 3320 009c 00       		.byte	0
 3321 009d 0E       		.uleb128 0xe
 3322 009e 2E       		.uleb128 0x2e
 3323 009f 00       		.byte	0
 3324 00a0 3F       		.uleb128 0x3f
 3325 00a1 19       		.uleb128 0x19
 3326 00a2 03       		.uleb128 0x3
 3327 00a3 0E       		.uleb128 0xe
 3328 00a4 3A       		.uleb128 0x3a
 3329 00a5 0B       		.uleb128 0xb
 3330 00a6 3B       		.uleb128 0x3b
 3331 00a7 0B       		.uleb128 0xb
 3332 00a8 27       		.uleb128 0x27
 3333 00a9 19       		.uleb128 0x19
 3334 00aa 11       		.uleb128 0x11
 3335 00ab 01       		.uleb128 0x1
 3336 00ac 12       		.uleb128 0x12
 3337 00ad 06       		.uleb128 0x6
ARM GAS  C:\Users\SDEVAS~1\AppData\Local\Temp\cchvSIah.s 			page 91


 3338 00ae 40       		.uleb128 0x40
 3339 00af 18       		.uleb128 0x18
 3340 00b0 9742     		.uleb128 0x2117
 3341 00b2 19       		.uleb128 0x19
 3342 00b3 00       		.byte	0
 3343 00b4 00       		.byte	0
 3344 00b5 0F       		.uleb128 0xf
 3345 00b6 2E       		.uleb128 0x2e
 3346 00b7 01       		.byte	0x1
 3347 00b8 3F       		.uleb128 0x3f
 3348 00b9 19       		.uleb128 0x19
 3349 00ba 03       		.uleb128 0x3
 3350 00bb 0E       		.uleb128 0xe
 3351 00bc 3A       		.uleb128 0x3a
 3352 00bd 0B       		.uleb128 0xb
 3353 00be 3B       		.uleb128 0x3b
 3354 00bf 05       		.uleb128 0x5
 3355 00c0 27       		.uleb128 0x27
 3356 00c1 19       		.uleb128 0x19
 3357 00c2 11       		.uleb128 0x11
 3358 00c3 01       		.uleb128 0x1
 3359 00c4 12       		.uleb128 0x12
 3360 00c5 06       		.uleb128 0x6
 3361 00c6 40       		.uleb128 0x40
 3362 00c7 18       		.uleb128 0x18
 3363 00c8 9742     		.uleb128 0x2117
 3364 00ca 19       		.uleb128 0x19
 3365 00cb 01       		.uleb128 0x1
 3366 00cc 13       		.uleb128 0x13
 3367 00cd 00       		.byte	0
 3368 00ce 00       		.byte	0
 3369 00cf 10       		.uleb128 0x10
 3370 00d0 34       		.uleb128 0x34
 3371 00d1 00       		.byte	0
 3372 00d2 03       		.uleb128 0x3
 3373 00d3 0E       		.uleb128 0xe
 3374 00d4 3A       		.uleb128 0x3a
 3375 00d5 0B       		.uleb128 0xb
 3376 00d6 3B       		.uleb128 0x3b
 3377 00d7 05       		.uleb128 0x5
 3378 00d8 49       		.uleb128 0x49
 3379 00d9 13       		.uleb128 0x13
 3380 00da 02       		.uleb128 0x2
 3381 00db 17       		.uleb128 0x17
 3382 00dc 00       		.byte	0
 3383 00dd 00       		.byte	0
 3384 00de 11       		.uleb128 0x11
 3385 00df 898201   		.uleb128 0x4109
 3386 00e2 00       		.byte	0
 3387 00e3 11       		.uleb128 0x11
 3388 00e4 01       		.uleb128 0x1
 3389 00e5 31       		.uleb128 0x31
 3390 00e6 13       		.uleb128 0x13
 3391 00e7 00       		.byte	0
 3392 00e8 00       		.byte	0
 3393 00e9 12       		.uleb128 0x12
 3394 00ea 2E       		.uleb128 0x2e
ARM GAS  C:\Users\SDEVAS~1\AppData\Local\Temp\cchvSIah.s 			page 92


 3395 00eb 01       		.byte	0x1
 3396 00ec 3F       		.uleb128 0x3f
 3397 00ed 19       		.uleb128 0x19
 3398 00ee 03       		.uleb128 0x3
 3399 00ef 0E       		.uleb128 0xe
 3400 00f0 3A       		.uleb128 0x3a
 3401 00f1 0B       		.uleb128 0xb
 3402 00f2 3B       		.uleb128 0x3b
 3403 00f3 05       		.uleb128 0x5
 3404 00f4 27       		.uleb128 0x27
 3405 00f5 19       		.uleb128 0x19
 3406 00f6 49       		.uleb128 0x49
 3407 00f7 13       		.uleb128 0x13
 3408 00f8 20       		.uleb128 0x20
 3409 00f9 0B       		.uleb128 0xb
 3410 00fa 01       		.uleb128 0x1
 3411 00fb 13       		.uleb128 0x13
 3412 00fc 00       		.byte	0
 3413 00fd 00       		.byte	0
 3414 00fe 13       		.uleb128 0x13
 3415 00ff 2E       		.uleb128 0x2e
 3416 0100 01       		.byte	0x1
 3417 0101 31       		.uleb128 0x31
 3418 0102 13       		.uleb128 0x13
 3419 0103 11       		.uleb128 0x11
 3420 0104 01       		.uleb128 0x1
 3421 0105 12       		.uleb128 0x12
 3422 0106 06       		.uleb128 0x6
 3423 0107 40       		.uleb128 0x40
 3424 0108 18       		.uleb128 0x18
 3425 0109 9742     		.uleb128 0x2117
 3426 010b 19       		.uleb128 0x19
 3427 010c 01       		.uleb128 0x1
 3428 010d 13       		.uleb128 0x13
 3429 010e 00       		.byte	0
 3430 010f 00       		.byte	0
 3431 0110 14       		.uleb128 0x14
 3432 0111 05       		.uleb128 0x5
 3433 0112 00       		.byte	0
 3434 0113 31       		.uleb128 0x31
 3435 0114 13       		.uleb128 0x13
 3436 0115 02       		.uleb128 0x2
 3437 0116 17       		.uleb128 0x17
 3438 0117 00       		.byte	0
 3439 0118 00       		.byte	0
 3440 0119 15       		.uleb128 0x15
 3441 011a 34       		.uleb128 0x34
 3442 011b 00       		.byte	0
 3443 011c 31       		.uleb128 0x31
 3444 011d 13       		.uleb128 0x13
 3445 011e 00       		.byte	0
 3446 011f 00       		.byte	0
 3447 0120 16       		.uleb128 0x16
 3448 0121 0B       		.uleb128 0xb
 3449 0122 01       		.byte	0x1
 3450 0123 11       		.uleb128 0x11
 3451 0124 01       		.uleb128 0x1
ARM GAS  C:\Users\SDEVAS~1\AppData\Local\Temp\cchvSIah.s 			page 93


 3452 0125 12       		.uleb128 0x12
 3453 0126 06       		.uleb128 0x6
 3454 0127 01       		.uleb128 0x1
 3455 0128 13       		.uleb128 0x13
 3456 0129 00       		.byte	0
 3457 012a 00       		.byte	0
 3458 012b 17       		.uleb128 0x17
 3459 012c 0B       		.uleb128 0xb
 3460 012d 01       		.byte	0x1
 3461 012e 11       		.uleb128 0x11
 3462 012f 01       		.uleb128 0x1
 3463 0130 12       		.uleb128 0x12
 3464 0131 06       		.uleb128 0x6
 3465 0132 00       		.byte	0
 3466 0133 00       		.byte	0
 3467 0134 18       		.uleb128 0x18
 3468 0135 34       		.uleb128 0x34
 3469 0136 00       		.byte	0
 3470 0137 31       		.uleb128 0x31
 3471 0138 13       		.uleb128 0x13
 3472 0139 02       		.uleb128 0x2
 3473 013a 17       		.uleb128 0x17
 3474 013b 00       		.byte	0
 3475 013c 00       		.byte	0
 3476 013d 19       		.uleb128 0x19
 3477 013e 898201   		.uleb128 0x4109
 3478 0141 01       		.byte	0x1
 3479 0142 11       		.uleb128 0x11
 3480 0143 01       		.uleb128 0x1
 3481 0144 31       		.uleb128 0x31
 3482 0145 13       		.uleb128 0x13
 3483 0146 00       		.byte	0
 3484 0147 00       		.byte	0
 3485 0148 1A       		.uleb128 0x1a
 3486 0149 8A8201   		.uleb128 0x410a
 3487 014c 00       		.byte	0
 3488 014d 02       		.uleb128 0x2
 3489 014e 18       		.uleb128 0x18
 3490 014f 9142     		.uleb128 0x2111
 3491 0151 18       		.uleb128 0x18
 3492 0152 00       		.byte	0
 3493 0153 00       		.byte	0
 3494 0154 1B       		.uleb128 0x1b
 3495 0155 05       		.uleb128 0x5
 3496 0156 00       		.byte	0
 3497 0157 03       		.uleb128 0x3
 3498 0158 0E       		.uleb128 0xe
 3499 0159 3A       		.uleb128 0x3a
 3500 015a 0B       		.uleb128 0xb
 3501 015b 3B       		.uleb128 0x3b
 3502 015c 05       		.uleb128 0x5
 3503 015d 49       		.uleb128 0x49
 3504 015e 13       		.uleb128 0x13
 3505 015f 02       		.uleb128 0x2
 3506 0160 17       		.uleb128 0x17
 3507 0161 00       		.byte	0
 3508 0162 00       		.byte	0
ARM GAS  C:\Users\SDEVAS~1\AppData\Local\Temp\cchvSIah.s 			page 94


 3509 0163 1C       		.uleb128 0x1c
 3510 0164 2E       		.uleb128 0x2e
 3511 0165 01       		.byte	0x1
 3512 0166 3F       		.uleb128 0x3f
 3513 0167 19       		.uleb128 0x19
 3514 0168 03       		.uleb128 0x3
 3515 0169 0E       		.uleb128 0xe
 3516 016a 3A       		.uleb128 0x3a
 3517 016b 0B       		.uleb128 0xb
 3518 016c 3B       		.uleb128 0x3b
 3519 016d 05       		.uleb128 0x5
 3520 016e 27       		.uleb128 0x27
 3521 016f 19       		.uleb128 0x19
 3522 0170 49       		.uleb128 0x49
 3523 0171 13       		.uleb128 0x13
 3524 0172 11       		.uleb128 0x11
 3525 0173 01       		.uleb128 0x1
 3526 0174 12       		.uleb128 0x12
 3527 0175 06       		.uleb128 0x6
 3528 0176 40       		.uleb128 0x40
 3529 0177 18       		.uleb128 0x18
 3530 0178 9742     		.uleb128 0x2117
 3531 017a 19       		.uleb128 0x19
 3532 017b 01       		.uleb128 0x1
 3533 017c 13       		.uleb128 0x13
 3534 017d 00       		.byte	0
 3535 017e 00       		.byte	0
 3536 017f 1D       		.uleb128 0x1d
 3537 0180 1D       		.uleb128 0x1d
 3538 0181 01       		.byte	0x1
 3539 0182 31       		.uleb128 0x31
 3540 0183 13       		.uleb128 0x13
 3541 0184 11       		.uleb128 0x11
 3542 0185 01       		.uleb128 0x1
 3543 0186 12       		.uleb128 0x12
 3544 0187 06       		.uleb128 0x6
 3545 0188 58       		.uleb128 0x58
 3546 0189 0B       		.uleb128 0xb
 3547 018a 59       		.uleb128 0x59
 3548 018b 05       		.uleb128 0x5
 3549 018c 01       		.uleb128 0x1
 3550 018d 13       		.uleb128 0x13
 3551 018e 00       		.byte	0
 3552 018f 00       		.byte	0
 3553 0190 1E       		.uleb128 0x1e
 3554 0191 2E       		.uleb128 0x2e
 3555 0192 00       		.byte	0
 3556 0193 03       		.uleb128 0x3
 3557 0194 0E       		.uleb128 0xe
 3558 0195 3A       		.uleb128 0x3a
 3559 0196 0B       		.uleb128 0xb
 3560 0197 3B       		.uleb128 0x3b
 3561 0198 05       		.uleb128 0x5
 3562 0199 27       		.uleb128 0x27
 3563 019a 19       		.uleb128 0x19
 3564 019b 49       		.uleb128 0x49
 3565 019c 13       		.uleb128 0x13
ARM GAS  C:\Users\SDEVAS~1\AppData\Local\Temp\cchvSIah.s 			page 95


 3566 019d 20       		.uleb128 0x20
 3567 019e 0B       		.uleb128 0xb
 3568 019f 00       		.byte	0
 3569 01a0 00       		.byte	0
 3570 01a1 1F       		.uleb128 0x1f
 3571 01a2 05       		.uleb128 0x5
 3572 01a3 00       		.byte	0
 3573 01a4 03       		.uleb128 0x3
 3574 01a5 0E       		.uleb128 0xe
 3575 01a6 3A       		.uleb128 0x3a
 3576 01a7 0B       		.uleb128 0xb
 3577 01a8 3B       		.uleb128 0x3b
 3578 01a9 05       		.uleb128 0x5
 3579 01aa 49       		.uleb128 0x49
 3580 01ab 13       		.uleb128 0x13
 3581 01ac 02       		.uleb128 0x2
 3582 01ad 18       		.uleb128 0x18
 3583 01ae 00       		.byte	0
 3584 01af 00       		.byte	0
 3585 01b0 20       		.uleb128 0x20
 3586 01b1 1D       		.uleb128 0x1d
 3587 01b2 00       		.byte	0
 3588 01b3 31       		.uleb128 0x31
 3589 01b4 13       		.uleb128 0x13
 3590 01b5 11       		.uleb128 0x11
 3591 01b6 01       		.uleb128 0x1
 3592 01b7 12       		.uleb128 0x12
 3593 01b8 06       		.uleb128 0x6
 3594 01b9 58       		.uleb128 0x58
 3595 01ba 0B       		.uleb128 0xb
 3596 01bb 59       		.uleb128 0x59
 3597 01bc 05       		.uleb128 0x5
 3598 01bd 00       		.byte	0
 3599 01be 00       		.byte	0
 3600 01bf 21       		.uleb128 0x21
 3601 01c0 1D       		.uleb128 0x1d
 3602 01c1 01       		.byte	0x1
 3603 01c2 31       		.uleb128 0x31
 3604 01c3 13       		.uleb128 0x13
 3605 01c4 11       		.uleb128 0x11
 3606 01c5 01       		.uleb128 0x1
 3607 01c6 12       		.uleb128 0x12
 3608 01c7 06       		.uleb128 0x6
 3609 01c8 58       		.uleb128 0x58
 3610 01c9 0B       		.uleb128 0xb
 3611 01ca 59       		.uleb128 0x59
 3612 01cb 05       		.uleb128 0x5
 3613 01cc 00       		.byte	0
 3614 01cd 00       		.byte	0
 3615 01ce 22       		.uleb128 0x22
 3616 01cf 1D       		.uleb128 0x1d
 3617 01d0 01       		.byte	0x1
 3618 01d1 31       		.uleb128 0x31
 3619 01d2 13       		.uleb128 0x13
 3620 01d3 52       		.uleb128 0x52
 3621 01d4 01       		.uleb128 0x1
 3622 01d5 55       		.uleb128 0x55
ARM GAS  C:\Users\SDEVAS~1\AppData\Local\Temp\cchvSIah.s 			page 96


 3623 01d6 17       		.uleb128 0x17
 3624 01d7 58       		.uleb128 0x58
 3625 01d8 0B       		.uleb128 0xb
 3626 01d9 59       		.uleb128 0x59
 3627 01da 05       		.uleb128 0x5
 3628 01db 01       		.uleb128 0x1
 3629 01dc 13       		.uleb128 0x13
 3630 01dd 00       		.byte	0
 3631 01de 00       		.byte	0
 3632 01df 23       		.uleb128 0x23
 3633 01e0 05       		.uleb128 0x5
 3634 01e1 00       		.byte	0
 3635 01e2 31       		.uleb128 0x31
 3636 01e3 13       		.uleb128 0x13
 3637 01e4 1C       		.uleb128 0x1c
 3638 01e5 0B       		.uleb128 0xb
 3639 01e6 00       		.byte	0
 3640 01e7 00       		.byte	0
 3641 01e8 24       		.uleb128 0x24
 3642 01e9 1D       		.uleb128 0x1d
 3643 01ea 01       		.byte	0x1
 3644 01eb 31       		.uleb128 0x31
 3645 01ec 13       		.uleb128 0x13
 3646 01ed 52       		.uleb128 0x52
 3647 01ee 01       		.uleb128 0x1
 3648 01ef 55       		.uleb128 0x55
 3649 01f0 17       		.uleb128 0x17
 3650 01f1 58       		.uleb128 0x58
 3651 01f2 0B       		.uleb128 0xb
 3652 01f3 59       		.uleb128 0x59
 3653 01f4 05       		.uleb128 0x5
 3654 01f5 00       		.byte	0
 3655 01f6 00       		.byte	0
 3656 01f7 25       		.uleb128 0x25
 3657 01f8 2E       		.uleb128 0x2e
 3658 01f9 00       		.byte	0
 3659 01fa 3F       		.uleb128 0x3f
 3660 01fb 19       		.uleb128 0x19
 3661 01fc 03       		.uleb128 0x3
 3662 01fd 0E       		.uleb128 0xe
 3663 01fe 3A       		.uleb128 0x3a
 3664 01ff 0B       		.uleb128 0xb
 3665 0200 3B       		.uleb128 0x3b
 3666 0201 05       		.uleb128 0x5
 3667 0202 27       		.uleb128 0x27
 3668 0203 19       		.uleb128 0x19
 3669 0204 49       		.uleb128 0x49
 3670 0205 13       		.uleb128 0x13
 3671 0206 11       		.uleb128 0x11
 3672 0207 01       		.uleb128 0x1
 3673 0208 12       		.uleb128 0x12
 3674 0209 06       		.uleb128 0x6
 3675 020a 40       		.uleb128 0x40
 3676 020b 18       		.uleb128 0x18
 3677 020c 9742     		.uleb128 0x2117
 3678 020e 19       		.uleb128 0x19
 3679 020f 00       		.byte	0
ARM GAS  C:\Users\SDEVAS~1\AppData\Local\Temp\cchvSIah.s 			page 97


 3680 0210 00       		.byte	0
 3681 0211 26       		.uleb128 0x26
 3682 0212 898201   		.uleb128 0x4109
 3683 0215 01       		.byte	0x1
 3684 0216 11       		.uleb128 0x11
 3685 0217 01       		.uleb128 0x1
 3686 0218 31       		.uleb128 0x31
 3687 0219 13       		.uleb128 0x13
 3688 021a 01       		.uleb128 0x1
 3689 021b 13       		.uleb128 0x13
 3690 021c 00       		.byte	0
 3691 021d 00       		.byte	0
 3692 021e 27       		.uleb128 0x27
 3693 021f 2E       		.uleb128 0x2e
 3694 0220 00       		.byte	0
 3695 0221 03       		.uleb128 0x3
 3696 0222 0E       		.uleb128 0xe
 3697 0223 3A       		.uleb128 0x3a
 3698 0224 0B       		.uleb128 0xb
 3699 0225 3B       		.uleb128 0x3b
 3700 0226 0B       		.uleb128 0xb
 3701 0227 27       		.uleb128 0x27
 3702 0228 19       		.uleb128 0x19
 3703 0229 49       		.uleb128 0x49
 3704 022a 13       		.uleb128 0x13
 3705 022b 20       		.uleb128 0x20
 3706 022c 0B       		.uleb128 0xb
 3707 022d 00       		.byte	0
 3708 022e 00       		.byte	0
 3709 022f 28       		.uleb128 0x28
 3710 0230 2E       		.uleb128 0x2e
 3711 0231 01       		.byte	0x1
 3712 0232 03       		.uleb128 0x3
 3713 0233 0E       		.uleb128 0xe
 3714 0234 3A       		.uleb128 0x3a
 3715 0235 0B       		.uleb128 0xb
 3716 0236 3B       		.uleb128 0x3b
 3717 0237 05       		.uleb128 0x5
 3718 0238 27       		.uleb128 0x27
 3719 0239 19       		.uleb128 0x19
 3720 023a 20       		.uleb128 0x20
 3721 023b 0B       		.uleb128 0xb
 3722 023c 01       		.uleb128 0x1
 3723 023d 13       		.uleb128 0x13
 3724 023e 00       		.byte	0
 3725 023f 00       		.byte	0
 3726 0240 29       		.uleb128 0x29
 3727 0241 2E       		.uleb128 0x2e
 3728 0242 00       		.byte	0
 3729 0243 03       		.uleb128 0x3
 3730 0244 0E       		.uleb128 0xe
 3731 0245 3A       		.uleb128 0x3a
 3732 0246 0B       		.uleb128 0xb
 3733 0247 3B       		.uleb128 0x3b
 3734 0248 05       		.uleb128 0x5
 3735 0249 27       		.uleb128 0x27
 3736 024a 19       		.uleb128 0x19
ARM GAS  C:\Users\SDEVAS~1\AppData\Local\Temp\cchvSIah.s 			page 98


 3737 024b 20       		.uleb128 0x20
 3738 024c 0B       		.uleb128 0xb
 3739 024d 00       		.byte	0
 3740 024e 00       		.byte	0
 3741 024f 2A       		.uleb128 0x2a
 3742 0250 2E       		.uleb128 0x2e
 3743 0251 01       		.byte	0x1
 3744 0252 3F       		.uleb128 0x3f
 3745 0253 19       		.uleb128 0x19
 3746 0254 03       		.uleb128 0x3
 3747 0255 0E       		.uleb128 0xe
 3748 0256 3A       		.uleb128 0x3a
 3749 0257 0B       		.uleb128 0xb
 3750 0258 3B       		.uleb128 0x3b
 3751 0259 0B       		.uleb128 0xb
 3752 025a 27       		.uleb128 0x27
 3753 025b 19       		.uleb128 0x19
 3754 025c 11       		.uleb128 0x11
 3755 025d 01       		.uleb128 0x1
 3756 025e 12       		.uleb128 0x12
 3757 025f 06       		.uleb128 0x6
 3758 0260 40       		.uleb128 0x40
 3759 0261 18       		.uleb128 0x18
 3760 0262 9742     		.uleb128 0x2117
 3761 0264 19       		.uleb128 0x19
 3762 0265 01       		.uleb128 0x1
 3763 0266 13       		.uleb128 0x13
 3764 0267 00       		.byte	0
 3765 0268 00       		.byte	0
 3766 0269 2B       		.uleb128 0x2b
 3767 026a 34       		.uleb128 0x34
 3768 026b 00       		.byte	0
 3769 026c 03       		.uleb128 0x3
 3770 026d 0E       		.uleb128 0xe
 3771 026e 3A       		.uleb128 0x3a
 3772 026f 0B       		.uleb128 0xb
 3773 0270 3B       		.uleb128 0x3b
 3774 0271 0B       		.uleb128 0xb
 3775 0272 49       		.uleb128 0x49
 3776 0273 13       		.uleb128 0x13
 3777 0274 02       		.uleb128 0x2
 3778 0275 17       		.uleb128 0x17
 3779 0276 00       		.byte	0
 3780 0277 00       		.byte	0
 3781 0278 2C       		.uleb128 0x2c
 3782 0279 1D       		.uleb128 0x1d
 3783 027a 00       		.byte	0
 3784 027b 31       		.uleb128 0x31
 3785 027c 13       		.uleb128 0x13
 3786 027d 11       		.uleb128 0x11
 3787 027e 01       		.uleb128 0x1
 3788 027f 12       		.uleb128 0x12
 3789 0280 06       		.uleb128 0x6
 3790 0281 58       		.uleb128 0x58
 3791 0282 0B       		.uleb128 0xb
 3792 0283 59       		.uleb128 0x59
 3793 0284 0B       		.uleb128 0xb
ARM GAS  C:\Users\SDEVAS~1\AppData\Local\Temp\cchvSIah.s 			page 99


 3794 0285 00       		.byte	0
 3795 0286 00       		.byte	0
 3796 0287 2D       		.uleb128 0x2d
 3797 0288 1D       		.uleb128 0x1d
 3798 0289 01       		.byte	0x1
 3799 028a 31       		.uleb128 0x31
 3800 028b 13       		.uleb128 0x13
 3801 028c 52       		.uleb128 0x52
 3802 028d 01       		.uleb128 0x1
 3803 028e 55       		.uleb128 0x55
 3804 028f 17       		.uleb128 0x17
 3805 0290 58       		.uleb128 0x58
 3806 0291 0B       		.uleb128 0xb
 3807 0292 59       		.uleb128 0x59
 3808 0293 0B       		.uleb128 0xb
 3809 0294 01       		.uleb128 0x1
 3810 0295 13       		.uleb128 0x13
 3811 0296 00       		.byte	0
 3812 0297 00       		.byte	0
 3813 0298 2E       		.uleb128 0x2e
 3814 0299 0B       		.uleb128 0xb
 3815 029a 01       		.byte	0x1
 3816 029b 55       		.uleb128 0x55
 3817 029c 17       		.uleb128 0x17
 3818 029d 00       		.byte	0
 3819 029e 00       		.byte	0
 3820 029f 2F       		.uleb128 0x2f
 3821 02a0 34       		.uleb128 0x34
 3822 02a1 00       		.byte	0
 3823 02a2 31       		.uleb128 0x31
 3824 02a3 13       		.uleb128 0x13
 3825 02a4 02       		.uleb128 0x2
 3826 02a5 18       		.uleb128 0x18
 3827 02a6 00       		.byte	0
 3828 02a7 00       		.byte	0
 3829 02a8 30       		.uleb128 0x30
 3830 02a9 1D       		.uleb128 0x1d
 3831 02aa 01       		.byte	0x1
 3832 02ab 31       		.uleb128 0x31
 3833 02ac 13       		.uleb128 0x13
 3834 02ad 11       		.uleb128 0x11
 3835 02ae 01       		.uleb128 0x1
 3836 02af 12       		.uleb128 0x12
 3837 02b0 06       		.uleb128 0x6
 3838 02b1 58       		.uleb128 0x58
 3839 02b2 0B       		.uleb128 0xb
 3840 02b3 59       		.uleb128 0x59
 3841 02b4 0B       		.uleb128 0xb
 3842 02b5 01       		.uleb128 0x1
 3843 02b6 13       		.uleb128 0x13
 3844 02b7 00       		.byte	0
 3845 02b8 00       		.byte	0
 3846 02b9 31       		.uleb128 0x31
 3847 02ba 1D       		.uleb128 0x1d
 3848 02bb 00       		.byte	0
 3849 02bc 31       		.uleb128 0x31
 3850 02bd 13       		.uleb128 0x13
ARM GAS  C:\Users\SDEVAS~1\AppData\Local\Temp\cchvSIah.s 			page 100


 3851 02be 52       		.uleb128 0x52
 3852 02bf 01       		.uleb128 0x1
 3853 02c0 55       		.uleb128 0x55
 3854 02c1 17       		.uleb128 0x17
 3855 02c2 58       		.uleb128 0x58
 3856 02c3 0B       		.uleb128 0xb
 3857 02c4 59       		.uleb128 0x59
 3858 02c5 05       		.uleb128 0x5
 3859 02c6 00       		.byte	0
 3860 02c7 00       		.byte	0
 3861 02c8 32       		.uleb128 0x32
 3862 02c9 2E       		.uleb128 0x2e
 3863 02ca 01       		.byte	0x1
 3864 02cb 3F       		.uleb128 0x3f
 3865 02cc 19       		.uleb128 0x19
 3866 02cd 03       		.uleb128 0x3
 3867 02ce 0E       		.uleb128 0xe
 3868 02cf 3A       		.uleb128 0x3a
 3869 02d0 0B       		.uleb128 0xb
 3870 02d1 3B       		.uleb128 0x3b
 3871 02d2 05       		.uleb128 0x5
 3872 02d3 27       		.uleb128 0x27
 3873 02d4 19       		.uleb128 0x19
 3874 02d5 11       		.uleb128 0x11
 3875 02d6 01       		.uleb128 0x1
 3876 02d7 12       		.uleb128 0x12
 3877 02d8 06       		.uleb128 0x6
 3878 02d9 40       		.uleb128 0x40
 3879 02da 18       		.uleb128 0x18
 3880 02db 9642     		.uleb128 0x2116
 3881 02dd 19       		.uleb128 0x19
 3882 02de 01       		.uleb128 0x1
 3883 02df 13       		.uleb128 0x13
 3884 02e0 00       		.byte	0
 3885 02e1 00       		.byte	0
 3886 02e2 33       		.uleb128 0x33
 3887 02e3 34       		.uleb128 0x34
 3888 02e4 00       		.byte	0
 3889 02e5 03       		.uleb128 0x3
 3890 02e6 0E       		.uleb128 0xe
 3891 02e7 3A       		.uleb128 0x3a
 3892 02e8 0B       		.uleb128 0xb
 3893 02e9 3B       		.uleb128 0x3b
 3894 02ea 0B       		.uleb128 0xb
 3895 02eb 49       		.uleb128 0x49
 3896 02ec 13       		.uleb128 0x13
 3897 02ed 02       		.uleb128 0x2
 3898 02ee 18       		.uleb128 0x18
 3899 02ef 00       		.byte	0
 3900 02f0 00       		.byte	0
 3901 02f1 34       		.uleb128 0x34
 3902 02f2 01       		.uleb128 0x1
 3903 02f3 01       		.byte	0x1
 3904 02f4 49       		.uleb128 0x49
 3905 02f5 13       		.uleb128 0x13
 3906 02f6 01       		.uleb128 0x1
 3907 02f7 13       		.uleb128 0x13
ARM GAS  C:\Users\SDEVAS~1\AppData\Local\Temp\cchvSIah.s 			page 101


 3908 02f8 00       		.byte	0
 3909 02f9 00       		.byte	0
 3910 02fa 35       		.uleb128 0x35
 3911 02fb 21       		.uleb128 0x21
 3912 02fc 00       		.byte	0
 3913 02fd 49       		.uleb128 0x49
 3914 02fe 13       		.uleb128 0x13
 3915 02ff 2F       		.uleb128 0x2f
 3916 0300 0B       		.uleb128 0xb
 3917 0301 00       		.byte	0
 3918 0302 00       		.byte	0
 3919 0303 36       		.uleb128 0x36
 3920 0304 26       		.uleb128 0x26
 3921 0305 00       		.byte	0
 3922 0306 49       		.uleb128 0x49
 3923 0307 13       		.uleb128 0x13
 3924 0308 00       		.byte	0
 3925 0309 00       		.byte	0
 3926 030a 37       		.uleb128 0x37
 3927 030b 2E       		.uleb128 0x2e
 3928 030c 00       		.byte	0
 3929 030d 3F       		.uleb128 0x3f
 3930 030e 19       		.uleb128 0x19
 3931 030f 03       		.uleb128 0x3
 3932 0310 0E       		.uleb128 0xe
 3933 0311 3A       		.uleb128 0x3a
 3934 0312 0B       		.uleb128 0xb
 3935 0313 3B       		.uleb128 0x3b
 3936 0314 0B       		.uleb128 0xb
 3937 0315 27       		.uleb128 0x27
 3938 0316 19       		.uleb128 0x19
 3939 0317 49       		.uleb128 0x49
 3940 0318 13       		.uleb128 0x13
 3941 0319 3C       		.uleb128 0x3c
 3942 031a 19       		.uleb128 0x19
 3943 031b 00       		.byte	0
 3944 031c 00       		.byte	0
 3945 031d 38       		.uleb128 0x38
 3946 031e 2E       		.uleb128 0x2e
 3947 031f 01       		.byte	0x1
 3948 0320 3F       		.uleb128 0x3f
 3949 0321 19       		.uleb128 0x19
 3950 0322 03       		.uleb128 0x3
 3951 0323 0E       		.uleb128 0xe
 3952 0324 3A       		.uleb128 0x3a
 3953 0325 0B       		.uleb128 0xb
 3954 0326 3B       		.uleb128 0x3b
 3955 0327 0B       		.uleb128 0xb
 3956 0328 27       		.uleb128 0x27
 3957 0329 19       		.uleb128 0x19
 3958 032a 3C       		.uleb128 0x3c
 3959 032b 19       		.uleb128 0x19
 3960 032c 01       		.uleb128 0x1
 3961 032d 13       		.uleb128 0x13
 3962 032e 00       		.byte	0
 3963 032f 00       		.byte	0
 3964 0330 39       		.uleb128 0x39
ARM GAS  C:\Users\SDEVAS~1\AppData\Local\Temp\cchvSIah.s 			page 102


 3965 0331 05       		.uleb128 0x5
 3966 0332 00       		.byte	0
 3967 0333 49       		.uleb128 0x49
 3968 0334 13       		.uleb128 0x13
 3969 0335 00       		.byte	0
 3970 0336 00       		.byte	0
 3971 0337 3A       		.uleb128 0x3a
 3972 0338 2E       		.uleb128 0x2e
 3973 0339 01       		.byte	0x1
 3974 033a 3F       		.uleb128 0x3f
 3975 033b 19       		.uleb128 0x19
 3976 033c 03       		.uleb128 0x3
 3977 033d 0E       		.uleb128 0xe
 3978 033e 3A       		.uleb128 0x3a
 3979 033f 0B       		.uleb128 0xb
 3980 0340 3B       		.uleb128 0x3b
 3981 0341 0B       		.uleb128 0xb
 3982 0342 27       		.uleb128 0x27
 3983 0343 19       		.uleb128 0x19
 3984 0344 3C       		.uleb128 0x3c
 3985 0345 19       		.uleb128 0x19
 3986 0346 00       		.byte	0
 3987 0347 00       		.byte	0
 3988 0348 00       		.byte	0
 3989              		.section	.debug_loc,"",%progbits
 3990              	.Ldebug_loc0:
 3991              	.LLST0:
 3992 0000 06000000 		.4byte	.LVL0
 3993 0004 15000000 		.4byte	.LVL1-1
 3994 0008 0100     		.2byte	0x1
 3995 000a 50       		.byte	0x50
 3996 000b 00000000 		.4byte	0
 3997 000f 00000000 		.4byte	0
 3998              	.LLST1:
 3999 0013 06000000 		.4byte	.LVL2
 4000 0017 25000000 		.4byte	.LVL3-1
 4001 001b 0100     		.2byte	0x1
 4002 001d 50       		.byte	0x50
 4003 001e 00000000 		.4byte	0
 4004 0022 00000000 		.4byte	0
 4005              	.LLST2:
 4006 0026 00000000 		.4byte	.LVL4
 4007 002a 04000000 		.4byte	.LVL5
 4008 002e 0100     		.2byte	0x1
 4009 0030 50       		.byte	0x50
 4010 0031 04000000 		.4byte	.LVL5
 4011 0035 18000000 		.4byte	.LFE6
 4012 0039 0400     		.2byte	0x4
 4013 003b F3       		.byte	0xf3
 4014 003c 01       		.uleb128 0x1
 4015 003d 50       		.byte	0x50
 4016 003e 9F       		.byte	0x9f
 4017 003f 00000000 		.4byte	0
 4018 0043 00000000 		.4byte	0
 4019              	.LLST3:
 4020 0047 00000000 		.4byte	.LVL6
 4021 004b 09000000 		.4byte	.LVL7-1
ARM GAS  C:\Users\SDEVAS~1\AppData\Local\Temp\cchvSIah.s 			page 103


 4022 004f 0100     		.2byte	0x1
 4023 0051 50       		.byte	0x50
 4024 0052 09000000 		.4byte	.LVL7-1
 4025 0056 14000000 		.4byte	.LVL9
 4026 005a 0100     		.2byte	0x1
 4027 005c 54       		.byte	0x54
 4028 005d 14000000 		.4byte	.LVL9
 4029 0061 2C000000 		.4byte	.LFE7
 4030 0065 0400     		.2byte	0x4
 4031 0067 F3       		.byte	0xf3
 4032 0068 01       		.uleb128 0x1
 4033 0069 50       		.byte	0x50
 4034 006a 9F       		.byte	0x9f
 4035 006b 00000000 		.4byte	0
 4036 006f 00000000 		.4byte	0
 4037              	.LLST4:
 4038 0073 00000000 		.4byte	.LVL6
 4039 0077 09000000 		.4byte	.LVL7-1
 4040 007b 0100     		.2byte	0x1
 4041 007d 51       		.byte	0x51
 4042 007e 09000000 		.4byte	.LVL7-1
 4043 0082 1E000000 		.4byte	.LVL11
 4044 0086 0100     		.2byte	0x1
 4045 0088 55       		.byte	0x55
 4046 0089 1E000000 		.4byte	.LVL11
 4047 008d 2C000000 		.4byte	.LFE7
 4048 0091 0400     		.2byte	0x4
 4049 0093 F3       		.byte	0xf3
 4050 0094 01       		.uleb128 0x1
 4051 0095 51       		.byte	0x51
 4052 0096 9F       		.byte	0x9f
 4053 0097 00000000 		.4byte	0
 4054 009b 00000000 		.4byte	0
 4055              	.LLST5:
 4056 009f 0E000000 		.4byte	.LVL8
 4057 00a3 1E000000 		.4byte	.LVL11
 4058 00a7 0100     		.2byte	0x1
 4059 00a9 55       		.byte	0x55
 4060 00aa 1E000000 		.4byte	.LVL11
 4061 00ae 26000000 		.4byte	.LVL13
 4062 00b2 0400     		.2byte	0x4
 4063 00b4 F3       		.byte	0xf3
 4064 00b5 01       		.uleb128 0x1
 4065 00b6 51       		.byte	0x51
 4066 00b7 9F       		.byte	0x9f
 4067 00b8 00000000 		.4byte	0
 4068 00bc 00000000 		.4byte	0
 4069              	.LLST6:
 4070 00c0 0E000000 		.4byte	.LVL8
 4071 00c4 14000000 		.4byte	.LVL9
 4072 00c8 0100     		.2byte	0x1
 4073 00ca 54       		.byte	0x54
 4074 00cb 14000000 		.4byte	.LVL9
 4075 00cf 26000000 		.4byte	.LVL13
 4076 00d3 0400     		.2byte	0x4
 4077 00d5 F3       		.byte	0xf3
 4078 00d6 01       		.uleb128 0x1
ARM GAS  C:\Users\SDEVAS~1\AppData\Local\Temp\cchvSIah.s 			page 104


 4079 00d7 50       		.byte	0x50
 4080 00d8 9F       		.byte	0x9f
 4081 00d9 00000000 		.4byte	0
 4082 00dd 00000000 		.4byte	0
 4083              	.LLST7:
 4084 00e1 1C000000 		.4byte	.LVL10
 4085 00e5 24000000 		.4byte	.LVL12
 4086 00e9 0100     		.2byte	0x1
 4087 00eb 51       		.byte	0x51
 4088 00ec 24000000 		.4byte	.LVL12
 4089 00f0 26000000 		.4byte	.LVL13
 4090 00f4 0100     		.2byte	0x1
 4091 00f6 54       		.byte	0x54
 4092 00f7 00000000 		.4byte	0
 4093 00fb 00000000 		.4byte	0
 4094              	.LLST8:
 4095 00ff 00000000 		.4byte	.LVL14
 4096 0103 04000000 		.4byte	.LVL15
 4097 0107 0100     		.2byte	0x1
 4098 0109 50       		.byte	0x50
 4099 010a 04000000 		.4byte	.LVL15
 4100 010e 14000000 		.4byte	.LFE8
 4101 0112 0400     		.2byte	0x4
 4102 0114 F3       		.byte	0xf3
 4103 0115 01       		.uleb128 0x1
 4104 0116 50       		.byte	0x50
 4105 0117 9F       		.byte	0x9f
 4106 0118 00000000 		.4byte	0
 4107 011c 00000000 		.4byte	0
 4108              	.LLST9:
 4109 0120 00000000 		.4byte	.LVL16
 4110 0124 09000000 		.4byte	.LVL17-1
 4111 0128 0100     		.2byte	0x1
 4112 012a 50       		.byte	0x50
 4113 012b 09000000 		.4byte	.LVL17-1
 4114 012f 12000000 		.4byte	.LVL18
 4115 0133 0100     		.2byte	0x1
 4116 0135 54       		.byte	0x54
 4117 0136 12000000 		.4byte	.LVL18
 4118 013a 2C000000 		.4byte	.LFE9
 4119 013e 0400     		.2byte	0x4
 4120 0140 F3       		.byte	0xf3
 4121 0141 01       		.uleb128 0x1
 4122 0142 50       		.byte	0x50
 4123 0143 9F       		.byte	0x9f
 4124 0144 00000000 		.4byte	0
 4125 0148 00000000 		.4byte	0
 4126              	.LLST10:
 4127 014c 00000000 		.4byte	.LVL16
 4128 0150 09000000 		.4byte	.LVL17-1
 4129 0154 0100     		.2byte	0x1
 4130 0156 51       		.byte	0x51
 4131 0157 09000000 		.4byte	.LVL17-1
 4132 015b 1E000000 		.4byte	.LVL20
 4133 015f 0100     		.2byte	0x1
 4134 0161 55       		.byte	0x55
 4135 0162 1E000000 		.4byte	.LVL20
ARM GAS  C:\Users\SDEVAS~1\AppData\Local\Temp\cchvSIah.s 			page 105


 4136 0166 2C000000 		.4byte	.LFE9
 4137 016a 0400     		.2byte	0x4
 4138 016c F3       		.byte	0xf3
 4139 016d 01       		.uleb128 0x1
 4140 016e 51       		.byte	0x51
 4141 016f 9F       		.byte	0x9f
 4142 0170 00000000 		.4byte	0
 4143 0174 00000000 		.4byte	0
 4144              	.LLST11:
 4145 0178 1C000000 		.4byte	.LVL19
 4146 017c 22000000 		.4byte	.LVL21
 4147 0180 0100     		.2byte	0x1
 4148 0182 52       		.byte	0x52
 4149 0183 22000000 		.4byte	.LVL21
 4150 0187 24000000 		.4byte	.LVL22
 4151 018b 0100     		.2byte	0x1
 4152 018d 54       		.byte	0x54
 4153 018e 00000000 		.4byte	0
 4154 0192 00000000 		.4byte	0
 4155              	.LLST12:
 4156 0196 00000000 		.4byte	.LVL23
 4157 019a 04000000 		.4byte	.LVL24
 4158 019e 0100     		.2byte	0x1
 4159 01a0 50       		.byte	0x50
 4160 01a1 04000000 		.4byte	.LVL24
 4161 01a5 18000000 		.4byte	.LFE10
 4162 01a9 0400     		.2byte	0x4
 4163 01ab F3       		.byte	0xf3
 4164 01ac 01       		.uleb128 0x1
 4165 01ad 50       		.byte	0x50
 4166 01ae 9F       		.byte	0x9f
 4167 01af 00000000 		.4byte	0
 4168 01b3 00000000 		.4byte	0
 4169              	.LLST13:
 4170 01b7 00000000 		.4byte	.LVL25
 4171 01bb 07000000 		.4byte	.LVL26-1
 4172 01bf 0100     		.2byte	0x1
 4173 01c1 50       		.byte	0x50
 4174 01c2 07000000 		.4byte	.LVL26-1
 4175 01c6 2E000000 		.4byte	.LVL33
 4176 01ca 0100     		.2byte	0x1
 4177 01cc 54       		.byte	0x54
 4178 01cd 2E000000 		.4byte	.LVL33
 4179 01d1 34000000 		.4byte	.LFE11
 4180 01d5 0400     		.2byte	0x4
 4181 01d7 F3       		.byte	0xf3
 4182 01d8 01       		.uleb128 0x1
 4183 01d9 50       		.byte	0x50
 4184 01da 9F       		.byte	0x9f
 4185 01db 00000000 		.4byte	0
 4186 01df 00000000 		.4byte	0
 4187              	.LLST14:
 4188 01e3 14000000 		.4byte	.LVL27
 4189 01e7 1A000000 		.4byte	.LVL28
 4190 01eb 0200     		.2byte	0x2
 4191 01ed 30       		.byte	0x30
 4192 01ee 9F       		.byte	0x9f
ARM GAS  C:\Users\SDEVAS~1\AppData\Local\Temp\cchvSIah.s 			page 106


 4193 01ef 00000000 		.4byte	0
 4194 01f3 00000000 		.4byte	0
 4195              	.LLST15:
 4196 01f7 1E000000 		.4byte	.LVL29
 4197 01fb 24000000 		.4byte	.LVL30
 4198 01ff 0200     		.2byte	0x2
 4199 0201 31       		.byte	0x31
 4200 0202 9F       		.byte	0x9f
 4201 0203 00000000 		.4byte	0
 4202 0207 00000000 		.4byte	0
 4203              	.LLST16:
 4204 020b 28000000 		.4byte	.LVL31
 4205 020f 2E000000 		.4byte	.LVL32
 4206 0213 0200     		.2byte	0x2
 4207 0215 32       		.byte	0x32
 4208 0216 9F       		.byte	0x9f
 4209 0217 00000000 		.4byte	0
 4210 021b 00000000 		.4byte	0
 4211              	.LLST17:
 4212 021f 18000000 		.4byte	.LVL35
 4213 0223 1E000000 		.4byte	.LVL36
 4214 0227 0200     		.2byte	0x2
 4215 0229 30       		.byte	0x30
 4216 022a 9F       		.byte	0x9f
 4217 022b 00000000 		.4byte	0
 4218 022f 00000000 		.4byte	0
 4219              	.LLST18:
 4220 0233 22000000 		.4byte	.LVL37
 4221 0237 28000000 		.4byte	.LVL38
 4222 023b 0200     		.2byte	0x2
 4223 023d 31       		.byte	0x31
 4224 023e 9F       		.byte	0x9f
 4225 023f 00000000 		.4byte	0
 4226 0243 00000000 		.4byte	0
 4227              	.LLST19:
 4228 0247 2C000000 		.4byte	.LVL39
 4229 024b 32000000 		.4byte	.LVL40
 4230 024f 0200     		.2byte	0x2
 4231 0251 32       		.byte	0x32
 4232 0252 9F       		.byte	0x9f
 4233 0253 00000000 		.4byte	0
 4234 0257 00000000 		.4byte	0
 4235              	.LLST20:
 4236 025b 00000000 		.4byte	.LVL41
 4237 025f 22000000 		.4byte	.LVL48
 4238 0263 0100     		.2byte	0x1
 4239 0265 50       		.byte	0x50
 4240 0266 22000000 		.4byte	.LVL48
 4241 026a 34000000 		.4byte	.LFE13
 4242 026e 0400     		.2byte	0x4
 4243 0270 F3       		.byte	0xf3
 4244 0271 01       		.uleb128 0x1
 4245 0272 50       		.byte	0x50
 4246 0273 9F       		.byte	0x9f
 4247 0274 00000000 		.4byte	0
 4248 0278 00000000 		.4byte	0
 4249              	.LLST21:
ARM GAS  C:\Users\SDEVAS~1\AppData\Local\Temp\cchvSIah.s 			page 107


 4250 027c 1E000000 		.4byte	.LVL46
 4251 0280 20000000 		.4byte	.LVL47
 4252 0284 0100     		.2byte	0x1
 4253 0286 51       		.byte	0x51
 4254 0287 20000000 		.4byte	.LVL47
 4255 028b 22000000 		.4byte	.LVL48
 4256 028f 0100     		.2byte	0x1
 4257 0291 52       		.byte	0x52
 4258 0292 22000000 		.4byte	.LVL48
 4259 0296 24000000 		.4byte	.LVL49
 4260 029a 0100     		.2byte	0x1
 4261 029c 50       		.byte	0x50
 4262 029d 00000000 		.4byte	0
 4263 02a1 00000000 		.4byte	0
 4264              	.LLST22:
 4265 02a5 0A000000 		.4byte	.LVL44
 4266 02a9 0C000000 		.4byte	.LVL45
 4267 02ad 1100     		.2byte	0x11
 4268 02af 71       		.byte	0x71
 4269 02b0 00       		.sleb128 0
 4270 02b1 39       		.byte	0x39
 4271 02b2 25       		.byte	0x25
 4272 02b3 74       		.byte	0x74
 4273 02b4 00       		.sleb128 0
 4274 02b5 31       		.byte	0x31
 4275 02b6 25       		.byte	0x25
 4276 02b7 21       		.byte	0x21
 4277 02b8 72       		.byte	0x72
 4278 02b9 00       		.sleb128 0
 4279 02ba 41       		.byte	0x41
 4280 02bb 25       		.byte	0x25
 4281 02bc 21       		.byte	0x21
 4282 02bd 31       		.byte	0x31
 4283 02be 1A       		.byte	0x1a
 4284 02bf 9F       		.byte	0x9f
 4285 02c0 00000000 		.4byte	0
 4286 02c4 00000000 		.4byte	0
 4287              	.LLST23:
 4288 02c8 00000000 		.4byte	.LVL50
 4289 02cc 06000000 		.4byte	.LVL51
 4290 02d0 0100     		.2byte	0x1
 4291 02d2 50       		.byte	0x50
 4292 02d3 06000000 		.4byte	.LVL51
 4293 02d7 26000000 		.4byte	.LVL57
 4294 02db 0100     		.2byte	0x1
 4295 02dd 55       		.byte	0x55
 4296 02de 26000000 		.4byte	.LVL57
 4297 02e2 30000000 		.4byte	.LFE15
 4298 02e6 0400     		.2byte	0x4
 4299 02e8 F3       		.byte	0xf3
 4300 02e9 01       		.uleb128 0x1
 4301 02ea 50       		.byte	0x50
 4302 02eb 9F       		.byte	0x9f
 4303 02ec 00000000 		.4byte	0
 4304 02f0 00000000 		.4byte	0
 4305              	.LLST24:
 4306 02f4 00000000 		.4byte	.LVL50
ARM GAS  C:\Users\SDEVAS~1\AppData\Local\Temp\cchvSIah.s 			page 108


 4307 02f8 0B000000 		.4byte	.LVL52-1
 4308 02fc 0100     		.2byte	0x1
 4309 02fe 51       		.byte	0x51
 4310 02ff 0B000000 		.4byte	.LVL52-1
 4311 0303 1A000000 		.4byte	.LVL55
 4312 0307 0100     		.2byte	0x1
 4313 0309 54       		.byte	0x54
 4314 030a 1A000000 		.4byte	.LVL55
 4315 030e 30000000 		.4byte	.LFE15
 4316 0312 0400     		.2byte	0x4
 4317 0314 F3       		.byte	0xf3
 4318 0315 01       		.uleb128 0x1
 4319 0316 51       		.byte	0x51
 4320 0317 9F       		.byte	0x9f
 4321 0318 00000000 		.4byte	0
 4322 031c 00000000 		.4byte	0
 4323              	.LLST25:
 4324 0320 14000000 		.4byte	.LVL53
 4325 0324 18000000 		.4byte	.LVL54
 4326 0328 0B00     		.2byte	0xb
 4327 032a 0A       		.byte	0xa
 4328 032b FFFF     		.2byte	0xffff
 4329 032d 70       		.byte	0x70
 4330 032e 00       		.sleb128 0
 4331 032f 24       		.byte	0x24
 4332 0330 20       		.byte	0x20
 4333 0331 72       		.byte	0x72
 4334 0332 00       		.sleb128 0
 4335 0333 1A       		.byte	0x1a
 4336 0334 9F       		.byte	0x9f
 4337 0335 18000000 		.4byte	.LVL54
 4338 0339 25000000 		.4byte	.LVL56-1
 4339 033d 0100     		.2byte	0x1
 4340 033f 52       		.byte	0x52
 4341 0340 00000000 		.4byte	0
 4342 0344 00000000 		.4byte	0
 4343              	.LLST26:
 4344 0348 00000000 		.4byte	.LVL58
 4345 034c 14000000 		.4byte	.LVL61
 4346 0350 0100     		.2byte	0x1
 4347 0352 50       		.byte	0x50
 4348 0353 14000000 		.4byte	.LVL61
 4349 0357 28000000 		.4byte	.LFE16
 4350 035b 0400     		.2byte	0x4
 4351 035d F3       		.byte	0xf3
 4352 035e 01       		.uleb128 0x1
 4353 035f 50       		.byte	0x50
 4354 0360 9F       		.byte	0x9f
 4355 0361 00000000 		.4byte	0
 4356 0365 00000000 		.4byte	0
 4357              	.LLST27:
 4358 0369 0E000000 		.4byte	.LVL59
 4359 036d 10000000 		.4byte	.LVL60
 4360 0371 0100     		.2byte	0x1
 4361 0373 51       		.byte	0x51
 4362 0374 10000000 		.4byte	.LVL60
 4363 0378 18000000 		.4byte	.LVL62
ARM GAS  C:\Users\SDEVAS~1\AppData\Local\Temp\cchvSIah.s 			page 109


 4364 037c 0100     		.2byte	0x1
 4365 037e 52       		.byte	0x52
 4366 037f 18000000 		.4byte	.LVL62
 4367 0383 1A000000 		.4byte	.LVL63
 4368 0387 0100     		.2byte	0x1
 4369 0389 50       		.byte	0x50
 4370 038a 00000000 		.4byte	0
 4371 038e 00000000 		.4byte	0
 4372              	.LLST28:
 4373 0392 00000000 		.4byte	.LVL64
 4374 0396 04000000 		.4byte	.LVL65
 4375 039a 0100     		.2byte	0x1
 4376 039c 50       		.byte	0x50
 4377 039d 04000000 		.4byte	.LVL65
 4378 03a1 10000000 		.4byte	.LFE18
 4379 03a5 0400     		.2byte	0x4
 4380 03a7 F3       		.byte	0xf3
 4381 03a8 01       		.uleb128 0x1
 4382 03a9 50       		.byte	0x50
 4383 03aa 9F       		.byte	0x9f
 4384 03ab 00000000 		.4byte	0
 4385 03af 00000000 		.4byte	0
 4386              	.LLST29:
 4387 03b3 00000000 		.4byte	.LVL66
 4388 03b7 10000000 		.4byte	.LVL67
 4389 03bb 0100     		.2byte	0x1
 4390 03bd 50       		.byte	0x50
 4391 03be 10000000 		.4byte	.LVL67
 4392 03c2 12000000 		.4byte	.LVL68
 4393 03c6 0400     		.2byte	0x4
 4394 03c8 F3       		.byte	0xf3
 4395 03c9 01       		.uleb128 0x1
 4396 03ca 50       		.byte	0x50
 4397 03cb 9F       		.byte	0x9f
 4398 03cc 12000000 		.4byte	.LVL68
 4399 03d0 16000000 		.4byte	.LVL69
 4400 03d4 0100     		.2byte	0x1
 4401 03d6 50       		.byte	0x50
 4402 03d7 16000000 		.4byte	.LVL69
 4403 03db 1A000000 		.4byte	.LVL71
 4404 03df 0400     		.2byte	0x4
 4405 03e1 F3       		.byte	0xf3
 4406 03e2 01       		.uleb128 0x1
 4407 03e3 50       		.byte	0x50
 4408 03e4 9F       		.byte	0x9f
 4409 03e5 1A000000 		.4byte	.LVL71
 4410 03e9 1E000000 		.4byte	.LVL72
 4411 03ed 0100     		.2byte	0x1
 4412 03ef 50       		.byte	0x50
 4413 03f0 1E000000 		.4byte	.LVL72
 4414 03f4 22000000 		.4byte	.LVL74
 4415 03f8 0400     		.2byte	0x4
 4416 03fa F3       		.byte	0xf3
 4417 03fb 01       		.uleb128 0x1
 4418 03fc 50       		.byte	0x50
 4419 03fd 9F       		.byte	0x9f
 4420 03fe 22000000 		.4byte	.LVL74
ARM GAS  C:\Users\SDEVAS~1\AppData\Local\Temp\cchvSIah.s 			page 110


 4421 0402 24000000 		.4byte	.LVL75
 4422 0406 0100     		.2byte	0x1
 4423 0408 50       		.byte	0x50
 4424 0409 24000000 		.4byte	.LVL75
 4425 040d 30000000 		.4byte	.LFE19
 4426 0411 0400     		.2byte	0x4
 4427 0413 F3       		.byte	0xf3
 4428 0414 01       		.uleb128 0x1
 4429 0415 50       		.byte	0x50
 4430 0416 9F       		.byte	0x9f
 4431 0417 00000000 		.4byte	0
 4432 041b 00000000 		.4byte	0
 4433              	.LLST30:
 4434 041f 00000000 		.4byte	.LVL66
 4435 0423 10000000 		.4byte	.LVL67
 4436 0427 0200     		.2byte	0x2
 4437 0429 30       		.byte	0x30
 4438 042a 9F       		.byte	0x9f
 4439 042b 10000000 		.4byte	.LVL67
 4440 042f 12000000 		.4byte	.LVL68
 4441 0433 0100     		.2byte	0x1
 4442 0435 50       		.byte	0x50
 4443 0436 12000000 		.4byte	.LVL68
 4444 043a 18000000 		.4byte	.LVL70
 4445 043e 0200     		.2byte	0x2
 4446 0440 30       		.byte	0x30
 4447 0441 9F       		.byte	0x9f
 4448 0442 18000000 		.4byte	.LVL70
 4449 0446 1A000000 		.4byte	.LVL71
 4450 044a 0100     		.2byte	0x1
 4451 044c 50       		.byte	0x50
 4452 044d 1A000000 		.4byte	.LVL71
 4453 0451 20000000 		.4byte	.LVL73
 4454 0455 0200     		.2byte	0x2
 4455 0457 30       		.byte	0x30
 4456 0458 9F       		.byte	0x9f
 4457 0459 20000000 		.4byte	.LVL73
 4458 045d 22000000 		.4byte	.LVL74
 4459 0461 0100     		.2byte	0x1
 4460 0463 50       		.byte	0x50
 4461 0464 22000000 		.4byte	.LVL74
 4462 0468 24000000 		.4byte	.LVL75
 4463 046c 0200     		.2byte	0x2
 4464 046e 30       		.byte	0x30
 4465 046f 9F       		.byte	0x9f
 4466 0470 24000000 		.4byte	.LVL75
 4467 0474 30000000 		.4byte	.LFE19
 4468 0478 0100     		.2byte	0x1
 4469 047a 50       		.byte	0x50
 4470 047b 00000000 		.4byte	0
 4471 047f 00000000 		.4byte	0
 4472              	.LLST31:
 4473 0483 20000000 		.4byte	.LVL77
 4474 0487 A2000000 		.4byte	.LVL87
 4475 048b 0200     		.2byte	0x2
 4476 048d 7D       		.byte	0x7d
 4477 048e 04       		.sleb128 4
ARM GAS  C:\Users\SDEVAS~1\AppData\Local\Temp\cchvSIah.s 			page 111


 4478 048f 00000000 		.4byte	0
 4479 0493 00000000 		.4byte	0
 4480              	.LLST32:
 4481 0497 6E000000 		.4byte	.LVL84
 4482 049b A2000000 		.4byte	.LVL87
 4483 049f 0200     		.2byte	0x2
 4484 04a1 7D       		.byte	0x7d
 4485 04a2 00       		.sleb128 0
 4486 04a3 00000000 		.4byte	0
 4487 04a7 00000000 		.4byte	0
 4488              	.LLST33:
 4489 04ab 20000000 		.4byte	.LVL77
 4490 04af A2000000 		.4byte	.LVL87
 4491 04b3 0200     		.2byte	0x2
 4492 04b5 30       		.byte	0x30
 4493 04b6 9F       		.byte	0x9f
 4494 04b7 00000000 		.4byte	0
 4495 04bb 00000000 		.4byte	0
 4496              	.LLST34:
 4497 04bf 30000000 		.4byte	.LVL78
 4498 04c3 64000000 		.4byte	.LVL82
 4499 04c7 0200     		.2byte	0x2
 4500 04c9 31       		.byte	0x31
 4501 04ca 9F       		.byte	0x9f
 4502 04cb 00000000 		.4byte	0
 4503 04cf 00000000 		.4byte	0
 4504              	.LLST35:
 4505 04d3 3C000000 		.4byte	.LVL79
 4506 04d7 64000000 		.4byte	.LVL82
 4507 04db 0200     		.2byte	0x2
 4508 04dd 32       		.byte	0x32
 4509 04de 9F       		.byte	0x9f
 4510 04df 00000000 		.4byte	0
 4511 04e3 00000000 		.4byte	0
 4512              	.LLST36:
 4513 04e7 50000000 		.4byte	.LVL80
 4514 04eb 64000000 		.4byte	.LVL82
 4515 04ef 0200     		.2byte	0x2
 4516 04f1 30       		.byte	0x30
 4517 04f2 9F       		.byte	0x9f
 4518 04f3 00000000 		.4byte	0
 4519 04f7 00000000 		.4byte	0
 4520              	.LLST37:
 4521 04fb 00000000 		.4byte	.LVL88
 4522 04ff 07000000 		.4byte	.LVL89-1
 4523 0503 0100     		.2byte	0x1
 4524 0505 50       		.byte	0x50
 4525 0506 07000000 		.4byte	.LVL89-1
 4526 050a 16000000 		.4byte	.LVL91
 4527 050e 0100     		.2byte	0x1
 4528 0510 54       		.byte	0x54
 4529 0511 16000000 		.4byte	.LVL91
 4530 0515 1E000000 		.4byte	.LVL92
 4531 0519 0900     		.2byte	0x9
 4532 051b 74       		.byte	0x74
 4533 051c 00       		.sleb128 0
 4534 051d 0C       		.byte	0xc
ARM GAS  C:\Users\SDEVAS~1\AppData\Local\Temp\cchvSIah.s 			page 112


 4535 051e 04040400 		.4byte	0x40404
 4536 0522 1A       		.byte	0x1a
 4537 0523 9F       		.byte	0x9f
 4538 0524 1E000000 		.4byte	.LVL92
 4539 0528 24000000 		.4byte	.LVL93
 4540 052c 0100     		.2byte	0x1
 4541 052e 54       		.byte	0x54
 4542 052f 24000000 		.4byte	.LVL93
 4543 0533 30000000 		.4byte	.LVL95
 4544 0537 0A00     		.2byte	0xa
 4545 0539 F3       		.byte	0xf3
 4546 053a 01       		.uleb128 0x1
 4547 053b 50       		.byte	0x50
 4548 053c 0C       		.byte	0xc
 4549 053d 04040400 		.4byte	0x40404
 4550 0541 1A       		.byte	0x1a
 4551 0542 9F       		.byte	0x9f
 4552 0543 38000000 		.4byte	.LVL98
 4553 0547 50000000 		.4byte	.LFE21
 4554 054b 0100     		.2byte	0x1
 4555 054d 54       		.byte	0x54
 4556 054e 00000000 		.4byte	0
 4557 0552 00000000 		.4byte	0
 4558              	.LLST38:
 4559 0556 12000000 		.4byte	.LVL90
 4560 055a 16000000 		.4byte	.LVL91
 4561 055e 0100     		.2byte	0x1
 4562 0560 50       		.byte	0x50
 4563 0561 16000000 		.4byte	.LVL91
 4564 0565 36000000 		.4byte	.LVL97
 4565 0569 0100     		.2byte	0x1
 4566 056b 55       		.byte	0x55
 4567 056c 38000000 		.4byte	.LVL98
 4568 0570 3B000000 		.4byte	.LVL99-1
 4569 0574 0100     		.2byte	0x1
 4570 0576 50       		.byte	0x50
 4571 0577 3B000000 		.4byte	.LVL99-1
 4572 057b 50000000 		.4byte	.LFE21
 4573 057f 0100     		.2byte	0x1
 4574 0581 55       		.byte	0x55
 4575 0582 00000000 		.4byte	0
 4576 0586 00000000 		.4byte	0
 4577              	.LLST39:
 4578 058a 16000000 		.4byte	.LVL91
 4579 058e 2C000000 		.4byte	.LVL94
 4580 0592 0100     		.2byte	0x1
 4581 0594 52       		.byte	0x52
 4582 0595 2C000000 		.4byte	.LVL94
 4583 0599 30000000 		.4byte	.LVL95
 4584 059d 0200     		.2byte	0x2
 4585 059f 31       		.byte	0x31
 4586 05a0 9F       		.byte	0x9f
 4587 05a1 38000000 		.4byte	.LVL98
 4588 05a5 50000000 		.4byte	.LFE21
 4589 05a9 0200     		.2byte	0x2
 4590 05ab 31       		.byte	0x31
 4591 05ac 9F       		.byte	0x9f
ARM GAS  C:\Users\SDEVAS~1\AppData\Local\Temp\cchvSIah.s 			page 113


 4592 05ad 00000000 		.4byte	0
 4593 05b1 00000000 		.4byte	0
 4594              	.LLST40:
 4595 05b5 00000000 		.4byte	.LVL100
 4596 05b9 08000000 		.4byte	.LVL101
 4597 05bd 0100     		.2byte	0x1
 4598 05bf 50       		.byte	0x50
 4599 05c0 08000000 		.4byte	.LVL101
 4600 05c4 1C000000 		.4byte	.LFE22
 4601 05c8 0400     		.2byte	0x4
 4602 05ca F3       		.byte	0xf3
 4603 05cb 01       		.uleb128 0x1
 4604 05cc 50       		.byte	0x50
 4605 05cd 9F       		.byte	0x9f
 4606 05ce 00000000 		.4byte	0
 4607 05d2 00000000 		.4byte	0
 4608              	.LLST41:
 4609 05d6 00000000 		.4byte	.LVL102
 4610 05da 08000000 		.4byte	.LVL103
 4611 05de 0100     		.2byte	0x1
 4612 05e0 50       		.byte	0x50
 4613 05e1 08000000 		.4byte	.LVL103
 4614 05e5 10000000 		.4byte	.LVL105
 4615 05e9 0400     		.2byte	0x4
 4616 05eb F3       		.byte	0xf3
 4617 05ec 01       		.uleb128 0x1
 4618 05ed 50       		.byte	0x50
 4619 05ee 9F       		.byte	0x9f
 4620 05ef 10000000 		.4byte	.LVL105
 4621 05f3 12000000 		.4byte	.LVL106
 4622 05f7 0100     		.2byte	0x1
 4623 05f9 50       		.byte	0x50
 4624 05fa 12000000 		.4byte	.LVL106
 4625 05fe 18000000 		.4byte	.LFE23
 4626 0602 0400     		.2byte	0x4
 4627 0604 F3       		.byte	0xf3
 4628 0605 01       		.uleb128 0x1
 4629 0606 50       		.byte	0x50
 4630 0607 9F       		.byte	0x9f
 4631 0608 00000000 		.4byte	0
 4632 060c 00000000 		.4byte	0
 4633              	.LLST42:
 4634 0610 00000000 		.4byte	.LVL102
 4635 0614 0C000000 		.4byte	.LVL104
 4636 0618 0200     		.2byte	0x2
 4637 061a 30       		.byte	0x30
 4638 061b 9F       		.byte	0x9f
 4639 061c 0C000000 		.4byte	.LVL104
 4640 0620 10000000 		.4byte	.LVL105
 4641 0624 0100     		.2byte	0x1
 4642 0626 50       		.byte	0x50
 4643 0627 10000000 		.4byte	.LVL105
 4644 062b 12000000 		.4byte	.LVL106
 4645 062f 0200     		.2byte	0x2
 4646 0631 30       		.byte	0x30
 4647 0632 9F       		.byte	0x9f
 4648 0633 12000000 		.4byte	.LVL106
ARM GAS  C:\Users\SDEVAS~1\AppData\Local\Temp\cchvSIah.s 			page 114


 4649 0637 18000000 		.4byte	.LFE23
 4650 063b 0100     		.2byte	0x1
 4651 063d 50       		.byte	0x50
 4652 063e 00000000 		.4byte	0
 4653 0642 00000000 		.4byte	0
 4654              	.LLST43:
 4655 0646 00000000 		.4byte	.LVL107
 4656 064a 08000000 		.4byte	.LVL108
 4657 064e 0100     		.2byte	0x1
 4658 0650 50       		.byte	0x50
 4659 0651 08000000 		.4byte	.LVL108
 4660 0655 0E000000 		.4byte	.LVL110
 4661 0659 0400     		.2byte	0x4
 4662 065b F3       		.byte	0xf3
 4663 065c 01       		.uleb128 0x1
 4664 065d 50       		.byte	0x50
 4665 065e 9F       		.byte	0x9f
 4666 065f 0E000000 		.4byte	.LVL110
 4667 0663 10000000 		.4byte	.LVL111
 4668 0667 0100     		.2byte	0x1
 4669 0669 50       		.byte	0x50
 4670 066a 10000000 		.4byte	.LVL111
 4671 066e 18000000 		.4byte	.LFE24
 4672 0672 0400     		.2byte	0x4
 4673 0674 F3       		.byte	0xf3
 4674 0675 01       		.uleb128 0x1
 4675 0676 50       		.byte	0x50
 4676 0677 9F       		.byte	0x9f
 4677 0678 00000000 		.4byte	0
 4678 067c 00000000 		.4byte	0
 4679              	.LLST44:
 4680 0680 00000000 		.4byte	.LVL107
 4681 0684 0C000000 		.4byte	.LVL109
 4682 0688 0200     		.2byte	0x2
 4683 068a 30       		.byte	0x30
 4684 068b 9F       		.byte	0x9f
 4685 068c 0C000000 		.4byte	.LVL109
 4686 0690 0E000000 		.4byte	.LVL110
 4687 0694 0100     		.2byte	0x1
 4688 0696 50       		.byte	0x50
 4689 0697 0E000000 		.4byte	.LVL110
 4690 069b 10000000 		.4byte	.LVL111
 4691 069f 0200     		.2byte	0x2
 4692 06a1 30       		.byte	0x30
 4693 06a2 9F       		.byte	0x9f
 4694 06a3 10000000 		.4byte	.LVL111
 4695 06a7 18000000 		.4byte	.LFE24
 4696 06ab 0100     		.2byte	0x1
 4697 06ad 50       		.byte	0x50
 4698 06ae 00000000 		.4byte	0
 4699 06b2 00000000 		.4byte	0
 4700              	.LLST45:
 4701 06b6 00000000 		.4byte	.LVL112
 4702 06ba 0A000000 		.4byte	.LVL113
 4703 06be 0100     		.2byte	0x1
 4704 06c0 50       		.byte	0x50
 4705 06c1 0A000000 		.4byte	.LVL113
ARM GAS  C:\Users\SDEVAS~1\AppData\Local\Temp\cchvSIah.s 			page 115


 4706 06c5 28000000 		.4byte	.LFE25
 4707 06c9 0400     		.2byte	0x4
 4708 06cb F3       		.byte	0xf3
 4709 06cc 01       		.uleb128 0x1
 4710 06cd 50       		.byte	0x50
 4711 06ce 9F       		.byte	0x9f
 4712 06cf 00000000 		.4byte	0
 4713 06d3 00000000 		.4byte	0
 4714              	.LLST46:
 4715 06d7 00000000 		.4byte	.LVL114
 4716 06db 0A000000 		.4byte	.LVL115
 4717 06df 0100     		.2byte	0x1
 4718 06e1 50       		.byte	0x50
 4719 06e2 0A000000 		.4byte	.LVL115
 4720 06e6 1C000000 		.4byte	.LFE26
 4721 06ea 0400     		.2byte	0x4
 4722 06ec F3       		.byte	0xf3
 4723 06ed 01       		.uleb128 0x1
 4724 06ee 50       		.byte	0x50
 4725 06ef 9F       		.byte	0x9f
 4726 06f0 00000000 		.4byte	0
 4727 06f4 00000000 		.4byte	0
 4728              	.LLST47:
 4729 06f8 00000000 		.4byte	.LVL122
 4730 06fc 0F000000 		.4byte	.LVL123-1
 4731 0700 0100     		.2byte	0x1
 4732 0702 50       		.byte	0x50
 4733 0703 0F000000 		.4byte	.LVL123-1
 4734 0707 52000000 		.4byte	.LVL132
 4735 070b 0100     		.2byte	0x1
 4736 070d 54       		.byte	0x54
 4737 070e 52000000 		.4byte	.LVL132
 4738 0712 64000000 		.4byte	.LFE29
 4739 0716 0400     		.2byte	0x4
 4740 0718 F3       		.byte	0xf3
 4741 0719 01       		.uleb128 0x1
 4742 071a 50       		.byte	0x50
 4743 071b 9F       		.byte	0x9f
 4744 071c 00000000 		.4byte	0
 4745 0720 00000000 		.4byte	0
 4746              	.LLST48:
 4747 0724 00000000 		.4byte	.LVL122
 4748 0728 0F000000 		.4byte	.LVL123-1
 4749 072c 0100     		.2byte	0x1
 4750 072e 51       		.byte	0x51
 4751 072f 0F000000 		.4byte	.LVL123-1
 4752 0733 64000000 		.4byte	.LFE29
 4753 0737 0400     		.2byte	0x4
 4754 0739 F3       		.byte	0xf3
 4755 073a 01       		.uleb128 0x1
 4756 073b 51       		.byte	0x51
 4757 073c 9F       		.byte	0x9f
 4758 073d 00000000 		.4byte	0
 4759 0741 00000000 		.4byte	0
 4760              	.LLST49:
 4761 0745 00000000 		.4byte	.LVL122
 4762 0749 0F000000 		.4byte	.LVL123-1
ARM GAS  C:\Users\SDEVAS~1\AppData\Local\Temp\cchvSIah.s 			page 116


 4763 074d 0100     		.2byte	0x1
 4764 074f 52       		.byte	0x52
 4765 0750 0F000000 		.4byte	.LVL123-1
 4766 0754 52000000 		.4byte	.LVL133
 4767 0758 0100     		.2byte	0x1
 4768 075a 55       		.byte	0x55
 4769 075b 52000000 		.4byte	.LVL133
 4770 075f 64000000 		.4byte	.LFE29
 4771 0763 0400     		.2byte	0x4
 4772 0765 F3       		.byte	0xf3
 4773 0766 01       		.uleb128 0x1
 4774 0767 52       		.byte	0x52
 4775 0768 9F       		.byte	0x9f
 4776 0769 00000000 		.4byte	0
 4777 076d 00000000 		.4byte	0
 4778              	.LLST50:
 4779 0771 24000000 		.4byte	.LVL124
 4780 0775 2A000000 		.4byte	.LVL125
 4781 0779 0100     		.2byte	0x1
 4782 077b 50       		.byte	0x50
 4783 077c 2E000000 		.4byte	.LVL126
 4784 0780 34000000 		.4byte	.LVL127
 4785 0784 0100     		.2byte	0x1
 4786 0786 50       		.byte	0x50
 4787 0787 3E000000 		.4byte	.LVL128
 4788 078b 50000000 		.4byte	.LVL130
 4789 078f 0100     		.2byte	0x1
 4790 0791 56       		.byte	0x56
 4791 0792 50000000 		.4byte	.LVL130
 4792 0796 52000000 		.4byte	.LVL131
 4793 079a 0A00     		.2byte	0xa
 4794 079c 74       		.byte	0x74
 4795 079d 00       		.sleb128 0
 4796 079e 32       		.byte	0x32
 4797 079f 24       		.byte	0x24
 4798 07a0 03       		.byte	0x3
 4799 07a1 00000000 		.4byte	.LANCHOR1
 4800 07a5 22       		.byte	0x22
 4801 07a6 00000000 		.4byte	0
 4802 07aa 00000000 		.4byte	0
 4803              	.LLST51:
 4804 07ae 00000000 		.4byte	.LVL134
 4805 07b2 0F000000 		.4byte	.LVL135-1
 4806 07b6 0100     		.2byte	0x1
 4807 07b8 50       		.byte	0x50
 4808 07b9 0F000000 		.4byte	.LVL135-1
 4809 07bd 2C000000 		.4byte	.LVL140
 4810 07c1 0100     		.2byte	0x1
 4811 07c3 54       		.byte	0x54
 4812 07c4 2C000000 		.4byte	.LVL140
 4813 07c8 34000000 		.4byte	.LFE28
 4814 07cc 0400     		.2byte	0x4
 4815 07ce F3       		.byte	0xf3
 4816 07cf 01       		.uleb128 0x1
 4817 07d0 50       		.byte	0x50
 4818 07d1 9F       		.byte	0x9f
 4819 07d2 00000000 		.4byte	0
ARM GAS  C:\Users\SDEVAS~1\AppData\Local\Temp\cchvSIah.s 			page 117


 4820 07d6 00000000 		.4byte	0
 4821              	.LLST52:
 4822 07da 00000000 		.4byte	.LVL134
 4823 07de 0F000000 		.4byte	.LVL135-1
 4824 07e2 0100     		.2byte	0x1
 4825 07e4 51       		.byte	0x51
 4826 07e5 0F000000 		.4byte	.LVL135-1
 4827 07e9 34000000 		.4byte	.LFE28
 4828 07ed 0400     		.2byte	0x4
 4829 07ef F3       		.byte	0xf3
 4830 07f0 01       		.uleb128 0x1
 4831 07f1 51       		.byte	0x51
 4832 07f2 9F       		.byte	0x9f
 4833 07f3 00000000 		.4byte	0
 4834 07f7 00000000 		.4byte	0
 4835              	.LLST53:
 4836 07fb 00000000 		.4byte	.LVL134
 4837 07ff 0F000000 		.4byte	.LVL135-1
 4838 0803 0100     		.2byte	0x1
 4839 0805 52       		.byte	0x52
 4840 0806 0F000000 		.4byte	.LVL135-1
 4841 080a 22000000 		.4byte	.LVL137
 4842 080e 0100     		.2byte	0x1
 4843 0810 55       		.byte	0x55
 4844 0811 22000000 		.4byte	.LVL137
 4845 0815 34000000 		.4byte	.LFE28
 4846 0819 0400     		.2byte	0x4
 4847 081b F3       		.byte	0xf3
 4848 081c 01       		.uleb128 0x1
 4849 081d 52       		.byte	0x52
 4850 081e 9F       		.byte	0x9f
 4851 081f 00000000 		.4byte	0
 4852 0823 00000000 		.4byte	0
 4853              	.LLST54:
 4854 0827 20000000 		.4byte	.LVL136
 4855 082b 26000000 		.4byte	.LVL138
 4856 082f 0100     		.2byte	0x1
 4857 0831 50       		.byte	0x50
 4858 0832 00000000 		.4byte	0
 4859 0836 00000000 		.4byte	0
 4860              	.LLST55:
 4861 083a 20000000 		.4byte	.LVL136
 4862 083e 22000000 		.4byte	.LVL137
 4863 0842 0A00     		.2byte	0xa
 4864 0844 70       		.byte	0x70
 4865 0845 00       		.sleb128 0
 4866 0846 75       		.byte	0x75
 4867 0847 00       		.sleb128 0
 4868 0848 22       		.byte	0x22
 4869 0849 0A       		.byte	0xa
 4870 084a FFFF     		.2byte	0xffff
 4871 084c 1A       		.byte	0x1a
 4872 084d 9F       		.byte	0x9f
 4873 084e 22000000 		.4byte	.LVL137
 4874 0852 26000000 		.4byte	.LVL138
 4875 0856 0B00     		.2byte	0xb
 4876 0858 70       		.byte	0x70
ARM GAS  C:\Users\SDEVAS~1\AppData\Local\Temp\cchvSIah.s 			page 118


 4877 0859 00       		.sleb128 0
 4878 085a F3       		.byte	0xf3
 4879 085b 01       		.uleb128 0x1
 4880 085c 52       		.byte	0x52
 4881 085d 22       		.byte	0x22
 4882 085e 0A       		.byte	0xa
 4883 085f FFFF     		.2byte	0xffff
 4884 0861 1A       		.byte	0x1a
 4885 0862 9F       		.byte	0x9f
 4886 0863 00000000 		.4byte	0
 4887 0867 00000000 		.4byte	0
 4888              	.LLST56:
 4889 086b 00000000 		.4byte	.LVL141
 4890 086f 09000000 		.4byte	.LVL142-1
 4891 0873 0100     		.2byte	0x1
 4892 0875 50       		.byte	0x50
 4893 0876 09000000 		.4byte	.LVL142-1
 4894 087a 22000000 		.4byte	.LVL145
 4895 087e 0100     		.2byte	0x1
 4896 0880 54       		.byte	0x54
 4897 0881 22000000 		.4byte	.LVL145
 4898 0885 29000000 		.4byte	.LVL146-1
 4899 0889 0100     		.2byte	0x1
 4900 088b 50       		.byte	0x50
 4901 088c 29000000 		.4byte	.LVL146-1
 4902 0890 48000000 		.4byte	.LVL150
 4903 0894 0100     		.2byte	0x1
 4904 0896 54       		.byte	0x54
 4905 0897 48000000 		.4byte	.LVL150
 4906 089b 4A000000 		.4byte	.LFE30
 4907 089f 0400     		.2byte	0x4
 4908 08a1 F3       		.byte	0xf3
 4909 08a2 01       		.uleb128 0x1
 4910 08a3 50       		.byte	0x50
 4911 08a4 9F       		.byte	0x9f
 4912 08a5 00000000 		.4byte	0
 4913 08a9 00000000 		.4byte	0
 4914              		.section	.debug_aranges,"",%progbits
 4915 0000 FC000000 		.4byte	0xfc
 4916 0004 0200     		.2byte	0x2
 4917 0006 00000000 		.4byte	.Ldebug_info0
 4918 000a 04       		.byte	0x4
 4919 000b 00       		.byte	0
 4920 000c 0000     		.2byte	0
 4921 000e 0000     		.2byte	0
 4922 0010 00000000 		.4byte	.LFB0
 4923 0014 14000000 		.4byte	.LFE0-.LFB0
 4924 0018 00000000 		.4byte	.LFB3
 4925 001c 1C000000 		.4byte	.LFE3-.LFB3
 4926 0020 00000000 		.4byte	.LFB5
 4927 0024 30000000 		.4byte	.LFE5-.LFB5
 4928 0028 00000000 		.4byte	.LFB6
 4929 002c 18000000 		.4byte	.LFE6-.LFB6
 4930 0030 00000000 		.4byte	.LFB7
 4931 0034 2C000000 		.4byte	.LFE7-.LFB7
 4932 0038 00000000 		.4byte	.LFB8
 4933 003c 14000000 		.4byte	.LFE8-.LFB8
ARM GAS  C:\Users\SDEVAS~1\AppData\Local\Temp\cchvSIah.s 			page 119


 4934 0040 00000000 		.4byte	.LFB9
 4935 0044 2C000000 		.4byte	.LFE9-.LFB9
 4936 0048 00000000 		.4byte	.LFB10
 4937 004c 18000000 		.4byte	.LFE10-.LFB10
 4938 0050 00000000 		.4byte	.LFB11
 4939 0054 34000000 		.4byte	.LFE11-.LFB11
 4940 0058 00000000 		.4byte	.LFB12
 4941 005c 3C000000 		.4byte	.LFE12-.LFB12
 4942 0060 00000000 		.4byte	.LFB13
 4943 0064 34000000 		.4byte	.LFE13-.LFB13
 4944 0068 00000000 		.4byte	.LFB14
 4945 006c 14000000 		.4byte	.LFE14-.LFB14
 4946 0070 00000000 		.4byte	.LFB15
 4947 0074 30000000 		.4byte	.LFE15-.LFB15
 4948 0078 00000000 		.4byte	.LFB16
 4949 007c 28000000 		.4byte	.LFE16-.LFB16
 4950 0080 00000000 		.4byte	.LFB17
 4951 0084 10000000 		.4byte	.LFE17-.LFB17
 4952 0088 00000000 		.4byte	.LFB18
 4953 008c 10000000 		.4byte	.LFE18-.LFB18
 4954 0090 00000000 		.4byte	.LFB19
 4955 0094 30000000 		.4byte	.LFE19-.LFB19
 4956 0098 00000000 		.4byte	.LFB1
 4957 009c B8000000 		.4byte	.LFE1-.LFB1
 4958 00a0 00000000 		.4byte	.LFB20
 4959 00a4 14000000 		.4byte	.LFE20-.LFB20
 4960 00a8 00000000 		.4byte	.LFB21
 4961 00ac 50000000 		.4byte	.LFE21-.LFB21
 4962 00b0 00000000 		.4byte	.LFB22
 4963 00b4 1C000000 		.4byte	.LFE22-.LFB22
 4964 00b8 00000000 		.4byte	.LFB23
 4965 00bc 18000000 		.4byte	.LFE23-.LFB23
 4966 00c0 00000000 		.4byte	.LFB24
 4967 00c4 18000000 		.4byte	.LFE24-.LFB24
 4968 00c8 00000000 		.4byte	.LFB25
 4969 00cc 28000000 		.4byte	.LFE25-.LFB25
 4970 00d0 00000000 		.4byte	.LFB26
 4971 00d4 1C000000 		.4byte	.LFE26-.LFB26
 4972 00d8 00000000 		.4byte	.LFB27
 4973 00dc A0000000 		.4byte	.LFE27-.LFB27
 4974 00e0 00000000 		.4byte	.LFB29
 4975 00e4 64000000 		.4byte	.LFE29-.LFB29
 4976 00e8 00000000 		.4byte	.LFB28
 4977 00ec 34000000 		.4byte	.LFE28-.LFB28
 4978 00f0 00000000 		.4byte	.LFB30
 4979 00f4 4A000000 		.4byte	.LFE30-.LFB30
 4980 00f8 00000000 		.4byte	0
 4981 00fc 00000000 		.4byte	0
 4982              		.section	.debug_ranges,"",%progbits
 4983              	.Ldebug_ranges0:
 4984 0000 00000000 		.4byte	.LBB40
 4985 0004 02000000 		.4byte	.LBE40
 4986 0008 04000000 		.4byte	.LBB44
 4987 000c 06000000 		.4byte	.LBE44
 4988 0010 0C000000 		.4byte	.LBB52
 4989 0014 0E000000 		.4byte	.LBE52
 4990 0018 00000000 		.4byte	0
ARM GAS  C:\Users\SDEVAS~1\AppData\Local\Temp\cchvSIah.s 			page 120


 4991 001c 00000000 		.4byte	0
 4992 0020 06000000 		.4byte	.LBB45
 4993 0024 08000000 		.4byte	.LBE45
 4994 0028 0A000000 		.4byte	.LBB51
 4995 002c 0C000000 		.4byte	.LBE51
 4996 0030 00000000 		.4byte	0
 4997 0034 00000000 		.4byte	0
 4998 0038 08000000 		.4byte	.LBB48
 4999 003c 0A000000 		.4byte	.LBE48
 5000 0040 10000000 		.4byte	.LBB53
 5001 0044 12000000 		.4byte	.LBE53
 5002 0048 00000000 		.4byte	0
 5003 004c 00000000 		.4byte	0
 5004 0050 1C000000 		.4byte	.LBB78
 5005 0054 1E000000 		.4byte	.LBE78
 5006 0058 20000000 		.4byte	.LBB93
 5007 005c 7A000000 		.4byte	.LBE93
 5008 0060 00000000 		.4byte	0
 5009 0064 00000000 		.4byte	0
 5010 0068 1C000000 		.4byte	.LBB80
 5011 006c 1E000000 		.4byte	.LBE80
 5012 0070 20000000 		.4byte	.LBB83
 5013 0074 26000000 		.4byte	.LBE83
 5014 0078 00000000 		.4byte	0
 5015 007c 00000000 		.4byte	0
 5016 0080 4A000000 		.4byte	.LBB88
 5017 0084 4C000000 		.4byte	.LBE88
 5018 0088 50000000 		.4byte	.LBB91
 5019 008c 56000000 		.4byte	.LBE91
 5020 0090 00000000 		.4byte	0
 5021 0094 00000000 		.4byte	0
 5022 0098 08000000 		.4byte	.LBB98
 5023 009c 10000000 		.4byte	.LBE98
 5024 00a0 12000000 		.4byte	.LBB101
 5025 00a4 16000000 		.4byte	.LBE101
 5026 00a8 00000000 		.4byte	0
 5027 00ac 00000000 		.4byte	0
 5028 00b0 00000000 		.4byte	.LFB0
 5029 00b4 14000000 		.4byte	.LFE0
 5030 00b8 00000000 		.4byte	.LFB3
 5031 00bc 1C000000 		.4byte	.LFE3
 5032 00c0 00000000 		.4byte	.LFB5
 5033 00c4 30000000 		.4byte	.LFE5
 5034 00c8 00000000 		.4byte	.LFB6
 5035 00cc 18000000 		.4byte	.LFE6
 5036 00d0 00000000 		.4byte	.LFB7
 5037 00d4 2C000000 		.4byte	.LFE7
 5038 00d8 00000000 		.4byte	.LFB8
 5039 00dc 14000000 		.4byte	.LFE8
 5040 00e0 00000000 		.4byte	.LFB9
 5041 00e4 2C000000 		.4byte	.LFE9
 5042 00e8 00000000 		.4byte	.LFB10
 5043 00ec 18000000 		.4byte	.LFE10
 5044 00f0 00000000 		.4byte	.LFB11
 5045 00f4 34000000 		.4byte	.LFE11
 5046 00f8 00000000 		.4byte	.LFB12
 5047 00fc 3C000000 		.4byte	.LFE12
ARM GAS  C:\Users\SDEVAS~1\AppData\Local\Temp\cchvSIah.s 			page 121


 5048 0100 00000000 		.4byte	.LFB13
 5049 0104 34000000 		.4byte	.LFE13
 5050 0108 00000000 		.4byte	.LFB14
 5051 010c 14000000 		.4byte	.LFE14
 5052 0110 00000000 		.4byte	.LFB15
 5053 0114 30000000 		.4byte	.LFE15
 5054 0118 00000000 		.4byte	.LFB16
 5055 011c 28000000 		.4byte	.LFE16
 5056 0120 00000000 		.4byte	.LFB17
 5057 0124 10000000 		.4byte	.LFE17
 5058 0128 00000000 		.4byte	.LFB18
 5059 012c 10000000 		.4byte	.LFE18
 5060 0130 00000000 		.4byte	.LFB19
 5061 0134 30000000 		.4byte	.LFE19
 5062 0138 00000000 		.4byte	.LFB1
 5063 013c B8000000 		.4byte	.LFE1
 5064 0140 00000000 		.4byte	.LFB20
 5065 0144 14000000 		.4byte	.LFE20
 5066 0148 00000000 		.4byte	.LFB21
 5067 014c 50000000 		.4byte	.LFE21
 5068 0150 00000000 		.4byte	.LFB22
 5069 0154 1C000000 		.4byte	.LFE22
 5070 0158 00000000 		.4byte	.LFB23
 5071 015c 18000000 		.4byte	.LFE23
 5072 0160 00000000 		.4byte	.LFB24
 5073 0164 18000000 		.4byte	.LFE24
 5074 0168 00000000 		.4byte	.LFB25
 5075 016c 28000000 		.4byte	.LFE25
 5076 0170 00000000 		.4byte	.LFB26
 5077 0174 1C000000 		.4byte	.LFE26
 5078 0178 00000000 		.4byte	.LFB27
 5079 017c A0000000 		.4byte	.LFE27
 5080 0180 00000000 		.4byte	.LFB29
 5081 0184 64000000 		.4byte	.LFE29
 5082 0188 00000000 		.4byte	.LFB28
 5083 018c 34000000 		.4byte	.LFE28
 5084 0190 00000000 		.4byte	.LFB30
 5085 0194 4A000000 		.4byte	.LFE30
 5086 0198 00000000 		.4byte	0
 5087 019c 00000000 		.4byte	0
 5088              		.section	.debug_line,"",%progbits
 5089              	.Ldebug_line0:
 5090 0000 D6030000 		.section	.debug_str,"MS",%progbits,1
 5090      02005E00 
 5090      00000201 
 5090      FB0E0D00 
 5090      01010101 
 5091              	.LASF10:
 5092 0000 75696E74 		.ascii	"uint16\000"
 5092      313600
 5093              	.LASF79:
 5094 0007 43794578 		.ascii	"CyExitCriticalSection\000"
 5094      69744372 
 5094      69746963 
 5094      616C5365 
 5094      6374696F 
 5095              	.LASF76:
ARM GAS  C:\Users\SDEVAS~1\AppData\Local\Temp\cchvSIah.s 			page 122


 5096 001d 636F756E 		.ascii	"counterIntMaskTbl\000"
 5096      74657249 
 5096      6E744D61 
 5096      736B5462 
 5096      6C00
 5097              	.LASF77:
 5098 002f 63795379 		.ascii	"cySysWdtCallback\000"
 5098      73576474 
 5098      43616C6C 
 5098      6261636B 
 5098      00
 5099              	.LASF78:
 5100 0040 43795379 		.ascii	"CySysWdtSetMode\000"
 5100      73576474 
 5100      5365744D 
 5100      6F646500 
 5101              	.LASF24:
 5102 0050 43795379 		.ascii	"CySysWdtUnlock\000"
 5102      73576474 
 5102      556E6C6F 
 5102      636B00
 5103              	.LASF71:
 5104 005f 43795379 		.ascii	"CySysWatchdogFeed\000"
 5104      73576174 
 5104      6368646F 
 5104      67466565 
 5104      6400
 5105              	.LASF82:
 5106 0071 443A5C55 		.ascii	"D:\\Users\\sdevasenapathy\\atoms\\AtomWorkspace\\At"
 5106      73657273 
 5106      5C736465 
 5106      76617365 
 5106      6E617061 
 5107 009f 6F6D2E63 		.ascii	"om.cydsn\000"
 5107      7964736E 
 5107      00
 5108              	.LASF21:
 5109 00a8 636F756E 		.ascii	"counterNum\000"
 5109      7465724E 
 5109      756D00
 5110              	.LASF84:
 5111 00b3 43795379 		.ascii	"CySysClkLfclkPosedgeCatch\000"
 5111      73436C6B 
 5111      4C66636C 
 5111      6B506F73 
 5111      65646765 
 5112              	.LASF42:
 5113 00cd 43795379 		.ascii	"CySysWdtGetCascade\000"
 5113      73576474 
 5113      47657443 
 5113      61736361 
 5113      646500
 5114              	.LASF72:
 5115 00e0 6C66636C 		.ascii	"lfclkPosedgeWdtCounter0Enabled\000"
 5115      6B506F73 
 5115      65646765 
 5115      57647443 
ARM GAS  C:\Users\SDEVAS~1\AppData\Local\Temp\cchvSIah.s 			page 123


 5115      6F756E74 
 5116              	.LASF7:
 5117 00ff 6C6F6E67 		.ascii	"long long unsigned int\000"
 5117      206C6F6E 
 5117      6720756E 
 5117      7369676E 
 5117      65642069 
 5118              	.LASF6:
 5119 0116 6C6F6E67 		.ascii	"long long int\000"
 5119      206C6F6E 
 5119      6720696E 
 5119      7400
 5120              	.LASF0:
 5121 0124 7369676E 		.ascii	"signed char\000"
 5121      65642063 
 5121      68617200 
 5122              	.LASF58:
 5123 0130 66756E63 		.ascii	"function\000"
 5123      74696F6E 
 5123      00
 5124              	.LASF23:
 5125 0139 43795379 		.ascii	"CySysWdtLock\000"
 5125      73576474 
 5125      4C6F636B 
 5125      00
 5126              	.LASF19:
 5127 0146 63795764 		.ascii	"cyWdtCallback\000"
 5127      7443616C 
 5127      6C626163 
 5127      6B00
 5128              	.LASF87:
 5129 0154 43794465 		.ascii	"CyDelayUs\000"
 5129      6C617955 
 5129      7300
 5130              	.LASF18:
 5131 015e 63795F73 		.ascii	"cy_sys_timer_delaytype_enum\000"
 5131      79735F74 
 5131      696D6572 
 5131      5F64656C 
 5131      61797479 
 5132              	.LASF41:
 5133 017a 62697473 		.ascii	"bits\000"
 5133      00
 5134              	.LASF4:
 5135 017f 6C6F6E67 		.ascii	"long int\000"
 5135      20696E74 
 5135      00
 5136              	.LASF39:
 5137 0188 72656756 		.ascii	"regValue\000"
 5137      616C7565 
 5137      00
 5138              	.LASF9:
 5139 0191 75696E74 		.ascii	"uint8\000"
 5139      3800
 5140              	.LASF29:
 5141 0197 656E6162 		.ascii	"enable\000"
 5141      6C6500
ARM GAS  C:\Users\SDEVAS~1\AppData\Local\Temp\cchvSIah.s 			page 124


 5142              	.LASF13:
 5143 019e 646F7562 		.ascii	"double\000"
 5143      6C6500
 5144              	.LASF51:
 5145 01a5 43795379 		.ascii	"CySysClkIloStop\000"
 5145      73436C6B 
 5145      496C6F53 
 5145      746F7000 
 5146              	.LASF56:
 5147 01b5 636F756E 		.ascii	"countersMask\000"
 5147      74657273 
 5147      4D61736B 
 5147      00
 5148              	.LASF11:
 5149 01c2 75696E74 		.ascii	"uint32\000"
 5149      333200
 5150              	.LASF59:
 5151 01c9 70726576 		.ascii	"prevCallback\000"
 5151      43616C6C 
 5151      6261636B 
 5151      00
 5152              	.LASF37:
 5153 01d6 43795379 		.ascii	"CySysWdtSetMatch\000"
 5153      73576474 
 5153      5365744D 
 5153      61746368 
 5153      00
 5154              	.LASF36:
 5155 01e7 636F756E 		.ascii	"countersEnableStatus\000"
 5155      74657273 
 5155      456E6162 
 5155      6C655374 
 5155      61747573 
 5156              	.LASF75:
 5157 01fc 77647449 		.ascii	"wdtIsrMask\000"
 5157      73724D61 
 5157      736B00
 5158              	.LASF31:
 5159 0207 43795379 		.ascii	"CySysWdtEnable\000"
 5159      73576474 
 5159      456E6162 
 5159      6C6500
 5160              	.LASF57:
 5161 0216 43795379 		.ascii	"CySysWdtSetInterruptCallback\000"
 5161      73576474 
 5161      53657449 
 5161      6E746572 
 5161      72757074 
 5162              	.LASF32:
 5163 0233 636F756E 		.ascii	"counterMask\000"
 5163      7465724D 
 5163      61736B00 
 5164              	.LASF44:
 5165 023f 43795379 		.ascii	"CySysWdtGetClearOnMatch\000"
 5165      73576474 
 5165      47657443 
 5165      6C656172 
ARM GAS  C:\Users\SDEVAS~1\AppData\Local\Temp\cchvSIah.s 			page 125


 5165      4F6E4D61 
 5166              	.LASF8:
 5167 0257 756E7369 		.ascii	"unsigned int\000"
 5167      676E6564 
 5167      20696E74 
 5167      00
 5168              	.LASF49:
 5169 0264 66697273 		.ascii	"firstCount\000"
 5169      74436F75 
 5169      6E7400
 5170              	.LASF61:
 5171 026f 72657443 		.ascii	"retCallback\000"
 5171      616C6C62 
 5171      61636B00 
 5172              	.LASF5:
 5173 027b 6C6F6E67 		.ascii	"long unsigned int\000"
 5173      20756E73 
 5173      69676E65 
 5173      6420696E 
 5173      7400
 5174              	.LASF25:
 5175 028d 696E7465 		.ascii	"interruptState\000"
 5175      72727570 
 5175      74537461 
 5175      746500
 5176              	.LASF70:
 5177 029c 6D617463 		.ascii	"matchValue\000"
 5177      6856616C 
 5177      756500
 5178              	.LASF85:
 5179 02a7 43795379 		.ascii	"CySysClkLfclkPosedgeRestore\000"
 5179      73436C6B 
 5179      4C66636C 
 5179      6B506F73 
 5179      65646765 
 5180              	.LASF62:
 5181 02c3 43795379 		.ascii	"CySysWdtEnableCounterIsr\000"
 5181      73576474 
 5181      456E6162 
 5181      6C65436F 
 5181      756E7465 
 5182              	.LASF3:
 5183 02dc 73686F72 		.ascii	"short unsigned int\000"
 5183      7420756E 
 5183      7369676E 
 5183      65642069 
 5183      6E7400
 5184              	.LASF26:
 5185 02ef 43795379 		.ascii	"CySysWdtGetEnabledStatus\000"
 5185      73576474 
 5185      47657445 
 5185      6E61626C 
 5185      65645374 
 5186              	.LASF60:
 5187 0308 43795379 		.ascii	"CySysWdtGetInterruptCallback\000"
 5187      73576474 
 5187      47657449 
ARM GAS  C:\Users\SDEVAS~1\AppData\Local\Temp\cchvSIah.s 			page 126


 5187      6E746572 
 5187      72757074 
 5188              	.LASF64:
 5189 0325 43795379 		.ascii	"CySysWdtIsr\000"
 5189      73576474 
 5189      49737200 
 5190              	.LASF83:
 5191 0331 43795379 		.ascii	"CySysClkIloStart\000"
 5191      73436C6B 
 5191      496C6F53 
 5191      74617274 
 5191      00
 5192              	.LASF40:
 5193 0342 43795379 		.ascii	"CySysWdtSetToggleBit\000"
 5193      73576474 
 5193      53657454 
 5193      6F67676C 
 5193      65426974 
 5194              	.LASF81:
 5195 0357 2E5C4765 		.ascii	".\\Generated_Source\\PSoC4\\CyLFClk.c\000"
 5195      6E657261 
 5195      7465645F 
 5195      536F7572 
 5195      63655C50 
 5196              	.LASF15:
 5197 037a 72656733 		.ascii	"reg32\000"
 5197      3200
 5198              	.LASF86:
 5199 0380 4379456E 		.ascii	"CyEnterCriticalSection\000"
 5199      74657243 
 5199      72697469 
 5199      63616C53 
 5199      65637469 
 5200              	.LASF67:
 5201 0397 746D7056 		.ascii	"tmpValue\000"
 5201      616C7565 
 5201      00
 5202              	.LASF20:
 5203 03a0 73697A65 		.ascii	"sizetype\000"
 5203      74797065 
 5203      00
 5204              	.LASF45:
 5205 03a9 43795379 		.ascii	"CySysWdtGetMatch\000"
 5205      73576474 
 5205      4765744D 
 5205      61746368 
 5205      00
 5206              	.LASF38:
 5207 03ba 6D617463 		.ascii	"match\000"
 5207      6800
 5208              	.LASF16:
 5209 03c0 43595F53 		.ascii	"CY_SYS_TIMER_WAIT\000"
 5209      59535F54 
 5209      494D4552 
 5209      5F574149 
 5209      5400
 5210              	.LASF55:
ARM GAS  C:\Users\SDEVAS~1\AppData\Local\Temp\cchvSIah.s 			page 127


 5211 03d2 43795379 		.ascii	"CySysWdtResetCounters\000"
 5211      73576474 
 5211      52657365 
 5211      74436F75 
 5211      6E746572 
 5212              	.LASF53:
 5213 03e8 43795379 		.ascii	"CySysWdtClearInterrupt\000"
 5213      73576474 
 5213      436C6561 
 5213      72496E74 
 5213      65727275 
 5214              	.LASF12:
 5215 03ff 666C6F61 		.ascii	"float\000"
 5215      7400
 5216              	.LASF65:
 5217 0405 43795379 		.ascii	"CySysTimerDelayUntilMatch\000"
 5217      7354696D 
 5217      65724465 
 5217      6C617955 
 5217      6E74696C 
 5218              	.LASF68:
 5219 041f 43795379 		.ascii	"CySysTimerDelay\000"
 5219      7354696D 
 5219      65724465 
 5219      6C617900 
 5220              	.LASF47:
 5221 042f 43795379 		.ascii	"CySysWdtLocked\000"
 5221      73576474 
 5221      4C6F636B 
 5221      656400
 5222              	.LASF1:
 5223 043e 756E7369 		.ascii	"unsigned char\000"
 5223      676E6564 
 5223      20636861 
 5223      7200
 5224              	.LASF50:
 5225 044c 6C66636C 		.ascii	"lfclkPosedgeEnabledWdtCounter\000"
 5225      6B506F73 
 5225      65646765 
 5225      456E6162 
 5225      6C656457 
 5226              	.LASF69:
 5227 046a 64656C61 		.ascii	"delay\000"
 5227      7900
 5228              	.LASF2:
 5229 0470 73686F72 		.ascii	"short int\000"
 5229      7420696E 
 5229      7400
 5230              	.LASF66:
 5231 047a 64656C61 		.ascii	"delayType\000"
 5231      79547970 
 5231      6500
 5232              	.LASF33:
 5233 0484 43795379 		.ascii	"CySysWdtDisable\000"
 5233      73576474 
 5233      44697361 
 5233      626C6500 
ARM GAS  C:\Users\SDEVAS~1\AppData\Local\Temp\cchvSIah.s 			page 128


 5234              	.LASF48:
 5235 0494 43795379 		.ascii	"CySysClkIloEnabled\000"
 5235      73436C6B 
 5235      496C6F45 
 5235      6E61626C 
 5235      656400
 5236              	.LASF52:
 5237 04a7 43795379 		.ascii	"CySysWdtGetInterruptSource\000"
 5237      73576474 
 5237      47657449 
 5237      6E746572 
 5237      72757074 
 5238              	.LASF63:
 5239 04c2 43795379 		.ascii	"CySysWdtDisableCounterIsr\000"
 5239      73576474 
 5239      44697361 
 5239      626C6543 
 5239      6F756E74 
 5240              	.LASF14:
 5241 04dc 63686172 		.ascii	"char\000"
 5241      00
 5242              	.LASF22:
 5243 04e1 6D6F6465 		.ascii	"mode\000"
 5243      00
 5244              	.LASF46:
 5245 04e6 43795379 		.ascii	"CySysWdtGetCount\000"
 5245      73576474 
 5245      47657443 
 5245      6F756E74 
 5245      00
 5246              	.LASF80:
 5247 04f7 474E5520 		.ascii	"GNU C 4.8.4 20140526 (release) [ARM/embedded-4_8-br"
 5247      4320342E 
 5247      382E3420 
 5247      32303134 
 5247      30353236 
 5248 052a 616E6368 		.ascii	"anch revision 211358] -mcpu=cortex-m0 -mthumb -g -O"
 5248      20726576 
 5248      6973696F 
 5248      6E203231 
 5248      31333538 
 5249 055d 73202D66 		.ascii	"s -ffunction-sections\000"
 5249      66756E63 
 5249      74696F6E 
 5249      2D736563 
 5249      74696F6E 
 5250              	.LASF74:
 5251 0573 64697361 		.ascii	"disableServicedIsr\000"
 5251      626C6553 
 5251      65727669 
 5251      63656449 
 5251      737200
 5252              	.LASF28:
 5253 0586 43795379 		.ascii	"CySysWdtSetClearOnMatch\000"
 5253      73576474 
 5253      53657443 
 5253      6C656172 
ARM GAS  C:\Users\SDEVAS~1\AppData\Local\Temp\cchvSIah.s 			page 129


 5253      4F6E4D61 
 5254              	.LASF34:
 5255 059e 43795379 		.ascii	"CySysWdtSetCascade\000"
 5255      73576474 
 5255      53657443 
 5255      61736361 
 5255      646500
 5256              	.LASF27:
 5257 05b1 43795379 		.ascii	"CySysWdtGetMode\000"
 5257      73576474 
 5257      4765744D 
 5257      6F646500 
 5258              	.LASF30:
 5259 05c1 636F6E66 		.ascii	"configRegValue\000"
 5259      69675265 
 5259      6756616C 
 5259      756500
 5260              	.LASF54:
 5261 05d0 7764744C 		.ascii	"wdtLockState\000"
 5261      6F636B53 
 5261      74617465 
 5261      00
 5262              	.LASF73:
 5263 05dd 6C66636C 		.ascii	"lfclkPosedgeWdtCounter0Mode\000"
 5263      6B506F73 
 5263      65646765 
 5263      57647443 
 5263      6F756E74 
 5264              	.LASF35:
 5265 05f9 63617363 		.ascii	"cascadeMask\000"
 5265      6164654D 
 5265      61736B00 
 5266              	.LASF43:
 5267 0605 43795379 		.ascii	"CySysWdtGetToggleBit\000"
 5267      73576474 
 5267      47657454 
 5267      6F67676C 
 5267      65426974 
 5268              	.LASF17:
 5269 061a 43595F53 		.ascii	"CY_SYS_TIMER_INTERRUPT\000"
 5269      59535F54 
 5269      494D4552 
 5269      5F494E54 
 5269      45525255 
 5270              		.ident	"GCC: (GNU Tools for ARM Embedded Processors) 4.8.4 20140526 (release) [ARM/embedded-4_8-br
