ARM GAS  C:\Users\SDEVAS~1\AppData\Local\Temp\cc8XtFtw.s 			page 1


   1              		.cpu cortex-m0
   2              		.fpu softvfp
   3              		.eabi_attribute 20, 1
   4              		.eabi_attribute 21, 1
   5              		.eabi_attribute 23, 3
   6              		.eabi_attribute 24, 1
   7              		.eabi_attribute 25, 1
   8              		.eabi_attribute 26, 1
   9              		.eabi_attribute 30, 4
  10              		.eabi_attribute 34, 0
  11              		.eabi_attribute 18, 4
  12              		.code	16
  13              		.file	"Fsm.c"
  14              		.text
  15              	.Ltext0:
  16              		.cfi_sections	.debug_frame
  17              		.section	.text.fsm_init,"ax",%progbits
  18              		.align	1
  19              		.global	fsm_init
  20              		.code	16
  21              		.thumb_func
  22              		.type	fsm_init, %function
  23              	fsm_init:
  24              	.LFB0:
  25              		.file 1 ".\\src-fsm\\Fsm.c"
   1:.\src-fsm/Fsm.c **** 
   2:.\src-fsm/Fsm.c **** #include <stdlib.h>
   3:.\src-fsm/Fsm.c **** #include <string.h>
   4:.\src-fsm/Fsm.c **** #include "sc_types.h"
   5:.\src-fsm/Fsm.c **** #include "Fsm.h"
   6:.\src-fsm/Fsm.c **** #include "FsmRequired.h"
   7:.\src-fsm/Fsm.c **** /*! \file Implementation of the state machine 'fsm'
   8:.\src-fsm/Fsm.c **** */
   9:.\src-fsm/Fsm.c **** 
  10:.\src-fsm/Fsm.c **** // prototypes of all internal functions
  11:.\src-fsm/Fsm.c **** 
  12:.\src-fsm/Fsm.c **** static void fsm_enact_SequenceImpl(Fsm* handle);
  13:.\src-fsm/Fsm.c **** static void fsm_exact_SequenceImpl(Fsm* handle);
  14:.\src-fsm/Fsm.c **** static void fsm_react_main_region_Sleep(Fsm* handle);
  15:.\src-fsm/Fsm.c **** static void fsm_react_main_region_Operation_op_Decide(Fsm* handle);
  16:.\src-fsm/Fsm.c **** static void fsm_react_main_region_Operation_op_ValveOn(Fsm* handle);
  17:.\src-fsm/Fsm.c **** static void fsm_react_main_region_Operation_op_ValveOff(Fsm* handle);
  18:.\src-fsm/Fsm.c **** static void fsm_react_main_region_Operation_op_VolumeCheck(Fsm* handle);
  19:.\src-fsm/Fsm.c **** static void fsm_react_main_region_Operation_op_SendStats(Fsm* handle);
  20:.\src-fsm/Fsm.c **** static void fsm_react_main_region_TestState_test__final_(Fsm* handle);
  21:.\src-fsm/Fsm.c **** static void fsm_react_main_region_Idle(Fsm* handle);
  22:.\src-fsm/Fsm.c **** static void fsm_clearInEvents(Fsm* handle);
  23:.\src-fsm/Fsm.c **** static void fsm_clearOutEvents(Fsm* handle);
  24:.\src-fsm/Fsm.c **** 
  25:.\src-fsm/Fsm.c **** 
  26:.\src-fsm/Fsm.c **** void fsm_init(Fsm* handle)
  27:.\src-fsm/Fsm.c **** {
  26              		.loc 1 27 0
  27              		.cfi_startproc
  28              	.LVL0:
  28:.\src-fsm/Fsm.c **** 	int i;
  29:.\src-fsm/Fsm.c **** 
ARM GAS  C:\Users\SDEVAS~1\AppData\Local\Temp\cc8XtFtw.s 			page 2


  30:.\src-fsm/Fsm.c **** 	for (i = 0; i < FSM_MAX_ORTHOGONAL_STATES; ++i)
  31:.\src-fsm/Fsm.c **** 		handle->stateConfVector[i] = Fsm_last_state;
  29              		.loc 1 31 0
  30 0000 0A23     		mov	r3, #10
  31 0002 0370     		strb	r3, [r0]
  32              	.LVL1:
  32:.\src-fsm/Fsm.c **** 	
  33:.\src-fsm/Fsm.c **** 	
  34:.\src-fsm/Fsm.c **** 	handle->stateConfVectorPosition = 0;
  33              		.loc 1 34 0
  34 0004 0023     		mov	r3, #0
  35 0006 4360     		str	r3, [r0, #4]
  36              	.LVL2:
  37              	.LBB12:
  38              	.LBB13:
  35:.\src-fsm/Fsm.c **** 
  36:.\src-fsm/Fsm.c **** 	fsm_clearInEvents(handle);
  37:.\src-fsm/Fsm.c **** 	fsm_clearOutEvents(handle);
  38:.\src-fsm/Fsm.c **** 
  39:.\src-fsm/Fsm.c **** 	/* Default init sequence for statechart fsm */
  40:.\src-fsm/Fsm.c **** 	handle->ifaceWaterControl.maxVolume = 0;
  41:.\src-fsm/Fsm.c **** 	handle->ifaceWaterControl.currentVolume = 0;
  42:.\src-fsm/Fsm.c **** 	handle->ifaceWaterControl.opMode = 0;
  43:.\src-fsm/Fsm.c **** 
  44:.\src-fsm/Fsm.c **** }
  45:.\src-fsm/Fsm.c **** 
  46:.\src-fsm/Fsm.c **** void fsm_enter(Fsm* handle)
  47:.\src-fsm/Fsm.c **** {
  48:.\src-fsm/Fsm.c **** 	/* Default enter sequence for statechart fsm */
  49:.\src-fsm/Fsm.c **** 	fsm_enact_SequenceImpl(handle);
  50:.\src-fsm/Fsm.c **** 	/* 'default' enter sequence for region main region */
  51:.\src-fsm/Fsm.c **** 	/* Default react sequence for initial entry  */
  52:.\src-fsm/Fsm.c **** 	/* 'default' enter sequence for state Operation */
  53:.\src-fsm/Fsm.c **** 	/* Entry action for state 'Operation'. */
  54:.\src-fsm/Fsm.c **** 	fsmIfaceWaterControl_setExpTime();
  55:.\src-fsm/Fsm.c **** 	/* 'default' enter sequence for region op */
  56:.\src-fsm/Fsm.c **** 	/* Default react sequence for initial entry  */
  57:.\src-fsm/Fsm.c **** 	/* 'default' enter sequence for state Decide */
  58:.\src-fsm/Fsm.c **** 	/* Entry action for state 'Decide'. */
  59:.\src-fsm/Fsm.c **** 	handle->ifaceWaterControl.opMode = fsmIfaceWaterControl_getOpMode();
  60:.\src-fsm/Fsm.c **** 	handle->stateConfVector[0] = Fsm_main_region_Operation_op_Decide;
  61:.\src-fsm/Fsm.c **** 	handle->stateConfVectorPosition = 0;
  62:.\src-fsm/Fsm.c **** }
  63:.\src-fsm/Fsm.c **** 
  64:.\src-fsm/Fsm.c **** void fsm_exit(Fsm* handle)
  65:.\src-fsm/Fsm.c **** {
  66:.\src-fsm/Fsm.c **** 	/* Default exit sequence for statechart fsm */
  67:.\src-fsm/Fsm.c **** 	/* Default exit sequence for region main region */
  68:.\src-fsm/Fsm.c **** 	/* Handle exit of all possible states (of main region) at position 0... */
  69:.\src-fsm/Fsm.c **** 	switch(handle->stateConfVector[ 0 ]) {
  70:.\src-fsm/Fsm.c **** 		case Fsm_main_region_Sleep : {
  71:.\src-fsm/Fsm.c **** 			/* Default exit sequence for state Sleep */
  72:.\src-fsm/Fsm.c **** 			handle->stateConfVector[0] = Fsm_last_state;
  73:.\src-fsm/Fsm.c **** 			handle->stateConfVectorPosition = 0;
  74:.\src-fsm/Fsm.c **** 			/* Exit action for state 'Sleep'. */
  75:.\src-fsm/Fsm.c **** 			fsmIfacePlatform_resume();
  76:.\src-fsm/Fsm.c **** 			break;
ARM GAS  C:\Users\SDEVAS~1\AppData\Local\Temp\cc8XtFtw.s 			page 3


  77:.\src-fsm/Fsm.c **** 		}
  78:.\src-fsm/Fsm.c **** 		case Fsm_main_region_Operation_op_Decide : {
  79:.\src-fsm/Fsm.c **** 			/* Default exit sequence for state Decide */
  80:.\src-fsm/Fsm.c **** 			handle->stateConfVector[0] = Fsm_last_state;
  81:.\src-fsm/Fsm.c **** 			handle->stateConfVectorPosition = 0;
  82:.\src-fsm/Fsm.c **** 			break;
  83:.\src-fsm/Fsm.c **** 		}
  84:.\src-fsm/Fsm.c **** 		case Fsm_main_region_Operation_op_ValveOn : {
  85:.\src-fsm/Fsm.c **** 			/* Default exit sequence for state ValveOn */
  86:.\src-fsm/Fsm.c **** 			handle->stateConfVector[0] = Fsm_last_state;
  87:.\src-fsm/Fsm.c **** 			handle->stateConfVectorPosition = 0;
  88:.\src-fsm/Fsm.c **** 			break;
  89:.\src-fsm/Fsm.c **** 		}
  90:.\src-fsm/Fsm.c **** 		case Fsm_main_region_Operation_op_ValveOff : {
  91:.\src-fsm/Fsm.c **** 			/* Default exit sequence for state ValveOff */
  92:.\src-fsm/Fsm.c **** 			handle->stateConfVector[0] = Fsm_last_state;
  93:.\src-fsm/Fsm.c **** 			handle->stateConfVectorPosition = 0;
  94:.\src-fsm/Fsm.c **** 			break;
  95:.\src-fsm/Fsm.c **** 		}
  96:.\src-fsm/Fsm.c **** 		case Fsm_main_region_Operation_op_VolumeCheck : {
  97:.\src-fsm/Fsm.c **** 			/* Default exit sequence for state VolumeCheck */
  98:.\src-fsm/Fsm.c **** 			handle->stateConfVector[0] = Fsm_last_state;
  99:.\src-fsm/Fsm.c **** 			handle->stateConfVectorPosition = 0;
 100:.\src-fsm/Fsm.c **** 			break;
 101:.\src-fsm/Fsm.c **** 		}
 102:.\src-fsm/Fsm.c **** 		case Fsm_main_region_Operation_op_SendStats : {
 103:.\src-fsm/Fsm.c **** 			/* Default exit sequence for state SendStats */
 104:.\src-fsm/Fsm.c **** 			handle->stateConfVector[0] = Fsm_last_state;
 105:.\src-fsm/Fsm.c **** 			handle->stateConfVectorPosition = 0;
 106:.\src-fsm/Fsm.c **** 			/* Exit action for state 'SendStats'. */
 107:.\src-fsm/Fsm.c **** 			fsm_unsetTimer(handle, (sc_eventid) &(handle->timeEvents.fsm_main_region_Operation_op_SendStats_
 108:.\src-fsm/Fsm.c **** 			break;
 109:.\src-fsm/Fsm.c **** 		}
 110:.\src-fsm/Fsm.c **** 		case Fsm_main_region_TestState_test__final_ : {
 111:.\src-fsm/Fsm.c **** 			/* Default exit sequence for final state. */
 112:.\src-fsm/Fsm.c **** 			handle->stateConfVector[0] = Fsm_last_state;
 113:.\src-fsm/Fsm.c **** 			handle->stateConfVectorPosition = 0;
 114:.\src-fsm/Fsm.c **** 			break;
 115:.\src-fsm/Fsm.c **** 		}
 116:.\src-fsm/Fsm.c **** 		case Fsm_main_region_Idle : {
 117:.\src-fsm/Fsm.c **** 			/* Default exit sequence for state Idle */
 118:.\src-fsm/Fsm.c **** 			handle->stateConfVector[0] = Fsm_last_state;
 119:.\src-fsm/Fsm.c **** 			handle->stateConfVectorPosition = 0;
 120:.\src-fsm/Fsm.c **** 			break;
 121:.\src-fsm/Fsm.c **** 		}
 122:.\src-fsm/Fsm.c **** 		default: break;
 123:.\src-fsm/Fsm.c **** 	}
 124:.\src-fsm/Fsm.c **** 	fsm_exact_SequenceImpl(handle);
 125:.\src-fsm/Fsm.c **** }
 126:.\src-fsm/Fsm.c **** 
 127:.\src-fsm/Fsm.c **** static void fsm_clearInEvents(Fsm* handle) {
 128:.\src-fsm/Fsm.c **** 	handle->ifacePlatform.start_raised = bool_false;
  39              		.loc 1 128 0
  40 0008 0372     		strb	r3, [r0, #8]
 129:.\src-fsm/Fsm.c **** 	handle->ifacePlatform.test_raised = bool_false;
  41              		.loc 1 129 0
  42 000a 4372     		strb	r3, [r0, #9]
ARM GAS  C:\Users\SDEVAS~1\AppData\Local\Temp\cc8XtFtw.s 			page 4


 130:.\src-fsm/Fsm.c **** 	handle->ifacePlatform.idle_raised = bool_false;
  43              		.loc 1 130 0
  44 000c 8372     		strb	r3, [r0, #10]
 131:.\src-fsm/Fsm.c **** 	handle->ifacePlatform.timer_raised = bool_false;
  45              		.loc 1 131 0
  46 000e C372     		strb	r3, [r0, #11]
 132:.\src-fsm/Fsm.c **** 	handle->timeEvents.fsm_main_region_Operation_op_SendStats_tev0_raised = bool_false; 
  47              		.loc 1 132 0
  48 0010 0376     		strb	r3, [r0, #24]
  49              	.LVL3:
  50              	.LBE13:
  51              	.LBE12:
  40:.\src-fsm/Fsm.c **** 	handle->ifaceWaterControl.maxVolume = 0;
  52              		.loc 1 40 0
  53 0012 C360     		str	r3, [r0, #12]
  41:.\src-fsm/Fsm.c **** 	handle->ifaceWaterControl.currentVolume = 0;
  54              		.loc 1 41 0
  55 0014 0361     		str	r3, [r0, #16]
  42:.\src-fsm/Fsm.c **** 	handle->ifaceWaterControl.opMode = 0;
  56              		.loc 1 42 0
  57 0016 4361     		str	r3, [r0, #20]
  44:.\src-fsm/Fsm.c **** }
  58              		.loc 1 44 0
  59              		@ sp needed
  60 0018 7047     		bx	lr
  61              		.cfi_endproc
  62              	.LFE0:
  63              		.size	fsm_init, .-fsm_init
  64              		.section	.text.fsm_enter,"ax",%progbits
  65              		.align	1
  66              		.global	fsm_enter
  67              		.code	16
  68              		.thumb_func
  69              		.type	fsm_enter, %function
  70              	fsm_enter:
  71              	.LFB1:
  47:.\src-fsm/Fsm.c **** {
  72              		.loc 1 47 0
  73              		.cfi_startproc
  74              	.LVL4:
  75 0000 10B5     		push	{r4, lr}
  76              		.cfi_def_cfa_offset 8
  77              		.cfi_offset 4, -8
  78              		.cfi_offset 14, -4
  47:.\src-fsm/Fsm.c **** {
  79              		.loc 1 47 0
  80 0002 041C     		mov	r4, r0
  54:.\src-fsm/Fsm.c **** 	fsmIfaceWaterControl_setExpTime();
  81              		.loc 1 54 0
  82 0004 FFF7FEFF 		bl	fsmIfaceWaterControl_setExpTime
  83              	.LVL5:
  59:.\src-fsm/Fsm.c **** 	handle->ifaceWaterControl.opMode = fsmIfaceWaterControl_getOpMode();
  84              		.loc 1 59 0
  85 0008 FFF7FEFF 		bl	fsmIfaceWaterControl_getOpMode
  86              	.LVL6:
  60:.\src-fsm/Fsm.c **** 	handle->stateConfVector[0] = Fsm_main_region_Operation_op_Decide;
  87              		.loc 1 60 0
ARM GAS  C:\Users\SDEVAS~1\AppData\Local\Temp\cc8XtFtw.s 			page 5


  88 000c 0223     		mov	r3, #2
  89 000e 2370     		strb	r3, [r4]
  61:.\src-fsm/Fsm.c **** 	handle->stateConfVectorPosition = 0;
  90              		.loc 1 61 0
  91 0010 0023     		mov	r3, #0
  59:.\src-fsm/Fsm.c **** 	handle->ifaceWaterControl.opMode = fsmIfaceWaterControl_getOpMode();
  92              		.loc 1 59 0
  93 0012 6061     		str	r0, [r4, #20]
  61:.\src-fsm/Fsm.c **** 	handle->stateConfVectorPosition = 0;
  94              		.loc 1 61 0
  95 0014 6360     		str	r3, [r4, #4]
  62:.\src-fsm/Fsm.c **** }
  96              		.loc 1 62 0
  97              		@ sp needed
  98              	.LVL7:
  99 0016 10BD     		pop	{r4, pc}
 100              		.cfi_endproc
 101              	.LFE1:
 102              		.size	fsm_enter, .-fsm_enter
 103              		.section	.text.fsm_exit,"ax",%progbits
 104              		.align	1
 105              		.global	fsm_exit
 106              		.code	16
 107              		.thumb_func
 108              		.type	fsm_exit, %function
 109              	fsm_exit:
 110              	.LFB2:
  65:.\src-fsm/Fsm.c **** {
 111              		.loc 1 65 0
 112              		.cfi_startproc
 113              	.LVL8:
 114 0000 08B5     		push	{r3, lr}
 115              		.cfi_def_cfa_offset 8
 116              		.cfi_offset 3, -8
 117              		.cfi_offset 14, -4
  65:.\src-fsm/Fsm.c **** {
 118              		.loc 1 65 0
 119 0002 031C     		mov	r3, r0
  69:.\src-fsm/Fsm.c **** 	switch(handle->stateConfVector[ 0 ]) {
 120              		.loc 1 69 0
 121 0004 0078     		ldrb	r0, [r0]
 122              	.LVL9:
 123 0006 0928     		cmp	r0, #9
 124 0008 1BD8     		bhi	.L3
 125 000a FFF7FEFF 		bl	__gnu_thumb1_case_uqi
 126              	.L6:
 127 000e 05       		.byte	(.L5-.L6)/2
 128 000f 1A       		.byte	(.L3-.L6)/2
 129 0010 16       		.byte	(.L13-.L6)/2
 130 0011 16       		.byte	(.L13-.L6)/2
 131 0012 16       		.byte	(.L13-.L6)/2
 132 0013 16       		.byte	(.L13-.L6)/2
 133 0014 0C       		.byte	(.L11-.L6)/2
 134 0015 1A       		.byte	(.L3-.L6)/2
 135 0016 16       		.byte	(.L13-.L6)/2
 136 0017 16       		.byte	(.L13-.L6)/2
 137              		.p2align 1
ARM GAS  C:\Users\SDEVAS~1\AppData\Local\Temp\cc8XtFtw.s 			page 6


 138              	.L5:
  72:.\src-fsm/Fsm.c **** 			handle->stateConfVector[0] = Fsm_last_state;
 139              		.loc 1 72 0
 140 0018 0A22     		mov	r2, #10
 141 001a 1A70     		strb	r2, [r3]
  73:.\src-fsm/Fsm.c **** 			handle->stateConfVectorPosition = 0;
 142              		.loc 1 73 0
 143 001c 0022     		mov	r2, #0
 144 001e 5A60     		str	r2, [r3, #4]
  75:.\src-fsm/Fsm.c **** 			fsmIfacePlatform_resume();
 145              		.loc 1 75 0
 146 0020 FFF7FEFF 		bl	fsmIfacePlatform_resume
 147              	.LVL10:
  76:.\src-fsm/Fsm.c **** 			break;
 148              		.loc 1 76 0
 149 0024 0DE0     		b	.L3
 150              	.LVL11:
 151              	.L11:
 104:.\src-fsm/Fsm.c **** 			handle->stateConfVector[0] = Fsm_last_state;
 152              		.loc 1 104 0
 153 0026 0A22     		mov	r2, #10
 154 0028 1A70     		strb	r2, [r3]
 107:.\src-fsm/Fsm.c **** 			fsm_unsetTimer(handle, (sc_eventid) &(handle->timeEvents.fsm_main_region_Operation_op_SendStats_
 155              		.loc 1 107 0
 156 002a 191C     		mov	r1, r3
 105:.\src-fsm/Fsm.c **** 			handle->stateConfVectorPosition = 0;
 157              		.loc 1 105 0
 158 002c 0022     		mov	r2, #0
 159 002e 5A60     		str	r2, [r3, #4]
 107:.\src-fsm/Fsm.c **** 			fsm_unsetTimer(handle, (sc_eventid) &(handle->timeEvents.fsm_main_region_Operation_op_SendStats_
 160              		.loc 1 107 0
 161 0030 1831     		add	r1, r1, #24
 162 0032 181C     		mov	r0, r3
 163 0034 FFF7FEFF 		bl	fsm_unsetTimer
 164              	.LVL12:
 108:.\src-fsm/Fsm.c **** 			break;
 165              		.loc 1 108 0
 166 0038 03E0     		b	.L3
 167              	.LVL13:
 168              	.L13:
 118:.\src-fsm/Fsm.c **** 			handle->stateConfVector[0] = Fsm_last_state;
 169              		.loc 1 118 0
 170 003a 0A22     		mov	r2, #10
 171 003c 1A70     		strb	r2, [r3]
 119:.\src-fsm/Fsm.c **** 			handle->stateConfVectorPosition = 0;
 172              		.loc 1 119 0
 173 003e 0022     		mov	r2, #0
 174 0040 5A60     		str	r2, [r3, #4]
 175              	.LVL14:
 176              	.L3:
 125:.\src-fsm/Fsm.c **** }
 177              		.loc 1 125 0
 178              		@ sp needed
 179 0042 08BD     		pop	{r3, pc}
 180              		.cfi_endproc
 181              	.LFE2:
 182              		.size	fsm_exit, .-fsm_exit
ARM GAS  C:\Users\SDEVAS~1\AppData\Local\Temp\cc8XtFtw.s 			page 7


 183              		.section	.text.fsm_runCycle,"ax",%progbits
 184              		.align	1
 185              		.global	fsm_runCycle
 186              		.code	16
 187              		.thumb_func
 188              		.type	fsm_runCycle, %function
 189              	fsm_runCycle:
 190              	.LFB5:
 133:.\src-fsm/Fsm.c **** }
 134:.\src-fsm/Fsm.c **** 
 135:.\src-fsm/Fsm.c **** static void fsm_clearOutEvents(Fsm* handle) {
 136:.\src-fsm/Fsm.c **** }
 137:.\src-fsm/Fsm.c **** 
 138:.\src-fsm/Fsm.c **** void fsm_runCycle(Fsm* handle) {
 191              		.loc 1 138 0
 192              		.cfi_startproc
 193              	.LVL15:
 194 0000 38B5     		push	{r3, r4, r5, lr}
 195              		.cfi_def_cfa_offset 16
 196              		.cfi_offset 3, -16
 197              		.cfi_offset 4, -12
 198              		.cfi_offset 5, -8
 199              		.cfi_offset 14, -4
 200              		.loc 1 138 0
 201 0002 041C     		mov	r4, r0
 139:.\src-fsm/Fsm.c **** 	
 140:.\src-fsm/Fsm.c **** 	fsm_clearOutEvents(handle);
 141:.\src-fsm/Fsm.c **** 	
 142:.\src-fsm/Fsm.c **** 	for (handle->stateConfVectorPosition = 0;
 202              		.loc 1 142 0
 203 0004 0023     		mov	r3, #0
 204              	.LVL16:
 205              	.L46:
 143:.\src-fsm/Fsm.c **** 		handle->stateConfVectorPosition < FSM_MAX_ORTHOGONAL_STATES;
 144:.\src-fsm/Fsm.c **** 		handle->stateConfVectorPosition++) {
 206              		.loc 1 144 0
 207 0006 6360     		str	r3, [r4, #4]
 142:.\src-fsm/Fsm.c **** 	for (handle->stateConfVectorPosition = 0;
 208              		.loc 1 142 0
 209 0008 6268     		ldr	r2, [r4, #4]
 210 000a 002A     		cmp	r2, #0
 211 000c 00D0     		beq	.LCB144
 212 000e 96E0     		b	.L50	@long jump
 213              	.LCB144:
 145:.\src-fsm/Fsm.c **** 			
 146:.\src-fsm/Fsm.c **** 		switch (handle->stateConfVector[handle->stateConfVectorPosition]) {
 214              		.loc 1 146 0
 215 0010 2078     		ldrb	r0, [r4]
 216 0012 0928     		cmp	r0, #9
 217 0014 00D9     		bls	.LCB147
 218 0016 8FE0     		b	.L17	@long jump
 219              	.LCB147:
 220 0018 FFF7FEFF 		bl	__gnu_thumb1_case_uqi
 221              	.L19:
 222 001c 05       		.byte	(.L18-.L19)/2
 223 001d 8E       		.byte	(.L17-.L19)/2
 224 001e 1A       		.byte	(.L20-.L19)/2
ARM GAS  C:\Users\SDEVAS~1\AppData\Local\Temp\cc8XtFtw.s 			page 8


 225 001f 36       		.byte	(.L21-.L19)/2
 226 0020 4A       		.byte	(.L22-.L19)/2
 227 0021 55       		.byte	(.L23-.L19)/2
 228 0022 63       		.byte	(.L24-.L19)/2
 229 0023 8E       		.byte	(.L17-.L19)/2
 230 0024 81       		.byte	(.L25-.L19)/2
 231 0025 85       		.byte	(.L26-.L19)/2
 232              		.p2align 1
 233              	.L18:
 234              	.LVL17:
 235              	.LBB32:
 236              	.LBB33:
 147:.\src-fsm/Fsm.c **** 		case Fsm_main_region_Sleep : {
 148:.\src-fsm/Fsm.c **** 			fsm_react_main_region_Sleep(handle);
 149:.\src-fsm/Fsm.c **** 			break;
 150:.\src-fsm/Fsm.c **** 		}
 151:.\src-fsm/Fsm.c **** 		case Fsm_main_region_Operation_op_Decide : {
 152:.\src-fsm/Fsm.c **** 			fsm_react_main_region_Operation_op_Decide(handle);
 153:.\src-fsm/Fsm.c **** 			break;
 154:.\src-fsm/Fsm.c **** 		}
 155:.\src-fsm/Fsm.c **** 		case Fsm_main_region_Operation_op_ValveOn : {
 156:.\src-fsm/Fsm.c **** 			fsm_react_main_region_Operation_op_ValveOn(handle);
 157:.\src-fsm/Fsm.c **** 			break;
 158:.\src-fsm/Fsm.c **** 		}
 159:.\src-fsm/Fsm.c **** 		case Fsm_main_region_Operation_op_ValveOff : {
 160:.\src-fsm/Fsm.c **** 			fsm_react_main_region_Operation_op_ValveOff(handle);
 161:.\src-fsm/Fsm.c **** 			break;
 162:.\src-fsm/Fsm.c **** 		}
 163:.\src-fsm/Fsm.c **** 		case Fsm_main_region_Operation_op_VolumeCheck : {
 164:.\src-fsm/Fsm.c **** 			fsm_react_main_region_Operation_op_VolumeCheck(handle);
 165:.\src-fsm/Fsm.c **** 			break;
 166:.\src-fsm/Fsm.c **** 		}
 167:.\src-fsm/Fsm.c **** 		case Fsm_main_region_Operation_op_SendStats : {
 168:.\src-fsm/Fsm.c **** 			fsm_react_main_region_Operation_op_SendStats(handle);
 169:.\src-fsm/Fsm.c **** 			break;
 170:.\src-fsm/Fsm.c **** 		}
 171:.\src-fsm/Fsm.c **** 		case Fsm_main_region_TestState_test__final_ : {
 172:.\src-fsm/Fsm.c **** 			fsm_react_main_region_TestState_test__final_(handle);
 173:.\src-fsm/Fsm.c **** 			break;
 174:.\src-fsm/Fsm.c **** 		}
 175:.\src-fsm/Fsm.c **** 		case Fsm_main_region_Idle : {
 176:.\src-fsm/Fsm.c **** 			fsm_react_main_region_Idle(handle);
 177:.\src-fsm/Fsm.c **** 			break;
 178:.\src-fsm/Fsm.c **** 		}
 179:.\src-fsm/Fsm.c **** 		default:
 180:.\src-fsm/Fsm.c **** 			break;
 181:.\src-fsm/Fsm.c **** 		}
 182:.\src-fsm/Fsm.c **** 	}
 183:.\src-fsm/Fsm.c **** 	
 184:.\src-fsm/Fsm.c **** 	fsm_clearInEvents(handle);
 185:.\src-fsm/Fsm.c **** }
 186:.\src-fsm/Fsm.c **** 
 187:.\src-fsm/Fsm.c **** void fsm_raiseTimeEvent(Fsm* handle, sc_eventid evid) {
 188:.\src-fsm/Fsm.c **** 	if ( ((intptr_t)evid) >= ((intptr_t)&(handle->timeEvents))
 189:.\src-fsm/Fsm.c **** 		&&  ((intptr_t)evid) < ((intptr_t)&(handle->timeEvents)) + sizeof(FsmTimeEvents)) {
 190:.\src-fsm/Fsm.c **** 		*(sc_boolean*)evid = bool_true;
 191:.\src-fsm/Fsm.c **** 	}		
ARM GAS  C:\Users\SDEVAS~1\AppData\Local\Temp\cc8XtFtw.s 			page 9


 192:.\src-fsm/Fsm.c **** }
 193:.\src-fsm/Fsm.c **** 
 194:.\src-fsm/Fsm.c **** sc_boolean fsm_isActive(Fsm* handle, FsmStates state) {
 195:.\src-fsm/Fsm.c **** 	switch (state) {
 196:.\src-fsm/Fsm.c **** 		case Fsm_main_region_Sleep : 
 197:.\src-fsm/Fsm.c **** 			return (sc_boolean) (handle->stateConfVector[0] == Fsm_main_region_Sleep
 198:.\src-fsm/Fsm.c **** 			);
 199:.\src-fsm/Fsm.c **** 		case Fsm_main_region_Operation : 
 200:.\src-fsm/Fsm.c **** 			return (sc_boolean) (handle->stateConfVector[0] >= Fsm_main_region_Operation
 201:.\src-fsm/Fsm.c **** 				&& handle->stateConfVector[0] <= Fsm_main_region_Operation_op_SendStats);
 202:.\src-fsm/Fsm.c **** 		case Fsm_main_region_Operation_op_Decide : 
 203:.\src-fsm/Fsm.c **** 			return (sc_boolean) (handle->stateConfVector[0] == Fsm_main_region_Operation_op_Decide
 204:.\src-fsm/Fsm.c **** 			);
 205:.\src-fsm/Fsm.c **** 		case Fsm_main_region_Operation_op_ValveOn : 
 206:.\src-fsm/Fsm.c **** 			return (sc_boolean) (handle->stateConfVector[0] == Fsm_main_region_Operation_op_ValveOn
 207:.\src-fsm/Fsm.c **** 			);
 208:.\src-fsm/Fsm.c **** 		case Fsm_main_region_Operation_op_ValveOff : 
 209:.\src-fsm/Fsm.c **** 			return (sc_boolean) (handle->stateConfVector[0] == Fsm_main_region_Operation_op_ValveOff
 210:.\src-fsm/Fsm.c **** 			);
 211:.\src-fsm/Fsm.c **** 		case Fsm_main_region_Operation_op_VolumeCheck : 
 212:.\src-fsm/Fsm.c **** 			return (sc_boolean) (handle->stateConfVector[0] == Fsm_main_region_Operation_op_VolumeCheck
 213:.\src-fsm/Fsm.c **** 			);
 214:.\src-fsm/Fsm.c **** 		case Fsm_main_region_Operation_op_SendStats : 
 215:.\src-fsm/Fsm.c **** 			return (sc_boolean) (handle->stateConfVector[0] == Fsm_main_region_Operation_op_SendStats
 216:.\src-fsm/Fsm.c **** 			);
 217:.\src-fsm/Fsm.c **** 		case Fsm_main_region_TestState : 
 218:.\src-fsm/Fsm.c **** 			return (sc_boolean) (handle->stateConfVector[0] >= Fsm_main_region_TestState
 219:.\src-fsm/Fsm.c **** 				&& handle->stateConfVector[0] <= Fsm_main_region_TestState_test__final_);
 220:.\src-fsm/Fsm.c **** 		case Fsm_main_region_TestState_test__final_ : 
 221:.\src-fsm/Fsm.c **** 			return (sc_boolean) (handle->stateConfVector[0] == Fsm_main_region_TestState_test__final_
 222:.\src-fsm/Fsm.c **** 			);
 223:.\src-fsm/Fsm.c **** 		case Fsm_main_region_Idle : 
 224:.\src-fsm/Fsm.c **** 			return (sc_boolean) (handle->stateConfVector[0] == Fsm_main_region_Idle
 225:.\src-fsm/Fsm.c **** 			);
 226:.\src-fsm/Fsm.c **** 		default: return bool_false;
 227:.\src-fsm/Fsm.c **** 	}
 228:.\src-fsm/Fsm.c **** }
 229:.\src-fsm/Fsm.c **** 
 230:.\src-fsm/Fsm.c **** void fsmIfacePlatform_raise_start(Fsm* handle) {
 231:.\src-fsm/Fsm.c **** 	handle->ifacePlatform.start_raised = bool_true;
 232:.\src-fsm/Fsm.c **** }
 233:.\src-fsm/Fsm.c **** void fsmIfacePlatform_raise_test(Fsm* handle) {
 234:.\src-fsm/Fsm.c **** 	handle->ifacePlatform.test_raised = bool_true;
 235:.\src-fsm/Fsm.c **** }
 236:.\src-fsm/Fsm.c **** void fsmIfacePlatform_raise_idle(Fsm* handle) {
 237:.\src-fsm/Fsm.c **** 	handle->ifacePlatform.idle_raised = bool_true;
 238:.\src-fsm/Fsm.c **** }
 239:.\src-fsm/Fsm.c **** void fsmIfacePlatform_raise_timer(Fsm* handle) {
 240:.\src-fsm/Fsm.c **** 	handle->ifacePlatform.timer_raised = bool_true;
 241:.\src-fsm/Fsm.c **** }
 242:.\src-fsm/Fsm.c **** 
 243:.\src-fsm/Fsm.c **** 
 244:.\src-fsm/Fsm.c **** 
 245:.\src-fsm/Fsm.c **** 
 246:.\src-fsm/Fsm.c **** 
 247:.\src-fsm/Fsm.c **** 
 248:.\src-fsm/Fsm.c **** sc_integer fsmIfaceWaterControl_get_maxVolume(Fsm* handle) {
ARM GAS  C:\Users\SDEVAS~1\AppData\Local\Temp\cc8XtFtw.s 			page 10


 249:.\src-fsm/Fsm.c **** 	return handle->ifaceWaterControl.maxVolume;
 250:.\src-fsm/Fsm.c **** }
 251:.\src-fsm/Fsm.c **** void fsmIfaceWaterControl_set_maxVolume(Fsm* handle, sc_integer value) {
 252:.\src-fsm/Fsm.c **** 	handle->ifaceWaterControl.maxVolume = value;
 253:.\src-fsm/Fsm.c **** }
 254:.\src-fsm/Fsm.c **** sc_integer fsmIfaceWaterControl_get_currentVolume(Fsm* handle) {
 255:.\src-fsm/Fsm.c **** 	return handle->ifaceWaterControl.currentVolume;
 256:.\src-fsm/Fsm.c **** }
 257:.\src-fsm/Fsm.c **** void fsmIfaceWaterControl_set_currentVolume(Fsm* handle, sc_integer value) {
 258:.\src-fsm/Fsm.c **** 	handle->ifaceWaterControl.currentVolume = value;
 259:.\src-fsm/Fsm.c **** }
 260:.\src-fsm/Fsm.c **** sc_integer fsmIfaceWaterControl_get_opMode(Fsm* handle) {
 261:.\src-fsm/Fsm.c **** 	return handle->ifaceWaterControl.opMode;
 262:.\src-fsm/Fsm.c **** }
 263:.\src-fsm/Fsm.c **** void fsmIfaceWaterControl_set_opMode(Fsm* handle, sc_integer value) {
 264:.\src-fsm/Fsm.c **** 	handle->ifaceWaterControl.opMode = value;
 265:.\src-fsm/Fsm.c **** }
 266:.\src-fsm/Fsm.c **** 
 267:.\src-fsm/Fsm.c **** // implementations of all internal functions
 268:.\src-fsm/Fsm.c **** 
 269:.\src-fsm/Fsm.c **** /* Entry action for statechart 'fsm'. */
 270:.\src-fsm/Fsm.c **** static void fsm_enact_SequenceImpl(Fsm* handle) {
 271:.\src-fsm/Fsm.c **** }
 272:.\src-fsm/Fsm.c **** 
 273:.\src-fsm/Fsm.c **** /* Exit action for state 'fsm'. */
 274:.\src-fsm/Fsm.c **** static void fsm_exact_SequenceImpl(Fsm* handle) {
 275:.\src-fsm/Fsm.c **** }
 276:.\src-fsm/Fsm.c **** 
 277:.\src-fsm/Fsm.c **** /* The reactions of state Sleep. */
 278:.\src-fsm/Fsm.c **** static void fsm_react_main_region_Sleep(Fsm* handle) {
 279:.\src-fsm/Fsm.c **** 	/* The reactions of state Sleep. */
 280:.\src-fsm/Fsm.c **** 	if (handle->ifacePlatform.timer_raised) { 
 237              		.loc 1 280 0
 238 0026 E57A     		ldrb	r5, [r4, #11]
 239 0028 002D     		cmp	r5, #0
 240 002a 08D0     		beq	.L27
 281:.\src-fsm/Fsm.c **** 		/* Default exit sequence for state Sleep */
 282:.\src-fsm/Fsm.c **** 		handle->stateConfVector[0] = Fsm_last_state;
 241              		.loc 1 282 0
 242 002c 0A23     		mov	r3, #10
 283:.\src-fsm/Fsm.c **** 		handle->stateConfVectorPosition = 0;
 243              		.loc 1 283 0
 244 002e 0025     		mov	r5, #0
 282:.\src-fsm/Fsm.c **** 		handle->stateConfVector[0] = Fsm_last_state;
 245              		.loc 1 282 0
 246 0030 2370     		strb	r3, [r4]
 247              		.loc 1 283 0
 248 0032 6560     		str	r5, [r4, #4]
 284:.\src-fsm/Fsm.c **** 		/* Exit action for state 'Sleep'. */
 285:.\src-fsm/Fsm.c **** 		fsmIfacePlatform_resume();
 249              		.loc 1 285 0
 250 0034 FFF7FEFF 		bl	fsmIfacePlatform_resume
 251              	.LVL18:
 286:.\src-fsm/Fsm.c **** 		/* 'default' enter sequence for state Operation */
 287:.\src-fsm/Fsm.c **** 		/* Entry action for state 'Operation'. */
 288:.\src-fsm/Fsm.c **** 		fsmIfaceWaterControl_setExpTime();
 252              		.loc 1 288 0
ARM GAS  C:\Users\SDEVAS~1\AppData\Local\Temp\cc8XtFtw.s 			page 11


 253 0038 FFF7FEFF 		bl	fsmIfaceWaterControl_setExpTime
 254              	.LVL19:
 255 003c 6AE0     		b	.L48
 256              	.L27:
 289:.\src-fsm/Fsm.c **** 		/* 'default' enter sequence for region op */
 290:.\src-fsm/Fsm.c **** 		/* Default react sequence for initial entry  */
 291:.\src-fsm/Fsm.c **** 		/* 'default' enter sequence for state Decide */
 292:.\src-fsm/Fsm.c **** 		/* Entry action for state 'Decide'. */
 293:.\src-fsm/Fsm.c **** 		handle->ifaceWaterControl.opMode = fsmIfaceWaterControl_getOpMode();
 294:.\src-fsm/Fsm.c **** 		handle->stateConfVector[0] = Fsm_main_region_Operation_op_Decide;
 295:.\src-fsm/Fsm.c **** 		handle->stateConfVectorPosition = 0;
 296:.\src-fsm/Fsm.c **** 	}  else {
 297:.\src-fsm/Fsm.c **** 		if (handle->ifacePlatform.idle_raised) { 
 257              		.loc 1 297 0
 258 003e A37A     		ldrb	r3, [r4, #10]
 259 0040 002B     		cmp	r3, #0
 260 0042 79D0     		beq	.L17
 298:.\src-fsm/Fsm.c **** 			/* Default exit sequence for state Sleep */
 299:.\src-fsm/Fsm.c **** 			handle->stateConfVector[0] = Fsm_last_state;
 261              		.loc 1 299 0
 262 0044 0A23     		mov	r3, #10
 263 0046 2370     		strb	r3, [r4]
 300:.\src-fsm/Fsm.c **** 			handle->stateConfVectorPosition = 0;
 264              		.loc 1 300 0
 265 0048 6560     		str	r5, [r4, #4]
 301:.\src-fsm/Fsm.c **** 			/* Exit action for state 'Sleep'. */
 302:.\src-fsm/Fsm.c **** 			fsmIfacePlatform_resume();
 266              		.loc 1 302 0
 267 004a FFF7FEFF 		bl	fsmIfacePlatform_resume
 268              	.LVL20:
 269 004e 54E0     		b	.L47
 270              	.LVL21:
 271              	.L20:
 272              	.LBE33:
 273              	.LBE32:
 274              	.LBB34:
 275              	.LBB35:
 303:.\src-fsm/Fsm.c **** 			/* 'default' enter sequence for state Idle */
 304:.\src-fsm/Fsm.c **** 			handle->stateConfVector[0] = Fsm_main_region_Idle;
 305:.\src-fsm/Fsm.c **** 			handle->stateConfVectorPosition = 0;
 306:.\src-fsm/Fsm.c **** 		} 
 307:.\src-fsm/Fsm.c **** 	}
 308:.\src-fsm/Fsm.c **** }
 309:.\src-fsm/Fsm.c **** 
 310:.\src-fsm/Fsm.c **** /* The reactions of state Decide. */
 311:.\src-fsm/Fsm.c **** static void fsm_react_main_region_Operation_op_Decide(Fsm* handle) {
 312:.\src-fsm/Fsm.c **** 	/* The reactions of state Decide. */
 313:.\src-fsm/Fsm.c **** 	if (handle->ifacePlatform.idle_raised) { 
 276              		.loc 1 313 0
 277 0050 A57A     		ldrb	r5, [r4, #10]
 278 0052 002D     		cmp	r5, #0
 279 0054 01D0     		beq	.L28
 280              	.LVL22:
 281              	.L31:
 314:.\src-fsm/Fsm.c **** 		/* Default exit sequence for state Operation */
 315:.\src-fsm/Fsm.c **** 		/* Default exit sequence for region op */
 316:.\src-fsm/Fsm.c **** 		/* Handle exit of all possible states (of op) at position 0... */
ARM GAS  C:\Users\SDEVAS~1\AppData\Local\Temp\cc8XtFtw.s 			page 12


 317:.\src-fsm/Fsm.c **** 		switch(handle->stateConfVector[ 0 ]) {
 318:.\src-fsm/Fsm.c **** 			case Fsm_main_region_Operation_op_Decide : {
 319:.\src-fsm/Fsm.c **** 				/* Default exit sequence for state Decide */
 320:.\src-fsm/Fsm.c **** 				handle->stateConfVector[0] = Fsm_last_state;
 321:.\src-fsm/Fsm.c **** 				handle->stateConfVectorPosition = 0;
 322:.\src-fsm/Fsm.c **** 				break;
 323:.\src-fsm/Fsm.c **** 			}
 324:.\src-fsm/Fsm.c **** 			case Fsm_main_region_Operation_op_ValveOn : {
 325:.\src-fsm/Fsm.c **** 				/* Default exit sequence for state ValveOn */
 326:.\src-fsm/Fsm.c **** 				handle->stateConfVector[0] = Fsm_last_state;
 327:.\src-fsm/Fsm.c **** 				handle->stateConfVectorPosition = 0;
 328:.\src-fsm/Fsm.c **** 				break;
 329:.\src-fsm/Fsm.c **** 			}
 330:.\src-fsm/Fsm.c **** 			case Fsm_main_region_Operation_op_ValveOff : {
 331:.\src-fsm/Fsm.c **** 				/* Default exit sequence for state ValveOff */
 332:.\src-fsm/Fsm.c **** 				handle->stateConfVector[0] = Fsm_last_state;
 333:.\src-fsm/Fsm.c **** 				handle->stateConfVectorPosition = 0;
 334:.\src-fsm/Fsm.c **** 				break;
 335:.\src-fsm/Fsm.c **** 			}
 336:.\src-fsm/Fsm.c **** 			case Fsm_main_region_Operation_op_VolumeCheck : {
 337:.\src-fsm/Fsm.c **** 				/* Default exit sequence for state VolumeCheck */
 338:.\src-fsm/Fsm.c **** 				handle->stateConfVector[0] = Fsm_last_state;
 339:.\src-fsm/Fsm.c **** 				handle->stateConfVectorPosition = 0;
 340:.\src-fsm/Fsm.c **** 				break;
 341:.\src-fsm/Fsm.c **** 			}
 342:.\src-fsm/Fsm.c **** 			case Fsm_main_region_Operation_op_SendStats : {
 343:.\src-fsm/Fsm.c **** 				/* Default exit sequence for state SendStats */
 344:.\src-fsm/Fsm.c **** 				handle->stateConfVector[0] = Fsm_last_state;
 345:.\src-fsm/Fsm.c **** 				handle->stateConfVectorPosition = 0;
 346:.\src-fsm/Fsm.c **** 				/* Exit action for state 'SendStats'. */
 347:.\src-fsm/Fsm.c **** 				fsm_unsetTimer(handle, (sc_eventid) &(handle->timeEvents.fsm_main_region_Operation_op_SendStats
 348:.\src-fsm/Fsm.c **** 				break;
 349:.\src-fsm/Fsm.c **** 			}
 350:.\src-fsm/Fsm.c **** 			default: break;
 351:.\src-fsm/Fsm.c **** 		}
 352:.\src-fsm/Fsm.c **** 		/* 'default' enter sequence for state Idle */
 353:.\src-fsm/Fsm.c **** 		handle->stateConfVector[0] = Fsm_main_region_Idle;
 282              		.loc 1 353 0
 283 0056 0923     		mov	r3, #9
 284 0058 12E0     		b	.L43
 285              	.LVL23:
 286              	.L28:
 354:.\src-fsm/Fsm.c **** 		handle->stateConfVectorPosition = 0;
 355:.\src-fsm/Fsm.c **** 	}  else {
 356:.\src-fsm/Fsm.c **** 		/* Default exit sequence for state Decide */
 357:.\src-fsm/Fsm.c **** 		handle->stateConfVector[0] = Fsm_last_state;
 287              		.loc 1 357 0
 288 005a 0A23     		mov	r3, #10
 289 005c 2370     		strb	r3, [r4]
 358:.\src-fsm/Fsm.c **** 		handle->stateConfVectorPosition = 0;
 359:.\src-fsm/Fsm.c **** 		/* The reactions of state null. */
 360:.\src-fsm/Fsm.c **** 		if (handle->ifaceWaterControl.opMode > 0) { 
 290              		.loc 1 360 0
 291 005e 6369     		ldr	r3, [r4, #20]
 358:.\src-fsm/Fsm.c **** 		handle->stateConfVectorPosition = 0;
 292              		.loc 1 358 0
 293 0060 6560     		str	r5, [r4, #4]
ARM GAS  C:\Users\SDEVAS~1\AppData\Local\Temp\cc8XtFtw.s 			page 13


 294              		.loc 1 360 0
 295 0062 002B     		cmp	r3, #0
 296 0064 07DD     		ble	.L29
 361:.\src-fsm/Fsm.c **** 			/* 'default' enter sequence for state VolumeCheck */
 362:.\src-fsm/Fsm.c **** 			/* Entry action for state 'VolumeCheck'. */
 363:.\src-fsm/Fsm.c **** 			handle->ifaceWaterControl.maxVolume = fsmIfaceWaterControl_getMaxVolume();
 297              		.loc 1 363 0
 298 0066 FFF7FEFF 		bl	fsmIfaceWaterControl_getMaxVolume
 299              	.LVL24:
 300 006a E060     		str	r0, [r4, #12]
 364:.\src-fsm/Fsm.c **** 			handle->ifaceWaterControl.currentVolume = fsmIfaceWaterControl_getCurrentVolume();
 301              		.loc 1 364 0
 302 006c FFF7FEFF 		bl	fsmIfaceWaterControl_getCurrentVolume
 303              	.LVL25:
 365:.\src-fsm/Fsm.c **** 			handle->stateConfVector[0] = Fsm_main_region_Operation_op_VolumeCheck;
 304              		.loc 1 365 0
 305 0070 0523     		mov	r3, #5
 364:.\src-fsm/Fsm.c **** 			handle->ifaceWaterControl.currentVolume = fsmIfaceWaterControl_getCurrentVolume();
 306              		.loc 1 364 0
 307 0072 2061     		str	r0, [r4, #16]
 308 0074 19E0     		b	.L45
 309              	.L29:
 366:.\src-fsm/Fsm.c **** 			handle->stateConfVectorPosition = 0;
 367:.\src-fsm/Fsm.c **** 		}  else {
 368:.\src-fsm/Fsm.c **** 			if (handle->ifaceWaterControl.opMode == 0) { 
 310              		.loc 1 368 0
 311 0076 002B     		cmp	r3, #0
 312 0078 21D1     		bne	.L49
 313              	.LVL26:
 314              	.L32:
 369:.\src-fsm/Fsm.c **** 				/* 'default' enter sequence for state ValveOff */
 370:.\src-fsm/Fsm.c **** 				/* Entry action for state 'ValveOff'. */
 371:.\src-fsm/Fsm.c **** 				fsmIfaceWaterControl_valveOff();
 315              		.loc 1 371 0
 316 007a FFF7FEFF 		bl	fsmIfaceWaterControl_valveOff
 317              	.LVL27:
 372:.\src-fsm/Fsm.c **** 				handle->stateConfVector[0] = Fsm_main_region_Operation_op_ValveOff;
 318              		.loc 1 372 0
 319 007e 0423     		mov	r3, #4
 320              	.L43:
 321 0080 2370     		strb	r3, [r4]
 373:.\src-fsm/Fsm.c **** 				handle->stateConfVectorPosition = 0;
 322              		.loc 1 373 0
 323 0082 0023     		mov	r3, #0
 324 0084 6360     		str	r3, [r4, #4]
 325 0086 57E0     		b	.L17
 326              	.L21:
 327              	.LVL28:
 328              	.LBE35:
 329              	.LBE34:
 330              	.LBB36:
 331              	.LBB37:
 374:.\src-fsm/Fsm.c **** 			}  else {
 375:.\src-fsm/Fsm.c **** 				/* Default exit sequence for state Operation */
 376:.\src-fsm/Fsm.c **** 				/* Default exit sequence for region op */
 377:.\src-fsm/Fsm.c **** 				/* Handle exit of all possible states (of op) at position 0... */
 378:.\src-fsm/Fsm.c **** 				switch(handle->stateConfVector[ 0 ]) {
ARM GAS  C:\Users\SDEVAS~1\AppData\Local\Temp\cc8XtFtw.s 			page 14


 379:.\src-fsm/Fsm.c **** 					case Fsm_main_region_Operation_op_Decide : {
 380:.\src-fsm/Fsm.c **** 						/* Default exit sequence for state Decide */
 381:.\src-fsm/Fsm.c **** 						handle->stateConfVector[0] = Fsm_last_state;
 382:.\src-fsm/Fsm.c **** 						handle->stateConfVectorPosition = 0;
 383:.\src-fsm/Fsm.c **** 						break;
 384:.\src-fsm/Fsm.c **** 					}
 385:.\src-fsm/Fsm.c **** 					case Fsm_main_region_Operation_op_ValveOn : {
 386:.\src-fsm/Fsm.c **** 						/* Default exit sequence for state ValveOn */
 387:.\src-fsm/Fsm.c **** 						handle->stateConfVector[0] = Fsm_last_state;
 388:.\src-fsm/Fsm.c **** 						handle->stateConfVectorPosition = 0;
 389:.\src-fsm/Fsm.c **** 						break;
 390:.\src-fsm/Fsm.c **** 					}
 391:.\src-fsm/Fsm.c **** 					case Fsm_main_region_Operation_op_ValveOff : {
 392:.\src-fsm/Fsm.c **** 						/* Default exit sequence for state ValveOff */
 393:.\src-fsm/Fsm.c **** 						handle->stateConfVector[0] = Fsm_last_state;
 394:.\src-fsm/Fsm.c **** 						handle->stateConfVectorPosition = 0;
 395:.\src-fsm/Fsm.c **** 						break;
 396:.\src-fsm/Fsm.c **** 					}
 397:.\src-fsm/Fsm.c **** 					case Fsm_main_region_Operation_op_VolumeCheck : {
 398:.\src-fsm/Fsm.c **** 						/* Default exit sequence for state VolumeCheck */
 399:.\src-fsm/Fsm.c **** 						handle->stateConfVector[0] = Fsm_last_state;
 400:.\src-fsm/Fsm.c **** 						handle->stateConfVectorPosition = 0;
 401:.\src-fsm/Fsm.c **** 						break;
 402:.\src-fsm/Fsm.c **** 					}
 403:.\src-fsm/Fsm.c **** 					case Fsm_main_region_Operation_op_SendStats : {
 404:.\src-fsm/Fsm.c **** 						/* Default exit sequence for state SendStats */
 405:.\src-fsm/Fsm.c **** 						handle->stateConfVector[0] = Fsm_last_state;
 406:.\src-fsm/Fsm.c **** 						handle->stateConfVectorPosition = 0;
 407:.\src-fsm/Fsm.c **** 						/* Exit action for state 'SendStats'. */
 408:.\src-fsm/Fsm.c **** 						fsm_unsetTimer(handle, (sc_eventid) &(handle->timeEvents.fsm_main_region_Operation_op_SendSta
 409:.\src-fsm/Fsm.c **** 						break;
 410:.\src-fsm/Fsm.c **** 					}
 411:.\src-fsm/Fsm.c **** 					default: break;
 412:.\src-fsm/Fsm.c **** 				}
 413:.\src-fsm/Fsm.c **** 				/* 'default' enter sequence for state Sleep */
 414:.\src-fsm/Fsm.c **** 				/* Entry action for state 'Sleep'. */
 415:.\src-fsm/Fsm.c **** 				fsmIfacePlatform_sleep();
 416:.\src-fsm/Fsm.c **** 				handle->stateConfVector[0] = Fsm_main_region_Sleep;
 417:.\src-fsm/Fsm.c **** 				handle->stateConfVectorPosition = 0;
 418:.\src-fsm/Fsm.c **** 			}
 419:.\src-fsm/Fsm.c **** 		}
 420:.\src-fsm/Fsm.c **** 	}
 421:.\src-fsm/Fsm.c **** }
 422:.\src-fsm/Fsm.c **** 
 423:.\src-fsm/Fsm.c **** /* The reactions of state ValveOn. */
 424:.\src-fsm/Fsm.c **** static void fsm_react_main_region_Operation_op_ValveOn(Fsm* handle) {
 425:.\src-fsm/Fsm.c **** 	/* The reactions of state ValveOn. */
 426:.\src-fsm/Fsm.c **** 	if (handle->ifacePlatform.idle_raised) { 
 332              		.loc 1 426 0
 333 0088 A57A     		ldrb	r5, [r4, #10]
 334 008a 002D     		cmp	r5, #0
 335 008c E3D1     		bne	.L31
 427:.\src-fsm/Fsm.c **** 		/* Default exit sequence for state Operation */
 428:.\src-fsm/Fsm.c **** 		/* Default exit sequence for region op */
 429:.\src-fsm/Fsm.c **** 		/* Handle exit of all possible states (of op) at position 0... */
 430:.\src-fsm/Fsm.c **** 		switch(handle->stateConfVector[ 0 ]) {
 431:.\src-fsm/Fsm.c **** 			case Fsm_main_region_Operation_op_Decide : {
ARM GAS  C:\Users\SDEVAS~1\AppData\Local\Temp\cc8XtFtw.s 			page 15


 432:.\src-fsm/Fsm.c **** 				/* Default exit sequence for state Decide */
 433:.\src-fsm/Fsm.c **** 				handle->stateConfVector[0] = Fsm_last_state;
 434:.\src-fsm/Fsm.c **** 				handle->stateConfVectorPosition = 0;
 435:.\src-fsm/Fsm.c **** 				break;
 436:.\src-fsm/Fsm.c **** 			}
 437:.\src-fsm/Fsm.c **** 			case Fsm_main_region_Operation_op_ValveOn : {
 438:.\src-fsm/Fsm.c **** 				/* Default exit sequence for state ValveOn */
 439:.\src-fsm/Fsm.c **** 				handle->stateConfVector[0] = Fsm_last_state;
 440:.\src-fsm/Fsm.c **** 				handle->stateConfVectorPosition = 0;
 441:.\src-fsm/Fsm.c **** 				break;
 442:.\src-fsm/Fsm.c **** 			}
 443:.\src-fsm/Fsm.c **** 			case Fsm_main_region_Operation_op_ValveOff : {
 444:.\src-fsm/Fsm.c **** 				/* Default exit sequence for state ValveOff */
 445:.\src-fsm/Fsm.c **** 				handle->stateConfVector[0] = Fsm_last_state;
 446:.\src-fsm/Fsm.c **** 				handle->stateConfVectorPosition = 0;
 447:.\src-fsm/Fsm.c **** 				break;
 448:.\src-fsm/Fsm.c **** 			}
 449:.\src-fsm/Fsm.c **** 			case Fsm_main_region_Operation_op_VolumeCheck : {
 450:.\src-fsm/Fsm.c **** 				/* Default exit sequence for state VolumeCheck */
 451:.\src-fsm/Fsm.c **** 				handle->stateConfVector[0] = Fsm_last_state;
 452:.\src-fsm/Fsm.c **** 				handle->stateConfVectorPosition = 0;
 453:.\src-fsm/Fsm.c **** 				break;
 454:.\src-fsm/Fsm.c **** 			}
 455:.\src-fsm/Fsm.c **** 			case Fsm_main_region_Operation_op_SendStats : {
 456:.\src-fsm/Fsm.c **** 				/* Default exit sequence for state SendStats */
 457:.\src-fsm/Fsm.c **** 				handle->stateConfVector[0] = Fsm_last_state;
 458:.\src-fsm/Fsm.c **** 				handle->stateConfVectorPosition = 0;
 459:.\src-fsm/Fsm.c **** 				/* Exit action for state 'SendStats'. */
 460:.\src-fsm/Fsm.c **** 				fsm_unsetTimer(handle, (sc_eventid) &(handle->timeEvents.fsm_main_region_Operation_op_SendStats
 461:.\src-fsm/Fsm.c **** 				break;
 462:.\src-fsm/Fsm.c **** 			}
 463:.\src-fsm/Fsm.c **** 			default: break;
 464:.\src-fsm/Fsm.c **** 		}
 465:.\src-fsm/Fsm.c **** 		/* 'default' enter sequence for state Idle */
 466:.\src-fsm/Fsm.c **** 		handle->stateConfVector[0] = Fsm_main_region_Idle;
 467:.\src-fsm/Fsm.c **** 		handle->stateConfVectorPosition = 0;
 468:.\src-fsm/Fsm.c **** 	}  else {
 469:.\src-fsm/Fsm.c **** 		/* Default exit sequence for state ValveOn */
 470:.\src-fsm/Fsm.c **** 		handle->stateConfVector[0] = Fsm_last_state;
 336              		.loc 1 470 0
 337 008e 0A23     		mov	r3, #10
 471:.\src-fsm/Fsm.c **** 		handle->stateConfVectorPosition = 0;
 472:.\src-fsm/Fsm.c **** 		/* 'default' enter sequence for state SendStats */
 473:.\src-fsm/Fsm.c **** 		/* Entry action for state 'SendStats'. */
 474:.\src-fsm/Fsm.c **** 		fsm_setTimer(handle, (sc_eventid) &(handle->timeEvents.fsm_main_region_Operation_op_SendStats_tev
 338              		.loc 1 474 0
 339 0090 211C     		mov	r1, r4
 340 0092 FA22     		mov	r2, #250
 470:.\src-fsm/Fsm.c **** 		handle->stateConfVector[0] = Fsm_last_state;
 341              		.loc 1 470 0
 342 0094 2370     		strb	r3, [r4]
 343              		.loc 1 474 0
 344 0096 201C     		mov	r0, r4
 345 0098 2B1C     		mov	r3, r5
 346 009a 1831     		add	r1, r1, #24
 347 009c D200     		lsl	r2, r2, #3
 471:.\src-fsm/Fsm.c **** 		handle->stateConfVectorPosition = 0;
ARM GAS  C:\Users\SDEVAS~1\AppData\Local\Temp\cc8XtFtw.s 			page 16


 348              		.loc 1 471 0
 349 009e 6560     		str	r5, [r4, #4]
 350              		.loc 1 474 0
 351 00a0 FFF7FEFF 		bl	fsm_setTimer
 352              	.LVL29:
 475:.\src-fsm/Fsm.c **** 		fsmIfaceWaterControl_sendStats();
 353              		.loc 1 475 0
 354 00a4 FFF7FEFF 		bl	fsmIfaceWaterControl_sendStats
 355              	.LVL30:
 476:.\src-fsm/Fsm.c **** 		handle->stateConfVector[0] = Fsm_main_region_Operation_op_SendStats;
 356              		.loc 1 476 0
 357 00a8 0623     		mov	r3, #6
 358              	.LVL31:
 359              	.L45:
 360 00aa 2370     		strb	r3, [r4]
 361              	.L44:
 477:.\src-fsm/Fsm.c **** 		handle->stateConfVectorPosition = 0;
 362              		.loc 1 477 0
 363 00ac 6560     		str	r5, [r4, #4]
 364 00ae 43E0     		b	.L17
 365              	.L22:
 366              	.LVL32:
 367              	.LBE37:
 368              	.LBE36:
 369              	.LBB38:
 370              	.LBB39:
 478:.\src-fsm/Fsm.c **** 	}
 479:.\src-fsm/Fsm.c **** }
 480:.\src-fsm/Fsm.c **** 
 481:.\src-fsm/Fsm.c **** /* The reactions of state ValveOff. */
 482:.\src-fsm/Fsm.c **** static void fsm_react_main_region_Operation_op_ValveOff(Fsm* handle) {
 483:.\src-fsm/Fsm.c **** 	/* The reactions of state ValveOff. */
 484:.\src-fsm/Fsm.c **** 	if (handle->ifacePlatform.idle_raised) { 
 371              		.loc 1 484 0
 372 00b0 A37A     		ldrb	r3, [r4, #10]
 373 00b2 002B     		cmp	r3, #0
 374 00b4 CFD1     		bne	.L31
 375              	.LVL33:
 376              	.L35:
 485:.\src-fsm/Fsm.c **** 		/* Default exit sequence for state Operation */
 486:.\src-fsm/Fsm.c **** 		/* Default exit sequence for region op */
 487:.\src-fsm/Fsm.c **** 		/* Handle exit of all possible states (of op) at position 0... */
 488:.\src-fsm/Fsm.c **** 		switch(handle->stateConfVector[ 0 ]) {
 489:.\src-fsm/Fsm.c **** 			case Fsm_main_region_Operation_op_Decide : {
 490:.\src-fsm/Fsm.c **** 				/* Default exit sequence for state Decide */
 491:.\src-fsm/Fsm.c **** 				handle->stateConfVector[0] = Fsm_last_state;
 492:.\src-fsm/Fsm.c **** 				handle->stateConfVectorPosition = 0;
 493:.\src-fsm/Fsm.c **** 				break;
 494:.\src-fsm/Fsm.c **** 			}
 495:.\src-fsm/Fsm.c **** 			case Fsm_main_region_Operation_op_ValveOn : {
 496:.\src-fsm/Fsm.c **** 				/* Default exit sequence for state ValveOn */
 497:.\src-fsm/Fsm.c **** 				handle->stateConfVector[0] = Fsm_last_state;
 498:.\src-fsm/Fsm.c **** 				handle->stateConfVectorPosition = 0;
 499:.\src-fsm/Fsm.c **** 				break;
 500:.\src-fsm/Fsm.c **** 			}
 501:.\src-fsm/Fsm.c **** 			case Fsm_main_region_Operation_op_ValveOff : {
 502:.\src-fsm/Fsm.c **** 				/* Default exit sequence for state ValveOff */
ARM GAS  C:\Users\SDEVAS~1\AppData\Local\Temp\cc8XtFtw.s 			page 17


 503:.\src-fsm/Fsm.c **** 				handle->stateConfVector[0] = Fsm_last_state;
 504:.\src-fsm/Fsm.c **** 				handle->stateConfVectorPosition = 0;
 505:.\src-fsm/Fsm.c **** 				break;
 506:.\src-fsm/Fsm.c **** 			}
 507:.\src-fsm/Fsm.c **** 			case Fsm_main_region_Operation_op_VolumeCheck : {
 508:.\src-fsm/Fsm.c **** 				/* Default exit sequence for state VolumeCheck */
 509:.\src-fsm/Fsm.c **** 				handle->stateConfVector[0] = Fsm_last_state;
 510:.\src-fsm/Fsm.c **** 				handle->stateConfVectorPosition = 0;
 511:.\src-fsm/Fsm.c **** 				break;
 512:.\src-fsm/Fsm.c **** 			}
 513:.\src-fsm/Fsm.c **** 			case Fsm_main_region_Operation_op_SendStats : {
 514:.\src-fsm/Fsm.c **** 				/* Default exit sequence for state SendStats */
 515:.\src-fsm/Fsm.c **** 				handle->stateConfVector[0] = Fsm_last_state;
 516:.\src-fsm/Fsm.c **** 				handle->stateConfVectorPosition = 0;
 517:.\src-fsm/Fsm.c **** 				/* Exit action for state 'SendStats'. */
 518:.\src-fsm/Fsm.c **** 				fsm_unsetTimer(handle, (sc_eventid) &(handle->timeEvents.fsm_main_region_Operation_op_SendStats
 519:.\src-fsm/Fsm.c **** 				break;
 520:.\src-fsm/Fsm.c **** 			}
 521:.\src-fsm/Fsm.c **** 			default: break;
 522:.\src-fsm/Fsm.c **** 		}
 523:.\src-fsm/Fsm.c **** 		/* 'default' enter sequence for state Idle */
 524:.\src-fsm/Fsm.c **** 		handle->stateConfVector[0] = Fsm_main_region_Idle;
 525:.\src-fsm/Fsm.c **** 		handle->stateConfVectorPosition = 0;
 526:.\src-fsm/Fsm.c **** 	}  else {
 527:.\src-fsm/Fsm.c **** 		/* Default exit sequence for state Operation */
 528:.\src-fsm/Fsm.c **** 		/* Default exit sequence for region op */
 529:.\src-fsm/Fsm.c **** 		/* Handle exit of all possible states (of op) at position 0... */
 530:.\src-fsm/Fsm.c **** 		switch(handle->stateConfVector[ 0 ]) {
 531:.\src-fsm/Fsm.c **** 			case Fsm_main_region_Operation_op_Decide : {
 532:.\src-fsm/Fsm.c **** 				/* Default exit sequence for state Decide */
 533:.\src-fsm/Fsm.c **** 				handle->stateConfVector[0] = Fsm_last_state;
 534:.\src-fsm/Fsm.c **** 				handle->stateConfVectorPosition = 0;
 535:.\src-fsm/Fsm.c **** 				break;
 536:.\src-fsm/Fsm.c **** 			}
 537:.\src-fsm/Fsm.c **** 			case Fsm_main_region_Operation_op_ValveOn : {
 538:.\src-fsm/Fsm.c **** 				/* Default exit sequence for state ValveOn */
 539:.\src-fsm/Fsm.c **** 				handle->stateConfVector[0] = Fsm_last_state;
 540:.\src-fsm/Fsm.c **** 				handle->stateConfVectorPosition = 0;
 541:.\src-fsm/Fsm.c **** 				break;
 542:.\src-fsm/Fsm.c **** 			}
 543:.\src-fsm/Fsm.c **** 			case Fsm_main_region_Operation_op_ValveOff : {
 544:.\src-fsm/Fsm.c **** 				/* Default exit sequence for state ValveOff */
 545:.\src-fsm/Fsm.c **** 				handle->stateConfVector[0] = Fsm_last_state;
 377              		.loc 1 545 0
 378 00b6 0A23     		mov	r3, #10
 546:.\src-fsm/Fsm.c **** 				handle->stateConfVectorPosition = 0;
 379              		.loc 1 546 0
 380 00b8 0025     		mov	r5, #0
 545:.\src-fsm/Fsm.c **** 				handle->stateConfVector[0] = Fsm_last_state;
 381              		.loc 1 545 0
 382 00ba 2370     		strb	r3, [r4]
 383              		.loc 1 546 0
 384 00bc 6560     		str	r5, [r4, #4]
 385              	.L49:
 547:.\src-fsm/Fsm.c **** 				break;
 548:.\src-fsm/Fsm.c **** 			}
 549:.\src-fsm/Fsm.c **** 			case Fsm_main_region_Operation_op_VolumeCheck : {
ARM GAS  C:\Users\SDEVAS~1\AppData\Local\Temp\cc8XtFtw.s 			page 18


 550:.\src-fsm/Fsm.c **** 				/* Default exit sequence for state VolumeCheck */
 551:.\src-fsm/Fsm.c **** 				handle->stateConfVector[0] = Fsm_last_state;
 552:.\src-fsm/Fsm.c **** 				handle->stateConfVectorPosition = 0;
 553:.\src-fsm/Fsm.c **** 				break;
 554:.\src-fsm/Fsm.c **** 			}
 555:.\src-fsm/Fsm.c **** 			case Fsm_main_region_Operation_op_SendStats : {
 556:.\src-fsm/Fsm.c **** 				/* Default exit sequence for state SendStats */
 557:.\src-fsm/Fsm.c **** 				handle->stateConfVector[0] = Fsm_last_state;
 558:.\src-fsm/Fsm.c **** 				handle->stateConfVectorPosition = 0;
 559:.\src-fsm/Fsm.c **** 				/* Exit action for state 'SendStats'. */
 560:.\src-fsm/Fsm.c **** 				fsm_unsetTimer(handle, (sc_eventid) &(handle->timeEvents.fsm_main_region_Operation_op_SendStats
 561:.\src-fsm/Fsm.c **** 				break;
 562:.\src-fsm/Fsm.c **** 			}
 563:.\src-fsm/Fsm.c **** 			default: break;
 564:.\src-fsm/Fsm.c **** 		}
 565:.\src-fsm/Fsm.c **** 		/* 'default' enter sequence for state Sleep */
 566:.\src-fsm/Fsm.c **** 		/* Entry action for state 'Sleep'. */
 567:.\src-fsm/Fsm.c **** 		fsmIfacePlatform_sleep();
 386              		.loc 1 567 0
 387 00be FFF7FEFF 		bl	fsmIfacePlatform_sleep
 388              	.LVL34:
 568:.\src-fsm/Fsm.c **** 		handle->stateConfVector[0] = Fsm_main_region_Sleep;
 389              		.loc 1 568 0
 390 00c2 2570     		strb	r5, [r4]
 391 00c4 F2E7     		b	.L44
 392              	.L23:
 393              	.LVL35:
 394              	.LBE39:
 395              	.LBE38:
 396              	.LBB40:
 397              	.LBB41:
 569:.\src-fsm/Fsm.c **** 		handle->stateConfVectorPosition = 0;
 570:.\src-fsm/Fsm.c **** 	}
 571:.\src-fsm/Fsm.c **** }
 572:.\src-fsm/Fsm.c **** 
 573:.\src-fsm/Fsm.c **** /* The reactions of state VolumeCheck. */
 574:.\src-fsm/Fsm.c **** static void fsm_react_main_region_Operation_op_VolumeCheck(Fsm* handle) {
 575:.\src-fsm/Fsm.c **** 	/* The reactions of state VolumeCheck. */
 576:.\src-fsm/Fsm.c **** 	if (handle->ifacePlatform.idle_raised) { 
 398              		.loc 1 576 0
 399 00c6 A57A     		ldrb	r5, [r4, #10]
 400 00c8 002D     		cmp	r5, #0
 401 00ca C4D1     		bne	.L31
 577:.\src-fsm/Fsm.c **** 		/* Default exit sequence for state Operation */
 578:.\src-fsm/Fsm.c **** 		/* Default exit sequence for region op */
 579:.\src-fsm/Fsm.c **** 		/* Handle exit of all possible states (of op) at position 0... */
 580:.\src-fsm/Fsm.c **** 		switch(handle->stateConfVector[ 0 ]) {
 581:.\src-fsm/Fsm.c **** 			case Fsm_main_region_Operation_op_Decide : {
 582:.\src-fsm/Fsm.c **** 				/* Default exit sequence for state Decide */
 583:.\src-fsm/Fsm.c **** 				handle->stateConfVector[0] = Fsm_last_state;
 584:.\src-fsm/Fsm.c **** 				handle->stateConfVectorPosition = 0;
 585:.\src-fsm/Fsm.c **** 				break;
 586:.\src-fsm/Fsm.c **** 			}
 587:.\src-fsm/Fsm.c **** 			case Fsm_main_region_Operation_op_ValveOn : {
 588:.\src-fsm/Fsm.c **** 				/* Default exit sequence for state ValveOn */
 589:.\src-fsm/Fsm.c **** 				handle->stateConfVector[0] = Fsm_last_state;
 590:.\src-fsm/Fsm.c **** 				handle->stateConfVectorPosition = 0;
ARM GAS  C:\Users\SDEVAS~1\AppData\Local\Temp\cc8XtFtw.s 			page 19


 591:.\src-fsm/Fsm.c **** 				break;
 592:.\src-fsm/Fsm.c **** 			}
 593:.\src-fsm/Fsm.c **** 			case Fsm_main_region_Operation_op_ValveOff : {
 594:.\src-fsm/Fsm.c **** 				/* Default exit sequence for state ValveOff */
 595:.\src-fsm/Fsm.c **** 				handle->stateConfVector[0] = Fsm_last_state;
 596:.\src-fsm/Fsm.c **** 				handle->stateConfVectorPosition = 0;
 597:.\src-fsm/Fsm.c **** 				break;
 598:.\src-fsm/Fsm.c **** 			}
 599:.\src-fsm/Fsm.c **** 			case Fsm_main_region_Operation_op_VolumeCheck : {
 600:.\src-fsm/Fsm.c **** 				/* Default exit sequence for state VolumeCheck */
 601:.\src-fsm/Fsm.c **** 				handle->stateConfVector[0] = Fsm_last_state;
 602:.\src-fsm/Fsm.c **** 				handle->stateConfVectorPosition = 0;
 603:.\src-fsm/Fsm.c **** 				break;
 604:.\src-fsm/Fsm.c **** 			}
 605:.\src-fsm/Fsm.c **** 			case Fsm_main_region_Operation_op_SendStats : {
 606:.\src-fsm/Fsm.c **** 				/* Default exit sequence for state SendStats */
 607:.\src-fsm/Fsm.c **** 				handle->stateConfVector[0] = Fsm_last_state;
 608:.\src-fsm/Fsm.c **** 				handle->stateConfVectorPosition = 0;
 609:.\src-fsm/Fsm.c **** 				/* Exit action for state 'SendStats'. */
 610:.\src-fsm/Fsm.c **** 				fsm_unsetTimer(handle, (sc_eventid) &(handle->timeEvents.fsm_main_region_Operation_op_SendStats
 611:.\src-fsm/Fsm.c **** 				break;
 612:.\src-fsm/Fsm.c **** 			}
 613:.\src-fsm/Fsm.c **** 			default: break;
 614:.\src-fsm/Fsm.c **** 		}
 615:.\src-fsm/Fsm.c **** 		/* 'default' enter sequence for state Idle */
 616:.\src-fsm/Fsm.c **** 		handle->stateConfVector[0] = Fsm_main_region_Idle;
 617:.\src-fsm/Fsm.c **** 		handle->stateConfVectorPosition = 0;
 618:.\src-fsm/Fsm.c **** 	}  else {
 619:.\src-fsm/Fsm.c **** 		/* Default exit sequence for state VolumeCheck */
 620:.\src-fsm/Fsm.c **** 		handle->stateConfVector[0] = Fsm_last_state;
 402              		.loc 1 620 0
 403 00cc 0A23     		mov	r3, #10
 404 00ce 2370     		strb	r3, [r4]
 621:.\src-fsm/Fsm.c **** 		handle->stateConfVectorPosition = 0;
 622:.\src-fsm/Fsm.c **** 		/* The reactions of state null. */
 623:.\src-fsm/Fsm.c **** 		if (handle->ifaceWaterControl.currentVolume >= handle->ifaceWaterControl.maxVolume) { 
 405              		.loc 1 623 0
 406 00d0 2269     		ldr	r2, [r4, #16]
 407 00d2 E368     		ldr	r3, [r4, #12]
 621:.\src-fsm/Fsm.c **** 		handle->stateConfVectorPosition = 0;
 408              		.loc 1 621 0
 409 00d4 6560     		str	r5, [r4, #4]
 410              		.loc 1 623 0
 411 00d6 9A42     		cmp	r2, r3
 412 00d8 CFDA     		bge	.L32
 624:.\src-fsm/Fsm.c **** 			/* 'default' enter sequence for state ValveOff */
 625:.\src-fsm/Fsm.c **** 			/* Entry action for state 'ValveOff'. */
 626:.\src-fsm/Fsm.c **** 			fsmIfaceWaterControl_valveOff();
 627:.\src-fsm/Fsm.c **** 			handle->stateConfVector[0] = Fsm_main_region_Operation_op_ValveOff;
 628:.\src-fsm/Fsm.c **** 			handle->stateConfVectorPosition = 0;
 629:.\src-fsm/Fsm.c **** 		}  else {
 630:.\src-fsm/Fsm.c **** 			if (handle->ifaceWaterControl.currentVolume < handle->ifaceWaterControl.maxVolume) { 
 631:.\src-fsm/Fsm.c **** 				/* 'default' enter sequence for state ValveOn */
 632:.\src-fsm/Fsm.c **** 				/* Entry action for state 'ValveOn'. */
 633:.\src-fsm/Fsm.c **** 				fsmIfaceWaterControl_valveOn();
 413              		.loc 1 633 0
 414 00da FFF7FEFF 		bl	fsmIfaceWaterControl_valveOn
ARM GAS  C:\Users\SDEVAS~1\AppData\Local\Temp\cc8XtFtw.s 			page 20


 415              	.LVL36:
 634:.\src-fsm/Fsm.c **** 				handle->stateConfVector[0] = Fsm_main_region_Operation_op_ValveOn;
 416              		.loc 1 634 0
 417 00de 0323     		mov	r3, #3
 418 00e0 E3E7     		b	.L45
 419              	.LVL37:
 420              	.L24:
 421              	.LBE41:
 422              	.LBE40:
 423              	.LBB42:
 424              	.LBB43:
 635:.\src-fsm/Fsm.c **** 				handle->stateConfVectorPosition = 0;
 636:.\src-fsm/Fsm.c **** 			}  else {
 637:.\src-fsm/Fsm.c **** 				/* 'default' enter sequence for state SendStats */
 638:.\src-fsm/Fsm.c **** 				/* Entry action for state 'SendStats'. */
 639:.\src-fsm/Fsm.c **** 				fsm_setTimer(handle, (sc_eventid) &(handle->timeEvents.fsm_main_region_Operation_op_SendStats_t
 640:.\src-fsm/Fsm.c **** 				fsmIfaceWaterControl_sendStats();
 641:.\src-fsm/Fsm.c **** 				handle->stateConfVector[0] = Fsm_main_region_Operation_op_SendStats;
 642:.\src-fsm/Fsm.c **** 				handle->stateConfVectorPosition = 0;
 643:.\src-fsm/Fsm.c **** 			}
 644:.\src-fsm/Fsm.c **** 		}
 645:.\src-fsm/Fsm.c **** 	}
 646:.\src-fsm/Fsm.c **** }
 647:.\src-fsm/Fsm.c **** 
 648:.\src-fsm/Fsm.c **** /* The reactions of state SendStats. */
 649:.\src-fsm/Fsm.c **** static void fsm_react_main_region_Operation_op_SendStats(Fsm* handle) {
 650:.\src-fsm/Fsm.c **** 	/* The reactions of state SendStats. */
 651:.\src-fsm/Fsm.c **** 	if (handle->ifacePlatform.idle_raised) { 
 425              		.loc 1 651 0
 426 00e2 A57A     		ldrb	r5, [r4, #10]
 427 00e4 002D     		cmp	r5, #0
 428 00e6 0AD0     		beq	.L33
 652:.\src-fsm/Fsm.c **** 		/* Default exit sequence for state Operation */
 653:.\src-fsm/Fsm.c **** 		/* Default exit sequence for region op */
 654:.\src-fsm/Fsm.c **** 		/* Handle exit of all possible states (of op) at position 0... */
 655:.\src-fsm/Fsm.c **** 		switch(handle->stateConfVector[ 0 ]) {
 656:.\src-fsm/Fsm.c **** 			case Fsm_main_region_Operation_op_Decide : {
 657:.\src-fsm/Fsm.c **** 				/* Default exit sequence for state Decide */
 658:.\src-fsm/Fsm.c **** 				handle->stateConfVector[0] = Fsm_last_state;
 659:.\src-fsm/Fsm.c **** 				handle->stateConfVectorPosition = 0;
 660:.\src-fsm/Fsm.c **** 				break;
 661:.\src-fsm/Fsm.c **** 			}
 662:.\src-fsm/Fsm.c **** 			case Fsm_main_region_Operation_op_ValveOn : {
 663:.\src-fsm/Fsm.c **** 				/* Default exit sequence for state ValveOn */
 664:.\src-fsm/Fsm.c **** 				handle->stateConfVector[0] = Fsm_last_state;
 665:.\src-fsm/Fsm.c **** 				handle->stateConfVectorPosition = 0;
 666:.\src-fsm/Fsm.c **** 				break;
 667:.\src-fsm/Fsm.c **** 			}
 668:.\src-fsm/Fsm.c **** 			case Fsm_main_region_Operation_op_ValveOff : {
 669:.\src-fsm/Fsm.c **** 				/* Default exit sequence for state ValveOff */
 670:.\src-fsm/Fsm.c **** 				handle->stateConfVector[0] = Fsm_last_state;
 671:.\src-fsm/Fsm.c **** 				handle->stateConfVectorPosition = 0;
 672:.\src-fsm/Fsm.c **** 				break;
 673:.\src-fsm/Fsm.c **** 			}
 674:.\src-fsm/Fsm.c **** 			case Fsm_main_region_Operation_op_VolumeCheck : {
 675:.\src-fsm/Fsm.c **** 				/* Default exit sequence for state VolumeCheck */
 676:.\src-fsm/Fsm.c **** 				handle->stateConfVector[0] = Fsm_last_state;
ARM GAS  C:\Users\SDEVAS~1\AppData\Local\Temp\cc8XtFtw.s 			page 21


 677:.\src-fsm/Fsm.c **** 				handle->stateConfVectorPosition = 0;
 678:.\src-fsm/Fsm.c **** 				break;
 679:.\src-fsm/Fsm.c **** 			}
 680:.\src-fsm/Fsm.c **** 			case Fsm_main_region_Operation_op_SendStats : {
 681:.\src-fsm/Fsm.c **** 				/* Default exit sequence for state SendStats */
 682:.\src-fsm/Fsm.c **** 				handle->stateConfVector[0] = Fsm_last_state;
 429              		.loc 1 682 0
 430 00e8 0A23     		mov	r3, #10
 683:.\src-fsm/Fsm.c **** 				handle->stateConfVectorPosition = 0;
 431              		.loc 1 683 0
 432 00ea 0025     		mov	r5, #0
 684:.\src-fsm/Fsm.c **** 				/* Exit action for state 'SendStats'. */
 685:.\src-fsm/Fsm.c **** 				fsm_unsetTimer(handle, (sc_eventid) &(handle->timeEvents.fsm_main_region_Operation_op_SendStats
 433              		.loc 1 685 0
 434 00ec 211C     		mov	r1, r4
 682:.\src-fsm/Fsm.c **** 				handle->stateConfVector[0] = Fsm_last_state;
 435              		.loc 1 682 0
 436 00ee 2370     		strb	r3, [r4]
 683:.\src-fsm/Fsm.c **** 				handle->stateConfVectorPosition = 0;
 437              		.loc 1 683 0
 438 00f0 6560     		str	r5, [r4, #4]
 439              		.loc 1 685 0
 440 00f2 201C     		mov	r0, r4
 441 00f4 1831     		add	r1, r1, #24
 442 00f6 FFF7FEFF 		bl	fsm_unsetTimer
 443              	.LVL38:
 444              	.L47:
 686:.\src-fsm/Fsm.c **** 				break;
 687:.\src-fsm/Fsm.c **** 			}
 688:.\src-fsm/Fsm.c **** 			default: break;
 689:.\src-fsm/Fsm.c **** 		}
 690:.\src-fsm/Fsm.c **** 		/* 'default' enter sequence for state Idle */
 691:.\src-fsm/Fsm.c **** 		handle->stateConfVector[0] = Fsm_main_region_Idle;
 445              		.loc 1 691 0
 446 00fa 0923     		mov	r3, #9
 447 00fc D5E7     		b	.L45
 448              	.LVL39:
 449              	.L33:
 692:.\src-fsm/Fsm.c **** 		handle->stateConfVectorPosition = 0;
 693:.\src-fsm/Fsm.c **** 	}  else {
 694:.\src-fsm/Fsm.c **** 		if (handle->timeEvents.fsm_main_region_Operation_op_SendStats_tev0_raised) { 
 450              		.loc 1 694 0
 451 00fe 237E     		ldrb	r3, [r4, #24]
 452 0100 002B     		cmp	r3, #0
 453 0102 19D0     		beq	.L17
 695:.\src-fsm/Fsm.c **** 			/* Default exit sequence for state SendStats */
 696:.\src-fsm/Fsm.c **** 			handle->stateConfVector[0] = Fsm_last_state;
 454              		.loc 1 696 0
 455 0104 0A23     		mov	r3, #10
 697:.\src-fsm/Fsm.c **** 			handle->stateConfVectorPosition = 0;
 698:.\src-fsm/Fsm.c **** 			/* Exit action for state 'SendStats'. */
 699:.\src-fsm/Fsm.c **** 			fsm_unsetTimer(handle, (sc_eventid) &(handle->timeEvents.fsm_main_region_Operation_op_SendStats_
 456              		.loc 1 699 0
 457 0106 211C     		mov	r1, r4
 696:.\src-fsm/Fsm.c **** 			handle->stateConfVector[0] = Fsm_last_state;
 458              		.loc 1 696 0
 459 0108 2370     		strb	r3, [r4]
ARM GAS  C:\Users\SDEVAS~1\AppData\Local\Temp\cc8XtFtw.s 			page 22


 697:.\src-fsm/Fsm.c **** 			handle->stateConfVectorPosition = 0;
 460              		.loc 1 697 0
 461 010a 6560     		str	r5, [r4, #4]
 462              		.loc 1 699 0
 463 010c 201C     		mov	r0, r4
 464 010e 1831     		add	r1, r1, #24
 465 0110 FFF7FEFF 		bl	fsm_unsetTimer
 466              	.LVL40:
 467              	.L48:
 700:.\src-fsm/Fsm.c **** 			/* 'default' enter sequence for state Decide */
 701:.\src-fsm/Fsm.c **** 			/* Entry action for state 'Decide'. */
 702:.\src-fsm/Fsm.c **** 			handle->ifaceWaterControl.opMode = fsmIfaceWaterControl_getOpMode();
 468              		.loc 1 702 0
 469 0114 FFF7FEFF 		bl	fsmIfaceWaterControl_getOpMode
 470              	.LVL41:
 703:.\src-fsm/Fsm.c **** 			handle->stateConfVector[0] = Fsm_main_region_Operation_op_Decide;
 471              		.loc 1 703 0
 472 0118 0223     		mov	r3, #2
 702:.\src-fsm/Fsm.c **** 			handle->ifaceWaterControl.opMode = fsmIfaceWaterControl_getOpMode();
 473              		.loc 1 702 0
 474 011a 6061     		str	r0, [r4, #20]
 475 011c C5E7     		b	.L45
 476              	.L25:
 477              	.LVL42:
 478              	.LBE43:
 479              	.LBE42:
 480              	.LBB44:
 481              	.LBB45:
 704:.\src-fsm/Fsm.c **** 			handle->stateConfVectorPosition = 0;
 705:.\src-fsm/Fsm.c **** 		} 
 706:.\src-fsm/Fsm.c **** 	}
 707:.\src-fsm/Fsm.c **** }
 708:.\src-fsm/Fsm.c **** 
 709:.\src-fsm/Fsm.c **** /* The reactions of state null. */
 710:.\src-fsm/Fsm.c **** static void fsm_react_main_region_TestState_test__final_(Fsm* handle) {
 711:.\src-fsm/Fsm.c **** 	/* The reactions of state null. */
 712:.\src-fsm/Fsm.c **** 	if (handle->ifacePlatform.idle_raised) { 
 482              		.loc 1 712 0
 483 011e A37A     		ldrb	r3, [r4, #10]
 484 0120 002B     		cmp	r3, #0
 485 0122 98D1     		bne	.L31
 486 0124 08E0     		b	.L17
 487              	.LVL43:
 488              	.L26:
 489              	.LBE45:
 490              	.LBE44:
 491              	.LBB46:
 492              	.LBB47:
 713:.\src-fsm/Fsm.c **** 		/* Default exit sequence for state TestState */
 714:.\src-fsm/Fsm.c **** 		/* Default exit sequence for region test */
 715:.\src-fsm/Fsm.c **** 		/* Handle exit of all possible states (of test) at position 0... */
 716:.\src-fsm/Fsm.c **** 		switch(handle->stateConfVector[ 0 ]) {
 717:.\src-fsm/Fsm.c **** 			case Fsm_main_region_TestState_test__final_ : {
 718:.\src-fsm/Fsm.c **** 				/* Default exit sequence for final state. */
 719:.\src-fsm/Fsm.c **** 				handle->stateConfVector[0] = Fsm_last_state;
 720:.\src-fsm/Fsm.c **** 				handle->stateConfVectorPosition = 0;
 721:.\src-fsm/Fsm.c **** 				break;
ARM GAS  C:\Users\SDEVAS~1\AppData\Local\Temp\cc8XtFtw.s 			page 23


 722:.\src-fsm/Fsm.c **** 			}
 723:.\src-fsm/Fsm.c **** 			default: break;
 724:.\src-fsm/Fsm.c **** 		}
 725:.\src-fsm/Fsm.c **** 		/* 'default' enter sequence for state Idle */
 726:.\src-fsm/Fsm.c **** 		handle->stateConfVector[0] = Fsm_main_region_Idle;
 727:.\src-fsm/Fsm.c **** 		handle->stateConfVectorPosition = 0;
 728:.\src-fsm/Fsm.c **** 	}  else {
 729:.\src-fsm/Fsm.c **** 	}
 730:.\src-fsm/Fsm.c **** }
 731:.\src-fsm/Fsm.c **** 
 732:.\src-fsm/Fsm.c **** /* The reactions of state Idle. */
 733:.\src-fsm/Fsm.c **** static void fsm_react_main_region_Idle(Fsm* handle) {
 734:.\src-fsm/Fsm.c **** 	/* The reactions of state Idle. */
 735:.\src-fsm/Fsm.c **** 	if (handle->ifacePlatform.test_raised) { 
 493              		.loc 1 735 0
 494 0126 637A     		ldrb	r3, [r4, #9]
 495 0128 002B     		cmp	r3, #0
 496 012a 02D0     		beq	.L34
 736:.\src-fsm/Fsm.c **** 		/* Default exit sequence for state Idle */
 737:.\src-fsm/Fsm.c **** 		handle->stateConfVector[0] = Fsm_last_state;
 738:.\src-fsm/Fsm.c **** 		handle->stateConfVectorPosition = 0;
 739:.\src-fsm/Fsm.c **** 		/* 'default' enter sequence for state TestState */
 740:.\src-fsm/Fsm.c **** 		/* 'default' enter sequence for region test */
 741:.\src-fsm/Fsm.c **** 		/* Default react sequence for initial entry  */
 742:.\src-fsm/Fsm.c **** 		/* Default enter sequence for state null */
 743:.\src-fsm/Fsm.c **** 		handle->stateConfVector[0] = Fsm_main_region_TestState_test__final_;
 497              		.loc 1 743 0
 498 012c 0823     		mov	r3, #8
 499 012e 2370     		strb	r3, [r4]
 500 0130 02E0     		b	.L17
 501              	.L34:
 744:.\src-fsm/Fsm.c **** 		handle->stateConfVectorPosition = 0;
 745:.\src-fsm/Fsm.c **** 	}  else {
 746:.\src-fsm/Fsm.c **** 		if (handle->ifacePlatform.start_raised) { 
 502              		.loc 1 746 0
 503 0132 237A     		ldrb	r3, [r4, #8]
 504 0134 002B     		cmp	r3, #0
 505 0136 BED1     		bne	.L35
 506              	.LVL44:
 507              	.L17:
 508              	.LBE47:
 509              	.LBE46:
 144:.\src-fsm/Fsm.c **** 		handle->stateConfVectorPosition++) {
 510              		.loc 1 144 0
 511 0138 6368     		ldr	r3, [r4, #4]
 512 013a 0133     		add	r3, r3, #1
 513 013c 63E7     		b	.L46
 514              	.L50:
 515              	.LVL45:
 516              	.LBB48:
 517              	.LBB49:
 128:.\src-fsm/Fsm.c **** 	handle->ifacePlatform.start_raised = bool_false;
 518              		.loc 1 128 0
 519 013e 0023     		mov	r3, #0
 520 0140 2372     		strb	r3, [r4, #8]
 129:.\src-fsm/Fsm.c **** 	handle->ifacePlatform.test_raised = bool_false;
 521              		.loc 1 129 0
ARM GAS  C:\Users\SDEVAS~1\AppData\Local\Temp\cc8XtFtw.s 			page 24


 522 0142 6372     		strb	r3, [r4, #9]
 130:.\src-fsm/Fsm.c **** 	handle->ifacePlatform.idle_raised = bool_false;
 523              		.loc 1 130 0
 524 0144 A372     		strb	r3, [r4, #10]
 131:.\src-fsm/Fsm.c **** 	handle->ifacePlatform.timer_raised = bool_false;
 525              		.loc 1 131 0
 526 0146 E372     		strb	r3, [r4, #11]
 132:.\src-fsm/Fsm.c **** 	handle->timeEvents.fsm_main_region_Operation_op_SendStats_tev0_raised = bool_false; 
 527              		.loc 1 132 0
 528 0148 2376     		strb	r3, [r4, #24]
 529              	.LBE49:
 530              	.LBE48:
 185:.\src-fsm/Fsm.c **** }
 531              		.loc 1 185 0
 532              		@ sp needed
 533              	.LVL46:
 534 014a 38BD     		pop	{r3, r4, r5, pc}
 535              		.cfi_endproc
 536              	.LFE5:
 537              		.size	fsm_runCycle, .-fsm_runCycle
 538              		.section	.text.fsm_raiseTimeEvent,"ax",%progbits
 539              		.align	1
 540              		.global	fsm_raiseTimeEvent
 541              		.code	16
 542              		.thumb_func
 543              		.type	fsm_raiseTimeEvent, %function
 544              	fsm_raiseTimeEvent:
 545              	.LFB6:
 187:.\src-fsm/Fsm.c **** void fsm_raiseTimeEvent(Fsm* handle, sc_eventid evid) {
 546              		.loc 1 187 0
 547              		.cfi_startproc
 548              	.LVL47:
 188:.\src-fsm/Fsm.c **** 	if ( ((intptr_t)evid) >= ((intptr_t)&(handle->timeEvents))
 549              		.loc 1 188 0
 550 0000 031C     		mov	r3, r0
 551 0002 1833     		add	r3, r3, #24
 552 0004 9942     		cmp	r1, r3
 553 0006 04DB     		blt	.L51
 189:.\src-fsm/Fsm.c **** 		&&  ((intptr_t)evid) < ((intptr_t)&(handle->timeEvents)) + sizeof(FsmTimeEvents)) {
 554              		.loc 1 189 0
 555 0008 1930     		add	r0, r0, #25
 556              	.LVL48:
 557 000a 8142     		cmp	r1, r0
 558 000c 01D2     		bcs	.L51
 190:.\src-fsm/Fsm.c **** 		*(sc_boolean*)evid = bool_true;
 559              		.loc 1 190 0
 560 000e 0123     		mov	r3, #1
 561 0010 0B70     		strb	r3, [r1]
 562              	.LVL49:
 563              	.L51:
 192:.\src-fsm/Fsm.c **** }
 564              		.loc 1 192 0
 565              		@ sp needed
 566 0012 7047     		bx	lr
 567              		.cfi_endproc
 568              	.LFE6:
 569              		.size	fsm_raiseTimeEvent, .-fsm_raiseTimeEvent
ARM GAS  C:\Users\SDEVAS~1\AppData\Local\Temp\cc8XtFtw.s 			page 25


 570              		.section	.text.fsm_isActive,"ax",%progbits
 571              		.align	1
 572              		.global	fsm_isActive
 573              		.code	16
 574              		.thumb_func
 575              		.type	fsm_isActive, %function
 576              	fsm_isActive:
 577              	.LFB7:
 194:.\src-fsm/Fsm.c **** sc_boolean fsm_isActive(Fsm* handle, FsmStates state) {
 578              		.loc 1 194 0
 579              		.cfi_startproc
 580              	.LVL50:
 581 0000 021C     		mov	r2, r0
 582 0002 00B5     		push	{lr}
 583              		.cfi_def_cfa_offset 4
 584              		.cfi_offset 14, -4
 226:.\src-fsm/Fsm.c **** 		default: return bool_false;
 585              		.loc 1 226 0
 586 0004 0020     		mov	r0, #0
 587              	.LVL51:
 195:.\src-fsm/Fsm.c **** 	switch (state) {
 588              		.loc 1 195 0
 589 0006 0929     		cmp	r1, #9
 590 0008 24D8     		bhi	.L54
 591 000a 081C     		mov	r0, r1
 592 000c 1378     		ldrb	r3, [r2]
 593 000e FFF7FEFF 		bl	__gnu_thumb1_case_uqi
 594              	.L56:
 595 0012 1E       		.byte	(.L67-.L56)/2
 596 0013 05       		.byte	(.L57-.L56)/2
 597 0014 0A       		.byte	(.L58-.L56)/2
 598 0015 0C       		.byte	(.L59-.L56)/2
 599 0016 0E       		.byte	(.L60-.L56)/2
 600 0017 10       		.byte	(.L61-.L56)/2
 601 0018 12       		.byte	(.L62-.L56)/2
 602 0019 14       		.byte	(.L63-.L56)/2
 603 001a 1B       		.byte	(.L64-.L56)/2
 604 001b 1D       		.byte	(.L65-.L56)/2
 605              		.p2align 1
 606              	.L57:
 201:.\src-fsm/Fsm.c **** 				&& handle->stateConfVector[0] <= Fsm_main_region_Operation_op_SendStats);
 607              		.loc 1 201 0
 608 001c 013B     		sub	r3, r3, #1
 200:.\src-fsm/Fsm.c **** 			return (sc_boolean) (handle->stateConfVector[0] >= Fsm_main_region_Operation
 609              		.loc 1 200 0
 610 001e DAB2     		uxtb	r2, r3
 611              	.LVL52:
 612 0020 0521     		mov	r1, #5
 613              	.LVL53:
 614 0022 0023     		mov	r3, #0
 615 0024 0DE0     		b	.L69
 616              	.LVL54:
 617              	.L58:
 203:.\src-fsm/Fsm.c **** 			return (sc_boolean) (handle->stateConfVector[0] == Fsm_main_region_Operation_op_Decide
 618              		.loc 1 203 0
 619 0026 023B     		sub	r3, r3, #2
 620 0028 11E0     		b	.L67
ARM GAS  C:\Users\SDEVAS~1\AppData\Local\Temp\cc8XtFtw.s 			page 26


 621              	.L59:
 206:.\src-fsm/Fsm.c **** 			return (sc_boolean) (handle->stateConfVector[0] == Fsm_main_region_Operation_op_ValveOn
 622              		.loc 1 206 0
 623 002a 033B     		sub	r3, r3, #3
 624 002c 0FE0     		b	.L67
 625              	.L60:
 209:.\src-fsm/Fsm.c **** 			return (sc_boolean) (handle->stateConfVector[0] == Fsm_main_region_Operation_op_ValveOff
 626              		.loc 1 209 0
 627 002e 043B     		sub	r3, r3, #4
 628 0030 0DE0     		b	.L67
 629              	.L61:
 212:.\src-fsm/Fsm.c **** 			return (sc_boolean) (handle->stateConfVector[0] == Fsm_main_region_Operation_op_VolumeCheck
 630              		.loc 1 212 0
 631 0032 053B     		sub	r3, r3, #5
 632 0034 0BE0     		b	.L67
 633              	.L62:
 215:.\src-fsm/Fsm.c **** 			return (sc_boolean) (handle->stateConfVector[0] == Fsm_main_region_Operation_op_SendStats
 634              		.loc 1 215 0
 635 0036 063B     		sub	r3, r3, #6
 636 0038 09E0     		b	.L67
 637              	.L63:
 219:.\src-fsm/Fsm.c **** 				&& handle->stateConfVector[0] <= Fsm_main_region_TestState_test__final_);
 638              		.loc 1 219 0
 639 003a 073B     		sub	r3, r3, #7
 218:.\src-fsm/Fsm.c **** 			return (sc_boolean) (handle->stateConfVector[0] >= Fsm_main_region_TestState
 640              		.loc 1 218 0
 641 003c DAB2     		uxtb	r2, r3
 642              	.LVL55:
 643 003e 0121     		mov	r1, #1
 644              	.LVL56:
 645 0040 0023     		mov	r3, #0
 646              	.L69:
 647 0042 9142     		cmp	r1, r2
 648 0044 5B41     		adc	r3, r3, r3
 649 0046 04E0     		b	.L68
 650              	.LVL57:
 651              	.L64:
 221:.\src-fsm/Fsm.c **** 			return (sc_boolean) (handle->stateConfVector[0] == Fsm_main_region_TestState_test__final_
 652              		.loc 1 221 0
 653 0048 083B     		sub	r3, r3, #8
 654 004a 00E0     		b	.L67
 655              	.L65:
 224:.\src-fsm/Fsm.c **** 			return (sc_boolean) (handle->stateConfVector[0] == Fsm_main_region_Idle
 656              		.loc 1 224 0
 657 004c 093B     		sub	r3, r3, #9
 658              	.L67:
 659 004e 5A42     		neg	r2, r3
 660 0050 5341     		adc	r3, r3, r2
 661              	.LVL58:
 662              	.L68:
 663 0052 D8B2     		uxtb	r0, r3
 664              	.L54:
 228:.\src-fsm/Fsm.c **** }
 665              		.loc 1 228 0
 666              		@ sp needed
 667 0054 00BD     		pop	{pc}
 668              		.cfi_endproc
ARM GAS  C:\Users\SDEVAS~1\AppData\Local\Temp\cc8XtFtw.s 			page 27


 669              	.LFE7:
 670              		.size	fsm_isActive, .-fsm_isActive
 671              		.section	.text.fsmIfacePlatform_raise_start,"ax",%progbits
 672              		.align	1
 673              		.global	fsmIfacePlatform_raise_start
 674              		.code	16
 675              		.thumb_func
 676              		.type	fsmIfacePlatform_raise_start, %function
 677              	fsmIfacePlatform_raise_start:
 678              	.LFB8:
 230:.\src-fsm/Fsm.c **** void fsmIfacePlatform_raise_start(Fsm* handle) {
 679              		.loc 1 230 0
 680              		.cfi_startproc
 681              	.LVL59:
 231:.\src-fsm/Fsm.c **** 	handle->ifacePlatform.start_raised = bool_true;
 682              		.loc 1 231 0
 683 0000 0123     		mov	r3, #1
 684 0002 0372     		strb	r3, [r0, #8]
 232:.\src-fsm/Fsm.c **** }
 685              		.loc 1 232 0
 686              		@ sp needed
 687 0004 7047     		bx	lr
 688              		.cfi_endproc
 689              	.LFE8:
 690              		.size	fsmIfacePlatform_raise_start, .-fsmIfacePlatform_raise_start
 691              		.section	.text.fsmIfacePlatform_raise_test,"ax",%progbits
 692              		.align	1
 693              		.global	fsmIfacePlatform_raise_test
 694              		.code	16
 695              		.thumb_func
 696              		.type	fsmIfacePlatform_raise_test, %function
 697              	fsmIfacePlatform_raise_test:
 698              	.LFB9:
 233:.\src-fsm/Fsm.c **** void fsmIfacePlatform_raise_test(Fsm* handle) {
 699              		.loc 1 233 0
 700              		.cfi_startproc
 701              	.LVL60:
 234:.\src-fsm/Fsm.c **** 	handle->ifacePlatform.test_raised = bool_true;
 702              		.loc 1 234 0
 703 0000 0123     		mov	r3, #1
 704 0002 4372     		strb	r3, [r0, #9]
 235:.\src-fsm/Fsm.c **** }
 705              		.loc 1 235 0
 706              		@ sp needed
 707 0004 7047     		bx	lr
 708              		.cfi_endproc
 709              	.LFE9:
 710              		.size	fsmIfacePlatform_raise_test, .-fsmIfacePlatform_raise_test
 711              		.section	.text.fsmIfacePlatform_raise_idle,"ax",%progbits
 712              		.align	1
 713              		.global	fsmIfacePlatform_raise_idle
 714              		.code	16
 715              		.thumb_func
 716              		.type	fsmIfacePlatform_raise_idle, %function
 717              	fsmIfacePlatform_raise_idle:
 718              	.LFB10:
 236:.\src-fsm/Fsm.c **** void fsmIfacePlatform_raise_idle(Fsm* handle) {
ARM GAS  C:\Users\SDEVAS~1\AppData\Local\Temp\cc8XtFtw.s 			page 28


 719              		.loc 1 236 0
 720              		.cfi_startproc
 721              	.LVL61:
 237:.\src-fsm/Fsm.c **** 	handle->ifacePlatform.idle_raised = bool_true;
 722              		.loc 1 237 0
 723 0000 0123     		mov	r3, #1
 724 0002 8372     		strb	r3, [r0, #10]
 238:.\src-fsm/Fsm.c **** }
 725              		.loc 1 238 0
 726              		@ sp needed
 727 0004 7047     		bx	lr
 728              		.cfi_endproc
 729              	.LFE10:
 730              		.size	fsmIfacePlatform_raise_idle, .-fsmIfacePlatform_raise_idle
 731              		.section	.text.fsmIfacePlatform_raise_timer,"ax",%progbits
 732              		.align	1
 733              		.global	fsmIfacePlatform_raise_timer
 734              		.code	16
 735              		.thumb_func
 736              		.type	fsmIfacePlatform_raise_timer, %function
 737              	fsmIfacePlatform_raise_timer:
 738              	.LFB11:
 239:.\src-fsm/Fsm.c **** void fsmIfacePlatform_raise_timer(Fsm* handle) {
 739              		.loc 1 239 0
 740              		.cfi_startproc
 741              	.LVL62:
 240:.\src-fsm/Fsm.c **** 	handle->ifacePlatform.timer_raised = bool_true;
 742              		.loc 1 240 0
 743 0000 0123     		mov	r3, #1
 744 0002 C372     		strb	r3, [r0, #11]
 241:.\src-fsm/Fsm.c **** }
 745              		.loc 1 241 0
 746              		@ sp needed
 747 0004 7047     		bx	lr
 748              		.cfi_endproc
 749              	.LFE11:
 750              		.size	fsmIfacePlatform_raise_timer, .-fsmIfacePlatform_raise_timer
 751              		.section	.text.fsmIfaceWaterControl_get_maxVolume,"ax",%progbits
 752              		.align	1
 753              		.global	fsmIfaceWaterControl_get_maxVolume
 754              		.code	16
 755              		.thumb_func
 756              		.type	fsmIfaceWaterControl_get_maxVolume, %function
 757              	fsmIfaceWaterControl_get_maxVolume:
 758              	.LFB12:
 248:.\src-fsm/Fsm.c **** sc_integer fsmIfaceWaterControl_get_maxVolume(Fsm* handle) {
 759              		.loc 1 248 0
 760              		.cfi_startproc
 761              	.LVL63:
 249:.\src-fsm/Fsm.c **** 	return handle->ifaceWaterControl.maxVolume;
 762              		.loc 1 249 0
 763 0000 C068     		ldr	r0, [r0, #12]
 764              	.LVL64:
 250:.\src-fsm/Fsm.c **** }
 765              		.loc 1 250 0
 766              		@ sp needed
 767 0002 7047     		bx	lr
ARM GAS  C:\Users\SDEVAS~1\AppData\Local\Temp\cc8XtFtw.s 			page 29


 768              		.cfi_endproc
 769              	.LFE12:
 770              		.size	fsmIfaceWaterControl_get_maxVolume, .-fsmIfaceWaterControl_get_maxVolume
 771              		.section	.text.fsmIfaceWaterControl_set_maxVolume,"ax",%progbits
 772              		.align	1
 773              		.global	fsmIfaceWaterControl_set_maxVolume
 774              		.code	16
 775              		.thumb_func
 776              		.type	fsmIfaceWaterControl_set_maxVolume, %function
 777              	fsmIfaceWaterControl_set_maxVolume:
 778              	.LFB13:
 251:.\src-fsm/Fsm.c **** void fsmIfaceWaterControl_set_maxVolume(Fsm* handle, sc_integer value) {
 779              		.loc 1 251 0
 780              		.cfi_startproc
 781              	.LVL65:
 252:.\src-fsm/Fsm.c **** 	handle->ifaceWaterControl.maxVolume = value;
 782              		.loc 1 252 0
 783 0000 C160     		str	r1, [r0, #12]
 253:.\src-fsm/Fsm.c **** }
 784              		.loc 1 253 0
 785              		@ sp needed
 786 0002 7047     		bx	lr
 787              		.cfi_endproc
 788              	.LFE13:
 789              		.size	fsmIfaceWaterControl_set_maxVolume, .-fsmIfaceWaterControl_set_maxVolume
 790              		.section	.text.fsmIfaceWaterControl_get_currentVolume,"ax",%progbits
 791              		.align	1
 792              		.global	fsmIfaceWaterControl_get_currentVolume
 793              		.code	16
 794              		.thumb_func
 795              		.type	fsmIfaceWaterControl_get_currentVolume, %function
 796              	fsmIfaceWaterControl_get_currentVolume:
 797              	.LFB14:
 254:.\src-fsm/Fsm.c **** sc_integer fsmIfaceWaterControl_get_currentVolume(Fsm* handle) {
 798              		.loc 1 254 0
 799              		.cfi_startproc
 800              	.LVL66:
 255:.\src-fsm/Fsm.c **** 	return handle->ifaceWaterControl.currentVolume;
 801              		.loc 1 255 0
 802 0000 0069     		ldr	r0, [r0, #16]
 803              	.LVL67:
 256:.\src-fsm/Fsm.c **** }
 804              		.loc 1 256 0
 805              		@ sp needed
 806 0002 7047     		bx	lr
 807              		.cfi_endproc
 808              	.LFE14:
 809              		.size	fsmIfaceWaterControl_get_currentVolume, .-fsmIfaceWaterControl_get_currentVolume
 810              		.section	.text.fsmIfaceWaterControl_set_currentVolume,"ax",%progbits
 811              		.align	1
 812              		.global	fsmIfaceWaterControl_set_currentVolume
 813              		.code	16
 814              		.thumb_func
 815              		.type	fsmIfaceWaterControl_set_currentVolume, %function
 816              	fsmIfaceWaterControl_set_currentVolume:
 817              	.LFB15:
 257:.\src-fsm/Fsm.c **** void fsmIfaceWaterControl_set_currentVolume(Fsm* handle, sc_integer value) {
ARM GAS  C:\Users\SDEVAS~1\AppData\Local\Temp\cc8XtFtw.s 			page 30


 818              		.loc 1 257 0
 819              		.cfi_startproc
 820              	.LVL68:
 258:.\src-fsm/Fsm.c **** 	handle->ifaceWaterControl.currentVolume = value;
 821              		.loc 1 258 0
 822 0000 0161     		str	r1, [r0, #16]
 259:.\src-fsm/Fsm.c **** }
 823              		.loc 1 259 0
 824              		@ sp needed
 825 0002 7047     		bx	lr
 826              		.cfi_endproc
 827              	.LFE15:
 828              		.size	fsmIfaceWaterControl_set_currentVolume, .-fsmIfaceWaterControl_set_currentVolume
 829              		.section	.text.fsmIfaceWaterControl_get_opMode,"ax",%progbits
 830              		.align	1
 831              		.global	fsmIfaceWaterControl_get_opMode
 832              		.code	16
 833              		.thumb_func
 834              		.type	fsmIfaceWaterControl_get_opMode, %function
 835              	fsmIfaceWaterControl_get_opMode:
 836              	.LFB16:
 260:.\src-fsm/Fsm.c **** sc_integer fsmIfaceWaterControl_get_opMode(Fsm* handle) {
 837              		.loc 1 260 0
 838              		.cfi_startproc
 839              	.LVL69:
 261:.\src-fsm/Fsm.c **** 	return handle->ifaceWaterControl.opMode;
 840              		.loc 1 261 0
 841 0000 4069     		ldr	r0, [r0, #20]
 842              	.LVL70:
 262:.\src-fsm/Fsm.c **** }
 843              		.loc 1 262 0
 844              		@ sp needed
 845 0002 7047     		bx	lr
 846              		.cfi_endproc
 847              	.LFE16:
 848              		.size	fsmIfaceWaterControl_get_opMode, .-fsmIfaceWaterControl_get_opMode
 849              		.section	.text.fsmIfaceWaterControl_set_opMode,"ax",%progbits
 850              		.align	1
 851              		.global	fsmIfaceWaterControl_set_opMode
 852              		.code	16
 853              		.thumb_func
 854              		.type	fsmIfaceWaterControl_set_opMode, %function
 855              	fsmIfaceWaterControl_set_opMode:
 856              	.LFB17:
 263:.\src-fsm/Fsm.c **** void fsmIfaceWaterControl_set_opMode(Fsm* handle, sc_integer value) {
 857              		.loc 1 263 0
 858              		.cfi_startproc
 859              	.LVL71:
 264:.\src-fsm/Fsm.c **** 	handle->ifaceWaterControl.opMode = value;
 860              		.loc 1 264 0
 861 0000 4161     		str	r1, [r0, #20]
 265:.\src-fsm/Fsm.c **** }
 862              		.loc 1 265 0
 863              		@ sp needed
 864 0002 7047     		bx	lr
 865              		.cfi_endproc
 866              	.LFE17:
ARM GAS  C:\Users\SDEVAS~1\AppData\Local\Temp\cc8XtFtw.s 			page 31


 867              		.size	fsmIfaceWaterControl_set_opMode, .-fsmIfaceWaterControl_set_opMode
 868              		.text
 869              	.Letext0:
 870              		.file 2 "c:\\program files (x86)\\cypress\\psoc creator\\3.2\\psoc creator\\import\\gnu\\arm\\4.8.
 871              		.file 3 "c:\\program files (x86)\\cypress\\psoc creator\\3.2\\psoc creator\\import\\gnu\\arm\\4.8.
 872              		.file 4 ".\\src-fsm\\sc_types.h"
 873              		.file 5 ".\\src-fsm\\Fsm.h"
 874              		.file 6 ".\\src-fsm\\FsmRequired.h"