ARM GAS  C:\Users\SDEVAS~1\AppData\Local\Temp\cc8lYrGW.s 			page 1


   1              		.cpu cortex-m0
   2              		.fpu softvfp
   3              		.eabi_attribute 20, 1
   4              		.eabi_attribute 21, 1
   5              		.eabi_attribute 23, 3
   6              		.eabi_attribute 24, 1
   7              		.eabi_attribute 25, 1
   8              		.eabi_attribute 26, 1
   9              		.eabi_attribute 30, 4
  10              		.eabi_attribute 34, 0
  11              		.eabi_attribute 18, 4
  12              		.code	16
  13              		.file	"hwInterface.c"
  14              		.text
  15              	.Ltext0:
  16              		.cfi_sections	.debug_frame
  17              		.section	.text.hwInterface_Init,"ax",%progbits
  18              		.align	1
  19              		.global	hwInterface_Init
  20              		.code	16
  21              		.thumb_func
  22              		.type	hwInterface_Init, %function
  23              	hwInterface_Init:
  24              	.LFB33:
  25              		.file 1 ".\\src\\hwInterface.c"
   1:.\src/hwInterface.c **** #include "hwInterface.h"
   2:.\src/hwInterface.c **** 
   3:.\src/hwInterface.c **** 
   4:.\src/hwInterface.c **** 
   5:.\src/hwInterface.c **** void hwInterface_Init(void){
  26              		.loc 1 5 0
  27              		.cfi_startproc
  28 0000 08B5     		push	{r3, lr}
  29              		.cfi_def_cfa_offset 8
  30              		.cfi_offset 3, -8
  31              		.cfi_offset 14, -4
   6:.\src/hwInterface.c ****     
   7:.\src/hwInterface.c ****     Ctrl_12V_Write(1u);
  32              		.loc 1 7 0
  33 0002 0120     		mov	r0, #1
  34 0004 FFF7FEFF 		bl	Ctrl_12V_Write
  35              	.LVL0:
   8:.\src/hwInterface.c ****     Ctrl_5V_Write(1u);
  36              		.loc 1 8 0
  37 0008 0120     		mov	r0, #1
  38 000a FFF7FEFF 		bl	Ctrl_5V_Write
  39              	.LVL1:
   9:.\src/hwInterface.c ****     
  10:.\src/hwInterface.c ****     Counter_Start();
  11:.\src/hwInterface.c ****     
  12:.\src/hwInterface.c ****     ADC_Start();
  13:.\src/hwInterface.c ****     ADC_StartConvert();
  14:.\src/hwInterface.c **** 
  15:.\src/hwInterface.c **** 
  16:.\src/hwInterface.c **** }
  40              		.loc 1 16 0
  41              		@ sp needed
ARM GAS  C:\Users\SDEVAS~1\AppData\Local\Temp\cc8lYrGW.s 			page 2


  10:.\src/hwInterface.c ****     Counter_Start();
  42              		.loc 1 10 0
  43 000e FFF7FEFF 		bl	Counter_Start
  44              	.LVL2:
  12:.\src/hwInterface.c ****     ADC_Start();
  45              		.loc 1 12 0
  46 0012 FFF7FEFF 		bl	ADC_Start
  47              	.LVL3:
  13:.\src/hwInterface.c ****     ADC_StartConvert();
  48              		.loc 1 13 0
  49 0016 FFF7FEFF 		bl	ADC_StartConvert
  50              	.LVL4:
  51              		.loc 1 16 0
  52 001a 08BD     		pop	{r3, pc}
  53              		.cfi_endproc
  54              	.LFE33:
  55              		.size	hwInterface_Init, .-hwInterface_Init
  56              		.section	.text.setValve1ON,"ax",%progbits
  57              		.align	1
  58              		.global	setValve1ON
  59              		.code	16
  60              		.thumb_func
  61              		.type	setValve1ON, %function
  62              	setValve1ON:
  63              	.LFB34:
  17:.\src/hwInterface.c **** /*******************************************************************************
  18:.\src/hwInterface.c **** * Function Name: setValve1ON
  19:.\src/hwInterface.c **** ********************************************************************************
  20:.\src/hwInterface.c **** *
  21:.\src/hwInterface.c **** * Summary:
  22:.\src/hwInterface.c **** *  Turns on valve 1 (connector J9 on Water Control Atom.)
  23:.\src/hwInterface.c **** *
  24:.\src/hwInterface.c **** * Parameters:
  25:.\src/hwInterface.c **** *  direction: The direction in which to turn the valve ON.
  26:.\src/hwInterface.c **** *  TRUE		1 to set pin 2 high and pin 1 low
  27:.\src/hwInterface.c **** *  FALSE	0 to set pin 1 high and pin 2 low
  28:.\src/hwInterface.c **** *
  29:.\src/hwInterface.c **** * Return:
  30:.\src/hwInterface.c **** *  None.
  31:.\src/hwInterface.c **** *
  32:.\src/hwInterface.c **** *******************************************************************************/
  33:.\src/hwInterface.c **** void setValve1ON(bool direction){
  64              		.loc 1 33 0
  65              		.cfi_startproc
  66              	.LVL5:
  67 0000 10B5     		push	{r4, lr}
  68              		.cfi_def_cfa_offset 8
  69              		.cfi_offset 4, -8
  70              		.cfi_offset 14, -4
  71              		.loc 1 33 0
  72 0002 041E     		sub	r4, r0, #0
  34:.\src/hwInterface.c ****     if (direction==true){ //Direction 1
  73              		.loc 1 34 0
  74 0004 04D0     		beq	.L3
  35:.\src/hwInterface.c ****          ON1_DIR1_Write(0u);
  75              		.loc 1 35 0
  76 0006 0020     		mov	r0, #0
ARM GAS  C:\Users\SDEVAS~1\AppData\Local\Temp\cc8lYrGW.s 			page 3


  77              	.LVL6:
  78 0008 FFF7FEFF 		bl	ON1_DIR1_Write
  79              	.LVL7:
  36:.\src/hwInterface.c ****          ON2_DIR2_Write(1u);
  80              		.loc 1 36 0
  81 000c 0120     		mov	r0, #1
  82 000e 03E0     		b	.L5
  83              	.LVL8:
  84              	.L3:
  37:.\src/hwInterface.c ****     }
  38:.\src/hwInterface.c ****     else{
  39:.\src/hwInterface.c ****         ON1_DIR1_Write(1u);
  85              		.loc 1 39 0
  86 0010 0120     		mov	r0, #1
  87              	.LVL9:
  88 0012 FFF7FEFF 		bl	ON1_DIR1_Write
  89              	.LVL10:
  40:.\src/hwInterface.c ****         ON2_DIR2_Write(0u);
  90              		.loc 1 40 0
  91 0016 201C     		mov	r0, r4
  92              	.L5:
  93 0018 FFF7FEFF 		bl	ON2_DIR2_Write
  94              	.LVL11:
  41:.\src/hwInterface.c ****     }
  42:.\src/hwInterface.c **** }
  95              		.loc 1 42 0
  96              		@ sp needed
  97 001c 10BD     		pop	{r4, pc}
  98              		.cfi_endproc
  99              	.LFE34:
 100              		.size	setValve1ON, .-setValve1ON
 101              		.section	.text.setValve2ON,"ax",%progbits
 102              		.align	1
 103              		.global	setValve2ON
 104              		.code	16
 105              		.thumb_func
 106              		.type	setValve2ON, %function
 107              	setValve2ON:
 108              	.LFB35:
  43:.\src/hwInterface.c **** /*******************************************************************************
  44:.\src/hwInterface.c **** * Function Name: setValve2ON
  45:.\src/hwInterface.c **** ********************************************************************************
  46:.\src/hwInterface.c **** *
  47:.\src/hwInterface.c **** * Summary:
  48:.\src/hwInterface.c **** *  Turns on valve 2 (connector J11 on Water Control Atom.)
  49:.\src/hwInterface.c **** *
  50:.\src/hwInterface.c **** * Parameters:
  51:.\src/hwInterface.c **** *  direction: The direction in which to turn the valve ON.
  52:.\src/hwInterface.c **** *  TRUE		1 to set pin 2 high and pin 1 low
  53:.\src/hwInterface.c **** *  FALSE	0 to set pin 1 high and pin 2 low
  54:.\src/hwInterface.c **** *
  55:.\src/hwInterface.c **** * Return:
  56:.\src/hwInterface.c **** *  None.
  57:.\src/hwInterface.c **** *
  58:.\src/hwInterface.c **** *******************************************************************************/
  59:.\src/hwInterface.c **** void setValve2ON(bool direction){
 109              		.loc 1 59 0
ARM GAS  C:\Users\SDEVAS~1\AppData\Local\Temp\cc8lYrGW.s 			page 4


 110              		.cfi_startproc
 111              	.LVL12:
 112 0000 10B5     		push	{r4, lr}
 113              		.cfi_def_cfa_offset 8
 114              		.cfi_offset 4, -8
 115              		.cfi_offset 14, -4
 116              		.loc 1 59 0
 117 0002 041E     		sub	r4, r0, #0
  60:.\src/hwInterface.c ****     if (direction==true){ //Direction 1
 118              		.loc 1 60 0
 119 0004 04D0     		beq	.L8
  61:.\src/hwInterface.c ****         ON1_DIR2_Write(0u);
 120              		.loc 1 61 0
 121 0006 0020     		mov	r0, #0
 122              	.LVL13:
 123 0008 FFF7FEFF 		bl	ON1_DIR2_Write
 124              	.LVL14:
  62:.\src/hwInterface.c ****         ON2_DIR1_Write(1u);
 125              		.loc 1 62 0
 126 000c 0120     		mov	r0, #1
 127 000e 03E0     		b	.L10
 128              	.LVL15:
 129              	.L8:
  63:.\src/hwInterface.c ****     }
  64:.\src/hwInterface.c ****     else{
  65:.\src/hwInterface.c ****        ON1_DIR2_Write(1u);
 130              		.loc 1 65 0
 131 0010 0120     		mov	r0, #1
 132              	.LVL16:
 133 0012 FFF7FEFF 		bl	ON1_DIR2_Write
 134              	.LVL17:
  66:.\src/hwInterface.c ****        ON2_DIR1_Write(0u);
 135              		.loc 1 66 0
 136 0016 201C     		mov	r0, r4
 137              	.L10:
 138 0018 FFF7FEFF 		bl	ON2_DIR1_Write
 139              	.LVL18:
  67:.\src/hwInterface.c ****     }
  68:.\src/hwInterface.c **** }
 140              		.loc 1 68 0
 141              		@ sp needed
 142 001c 10BD     		pop	{r4, pc}
 143              		.cfi_endproc
 144              	.LFE35:
 145              		.size	setValve2ON, .-setValve2ON
 146              		.section	.text.setValve3ON,"ax",%progbits
 147              		.align	1
 148              		.global	setValve3ON
 149              		.code	16
 150              		.thumb_func
 151              		.type	setValve3ON, %function
 152              	setValve3ON:
 153              	.LFB36:
  69:.\src/hwInterface.c **** /*******************************************************************************
  70:.\src/hwInterface.c **** * Function Name: setValve3ON
  71:.\src/hwInterface.c **** ********************************************************************************
  72:.\src/hwInterface.c **** *
ARM GAS  C:\Users\SDEVAS~1\AppData\Local\Temp\cc8lYrGW.s 			page 5


  73:.\src/hwInterface.c **** * Summary:
  74:.\src/hwInterface.c **** *  Turns on valve 3 (connector J8 on Water Control Atom.)
  75:.\src/hwInterface.c **** *
  76:.\src/hwInterface.c **** * Parameters:
  77:.\src/hwInterface.c **** *  direction: The direction in which to turn the valve ON.
  78:.\src/hwInterface.c **** *  TRUE		1 to set pin 2 high and pin 1 low
  79:.\src/hwInterface.c **** *  FALSE	0 to set pin 1 high and pin 2 low
  80:.\src/hwInterface.c **** *
  81:.\src/hwInterface.c **** * Return:
  82:.\src/hwInterface.c **** *  None.
  83:.\src/hwInterface.c **** *
  84:.\src/hwInterface.c **** *******************************************************************************/
  85:.\src/hwInterface.c **** void setValve3ON(bool direction){
 154              		.loc 1 85 0
 155              		.cfi_startproc
 156              	.LVL19:
 157 0000 10B5     		push	{r4, lr}
 158              		.cfi_def_cfa_offset 8
 159              		.cfi_offset 4, -8
 160              		.cfi_offset 14, -4
 161              		.loc 1 85 0
 162 0002 041E     		sub	r4, r0, #0
  86:.\src/hwInterface.c ****     if (direction==true){ //Direction 1
 163              		.loc 1 86 0
 164 0004 04D0     		beq	.L12
  87:.\src/hwInterface.c ****         ON3_DIR1_Write(0u);
 165              		.loc 1 87 0
 166 0006 0020     		mov	r0, #0
 167              	.LVL20:
 168 0008 FFF7FEFF 		bl	ON3_DIR1_Write
 169              	.LVL21:
  88:.\src/hwInterface.c ****         ON4_DIR2_Write(1u);
 170              		.loc 1 88 0
 171 000c 0120     		mov	r0, #1
 172 000e 03E0     		b	.L14
 173              	.LVL22:
 174              	.L12:
  89:.\src/hwInterface.c ****     }
  90:.\src/hwInterface.c ****     else{
  91:.\src/hwInterface.c ****         ON3_DIR1_Write(1u);
 175              		.loc 1 91 0
 176 0010 0120     		mov	r0, #1
 177              	.LVL23:
 178 0012 FFF7FEFF 		bl	ON3_DIR1_Write
 179              	.LVL24:
  92:.\src/hwInterface.c ****         ON4_DIR2_Write(0u);
 180              		.loc 1 92 0
 181 0016 201C     		mov	r0, r4
 182              	.L14:
 183 0018 FFF7FEFF 		bl	ON4_DIR2_Write
 184              	.LVL25:
  93:.\src/hwInterface.c ****     }
  94:.\src/hwInterface.c **** }
 185              		.loc 1 94 0
 186              		@ sp needed
 187 001c 10BD     		pop	{r4, pc}
 188              		.cfi_endproc
ARM GAS  C:\Users\SDEVAS~1\AppData\Local\Temp\cc8lYrGW.s 			page 6


 189              	.LFE36:
 190              		.size	setValve3ON, .-setValve3ON
 191              		.section	.text.setValve4ON,"ax",%progbits
 192              		.align	1
 193              		.global	setValve4ON
 194              		.code	16
 195              		.thumb_func
 196              		.type	setValve4ON, %function
 197              	setValve4ON:
 198              	.LFB37:
  95:.\src/hwInterface.c **** /*******************************************************************************
  96:.\src/hwInterface.c **** * Function Name: setValve4ON
  97:.\src/hwInterface.c **** ********************************************************************************
  98:.\src/hwInterface.c **** *
  99:.\src/hwInterface.c **** * Summary:
 100:.\src/hwInterface.c **** *  Turns on valve 4 (connector J10 on Water Control Atom.)
 101:.\src/hwInterface.c **** *
 102:.\src/hwInterface.c **** * Parameters:
 103:.\src/hwInterface.c **** *  direction: The direction in which to turn the valve ON.
 104:.\src/hwInterface.c **** *  TRUE		1 to set pin 2 high and pin 1 low
 105:.\src/hwInterface.c **** *  FALSE	0 to set pin 1 high and pin 2 low
 106:.\src/hwInterface.c **** *
 107:.\src/hwInterface.c **** * Return:
 108:.\src/hwInterface.c **** *  None.
 109:.\src/hwInterface.c **** *
 110:.\src/hwInterface.c **** *******************************************************************************/
 111:.\src/hwInterface.c **** void setValve4ON(bool direction){
 199              		.loc 1 111 0
 200              		.cfi_startproc
 201              	.LVL26:
 202 0000 10B5     		push	{r4, lr}
 203              		.cfi_def_cfa_offset 8
 204              		.cfi_offset 4, -8
 205              		.cfi_offset 14, -4
 206              		.loc 1 111 0
 207 0002 041E     		sub	r4, r0, #0
 112:.\src/hwInterface.c ****     if (direction==true){ //Direction 1
 208              		.loc 1 112 0
 209 0004 04D0     		beq	.L16
 113:.\src/hwInterface.c ****         ON3_DIR2_Write(0u);
 210              		.loc 1 113 0
 211 0006 0020     		mov	r0, #0
 212              	.LVL27:
 213 0008 FFF7FEFF 		bl	ON3_DIR2_Write
 214              	.LVL28:
 114:.\src/hwInterface.c ****         ON4_DIR1_Write(1u);
 215              		.loc 1 114 0
 216 000c 0120     		mov	r0, #1
 217 000e 03E0     		b	.L18
 218              	.LVL29:
 219              	.L16:
 115:.\src/hwInterface.c ****     }
 116:.\src/hwInterface.c ****     else{
 117:.\src/hwInterface.c ****         ON3_DIR2_Write(1u);
 220              		.loc 1 117 0
 221 0010 0120     		mov	r0, #1
 222              	.LVL30:
ARM GAS  C:\Users\SDEVAS~1\AppData\Local\Temp\cc8lYrGW.s 			page 7


 223 0012 FFF7FEFF 		bl	ON3_DIR2_Write
 224              	.LVL31:
 118:.\src/hwInterface.c ****         ON4_DIR1_Write(0u);
 225              		.loc 1 118 0
 226 0016 201C     		mov	r0, r4
 227              	.L18:
 228 0018 FFF7FEFF 		bl	ON4_DIR1_Write
 229              	.LVL32:
 119:.\src/hwInterface.c ****     }
 120:.\src/hwInterface.c **** }
 230              		.loc 1 120 0
 231              		@ sp needed
 232 001c 10BD     		pop	{r4, pc}
 233              		.cfi_endproc
 234              	.LFE37:
 235              		.size	setValve4ON, .-setValve4ON
 236              		.section	.text.setValve1OFF,"ax",%progbits
 237              		.align	1
 238              		.global	setValve1OFF
 239              		.code	16
 240              		.thumb_func
 241              		.type	setValve1OFF, %function
 242              	setValve1OFF:
 243              	.LFB38:
 121:.\src/hwInterface.c **** /*******************************************************************************
 122:.\src/hwInterface.c **** * Function Name: setValve5ON
 123:.\src/hwInterface.c **** ********************************************************************************
 124:.\src/hwInterface.c **** *
 125:.\src/hwInterface.c **** * Summary:
 126:.\src/hwInterface.c **** *  Turns on valve 5 (connector J6 on Water Control Atom.)
 127:.\src/hwInterface.c **** *
 128:.\src/hwInterface.c **** * Parameters:
 129:.\src/hwInterface.c **** *  direction: The direction in which to turn the valve ON.
 130:.\src/hwInterface.c **** *  TRUE		1 to set pin 2 high and pin 1 low
 131:.\src/hwInterface.c **** *  FALSE	0 to set pin 1 high and pin 2 low
 132:.\src/hwInterface.c **** *
 133:.\src/hwInterface.c **** * Return:
 134:.\src/hwInterface.c **** *  None.
 135:.\src/hwInterface.c **** *
 136:.\src/hwInterface.c **** *******************************************************************************/
 137:.\src/hwInterface.c **** /*void setValve5ON(bool direction){
 138:.\src/hwInterface.c ****     if (direction==true){ //Direction 1
 139:.\src/hwInterface.c ****         ON5_DIR1_Write(0u);
 140:.\src/hwInterface.c ****         ON6_DIR2_Write(1u);
 141:.\src/hwInterface.c ****     }
 142:.\src/hwInterface.c ****     else{
 143:.\src/hwInterface.c ****         ON5_DIR1_Write(1u);
 144:.\src/hwInterface.c ****         ON6_DIR2_Write(0u);
 145:.\src/hwInterface.c ****     }
 146:.\src/hwInterface.c **** }*/
 147:.\src/hwInterface.c **** /*******************************************************************************
 148:.\src/hwInterface.c **** * Function Name: setValve6ON
 149:.\src/hwInterface.c **** ********************************************************************************
 150:.\src/hwInterface.c **** *
 151:.\src/hwInterface.c **** * Summary:
 152:.\src/hwInterface.c **** *  Turns on valve 6 (connector J7 on Water Control Atom.)
 153:.\src/hwInterface.c **** *
ARM GAS  C:\Users\SDEVAS~1\AppData\Local\Temp\cc8lYrGW.s 			page 8


 154:.\src/hwInterface.c **** * Parameters:
 155:.\src/hwInterface.c **** *  direction: The direction in which to turn the valve ON.
 156:.\src/hwInterface.c **** *  TRUE		1 to set pin 2 high and pin 1 low
 157:.\src/hwInterface.c **** *  FALSE	0 to set pin 1 high and pin 2 low
 158:.\src/hwInterface.c **** *
 159:.\src/hwInterface.c **** * Return:
 160:.\src/hwInterface.c **** *  None.
 161:.\src/hwInterface.c **** *
 162:.\src/hwInterface.c **** *******************************************************************************/
 163:.\src/hwInterface.c **** /*void setValve6ON(bool direction){
 164:.\src/hwInterface.c ****     if (direction==true){ //Direction 1
 165:.\src/hwInterface.c ****          ON5_DIR2_Write(0u);
 166:.\src/hwInterface.c ****          ON6_DIR1_Write(1u);
 167:.\src/hwInterface.c ****     }
 168:.\src/hwInterface.c ****     else{
 169:.\src/hwInterface.c ****           ON5_DIR2_Write(1u);
 170:.\src/hwInterface.c ****          ON6_DIR1_Write(0u);
 171:.\src/hwInterface.c ****     }
 172:.\src/hwInterface.c **** }
 173:.\src/hwInterface.c **** */
 174:.\src/hwInterface.c **** /*******************************************************************************
 175:.\src/hwInterface.c **** * Function Name: setValve1OFF
 176:.\src/hwInterface.c **** ********************************************************************************
 177:.\src/hwInterface.c **** *
 178:.\src/hwInterface.c **** * Summary:
 179:.\src/hwInterface.c **** *  Turns off valve 1 (connector J9 on Water Control Atom.)
 180:.\src/hwInterface.c **** *
 181:.\src/hwInterface.c **** * Parameters:
 182:.\src/hwInterface.c **** * None
 183:.\src/hwInterface.c **** *
 184:.\src/hwInterface.c **** * Return:
 185:.\src/hwInterface.c **** *  None.
 186:.\src/hwInterface.c **** *
 187:.\src/hwInterface.c **** *******************************************************************************/
 188:.\src/hwInterface.c **** 
 189:.\src/hwInterface.c **** void setValve1OFF(void){
 244              		.loc 1 189 0
 245              		.cfi_startproc
 246 0000 08B5     		push	{r3, lr}
 247              		.cfi_def_cfa_offset 8
 248              		.cfi_offset 3, -8
 249              		.cfi_offset 14, -4
 190:.\src/hwInterface.c ****     ON1_DIR1_Write(0u);
 250              		.loc 1 190 0
 251 0002 0020     		mov	r0, #0
 252 0004 FFF7FEFF 		bl	ON1_DIR1_Write
 253              	.LVL33:
 191:.\src/hwInterface.c ****     ON2_DIR2_Write(0u);
 254              		.loc 1 191 0
 255 0008 0020     		mov	r0, #0
 256 000a FFF7FEFF 		bl	ON2_DIR2_Write
 257              	.LVL34:
 192:.\src/hwInterface.c **** }
 258              		.loc 1 192 0
 259              		@ sp needed
 260 000e 08BD     		pop	{r3, pc}
 261              		.cfi_endproc
ARM GAS  C:\Users\SDEVAS~1\AppData\Local\Temp\cc8lYrGW.s 			page 9


 262              	.LFE38:
 263              		.size	setValve1OFF, .-setValve1OFF
 264              		.section	.text.setValve2OFF,"ax",%progbits
 265              		.align	1
 266              		.global	setValve2OFF
 267              		.code	16
 268              		.thumb_func
 269              		.type	setValve2OFF, %function
 270              	setValve2OFF:
 271              	.LFB39:
 193:.\src/hwInterface.c **** 
 194:.\src/hwInterface.c **** /*******************************************************************************
 195:.\src/hwInterface.c **** * Function Name: setValve2OFF
 196:.\src/hwInterface.c **** ********************************************************************************
 197:.\src/hwInterface.c **** *
 198:.\src/hwInterface.c **** * Summary:
 199:.\src/hwInterface.c **** *  Turns off valve 2 (connector J10 on Water Control Atom.)
 200:.\src/hwInterface.c **** *
 201:.\src/hwInterface.c **** * Parameters:
 202:.\src/hwInterface.c **** * None
 203:.\src/hwInterface.c **** *
 204:.\src/hwInterface.c **** * Return:
 205:.\src/hwInterface.c **** *  None.
 206:.\src/hwInterface.c **** *
 207:.\src/hwInterface.c **** *******************************************************************************/
 208:.\src/hwInterface.c **** void setValve2OFF(void){
 272              		.loc 1 208 0
 273              		.cfi_startproc
 274 0000 08B5     		push	{r3, lr}
 275              		.cfi_def_cfa_offset 8
 276              		.cfi_offset 3, -8
 277              		.cfi_offset 14, -4
 209:.\src/hwInterface.c **** 	ON1_DIR2_Write(0u);
 278              		.loc 1 209 0
 279 0002 0020     		mov	r0, #0
 280 0004 FFF7FEFF 		bl	ON1_DIR2_Write
 281              	.LVL35:
 210:.\src/hwInterface.c **** 	ON2_DIR1_Write(0u);
 282              		.loc 1 210 0
 283 0008 0020     		mov	r0, #0
 284 000a FFF7FEFF 		bl	ON2_DIR1_Write
 285              	.LVL36:
 211:.\src/hwInterface.c **** }
 286              		.loc 1 211 0
 287              		@ sp needed
 288 000e 08BD     		pop	{r3, pc}
 289              		.cfi_endproc
 290              	.LFE39:
 291              		.size	setValve2OFF, .-setValve2OFF
 292              		.section	.text.setValve3OFF,"ax",%progbits
 293              		.align	1
 294              		.global	setValve3OFF
 295              		.code	16
 296              		.thumb_func
 297              		.type	setValve3OFF, %function
 298              	setValve3OFF:
 299              	.LFB40:
ARM GAS  C:\Users\SDEVAS~1\AppData\Local\Temp\cc8lYrGW.s 			page 10


 212:.\src/hwInterface.c **** 
 213:.\src/hwInterface.c **** /*******************************************************************************
 214:.\src/hwInterface.c **** * Function Name: setValve3OFF
 215:.\src/hwInterface.c **** ********************************************************************************
 216:.\src/hwInterface.c **** *
 217:.\src/hwInterface.c **** * Summary:
 218:.\src/hwInterface.c **** *  Turns off valve 3 (connector J8 on Water Control Atom.)
 219:.\src/hwInterface.c **** *
 220:.\src/hwInterface.c **** * Parameters:
 221:.\src/hwInterface.c **** * None
 222:.\src/hwInterface.c **** *
 223:.\src/hwInterface.c **** * Return:
 224:.\src/hwInterface.c **** *  None.
 225:.\src/hwInterface.c **** *
 226:.\src/hwInterface.c **** *******************************************************************************/
 227:.\src/hwInterface.c **** void setValve3OFF(void){
 300              		.loc 1 227 0
 301              		.cfi_startproc
 302 0000 08B5     		push	{r3, lr}
 303              		.cfi_def_cfa_offset 8
 304              		.cfi_offset 3, -8
 305              		.cfi_offset 14, -4
 228:.\src/hwInterface.c ****     ON3_DIR1_Write(0u);
 306              		.loc 1 228 0
 307 0002 0020     		mov	r0, #0
 308 0004 FFF7FEFF 		bl	ON3_DIR1_Write
 309              	.LVL37:
 229:.\src/hwInterface.c ****     ON4_DIR2_Write(0u);
 310              		.loc 1 229 0
 311 0008 0020     		mov	r0, #0
 312 000a FFF7FEFF 		bl	ON4_DIR2_Write
 313              	.LVL38:
 230:.\src/hwInterface.c **** }
 314              		.loc 1 230 0
 315              		@ sp needed
 316 000e 08BD     		pop	{r3, pc}
 317              		.cfi_endproc
 318              	.LFE40:
 319              		.size	setValve3OFF, .-setValve3OFF
 320              		.section	.text.setValve4OFF,"ax",%progbits
 321              		.align	1
 322              		.global	setValve4OFF
 323              		.code	16
 324              		.thumb_func
 325              		.type	setValve4OFF, %function
 326              	setValve4OFF:
 327              	.LFB41:
 231:.\src/hwInterface.c **** /*******************************************************************************
 232:.\src/hwInterface.c **** * Function Name: setValve4OFF
 233:.\src/hwInterface.c **** ********************************************************************************
 234:.\src/hwInterface.c **** *
 235:.\src/hwInterface.c **** * Summary:
 236:.\src/hwInterface.c **** *  Turns off valve 4 (connector J10 on Water Control Atom.)
 237:.\src/hwInterface.c **** *
 238:.\src/hwInterface.c **** * Parameters:
 239:.\src/hwInterface.c **** * None
 240:.\src/hwInterface.c **** *
ARM GAS  C:\Users\SDEVAS~1\AppData\Local\Temp\cc8lYrGW.s 			page 11


 241:.\src/hwInterface.c **** * Return:
 242:.\src/hwInterface.c **** *  None.
 243:.\src/hwInterface.c **** *
 244:.\src/hwInterface.c **** *******************************************************************************/
 245:.\src/hwInterface.c **** void setValve4OFF(void){
 328              		.loc 1 245 0
 329              		.cfi_startproc
 330 0000 08B5     		push	{r3, lr}
 331              		.cfi_def_cfa_offset 8
 332              		.cfi_offset 3, -8
 333              		.cfi_offset 14, -4
 246:.\src/hwInterface.c ****     ON3_DIR2_Write(0u);
 334              		.loc 1 246 0
 335 0002 0020     		mov	r0, #0
 336 0004 FFF7FEFF 		bl	ON3_DIR2_Write
 337              	.LVL39:
 247:.\src/hwInterface.c ****     ON4_DIR1_Write(0u);
 338              		.loc 1 247 0
 339 0008 0020     		mov	r0, #0
 340 000a FFF7FEFF 		bl	ON4_DIR1_Write
 341              	.LVL40:
 248:.\src/hwInterface.c **** }
 342              		.loc 1 248 0
 343              		@ sp needed
 344 000e 08BD     		pop	{r3, pc}
 345              		.cfi_endproc
 346              	.LFE41:
 347              		.size	setValve4OFF, .-setValve4OFF
 348              		.section	.text.PressureSensor1_Read,"ax",%progbits
 349              		.align	1
 350              		.global	PressureSensor1_Read
 351              		.code	16
 352              		.thumb_func
 353              		.type	PressureSensor1_Read, %function
 354              	PressureSensor1_Read:
 355              	.LFB42:
 249:.\src/hwInterface.c **** /*******************************************************************************
 250:.\src/hwInterface.c **** * Function Name: setValve5OFF
 251:.\src/hwInterface.c **** ********************************************************************************
 252:.\src/hwInterface.c **** *
 253:.\src/hwInterface.c **** * Summary:
 254:.\src/hwInterface.c **** *  Turns off valve 1 (connector J6 on Water Control Atom.)
 255:.\src/hwInterface.c **** *
 256:.\src/hwInterface.c **** * Parameters:
 257:.\src/hwInterface.c **** * None
 258:.\src/hwInterface.c **** *
 259:.\src/hwInterface.c **** * Return:
 260:.\src/hwInterface.c **** *  None.
 261:.\src/hwInterface.c **** *
 262:.\src/hwInterface.c **** *******************************************************************************/
 263:.\src/hwInterface.c **** /*void setValve5OFF(void){
 264:.\src/hwInterface.c ****     ON5_DIR1_Write(0u);
 265:.\src/hwInterface.c ****     ON6_DIR2_Write(0u);
 266:.\src/hwInterface.c **** }*/
 267:.\src/hwInterface.c **** /*******************************************************************************
 268:.\src/hwInterface.c **** * Function Name: setValve6OFF
 269:.\src/hwInterface.c **** ********************************************************************************
ARM GAS  C:\Users\SDEVAS~1\AppData\Local\Temp\cc8lYrGW.s 			page 12


 270:.\src/hwInterface.c **** *
 271:.\src/hwInterface.c **** * Summary:
 272:.\src/hwInterface.c **** *  Turns off valve 1 (connector J7 on Water Control Atom.)
 273:.\src/hwInterface.c **** *
 274:.\src/hwInterface.c **** * Parameters:
 275:.\src/hwInterface.c **** * None
 276:.\src/hwInterface.c **** *
 277:.\src/hwInterface.c **** * Return:
 278:.\src/hwInterface.c **** *  None.
 279:.\src/hwInterface.c **** *
 280:.\src/hwInterface.c **** *******************************************************************************/
 281:.\src/hwInterface.c **** /*void setValve6OFF(void){
 282:.\src/hwInterface.c ****     ON5_DIR2_Write(0u);
 283:.\src/hwInterface.c ****     ON6_DIR1_Write(0u);
 284:.\src/hwInterface.c **** }*/
 285:.\src/hwInterface.c **** 
 286:.\src/hwInterface.c **** 
 287:.\src/hwInterface.c ****     sc_integer PressureSensor1_Read(void){
 356              		.loc 1 287 0
 357              		.cfi_startproc
 358              	.LVL41:
 359 0000 08B5     		push	{r3, lr}
 360              		.cfi_def_cfa_offset 8
 361              		.cfi_offset 3, -8
 362              		.cfi_offset 14, -4
 288:.\src/hwInterface.c ****         int ADC_Val=0;
 289:.\src/hwInterface.c ****         if((ADC_IsEndConversion(ADC_RETURN_STATUS)!=0)){
 363              		.loc 1 289 0
 364 0002 0120     		mov	r0, #1
 365 0004 FFF7FEFF 		bl	ADC_IsEndConversion
 366              	.LVL42:
 367 0008 031C     		mov	r3, r0
 288:.\src/hwInterface.c ****         int ADC_Val=0;
 368              		.loc 1 288 0
 369 000a 0020     		mov	r0, #0
 370              		.loc 1 289 0
 371 000c 8342     		cmp	r3, r0
 372 000e 01D0     		beq	.L24
 290:.\src/hwInterface.c ****             ADC_Val = ADC_GetResult16(0);
 373              		.loc 1 290 0
 374 0010 FFF7FEFF 		bl	ADC_GetResult16
 375              	.LVL43:
 376              	.L24:
 291:.\src/hwInterface.c ****         }
 292:.\src/hwInterface.c ****        return ADC_Val; 
 293:.\src/hwInterface.c ****     }
 377              		.loc 1 293 0
 378              		@ sp needed
 379 0014 08BD     		pop	{r3, pc}
 380              		.cfi_endproc
 381              	.LFE42:
 382              		.size	PressureSensor1_Read, .-PressureSensor1_Read
 383              		.section	.text.PressureSensor2_Read,"ax",%progbits
 384              		.align	1
 385              		.global	PressureSensor2_Read
 386              		.code	16
 387              		.thumb_func
ARM GAS  C:\Users\SDEVAS~1\AppData\Local\Temp\cc8lYrGW.s 			page 13


 388              		.type	PressureSensor2_Read, %function
 389              	PressureSensor2_Read:
 390              	.LFB43:
 294:.\src/hwInterface.c ****     sc_integer PressureSensor2_Read(void){
 391              		.loc 1 294 0
 392              		.cfi_startproc
 393              	.LVL44:
 394 0000 08B5     		push	{r3, lr}
 395              		.cfi_def_cfa_offset 8
 396              		.cfi_offset 3, -8
 397              		.cfi_offset 14, -4
 295:.\src/hwInterface.c ****          int ADC_Val=0;
 296:.\src/hwInterface.c ****         if((ADC_IsEndConversion(ADC_RETURN_STATUS)!=0)){
 398              		.loc 1 296 0
 399 0002 0120     		mov	r0, #1
 400 0004 FFF7FEFF 		bl	ADC_IsEndConversion
 401              	.LVL45:
 402 0008 031C     		mov	r3, r0
 295:.\src/hwInterface.c ****          int ADC_Val=0;
 403              		.loc 1 295 0
 404 000a 0020     		mov	r0, #0
 405              		.loc 1 296 0
 406 000c 8342     		cmp	r3, r0
 407 000e 02D0     		beq	.L28
 297:.\src/hwInterface.c ****             ADC_Val = ADC_GetResult16(1);
 408              		.loc 1 297 0
 409 0010 0120     		mov	r0, #1
 410 0012 FFF7FEFF 		bl	ADC_GetResult16
 411              	.LVL46:
 412              	.L28:
 298:.\src/hwInterface.c ****         }
 299:.\src/hwInterface.c ****        return ADC_Val; 
 300:.\src/hwInterface.c ****     }
 413              		.loc 1 300 0
 414              		@ sp needed
 415 0016 08BD     		pop	{r3, pc}
 416              		.cfi_endproc
 417              	.LFE43:
 418              		.size	PressureSensor2_Read, .-PressureSensor2_Read
 419              		.section	.text.FlowSensor1_Read,"ax",%progbits
 420              		.align	1
 421              		.global	FlowSensor1_Read
 422              		.code	16
 423              		.thumb_func
 424              		.type	FlowSensor1_Read, %function
 425              	FlowSensor1_Read:
 426              	.LFB44:
 301:.\src/hwInterface.c ****     
 302:.\src/hwInterface.c ****     sc_integer FlowSensor1_Read(void){
 427              		.loc 1 302 0
 428              		.cfi_startproc
 429 0000 10B5     		push	{r4, lr}
 430              		.cfi_def_cfa_offset 8
 431              		.cfi_offset 4, -8
 432              		.cfi_offset 14, -4
 303:.\src/hwInterface.c ****         int flowSensor1 = Counter_ReadCounter();
 433              		.loc 1 303 0
ARM GAS  C:\Users\SDEVAS~1\AppData\Local\Temp\cc8lYrGW.s 			page 14


 434 0002 FFF7FEFF 		bl	Counter_ReadCounter
 435              	.LVL47:
 436 0006 041C     		mov	r4, r0
 437              	.LVL48:
 304:.\src/hwInterface.c ****         Counter_WriteCounter(0);
 438              		.loc 1 304 0
 439 0008 0020     		mov	r0, #0
 440              	.LVL49:
 441 000a FFF7FEFF 		bl	Counter_WriteCounter
 442              	.LVL50:
 305:.\src/hwInterface.c ****         return flowSensor1;
 306:.\src/hwInterface.c ****     }
 443              		.loc 1 306 0
 444              		@ sp needed
 445 000e 201C     		mov	r0, r4
 446              	.LVL51:
 447 0010 10BD     		pop	{r4, pc}
 448              		.cfi_endproc
 449              	.LFE44:
 450              		.size	FlowSensor1_Read, .-FlowSensor1_Read
 451              		.text
 452              	.Letext0:
 453              		.file 2 "c:\\program files (x86)\\cypress\\psoc creator\\3.2\\psoc creator\\import\\gnu\\arm\\4.8.
 454              		.file 3 "c:\\program files (x86)\\cypress\\psoc creator\\3.2\\psoc creator\\import\\gnu\\arm\\4.8.
 455              		.file 4 "Generated_Source\\PSoC4/cytypes.h"
 456              		.file 5 "./src-fsm/sc_types.h"
 457              		.file 6 "Generated_Source\\PSoC4/Ctrl_12V.h"
 458              		.file 7 "Generated_Source\\PSoC4/Ctrl_5V.h"
 459              		.file 8 "Generated_Source\\PSoC4/Counter.h"
 460              		.file 9 "Generated_Source\\PSoC4/ADC.h"
 461              		.file 10 "Generated_Source\\PSoC4/ON1_DIR1.h"
 462              		.file 11 "Generated_Source\\PSoC4/ON2_DIR2.h"
 463              		.file 12 "Generated_Source\\PSoC4/ON1_DIR2.h"
 464              		.file 13 "Generated_Source\\PSoC4/ON2_DIR1.h"
 465              		.file 14 "Generated_Source\\PSoC4/ON3_DIR1.h"
 466              		.file 15 "Generated_Source\\PSoC4/ON4_DIR2.h"
 467              		.file 16 "Generated_Source\\PSoC4/ON3_DIR2.h"
 468              		.file 17 "Generated_Source\\PSoC4/ON4_DIR1.h"