ARM GAS  C:\Users\SDEVAS~1\AppData\Local\Temp\ccHGV7fY.s 			page 1


   1              		.cpu cortex-m0
   2              		.fpu softvfp
   3              		.eabi_attribute 20, 1
   4              		.eabi_attribute 21, 1
   5              		.eabi_attribute 23, 3
   6              		.eabi_attribute 24, 1
   7              		.eabi_attribute 25, 1
   8              		.eabi_attribute 26, 1
   9              		.eabi_attribute 30, 4
  10              		.eabi_attribute 34, 0
  11              		.eabi_attribute 18, 4
  12              		.code	16
  13              		.file	"isr_BUTTON.c"
  14              		.text
  15              	.Ltext0:
  16              		.cfi_sections	.debug_frame
  17              		.section	.text.isr_BUTTON_Interrupt,"ax",%progbits
  18              		.align	1
  19              		.global	isr_BUTTON_Interrupt
  20              		.code	16
  21              		.thumb_func
  22              		.type	isr_BUTTON_Interrupt, %function
  23              	isr_BUTTON_Interrupt:
  24              	.LFB3:
  25              		.file 1 ".\\Generated_Source\\PSoC4\\isr_BUTTON.c"
   1:.\Generated_Source\PSoC4/isr_BUTTON.c **** /*******************************************************************************
   2:.\Generated_Source\PSoC4/isr_BUTTON.c **** * File Name: isr_BUTTON.c  
   3:.\Generated_Source\PSoC4/isr_BUTTON.c **** * Version 1.70
   4:.\Generated_Source\PSoC4/isr_BUTTON.c **** *
   5:.\Generated_Source\PSoC4/isr_BUTTON.c **** *  Description:
   6:.\Generated_Source\PSoC4/isr_BUTTON.c **** *   API for controlling the state of an interrupt.
   7:.\Generated_Source\PSoC4/isr_BUTTON.c **** *
   8:.\Generated_Source\PSoC4/isr_BUTTON.c **** *
   9:.\Generated_Source\PSoC4/isr_BUTTON.c **** *  Note:
  10:.\Generated_Source\PSoC4/isr_BUTTON.c **** *
  11:.\Generated_Source\PSoC4/isr_BUTTON.c **** ********************************************************************************
  12:.\Generated_Source\PSoC4/isr_BUTTON.c **** * Copyright 2008-2015, Cypress Semiconductor Corporation.  All rights reserved.
  13:.\Generated_Source\PSoC4/isr_BUTTON.c **** * You may use this file only in accordance with the license, terms, conditions, 
  14:.\Generated_Source\PSoC4/isr_BUTTON.c **** * disclaimers, and limitations in the end user license agreement accompanying 
  15:.\Generated_Source\PSoC4/isr_BUTTON.c **** * the software package with which this file was provided.
  16:.\Generated_Source\PSoC4/isr_BUTTON.c **** *******************************************************************************/
  17:.\Generated_Source\PSoC4/isr_BUTTON.c **** 
  18:.\Generated_Source\PSoC4/isr_BUTTON.c **** 
  19:.\Generated_Source\PSoC4/isr_BUTTON.c **** #include <cydevice_trm.h>
  20:.\Generated_Source\PSoC4/isr_BUTTON.c **** #include <CyLib.h>
  21:.\Generated_Source\PSoC4/isr_BUTTON.c **** #include <isr_BUTTON.h>
  22:.\Generated_Source\PSoC4/isr_BUTTON.c **** 
  23:.\Generated_Source\PSoC4/isr_BUTTON.c **** #if !defined(isr_BUTTON__REMOVED) /* Check for removal by optimization */
  24:.\Generated_Source\PSoC4/isr_BUTTON.c **** 
  25:.\Generated_Source\PSoC4/isr_BUTTON.c **** /*******************************************************************************
  26:.\Generated_Source\PSoC4/isr_BUTTON.c **** *  Place your includes, defines and code here 
  27:.\Generated_Source\PSoC4/isr_BUTTON.c **** ********************************************************************************/
  28:.\Generated_Source\PSoC4/isr_BUTTON.c **** /* `#START isr_BUTTON_intc` */
  29:.\Generated_Source\PSoC4/isr_BUTTON.c **** 
  30:.\Generated_Source\PSoC4/isr_BUTTON.c **** /* `#END` */
  31:.\Generated_Source\PSoC4/isr_BUTTON.c **** 
  32:.\Generated_Source\PSoC4/isr_BUTTON.c **** extern cyisraddress CyRamVectors[CYINT_IRQ_BASE + CY_NUM_INTERRUPTS];
ARM GAS  C:\Users\SDEVAS~1\AppData\Local\Temp\ccHGV7fY.s 			page 2


  33:.\Generated_Source\PSoC4/isr_BUTTON.c **** 
  34:.\Generated_Source\PSoC4/isr_BUTTON.c **** /* Declared in startup, used to set unused interrupts to. */
  35:.\Generated_Source\PSoC4/isr_BUTTON.c **** CY_ISR_PROTO(IntDefaultHandler);
  36:.\Generated_Source\PSoC4/isr_BUTTON.c **** 
  37:.\Generated_Source\PSoC4/isr_BUTTON.c **** 
  38:.\Generated_Source\PSoC4/isr_BUTTON.c **** /*******************************************************************************
  39:.\Generated_Source\PSoC4/isr_BUTTON.c **** * Function Name: isr_BUTTON_Start
  40:.\Generated_Source\PSoC4/isr_BUTTON.c **** ********************************************************************************
  41:.\Generated_Source\PSoC4/isr_BUTTON.c **** *
  42:.\Generated_Source\PSoC4/isr_BUTTON.c **** * Summary:
  43:.\Generated_Source\PSoC4/isr_BUTTON.c **** *  Set up the interrupt and enable it. This function disables the interrupt, 
  44:.\Generated_Source\PSoC4/isr_BUTTON.c **** *  sets the default interrupt vector, sets the priority from the value in the
  45:.\Generated_Source\PSoC4/isr_BUTTON.c **** *  Design Wide Resources Interrupt Editor, then enables the interrupt to the 
  46:.\Generated_Source\PSoC4/isr_BUTTON.c **** *  interrupt controller.
  47:.\Generated_Source\PSoC4/isr_BUTTON.c **** *
  48:.\Generated_Source\PSoC4/isr_BUTTON.c **** * Parameters:  
  49:.\Generated_Source\PSoC4/isr_BUTTON.c **** *   None
  50:.\Generated_Source\PSoC4/isr_BUTTON.c **** *
  51:.\Generated_Source\PSoC4/isr_BUTTON.c **** * Return:
  52:.\Generated_Source\PSoC4/isr_BUTTON.c **** *   None
  53:.\Generated_Source\PSoC4/isr_BUTTON.c **** *
  54:.\Generated_Source\PSoC4/isr_BUTTON.c **** *******************************************************************************/
  55:.\Generated_Source\PSoC4/isr_BUTTON.c **** void isr_BUTTON_Start(void)
  56:.\Generated_Source\PSoC4/isr_BUTTON.c **** {
  57:.\Generated_Source\PSoC4/isr_BUTTON.c ****     /* For all we know the interrupt is active. */
  58:.\Generated_Source\PSoC4/isr_BUTTON.c ****     isr_BUTTON_Disable();
  59:.\Generated_Source\PSoC4/isr_BUTTON.c **** 
  60:.\Generated_Source\PSoC4/isr_BUTTON.c ****     /* Set the ISR to point to the isr_BUTTON Interrupt. */
  61:.\Generated_Source\PSoC4/isr_BUTTON.c ****     isr_BUTTON_SetVector(&isr_BUTTON_Interrupt);
  62:.\Generated_Source\PSoC4/isr_BUTTON.c **** 
  63:.\Generated_Source\PSoC4/isr_BUTTON.c ****     /* Set the priority. */
  64:.\Generated_Source\PSoC4/isr_BUTTON.c ****     isr_BUTTON_SetPriority((uint8)isr_BUTTON_INTC_PRIOR_NUMBER);
  65:.\Generated_Source\PSoC4/isr_BUTTON.c **** 
  66:.\Generated_Source\PSoC4/isr_BUTTON.c ****     /* Enable it. */
  67:.\Generated_Source\PSoC4/isr_BUTTON.c ****     isr_BUTTON_Enable();
  68:.\Generated_Source\PSoC4/isr_BUTTON.c **** }
  69:.\Generated_Source\PSoC4/isr_BUTTON.c **** 
  70:.\Generated_Source\PSoC4/isr_BUTTON.c **** 
  71:.\Generated_Source\PSoC4/isr_BUTTON.c **** /*******************************************************************************
  72:.\Generated_Source\PSoC4/isr_BUTTON.c **** * Function Name: isr_BUTTON_StartEx
  73:.\Generated_Source\PSoC4/isr_BUTTON.c **** ********************************************************************************
  74:.\Generated_Source\PSoC4/isr_BUTTON.c **** *
  75:.\Generated_Source\PSoC4/isr_BUTTON.c **** * Summary:
  76:.\Generated_Source\PSoC4/isr_BUTTON.c **** *  Sets up the interrupt and enables it. This function disables the interrupt,
  77:.\Generated_Source\PSoC4/isr_BUTTON.c **** *  sets the interrupt vector based on the address passed in, sets the priority 
  78:.\Generated_Source\PSoC4/isr_BUTTON.c **** *  from the value in the Design Wide Resources Interrupt Editor, then enables 
  79:.\Generated_Source\PSoC4/isr_BUTTON.c **** *  the interrupt to the interrupt controller.
  80:.\Generated_Source\PSoC4/isr_BUTTON.c **** *  
  81:.\Generated_Source\PSoC4/isr_BUTTON.c **** *  When defining ISR functions, the CY_ISR and CY_ISR_PROTO macros should be 
  82:.\Generated_Source\PSoC4/isr_BUTTON.c **** *  used to provide consistent definition across compilers:
  83:.\Generated_Source\PSoC4/isr_BUTTON.c **** *  
  84:.\Generated_Source\PSoC4/isr_BUTTON.c **** *  Function definition example:
  85:.\Generated_Source\PSoC4/isr_BUTTON.c **** *   CY_ISR(MyISR)
  86:.\Generated_Source\PSoC4/isr_BUTTON.c **** *   {
  87:.\Generated_Source\PSoC4/isr_BUTTON.c **** *   }
  88:.\Generated_Source\PSoC4/isr_BUTTON.c **** *   Function prototype example:
  89:.\Generated_Source\PSoC4/isr_BUTTON.c **** *   CY_ISR_PROTO(MyISR);
ARM GAS  C:\Users\SDEVAS~1\AppData\Local\Temp\ccHGV7fY.s 			page 3


  90:.\Generated_Source\PSoC4/isr_BUTTON.c **** *
  91:.\Generated_Source\PSoC4/isr_BUTTON.c **** * Parameters:  
  92:.\Generated_Source\PSoC4/isr_BUTTON.c **** *   address: Address of the ISR to set in the interrupt vector table.
  93:.\Generated_Source\PSoC4/isr_BUTTON.c **** *
  94:.\Generated_Source\PSoC4/isr_BUTTON.c **** * Return:
  95:.\Generated_Source\PSoC4/isr_BUTTON.c **** *   None
  96:.\Generated_Source\PSoC4/isr_BUTTON.c **** *
  97:.\Generated_Source\PSoC4/isr_BUTTON.c **** *******************************************************************************/
  98:.\Generated_Source\PSoC4/isr_BUTTON.c **** void isr_BUTTON_StartEx(cyisraddress address)
  99:.\Generated_Source\PSoC4/isr_BUTTON.c **** {
 100:.\Generated_Source\PSoC4/isr_BUTTON.c ****     /* For all we know the interrupt is active. */
 101:.\Generated_Source\PSoC4/isr_BUTTON.c ****     isr_BUTTON_Disable();
 102:.\Generated_Source\PSoC4/isr_BUTTON.c **** 
 103:.\Generated_Source\PSoC4/isr_BUTTON.c ****     /* Set the ISR to point to the isr_BUTTON Interrupt. */
 104:.\Generated_Source\PSoC4/isr_BUTTON.c ****     isr_BUTTON_SetVector(address);
 105:.\Generated_Source\PSoC4/isr_BUTTON.c **** 
 106:.\Generated_Source\PSoC4/isr_BUTTON.c ****     /* Set the priority. */
 107:.\Generated_Source\PSoC4/isr_BUTTON.c ****     isr_BUTTON_SetPriority((uint8)isr_BUTTON_INTC_PRIOR_NUMBER);
 108:.\Generated_Source\PSoC4/isr_BUTTON.c **** 
 109:.\Generated_Source\PSoC4/isr_BUTTON.c ****     /* Enable it. */
 110:.\Generated_Source\PSoC4/isr_BUTTON.c ****     isr_BUTTON_Enable();
 111:.\Generated_Source\PSoC4/isr_BUTTON.c **** }
 112:.\Generated_Source\PSoC4/isr_BUTTON.c **** 
 113:.\Generated_Source\PSoC4/isr_BUTTON.c **** 
 114:.\Generated_Source\PSoC4/isr_BUTTON.c **** /*******************************************************************************
 115:.\Generated_Source\PSoC4/isr_BUTTON.c **** * Function Name: isr_BUTTON_Stop
 116:.\Generated_Source\PSoC4/isr_BUTTON.c **** ********************************************************************************
 117:.\Generated_Source\PSoC4/isr_BUTTON.c **** *
 118:.\Generated_Source\PSoC4/isr_BUTTON.c **** * Summary:
 119:.\Generated_Source\PSoC4/isr_BUTTON.c **** *   Disables and removes the interrupt.
 120:.\Generated_Source\PSoC4/isr_BUTTON.c **** *
 121:.\Generated_Source\PSoC4/isr_BUTTON.c **** * Parameters:  
 122:.\Generated_Source\PSoC4/isr_BUTTON.c **** *   None
 123:.\Generated_Source\PSoC4/isr_BUTTON.c **** *
 124:.\Generated_Source\PSoC4/isr_BUTTON.c **** * Return:
 125:.\Generated_Source\PSoC4/isr_BUTTON.c **** *   None
 126:.\Generated_Source\PSoC4/isr_BUTTON.c **** *
 127:.\Generated_Source\PSoC4/isr_BUTTON.c **** *******************************************************************************/
 128:.\Generated_Source\PSoC4/isr_BUTTON.c **** void isr_BUTTON_Stop(void)
 129:.\Generated_Source\PSoC4/isr_BUTTON.c **** {
 130:.\Generated_Source\PSoC4/isr_BUTTON.c ****     /* Disable this interrupt. */
 131:.\Generated_Source\PSoC4/isr_BUTTON.c ****     isr_BUTTON_Disable();
 132:.\Generated_Source\PSoC4/isr_BUTTON.c **** 
 133:.\Generated_Source\PSoC4/isr_BUTTON.c ****     /* Set the ISR to point to the passive one. */
 134:.\Generated_Source\PSoC4/isr_BUTTON.c ****     isr_BUTTON_SetVector(&IntDefaultHandler);
 135:.\Generated_Source\PSoC4/isr_BUTTON.c **** }
 136:.\Generated_Source\PSoC4/isr_BUTTON.c **** 
 137:.\Generated_Source\PSoC4/isr_BUTTON.c **** 
 138:.\Generated_Source\PSoC4/isr_BUTTON.c **** /*******************************************************************************
 139:.\Generated_Source\PSoC4/isr_BUTTON.c **** * Function Name: isr_BUTTON_Interrupt
 140:.\Generated_Source\PSoC4/isr_BUTTON.c **** ********************************************************************************
 141:.\Generated_Source\PSoC4/isr_BUTTON.c **** *
 142:.\Generated_Source\PSoC4/isr_BUTTON.c **** * Summary:
 143:.\Generated_Source\PSoC4/isr_BUTTON.c **** *   The default Interrupt Service Routine for isr_BUTTON.
 144:.\Generated_Source\PSoC4/isr_BUTTON.c **** *
 145:.\Generated_Source\PSoC4/isr_BUTTON.c **** *   Add custom code between the START and END comments to keep the next version
 146:.\Generated_Source\PSoC4/isr_BUTTON.c **** *   of this file from over-writing your code.
ARM GAS  C:\Users\SDEVAS~1\AppData\Local\Temp\ccHGV7fY.s 			page 4


 147:.\Generated_Source\PSoC4/isr_BUTTON.c **** *
 148:.\Generated_Source\PSoC4/isr_BUTTON.c **** *   Note You may use either the default ISR by using this API, or you may define
 149:.\Generated_Source\PSoC4/isr_BUTTON.c **** *   your own separate ISR through ISR_StartEx().
 150:.\Generated_Source\PSoC4/isr_BUTTON.c **** *
 151:.\Generated_Source\PSoC4/isr_BUTTON.c **** * Parameters:  
 152:.\Generated_Source\PSoC4/isr_BUTTON.c **** *   None
 153:.\Generated_Source\PSoC4/isr_BUTTON.c **** *
 154:.\Generated_Source\PSoC4/isr_BUTTON.c **** * Return:
 155:.\Generated_Source\PSoC4/isr_BUTTON.c **** *   None
 156:.\Generated_Source\PSoC4/isr_BUTTON.c **** *
 157:.\Generated_Source\PSoC4/isr_BUTTON.c **** *******************************************************************************/
 158:.\Generated_Source\PSoC4/isr_BUTTON.c **** CY_ISR(isr_BUTTON_Interrupt)
 159:.\Generated_Source\PSoC4/isr_BUTTON.c **** {
  26              		.loc 1 159 0
  27              		.cfi_startproc
 160:.\Generated_Source\PSoC4/isr_BUTTON.c ****     /*  Place your Interrupt code here. */
 161:.\Generated_Source\PSoC4/isr_BUTTON.c ****     /* `#START isr_BUTTON_Interrupt` */
 162:.\Generated_Source\PSoC4/isr_BUTTON.c **** 
 163:.\Generated_Source\PSoC4/isr_BUTTON.c ****     /* `#END` */
 164:.\Generated_Source\PSoC4/isr_BUTTON.c **** }
  28              		.loc 1 164 0
  29              		@ sp needed
  30 0000 7047     		bx	lr
  31              		.cfi_endproc
  32              	.LFE3:
  33              		.size	isr_BUTTON_Interrupt, .-isr_BUTTON_Interrupt
  34              		.section	.text.isr_BUTTON_Stop,"ax",%progbits
  35              		.align	1
  36              		.global	isr_BUTTON_Stop
  37              		.code	16
  38              		.thumb_func
  39              		.type	isr_BUTTON_Stop, %function
  40              	isr_BUTTON_Stop:
  41              	.LFB2:
 129:.\Generated_Source\PSoC4/isr_BUTTON.c **** {
  42              		.loc 1 129 0
  43              		.cfi_startproc
  44              	.LBB18:
  45              	.LBB19:
 165:.\Generated_Source\PSoC4/isr_BUTTON.c **** 
 166:.\Generated_Source\PSoC4/isr_BUTTON.c **** 
 167:.\Generated_Source\PSoC4/isr_BUTTON.c **** /*******************************************************************************
 168:.\Generated_Source\PSoC4/isr_BUTTON.c **** * Function Name: isr_BUTTON_SetVector
 169:.\Generated_Source\PSoC4/isr_BUTTON.c **** ********************************************************************************
 170:.\Generated_Source\PSoC4/isr_BUTTON.c **** *
 171:.\Generated_Source\PSoC4/isr_BUTTON.c **** * Summary:
 172:.\Generated_Source\PSoC4/isr_BUTTON.c **** *   Change the ISR vector for the Interrupt. Note calling isr_BUTTON_Start
 173:.\Generated_Source\PSoC4/isr_BUTTON.c **** *   will override any effect this method would have had. To set the vector 
 174:.\Generated_Source\PSoC4/isr_BUTTON.c **** *   before the component has been started use isr_BUTTON_StartEx instead.
 175:.\Generated_Source\PSoC4/isr_BUTTON.c **** * 
 176:.\Generated_Source\PSoC4/isr_BUTTON.c **** *   When defining ISR functions, the CY_ISR and CY_ISR_PROTO macros should be 
 177:.\Generated_Source\PSoC4/isr_BUTTON.c **** *   used to provide consistent definition across compilers:
 178:.\Generated_Source\PSoC4/isr_BUTTON.c **** *
 179:.\Generated_Source\PSoC4/isr_BUTTON.c **** *   Function definition example:
 180:.\Generated_Source\PSoC4/isr_BUTTON.c **** *   CY_ISR(MyISR)
 181:.\Generated_Source\PSoC4/isr_BUTTON.c **** *   {
 182:.\Generated_Source\PSoC4/isr_BUTTON.c **** *   }
ARM GAS  C:\Users\SDEVAS~1\AppData\Local\Temp\ccHGV7fY.s 			page 5


 183:.\Generated_Source\PSoC4/isr_BUTTON.c **** *
 184:.\Generated_Source\PSoC4/isr_BUTTON.c **** *   Function prototype example:
 185:.\Generated_Source\PSoC4/isr_BUTTON.c **** *     CY_ISR_PROTO(MyISR);
 186:.\Generated_Source\PSoC4/isr_BUTTON.c **** *
 187:.\Generated_Source\PSoC4/isr_BUTTON.c **** * Parameters:
 188:.\Generated_Source\PSoC4/isr_BUTTON.c **** *   address: Address of the ISR to set in the interrupt vector table.
 189:.\Generated_Source\PSoC4/isr_BUTTON.c **** *
 190:.\Generated_Source\PSoC4/isr_BUTTON.c **** * Return:
 191:.\Generated_Source\PSoC4/isr_BUTTON.c **** *   None
 192:.\Generated_Source\PSoC4/isr_BUTTON.c **** *
 193:.\Generated_Source\PSoC4/isr_BUTTON.c **** *******************************************************************************/
 194:.\Generated_Source\PSoC4/isr_BUTTON.c **** void isr_BUTTON_SetVector(cyisraddress address)
 195:.\Generated_Source\PSoC4/isr_BUTTON.c **** {
 196:.\Generated_Source\PSoC4/isr_BUTTON.c ****     CyRamVectors[CYINT_IRQ_BASE + isr_BUTTON__INTC_NUMBER] = address;
 197:.\Generated_Source\PSoC4/isr_BUTTON.c **** }
 198:.\Generated_Source\PSoC4/isr_BUTTON.c **** 
 199:.\Generated_Source\PSoC4/isr_BUTTON.c **** 
 200:.\Generated_Source\PSoC4/isr_BUTTON.c **** /*******************************************************************************
 201:.\Generated_Source\PSoC4/isr_BUTTON.c **** * Function Name: isr_BUTTON_GetVector
 202:.\Generated_Source\PSoC4/isr_BUTTON.c **** ********************************************************************************
 203:.\Generated_Source\PSoC4/isr_BUTTON.c **** *
 204:.\Generated_Source\PSoC4/isr_BUTTON.c **** * Summary:
 205:.\Generated_Source\PSoC4/isr_BUTTON.c **** *   Gets the "address" of the current ISR vector for the Interrupt.
 206:.\Generated_Source\PSoC4/isr_BUTTON.c **** *
 207:.\Generated_Source\PSoC4/isr_BUTTON.c **** * Parameters:
 208:.\Generated_Source\PSoC4/isr_BUTTON.c **** *   None
 209:.\Generated_Source\PSoC4/isr_BUTTON.c **** *
 210:.\Generated_Source\PSoC4/isr_BUTTON.c **** * Return:
 211:.\Generated_Source\PSoC4/isr_BUTTON.c **** *   Address of the ISR in the interrupt vector table.
 212:.\Generated_Source\PSoC4/isr_BUTTON.c **** *
 213:.\Generated_Source\PSoC4/isr_BUTTON.c **** *******************************************************************************/
 214:.\Generated_Source\PSoC4/isr_BUTTON.c **** cyisraddress isr_BUTTON_GetVector(void)
 215:.\Generated_Source\PSoC4/isr_BUTTON.c **** {
 216:.\Generated_Source\PSoC4/isr_BUTTON.c ****     return CyRamVectors[CYINT_IRQ_BASE + isr_BUTTON__INTC_NUMBER];
 217:.\Generated_Source\PSoC4/isr_BUTTON.c **** }
 218:.\Generated_Source\PSoC4/isr_BUTTON.c **** 
 219:.\Generated_Source\PSoC4/isr_BUTTON.c **** 
 220:.\Generated_Source\PSoC4/isr_BUTTON.c **** /*******************************************************************************
 221:.\Generated_Source\PSoC4/isr_BUTTON.c **** * Function Name: isr_BUTTON_SetPriority
 222:.\Generated_Source\PSoC4/isr_BUTTON.c **** ********************************************************************************
 223:.\Generated_Source\PSoC4/isr_BUTTON.c **** *
 224:.\Generated_Source\PSoC4/isr_BUTTON.c **** * Summary:
 225:.\Generated_Source\PSoC4/isr_BUTTON.c **** *   Sets the Priority of the Interrupt. 
 226:.\Generated_Source\PSoC4/isr_BUTTON.c **** *
 227:.\Generated_Source\PSoC4/isr_BUTTON.c **** *   Note calling isr_BUTTON_Start or isr_BUTTON_StartEx will 
 228:.\Generated_Source\PSoC4/isr_BUTTON.c **** *   override any effect this API would have had. This API should only be called
 229:.\Generated_Source\PSoC4/isr_BUTTON.c **** *   after isr_BUTTON_Start or isr_BUTTON_StartEx has been called. 
 230:.\Generated_Source\PSoC4/isr_BUTTON.c **** *   To set the initial priority for the component, use the Design-Wide Resources
 231:.\Generated_Source\PSoC4/isr_BUTTON.c **** *   Interrupt Editor.
 232:.\Generated_Source\PSoC4/isr_BUTTON.c **** *
 233:.\Generated_Source\PSoC4/isr_BUTTON.c **** *   Note This API has no effect on Non-maskable interrupt NMI).
 234:.\Generated_Source\PSoC4/isr_BUTTON.c **** *
 235:.\Generated_Source\PSoC4/isr_BUTTON.c **** * Parameters:
 236:.\Generated_Source\PSoC4/isr_BUTTON.c **** *   priority: Priority of the interrupt, 0 being the highest priority
 237:.\Generated_Source\PSoC4/isr_BUTTON.c **** *             PSoC 3 and PSoC 5LP: Priority is from 0 to 7.
 238:.\Generated_Source\PSoC4/isr_BUTTON.c **** *             PSoC 4: Priority is from 0 to 3.
 239:.\Generated_Source\PSoC4/isr_BUTTON.c **** *
ARM GAS  C:\Users\SDEVAS~1\AppData\Local\Temp\ccHGV7fY.s 			page 6


 240:.\Generated_Source\PSoC4/isr_BUTTON.c **** * Return:
 241:.\Generated_Source\PSoC4/isr_BUTTON.c **** *   None
 242:.\Generated_Source\PSoC4/isr_BUTTON.c **** *
 243:.\Generated_Source\PSoC4/isr_BUTTON.c **** *******************************************************************************/
 244:.\Generated_Source\PSoC4/isr_BUTTON.c **** void isr_BUTTON_SetPriority(uint8 priority)
 245:.\Generated_Source\PSoC4/isr_BUTTON.c **** {
 246:.\Generated_Source\PSoC4/isr_BUTTON.c **** 	uint8 interruptState;
 247:.\Generated_Source\PSoC4/isr_BUTTON.c ****     uint32 priorityOffset = ((isr_BUTTON__INTC_NUMBER % 4u) * 8u) + 6u;
 248:.\Generated_Source\PSoC4/isr_BUTTON.c ****     
 249:.\Generated_Source\PSoC4/isr_BUTTON.c **** 	interruptState = CyEnterCriticalSection();
 250:.\Generated_Source\PSoC4/isr_BUTTON.c ****     *isr_BUTTON_INTC_PRIOR = (*isr_BUTTON_INTC_PRIOR & (uint32)(~isr_BUTTON__INTC_PRIOR_MASK)) |
 251:.\Generated_Source\PSoC4/isr_BUTTON.c ****                                     ((uint32)priority << priorityOffset);
 252:.\Generated_Source\PSoC4/isr_BUTTON.c **** 	CyExitCriticalSection(interruptState);
 253:.\Generated_Source\PSoC4/isr_BUTTON.c **** }
 254:.\Generated_Source\PSoC4/isr_BUTTON.c **** 
 255:.\Generated_Source\PSoC4/isr_BUTTON.c **** 
 256:.\Generated_Source\PSoC4/isr_BUTTON.c **** /*******************************************************************************
 257:.\Generated_Source\PSoC4/isr_BUTTON.c **** * Function Name: isr_BUTTON_GetPriority
 258:.\Generated_Source\PSoC4/isr_BUTTON.c **** ********************************************************************************
 259:.\Generated_Source\PSoC4/isr_BUTTON.c **** *
 260:.\Generated_Source\PSoC4/isr_BUTTON.c **** * Summary:
 261:.\Generated_Source\PSoC4/isr_BUTTON.c **** *   Gets the Priority of the Interrupt.
 262:.\Generated_Source\PSoC4/isr_BUTTON.c **** *
 263:.\Generated_Source\PSoC4/isr_BUTTON.c **** * Parameters:
 264:.\Generated_Source\PSoC4/isr_BUTTON.c **** *   None
 265:.\Generated_Source\PSoC4/isr_BUTTON.c **** *
 266:.\Generated_Source\PSoC4/isr_BUTTON.c **** * Return:
 267:.\Generated_Source\PSoC4/isr_BUTTON.c **** *   Priority of the interrupt, 0 being the highest priority
 268:.\Generated_Source\PSoC4/isr_BUTTON.c **** *    PSoC 3 and PSoC 5LP: Priority is from 0 to 7.
 269:.\Generated_Source\PSoC4/isr_BUTTON.c **** *    PSoC 4: Priority is from 0 to 3.
 270:.\Generated_Source\PSoC4/isr_BUTTON.c **** *
 271:.\Generated_Source\PSoC4/isr_BUTTON.c **** *******************************************************************************/
 272:.\Generated_Source\PSoC4/isr_BUTTON.c **** uint8 isr_BUTTON_GetPriority(void)
 273:.\Generated_Source\PSoC4/isr_BUTTON.c **** {
 274:.\Generated_Source\PSoC4/isr_BUTTON.c ****     uint32 priority;
 275:.\Generated_Source\PSoC4/isr_BUTTON.c **** 	uint32 priorityOffset = ((isr_BUTTON__INTC_NUMBER % 4u) * 8u) + 6u;
 276:.\Generated_Source\PSoC4/isr_BUTTON.c **** 
 277:.\Generated_Source\PSoC4/isr_BUTTON.c ****     priority = (*isr_BUTTON_INTC_PRIOR & isr_BUTTON__INTC_PRIOR_MASK) >> priorityOffset;
 278:.\Generated_Source\PSoC4/isr_BUTTON.c **** 
 279:.\Generated_Source\PSoC4/isr_BUTTON.c ****     return (uint8)priority;
 280:.\Generated_Source\PSoC4/isr_BUTTON.c **** }
 281:.\Generated_Source\PSoC4/isr_BUTTON.c **** 
 282:.\Generated_Source\PSoC4/isr_BUTTON.c **** 
 283:.\Generated_Source\PSoC4/isr_BUTTON.c **** /*******************************************************************************
 284:.\Generated_Source\PSoC4/isr_BUTTON.c **** * Function Name: isr_BUTTON_Enable
 285:.\Generated_Source\PSoC4/isr_BUTTON.c **** ********************************************************************************
 286:.\Generated_Source\PSoC4/isr_BUTTON.c **** *
 287:.\Generated_Source\PSoC4/isr_BUTTON.c **** * Summary:
 288:.\Generated_Source\PSoC4/isr_BUTTON.c **** *   Enables the interrupt to the interrupt controller. Do not call this function
 289:.\Generated_Source\PSoC4/isr_BUTTON.c **** *   unless ISR_Start() has been called or the functionality of the ISR_Start() 
 290:.\Generated_Source\PSoC4/isr_BUTTON.c **** *   function, which sets the vector and the priority, has been called.
 291:.\Generated_Source\PSoC4/isr_BUTTON.c **** *
 292:.\Generated_Source\PSoC4/isr_BUTTON.c **** * Parameters:
 293:.\Generated_Source\PSoC4/isr_BUTTON.c **** *   None
 294:.\Generated_Source\PSoC4/isr_BUTTON.c **** *
 295:.\Generated_Source\PSoC4/isr_BUTTON.c **** * Return:
 296:.\Generated_Source\PSoC4/isr_BUTTON.c **** *   None
ARM GAS  C:\Users\SDEVAS~1\AppData\Local\Temp\ccHGV7fY.s 			page 7


 297:.\Generated_Source\PSoC4/isr_BUTTON.c **** *
 298:.\Generated_Source\PSoC4/isr_BUTTON.c **** *******************************************************************************/
 299:.\Generated_Source\PSoC4/isr_BUTTON.c **** void isr_BUTTON_Enable(void)
 300:.\Generated_Source\PSoC4/isr_BUTTON.c **** {
 301:.\Generated_Source\PSoC4/isr_BUTTON.c ****     /* Enable the general interrupt. */
 302:.\Generated_Source\PSoC4/isr_BUTTON.c ****     *isr_BUTTON_INTC_SET_EN = isr_BUTTON__INTC_MASK;
 303:.\Generated_Source\PSoC4/isr_BUTTON.c **** }
 304:.\Generated_Source\PSoC4/isr_BUTTON.c **** 
 305:.\Generated_Source\PSoC4/isr_BUTTON.c **** 
 306:.\Generated_Source\PSoC4/isr_BUTTON.c **** /*******************************************************************************
 307:.\Generated_Source\PSoC4/isr_BUTTON.c **** * Function Name: isr_BUTTON_GetState
 308:.\Generated_Source\PSoC4/isr_BUTTON.c **** ********************************************************************************
 309:.\Generated_Source\PSoC4/isr_BUTTON.c **** *
 310:.\Generated_Source\PSoC4/isr_BUTTON.c **** * Summary:
 311:.\Generated_Source\PSoC4/isr_BUTTON.c **** *   Gets the state (enabled, disabled) of the Interrupt.
 312:.\Generated_Source\PSoC4/isr_BUTTON.c **** *
 313:.\Generated_Source\PSoC4/isr_BUTTON.c **** * Parameters:
 314:.\Generated_Source\PSoC4/isr_BUTTON.c **** *   None
 315:.\Generated_Source\PSoC4/isr_BUTTON.c **** *
 316:.\Generated_Source\PSoC4/isr_BUTTON.c **** * Return:
 317:.\Generated_Source\PSoC4/isr_BUTTON.c **** *   1 if enabled, 0 if disabled.
 318:.\Generated_Source\PSoC4/isr_BUTTON.c **** *
 319:.\Generated_Source\PSoC4/isr_BUTTON.c **** *******************************************************************************/
 320:.\Generated_Source\PSoC4/isr_BUTTON.c **** uint8 isr_BUTTON_GetState(void)
 321:.\Generated_Source\PSoC4/isr_BUTTON.c **** {
 322:.\Generated_Source\PSoC4/isr_BUTTON.c ****     /* Get the state of the general interrupt. */
 323:.\Generated_Source\PSoC4/isr_BUTTON.c ****     return ((*isr_BUTTON_INTC_SET_EN & (uint32)isr_BUTTON__INTC_MASK) != 0u) ? 1u:0u;
 324:.\Generated_Source\PSoC4/isr_BUTTON.c **** }
 325:.\Generated_Source\PSoC4/isr_BUTTON.c **** 
 326:.\Generated_Source\PSoC4/isr_BUTTON.c **** 
 327:.\Generated_Source\PSoC4/isr_BUTTON.c **** /*******************************************************************************
 328:.\Generated_Source\PSoC4/isr_BUTTON.c **** * Function Name: isr_BUTTON_Disable
 329:.\Generated_Source\PSoC4/isr_BUTTON.c **** ********************************************************************************
 330:.\Generated_Source\PSoC4/isr_BUTTON.c **** *
 331:.\Generated_Source\PSoC4/isr_BUTTON.c **** * Summary:
 332:.\Generated_Source\PSoC4/isr_BUTTON.c **** *   Disables the Interrupt in the interrupt controller.
 333:.\Generated_Source\PSoC4/isr_BUTTON.c **** *
 334:.\Generated_Source\PSoC4/isr_BUTTON.c **** * Parameters:
 335:.\Generated_Source\PSoC4/isr_BUTTON.c **** *   None
 336:.\Generated_Source\PSoC4/isr_BUTTON.c **** *
 337:.\Generated_Source\PSoC4/isr_BUTTON.c **** * Return:
 338:.\Generated_Source\PSoC4/isr_BUTTON.c **** *   None
 339:.\Generated_Source\PSoC4/isr_BUTTON.c **** *
 340:.\Generated_Source\PSoC4/isr_BUTTON.c **** *******************************************************************************/
 341:.\Generated_Source\PSoC4/isr_BUTTON.c **** void isr_BUTTON_Disable(void)
 342:.\Generated_Source\PSoC4/isr_BUTTON.c **** {
 343:.\Generated_Source\PSoC4/isr_BUTTON.c ****     /* Disable the general interrupt. */
 344:.\Generated_Source\PSoC4/isr_BUTTON.c ****     *isr_BUTTON_INTC_CLR_EN = isr_BUTTON__INTC_MASK;
  46              		.loc 1 344 0
  47 0000 034B     		ldr	r3, .L3
  48 0002 0422     		mov	r2, #4
  49 0004 1A60     		str	r2, [r3]
  50              	.LVL0:
  51              	.LBE19:
  52              	.LBE18:
  53              	.LBB20:
  54              	.LBB21:
ARM GAS  C:\Users\SDEVAS~1\AppData\Local\Temp\ccHGV7fY.s 			page 8


 196:.\Generated_Source\PSoC4/isr_BUTTON.c ****     CyRamVectors[CYINT_IRQ_BASE + isr_BUTTON__INTC_NUMBER] = address;
  55              		.loc 1 196 0
  56 0006 034A     		ldr	r2, .L3+4
  57 0008 034B     		ldr	r3, .L3+8
  58              	.LBE21:
  59              	.LBE20:
 135:.\Generated_Source\PSoC4/isr_BUTTON.c **** }
  60              		.loc 1 135 0
  61              		@ sp needed
  62              	.LBB23:
  63              	.LBB22:
 196:.\Generated_Source\PSoC4/isr_BUTTON.c ****     CyRamVectors[CYINT_IRQ_BASE + isr_BUTTON__INTC_NUMBER] = address;
  64              		.loc 1 196 0
  65 000a 9A64     		str	r2, [r3, #72]
  66              	.LBE22:
  67              	.LBE23:
 135:.\Generated_Source\PSoC4/isr_BUTTON.c **** }
  68              		.loc 1 135 0
  69 000c 7047     		bx	lr
  70              	.L4:
  71 000e C046     		.align	2
  72              	.L3:
  73 0010 80E100E0 		.word	-536813184
  74 0014 00000000 		.word	IntDefaultHandler
  75 0018 00000000 		.word	CyRamVectors
  76              		.cfi_endproc
  77              	.LFE2:
  78              		.size	isr_BUTTON_Stop, .-isr_BUTTON_Stop
  79              		.section	.text.isr_BUTTON_SetVector,"ax",%progbits
  80              		.align	1
  81              		.global	isr_BUTTON_SetVector
  82              		.code	16
  83              		.thumb_func
  84              		.type	isr_BUTTON_SetVector, %function
  85              	isr_BUTTON_SetVector:
  86              	.LFB4:
 195:.\Generated_Source\PSoC4/isr_BUTTON.c **** {
  87              		.loc 1 195 0
  88              		.cfi_startproc
  89              	.LVL1:
 196:.\Generated_Source\PSoC4/isr_BUTTON.c ****     CyRamVectors[CYINT_IRQ_BASE + isr_BUTTON__INTC_NUMBER] = address;
  90              		.loc 1 196 0
  91 0000 014B     		ldr	r3, .L6
 197:.\Generated_Source\PSoC4/isr_BUTTON.c **** }
  92              		.loc 1 197 0
  93              		@ sp needed
 196:.\Generated_Source\PSoC4/isr_BUTTON.c ****     CyRamVectors[CYINT_IRQ_BASE + isr_BUTTON__INTC_NUMBER] = address;
  94              		.loc 1 196 0
  95 0002 9864     		str	r0, [r3, #72]
 197:.\Generated_Source\PSoC4/isr_BUTTON.c **** }
  96              		.loc 1 197 0
  97 0004 7047     		bx	lr
  98              	.L7:
  99 0006 C046     		.align	2
 100              	.L6:
 101 0008 00000000 		.word	CyRamVectors
 102              		.cfi_endproc
ARM GAS  C:\Users\SDEVAS~1\AppData\Local\Temp\ccHGV7fY.s 			page 9


 103              	.LFE4:
 104              		.size	isr_BUTTON_SetVector, .-isr_BUTTON_SetVector
 105              		.section	.text.isr_BUTTON_GetVector,"ax",%progbits
 106              		.align	1
 107              		.global	isr_BUTTON_GetVector
 108              		.code	16
 109              		.thumb_func
 110              		.type	isr_BUTTON_GetVector, %function
 111              	isr_BUTTON_GetVector:
 112              	.LFB5:
 215:.\Generated_Source\PSoC4/isr_BUTTON.c **** {
 113              		.loc 1 215 0
 114              		.cfi_startproc
 216:.\Generated_Source\PSoC4/isr_BUTTON.c ****     return CyRamVectors[CYINT_IRQ_BASE + isr_BUTTON__INTC_NUMBER];
 115              		.loc 1 216 0
 116 0000 014B     		ldr	r3, .L9
 217:.\Generated_Source\PSoC4/isr_BUTTON.c **** }
 117              		.loc 1 217 0
 118              		@ sp needed
 216:.\Generated_Source\PSoC4/isr_BUTTON.c ****     return CyRamVectors[CYINT_IRQ_BASE + isr_BUTTON__INTC_NUMBER];
 119              		.loc 1 216 0
 120 0002 986C     		ldr	r0, [r3, #72]
 217:.\Generated_Source\PSoC4/isr_BUTTON.c **** }
 121              		.loc 1 217 0
 122 0004 7047     		bx	lr
 123              	.L10:
 124 0006 C046     		.align	2
 125              	.L9:
 126 0008 00000000 		.word	CyRamVectors
 127              		.cfi_endproc
 128              	.LFE5:
 129              		.size	isr_BUTTON_GetVector, .-isr_BUTTON_GetVector
 130              		.section	.text.isr_BUTTON_SetPriority,"ax",%progbits
 131              		.align	1
 132              		.global	isr_BUTTON_SetPriority
 133              		.code	16
 134              		.thumb_func
 135              		.type	isr_BUTTON_SetPriority, %function
 136              	isr_BUTTON_SetPriority:
 137              	.LFB6:
 245:.\Generated_Source\PSoC4/isr_BUTTON.c **** {
 138              		.loc 1 245 0
 139              		.cfi_startproc
 140              	.LVL2:
 141 0000 38B5     		push	{r3, r4, r5, lr}
 142              		.cfi_def_cfa_offset 16
 143              		.cfi_offset 3, -16
 144              		.cfi_offset 4, -12
 145              		.cfi_offset 5, -8
 146              		.cfi_offset 14, -4
 245:.\Generated_Source\PSoC4/isr_BUTTON.c **** {
 147              		.loc 1 245 0
 148 0002 041C     		mov	r4, r0
 249:.\Generated_Source\PSoC4/isr_BUTTON.c **** 	interruptState = CyEnterCriticalSection();
 149              		.loc 1 249 0
 150 0004 FFF7FEFF 		bl	CyEnterCriticalSection
 151              	.LVL3:
ARM GAS  C:\Users\SDEVAS~1\AppData\Local\Temp\ccHGV7fY.s 			page 10


 250:.\Generated_Source\PSoC4/isr_BUTTON.c ****     *isr_BUTTON_INTC_PRIOR = (*isr_BUTTON_INTC_PRIOR & (uint32)(~isr_BUTTON__INTC_PRIOR_MASK)) |
 152              		.loc 1 250 0
 153 0008 054B     		ldr	r3, .L12
 154 000a 0649     		ldr	r1, .L12+4
 155 000c 1D68     		ldr	r5, [r3]
 251:.\Generated_Source\PSoC4/isr_BUTTON.c ****                                     ((uint32)priority << priorityOffset);
 156              		.loc 1 251 0
 157 000e A205     		lsl	r2, r4, #22
 250:.\Generated_Source\PSoC4/isr_BUTTON.c ****     *isr_BUTTON_INTC_PRIOR = (*isr_BUTTON_INTC_PRIOR & (uint32)(~isr_BUTTON__INTC_PRIOR_MASK)) |
 158              		.loc 1 250 0
 159 0010 2C1C     		mov	r4, r5
 160 0012 0C40     		and	r4, r1
 161 0014 1443     		orr	r4, r2
 162 0016 1C60     		str	r4, [r3]
 252:.\Generated_Source\PSoC4/isr_BUTTON.c **** 	CyExitCriticalSection(interruptState);
 163              		.loc 1 252 0
 164 0018 FFF7FEFF 		bl	CyExitCriticalSection
 165              	.LVL4:
 253:.\Generated_Source\PSoC4/isr_BUTTON.c **** }
 166              		.loc 1 253 0
 167              		@ sp needed
 168 001c 38BD     		pop	{r3, r4, r5, pc}
 169              	.L13:
 170 001e C046     		.align	2
 171              	.L12:
 172 0020 00E400E0 		.word	-536812544
 173 0024 FFFF3FFF 		.word	-12582913
 174              		.cfi_endproc
 175              	.LFE6:
 176              		.size	isr_BUTTON_SetPriority, .-isr_BUTTON_SetPriority
 177              		.section	.text.isr_BUTTON_Start,"ax",%progbits
 178              		.align	1
 179              		.global	isr_BUTTON_Start
 180              		.code	16
 181              		.thumb_func
 182              		.type	isr_BUTTON_Start, %function
 183              	isr_BUTTON_Start:
 184              	.LFB0:
  56:.\Generated_Source\PSoC4/isr_BUTTON.c **** {
 185              		.loc 1 56 0
 186              		.cfi_startproc
 187              	.LBB24:
 188              	.LBB25:
 189              		.loc 1 344 0
 190 0000 064B     		ldr	r3, .L15
 191              	.LBE25:
 192              	.LBE24:
  56:.\Generated_Source\PSoC4/isr_BUTTON.c **** {
 193              		.loc 1 56 0
 194 0002 10B5     		push	{r4, lr}
 195              		.cfi_def_cfa_offset 8
 196              		.cfi_offset 4, -8
 197              		.cfi_offset 14, -4
 198              	.LBB27:
 199              	.LBB26:
 200              		.loc 1 344 0
 201 0004 0424     		mov	r4, #4
ARM GAS  C:\Users\SDEVAS~1\AppData\Local\Temp\ccHGV7fY.s 			page 11


 202 0006 1C60     		str	r4, [r3]
 203              	.LVL5:
 204              	.LBE26:
 205              	.LBE27:
 206              	.LBB28:
 207              	.LBB29:
 196:.\Generated_Source\PSoC4/isr_BUTTON.c ****     CyRamVectors[CYINT_IRQ_BASE + isr_BUTTON__INTC_NUMBER] = address;
 208              		.loc 1 196 0
 209 0008 054A     		ldr	r2, .L15+4
 210 000a 064B     		ldr	r3, .L15+8
 211              	.LBE29:
 212              	.LBE28:
  64:.\Generated_Source\PSoC4/isr_BUTTON.c ****     isr_BUTTON_SetPriority((uint8)isr_BUTTON_INTC_PRIOR_NUMBER);
 213              		.loc 1 64 0
 214 000c 0320     		mov	r0, #3
 215              	.LBB31:
 216              	.LBB30:
 196:.\Generated_Source\PSoC4/isr_BUTTON.c ****     CyRamVectors[CYINT_IRQ_BASE + isr_BUTTON__INTC_NUMBER] = address;
 217              		.loc 1 196 0
 218 000e 9A64     		str	r2, [r3, #72]
 219              	.LBE30:
 220              	.LBE31:
  64:.\Generated_Source\PSoC4/isr_BUTTON.c ****     isr_BUTTON_SetPriority((uint8)isr_BUTTON_INTC_PRIOR_NUMBER);
 221              		.loc 1 64 0
 222 0010 FFF7FEFF 		bl	isr_BUTTON_SetPriority
 223              	.LVL6:
 224              	.LBB32:
 225              	.LBB33:
 302:.\Generated_Source\PSoC4/isr_BUTTON.c ****     *isr_BUTTON_INTC_SET_EN = isr_BUTTON__INTC_MASK;
 226              		.loc 1 302 0
 227 0014 044B     		ldr	r3, .L15+12
 228              	.LBE33:
 229              	.LBE32:
  68:.\Generated_Source\PSoC4/isr_BUTTON.c **** }
 230              		.loc 1 68 0
 231              		@ sp needed
 232              	.LBB35:
 233              	.LBB34:
 302:.\Generated_Source\PSoC4/isr_BUTTON.c ****     *isr_BUTTON_INTC_SET_EN = isr_BUTTON__INTC_MASK;
 234              		.loc 1 302 0
 235 0016 1C60     		str	r4, [r3]
 236              	.LBE34:
 237              	.LBE35:
  68:.\Generated_Source\PSoC4/isr_BUTTON.c **** }
 238              		.loc 1 68 0
 239 0018 10BD     		pop	{r4, pc}
 240              	.L16:
 241 001a C046     		.align	2
 242              	.L15:
 243 001c 80E100E0 		.word	-536813184
 244 0020 00000000 		.word	isr_BUTTON_Interrupt
 245 0024 00000000 		.word	CyRamVectors
 246 0028 00E100E0 		.word	-536813312
 247              		.cfi_endproc
 248              	.LFE0:
 249              		.size	isr_BUTTON_Start, .-isr_BUTTON_Start
 250              		.section	.text.isr_BUTTON_StartEx,"ax",%progbits
ARM GAS  C:\Users\SDEVAS~1\AppData\Local\Temp\ccHGV7fY.s 			page 12


 251              		.align	1
 252              		.global	isr_BUTTON_StartEx
 253              		.code	16
 254              		.thumb_func
 255              		.type	isr_BUTTON_StartEx, %function
 256              	isr_BUTTON_StartEx:
 257              	.LFB1:
  99:.\Generated_Source\PSoC4/isr_BUTTON.c **** {
 258              		.loc 1 99 0
 259              		.cfi_startproc
 260              	.LVL7:
 261              	.LBB36:
 262              	.LBB37:
 263              		.loc 1 344 0
 264 0000 054B     		ldr	r3, .L18
 265              	.LBE37:
 266              	.LBE36:
  99:.\Generated_Source\PSoC4/isr_BUTTON.c **** {
 267              		.loc 1 99 0
 268 0002 10B5     		push	{r4, lr}
 269              		.cfi_def_cfa_offset 8
 270              		.cfi_offset 4, -8
 271              		.cfi_offset 14, -4
 272              	.LBB39:
 273              	.LBB38:
 274              		.loc 1 344 0
 275 0004 0424     		mov	r4, #4
 276 0006 1C60     		str	r4, [r3]
 277              	.LVL8:
 278              	.LBE38:
 279              	.LBE39:
 280              	.LBB40:
 281              	.LBB41:
 196:.\Generated_Source\PSoC4/isr_BUTTON.c ****     CyRamVectors[CYINT_IRQ_BASE + isr_BUTTON__INTC_NUMBER] = address;
 282              		.loc 1 196 0
 283 0008 044B     		ldr	r3, .L18+4
 284              	.LBE41:
 285              	.LBE40:
 111:.\Generated_Source\PSoC4/isr_BUTTON.c **** }
 286              		.loc 1 111 0
 287              		@ sp needed
 288              	.LBB43:
 289              	.LBB42:
 196:.\Generated_Source\PSoC4/isr_BUTTON.c ****     CyRamVectors[CYINT_IRQ_BASE + isr_BUTTON__INTC_NUMBER] = address;
 290              		.loc 1 196 0
 291 000a 9864     		str	r0, [r3, #72]
 292              	.LBE42:
 293              	.LBE43:
 107:.\Generated_Source\PSoC4/isr_BUTTON.c ****     isr_BUTTON_SetPriority((uint8)isr_BUTTON_INTC_PRIOR_NUMBER);
 294              		.loc 1 107 0
 295 000c 0320     		mov	r0, #3
 296              	.LVL9:
 297 000e FFF7FEFF 		bl	isr_BUTTON_SetPriority
 298              	.LVL10:
 299              	.LBB44:
 300              	.LBB45:
 302:.\Generated_Source\PSoC4/isr_BUTTON.c ****     *isr_BUTTON_INTC_SET_EN = isr_BUTTON__INTC_MASK;
ARM GAS  C:\Users\SDEVAS~1\AppData\Local\Temp\ccHGV7fY.s 			page 13


 301              		.loc 1 302 0
 302 0012 034B     		ldr	r3, .L18+8
 303 0014 1C60     		str	r4, [r3]
 304              	.LBE45:
 305              	.LBE44:
 111:.\Generated_Source\PSoC4/isr_BUTTON.c **** }
 306              		.loc 1 111 0
 307 0016 10BD     		pop	{r4, pc}
 308              	.L19:
 309              		.align	2
 310              	.L18:
 311 0018 80E100E0 		.word	-536813184
 312 001c 00000000 		.word	CyRamVectors
 313 0020 00E100E0 		.word	-536813312
 314              		.cfi_endproc
 315              	.LFE1:
 316              		.size	isr_BUTTON_StartEx, .-isr_BUTTON_StartEx
 317              		.section	.text.isr_BUTTON_GetPriority,"ax",%progbits
 318              		.align	1
 319              		.global	isr_BUTTON_GetPriority
 320              		.code	16
 321              		.thumb_func
 322              		.type	isr_BUTTON_GetPriority, %function
 323              	isr_BUTTON_GetPriority:
 324              	.LFB7:
 273:.\Generated_Source\PSoC4/isr_BUTTON.c **** {
 325              		.loc 1 273 0
 326              		.cfi_startproc
 327              	.LVL11:
 277:.\Generated_Source\PSoC4/isr_BUTTON.c ****     priority = (*isr_BUTTON_INTC_PRIOR & isr_BUTTON__INTC_PRIOR_MASK) >> priorityOffset;
 328              		.loc 1 277 0
 329 0000 024B     		ldr	r3, .L21
 280:.\Generated_Source\PSoC4/isr_BUTTON.c **** }
 330              		.loc 1 280 0
 331              		@ sp needed
 277:.\Generated_Source\PSoC4/isr_BUTTON.c ****     priority = (*isr_BUTTON_INTC_PRIOR & isr_BUTTON__INTC_PRIOR_MASK) >> priorityOffset;
 332              		.loc 1 277 0
 333 0002 1868     		ldr	r0, [r3]
 334              	.LVL12:
 335 0004 0002     		lsl	r0, r0, #8
 336              	.LVL13:
 279:.\Generated_Source\PSoC4/isr_BUTTON.c ****     return (uint8)priority;
 337              		.loc 1 279 0
 338 0006 800F     		lsr	r0, r0, #30
 280:.\Generated_Source\PSoC4/isr_BUTTON.c **** }
 339              		.loc 1 280 0
 340 0008 7047     		bx	lr
 341              	.L22:
 342 000a C046     		.align	2
 343              	.L21:
 344 000c 00E400E0 		.word	-536812544
 345              		.cfi_endproc
 346              	.LFE7:
 347              		.size	isr_BUTTON_GetPriority, .-isr_BUTTON_GetPriority
 348              		.section	.text.isr_BUTTON_Enable,"ax",%progbits
 349              		.align	1
 350              		.global	isr_BUTTON_Enable
ARM GAS  C:\Users\SDEVAS~1\AppData\Local\Temp\ccHGV7fY.s 			page 14


 351              		.code	16
 352              		.thumb_func
 353              		.type	isr_BUTTON_Enable, %function
 354              	isr_BUTTON_Enable:
 355              	.LFB8:
 300:.\Generated_Source\PSoC4/isr_BUTTON.c **** {
 356              		.loc 1 300 0
 357              		.cfi_startproc
 302:.\Generated_Source\PSoC4/isr_BUTTON.c ****     *isr_BUTTON_INTC_SET_EN = isr_BUTTON__INTC_MASK;
 358              		.loc 1 302 0
 359 0000 014B     		ldr	r3, .L24
 360 0002 0422     		mov	r2, #4
 361 0004 1A60     		str	r2, [r3]
 303:.\Generated_Source\PSoC4/isr_BUTTON.c **** }
 362              		.loc 1 303 0
 363              		@ sp needed
 364 0006 7047     		bx	lr
 365              	.L25:
 366              		.align	2
 367              	.L24:
 368 0008 00E100E0 		.word	-536813312
 369              		.cfi_endproc
 370              	.LFE8:
 371              		.size	isr_BUTTON_Enable, .-isr_BUTTON_Enable
 372              		.section	.text.isr_BUTTON_GetState,"ax",%progbits
 373              		.align	1
 374              		.global	isr_BUTTON_GetState
 375              		.code	16
 376              		.thumb_func
 377              		.type	isr_BUTTON_GetState, %function
 378              	isr_BUTTON_GetState:
 379              	.LFB9:
 321:.\Generated_Source\PSoC4/isr_BUTTON.c **** {
 380              		.loc 1 321 0
 381              		.cfi_startproc
 323:.\Generated_Source\PSoC4/isr_BUTTON.c ****     return ((*isr_BUTTON_INTC_SET_EN & (uint32)isr_BUTTON__INTC_MASK) != 0u) ? 1u:0u;
 382              		.loc 1 323 0
 383 0000 024B     		ldr	r3, .L27
 324:.\Generated_Source\PSoC4/isr_BUTTON.c **** }
 384              		.loc 1 324 0
 385              		@ sp needed
 323:.\Generated_Source\PSoC4/isr_BUTTON.c ****     return ((*isr_BUTTON_INTC_SET_EN & (uint32)isr_BUTTON__INTC_MASK) != 0u) ? 1u:0u;
 386              		.loc 1 323 0
 387 0002 1868     		ldr	r0, [r3]
 388 0004 4007     		lsl	r0, r0, #29
 389 0006 C00F     		lsr	r0, r0, #31
 324:.\Generated_Source\PSoC4/isr_BUTTON.c **** }
 390              		.loc 1 324 0
 391 0008 7047     		bx	lr
 392              	.L28:
 393 000a C046     		.align	2
 394              	.L27:
 395 000c 00E100E0 		.word	-536813312
 396              		.cfi_endproc
 397              	.LFE9:
 398              		.size	isr_BUTTON_GetState, .-isr_BUTTON_GetState
 399              		.section	.text.isr_BUTTON_Disable,"ax",%progbits
ARM GAS  C:\Users\SDEVAS~1\AppData\Local\Temp\ccHGV7fY.s 			page 15


 400              		.align	1
 401              		.global	isr_BUTTON_Disable
 402              		.code	16
 403              		.thumb_func
 404              		.type	isr_BUTTON_Disable, %function
 405              	isr_BUTTON_Disable:
 406              	.LFB10:
 342:.\Generated_Source\PSoC4/isr_BUTTON.c **** {
 407              		.loc 1 342 0
 408              		.cfi_startproc
 409              		.loc 1 344 0
 410 0000 014B     		ldr	r3, .L30
 411 0002 0422     		mov	r2, #4
 412 0004 1A60     		str	r2, [r3]
 345:.\Generated_Source\PSoC4/isr_BUTTON.c **** }
 413              		.loc 1 345 0
 414              		@ sp needed
 415 0006 7047     		bx	lr
 416              	.L31:
 417              		.align	2
 418              	.L30:
 419 0008 80E100E0 		.word	-536813184
 420              		.cfi_endproc
 421              	.LFE10:
 422              		.size	isr_BUTTON_Disable, .-isr_BUTTON_Disable
 423              		.section	.text.isr_BUTTON_SetPending,"ax",%progbits
 424              		.align	1
 425              		.global	isr_BUTTON_SetPending
 426              		.code	16
 427              		.thumb_func
 428              		.type	isr_BUTTON_SetPending, %function
 429              	isr_BUTTON_SetPending:
 430              	.LFB11:
 346:.\Generated_Source\PSoC4/isr_BUTTON.c **** 
 347:.\Generated_Source\PSoC4/isr_BUTTON.c **** 
 348:.\Generated_Source\PSoC4/isr_BUTTON.c **** /*******************************************************************************
 349:.\Generated_Source\PSoC4/isr_BUTTON.c **** * Function Name: isr_BUTTON_SetPending
 350:.\Generated_Source\PSoC4/isr_BUTTON.c **** ********************************************************************************
 351:.\Generated_Source\PSoC4/isr_BUTTON.c **** *
 352:.\Generated_Source\PSoC4/isr_BUTTON.c **** * Summary:
 353:.\Generated_Source\PSoC4/isr_BUTTON.c **** *   Causes the Interrupt to enter the pending state, a software method of
 354:.\Generated_Source\PSoC4/isr_BUTTON.c **** *   generating the interrupt.
 355:.\Generated_Source\PSoC4/isr_BUTTON.c **** *
 356:.\Generated_Source\PSoC4/isr_BUTTON.c **** * Parameters:
 357:.\Generated_Source\PSoC4/isr_BUTTON.c **** *   None
 358:.\Generated_Source\PSoC4/isr_BUTTON.c **** *
 359:.\Generated_Source\PSoC4/isr_BUTTON.c **** * Return:
 360:.\Generated_Source\PSoC4/isr_BUTTON.c **** *   None
 361:.\Generated_Source\PSoC4/isr_BUTTON.c **** *
 362:.\Generated_Source\PSoC4/isr_BUTTON.c **** * Side Effects:
 363:.\Generated_Source\PSoC4/isr_BUTTON.c **** *   If interrupts are enabled and the interrupt is set up properly, the ISR is
 364:.\Generated_Source\PSoC4/isr_BUTTON.c **** *   entered (depending on the priority of this interrupt and other pending 
 365:.\Generated_Source\PSoC4/isr_BUTTON.c **** *   interrupts).
 366:.\Generated_Source\PSoC4/isr_BUTTON.c **** *
 367:.\Generated_Source\PSoC4/isr_BUTTON.c **** *******************************************************************************/
 368:.\Generated_Source\PSoC4/isr_BUTTON.c **** void isr_BUTTON_SetPending(void)
 369:.\Generated_Source\PSoC4/isr_BUTTON.c **** {
ARM GAS  C:\Users\SDEVAS~1\AppData\Local\Temp\ccHGV7fY.s 			page 16


 431              		.loc 1 369 0
 432              		.cfi_startproc
 370:.\Generated_Source\PSoC4/isr_BUTTON.c ****     *isr_BUTTON_INTC_SET_PD = isr_BUTTON__INTC_MASK;
 433              		.loc 1 370 0
 434 0000 014B     		ldr	r3, .L33
 435 0002 0422     		mov	r2, #4
 436 0004 1A60     		str	r2, [r3]
 371:.\Generated_Source\PSoC4/isr_BUTTON.c **** }
 437              		.loc 1 371 0
 438              		@ sp needed
 439 0006 7047     		bx	lr
 440              	.L34:
 441              		.align	2
 442              	.L33:
 443 0008 00E200E0 		.word	-536813056
 444              		.cfi_endproc
 445              	.LFE11:
 446              		.size	isr_BUTTON_SetPending, .-isr_BUTTON_SetPending
 447              		.section	.text.isr_BUTTON_ClearPending,"ax",%progbits
 448              		.align	1
 449              		.global	isr_BUTTON_ClearPending
 450              		.code	16
 451              		.thumb_func
 452              		.type	isr_BUTTON_ClearPending, %function
 453              	isr_BUTTON_ClearPending:
 454              	.LFB12:
 372:.\Generated_Source\PSoC4/isr_BUTTON.c **** 
 373:.\Generated_Source\PSoC4/isr_BUTTON.c **** 
 374:.\Generated_Source\PSoC4/isr_BUTTON.c **** /*******************************************************************************
 375:.\Generated_Source\PSoC4/isr_BUTTON.c **** * Function Name: isr_BUTTON_ClearPending
 376:.\Generated_Source\PSoC4/isr_BUTTON.c **** ********************************************************************************
 377:.\Generated_Source\PSoC4/isr_BUTTON.c **** *
 378:.\Generated_Source\PSoC4/isr_BUTTON.c **** * Summary:
 379:.\Generated_Source\PSoC4/isr_BUTTON.c **** *   Clears a pending interrupt in the interrupt controller.
 380:.\Generated_Source\PSoC4/isr_BUTTON.c **** *
 381:.\Generated_Source\PSoC4/isr_BUTTON.c **** *   Note Some interrupt sources are clear-on-read and require the block 
 382:.\Generated_Source\PSoC4/isr_BUTTON.c **** *   interrupt/status register to be read/cleared with the appropriate block API 
 383:.\Generated_Source\PSoC4/isr_BUTTON.c **** *   (GPIO, UART, and so on). Otherwise the ISR will continue to remain in 
 384:.\Generated_Source\PSoC4/isr_BUTTON.c **** *   pending state even though the interrupt itself is cleared using this API.
 385:.\Generated_Source\PSoC4/isr_BUTTON.c **** *
 386:.\Generated_Source\PSoC4/isr_BUTTON.c **** * Parameters:
 387:.\Generated_Source\PSoC4/isr_BUTTON.c **** *   None
 388:.\Generated_Source\PSoC4/isr_BUTTON.c **** *
 389:.\Generated_Source\PSoC4/isr_BUTTON.c **** * Return:
 390:.\Generated_Source\PSoC4/isr_BUTTON.c **** *   None
 391:.\Generated_Source\PSoC4/isr_BUTTON.c **** *
 392:.\Generated_Source\PSoC4/isr_BUTTON.c **** *******************************************************************************/
 393:.\Generated_Source\PSoC4/isr_BUTTON.c **** void isr_BUTTON_ClearPending(void)
 394:.\Generated_Source\PSoC4/isr_BUTTON.c **** {
 455              		.loc 1 394 0
 456              		.cfi_startproc
 395:.\Generated_Source\PSoC4/isr_BUTTON.c ****     *isr_BUTTON_INTC_CLR_PD = isr_BUTTON__INTC_MASK;
 457              		.loc 1 395 0
 458 0000 014B     		ldr	r3, .L36
 459 0002 0422     		mov	r2, #4
 460 0004 1A60     		str	r2, [r3]
 396:.\Generated_Source\PSoC4/isr_BUTTON.c **** }
ARM GAS  C:\Users\SDEVAS~1\AppData\Local\Temp\ccHGV7fY.s 			page 17


 461              		.loc 1 396 0
 462              		@ sp needed
 463 0006 7047     		bx	lr
 464              	.L37:
 465              		.align	2
 466              	.L36:
 467 0008 80E200E0 		.word	-536812928
 468              		.cfi_endproc
 469              	.LFE12:
 470              		.size	isr_BUTTON_ClearPending, .-isr_BUTTON_ClearPending
 471              		.text
 472              	.Letext0:
 473              		.file 2 "Generated_Source\\PSoC4/cytypes.h"
 474              		.file 3 "Generated_Source\\PSoC4/CyLib.h"