ARM GAS  C:\Users\SDEVAS~1\AppData\Local\Temp\ccWuHvfz.s 			page 1


   1              		.cpu cortex-m0
   2              		.fpu softvfp
   3              		.eabi_attribute 20, 1
   4              		.eabi_attribute 21, 1
   5              		.eabi_attribute 23, 3
   6              		.eabi_attribute 24, 1
   7              		.eabi_attribute 25, 1
   8              		.eabi_attribute 26, 1
   9              		.eabi_attribute 30, 4
  10              		.eabi_attribute 34, 0
  11              		.eabi_attribute 18, 4
  12              		.code	16
  13              		.file	"main.c"
  14              		.text
  15              	.Ltext0:
  16              		.cfi_sections	.debug_frame
  17              		.section	.text.WDT_ISR_Handler,"ax",%progbits
  18              		.align	1
  19              		.global	WDT_ISR_Handler
  20              		.code	16
  21              		.thumb_func
  22              		.type	WDT_ISR_Handler, %function
  23              	WDT_ISR_Handler:
  24              	.LFB43:
  25              		.file 1 ".\\src\\main.c"
   1:.\src/main.c  **** #include <project.h>
   2:.\src/main.c  **** #include "main.h"
   3:.\src/main.c  **** 
   4:.\src/main.c  ****    
   5:.\src/main.c  **** #include "sysTimer.h"
   6:.\src/main.c  **** #include "sleepMgr.h"
   7:.\src/main.c  **** 
   8:.\src/main.c  **** 
   9:.\src/main.c  **** 
  10:.\src/main.c  **** #include "waterControl.h"
  11:.\src/main.c  **** 
  12:.\src/main.c  **** 
  13:.\src/main.c  **** volatile uint8 Flag = 0;
  14:.\src/main.c  **** clock time;
  15:.\src/main.c  **** //int voltage = 0;
  16:.\src/main.c  **** int voltage = 4200;
  17:.\src/main.c  **** 
  18:.\src/main.c  **** char str_mode[4][15]={{"Init"},{"Day"},{"Night"},{"LowPower"}};
  19:.\src/main.c  **** Fsm modelHandle;
  20:.\src/main.c  **** 
  21:.\src/main.c  **** 
  22:.\src/main.c  **** static void communicationHandler(Fsm* handle) {
  23:.\src/main.c  **** 	comm_Handler();
  24:.\src/main.c  **** }
  25:.\src/main.c  **** 
  26:.\src/main.c  **** 
  27:.\src/main.c  **** void setvar_updateRate(int val) {
  28:.\src/main.c  **** 
  29:.\src/main.c  **** }
  30:.\src/main.c  **** 
  31:.\src/main.c  **** 
  32:.\src/main.c  **** void setvar_test(char * val) {
ARM GAS  C:\Users\SDEVAS~1\AppData\Local\Temp\ccWuHvfz.s 			page 2


  33:.\src/main.c  ****   LED_Write(*val-0x30);
  34:.\src/main.c  **** }
  35:.\src/main.c  **** char * getvar_test(void) {
  36:.\src/main.c  ****     return LED_Read() ? "0" : "1";
  37:.\src/main.c  **** }
  38:.\src/main.c  **** 
  39:.\src/main.c  **** int getvar_sleepPeriod(void) {
  40:.\src/main.c  **** 	return CySysWdtReadMatch(CY_SYS_WDT_COUNTER1);
  41:.\src/main.c  **** }
  42:.\src/main.c  **** void setvar_sleepPeriod(int val) {
  43:.\src/main.c  **** 	CySysWdtDisable(CY_SYS_WDT_COUNTER0_MASK|CY_SYS_WDT_COUNTER1_MASK);
  44:.\src/main.c  **** 	CySysWdtResetCounters(CY_SYS_WDT_COUNTER0_MASK|CY_SYS_WDT_COUNTER1_MASK);
  45:.\src/main.c  **** 	CySysWdtWriteMatch(CY_SYS_WDT_COUNTER1, val);
  46:.\src/main.c  **** 	CySysWdtEnable(CY_SYS_WDT_COUNTER0_MASK|CY_SYS_WDT_COUNTER1_MASK);
  47:.\src/main.c  **** }
  48:.\src/main.c  **** 
  49:.\src/main.c  **** int getvar_shutdownTime(void) {
  50:.\src/main.c  **** 	return 1;
  51:.\src/main.c  **** }
  52:.\src/main.c  **** void setvar_shutdownTime(int val) {}
  53:.\src/main.c  **** 
  54:.\src/main.c  **** 
  55:.\src/main.c  **** 
  56:.\src/main.c  **** void comm_ModeChange(atom_modes_t mode) {
  57:.\src/main.c  **** 	switch(mode) {
  58:.\src/main.c  **** 	case ATOM_MODE_Idle: 	fsmIfacePlatform_raise_idle(&modelHandle); break;
  59:.\src/main.c  **** 	case ATOM_MODE_Start: 	fsmIfacePlatform_raise_start(&modelHandle); break;
  60:.\src/main.c  **** 	case ATOM_MODE_Test: 	fsmIfacePlatform_raise_test(&modelHandle); break;
  61:.\src/main.c  **** 	case ATOM_MODE_Shutdown: /*TODO do something here!*/ break;
  62:.\src/main.c  **** 	default: break;
  63:.\src/main.c  **** 	}
  64:.\src/main.c  **** }
  65:.\src/main.c  **** 
  66:.\src/main.c  **** /*****************************************************************************************
  67:.\src/main.c  **** * PLATFORM FUNCTIONS
  68:.\src/main.c  **** *****************************************************************************************/
  69:.\src/main.c  **** clock getTime(){
  70:.\src/main.c  ****     return time;
  71:.\src/main.c  **** }
  72:.\src/main.c  **** 
  73:.\src/main.c  **** CY_ISR(WDT_ISR_Handler){
  26              		.loc 1 73 0
  27              		.cfi_startproc
  28 0000 08B5     		push	{r3, lr}
  29              		.cfi_def_cfa_offset 8
  30              		.cfi_offset 3, -8
  31              		.cfi_offset 14, -4
  74:.\src/main.c  **** 	/* Clear the WDT interrupt */
  75:.\src/main.c  ****     CySysWdtClearInterrupt(CY_SYS_WDT_COUNTER1_INT|CY_SYS_WDT_COUNTER0_INT);
  32              		.loc 1 75 0
  33 0002 0648     		ldr	r0, .L2
  34 0004 FFF7FEFF 		bl	CySysWdtClearInterrupt
  35              	.LVL0:
  76:.\src/main.c  **** 
  77:.\src/main.c  ****     fsmIfacePlatform_raise_timer(&modelHandle);
  36              		.loc 1 77 0
  37 0008 0548     		ldr	r0, .L2+4
ARM GAS  C:\Users\SDEVAS~1\AppData\Local\Temp\ccWuHvfz.s 			page 3


  38 000a FFF7FEFF 		bl	fsmIfacePlatform_raise_timer
  39              	.LVL1:
  78:.\src/main.c  ****     Flag = Flag|DEEP_SLEEP_FLAG; //??
  40              		.loc 1 78 0
  41 000e 054B     		ldr	r3, .L2+8
  42 0010 0321     		mov	r1, #3
  43 0012 1A78     		ldrb	r2, [r3]
  79:.\src/main.c  **** }
  44              		.loc 1 79 0
  45              		@ sp needed
  78:.\src/main.c  ****     Flag = Flag|DEEP_SLEEP_FLAG; //??
  46              		.loc 1 78 0
  47 0014 0A43     		orr	r2, r1
  48 0016 1A70     		strb	r2, [r3]
  49              		.loc 1 79 0
  50 0018 08BD     		pop	{r3, pc}
  51              	.L3:
  52 001a C046     		.align	2
  53              	.L2:
  54 001c 04040000 		.word	1028
  55 0020 00000000 		.word	modelHandle
  56 0024 00000000 		.word	.LANCHOR0
  57              		.cfi_endproc
  58              	.LFE43:
  59              		.size	WDT_ISR_Handler, .-WDT_ISR_Handler
  60              		.section	.text.setvar_updateRate,"ax",%progbits
  61              		.align	1
  62              		.global	setvar_updateRate
  63              		.code	16
  64              		.thumb_func
  65              		.type	setvar_updateRate, %function
  66              	setvar_updateRate:
  67              	.LFB34:
  27:.\src/main.c  **** void setvar_updateRate(int val) {
  68              		.loc 1 27 0
  69              		.cfi_startproc
  70              	.LVL2:
  29:.\src/main.c  **** }
  71              		.loc 1 29 0
  72              		@ sp needed
  73 0000 7047     		bx	lr
  74              		.cfi_endproc
  75              	.LFE34:
  76              		.size	setvar_updateRate, .-setvar_updateRate
  77              		.section	.text.setvar_test,"ax",%progbits
  78              		.align	1
  79              		.global	setvar_test
  80              		.code	16
  81              		.thumb_func
  82              		.type	setvar_test, %function
  83              	setvar_test:
  84              	.LFB35:
  32:.\src/main.c  **** void setvar_test(char * val) {
  85              		.loc 1 32 0
  86              		.cfi_startproc
  87              	.LVL3:
  88 0000 08B5     		push	{r3, lr}
ARM GAS  C:\Users\SDEVAS~1\AppData\Local\Temp\ccWuHvfz.s 			page 4


  89              		.cfi_def_cfa_offset 8
  90              		.cfi_offset 3, -8
  91              		.cfi_offset 14, -4
  33:.\src/main.c  ****   LED_Write(*val-0x30);
  92              		.loc 1 33 0
  93 0002 0078     		ldrb	r0, [r0]
  94              	.LVL4:
  34:.\src/main.c  **** }
  95              		.loc 1 34 0
  96              		@ sp needed
  33:.\src/main.c  ****   LED_Write(*val-0x30);
  97              		.loc 1 33 0
  98 0004 3038     		sub	r0, r0, #48
  99 0006 C0B2     		uxtb	r0, r0
 100 0008 FFF7FEFF 		bl	LED_Write
 101              	.LVL5:
  34:.\src/main.c  **** }
 102              		.loc 1 34 0
 103 000c 08BD     		pop	{r3, pc}
 104              		.cfi_endproc
 105              	.LFE35:
 106              		.size	setvar_test, .-setvar_test
 107              		.section	.text.getvar_test,"ax",%progbits
 108              		.align	1
 109              		.global	getvar_test
 110              		.code	16
 111              		.thumb_func
 112              		.type	getvar_test, %function
 113              	getvar_test:
 114              	.LFB36:
  35:.\src/main.c  **** char * getvar_test(void) {
 115              		.loc 1 35 0
 116              		.cfi_startproc
 117 0000 08B5     		push	{r3, lr}
 118              		.cfi_def_cfa_offset 8
 119              		.cfi_offset 3, -8
 120              		.cfi_offset 14, -4
  36:.\src/main.c  ****     return LED_Read() ? "0" : "1";
 121              		.loc 1 36 0
 122 0002 FFF7FEFF 		bl	LED_Read
 123              	.LVL6:
 124 0006 0028     		cmp	r0, #0
 125 0008 01D0     		beq	.L8
 126 000a 0248     		ldr	r0, .L10
 127 000c 00E0     		b	.L7
 128              	.L8:
 129 000e 0248     		ldr	r0, .L10+4
 130              	.L7:
  37:.\src/main.c  **** }
 131              		.loc 1 37 0 discriminator 3
 132              		@ sp needed
 133 0010 08BD     		pop	{r3, pc}
 134              	.L11:
 135 0012 C046     		.align	2
 136              	.L10:
 137 0014 00000000 		.word	.LC2
 138 0018 02000000 		.word	.LC4
ARM GAS  C:\Users\SDEVAS~1\AppData\Local\Temp\ccWuHvfz.s 			page 5


 139              		.cfi_endproc
 140              	.LFE36:
 141              		.size	getvar_test, .-getvar_test
 142              		.section	.text.getvar_sleepPeriod,"ax",%progbits
 143              		.align	1
 144              		.global	getvar_sleepPeriod
 145              		.code	16
 146              		.thumb_func
 147              		.type	getvar_sleepPeriod, %function
 148              	getvar_sleepPeriod:
 149              	.LFB37:
  39:.\src/main.c  **** int getvar_sleepPeriod(void) {
 150              		.loc 1 39 0
 151              		.cfi_startproc
 152 0000 08B5     		push	{r3, lr}
 153              		.cfi_def_cfa_offset 8
 154              		.cfi_offset 3, -8
 155              		.cfi_offset 14, -4
  40:.\src/main.c  **** 	return CySysWdtReadMatch(CY_SYS_WDT_COUNTER1);
 156              		.loc 1 40 0
 157 0002 0120     		mov	r0, #1
 158 0004 FFF7FEFF 		bl	CySysWdtGetMatch
 159              	.LVL7:
  41:.\src/main.c  **** }
 160              		.loc 1 41 0
 161              		@ sp needed
 162 0008 08BD     		pop	{r3, pc}
 163              		.cfi_endproc
 164              	.LFE37:
 165              		.size	getvar_sleepPeriod, .-getvar_sleepPeriod
 166              		.section	.text.setvar_sleepPeriod,"ax",%progbits
 167              		.align	1
 168              		.global	setvar_sleepPeriod
 169              		.code	16
 170              		.thumb_func
 171              		.type	setvar_sleepPeriod, %function
 172              	setvar_sleepPeriod:
 173              	.LFB38:
  42:.\src/main.c  **** void setvar_sleepPeriod(int val) {
 174              		.loc 1 42 0
 175              		.cfi_startproc
 176              	.LVL8:
 177 0000 38B5     		push	{r3, r4, r5, lr}
 178              		.cfi_def_cfa_offset 16
 179              		.cfi_offset 3, -16
 180              		.cfi_offset 4, -12
 181              		.cfi_offset 5, -8
 182              		.cfi_offset 14, -4
  43:.\src/main.c  **** 	CySysWdtDisable(CY_SYS_WDT_COUNTER0_MASK|CY_SYS_WDT_COUNTER1_MASK);
 183              		.loc 1 43 0
 184 0002 0224     		mov	r4, #2
 185 0004 FF34     		add	r4, r4, #255
  42:.\src/main.c  **** void setvar_sleepPeriod(int val) {
 186              		.loc 1 42 0
 187 0006 051C     		mov	r5, r0
  43:.\src/main.c  **** 	CySysWdtDisable(CY_SYS_WDT_COUNTER0_MASK|CY_SYS_WDT_COUNTER1_MASK);
 188              		.loc 1 43 0
ARM GAS  C:\Users\SDEVAS~1\AppData\Local\Temp\ccWuHvfz.s 			page 6


 189 0008 201C     		mov	r0, r4
 190              	.LVL9:
 191 000a FFF7FEFF 		bl	CySysWdtDisable
 192              	.LVL10:
  44:.\src/main.c  **** 	CySysWdtResetCounters(CY_SYS_WDT_COUNTER0_MASK|CY_SYS_WDT_COUNTER1_MASK);
 193              		.loc 1 44 0
 194 000e 201C     		mov	r0, r4
 195 0010 FFF7FEFF 		bl	CySysWdtResetCounters
 196              	.LVL11:
  45:.\src/main.c  **** 	CySysWdtWriteMatch(CY_SYS_WDT_COUNTER1, val);
 197              		.loc 1 45 0
 198 0014 291C     		mov	r1, r5
 199 0016 0120     		mov	r0, #1
 200 0018 FFF7FEFF 		bl	CySysWdtSetMatch
 201              	.LVL12:
  46:.\src/main.c  **** 	CySysWdtEnable(CY_SYS_WDT_COUNTER0_MASK|CY_SYS_WDT_COUNTER1_MASK);
 202              		.loc 1 46 0
 203 001c 201C     		mov	r0, r4
 204 001e FFF7FEFF 		bl	CySysWdtEnable
 205              	.LVL13:
  47:.\src/main.c  **** }
 206              		.loc 1 47 0
 207              		@ sp needed
 208              	.LVL14:
 209 0022 38BD     		pop	{r3, r4, r5, pc}
 210              		.cfi_endproc
 211              	.LFE38:
 212              		.size	setvar_sleepPeriod, .-setvar_sleepPeriod
 213              		.section	.text.getvar_shutdownTime,"ax",%progbits
 214              		.align	1
 215              		.global	getvar_shutdownTime
 216              		.code	16
 217              		.thumb_func
 218              		.type	getvar_shutdownTime, %function
 219              	getvar_shutdownTime:
 220              	.LFB39:
  49:.\src/main.c  **** int getvar_shutdownTime(void) {
 221              		.loc 1 49 0
 222              		.cfi_startproc
  51:.\src/main.c  **** }
 223              		.loc 1 51 0
 224 0000 0120     		mov	r0, #1
 225              		@ sp needed
 226 0002 7047     		bx	lr
 227              		.cfi_endproc
 228              	.LFE39:
 229              		.size	getvar_shutdownTime, .-getvar_shutdownTime
 230              		.section	.text.setvar_shutdownTime,"ax",%progbits
 231              		.align	1
 232              		.global	setvar_shutdownTime
 233              		.code	16
 234              		.thumb_func
 235              		.type	setvar_shutdownTime, %function
 236              	setvar_shutdownTime:
 237              	.LFB40:
  52:.\src/main.c  **** void setvar_shutdownTime(int val) {}
 238              		.loc 1 52 0
ARM GAS  C:\Users\SDEVAS~1\AppData\Local\Temp\ccWuHvfz.s 			page 7


 239              		.cfi_startproc
 240              	.LVL15:
  52:.\src/main.c  **** void setvar_shutdownTime(int val) {}
 241              		.loc 1 52 0
 242              		@ sp needed
 243 0000 7047     		bx	lr
 244              		.cfi_endproc
 245              	.LFE40:
 246              		.size	setvar_shutdownTime, .-setvar_shutdownTime
 247              		.section	.text.comm_ModeChange,"ax",%progbits
 248              		.align	1
 249              		.global	comm_ModeChange
 250              		.code	16
 251              		.thumb_func
 252              		.type	comm_ModeChange, %function
 253              	comm_ModeChange:
 254              	.LFB41:
  56:.\src/main.c  **** void comm_ModeChange(atom_modes_t mode) {
 255              		.loc 1 56 0
 256              		.cfi_startproc
 257              	.LVL16:
 258 0000 08B5     		push	{r3, lr}
 259              		.cfi_def_cfa_offset 8
 260              		.cfi_offset 3, -8
 261              		.cfi_offset 14, -4
  57:.\src/main.c  **** 	switch(mode) {
 262              		.loc 1 57 0
 263 0002 0128     		cmp	r0, #1
 264 0004 0BD0     		beq	.L18
 265 0006 0028     		cmp	r0, #0
 266 0008 05D0     		beq	.L19
 267 000a 0228     		cmp	r0, #2
 268 000c 0AD1     		bne	.L16
  58:.\src/main.c  **** 	case ATOM_MODE_Idle: 	fsmIfacePlatform_raise_idle(&modelHandle); break;
 269              		.loc 1 58 0
 270 000e 0648     		ldr	r0, .L21
 271              	.LVL17:
 272 0010 FFF7FEFF 		bl	fsmIfacePlatform_raise_idle
 273              	.LVL18:
 274 0014 06E0     		b	.L16
 275              	.LVL19:
 276              	.L19:
  59:.\src/main.c  **** 	case ATOM_MODE_Start: 	fsmIfacePlatform_raise_start(&modelHandle); break;
 277              		.loc 1 59 0
 278 0016 0448     		ldr	r0, .L21
 279              	.LVL20:
 280 0018 FFF7FEFF 		bl	fsmIfacePlatform_raise_start
 281              	.LVL21:
 282 001c 02E0     		b	.L16
 283              	.LVL22:
 284              	.L18:
  60:.\src/main.c  **** 	case ATOM_MODE_Test: 	fsmIfacePlatform_raise_test(&modelHandle); break;
 285              		.loc 1 60 0
 286 001e 0248     		ldr	r0, .L21
 287              	.LVL23:
 288 0020 FFF7FEFF 		bl	fsmIfacePlatform_raise_test
 289              	.LVL24:
ARM GAS  C:\Users\SDEVAS~1\AppData\Local\Temp\ccWuHvfz.s 			page 8


 290              	.L16:
  64:.\src/main.c  **** }
 291              		.loc 1 64 0
 292              		@ sp needed
 293 0024 08BD     		pop	{r3, pc}
 294              	.L22:
 295 0026 C046     		.align	2
 296              	.L21:
 297 0028 00000000 		.word	modelHandle
 298              		.cfi_endproc
 299              	.LFE41:
 300              		.size	comm_ModeChange, .-comm_ModeChange
 301              		.section	.text.getTime,"ax",%progbits
 302              		.align	1
 303              		.global	getTime
 304              		.code	16
 305              		.thumb_func
 306              		.type	getTime, %function
 307              	getTime:
 308              	.LFB42:
  69:.\src/main.c  **** clock getTime(){
 309              		.loc 1 69 0
 310              		.cfi_startproc
 311              	.LVL25:
 312 0000 10B5     		push	{r4, lr}
 313              		.cfi_def_cfa_offset 8
 314              		.cfi_offset 4, -8
 315              		.cfi_offset 14, -4
  70:.\src/main.c  ****     return time;
 316              		.loc 1 70 0
 317 0002 0349     		ldr	r1, .L24
  69:.\src/main.c  **** clock getTime(){
 318              		.loc 1 69 0
 319 0004 041C     		mov	r4, r0
  70:.\src/main.c  ****     return time;
 320              		.loc 1 70 0
 321 0006 0522     		mov	r2, #5
 322 0008 FFF7FEFF 		bl	memcpy
 323              	.LVL26:
  71:.\src/main.c  **** }
 324              		.loc 1 71 0
 325              		@ sp needed
 326 000c 201C     		mov	r0, r4
 327              	.LVL27:
 328 000e 10BD     		pop	{r4, pc}
 329              	.L25:
 330              		.align	2
 331              	.L24:
 332 0010 00000000 		.word	time
 333              		.cfi_endproc
 334              	.LFE42:
 335              		.size	getTime, .-getTime
 336              		.section	.text.preset,"ax",%progbits
 337              		.align	1
 338              		.global	preset
 339              		.code	16
 340              		.thumb_func
ARM GAS  C:\Users\SDEVAS~1\AppData\Local\Temp\ccWuHvfz.s 			page 9


 341              		.type	preset, %function
 342              	preset:
 343              	.LFB44:
  80:.\src/main.c  **** void preset(void){
 344              		.loc 1 80 0
 345              		.cfi_startproc
  81:.\src/main.c  ****    	time.secs = 00;
 346              		.loc 1 81 0
 347 0000 074B     		ldr	r3, .L27
 348 0002 0022     		mov	r2, #0
 349 0004 1A70     		strb	r2, [r3]
  82:.\src/main.c  ****    	time.mins = 43;
 350              		.loc 1 82 0
 351 0006 2B22     		mov	r2, #43
 352 0008 5A70     		strb	r2, [r3, #1]
  83:.\src/main.c  ****    	time.hours = 10;
 353              		.loc 1 83 0
 354 000a 0A22     		mov	r2, #10
 355 000c 9A70     		strb	r2, [r3, #2]
  84:.\src/main.c  ****    	time.mode = DAY;
 356              		.loc 1 84 0
 357 000e 0122     		mov	r2, #1
 358 0010 DA70     		strb	r2, [r3, #3]
  85:.\src/main.c  ****    	time.omode = time.mode;
 359              		.loc 1 85 0
 360 0012 1A71     		strb	r2, [r3, #4]
  86:.\src/main.c  ****    	Flag = Flag|POR_FLAG;
 361              		.loc 1 86 0
 362 0014 034B     		ldr	r3, .L27+4
  87:.\src/main.c  **** }
 363              		.loc 1 87 0
 364              		@ sp needed
  86:.\src/main.c  ****    	Flag = Flag|POR_FLAG;
 365              		.loc 1 86 0
 366 0016 1978     		ldrb	r1, [r3]
 367 0018 0A43     		orr	r2, r1
 368 001a 1A70     		strb	r2, [r3]
 369              		.loc 1 87 0
 370 001c 7047     		bx	lr
 371              	.L28:
 372 001e C046     		.align	2
 373              	.L27:
 374 0020 00000000 		.word	time
 375 0024 00000000 		.word	.LANCHOR0
 376              		.cfi_endproc
 377              	.LFE44:
 378              		.size	preset, .-preset
 379              		.section	.text.CheckTime,"ax",%progbits
 380              		.align	1
 381              		.global	CheckTime
 382              		.code	16
 383              		.thumb_func
 384              		.type	CheckTime, %function
 385              	CheckTime:
 386              	.LFB48:
  88:.\src/main.c  **** void init(void){
  89:.\src/main.c  **** 	Flag = Flag & WAKE_MASK;
ARM GAS  C:\Users\SDEVAS~1\AppData\Local\Temp\ccWuHvfz.s 			page 10


  90:.\src/main.c  **** 
  91:.\src/main.c  **** 
  92:.\src/main.c  ****     //UART Initialization
  93:.\src/main.c  ****     UART_Init();
  94:.\src/main.c  ****     UART_Enable();
  95:.\src/main.c  ****     UART_Start();
  96:.\src/main.c  **** 
  97:.\src/main.c  **** 
  98:.\src/main.c  ****     //Communication Initialization
  99:.\src/main.c  ****     comm_Init();
 100:.\src/main.c  **** 
 101:.\src/main.c  ****     SysTimer_Init();
 102:.\src/main.c  ****       
 103:.\src/main.c  ****     /*Watchdog timer initilization*/
 104:.\src/main.c  ****     SetUpWDT(INIT);
 105:.\src/main.c  ****     CySysWdtDisable(CY_SYS_WDT_COUNTER0_MASK|CY_SYS_WDT_COUNTER1_MASK);
 106:.\src/main.c  ****     isr_WDT_StartEx(WDT_ISR_Handler);
 107:.\src/main.c  **** 	CySysWdtEnable(CY_SYS_WDT_COUNTER0_MASK|CY_SYS_WDT_COUNTER1_MASK);
 108:.\src/main.c  ****     CyGlobalIntEnable;
 109:.\src/main.c  ****     
 110:.\src/main.c  ****     /*sensor and valve control initialization*/
 111:.\src/main.c  ****     waterControl_Init();
 112:.\src/main.c  ****   
 113:.\src/main.c  **** }
 114:.\src/main.c  **** 
 115:.\src/main.c  **** static void ResumePeripherals(void){
 116:.\src/main.c  ****     UART_Start();
 117:.\src/main.c  **** }
 118:.\src/main.c  **** static void StorePeripherals(void){
 119:.\src/main.c  ****     UART_Stop();
 120:.\src/main.c  **** }
 121:.\src/main.c  **** 
 122:.\src/main.c  **** 
 123:.\src/main.c  **** void CheckTime(){
 387              		.loc 1 123 0
 388              		.cfi_startproc
 124:.\src/main.c  ****     /*Update time*/
 125:.\src/main.c  ****     if(time.mode == DAY){
 389              		.loc 1 125 0
 390 0000 144B     		ldr	r3, .L38
 391 0002 DA78     		ldrb	r2, [r3, #3]
 392 0004 012A     		cmp	r2, #1
 393 0006 0BD1     		bne	.L30
 126:.\src/main.c  **** 		time.secs +=1;
 394              		.loc 1 126 0
 395 0008 1A78     		ldrb	r2, [r3]
 396 000a 511C     		add	r1, r2, #1
 397 000c C9B2     		uxtb	r1, r1
 398 000e 1970     		strb	r1, [r3]
 127:.\src/main.c  ****         if(time.secs >= 60){
 399              		.loc 1 127 0
 400 0010 3B29     		cmp	r1, #59
 401 0012 08D9     		bls	.L31
 128:.\src/main.c  **** 			time.mins++;
 402              		.loc 1 128 0
 403 0014 5978     		ldrb	r1, [r3, #1]
 129:.\src/main.c  **** 			time.secs -= 60;
ARM GAS  C:\Users\SDEVAS~1\AppData\Local\Temp\ccWuHvfz.s 			page 11


 404              		.loc 1 129 0
 405 0016 3B3A     		sub	r2, r2, #59
 128:.\src/main.c  **** 			time.mins++;
 406              		.loc 1 128 0
 407 0018 0131     		add	r1, r1, #1
 408 001a 5970     		strb	r1, [r3, #1]
 409              		.loc 1 129 0
 410 001c 1A70     		strb	r2, [r3]
 411 001e 02E0     		b	.L31
 412              	.L30:
 130:.\src/main.c  **** 		}
 131:.\src/main.c  ****     }
 132:.\src/main.c  ****     else{
 133:.\src/main.c  **** 		time.mins++;
 413              		.loc 1 133 0
 414 0020 5A78     		ldrb	r2, [r3, #1]
 415 0022 0132     		add	r2, r2, #1
 416 0024 5A70     		strb	r2, [r3, #1]
 417              	.L31:
 134:.\src/main.c  **** 	}
 135:.\src/main.c  ****     if(time.mins >= 60){
 418              		.loc 1 135 0
 419 0026 5978     		ldrb	r1, [r3, #1]
 420 0028 3B29     		cmp	r1, #59
 421 002a 09D9     		bls	.L33
 136:.\src/main.c  ****         time.hours++;
 422              		.loc 1 136 0
 423 002c 9A78     		ldrb	r2, [r3, #2]
 137:.\src/main.c  ****         time.mins -= 60;
 424              		.loc 1 137 0
 425 002e 3C39     		sub	r1, r1, #60
 136:.\src/main.c  ****         time.hours++;
 426              		.loc 1 136 0
 427 0030 0132     		add	r2, r2, #1
 428 0032 D2B2     		uxtb	r2, r2
 429 0034 9A70     		strb	r2, [r3, #2]
 430              		.loc 1 137 0
 431 0036 5970     		strb	r1, [r3, #1]
 138:.\src/main.c  ****         if(time.hours >= 24){
 432              		.loc 1 138 0
 433 0038 172A     		cmp	r2, #23
 434 003a 01D9     		bls	.L33
 139:.\src/main.c  **** 			time.hours = 0; 
 435              		.loc 1 139 0
 436 003c 0022     		mov	r2, #0
 437 003e 9A70     		strb	r2, [r3, #2]
 438              	.L33:
 140:.\src/main.c  **** 		}
 141:.\src/main.c  ****     }
 142:.\src/main.c  ****     if(time.hours > 9 && time.hours < 17){
 439              		.loc 1 142 0
 440 0040 9A78     		ldrb	r2, [r3, #2]
 441 0042 0A3A     		sub	r2, r2, #10
 442 0044 062A     		cmp	r2, #6
 443 0046 01D8     		bhi	.L35
 143:.\src/main.c  **** 		time.mode = DAY;
 444              		.loc 1 143 0
ARM GAS  C:\Users\SDEVAS~1\AppData\Local\Temp\ccWuHvfz.s 			page 12


 445 0048 0122     		mov	r2, #1
 446 004a 00E0     		b	.L37
 447              	.L35:
 144:.\src/main.c  **** 	}
 145:.\src/main.c  ****     else{
 146:.\src/main.c  **** 		time.mode = NIGHT;
 448              		.loc 1 146 0
 449 004c 0222     		mov	r2, #2
 450              	.L37:
 451 004e DA70     		strb	r2, [r3, #3]
 147:.\src/main.c  **** 	}
 148:.\src/main.c  **** }
 452              		.loc 1 148 0
 453              		@ sp needed
 454 0050 7047     		bx	lr
 455              	.L39:
 456 0052 C046     		.align	2
 457              	.L38:
 458 0054 00000000 		.word	time
 459              		.cfi_endproc
 460              	.LFE48:
 461              		.size	CheckTime, .-CheckTime
 462              		.section	.text.check_duty_cycle,"ax",%progbits
 463              		.align	1
 464              		.global	check_duty_cycle
 465              		.code	16
 466              		.thumb_func
 467              		.type	check_duty_cycle, %function
 468              	check_duty_cycle:
 469              	.LFB49:
 149:.\src/main.c  **** void check_duty_cycle(void){
 470              		.loc 1 149 0
 471              		.cfi_startproc
 472 0000 08B5     		push	{r3, lr}
 473              		.cfi_def_cfa_offset 8
 474              		.cfi_offset 3, -8
 475              		.cfi_offset 14, -4
 150:.\src/main.c  ****         CheckTime();
 476              		.loc 1 150 0
 477 0002 FFF7FEFF 		bl	CheckTime
 478              	.LVL28:
 151:.\src/main.c  **** }
 479              		.loc 1 151 0
 480              		@ sp needed
 481 0006 08BD     		pop	{r3, pc}
 482              		.cfi_endproc
 483              	.LFE49:
 484              		.size	check_duty_cycle, .-check_duty_cycle
 485              		.section	.text.SetUpWDT,"ax",%progbits
 486              		.align	1
 487              		.global	SetUpWDT
 488              		.code	16
 489              		.thumb_func
 490              		.type	SetUpWDT, %function
 491              	SetUpWDT:
 492              	.LFB50:
 152:.\src/main.c  **** void SetUpWDT(uint8 md){
ARM GAS  C:\Users\SDEVAS~1\AppData\Local\Temp\ccWuHvfz.s 			page 13


 493              		.loc 1 152 0
 494              		.cfi_startproc
 495              	.LVL29:
 496 0000 10B5     		push	{r4, lr}
 497              		.cfi_def_cfa_offset 8
 498              		.cfi_offset 4, -8
 499              		.cfi_offset 14, -4
 500              		.loc 1 152 0
 501 0002 041C     		mov	r4, r0
 153:.\src/main.c  ****     CySysWdtDisable(CY_SYS_WDT_COUNTER0_MASK|CY_SYS_WDT_COUNTER1_MASK);
 502              		.loc 1 153 0
 503 0004 0220     		mov	r0, #2
 504              	.LVL30:
 505 0006 FF30     		add	r0, r0, #255
 506 0008 FFF7FEFF 		bl	CySysWdtDisable
 507              	.LVL31:
 154:.\src/main.c  ****     switch(md){
 508              		.loc 1 154 0
 509 000c 032C     		cmp	r4, #3
 510 000e 25D8     		bhi	.L42
 511 0010 201C     		mov	r0, r4
 512 0012 FFF7FEFF 		bl	__gnu_thumb1_case_uqi
 513              	.L44:
 514 0016 02       		.byte	(.L43-.L44)/2
 515 0017 1C       		.byte	(.L45-.L44)/2
 516 0018 1F       		.byte	(.L47-.L44)/2
 517 0019 1F       		.byte	(.L47-.L44)/2
 518              		.p2align 1
 519              	.L43:
 155:.\src/main.c  ****     case INIT:
 156:.\src/main.c  ****         /* Configure for Free Running mode for WDT 0 */
 157:.\src/main.c  ****         CySysWdtWriteMode(CY_SYS_WDT_COUNTER0, CY_SYS_WDT_MODE_NONE);
 520              		.loc 1 157 0
 521 001a 0020     		mov	r0, #0
 522 001c 011C     		mov	r1, r0
 523 001e FFF7FEFF 		bl	CySysWdtSetMode
 524              	.LVL32:
 158:.\src/main.c  ****         /* Configure for Interrupt mode for WDT 1 */
 159:.\src/main.c  ****         CySysWdtWriteMode(CY_SYS_WDT_COUNTER1, CY_SYS_WDT_MODE_INT);
 525              		.loc 1 159 0
 526 0022 0120     		mov	r0, #1
 527 0024 011C     		mov	r1, r0
 528 0026 FFF7FEFF 		bl	CySysWdtSetMode
 529              	.LVL33:
 160:.\src/main.c  ****         /* Configure for Cascade WDT 0 & 1 */
 161:.\src/main.c  ****         CySysWdtWriteCascade(CY_SYS_WDT_CASCADE_01);
 530              		.loc 1 161 0
 531 002a 0820     		mov	r0, #8
 532 002c FFF7FEFF 		bl	CySysWdtSetCascade
 533              	.LVL34:
 162:.\src/main.c  ****         /* Let the timers clear when it reaches period */
 163:.\src/main.c  ****         CySysWdtWriteClearOnMatch(CY_SYS_WDT_COUNTER0, 1u);
 534              		.loc 1 163 0
 535 0030 0020     		mov	r0, #0
 536 0032 0121     		mov	r1, #1
 537 0034 FFF7FEFF 		bl	CySysWdtSetClearOnMatch
 538              	.LVL35:
ARM GAS  C:\Users\SDEVAS~1\AppData\Local\Temp\ccWuHvfz.s 			page 14


 164:.\src/main.c  ****         CySysWdtWriteClearOnMatch(CY_SYS_WDT_COUNTER1, 1u);
 539              		.loc 1 164 0
 540 0038 0120     		mov	r0, #1
 541 003a 011C     		mov	r1, r0
 542 003c FFF7FEFF 		bl	CySysWdtSetClearOnMatch
 543              	.LVL36:
 165:.\src/main.c  ****         /* Set the period for the WDT0 to 1 second */
 166:.\src/main.c  ****         CySysWdtWriteMatch(CY_SYS_WDT_COUNTER0,WDT_MATCH_VALUE0);
 544              		.loc 1 166 0
 545 0040 0020     		mov	r0, #0
 546 0042 0949     		ldr	r1, .L49
 547 0044 FFF7FEFF 		bl	CySysWdtSetMatch
 548              	.LVL37:
 167:.\src/main.c  ****         CySysWdtWriteMatch(CY_SYS_WDT_COUNTER1, 10);
 549              		.loc 1 167 0
 550 0048 0120     		mov	r0, #1
 551 004a 0A21     		mov	r1, #10
 552 004c 04E0     		b	.L48
 553              	.L45:
 168:.\src/main.c  ****         break;
 169:.\src/main.c  ****     /*Set sleep time for modes, add case for new modes*/    
 170:.\src/main.c  ****     case DAY:
 171:.\src/main.c  ****         CySysWdtWriteMatch(CY_SYS_WDT_COUNTER1,WDT_MATCH_VALUE1_DAY);
 554              		.loc 1 171 0
 555 004e 0120     		mov	r0, #1
 556 0050 011C     		mov	r1, r0
 557 0052 01E0     		b	.L48
 558              	.L47:
 172:.\src/main.c  ****         break;
 173:.\src/main.c  ****     case NIGHT:
 174:.\src/main.c  ****         CySysWdtWriteMatch(CY_SYS_WDT_COUNTER1,WDT_MATCH_VALUE1_NIGHT);
 175:.\src/main.c  ****         break;
 176:.\src/main.c  ****     case LOWPWR:
 177:.\src/main.c  ****         CySysWdtWriteMatch(CY_SYS_WDT_COUNTER1,WDT_MATCH_VALUE1_NIGHT);
 559              		.loc 1 177 0
 560 0054 0120     		mov	r0, #1
 561 0056 3C21     		mov	r1, #60
 562              	.L48:
 563 0058 FFF7FEFF 		bl	CySysWdtSetMatch
 564              	.LVL38:
 565              	.L42:
 178:.\src/main.c  ****         break;
 179:.\src/main.c  ****     default:
 180:.\src/main.c  ****         break;
 181:.\src/main.c  ****     }
 182:.\src/main.c  ****     CySysWdtEnable(CY_SYS_WDT_COUNTER0_MASK|CY_SYS_WDT_COUNTER1_MASK);
 566              		.loc 1 182 0
 567 005c 0220     		mov	r0, #2
 568 005e FF30     		add	r0, r0, #255
 569 0060 FFF7FEFF 		bl	CySysWdtEnable
 570              	.LVL39:
 183:.\src/main.c  **** }
 571              		.loc 1 183 0
 572              		@ sp needed
 573 0064 10BD     		pop	{r4, pc}
 574              	.L50:
 575 0066 C046     		.align	2
ARM GAS  C:\Users\SDEVAS~1\AppData\Local\Temp\ccWuHvfz.s 			page 15


 576              	.L49:
 577 0068 FF7C0000 		.word	31999
 578              		.cfi_endproc
 579              	.LFE50:
 580              		.size	SetUpWDT, .-SetUpWDT
 581              		.section	.text.init,"ax",%progbits
 582              		.align	1
 583              		.global	init
 584              		.code	16
 585              		.thumb_func
 586              		.type	init, %function
 587              	init:
 588              	.LFB45:
  88:.\src/main.c  **** void init(void){
 589              		.loc 1 88 0
 590              		.cfi_startproc
 591 0000 10B5     		push	{r4, lr}
 592              		.cfi_def_cfa_offset 8
 593              		.cfi_offset 4, -8
 594              		.cfi_offset 14, -4
  89:.\src/main.c  **** 	Flag = Flag & WAKE_MASK;
 595              		.loc 1 89 0
 596 0002 104B     		ldr	r3, .L52
 597 0004 0321     		mov	r1, #3
 598 0006 1A78     		ldrb	r2, [r3]
 105:.\src/main.c  ****     CySysWdtDisable(CY_SYS_WDT_COUNTER0_MASK|CY_SYS_WDT_COUNTER1_MASK);
 599              		.loc 1 105 0
 600 0008 0224     		mov	r4, #2
  89:.\src/main.c  **** 	Flag = Flag & WAKE_MASK;
 601              		.loc 1 89 0
 602 000a 8A43     		bic	r2, r1
 603 000c 1A70     		strb	r2, [r3]
 105:.\src/main.c  ****     CySysWdtDisable(CY_SYS_WDT_COUNTER0_MASK|CY_SYS_WDT_COUNTER1_MASK);
 604              		.loc 1 105 0
 605 000e FF34     		add	r4, r4, #255
  93:.\src/main.c  ****     UART_Init();
 606              		.loc 1 93 0
 607 0010 FFF7FEFF 		bl	UART_Init
 608              	.LVL40:
  94:.\src/main.c  ****     UART_Enable();
 609              		.loc 1 94 0
 610 0014 FFF7FEFF 		bl	UART_Enable
 611              	.LVL41:
  95:.\src/main.c  ****     UART_Start();
 612              		.loc 1 95 0
 613 0018 FFF7FEFF 		bl	UART_Start
 614              	.LVL42:
  99:.\src/main.c  ****     comm_Init();
 615              		.loc 1 99 0
 616 001c FFF7FEFF 		bl	comm_Init
 617              	.LVL43:
 101:.\src/main.c  ****     SysTimer_Init();
 618              		.loc 1 101 0
 619 0020 FFF7FEFF 		bl	SysTimer_Init
 620              	.LVL44:
 104:.\src/main.c  ****     SetUpWDT(INIT);
 621              		.loc 1 104 0
ARM GAS  C:\Users\SDEVAS~1\AppData\Local\Temp\ccWuHvfz.s 			page 16


 622 0024 0020     		mov	r0, #0
 623 0026 FFF7FEFF 		bl	SetUpWDT
 624              	.LVL45:
 105:.\src/main.c  ****     CySysWdtDisable(CY_SYS_WDT_COUNTER0_MASK|CY_SYS_WDT_COUNTER1_MASK);
 625              		.loc 1 105 0
 626 002a 201C     		mov	r0, r4
 627 002c FFF7FEFF 		bl	CySysWdtDisable
 628              	.LVL46:
 106:.\src/main.c  ****     isr_WDT_StartEx(WDT_ISR_Handler);
 629              		.loc 1 106 0
 630 0030 0548     		ldr	r0, .L52+4
 631 0032 FFF7FEFF 		bl	isr_WDT_StartEx
 632              	.LVL47:
 107:.\src/main.c  **** 	CySysWdtEnable(CY_SYS_WDT_COUNTER0_MASK|CY_SYS_WDT_COUNTER1_MASK);
 633              		.loc 1 107 0
 634 0036 201C     		mov	r0, r4
 635 0038 FFF7FEFF 		bl	CySysWdtEnable
 636              	.LVL48:
 108:.\src/main.c  ****     CyGlobalIntEnable;
 637              		.loc 1 108 0
 638              	@ 108 ".\src\main.c" 1
 639 003c 62B6     		CPSIE   i
 640              	@ 0 "" 2
 111:.\src/main.c  ****     waterControl_Init();
 641              		.loc 1 111 0
 642              		.code	16
 643 003e FFF7FEFF 		bl	waterControl_Init
 644              	.LVL49:
 113:.\src/main.c  **** }
 645              		.loc 1 113 0
 646              		@ sp needed
 647 0042 10BD     		pop	{r4, pc}
 648              	.L53:
 649              		.align	2
 650              	.L52:
 651 0044 00000000 		.word	.LANCHOR0
 652 0048 00000000 		.word	WDT_ISR_Handler
 653              		.cfi_endproc
 654              	.LFE45:
 655              		.size	init, .-init
 656              		.section	.text.fsmIfacePlatform_sleep,"ax",%progbits
 657              		.align	1
 658              		.global	fsmIfacePlatform_sleep
 659              		.code	16
 660              		.thumb_func
 661              		.type	fsmIfacePlatform_sleep, %function
 662              	fsmIfacePlatform_sleep:
 663              	.LFB51:
 184:.\src/main.c  **** 
 185:.\src/main.c  **** /*****************************************************************************************
 186:.\src/main.c  **** * FSM OPERATION FUNCTIONS
 187:.\src/main.c  **** *****************************************************************************************/
 188:.\src/main.c  **** void fsmIfacePlatform_sleep(void){
 664              		.loc 1 188 0
 665              		.cfi_startproc
 666 0000 10B5     		push	{r4, lr}
 667              		.cfi_def_cfa_offset 8
ARM GAS  C:\Users\SDEVAS~1\AppData\Local\Temp\ccWuHvfz.s 			page 17


 668              		.cfi_offset 4, -8
 669              		.cfi_offset 14, -4
 670              	.LBB10:
 671              	.LBB11:
 150:.\src/main.c  ****         CheckTime();
 672              		.loc 1 150 0
 673 0002 FFF7FEFF 		bl	CheckTime
 674              	.LVL50:
 675              	.LBE11:
 676              	.LBE10:
 189:.\src/main.c  **** 	/* 
 190:.\src/main.c  **** 	* This state should decide weather we go on HW sleep or HW DeepSleep and resume accordingly
 191:.\src/main.c  **** 	*/
 192:.\src/main.c  **** 	check_duty_cycle();
 193:.\src/main.c  **** 	if (time.omode != time.mode){
 677              		.loc 1 193 0
 678 0006 074B     		ldr	r3, .L56
 679 0008 D878     		ldrb	r0, [r3, #3]
 680 000a 1A79     		ldrb	r2, [r3, #4]
 681 000c 1C1C     		mov	r4, r3
 682 000e 8242     		cmp	r2, r0
 683 0010 01D0     		beq	.L55
 194:.\src/main.c  **** 		SetUpWDT(time.mode);
 684              		.loc 1 194 0
 685 0012 FFF7FEFF 		bl	SetUpWDT
 686              	.LVL51:
 687              	.L55:
 195:.\src/main.c  **** 	}
 196:.\src/main.c  ****     time.omode = time.mode; 
 688              		.loc 1 196 0
 689 0016 E378     		ldrb	r3, [r4, #3]
 197:.\src/main.c  ****     StorePeripherals();
 198:.\src/main.c  **** 
 199:.\src/main.c  ****     sleepMgr_requestDeepSleep();
 200:.\src/main.c  **** }
 690              		.loc 1 200 0
 691              		@ sp needed
 196:.\src/main.c  ****     time.omode = time.mode; 
 692              		.loc 1 196 0
 693 0018 2371     		strb	r3, [r4, #4]
 694              	.LBB12:
 695              	.LBB13:
 119:.\src/main.c  ****     UART_Stop();
 696              		.loc 1 119 0
 697 001a FFF7FEFF 		bl	UART_Stop
 698              	.LVL52:
 699              	.LBE13:
 700              	.LBE12:
 199:.\src/main.c  ****     sleepMgr_requestDeepSleep();
 701              		.loc 1 199 0
 702 001e FFF7FEFF 		bl	sleepMgr_requestDeepSleep
 703              	.LVL53:
 704              		.loc 1 200 0
 705 0022 10BD     		pop	{r4, pc}
 706              	.L57:
 707              		.align	2
 708              	.L56:
ARM GAS  C:\Users\SDEVAS~1\AppData\Local\Temp\ccWuHvfz.s 			page 18


 709 0024 00000000 		.word	time
 710              		.cfi_endproc
 711              	.LFE51:
 712              		.size	fsmIfacePlatform_sleep, .-fsmIfacePlatform_sleep
 713              		.section	.text.fsmIfacePlatform_resume,"ax",%progbits
 714              		.align	1
 715              		.global	fsmIfacePlatform_resume
 716              		.code	16
 717              		.thumb_func
 718              		.type	fsmIfacePlatform_resume, %function
 719              	fsmIfacePlatform_resume:
 720              	.LFB52:
 201:.\src/main.c  **** void fsmIfacePlatform_resume(void){
 721              		.loc 1 201 0
 722              		.cfi_startproc
 723 0000 08B5     		push	{r3, lr}
 724              		.cfi_def_cfa_offset 8
 725              		.cfi_offset 3, -8
 726              		.cfi_offset 14, -4
 202:.\src/main.c  **** 	sleepMgr_releaseDeepSleep();
 727              		.loc 1 202 0
 728 0002 FFF7FEFF 		bl	sleepMgr_releaseDeepSleep
 729              	.LVL54:
 203:.\src/main.c  **** 	/* this function will resume any peripherals */
 204:.\src/main.c  ****     Flag = Flag & WAKE_MASK;
 730              		.loc 1 204 0
 731 0006 044B     		ldr	r3, .L59
 732 0008 0321     		mov	r1, #3
 733 000a 1A78     		ldrb	r2, [r3]
 205:.\src/main.c  ****     ResumePeripherals();
 206:.\src/main.c  **** 
 207:.\src/main.c  **** }
 734              		.loc 1 207 0
 735              		@ sp needed
 204:.\src/main.c  ****     Flag = Flag & WAKE_MASK;
 736              		.loc 1 204 0
 737 000c 8A43     		bic	r2, r1
 738 000e 1A70     		strb	r2, [r3]
 739              	.LBB14:
 740              	.LBB15:
 116:.\src/main.c  ****     UART_Start();
 741              		.loc 1 116 0
 742 0010 FFF7FEFF 		bl	UART_Start
 743              	.LVL55:
 744              	.LBE15:
 745              	.LBE14:
 746              		.loc 1 207 0
 747 0014 08BD     		pop	{r3, pc}
 748              	.L60:
 749 0016 C046     		.align	2
 750              	.L59:
 751 0018 00000000 		.word	.LANCHOR0
 752              		.cfi_endproc
 753              	.LFE52:
 754              		.size	fsmIfacePlatform_resume, .-fsmIfacePlatform_resume
 755              		.section	.text.fsmIfacePlatform_send_msg,"ax",%progbits
 756              		.align	1
ARM GAS  C:\Users\SDEVAS~1\AppData\Local\Temp\ccWuHvfz.s 			page 19


 757              		.global	fsmIfacePlatform_send_msg
 758              		.code	16
 759              		.thumb_func
 760              		.type	fsmIfacePlatform_send_msg, %function
 761              	fsmIfacePlatform_send_msg:
 762              	.LFB53:
 208:.\src/main.c  **** 
 209:.\src/main.c  **** void fsmIfacePlatform_send_msg() {
 763              		.loc 1 209 0
 764              		.cfi_startproc
 765 0000 08B5     		push	{r3, lr}
 766              		.cfi_def_cfa_offset 8
 767              		.cfi_offset 3, -8
 768              		.cfi_offset 14, -4
 210:.\src/main.c  **** 	comm_ScheduleMessage("Info", 4, 'X', '0');
 769              		.loc 1 210 0
 770 0002 0348     		ldr	r0, .L62
 771 0004 0421     		mov	r1, #4
 772 0006 5822     		mov	r2, #88
 773 0008 3023     		mov	r3, #48
 774 000a FFF7FEFF 		bl	comm_ScheduleMessage
 775              	.LVL56:
 211:.\src/main.c  **** }
 776              		.loc 1 211 0
 777              		@ sp needed
 778 000e 08BD     		pop	{r3, pc}
 779              	.L63:
 780              		.align	2
 781              	.L62:
 782 0010 04000000 		.word	.LC19
 783              		.cfi_endproc
 784              	.LFE53:
 785              		.size	fsmIfacePlatform_send_msg, .-fsmIfacePlatform_send_msg
 786              		.section	.text.startup.main,"ax",%progbits
 787              		.align	1
 788              		.global	main
 789              		.code	16
 790              		.thumb_func
 791              		.type	main, %function
 792              	main:
 793              	.LFB54:
 212:.\src/main.c  **** 
 213:.\src/main.c  **** /*****************************************************************************************
 214:.\src/main.c  **** * MAIN
 215:.\src/main.c  **** *****************************************************************************************/
 216:.\src/main.c  **** int main(){
 794              		.loc 1 216 0
 795              		.cfi_startproc
 796 0000 10B5     		push	{r4, lr}
 797              		.cfi_def_cfa_offset 8
 798              		.cfi_offset 4, -8
 799              		.cfi_offset 14, -4
 217:.\src/main.c  **** 	preset();
 800              		.loc 1 217 0
 801 0002 FFF7FEFF 		bl	preset
 802              	.LVL57:
 218:.\src/main.c  **** 	init();
ARM GAS  C:\Users\SDEVAS~1\AppData\Local\Temp\ccWuHvfz.s 			page 20


 803              		.loc 1 218 0
 804 0006 FFF7FEFF 		bl	init
 805              	.LVL58:
 219:.\src/main.c  **** 
 220:.\src/main.c  ****     fsm_init(&modelHandle);
 806              		.loc 1 220 0
 807 000a 0E4C     		ldr	r4, .L66
 808 000c 201C     		mov	r0, r4
 809 000e FFF7FEFF 		bl	fsm_init
 810              	.LVL59:
 221:.\src/main.c  ****     fsm_enter(&modelHandle);
 811              		.loc 1 221 0
 812 0012 201C     		mov	r0, r4
 813 0014 FFF7FEFF 		bl	fsm_enter
 814              	.LVL60:
 222:.\src/main.c  ****     setValve1ON(true);
 815              		.loc 1 222 0
 816 0018 0120     		mov	r0, #1
 817 001a FFF7FEFF 		bl	setValve1ON
 818              	.LVL61:
 223:.\src/main.c  ****     CyDelay(1000);
 819              		.loc 1 223 0
 820 001e FA20     		mov	r0, #250
 821 0020 8000     		lsl	r0, r0, #2
 822 0022 FFF7FEFF 		bl	CyDelay
 823              	.LVL62:
 224:.\src/main.c  ****     setValve1ON(false);
 824              		.loc 1 224 0
 825 0026 0020     		mov	r0, #0
 826 0028 FFF7FEFF 		bl	setValve1ON
 827              	.LVL63:
 828              	.L65:
 225:.\src/main.c  ****     for(;;){
 226:.\src/main.c  ****         SysTimer_FsmHandler(&modelHandle);
 829              		.loc 1 226 0 discriminator 1
 830 002c 201C     		mov	r0, r4
 831 002e FFF7FEFF 		bl	SysTimer_FsmHandler
 832              	.LVL64:
 833              	.LBB16:
 834              	.LBB17:
  23:.\src/main.c  **** 	comm_Handler();
 835              		.loc 1 23 0 discriminator 1
 836 0032 FFF7FEFF 		bl	comm_Handler
 837              	.LVL65:
 838              	.LBE17:
 839              	.LBE16:
 227:.\src/main.c  ****     	communicationHandler(&modelHandle);
 228:.\src/main.c  ****         fsm_runCycle(&modelHandle);
 840              		.loc 1 228 0 discriminator 1
 841 0036 201C     		mov	r0, r4
 842 0038 FFF7FEFF 		bl	fsm_runCycle
 843              	.LVL66:
 229:.\src/main.c  ****         sleepMgr_sleep();
 844              		.loc 1 229 0 discriminator 1
 845 003c FFF7FEFF 		bl	sleepMgr_sleep
 846              	.LVL67:
 847 0040 F4E7     		b	.L65
ARM GAS  C:\Users\SDEVAS~1\AppData\Local\Temp\ccWuHvfz.s 			page 21


 848              	.L67:
 849 0042 C046     		.align	2
 850              	.L66:
 851 0044 00000000 		.word	modelHandle
 852              		.cfi_endproc
 853              	.LFE54:
 854              		.size	main, .-main
 855              		.comm	modelHandle,28,4
 856              		.global	str_mode
 857              		.global	voltage
 858              		.comm	time,5,1
 859              		.global	Flag
 860              		.section	.rodata.str1.1,"aMS",%progbits,1
 861              	.LC2:
 862 0000 3000     		.ascii	"0\000"
 863              	.LC4:
 864 0002 3100     		.ascii	"1\000"
 865              	.LC19:
 866 0004 496E666F 		.ascii	"Info\000"
 866      00
 867              		.data
 868              		.align	2
 869              		.type	str_mode, %object
 870              		.size	str_mode, 60
 871              	str_mode:
 872 0000 496E6974 		.ascii	"Init\000"
 872      00
 873 0005 00000000 		.space	10
 873      00000000 
 873      0000
 874 000f 44617900 		.ascii	"Day\000"
 875 0013 00000000 		.space	11
 875      00000000 
 875      000000
 876 001e 4E696768 		.ascii	"Night\000"
 876      7400
 877 0024 00000000 		.space	9
 877      00000000 
 877      00
 878 002d 4C6F7750 		.ascii	"LowPower\000"
 878      6F776572 
 878      00
 879 0036 00000000 		.space	6
 879      0000
 880              		.type	voltage, %object
 881              		.size	voltage, 4
 882              	voltage:
 883 003c 68100000 		.word	4200
 884              		.bss
 885              		.set	.LANCHOR0,. + 0
 886              		.type	Flag, %object
 887              		.size	Flag, 1
 888              	Flag:
 889 0000 00       		.space	1
 890              		.text
 891              	.Letext0:
 892              		.file 2 "c:\\program files (x86)\\cypress\\psoc creator\\3.2\\psoc creator\\import\\gnu\\arm\\4.8.
ARM GAS  C:\Users\SDEVAS~1\AppData\Local\Temp\ccWuHvfz.s 			page 22


 893              		.file 3 "c:\\program files (x86)\\cypress\\psoc creator\\3.2\\psoc creator\\import\\gnu\\arm\\4.8.
 894              		.file 4 "Generated_Source\\PSoC4/cytypes.h"
 895              		.file 5 "Generated_Source\\PSoC4/comm.h"
 896              		.file 6 "./src-fsm/sc_types.h"
 897              		.file 7 "./src-fsm/Fsm.h"
 898              		.file 8 ".\\src\\main.h"
 899              		.file 9 "Generated_Source\\PSoC4/CyLFClk.h"
 900              		.file 10 "Generated_Source\\PSoC4/LED.h"
 901              		.file 11 "Generated_Source\\PSoC4/UART.h"
 902              		.file 12 ".\\src\\sysTimer.h"
 903              		.file 13 "Generated_Source\\PSoC4/isr_WDT.h"
 904              		.file 14 ".\\src\\waterControl.h"
 905              		.file 15 ".\\src\\sleepMgr.h"
 906              		.file 16 "Generated_Source\\PSoC4/CyLib.h"