ARM GAS  C:\Users\SDEVAS~1\AppData\Local\Temp\cc6pHh4M.s 			page 1


   1              		.cpu cortex-m0
   2              		.fpu softvfp
   3              		.eabi_attribute 20, 1
   4              		.eabi_attribute 21, 1
   5              		.eabi_attribute 23, 3
   6              		.eabi_attribute 24, 1
   7              		.eabi_attribute 25, 1
   8              		.eabi_attribute 26, 1
   9              		.eabi_attribute 30, 4
  10              		.eabi_attribute 34, 0
  11              		.eabi_attribute 18, 4
  12              		.code	16
  13              		.file	"sleepMgr.c"
  14              		.text
  15              	.Ltext0:
  16              		.cfi_sections	.debug_frame
  17              		.section	.text.sleepMgr_sleep,"ax",%progbits
  18              		.align	1
  19              		.global	sleepMgr_sleep
  20              		.code	16
  21              		.thumb_func
  22              		.type	sleepMgr_sleep, %function
  23              	sleepMgr_sleep:
  24              	.LFB33:
  25              		.file 1 ".\\src\\sleepMgr.c"
   1:.\src/sleepMgr.c **** /*
   2:.\src/sleepMgr.c ****  * sleepMgr.c
   3:.\src/sleepMgr.c ****  *
   4:.\src/sleepMgr.c ****  *      Author: jakub.piskorz@thaumatec.com
   5:.\src/sleepMgr.c ****  */
   6:.\src/sleepMgr.c **** 
   7:.\src/sleepMgr.c **** #include "sleepMgr.h"
   8:.\src/sleepMgr.c **** #include <CyLib.h>
   9:.\src/sleepMgr.c **** #include <cyPm.h>
  10:.\src/sleepMgr.c **** #include <core_cm0_psoc4.h>
  11:.\src/sleepMgr.c **** 
  12:.\src/sleepMgr.c **** static volatile uint32 deepSleepRequests = 0;
  13:.\src/sleepMgr.c **** static volatile uint32 sleepRequests = 0;
  14:.\src/sleepMgr.c **** 
  15:.\src/sleepMgr.c **** void sleepMgr_sleep(void) {
  26              		.loc 1 15 0
  27              		.cfi_startproc
  28 0000 08B5     		push	{r3, lr}
  29              		.cfi_def_cfa_offset 8
  30              		.cfi_offset 3, -8
  31              		.cfi_offset 14, -4
  16:.\src/sleepMgr.c **** 	if(deepSleepRequests != 0 && sleepRequests == 0) {
  32              		.loc 1 16 0
  33 0002 064B     		ldr	r3, .L8
  34 0004 1A68     		ldr	r2, [r3]
  35 0006 002A     		cmp	r2, #0
  36 0008 05D0     		beq	.L2
  37              		.loc 1 16 0 is_stmt 0 discriminator 1
  38 000a 5B68     		ldr	r3, [r3, #4]
  39 000c 002B     		cmp	r3, #0
  40 000e 02D1     		bne	.L2
  17:.\src/sleepMgr.c **** 		CySysPmDeepSleep();
ARM GAS  C:\Users\SDEVAS~1\AppData\Local\Temp\cc6pHh4M.s 			page 2


  41              		.loc 1 17 0 is_stmt 1
  42 0010 FFF7FEFF 		bl	CySysPmDeepSleep
  43              	.LVL0:
  44 0014 01E0     		b	.L1
  45              	.L2:
  18:.\src/sleepMgr.c **** 	} else {
  19:.\src/sleepMgr.c **** 		CySysPmSleep();
  46              		.loc 1 19 0
  47 0016 FFF7FEFF 		bl	CySysPmSleep
  48              	.LVL1:
  49              	.L1:
  20:.\src/sleepMgr.c **** 	}
  21:.\src/sleepMgr.c **** }
  50              		.loc 1 21 0
  51              		@ sp needed
  52 001a 08BD     		pop	{r3, pc}
  53              	.L9:
  54              		.align	2
  55              	.L8:
  56 001c 00000000 		.word	.LANCHOR0
  57              		.cfi_endproc
  58              	.LFE33:
  59              		.size	sleepMgr_sleep, .-sleepMgr_sleep
  60              		.section	.text.sleepMgr_requestDeepSleep,"ax",%progbits
  61              		.align	1
  62              		.global	sleepMgr_requestDeepSleep
  63              		.code	16
  64              		.thumb_func
  65              		.type	sleepMgr_requestDeepSleep, %function
  66              	sleepMgr_requestDeepSleep:
  67              	.LFB34:
  22:.\src/sleepMgr.c **** 
  23:.\src/sleepMgr.c **** void sleepMgr_requestDeepSleep(void) {
  68              		.loc 1 23 0
  69              		.cfi_startproc
  70 0000 08B5     		push	{r3, lr}
  71              		.cfi_def_cfa_offset 8
  72              		.cfi_offset 3, -8
  73              		.cfi_offset 14, -4
  24:.\src/sleepMgr.c **** 	uint8 interruptState = CyEnterCriticalSection();
  74              		.loc 1 24 0
  75 0002 FFF7FEFF 		bl	CyEnterCriticalSection
  76              	.LVL2:
  25:.\src/sleepMgr.c **** 
  26:.\src/sleepMgr.c **** 	deepSleepRequests++;
  77              		.loc 1 26 0
  78 0006 034B     		ldr	r3, .L11
  27:.\src/sleepMgr.c **** 
  28:.\src/sleepMgr.c **** 	CyExitCriticalSection(interruptState);
  29:.\src/sleepMgr.c **** }
  79              		.loc 1 29 0
  80              		@ sp needed
  26:.\src/sleepMgr.c **** 	deepSleepRequests++;
  81              		.loc 1 26 0
  82 0008 1A68     		ldr	r2, [r3]
  83 000a 0132     		add	r2, r2, #1
  84 000c 1A60     		str	r2, [r3]
ARM GAS  C:\Users\SDEVAS~1\AppData\Local\Temp\cc6pHh4M.s 			page 3


  28:.\src/sleepMgr.c **** 	CyExitCriticalSection(interruptState);
  85              		.loc 1 28 0
  86 000e FFF7FEFF 		bl	CyExitCriticalSection
  87              	.LVL3:
  88              		.loc 1 29 0
  89 0012 08BD     		pop	{r3, pc}
  90              	.L12:
  91              		.align	2
  92              	.L11:
  93 0014 00000000 		.word	.LANCHOR0
  94              		.cfi_endproc
  95              	.LFE34:
  96              		.size	sleepMgr_requestDeepSleep, .-sleepMgr_requestDeepSleep
  97              		.section	.text.sleepMgr_releaseDeepSleep,"ax",%progbits
  98              		.align	1
  99              		.global	sleepMgr_releaseDeepSleep
 100              		.code	16
 101              		.thumb_func
 102              		.type	sleepMgr_releaseDeepSleep, %function
 103              	sleepMgr_releaseDeepSleep:
 104              	.LFB35:
  30:.\src/sleepMgr.c **** void sleepMgr_releaseDeepSleep(void) {
 105              		.loc 1 30 0
 106              		.cfi_startproc
 107 0000 08B5     		push	{r3, lr}
 108              		.cfi_def_cfa_offset 8
 109              		.cfi_offset 3, -8
 110              		.cfi_offset 14, -4
  31:.\src/sleepMgr.c **** 	uint8 interruptState = CyEnterCriticalSection();
 111              		.loc 1 31 0
 112 0002 FFF7FEFF 		bl	CyEnterCriticalSection
 113              	.LVL4:
  32:.\src/sleepMgr.c **** 
  33:.\src/sleepMgr.c **** 	if(deepSleepRequests)
 114              		.loc 1 33 0
 115 0006 054B     		ldr	r3, .L18
 116 0008 1A68     		ldr	r2, [r3]
 117 000a 002A     		cmp	r2, #0
 118 000c 02D0     		beq	.L14
  34:.\src/sleepMgr.c **** 		deepSleepRequests--;
 119              		.loc 1 34 0
 120 000e 1A68     		ldr	r2, [r3]
 121 0010 013A     		sub	r2, r2, #1
 122 0012 1A60     		str	r2, [r3]
 123              	.L14:
  35:.\src/sleepMgr.c **** 
  36:.\src/sleepMgr.c **** 	CyExitCriticalSection(interruptState);
 124              		.loc 1 36 0
 125 0014 FFF7FEFF 		bl	CyExitCriticalSection
 126              	.LVL5:
  37:.\src/sleepMgr.c **** }
 127              		.loc 1 37 0
 128              		@ sp needed
 129 0018 08BD     		pop	{r3, pc}
 130              	.L19:
 131 001a C046     		.align	2
 132              	.L18:
ARM GAS  C:\Users\SDEVAS~1\AppData\Local\Temp\cc6pHh4M.s 			page 4


 133 001c 00000000 		.word	.LANCHOR0
 134              		.cfi_endproc
 135              	.LFE35:
 136              		.size	sleepMgr_releaseDeepSleep, .-sleepMgr_releaseDeepSleep
 137              		.section	.text.sleepMgr_requestSleep,"ax",%progbits
 138              		.align	1
 139              		.global	sleepMgr_requestSleep
 140              		.code	16
 141              		.thumb_func
 142              		.type	sleepMgr_requestSleep, %function
 143              	sleepMgr_requestSleep:
 144              	.LFB36:
  38:.\src/sleepMgr.c **** 
  39:.\src/sleepMgr.c **** void sleepMgr_requestSleep(void) {
 145              		.loc 1 39 0
 146              		.cfi_startproc
 147 0000 08B5     		push	{r3, lr}
 148              		.cfi_def_cfa_offset 8
 149              		.cfi_offset 3, -8
 150              		.cfi_offset 14, -4
  40:.\src/sleepMgr.c **** 	uint8 interruptState = CyEnterCriticalSection();
 151              		.loc 1 40 0
 152 0002 FFF7FEFF 		bl	CyEnterCriticalSection
 153              	.LVL6:
  41:.\src/sleepMgr.c **** 
  42:.\src/sleepMgr.c **** 	sleepRequests++;
 154              		.loc 1 42 0
 155 0006 034B     		ldr	r3, .L21
  43:.\src/sleepMgr.c **** 
  44:.\src/sleepMgr.c **** 	CyExitCriticalSection(interruptState);
  45:.\src/sleepMgr.c **** }
 156              		.loc 1 45 0
 157              		@ sp needed
  42:.\src/sleepMgr.c **** 	sleepRequests++;
 158              		.loc 1 42 0
 159 0008 5A68     		ldr	r2, [r3, #4]
 160 000a 0132     		add	r2, r2, #1
 161 000c 5A60     		str	r2, [r3, #4]
  44:.\src/sleepMgr.c **** 	CyExitCriticalSection(interruptState);
 162              		.loc 1 44 0
 163 000e FFF7FEFF 		bl	CyExitCriticalSection
 164              	.LVL7:
 165              		.loc 1 45 0
 166 0012 08BD     		pop	{r3, pc}
 167              	.L22:
 168              		.align	2
 169              	.L21:
 170 0014 00000000 		.word	.LANCHOR0
 171              		.cfi_endproc
 172              	.LFE36:
 173              		.size	sleepMgr_requestSleep, .-sleepMgr_requestSleep
 174              		.section	.text.sleepMgr_releaseSleep,"ax",%progbits
 175              		.align	1
 176              		.global	sleepMgr_releaseSleep
 177              		.code	16
 178              		.thumb_func
 179              		.type	sleepMgr_releaseSleep, %function
ARM GAS  C:\Users\SDEVAS~1\AppData\Local\Temp\cc6pHh4M.s 			page 5


 180              	sleepMgr_releaseSleep:
 181              	.LFB37:
  46:.\src/sleepMgr.c **** void sleepMgr_releaseSleep(void) {
 182              		.loc 1 46 0
 183              		.cfi_startproc
 184 0000 08B5     		push	{r3, lr}
 185              		.cfi_def_cfa_offset 8
 186              		.cfi_offset 3, -8
 187              		.cfi_offset 14, -4
  47:.\src/sleepMgr.c **** 	uint8 interruptState = CyEnterCriticalSection();
 188              		.loc 1 47 0
 189 0002 FFF7FEFF 		bl	CyEnterCriticalSection
 190              	.LVL8:
  48:.\src/sleepMgr.c **** 
  49:.\src/sleepMgr.c **** 	if(sleepRequests)
 191              		.loc 1 49 0
 192 0006 054B     		ldr	r3, .L28
 193 0008 5A68     		ldr	r2, [r3, #4]
 194 000a 002A     		cmp	r2, #0
 195 000c 02D0     		beq	.L24
  50:.\src/sleepMgr.c **** 		sleepRequests--;
 196              		.loc 1 50 0
 197 000e 5A68     		ldr	r2, [r3, #4]
 198 0010 013A     		sub	r2, r2, #1
 199 0012 5A60     		str	r2, [r3, #4]
 200              	.L24:
  51:.\src/sleepMgr.c **** 
  52:.\src/sleepMgr.c **** 	CyExitCriticalSection(interruptState);
 201              		.loc 1 52 0
 202 0014 FFF7FEFF 		bl	CyExitCriticalSection
 203              	.LVL9:
  53:.\src/sleepMgr.c **** }
 204              		.loc 1 53 0
 205              		@ sp needed
 206 0018 08BD     		pop	{r3, pc}
 207              	.L29:
 208 001a C046     		.align	2
 209              	.L28:
 210 001c 00000000 		.word	.LANCHOR0
 211              		.cfi_endproc
 212              	.LFE37:
 213              		.size	sleepMgr_releaseSleep, .-sleepMgr_releaseSleep
 214              		.bss
 215              		.align	2
 216              		.set	.LANCHOR0,. + 0
 217              		.type	deepSleepRequests, %object
 218              		.size	deepSleepRequests, 4
 219              	deepSleepRequests:
 220 0000 00000000 		.space	4
 221              		.type	sleepRequests, %object
 222              		.size	sleepRequests, 4
 223              	sleepRequests:
 224 0004 00000000 		.space	4
 225              		.text
 226              	.Letext0:
 227              		.file 2 "Generated_Source\\PSoC4/cytypes.h"
 228              		.file 3 "Generated_Source\\PSoC4/cyPm.h"
ARM GAS  C:\Users\SDEVAS~1\AppData\Local\Temp\cc6pHh4M.s 			page 6


 229              		.file 4 "Generated_Source\\PSoC4/CyLib.h"