ARM GAS  C:\Users\SDEVAS~1\AppData\Local\Temp\ccihUgHU.s 			page 1


   1              		.cpu cortex-m0
   2              		.fpu softvfp
   3              		.eabi_attribute 20, 1
   4              		.eabi_attribute 21, 1
   5              		.eabi_attribute 23, 3
   6              		.eabi_attribute 24, 1
   7              		.eabi_attribute 25, 1
   8              		.eabi_attribute 26, 1
   9              		.eabi_attribute 30, 4
  10              		.eabi_attribute 34, 0
  11              		.eabi_attribute 18, 4
  12              		.code	16
  13              		.file	"valveControl.c"
  14              		.text
  15              	.Ltext0:
  16              		.cfi_sections	.debug_frame
  17              		.section	.text.setValve1ON,"ax",%progbits
  18              		.align	1
  19              		.global	setValve1ON
  20              		.code	16
  21              		.thumb_func
  22              		.type	setValve1ON, %function
  23              	setValve1ON:
  24              	.LFB33:
  25              		.file 1 ".\\src\\valveControl.c"
   1:.\src/valveControl.c **** #include "valveControl.h"
   2:.\src/valveControl.c **** 
   3:.\src/valveControl.c **** 
   4:.\src/valveControl.c **** /*******************************************************************************
   5:.\src/valveControl.c **** * Function Name: setValve1ON
   6:.\src/valveControl.c **** ********************************************************************************
   7:.\src/valveControl.c **** *
   8:.\src/valveControl.c **** * Summary:
   9:.\src/valveControl.c **** *  Turns on valve 1 (connector J9 on Water Control Atom.)
  10:.\src/valveControl.c **** *
  11:.\src/valveControl.c **** * Parameters:
  12:.\src/valveControl.c **** *  direction: The direction in which to turn the valve ON.
  13:.\src/valveControl.c **** *  TRUE		1 to set pin 2 high and pin 1 low
  14:.\src/valveControl.c **** *  FALSE	0 to set pin 1 high and pin 2 low
  15:.\src/valveControl.c **** *
  16:.\src/valveControl.c **** * Return:
  17:.\src/valveControl.c **** *  None.
  18:.\src/valveControl.c **** *
  19:.\src/valveControl.c **** *******************************************************************************/
  20:.\src/valveControl.c **** void setValve1ON(bool direction){
  26              		.loc 1 20 0
  27              		.cfi_startproc
  28              	.LVL0:
  29 0000 10B5     		push	{r4, lr}
  30              		.cfi_def_cfa_offset 8
  31              		.cfi_offset 4, -8
  32              		.cfi_offset 14, -4
  33              		.loc 1 20 0
  34 0002 041E     		sub	r4, r0, #0
  21:.\src/valveControl.c ****     if (direction==true){ //Direction 1
  35              		.loc 1 21 0
  36 0004 04D0     		beq	.L2
ARM GAS  C:\Users\SDEVAS~1\AppData\Local\Temp\ccihUgHU.s 			page 2


  22:.\src/valveControl.c ****          ON1_DIR1_Write(0u);
  37              		.loc 1 22 0
  38 0006 0020     		mov	r0, #0
  39              	.LVL1:
  40 0008 FFF7FEFF 		bl	ON1_DIR1_Write
  41              	.LVL2:
  23:.\src/valveControl.c ****          ON2_DIR2_Write(1u);
  42              		.loc 1 23 0
  43 000c 0120     		mov	r0, #1
  44 000e 03E0     		b	.L4
  45              	.LVL3:
  46              	.L2:
  24:.\src/valveControl.c ****     }
  25:.\src/valveControl.c ****     else{
  26:.\src/valveControl.c ****         ON1_DIR1_Write(1u);
  47              		.loc 1 26 0
  48 0010 0120     		mov	r0, #1
  49              	.LVL4:
  50 0012 FFF7FEFF 		bl	ON1_DIR1_Write
  51              	.LVL5:
  27:.\src/valveControl.c ****         ON2_DIR2_Write(0u);
  52              		.loc 1 27 0
  53 0016 201C     		mov	r0, r4
  54              	.L4:
  55 0018 FFF7FEFF 		bl	ON2_DIR2_Write
  56              	.LVL6:
  28:.\src/valveControl.c ****     }
  29:.\src/valveControl.c **** }
  57              		.loc 1 29 0
  58              		@ sp needed
  59 001c 10BD     		pop	{r4, pc}
  60              		.cfi_endproc
  61              	.LFE33:
  62              		.size	setValve1ON, .-setValve1ON
  63              		.section	.text.setValve2ON,"ax",%progbits
  64              		.align	1
  65              		.global	setValve2ON
  66              		.code	16
  67              		.thumb_func
  68              		.type	setValve2ON, %function
  69              	setValve2ON:
  70              	.LFB34:
  30:.\src/valveControl.c **** /*******************************************************************************
  31:.\src/valveControl.c **** * Function Name: setValve2ON
  32:.\src/valveControl.c **** ********************************************************************************
  33:.\src/valveControl.c **** *
  34:.\src/valveControl.c **** * Summary:
  35:.\src/valveControl.c **** *  Turns on valve 2 (connector J11 on Water Control Atom.)
  36:.\src/valveControl.c **** *
  37:.\src/valveControl.c **** * Parameters:
  38:.\src/valveControl.c **** *  direction: The direction in which to turn the valve ON.
  39:.\src/valveControl.c **** *  TRUE		1 to set pin 2 high and pin 1 low
  40:.\src/valveControl.c **** *  FALSE	0 to set pin 1 high and pin 2 low
  41:.\src/valveControl.c **** *
  42:.\src/valveControl.c **** * Return:
  43:.\src/valveControl.c **** *  None.
  44:.\src/valveControl.c **** *
ARM GAS  C:\Users\SDEVAS~1\AppData\Local\Temp\ccihUgHU.s 			page 3


  45:.\src/valveControl.c **** *******************************************************************************/
  46:.\src/valveControl.c **** void setValve2ON(bool direction){
  71              		.loc 1 46 0
  72              		.cfi_startproc
  73              	.LVL7:
  74 0000 10B5     		push	{r4, lr}
  75              		.cfi_def_cfa_offset 8
  76              		.cfi_offset 4, -8
  77              		.cfi_offset 14, -4
  78              		.loc 1 46 0
  79 0002 041E     		sub	r4, r0, #0
  47:.\src/valveControl.c ****     if (direction==true){ //Direction 1
  80              		.loc 1 47 0
  81 0004 04D0     		beq	.L7
  48:.\src/valveControl.c ****         ON1_DIR2_Write(0u);
  82              		.loc 1 48 0
  83 0006 0020     		mov	r0, #0
  84              	.LVL8:
  85 0008 FFF7FEFF 		bl	ON1_DIR2_Write
  86              	.LVL9:
  49:.\src/valveControl.c ****         ON2_DIR1_Write(1u);
  87              		.loc 1 49 0
  88 000c 0120     		mov	r0, #1
  89 000e 03E0     		b	.L9
  90              	.LVL10:
  91              	.L7:
  50:.\src/valveControl.c ****     }
  51:.\src/valveControl.c ****     else{
  52:.\src/valveControl.c ****        ON1_DIR2_Write(1u);
  92              		.loc 1 52 0
  93 0010 0120     		mov	r0, #1
  94              	.LVL11:
  95 0012 FFF7FEFF 		bl	ON1_DIR2_Write
  96              	.LVL12:
  53:.\src/valveControl.c ****        ON2_DIR1_Write(0u);
  97              		.loc 1 53 0
  98 0016 201C     		mov	r0, r4
  99              	.L9:
 100 0018 FFF7FEFF 		bl	ON2_DIR1_Write
 101              	.LVL13:
  54:.\src/valveControl.c ****     }
  55:.\src/valveControl.c **** }
 102              		.loc 1 55 0
 103              		@ sp needed
 104 001c 10BD     		pop	{r4, pc}
 105              		.cfi_endproc
 106              	.LFE34:
 107              		.size	setValve2ON, .-setValve2ON
 108              		.section	.text.setValve3ON,"ax",%progbits
 109              		.align	1
 110              		.global	setValve3ON
 111              		.code	16
 112              		.thumb_func
 113              		.type	setValve3ON, %function
 114              	setValve3ON:
 115              	.LFB35:
  56:.\src/valveControl.c **** /*******************************************************************************
ARM GAS  C:\Users\SDEVAS~1\AppData\Local\Temp\ccihUgHU.s 			page 4


  57:.\src/valveControl.c **** * Function Name: setValve3ON
  58:.\src/valveControl.c **** ********************************************************************************
  59:.\src/valveControl.c **** *
  60:.\src/valveControl.c **** * Summary:
  61:.\src/valveControl.c **** *  Turns on valve 3 (connector J8 on Water Control Atom.)
  62:.\src/valveControl.c **** *
  63:.\src/valveControl.c **** * Parameters:
  64:.\src/valveControl.c **** *  direction: The direction in which to turn the valve ON.
  65:.\src/valveControl.c **** *  TRUE		1 to set pin 2 high and pin 1 low
  66:.\src/valveControl.c **** *  FALSE	0 to set pin 1 high and pin 2 low
  67:.\src/valveControl.c **** *
  68:.\src/valveControl.c **** * Return:
  69:.\src/valveControl.c **** *  None.
  70:.\src/valveControl.c **** *
  71:.\src/valveControl.c **** *******************************************************************************/
  72:.\src/valveControl.c **** void setValve3ON(bool direction){
 116              		.loc 1 72 0
 117              		.cfi_startproc
 118              	.LVL14:
 119 0000 10B5     		push	{r4, lr}
 120              		.cfi_def_cfa_offset 8
 121              		.cfi_offset 4, -8
 122              		.cfi_offset 14, -4
 123              		.loc 1 72 0
 124 0002 041E     		sub	r4, r0, #0
  73:.\src/valveControl.c ****     if (direction==true){ //Direction 1
 125              		.loc 1 73 0
 126 0004 04D0     		beq	.L11
  74:.\src/valveControl.c ****         ON3_DIR1_Write(0u);
 127              		.loc 1 74 0
 128 0006 0020     		mov	r0, #0
 129              	.LVL15:
 130 0008 FFF7FEFF 		bl	ON3_DIR1_Write
 131              	.LVL16:
  75:.\src/valveControl.c ****         ON4_DIR2_Write(1u);
 132              		.loc 1 75 0
 133 000c 0120     		mov	r0, #1
 134 000e 03E0     		b	.L13
 135              	.LVL17:
 136              	.L11:
  76:.\src/valveControl.c ****     }
  77:.\src/valveControl.c ****     else{
  78:.\src/valveControl.c ****         ON3_DIR1_Write(1u);
 137              		.loc 1 78 0
 138 0010 0120     		mov	r0, #1
 139              	.LVL18:
 140 0012 FFF7FEFF 		bl	ON3_DIR1_Write
 141              	.LVL19:
  79:.\src/valveControl.c ****         ON4_DIR2_Write(0u);
 142              		.loc 1 79 0
 143 0016 201C     		mov	r0, r4
 144              	.L13:
 145 0018 FFF7FEFF 		bl	ON4_DIR2_Write
 146              	.LVL20:
  80:.\src/valveControl.c ****     }
  81:.\src/valveControl.c **** }
 147              		.loc 1 81 0
ARM GAS  C:\Users\SDEVAS~1\AppData\Local\Temp\ccihUgHU.s 			page 5


 148              		@ sp needed
 149 001c 10BD     		pop	{r4, pc}
 150              		.cfi_endproc
 151              	.LFE35:
 152              		.size	setValve3ON, .-setValve3ON
 153              		.section	.text.setValve4ON,"ax",%progbits
 154              		.align	1
 155              		.global	setValve4ON
 156              		.code	16
 157              		.thumb_func
 158              		.type	setValve4ON, %function
 159              	setValve4ON:
 160              	.LFB36:
  82:.\src/valveControl.c **** /*******************************************************************************
  83:.\src/valveControl.c **** * Function Name: setValve4ON
  84:.\src/valveControl.c **** ********************************************************************************
  85:.\src/valveControl.c **** *
  86:.\src/valveControl.c **** * Summary:
  87:.\src/valveControl.c **** *  Turns on valve 4 (connector J10 on Water Control Atom.)
  88:.\src/valveControl.c **** *
  89:.\src/valveControl.c **** * Parameters:
  90:.\src/valveControl.c **** *  direction: The direction in which to turn the valve ON.
  91:.\src/valveControl.c **** *  TRUE		1 to set pin 2 high and pin 1 low
  92:.\src/valveControl.c **** *  FALSE	0 to set pin 1 high and pin 2 low
  93:.\src/valveControl.c **** *
  94:.\src/valveControl.c **** * Return:
  95:.\src/valveControl.c **** *  None.
  96:.\src/valveControl.c **** *
  97:.\src/valveControl.c **** *******************************************************************************/
  98:.\src/valveControl.c **** void setValve4ON(bool direction){
 161              		.loc 1 98 0
 162              		.cfi_startproc
 163              	.LVL21:
 164 0000 10B5     		push	{r4, lr}
 165              		.cfi_def_cfa_offset 8
 166              		.cfi_offset 4, -8
 167              		.cfi_offset 14, -4
 168              		.loc 1 98 0
 169 0002 041E     		sub	r4, r0, #0
  99:.\src/valveControl.c ****     if (direction==true){ //Direction 1
 170              		.loc 1 99 0
 171 0004 04D0     		beq	.L15
 100:.\src/valveControl.c ****         ON3_DIR2_Write(0u);
 172              		.loc 1 100 0
 173 0006 0020     		mov	r0, #0
 174              	.LVL22:
 175 0008 FFF7FEFF 		bl	ON3_DIR2_Write
 176              	.LVL23:
 101:.\src/valveControl.c ****         ON4_DIR1_Write(1u);
 177              		.loc 1 101 0
 178 000c 0120     		mov	r0, #1
 179 000e 03E0     		b	.L17
 180              	.LVL24:
 181              	.L15:
 102:.\src/valveControl.c ****     }
 103:.\src/valveControl.c ****     else{
 104:.\src/valveControl.c ****         ON3_DIR2_Write(1u);
ARM GAS  C:\Users\SDEVAS~1\AppData\Local\Temp\ccihUgHU.s 			page 6


 182              		.loc 1 104 0
 183 0010 0120     		mov	r0, #1
 184              	.LVL25:
 185 0012 FFF7FEFF 		bl	ON3_DIR2_Write
 186              	.LVL26:
 105:.\src/valveControl.c ****         ON4_DIR1_Write(0u);
 187              		.loc 1 105 0
 188 0016 201C     		mov	r0, r4
 189              	.L17:
 190 0018 FFF7FEFF 		bl	ON4_DIR1_Write
 191              	.LVL27:
 106:.\src/valveControl.c ****     }
 107:.\src/valveControl.c **** }
 192              		.loc 1 107 0
 193              		@ sp needed
 194 001c 10BD     		pop	{r4, pc}
 195              		.cfi_endproc
 196              	.LFE36:
 197              		.size	setValve4ON, .-setValve4ON
 198              		.section	.text.setValve1OFF,"ax",%progbits
 199              		.align	1
 200              		.global	setValve1OFF
 201              		.code	16
 202              		.thumb_func
 203              		.type	setValve1OFF, %function
 204              	setValve1OFF:
 205              	.LFB37:
 108:.\src/valveControl.c **** /*******************************************************************************
 109:.\src/valveControl.c **** * Function Name: setValve5ON
 110:.\src/valveControl.c **** ********************************************************************************
 111:.\src/valveControl.c **** *
 112:.\src/valveControl.c **** * Summary:
 113:.\src/valveControl.c **** *  Turns on valve 5 (connector J6 on Water Control Atom.)
 114:.\src/valveControl.c **** *
 115:.\src/valveControl.c **** * Parameters:
 116:.\src/valveControl.c **** *  direction: The direction in which to turn the valve ON.
 117:.\src/valveControl.c **** *  TRUE		1 to set pin 2 high and pin 1 low
 118:.\src/valveControl.c **** *  FALSE	0 to set pin 1 high and pin 2 low
 119:.\src/valveControl.c **** *
 120:.\src/valveControl.c **** * Return:
 121:.\src/valveControl.c **** *  None.
 122:.\src/valveControl.c **** *
 123:.\src/valveControl.c **** *******************************************************************************/
 124:.\src/valveControl.c **** /*void setValve5ON(bool direction){
 125:.\src/valveControl.c ****     if (direction==true){ //Direction 1
 126:.\src/valveControl.c ****         ON5_DIR1_Write(0u);
 127:.\src/valveControl.c ****         ON6_DIR2_Write(1u);
 128:.\src/valveControl.c ****     }
 129:.\src/valveControl.c ****     else{
 130:.\src/valveControl.c ****         ON5_DIR1_Write(1u);
 131:.\src/valveControl.c ****         ON6_DIR2_Write(0u);
 132:.\src/valveControl.c ****     }
 133:.\src/valveControl.c **** }*/
 134:.\src/valveControl.c **** /*******************************************************************************
 135:.\src/valveControl.c **** * Function Name: setValve6ON
 136:.\src/valveControl.c **** ********************************************************************************
 137:.\src/valveControl.c **** *
ARM GAS  C:\Users\SDEVAS~1\AppData\Local\Temp\ccihUgHU.s 			page 7


 138:.\src/valveControl.c **** * Summary:
 139:.\src/valveControl.c **** *  Turns on valve 6 (connector J7 on Water Control Atom.)
 140:.\src/valveControl.c **** *
 141:.\src/valveControl.c **** * Parameters:
 142:.\src/valveControl.c **** *  direction: The direction in which to turn the valve ON.
 143:.\src/valveControl.c **** *  TRUE		1 to set pin 2 high and pin 1 low
 144:.\src/valveControl.c **** *  FALSE	0 to set pin 1 high and pin 2 low
 145:.\src/valveControl.c **** *
 146:.\src/valveControl.c **** * Return:
 147:.\src/valveControl.c **** *  None.
 148:.\src/valveControl.c **** *
 149:.\src/valveControl.c **** *******************************************************************************/
 150:.\src/valveControl.c **** /*void setValve6ON(bool direction){
 151:.\src/valveControl.c ****     if (direction==true){ //Direction 1
 152:.\src/valveControl.c ****          ON5_DIR2_Write(0u);
 153:.\src/valveControl.c ****          ON6_DIR1_Write(1u);
 154:.\src/valveControl.c ****     }
 155:.\src/valveControl.c ****     else{
 156:.\src/valveControl.c ****           ON5_DIR2_Write(1u);
 157:.\src/valveControl.c ****          ON6_DIR1_Write(0u);
 158:.\src/valveControl.c ****     }
 159:.\src/valveControl.c **** }
 160:.\src/valveControl.c **** */
 161:.\src/valveControl.c **** /*******************************************************************************
 162:.\src/valveControl.c **** * Function Name: setValve1OFF
 163:.\src/valveControl.c **** ********************************************************************************
 164:.\src/valveControl.c **** *
 165:.\src/valveControl.c **** * Summary:
 166:.\src/valveControl.c **** *  Turns off valve 1 (connector J9 on Water Control Atom.)
 167:.\src/valveControl.c **** *
 168:.\src/valveControl.c **** * Parameters:
 169:.\src/valveControl.c **** * None
 170:.\src/valveControl.c **** *
 171:.\src/valveControl.c **** * Return:
 172:.\src/valveControl.c **** *  None.
 173:.\src/valveControl.c **** *
 174:.\src/valveControl.c **** *******************************************************************************/
 175:.\src/valveControl.c **** 
 176:.\src/valveControl.c **** void setValve1OFF(void){
 206              		.loc 1 176 0
 207              		.cfi_startproc
 208 0000 08B5     		push	{r3, lr}
 209              		.cfi_def_cfa_offset 8
 210              		.cfi_offset 3, -8
 211              		.cfi_offset 14, -4
 177:.\src/valveControl.c ****     ON1_DIR1_Write(0u);
 212              		.loc 1 177 0
 213 0002 0020     		mov	r0, #0
 214 0004 FFF7FEFF 		bl	ON1_DIR1_Write
 215              	.LVL28:
 178:.\src/valveControl.c ****     ON2_DIR2_Write(0u);
 216              		.loc 1 178 0
 217 0008 0020     		mov	r0, #0
 218 000a FFF7FEFF 		bl	ON2_DIR2_Write
 219              	.LVL29:
 179:.\src/valveControl.c **** }
 220              		.loc 1 179 0
ARM GAS  C:\Users\SDEVAS~1\AppData\Local\Temp\ccihUgHU.s 			page 8


 221              		@ sp needed
 222 000e 08BD     		pop	{r3, pc}
 223              		.cfi_endproc
 224              	.LFE37:
 225              		.size	setValve1OFF, .-setValve1OFF
 226              		.section	.text.setValve2OFF,"ax",%progbits
 227              		.align	1
 228              		.global	setValve2OFF
 229              		.code	16
 230              		.thumb_func
 231              		.type	setValve2OFF, %function
 232              	setValve2OFF:
 233              	.LFB38:
 180:.\src/valveControl.c **** 
 181:.\src/valveControl.c **** /*******************************************************************************
 182:.\src/valveControl.c **** * Function Name: setValve2OFF
 183:.\src/valveControl.c **** ********************************************************************************
 184:.\src/valveControl.c **** *
 185:.\src/valveControl.c **** * Summary:
 186:.\src/valveControl.c **** *  Turns off valve 2 (connector J10 on Water Control Atom.)
 187:.\src/valveControl.c **** *
 188:.\src/valveControl.c **** * Parameters:
 189:.\src/valveControl.c **** * None
 190:.\src/valveControl.c **** *
 191:.\src/valveControl.c **** * Return:
 192:.\src/valveControl.c **** *  None.
 193:.\src/valveControl.c **** *
 194:.\src/valveControl.c **** *******************************************************************************/
 195:.\src/valveControl.c **** void setValve2OFF(void){
 234              		.loc 1 195 0
 235              		.cfi_startproc
 236 0000 08B5     		push	{r3, lr}
 237              		.cfi_def_cfa_offset 8
 238              		.cfi_offset 3, -8
 239              		.cfi_offset 14, -4
 196:.\src/valveControl.c **** 	ON1_DIR2_Write(0u);
 240              		.loc 1 196 0
 241 0002 0020     		mov	r0, #0
 242 0004 FFF7FEFF 		bl	ON1_DIR2_Write
 243              	.LVL30:
 197:.\src/valveControl.c **** 	ON2_DIR1_Write(0u);
 244              		.loc 1 197 0
 245 0008 0020     		mov	r0, #0
 246 000a FFF7FEFF 		bl	ON2_DIR1_Write
 247              	.LVL31:
 198:.\src/valveControl.c **** }
 248              		.loc 1 198 0
 249              		@ sp needed
 250 000e 08BD     		pop	{r3, pc}
 251              		.cfi_endproc
 252              	.LFE38:
 253              		.size	setValve2OFF, .-setValve2OFF
 254              		.section	.text.setValve3OFF,"ax",%progbits
 255              		.align	1
 256              		.global	setValve3OFF
 257              		.code	16
 258              		.thumb_func
ARM GAS  C:\Users\SDEVAS~1\AppData\Local\Temp\ccihUgHU.s 			page 9


 259              		.type	setValve3OFF, %function
 260              	setValve3OFF:
 261              	.LFB39:
 199:.\src/valveControl.c **** 
 200:.\src/valveControl.c **** /*******************************************************************************
 201:.\src/valveControl.c **** * Function Name: setValve3OFF
 202:.\src/valveControl.c **** ********************************************************************************
 203:.\src/valveControl.c **** *
 204:.\src/valveControl.c **** * Summary:
 205:.\src/valveControl.c **** *  Turns off valve 3 (connector J8 on Water Control Atom.)
 206:.\src/valveControl.c **** *
 207:.\src/valveControl.c **** * Parameters:
 208:.\src/valveControl.c **** * None
 209:.\src/valveControl.c **** *
 210:.\src/valveControl.c **** * Return:
 211:.\src/valveControl.c **** *  None.
 212:.\src/valveControl.c **** *
 213:.\src/valveControl.c **** *******************************************************************************/
 214:.\src/valveControl.c **** void setValve3OFF(void){
 262              		.loc 1 214 0
 263              		.cfi_startproc
 264 0000 08B5     		push	{r3, lr}
 265              		.cfi_def_cfa_offset 8
 266              		.cfi_offset 3, -8
 267              		.cfi_offset 14, -4
 215:.\src/valveControl.c ****     ON3_DIR1_Write(0u);
 268              		.loc 1 215 0
 269 0002 0020     		mov	r0, #0
 270 0004 FFF7FEFF 		bl	ON3_DIR1_Write
 271              	.LVL32:
 216:.\src/valveControl.c ****     ON4_DIR2_Write(0u);
 272              		.loc 1 216 0
 273 0008 0020     		mov	r0, #0
 274 000a FFF7FEFF 		bl	ON4_DIR2_Write
 275              	.LVL33:
 217:.\src/valveControl.c **** }
 276              		.loc 1 217 0
 277              		@ sp needed
 278 000e 08BD     		pop	{r3, pc}
 279              		.cfi_endproc
 280              	.LFE39:
 281              		.size	setValve3OFF, .-setValve3OFF
 282              		.section	.text.setValve4OFF,"ax",%progbits
 283              		.align	1
 284              		.global	setValve4OFF
 285              		.code	16
 286              		.thumb_func
 287              		.type	setValve4OFF, %function
 288              	setValve4OFF:
 289              	.LFB40:
 218:.\src/valveControl.c **** /*******************************************************************************
 219:.\src/valveControl.c **** * Function Name: setValve4OFF
 220:.\src/valveControl.c **** ********************************************************************************
 221:.\src/valveControl.c **** *
 222:.\src/valveControl.c **** * Summary:
 223:.\src/valveControl.c **** *  Turns off valve 4 (connector J10 on Water Control Atom.)
 224:.\src/valveControl.c **** *
ARM GAS  C:\Users\SDEVAS~1\AppData\Local\Temp\ccihUgHU.s 			page 10


 225:.\src/valveControl.c **** * Parameters:
 226:.\src/valveControl.c **** * None
 227:.\src/valveControl.c **** *
 228:.\src/valveControl.c **** * Return:
 229:.\src/valveControl.c **** *  None.
 230:.\src/valveControl.c **** *
 231:.\src/valveControl.c **** *******************************************************************************/
 232:.\src/valveControl.c **** void setValve4OFF(void){
 290              		.loc 1 232 0
 291              		.cfi_startproc
 292 0000 08B5     		push	{r3, lr}
 293              		.cfi_def_cfa_offset 8
 294              		.cfi_offset 3, -8
 295              		.cfi_offset 14, -4
 233:.\src/valveControl.c ****     ON3_DIR2_Write(0u);
 296              		.loc 1 233 0
 297 0002 0020     		mov	r0, #0
 298 0004 FFF7FEFF 		bl	ON3_DIR2_Write
 299              	.LVL34:
 234:.\src/valveControl.c ****     ON4_DIR1_Write(0u);
 300              		.loc 1 234 0
 301 0008 0020     		mov	r0, #0
 302 000a FFF7FEFF 		bl	ON4_DIR1_Write
 303              	.LVL35:
 235:.\src/valveControl.c **** }
 304              		.loc 1 235 0
 305              		@ sp needed
 306 000e 08BD     		pop	{r3, pc}
 307              		.cfi_endproc
 308              	.LFE40:
 309              		.size	setValve4OFF, .-setValve4OFF
 310              		.text
 311              	.Letext0:
 312              		.file 2 "Generated_Source\\PSoC4/ON1_DIR1.h"
 313              		.file 3 "Generated_Source\\PSoC4/ON2_DIR2.h"
 314              		.file 4 "Generated_Source\\PSoC4/ON1_DIR2.h"
 315              		.file 5 "Generated_Source\\PSoC4/ON2_DIR1.h"
 316              		.file 6 "Generated_Source\\PSoC4/ON3_DIR1.h"
 317              		.file 7 "Generated_Source\\PSoC4/ON4_DIR2.h"
 318              		.file 8 "Generated_Source\\PSoC4/ON3_DIR2.h"
 319              		.file 9 "Generated_Source\\PSoC4/cytypes.h"
 320              		.file 10 "Generated_Source\\PSoC4/ON4_DIR1.h"