ARM GAS  C:\Users\SDEVAS~1\AppData\Local\Temp\ccjJ67Vt.s 			page 1


   1              		.cpu cortex-m0
   2              		.fpu softvfp
   3              		.eabi_attribute 20, 1
   4              		.eabi_attribute 21, 1
   5              		.eabi_attribute 23, 3
   6              		.eabi_attribute 24, 1
   7              		.eabi_attribute 25, 1
   8              		.eabi_attribute 26, 1
   9              		.eabi_attribute 30, 4
  10              		.eabi_attribute 34, 0
  11              		.eabi_attribute 18, 4
  12              		.code	16
  13              		.file	"waterControl.c"
  14              		.text
  15              	.Ltext0:
  16              		.cfi_sections	.debug_frame
  17              		.section	.text.waterControl_Init,"ax",%progbits
  18              		.align	1
  19              		.global	waterControl_Init
  20              		.code	16
  21              		.thumb_func
  22              		.type	waterControl_Init, %function
  23              	waterControl_Init:
  24              	.LFB33:
  25              		.file 1 ".\\src\\waterControl.c"
   1:.\src/waterControl.c **** #include <stdio.h>
   2:.\src/waterControl.c **** #include "waterControl.h"
   3:.\src/waterControl.c **** #include "hwInterface.h"
   4:.\src/waterControl.c **** 
   5:.\src/waterControl.c **** #define OFF 0
   6:.\src/waterControl.c **** #define ON 1
   7:.\src/waterControl.c **** 
   8:.\src/waterControl.c **** clock currentTime;
   9:.\src/waterControl.c **** clock expTime;
  10:.\src/waterControl.c **** 
  11:.\src/waterControl.c **** 
  12:.\src/waterControl.c **** //int currentVolume;
  13:.\src/waterControl.c **** //int maxVolume;
  14:.\src/waterControl.c **** 
  15:.\src/waterControl.c **** 
  16:.\src/waterControl.c **** //struct source: https://docs.google.com/document/d/1WrIqsW1SgbLmcNN1VXvH0uA1hI1NaXTKU7qD_cBLoLY/ed
  17:.\src/waterControl.c **** struct {
  18:.\src/waterControl.c **** 	int InnerPressure;
  19:.\src/waterControl.c **** 	int OuterPressure;
  20:.\src/waterControl.c **** 	int CurrentFlow;
  21:.\src/waterControl.c **** 	int TotalVolume;
  22:.\src/waterControl.c **** 	int ValveStatus;
  23:.\src/waterControl.c **** 	int LastStartNumber;
  24:.\src/waterControl.c **** 	int LastStartVolume;
  25:.\src/waterControl.c **** 	int LastStartFlow;
  26:.\src/waterControl.c **** 	int StartTime;
  27:.\src/waterControl.c **** 	int StopTime;
  28:.\src/waterControl.c **** 	int NumStarts;
  29:.\src/waterControl.c **** 	int VolPerStart;
  30:.\src/waterControl.c **** 	int MaxVol;
  31:.\src/waterControl.c **** 	int MinVol;
  32:.\src/waterControl.c **** 
ARM GAS  C:\Users\SDEVAS~1\AppData\Local\Temp\ccjJ67Vt.s 			page 2


  33:.\src/waterControl.c **** 	int fertigationTable[10][4];
  34:.\src/waterControl.c **** 
  35:.\src/waterControl.c **** 	int NotBefore;
  36:.\src/waterControl.c **** 	int NotAfter;
  37:.\src/waterControl.c **** 	int DilutionFactorA;
  38:.\src/waterControl.c **** 	int DilutionFactorB;
  39:.\src/waterControl.c **** 	int VenturiSuctionA;
  40:.\src/waterControl.c **** 	int VenturiSuctionB;
  41:.\src/waterControl.c **** 	int SquareMeters;
  42:.\src/waterControl.c **** 	int LperSqMeterPerDay;
  43:.\src/waterControl.c **** 	int CropType;
  44:.\src/waterControl.c **** } water_data;
  45:.\src/waterControl.c **** 
  46:.\src/waterControl.c **** 
  47:.\src/waterControl.c **** void waterControl_Init(){
  26              		.loc 1 47 0
  27              		.cfi_startproc
  28 0000 08B5     		push	{r3, lr}
  29              		.cfi_def_cfa_offset 8
  30              		.cfi_offset 3, -8
  31              		.cfi_offset 14, -4
  48:.\src/waterControl.c ****      hwInterface_Init();
  32              		.loc 1 48 0
  33 0002 FFF7FEFF 		bl	hwInterface_Init
  34              	.LVL0:
  49:.\src/waterControl.c **** }
  35              		.loc 1 49 0
  36              		@ sp needed
  37 0006 08BD     		pop	{r3, pc}
  38              		.cfi_endproc
  39              	.LFE33:
  40              		.size	waterControl_Init, .-waterControl_Init
  41              		.section	.text.setvar_fertigationTable0,"ax",%progbits
  42              		.align	1
  43              		.global	setvar_fertigationTable0
  44              		.code	16
  45              		.thumb_func
  46              		.type	setvar_fertigationTable0, %function
  47              	setvar_fertigationTable0:
  48              	.LFB34:
  50:.\src/waterControl.c **** 
  51:.\src/waterControl.c **** void setvar_fertigationTable0(int * val) {
  49              		.loc 1 51 0
  50              		.cfi_startproc
  51              	.LVL1:
  52 0000 08B5     		push	{r3, lr}
  53              		.cfi_def_cfa_offset 8
  54              		.cfi_offset 3, -8
  55              		.cfi_offset 14, -4
  56              		.loc 1 51 0
  57 0002 011C     		mov	r1, r0
  52:.\src/waterControl.c **** 	memcpy(water_data.fertigationTable[0], val, 4 * sizeof(int));
  58              		.loc 1 52 0
  59 0004 1022     		mov	r2, #16
  60 0006 0248     		ldr	r0, .L3
  61              	.LVL2:
  62 0008 FFF7FEFF 		bl	memcpy
ARM GAS  C:\Users\SDEVAS~1\AppData\Local\Temp\ccjJ67Vt.s 			page 3


  63              	.LVL3:
  53:.\src/waterControl.c **** }
  64              		.loc 1 53 0
  65              		@ sp needed
  66 000c 08BD     		pop	{r3, pc}
  67              	.L4:
  68 000e C046     		.align	2
  69              	.L3:
  70 0010 38000000 		.word	water_data+56
  71              		.cfi_endproc
  72              	.LFE34:
  73              		.size	setvar_fertigationTable0, .-setvar_fertigationTable0
  74              		.section	.text.setvar_fertigationTable1,"ax",%progbits
  75              		.align	1
  76              		.global	setvar_fertigationTable1
  77              		.code	16
  78              		.thumb_func
  79              		.type	setvar_fertigationTable1, %function
  80              	setvar_fertigationTable1:
  81              	.LFB35:
  54:.\src/waterControl.c **** void setvar_fertigationTable1(int * val) {
  82              		.loc 1 54 0
  83              		.cfi_startproc
  84              	.LVL4:
  85 0000 08B5     		push	{r3, lr}
  86              		.cfi_def_cfa_offset 8
  87              		.cfi_offset 3, -8
  88              		.cfi_offset 14, -4
  89              		.loc 1 54 0
  90 0002 011C     		mov	r1, r0
  55:.\src/waterControl.c **** 	memcpy(water_data.fertigationTable[1], val, 4 * sizeof(int));
  91              		.loc 1 55 0
  92 0004 1022     		mov	r2, #16
  93 0006 0248     		ldr	r0, .L6
  94              	.LVL5:
  95 0008 FFF7FEFF 		bl	memcpy
  96              	.LVL6:
  56:.\src/waterControl.c **** }
  97              		.loc 1 56 0
  98              		@ sp needed
  99 000c 08BD     		pop	{r3, pc}
 100              	.L7:
 101 000e C046     		.align	2
 102              	.L6:
 103 0010 48000000 		.word	water_data+72
 104              		.cfi_endproc
 105              	.LFE35:
 106              		.size	setvar_fertigationTable1, .-setvar_fertigationTable1
 107              		.section	.text.setvar_fertigationTable2,"ax",%progbits
 108              		.align	1
 109              		.global	setvar_fertigationTable2
 110              		.code	16
 111              		.thumb_func
 112              		.type	setvar_fertigationTable2, %function
 113              	setvar_fertigationTable2:
 114              	.LFB36:
  57:.\src/waterControl.c **** void setvar_fertigationTable2(int * val) {
ARM GAS  C:\Users\SDEVAS~1\AppData\Local\Temp\ccjJ67Vt.s 			page 4


 115              		.loc 1 57 0
 116              		.cfi_startproc
 117              	.LVL7:
 118 0000 08B5     		push	{r3, lr}
 119              		.cfi_def_cfa_offset 8
 120              		.cfi_offset 3, -8
 121              		.cfi_offset 14, -4
 122              		.loc 1 57 0
 123 0002 011C     		mov	r1, r0
  58:.\src/waterControl.c **** 	memcpy(water_data.fertigationTable[2], val, 4 * sizeof(int));
 124              		.loc 1 58 0
 125 0004 1022     		mov	r2, #16
 126 0006 0248     		ldr	r0, .L9
 127              	.LVL8:
 128 0008 FFF7FEFF 		bl	memcpy
 129              	.LVL9:
  59:.\src/waterControl.c **** }
 130              		.loc 1 59 0
 131              		@ sp needed
 132 000c 08BD     		pop	{r3, pc}
 133              	.L10:
 134 000e C046     		.align	2
 135              	.L9:
 136 0010 58000000 		.word	water_data+88
 137              		.cfi_endproc
 138              	.LFE36:
 139              		.size	setvar_fertigationTable2, .-setvar_fertigationTable2
 140              		.section	.text.setvar_fertigationTable3,"ax",%progbits
 141              		.align	1
 142              		.global	setvar_fertigationTable3
 143              		.code	16
 144              		.thumb_func
 145              		.type	setvar_fertigationTable3, %function
 146              	setvar_fertigationTable3:
 147              	.LFB37:
  60:.\src/waterControl.c **** void setvar_fertigationTable3(int * val) {
 148              		.loc 1 60 0
 149              		.cfi_startproc
 150              	.LVL10:
 151 0000 08B5     		push	{r3, lr}
 152              		.cfi_def_cfa_offset 8
 153              		.cfi_offset 3, -8
 154              		.cfi_offset 14, -4
 155              		.loc 1 60 0
 156 0002 011C     		mov	r1, r0
  61:.\src/waterControl.c **** 	memcpy(water_data.fertigationTable[3], val, 4 * sizeof(int));
 157              		.loc 1 61 0
 158 0004 1022     		mov	r2, #16
 159 0006 0248     		ldr	r0, .L12
 160              	.LVL11:
 161 0008 FFF7FEFF 		bl	memcpy
 162              	.LVL12:
  62:.\src/waterControl.c **** }
 163              		.loc 1 62 0
 164              		@ sp needed
 165 000c 08BD     		pop	{r3, pc}
 166              	.L13:
ARM GAS  C:\Users\SDEVAS~1\AppData\Local\Temp\ccjJ67Vt.s 			page 5


 167 000e C046     		.align	2
 168              	.L12:
 169 0010 68000000 		.word	water_data+104
 170              		.cfi_endproc
 171              	.LFE37:
 172              		.size	setvar_fertigationTable3, .-setvar_fertigationTable3
 173              		.section	.text.setvar_fertigationTable4,"ax",%progbits
 174              		.align	1
 175              		.global	setvar_fertigationTable4
 176              		.code	16
 177              		.thumb_func
 178              		.type	setvar_fertigationTable4, %function
 179              	setvar_fertigationTable4:
 180              	.LFB38:
  63:.\src/waterControl.c **** void setvar_fertigationTable4(int * val) {
 181              		.loc 1 63 0
 182              		.cfi_startproc
 183              	.LVL13:
 184 0000 08B5     		push	{r3, lr}
 185              		.cfi_def_cfa_offset 8
 186              		.cfi_offset 3, -8
 187              		.cfi_offset 14, -4
 188              		.loc 1 63 0
 189 0002 011C     		mov	r1, r0
  64:.\src/waterControl.c **** 	memcpy(water_data.fertigationTable[4], val, 4 * sizeof(int));
 190              		.loc 1 64 0
 191 0004 1022     		mov	r2, #16
 192 0006 0248     		ldr	r0, .L15
 193              	.LVL14:
 194 0008 FFF7FEFF 		bl	memcpy
 195              	.LVL15:
  65:.\src/waterControl.c **** }
 196              		.loc 1 65 0
 197              		@ sp needed
 198 000c 08BD     		pop	{r3, pc}
 199              	.L16:
 200 000e C046     		.align	2
 201              	.L15:
 202 0010 78000000 		.word	water_data+120
 203              		.cfi_endproc
 204              	.LFE38:
 205              		.size	setvar_fertigationTable4, .-setvar_fertigationTable4
 206              		.section	.text.setvar_fertigationTable5,"ax",%progbits
 207              		.align	1
 208              		.global	setvar_fertigationTable5
 209              		.code	16
 210              		.thumb_func
 211              		.type	setvar_fertigationTable5, %function
 212              	setvar_fertigationTable5:
 213              	.LFB39:
  66:.\src/waterControl.c **** void setvar_fertigationTable5(int * val) {
 214              		.loc 1 66 0
 215              		.cfi_startproc
 216              	.LVL16:
 217 0000 08B5     		push	{r3, lr}
 218              		.cfi_def_cfa_offset 8
 219              		.cfi_offset 3, -8
ARM GAS  C:\Users\SDEVAS~1\AppData\Local\Temp\ccjJ67Vt.s 			page 6


 220              		.cfi_offset 14, -4
 221              		.loc 1 66 0
 222 0002 011C     		mov	r1, r0
  67:.\src/waterControl.c **** 	memcpy(water_data.fertigationTable[5], val, 4 * sizeof(int));
 223              		.loc 1 67 0
 224 0004 1022     		mov	r2, #16
 225 0006 0248     		ldr	r0, .L18
 226              	.LVL17:
 227 0008 FFF7FEFF 		bl	memcpy
 228              	.LVL18:
  68:.\src/waterControl.c **** }
 229              		.loc 1 68 0
 230              		@ sp needed
 231 000c 08BD     		pop	{r3, pc}
 232              	.L19:
 233 000e C046     		.align	2
 234              	.L18:
 235 0010 88000000 		.word	water_data+136
 236              		.cfi_endproc
 237              	.LFE39:
 238              		.size	setvar_fertigationTable5, .-setvar_fertigationTable5
 239              		.section	.text.setvar_fertigationTable6,"ax",%progbits
 240              		.align	1
 241              		.global	setvar_fertigationTable6
 242              		.code	16
 243              		.thumb_func
 244              		.type	setvar_fertigationTable6, %function
 245              	setvar_fertigationTable6:
 246              	.LFB40:
  69:.\src/waterControl.c **** void setvar_fertigationTable6(int * val) {
 247              		.loc 1 69 0
 248              		.cfi_startproc
 249              	.LVL19:
 250 0000 08B5     		push	{r3, lr}
 251              		.cfi_def_cfa_offset 8
 252              		.cfi_offset 3, -8
 253              		.cfi_offset 14, -4
 254              		.loc 1 69 0
 255 0002 011C     		mov	r1, r0
  70:.\src/waterControl.c **** 	memcpy(water_data.fertigationTable[6], val, 4 * sizeof(int));
 256              		.loc 1 70 0
 257 0004 1022     		mov	r2, #16
 258 0006 0248     		ldr	r0, .L21
 259              	.LVL20:
 260 0008 FFF7FEFF 		bl	memcpy
 261              	.LVL21:
  71:.\src/waterControl.c **** }
 262              		.loc 1 71 0
 263              		@ sp needed
 264 000c 08BD     		pop	{r3, pc}
 265              	.L22:
 266 000e C046     		.align	2
 267              	.L21:
 268 0010 98000000 		.word	water_data+152
 269              		.cfi_endproc
 270              	.LFE40:
 271              		.size	setvar_fertigationTable6, .-setvar_fertigationTable6
ARM GAS  C:\Users\SDEVAS~1\AppData\Local\Temp\ccjJ67Vt.s 			page 7


 272              		.section	.text.setvar_fertigationTable7,"ax",%progbits
 273              		.align	1
 274              		.global	setvar_fertigationTable7
 275              		.code	16
 276              		.thumb_func
 277              		.type	setvar_fertigationTable7, %function
 278              	setvar_fertigationTable7:
 279              	.LFB41:
  72:.\src/waterControl.c **** void setvar_fertigationTable7(int * val) {
 280              		.loc 1 72 0
 281              		.cfi_startproc
 282              	.LVL22:
 283 0000 08B5     		push	{r3, lr}
 284              		.cfi_def_cfa_offset 8
 285              		.cfi_offset 3, -8
 286              		.cfi_offset 14, -4
 287              		.loc 1 72 0
 288 0002 011C     		mov	r1, r0
  73:.\src/waterControl.c **** 	memcpy(water_data.fertigationTable[7], val, 4 * sizeof(int));
 289              		.loc 1 73 0
 290 0004 1022     		mov	r2, #16
 291 0006 0248     		ldr	r0, .L24
 292              	.LVL23:
 293 0008 FFF7FEFF 		bl	memcpy
 294              	.LVL24:
  74:.\src/waterControl.c **** }
 295              		.loc 1 74 0
 296              		@ sp needed
 297 000c 08BD     		pop	{r3, pc}
 298              	.L25:
 299 000e C046     		.align	2
 300              	.L24:
 301 0010 A8000000 		.word	water_data+168
 302              		.cfi_endproc
 303              	.LFE41:
 304              		.size	setvar_fertigationTable7, .-setvar_fertigationTable7
 305              		.section	.text.setvar_fertigationTable8,"ax",%progbits
 306              		.align	1
 307              		.global	setvar_fertigationTable8
 308              		.code	16
 309              		.thumb_func
 310              		.type	setvar_fertigationTable8, %function
 311              	setvar_fertigationTable8:
 312              	.LFB42:
  75:.\src/waterControl.c **** void setvar_fertigationTable8(int * val) {
 313              		.loc 1 75 0
 314              		.cfi_startproc
 315              	.LVL25:
 316 0000 08B5     		push	{r3, lr}
 317              		.cfi_def_cfa_offset 8
 318              		.cfi_offset 3, -8
 319              		.cfi_offset 14, -4
 320              		.loc 1 75 0
 321 0002 011C     		mov	r1, r0
  76:.\src/waterControl.c **** 	memcpy(water_data.fertigationTable[8], val, 4 * sizeof(int));
 322              		.loc 1 76 0
 323 0004 1022     		mov	r2, #16
ARM GAS  C:\Users\SDEVAS~1\AppData\Local\Temp\ccjJ67Vt.s 			page 8


 324 0006 0248     		ldr	r0, .L27
 325              	.LVL26:
 326 0008 FFF7FEFF 		bl	memcpy
 327              	.LVL27:
  77:.\src/waterControl.c **** }
 328              		.loc 1 77 0
 329              		@ sp needed
 330 000c 08BD     		pop	{r3, pc}
 331              	.L28:
 332 000e C046     		.align	2
 333              	.L27:
 334 0010 B8000000 		.word	water_data+184
 335              		.cfi_endproc
 336              	.LFE42:
 337              		.size	setvar_fertigationTable8, .-setvar_fertigationTable8
 338              		.section	.text.setvar_fertigationTable9,"ax",%progbits
 339              		.align	1
 340              		.global	setvar_fertigationTable9
 341              		.code	16
 342              		.thumb_func
 343              		.type	setvar_fertigationTable9, %function
 344              	setvar_fertigationTable9:
 345              	.LFB43:
  78:.\src/waterControl.c **** void setvar_fertigationTable9(int * val) {
 346              		.loc 1 78 0
 347              		.cfi_startproc
 348              	.LVL28:
 349 0000 08B5     		push	{r3, lr}
 350              		.cfi_def_cfa_offset 8
 351              		.cfi_offset 3, -8
 352              		.cfi_offset 14, -4
 353              		.loc 1 78 0
 354 0002 011C     		mov	r1, r0
  79:.\src/waterControl.c **** 	memcpy(water_data.fertigationTable[9], val, 4 * sizeof(int));
 355              		.loc 1 79 0
 356 0004 1022     		mov	r2, #16
 357 0006 0248     		ldr	r0, .L30
 358              	.LVL29:
 359 0008 FFF7FEFF 		bl	memcpy
 360              	.LVL30:
  80:.\src/waterControl.c **** }
 361              		.loc 1 80 0
 362              		@ sp needed
 363 000c 08BD     		pop	{r3, pc}
 364              	.L31:
 365 000e C046     		.align	2
 366              	.L30:
 367 0010 C8000000 		.word	water_data+200
 368              		.cfi_endproc
 369              	.LFE43:
 370              		.size	setvar_fertigationTable9, .-setvar_fertigationTable9
 371              		.section	.text.getvar_fertigationTable0,"ax",%progbits
 372              		.align	1
 373              		.global	getvar_fertigationTable0
 374              		.code	16
 375              		.thumb_func
 376              		.type	getvar_fertigationTable0, %function
ARM GAS  C:\Users\SDEVAS~1\AppData\Local\Temp\ccjJ67Vt.s 			page 9


 377              	getvar_fertigationTable0:
 378              	.LFB44:
  81:.\src/waterControl.c **** 
  82:.\src/waterControl.c **** int * getvar_fertigationTable0(void) { return water_data.fertigationTable[0]; }
 379              		.loc 1 82 0
 380              		.cfi_startproc
 381              		.loc 1 82 0
 382 0000 0048     		ldr	r0, .L33
 383              		@ sp needed
 384 0002 7047     		bx	lr
 385              	.L34:
 386              		.align	2
 387              	.L33:
 388 0004 38000000 		.word	water_data+56
 389              		.cfi_endproc
 390              	.LFE44:
 391              		.size	getvar_fertigationTable0, .-getvar_fertigationTable0
 392              		.section	.text.getvar_fertigationTable1,"ax",%progbits
 393              		.align	1
 394              		.global	getvar_fertigationTable1
 395              		.code	16
 396              		.thumb_func
 397              		.type	getvar_fertigationTable1, %function
 398              	getvar_fertigationTable1:
 399              	.LFB45:
  83:.\src/waterControl.c **** int * getvar_fertigationTable1(void) { return water_data.fertigationTable[1]; }
 400              		.loc 1 83 0
 401              		.cfi_startproc
 402              		.loc 1 83 0
 403 0000 0048     		ldr	r0, .L36
 404              		@ sp needed
 405 0002 7047     		bx	lr
 406              	.L37:
 407              		.align	2
 408              	.L36:
 409 0004 48000000 		.word	water_data+72
 410              		.cfi_endproc
 411              	.LFE45:
 412              		.size	getvar_fertigationTable1, .-getvar_fertigationTable1
 413              		.section	.text.getvar_fertigationTable2,"ax",%progbits
 414              		.align	1
 415              		.global	getvar_fertigationTable2
 416              		.code	16
 417              		.thumb_func
 418              		.type	getvar_fertigationTable2, %function
 419              	getvar_fertigationTable2:
 420              	.LFB46:
  84:.\src/waterControl.c **** int * getvar_fertigationTable2(void) { return water_data.fertigationTable[2]; }
 421              		.loc 1 84 0
 422              		.cfi_startproc
 423              		.loc 1 84 0
 424 0000 0048     		ldr	r0, .L39
 425              		@ sp needed
 426 0002 7047     		bx	lr
 427              	.L40:
 428              		.align	2
 429              	.L39:
ARM GAS  C:\Users\SDEVAS~1\AppData\Local\Temp\ccjJ67Vt.s 			page 10


 430 0004 58000000 		.word	water_data+88
 431              		.cfi_endproc
 432              	.LFE46:
 433              		.size	getvar_fertigationTable2, .-getvar_fertigationTable2
 434              		.section	.text.getvar_fertigationTable3,"ax",%progbits
 435              		.align	1
 436              		.global	getvar_fertigationTable3
 437              		.code	16
 438              		.thumb_func
 439              		.type	getvar_fertigationTable3, %function
 440              	getvar_fertigationTable3:
 441              	.LFB47:
  85:.\src/waterControl.c **** int * getvar_fertigationTable3(void) { return water_data.fertigationTable[3]; }
 442              		.loc 1 85 0
 443              		.cfi_startproc
 444              		.loc 1 85 0
 445 0000 0048     		ldr	r0, .L42
 446              		@ sp needed
 447 0002 7047     		bx	lr
 448              	.L43:
 449              		.align	2
 450              	.L42:
 451 0004 68000000 		.word	water_data+104
 452              		.cfi_endproc
 453              	.LFE47:
 454              		.size	getvar_fertigationTable3, .-getvar_fertigationTable3
 455              		.section	.text.getvar_fertigationTable4,"ax",%progbits
 456              		.align	1
 457              		.global	getvar_fertigationTable4
 458              		.code	16
 459              		.thumb_func
 460              		.type	getvar_fertigationTable4, %function
 461              	getvar_fertigationTable4:
 462              	.LFB48:
  86:.\src/waterControl.c **** int * getvar_fertigationTable4(void) { return water_data.fertigationTable[4]; }
 463              		.loc 1 86 0
 464              		.cfi_startproc
 465              		.loc 1 86 0
 466 0000 0048     		ldr	r0, .L45
 467              		@ sp needed
 468 0002 7047     		bx	lr
 469              	.L46:
 470              		.align	2
 471              	.L45:
 472 0004 78000000 		.word	water_data+120
 473              		.cfi_endproc
 474              	.LFE48:
 475              		.size	getvar_fertigationTable4, .-getvar_fertigationTable4
 476              		.section	.text.getvar_fertigationTable5,"ax",%progbits
 477              		.align	1
 478              		.global	getvar_fertigationTable5
 479              		.code	16
 480              		.thumb_func
 481              		.type	getvar_fertigationTable5, %function
 482              	getvar_fertigationTable5:
 483              	.LFB49:
  87:.\src/waterControl.c **** int * getvar_fertigationTable5(void) { return water_data.fertigationTable[5]; }
ARM GAS  C:\Users\SDEVAS~1\AppData\Local\Temp\ccjJ67Vt.s 			page 11


 484              		.loc 1 87 0
 485              		.cfi_startproc
 486              		.loc 1 87 0
 487 0000 0048     		ldr	r0, .L48
 488              		@ sp needed
 489 0002 7047     		bx	lr
 490              	.L49:
 491              		.align	2
 492              	.L48:
 493 0004 88000000 		.word	water_data+136
 494              		.cfi_endproc
 495              	.LFE49:
 496              		.size	getvar_fertigationTable5, .-getvar_fertigationTable5
 497              		.section	.text.getvar_fertigationTable6,"ax",%progbits
 498              		.align	1
 499              		.global	getvar_fertigationTable6
 500              		.code	16
 501              		.thumb_func
 502              		.type	getvar_fertigationTable6, %function
 503              	getvar_fertigationTable6:
 504              	.LFB50:
  88:.\src/waterControl.c **** int * getvar_fertigationTable6(void) { return water_data.fertigationTable[6]; }
 505              		.loc 1 88 0
 506              		.cfi_startproc
 507              		.loc 1 88 0
 508 0000 0048     		ldr	r0, .L51
 509              		@ sp needed
 510 0002 7047     		bx	lr
 511              	.L52:
 512              		.align	2
 513              	.L51:
 514 0004 98000000 		.word	water_data+152
 515              		.cfi_endproc
 516              	.LFE50:
 517              		.size	getvar_fertigationTable6, .-getvar_fertigationTable6
 518              		.section	.text.getvar_fertigationTable7,"ax",%progbits
 519              		.align	1
 520              		.global	getvar_fertigationTable7
 521              		.code	16
 522              		.thumb_func
 523              		.type	getvar_fertigationTable7, %function
 524              	getvar_fertigationTable7:
 525              	.LFB51:
  89:.\src/waterControl.c **** int * getvar_fertigationTable7(void) { return water_data.fertigationTable[7]; }
 526              		.loc 1 89 0
 527              		.cfi_startproc
 528              		.loc 1 89 0
 529 0000 0048     		ldr	r0, .L54
 530              		@ sp needed
 531 0002 7047     		bx	lr
 532              	.L55:
 533              		.align	2
 534              	.L54:
 535 0004 A8000000 		.word	water_data+168
 536              		.cfi_endproc
 537              	.LFE51:
 538              		.size	getvar_fertigationTable7, .-getvar_fertigationTable7
ARM GAS  C:\Users\SDEVAS~1\AppData\Local\Temp\ccjJ67Vt.s 			page 12


 539              		.section	.text.getvar_fertigationTable8,"ax",%progbits
 540              		.align	1
 541              		.global	getvar_fertigationTable8
 542              		.code	16
 543              		.thumb_func
 544              		.type	getvar_fertigationTable8, %function
 545              	getvar_fertigationTable8:
 546              	.LFB52:
  90:.\src/waterControl.c **** int * getvar_fertigationTable8(void) { return water_data.fertigationTable[8]; }
 547              		.loc 1 90 0
 548              		.cfi_startproc
 549              		.loc 1 90 0
 550 0000 0048     		ldr	r0, .L57
 551              		@ sp needed
 552 0002 7047     		bx	lr
 553              	.L58:
 554              		.align	2
 555              	.L57:
 556 0004 B8000000 		.word	water_data+184
 557              		.cfi_endproc
 558              	.LFE52:
 559              		.size	getvar_fertigationTable8, .-getvar_fertigationTable8
 560              		.section	.text.getvar_fertigationTable9,"ax",%progbits
 561              		.align	1
 562              		.global	getvar_fertigationTable9
 563              		.code	16
 564              		.thumb_func
 565              		.type	getvar_fertigationTable9, %function
 566              	getvar_fertigationTable9:
 567              	.LFB53:
  91:.\src/waterControl.c **** int * getvar_fertigationTable9(void) { return water_data.fertigationTable[9]; }
 568              		.loc 1 91 0
 569              		.cfi_startproc
 570              		.loc 1 91 0
 571 0000 0048     		ldr	r0, .L60
 572              		@ sp needed
 573 0002 7047     		bx	lr
 574              	.L61:
 575              		.align	2
 576              	.L60:
 577 0004 C8000000 		.word	water_data+200
 578              		.cfi_endproc
 579              	.LFE53:
 580              		.size	getvar_fertigationTable9, .-getvar_fertigationTable9
 581              		.section	.text.conv_ia2str,"ax",%progbits
 582              		.align	1
 583              		.weak	conv_ia2str
 584              		.code	16
 585              		.thumb_func
 586              		.type	conv_ia2str, %function
 587              	conv_ia2str:
 588              	.LFB54:
  92:.\src/waterControl.c **** 
  93:.\src/waterControl.c **** int conv_ia2str(char *str, int len, int * val) {
 589              		.loc 1 93 0
 590              		.cfi_startproc
 591              	.LVL31:
ARM GAS  C:\Users\SDEVAS~1\AppData\Local\Temp\ccjJ67Vt.s 			page 13


 592 0000 F7B5     		push	{r0, r1, r2, r4, r5, r6, r7, lr}
 593              		.cfi_def_cfa_offset 32
 594              		.cfi_offset 0, -32
 595              		.cfi_offset 1, -28
 596              		.cfi_offset 2, -24
 597              		.cfi_offset 4, -20
 598              		.cfi_offset 5, -16
 599              		.cfi_offset 6, -12
 600              		.cfi_offset 7, -8
 601              		.cfi_offset 14, -4
  94:.\src/waterControl.c **** 	//this function is tailored for fertigation table, so int* size if equal 4!
  95:.\src/waterControl.c **** 	int ret = 0;
  96:.\src/waterControl.c **** 	*str = '['; ret++;
 602              		.loc 1 96 0
 603 0002 5B23     		mov	r3, #91
  93:.\src/waterControl.c **** int conv_ia2str(char *str, int len, int * val) {
 604              		.loc 1 93 0
 605 0004 061C     		mov	r6, r0
 606 0006 0D1C     		mov	r5, r1
 607 0008 0192     		str	r2, [sp, #4]
 608              		.loc 1 96 0
 609 000a 0370     		strb	r3, [r0]
 610              	.LVL32:
 611 000c 0027     		mov	r7, #0
 612 000e 0124     		mov	r4, #1
 613              	.LVL33:
 614              	.L65:
  97:.\src/waterControl.c **** 	int i = 0;
  98:.\src/waterControl.c **** 	for(; i < 4; i++) {
  99:.\src/waterControl.c **** 		if(len - ret == 0) return ret;
 615              		.loc 1 99 0
 616 0010 A542     		cmp	r5, r4
 617 0012 16D0     		beq	.L67
 100:.\src/waterControl.c **** 		ret += conv_i2str(str + ret, len - ret, val[i]);
 618              		.loc 1 100 0
 619 0014 019B     		ldr	r3, [sp, #4]
 620 0016 3019     		add	r0, r6, r4
 621 0018 DB59     		ldr	r3, [r3, r7]
 622 001a 291B     		sub	r1, r5, r4
 623 001c 1A1C     		mov	r2, r3
 624 001e 0093     		str	r3, [sp]
 625 0020 FFF7FEFF 		bl	conv_i2str
 626              	.LVL34:
 627 0024 2018     		add	r0, r4, r0
 628              	.LVL35:
 101:.\src/waterControl.c **** 		if(len - ret == 0) return ret;
 629              		.loc 1 101 0
 630 0026 8542     		cmp	r5, r0
 631 0028 0BD0     		beq	.L67
 102:.\src/waterControl.c **** 		*(str + ret++) = ',';
 632              		.loc 1 102 0
 633 002a 2C23     		mov	r3, #44
 634 002c 0437     		add	r7, r7, #4
 635 002e 441C     		add	r4, r0, #1
 636              	.LVL36:
 637 0030 3354     		strb	r3, [r6, r0]
  98:.\src/waterControl.c **** 	for(; i < 4; i++) {
ARM GAS  C:\Users\SDEVAS~1\AppData\Local\Temp\ccjJ67Vt.s 			page 14


 638              		.loc 1 98 0
 639 0032 102F     		cmp	r7, #16
 640 0034 ECD1     		bne	.L65
 103:.\src/waterControl.c **** 	}
 104:.\src/waterControl.c **** 	*(str + ret - 1) = ']'; //change comma to ]
 641              		.loc 1 104 0
 642 0036 3619     		add	r6, r6, r4
 643              	.LVL37:
 644 0038 013E     		sub	r6, r6, #1
 645 003a 5D23     		mov	r3, #93
 646 003c 3370     		strb	r3, [r6]
 102:.\src/waterControl.c **** 		*(str + ret++) = ',';
 647              		.loc 1 102 0
 648 003e 201C     		mov	r0, r4
 105:.\src/waterControl.c **** 	return ret;
 649              		.loc 1 105 0
 650 0040 00E0     		b	.L63
 651              	.LVL38:
 652              	.L67:
 100:.\src/waterControl.c **** 		ret += conv_i2str(str + ret, len - ret, val[i]);
 653              		.loc 1 100 0
 654 0042 281C     		mov	r0, r5
 655              	.LVL39:
 656              	.L63:
 106:.\src/waterControl.c **** }
 657              		.loc 1 106 0
 658              		@ sp needed
 659              	.LVL40:
 660 0044 FEBD     		pop	{r1, r2, r3, r4, r5, r6, r7, pc}
 661              		.cfi_endproc
 662              	.LFE54:
 663              		.size	conv_ia2str, .-conv_ia2str
 664              		.section	.text.conv_str2ia,"ax",%progbits
 665              		.align	1
 666              		.weak	conv_str2ia
 667              		.code	16
 668              		.thumb_func
 669              		.type	conv_str2ia, %function
 670              	conv_str2ia:
 671              	.LFB55:
 107:.\src/waterControl.c **** static int fttmparr[4];
 108:.\src/waterControl.c **** int * conv_str2ia(const char *str, int len) {
 672              		.loc 1 108 0
 673              		.cfi_startproc
 674              	.LVL41:
 675 0000 F8B5     		push	{r3, r4, r5, r6, r7, lr}
 676              		.cfi_def_cfa_offset 24
 677              		.cfi_offset 3, -24
 678              		.cfi_offset 4, -20
 679              		.cfi_offset 5, -16
 680              		.cfi_offset 6, -12
 681              		.cfi_offset 7, -8
 682              		.cfi_offset 14, -4
 109:.\src/waterControl.c **** 	//this function is tailored for fertigation table, so int* size if equal 4!
 110:.\src/waterControl.c **** 	str++; len -= 2; //skip first and last char (its [ and ]); now we have ints separated by commas
 683              		.loc 1 110 0
 684 0002 451C     		add	r5, r0, #1
ARM GAS  C:\Users\SDEVAS~1\AppData\Local\Temp\ccjJ67Vt.s 			page 15


 685              	.LVL42:
 686 0004 8E1E     		sub	r6, r1, #2
 687              	.LVL43:
 688 0006 0024     		mov	r4, #0
 689              	.LVL44:
 690              	.L70:
 108:.\src/waterControl.c **** int * conv_str2ia(const char *str, int len) {
 691              		.loc 1 108 0 discriminator 1
 692 0008 0021     		mov	r1, #0
 693              	.L76:
 694              	.LVL45:
 695              	.LBB2:
 111:.\src/waterControl.c **** 	int i = 0;
 112:.\src/waterControl.c **** 	for(; i < 4; i++) {
 113:.\src/waterControl.c **** 		int lentocomma = 0;
 114:.\src/waterControl.c **** 		while(str[lentocomma] != ',' && lentocomma != len) {
 696              		.loc 1 114 0 discriminator 1
 697 000a 6B5C     		ldrb	r3, [r5, r1]
 698 000c 4F1C     		add	r7, r1, #1
 699 000e 2C2B     		cmp	r3, #44
 700 0010 0BD1     		bne	.L71
 701              	.L75:
 115:.\src/waterControl.c **** 			lentocomma++;
 116:.\src/waterControl.c **** 		}
 117:.\src/waterControl.c **** 		fttmparr[i] = conv_str2i(str, lentocomma);
 702              		.loc 1 117 0
 703 0012 281C     		mov	r0, r5
 704 0014 FFF7FEFF 		bl	conv_str2i
 705              	.LVL46:
 706 0018 064B     		ldr	r3, .L78
 118:.\src/waterControl.c **** 		lentocomma++;
 119:.\src/waterControl.c **** 		str += lentocomma;
 707              		.loc 1 119 0
 708 001a ED19     		add	r5, r5, r7
 709              	.LVL47:
 117:.\src/waterControl.c **** 		fttmparr[i] = conv_str2i(str, lentocomma);
 710              		.loc 1 117 0
 711 001c E050     		str	r0, [r4, r3]
 712              	.LVL48:
 713 001e 0434     		add	r4, r4, #4
 120:.\src/waterControl.c **** 		len -= lentocomma;
 714              		.loc 1 120 0
 715 0020 F61B     		sub	r6, r6, r7
 716              	.LVL49:
 717              	.LBE2:
 112:.\src/waterControl.c **** 	for(; i < 4; i++) {
 718              		.loc 1 112 0
 719 0022 102C     		cmp	r4, #16
 720 0024 F0D1     		bne	.L70
 121:.\src/waterControl.c **** 	}
 122:.\src/waterControl.c **** 	return fttmparr;
 123:.\src/waterControl.c **** }
 721              		.loc 1 123 0
 722 0026 181C     		mov	r0, r3
 723              		@ sp needed
 724              	.LVL50:
 725              	.LVL51:
ARM GAS  C:\Users\SDEVAS~1\AppData\Local\Temp\ccjJ67Vt.s 			page 16


 726              	.LVL52:
 727 0028 F8BD     		pop	{r3, r4, r5, r6, r7, pc}
 728              	.LVL53:
 729              	.L71:
 730              	.LBB3:
 114:.\src/waterControl.c **** 		while(str[lentocomma] != ',' && lentocomma != len) {
 731              		.loc 1 114 0 discriminator 2
 732 002a B142     		cmp	r1, r6
 733 002c F1D0     		beq	.L75
 115:.\src/waterControl.c **** 			lentocomma++;
 734              		.loc 1 115 0
 735 002e 391C     		mov	r1, r7
 736              	.LVL54:
 737 0030 EBE7     		b	.L76
 738              	.L79:
 739 0032 C046     		.align	2
 740              	.L78:
 741 0034 00000000 		.word	.LANCHOR0
 742              	.LBE3:
 743              		.cfi_endproc
 744              	.LFE55:
 745              		.size	conv_str2ia, .-conv_str2ia
 746              		.section	.text.setvar_notBefore,"ax",%progbits
 747              		.align	1
 748              		.global	setvar_notBefore
 749              		.code	16
 750              		.thumb_func
 751              		.type	setvar_notBefore, %function
 752              	setvar_notBefore:
 753              	.LFB56:
 124:.\src/waterControl.c **** 
 125:.\src/waterControl.c **** void setvar_notBefore(int val) {
 754              		.loc 1 125 0
 755              		.cfi_startproc
 756              	.LVL55:
 126:.\src/waterControl.c **** 	water_data.NotBefore = val;
 757              		.loc 1 126 0
 758 0000 014B     		ldr	r3, .L81
 127:.\src/waterControl.c **** }
 759              		.loc 1 127 0
 760              		@ sp needed
 126:.\src/waterControl.c **** 	water_data.NotBefore = val;
 761              		.loc 1 126 0
 762 0002 D833     		add	r3, r3, #216
 763 0004 1860     		str	r0, [r3]
 764              		.loc 1 127 0
 765 0006 7047     		bx	lr
 766              	.L82:
 767              		.align	2
 768              	.L81:
 769 0008 00000000 		.word	water_data
 770              		.cfi_endproc
 771              	.LFE56:
 772              		.size	setvar_notBefore, .-setvar_notBefore
 773              		.section	.text.setvar_notAfter,"ax",%progbits
 774              		.align	1
 775              		.global	setvar_notAfter
ARM GAS  C:\Users\SDEVAS~1\AppData\Local\Temp\ccjJ67Vt.s 			page 17


 776              		.code	16
 777              		.thumb_func
 778              		.type	setvar_notAfter, %function
 779              	setvar_notAfter:
 780              	.LFB57:
 128:.\src/waterControl.c **** void setvar_notAfter(int val) {
 781              		.loc 1 128 0
 782              		.cfi_startproc
 783              	.LVL56:
 129:.\src/waterControl.c **** 	water_data.NotAfter = val;
 784              		.loc 1 129 0
 785 0000 014B     		ldr	r3, .L84
 130:.\src/waterControl.c **** }
 786              		.loc 1 130 0
 787              		@ sp needed
 129:.\src/waterControl.c **** 	water_data.NotAfter = val;
 788              		.loc 1 129 0
 789 0002 DC33     		add	r3, r3, #220
 790 0004 1860     		str	r0, [r3]
 791              		.loc 1 130 0
 792 0006 7047     		bx	lr
 793              	.L85:
 794              		.align	2
 795              	.L84:
 796 0008 00000000 		.word	water_data
 797              		.cfi_endproc
 798              	.LFE57:
 799              		.size	setvar_notAfter, .-setvar_notAfter
 800              		.section	.text.setvar_dilutionFactorA,"ax",%progbits
 801              		.align	1
 802              		.global	setvar_dilutionFactorA
 803              		.code	16
 804              		.thumb_func
 805              		.type	setvar_dilutionFactorA, %function
 806              	setvar_dilutionFactorA:
 807              	.LFB58:
 131:.\src/waterControl.c **** void setvar_dilutionFactorA(int val) {
 808              		.loc 1 131 0
 809              		.cfi_startproc
 810              	.LVL57:
 132:.\src/waterControl.c **** 	water_data.DilutionFactorA = val;
 811              		.loc 1 132 0
 812 0000 014B     		ldr	r3, .L87
 133:.\src/waterControl.c **** }
 813              		.loc 1 133 0
 814              		@ sp needed
 132:.\src/waterControl.c **** 	water_data.DilutionFactorA = val;
 815              		.loc 1 132 0
 816 0002 E033     		add	r3, r3, #224
 817 0004 1860     		str	r0, [r3]
 818              		.loc 1 133 0
 819 0006 7047     		bx	lr
 820              	.L88:
 821              		.align	2
 822              	.L87:
 823 0008 00000000 		.word	water_data
 824              		.cfi_endproc
ARM GAS  C:\Users\SDEVAS~1\AppData\Local\Temp\ccjJ67Vt.s 			page 18


 825              	.LFE58:
 826              		.size	setvar_dilutionFactorA, .-setvar_dilutionFactorA
 827              		.section	.text.setvar_dilutionFactorB,"ax",%progbits
 828              		.align	1
 829              		.global	setvar_dilutionFactorB
 830              		.code	16
 831              		.thumb_func
 832              		.type	setvar_dilutionFactorB, %function
 833              	setvar_dilutionFactorB:
 834              	.LFB59:
 134:.\src/waterControl.c **** void setvar_dilutionFactorB(int val) {
 835              		.loc 1 134 0
 836              		.cfi_startproc
 837              	.LVL58:
 135:.\src/waterControl.c **** 	water_data.DilutionFactorB = val;
 838              		.loc 1 135 0
 839 0000 014B     		ldr	r3, .L90
 136:.\src/waterControl.c **** }
 840              		.loc 1 136 0
 841              		@ sp needed
 135:.\src/waterControl.c **** 	water_data.DilutionFactorB = val;
 842              		.loc 1 135 0
 843 0002 E433     		add	r3, r3, #228
 844 0004 1860     		str	r0, [r3]
 845              		.loc 1 136 0
 846 0006 7047     		bx	lr
 847              	.L91:
 848              		.align	2
 849              	.L90:
 850 0008 00000000 		.word	water_data
 851              		.cfi_endproc
 852              	.LFE59:
 853              		.size	setvar_dilutionFactorB, .-setvar_dilutionFactorB
 854              		.section	.text.setvar_venturiSuctionA,"ax",%progbits
 855              		.align	1
 856              		.global	setvar_venturiSuctionA
 857              		.code	16
 858              		.thumb_func
 859              		.type	setvar_venturiSuctionA, %function
 860              	setvar_venturiSuctionA:
 861              	.LFB60:
 137:.\src/waterControl.c **** void setvar_venturiSuctionA(int val) {
 862              		.loc 1 137 0
 863              		.cfi_startproc
 864              	.LVL59:
 138:.\src/waterControl.c **** 	water_data.VenturiSuctionA = val;
 865              		.loc 1 138 0
 866 0000 014B     		ldr	r3, .L93
 139:.\src/waterControl.c **** }
 867              		.loc 1 139 0
 868              		@ sp needed
 138:.\src/waterControl.c **** 	water_data.VenturiSuctionA = val;
 869              		.loc 1 138 0
 870 0002 E833     		add	r3, r3, #232
 871 0004 1860     		str	r0, [r3]
 872              		.loc 1 139 0
 873 0006 7047     		bx	lr
ARM GAS  C:\Users\SDEVAS~1\AppData\Local\Temp\ccjJ67Vt.s 			page 19


 874              	.L94:
 875              		.align	2
 876              	.L93:
 877 0008 00000000 		.word	water_data
 878              		.cfi_endproc
 879              	.LFE60:
 880              		.size	setvar_venturiSuctionA, .-setvar_venturiSuctionA
 881              		.section	.text.setvar_venturiSuctionB,"ax",%progbits
 882              		.align	1
 883              		.global	setvar_venturiSuctionB
 884              		.code	16
 885              		.thumb_func
 886              		.type	setvar_venturiSuctionB, %function
 887              	setvar_venturiSuctionB:
 888              	.LFB61:
 140:.\src/waterControl.c **** void setvar_venturiSuctionB(int val) {
 889              		.loc 1 140 0
 890              		.cfi_startproc
 891              	.LVL60:
 141:.\src/waterControl.c **** 	water_data.VenturiSuctionB = val;
 892              		.loc 1 141 0
 893 0000 014B     		ldr	r3, .L96
 142:.\src/waterControl.c **** }
 894              		.loc 1 142 0
 895              		@ sp needed
 141:.\src/waterControl.c **** 	water_data.VenturiSuctionB = val;
 896              		.loc 1 141 0
 897 0002 EC33     		add	r3, r3, #236
 898 0004 1860     		str	r0, [r3]
 899              		.loc 1 142 0
 900 0006 7047     		bx	lr
 901              	.L97:
 902              		.align	2
 903              	.L96:
 904 0008 00000000 		.word	water_data
 905              		.cfi_endproc
 906              	.LFE61:
 907              		.size	setvar_venturiSuctionB, .-setvar_venturiSuctionB
 908              		.section	.text.setvar_squareMeters,"ax",%progbits
 909              		.align	1
 910              		.global	setvar_squareMeters
 911              		.code	16
 912              		.thumb_func
 913              		.type	setvar_squareMeters, %function
 914              	setvar_squareMeters:
 915              	.LFB62:
 143:.\src/waterControl.c **** void setvar_squareMeters(int val) {
 916              		.loc 1 143 0
 917              		.cfi_startproc
 918              	.LVL61:
 144:.\src/waterControl.c **** 	water_data.SquareMeters = val;
 919              		.loc 1 144 0
 920 0000 014B     		ldr	r3, .L99
 145:.\src/waterControl.c **** }
 921              		.loc 1 145 0
 922              		@ sp needed
 144:.\src/waterControl.c **** 	water_data.SquareMeters = val;
ARM GAS  C:\Users\SDEVAS~1\AppData\Local\Temp\ccjJ67Vt.s 			page 20


 923              		.loc 1 144 0
 924 0002 F033     		add	r3, r3, #240
 925 0004 1860     		str	r0, [r3]
 926              		.loc 1 145 0
 927 0006 7047     		bx	lr
 928              	.L100:
 929              		.align	2
 930              	.L99:
 931 0008 00000000 		.word	water_data
 932              		.cfi_endproc
 933              	.LFE62:
 934              		.size	setvar_squareMeters, .-setvar_squareMeters
 935              		.section	.text.setvar_lPerSqMeterPerDay,"ax",%progbits
 936              		.align	1
 937              		.global	setvar_lPerSqMeterPerDay
 938              		.code	16
 939              		.thumb_func
 940              		.type	setvar_lPerSqMeterPerDay, %function
 941              	setvar_lPerSqMeterPerDay:
 942              	.LFB63:
 146:.\src/waterControl.c **** void setvar_lPerSqMeterPerDay(int val) {
 943              		.loc 1 146 0
 944              		.cfi_startproc
 945              	.LVL62:
 147:.\src/waterControl.c **** 	water_data.LperSqMeterPerDay = val;
 946              		.loc 1 147 0
 947 0000 014B     		ldr	r3, .L102
 148:.\src/waterControl.c **** }
 948              		.loc 1 148 0
 949              		@ sp needed
 147:.\src/waterControl.c **** 	water_data.LperSqMeterPerDay = val;
 950              		.loc 1 147 0
 951 0002 F433     		add	r3, r3, #244
 952 0004 1860     		str	r0, [r3]
 953              		.loc 1 148 0
 954 0006 7047     		bx	lr
 955              	.L103:
 956              		.align	2
 957              	.L102:
 958 0008 00000000 		.word	water_data
 959              		.cfi_endproc
 960              	.LFE63:
 961              		.size	setvar_lPerSqMeterPerDay, .-setvar_lPerSqMeterPerDay
 962              		.section	.text.setvar_cropType,"ax",%progbits
 963              		.align	1
 964              		.global	setvar_cropType
 965              		.code	16
 966              		.thumb_func
 967              		.type	setvar_cropType, %function
 968              	setvar_cropType:
 969              	.LFB64:
 149:.\src/waterControl.c **** void setvar_cropType(int val) { /*read only*/ }
 970              		.loc 1 149 0
 971              		.cfi_startproc
 972              	.LVL63:
 973              		.loc 1 149 0
 974              		@ sp needed
ARM GAS  C:\Users\SDEVAS~1\AppData\Local\Temp\ccjJ67Vt.s 			page 21


 975 0000 7047     		bx	lr
 976              		.cfi_endproc
 977              	.LFE64:
 978              		.size	setvar_cropType, .-setvar_cropType
 979              		.section	.text.setvar_innerPressure,"ax",%progbits
 980              		.align	1
 981              		.global	setvar_innerPressure
 982              		.code	16
 983              		.thumb_func
 984              		.type	setvar_innerPressure, %function
 985              	setvar_innerPressure:
 986              	.LFB65:
 150:.\src/waterControl.c **** 
 151:.\src/waterControl.c **** void setvar_innerPressure(int val) { /*read only*/ }
 987              		.loc 1 151 0
 988              		.cfi_startproc
 989              	.LVL64:
 990              		.loc 1 151 0
 991              		@ sp needed
 992 0000 7047     		bx	lr
 993              		.cfi_endproc
 994              	.LFE65:
 995              		.size	setvar_innerPressure, .-setvar_innerPressure
 996              		.section	.text.setvar_outerPressure,"ax",%progbits
 997              		.align	1
 998              		.global	setvar_outerPressure
 999              		.code	16
 1000              		.thumb_func
 1001              		.type	setvar_outerPressure, %function
 1002              	setvar_outerPressure:
 1003              	.LFB66:
 152:.\src/waterControl.c **** void setvar_outerPressure(int val) { /*read only*/ }
 1004              		.loc 1 152 0
 1005              		.cfi_startproc
 1006              	.LVL65:
 1007              		.loc 1 152 0
 1008              		@ sp needed
 1009 0000 7047     		bx	lr
 1010              		.cfi_endproc
 1011              	.LFE66:
 1012              		.size	setvar_outerPressure, .-setvar_outerPressure
 1013              		.section	.text.setvar_currentFlow,"ax",%progbits
 1014              		.align	1
 1015              		.global	setvar_currentFlow
 1016              		.code	16
 1017              		.thumb_func
 1018              		.type	setvar_currentFlow, %function
 1019              	setvar_currentFlow:
 1020              	.LFB67:
 153:.\src/waterControl.c **** void setvar_currentFlow(int val) { /*read only*/ }
 1021              		.loc 1 153 0
 1022              		.cfi_startproc
 1023              	.LVL66:
 1024              		.loc 1 153 0
 1025              		@ sp needed
 1026 0000 7047     		bx	lr
 1027              		.cfi_endproc
ARM GAS  C:\Users\SDEVAS~1\AppData\Local\Temp\ccjJ67Vt.s 			page 22


 1028              	.LFE67:
 1029              		.size	setvar_currentFlow, .-setvar_currentFlow
 1030              		.section	.text.setvar_totalVolume,"ax",%progbits
 1031              		.align	1
 1032              		.global	setvar_totalVolume
 1033              		.code	16
 1034              		.thumb_func
 1035              		.type	setvar_totalVolume, %function
 1036              	setvar_totalVolume:
 1037              	.LFB68:
 154:.\src/waterControl.c **** void setvar_totalVolume(int val) { /*read only*/ }
 1038              		.loc 1 154 0
 1039              		.cfi_startproc
 1040              	.LVL67:
 1041              		.loc 1 154 0
 1042              		@ sp needed
 1043 0000 7047     		bx	lr
 1044              		.cfi_endproc
 1045              	.LFE68:
 1046              		.size	setvar_totalVolume, .-setvar_totalVolume
 1047              		.section	.text.setvar_valveStatus,"ax",%progbits
 1048              		.align	1
 1049              		.global	setvar_valveStatus
 1050              		.code	16
 1051              		.thumb_func
 1052              		.type	setvar_valveStatus, %function
 1053              	setvar_valveStatus:
 1054              	.LFB69:
 155:.\src/waterControl.c **** void setvar_valveStatus(int val) { /*read only*/ }
 1055              		.loc 1 155 0
 1056              		.cfi_startproc
 1057              	.LVL68:
 1058              		.loc 1 155 0
 1059              		@ sp needed
 1060 0000 7047     		bx	lr
 1061              		.cfi_endproc
 1062              	.LFE69:
 1063              		.size	setvar_valveStatus, .-setvar_valveStatus
 1064              		.section	.text.setvar_lastStartNumber,"ax",%progbits
 1065              		.align	1
 1066              		.global	setvar_lastStartNumber
 1067              		.code	16
 1068              		.thumb_func
 1069              		.type	setvar_lastStartNumber, %function
 1070              	setvar_lastStartNumber:
 1071              	.LFB70:
 156:.\src/waterControl.c **** void setvar_lastStartNumber(int val) { /*read only*/ }
 1072              		.loc 1 156 0
 1073              		.cfi_startproc
 1074              	.LVL69:
 1075              		.loc 1 156 0
 1076              		@ sp needed
 1077 0000 7047     		bx	lr
 1078              		.cfi_endproc
 1079              	.LFE70:
 1080              		.size	setvar_lastStartNumber, .-setvar_lastStartNumber
 1081              		.section	.text.setvar_lastStartVolume,"ax",%progbits
ARM GAS  C:\Users\SDEVAS~1\AppData\Local\Temp\ccjJ67Vt.s 			page 23


 1082              		.align	1
 1083              		.global	setvar_lastStartVolume
 1084              		.code	16
 1085              		.thumb_func
 1086              		.type	setvar_lastStartVolume, %function
 1087              	setvar_lastStartVolume:
 1088              	.LFB71:
 157:.\src/waterControl.c **** void setvar_lastStartVolume(int val) { /*read only*/ }
 1089              		.loc 1 157 0
 1090              		.cfi_startproc
 1091              	.LVL70:
 1092              		.loc 1 157 0
 1093              		@ sp needed
 1094 0000 7047     		bx	lr
 1095              		.cfi_endproc
 1096              	.LFE71:
 1097              		.size	setvar_lastStartVolume, .-setvar_lastStartVolume
 1098              		.section	.text.setvar_lastStartFlow,"ax",%progbits
 1099              		.align	1
 1100              		.global	setvar_lastStartFlow
 1101              		.code	16
 1102              		.thumb_func
 1103              		.type	setvar_lastStartFlow, %function
 1104              	setvar_lastStartFlow:
 1105              	.LFB72:
 158:.\src/waterControl.c **** void setvar_lastStartFlow(int val) { /*read only*/ }
 1106              		.loc 1 158 0
 1107              		.cfi_startproc
 1108              	.LVL71:
 1109              		.loc 1 158 0
 1110              		@ sp needed
 1111 0000 7047     		bx	lr
 1112              		.cfi_endproc
 1113              	.LFE72:
 1114              		.size	setvar_lastStartFlow, .-setvar_lastStartFlow
 1115              		.section	.text.setvar_startTime,"ax",%progbits
 1116              		.align	1
 1117              		.global	setvar_startTime
 1118              		.code	16
 1119              		.thumb_func
 1120              		.type	setvar_startTime, %function
 1121              	setvar_startTime:
 1122              	.LFB73:
 159:.\src/waterControl.c **** void setvar_startTime(int val) {
 1123              		.loc 1 159 0
 1124              		.cfi_startproc
 1125              	.LVL72:
 160:.\src/waterControl.c **** 	water_data.StartTime = val;
 1126              		.loc 1 160 0
 1127 0000 014B     		ldr	r3, .L114
 161:.\src/waterControl.c **** }
 1128              		.loc 1 161 0
 1129              		@ sp needed
 160:.\src/waterControl.c **** 	water_data.StartTime = val;
 1130              		.loc 1 160 0
 1131 0002 1862     		str	r0, [r3, #32]
 1132              		.loc 1 161 0
ARM GAS  C:\Users\SDEVAS~1\AppData\Local\Temp\ccjJ67Vt.s 			page 24


 1133 0004 7047     		bx	lr
 1134              	.L115:
 1135 0006 C046     		.align	2
 1136              	.L114:
 1137 0008 00000000 		.word	water_data
 1138              		.cfi_endproc
 1139              	.LFE73:
 1140              		.size	setvar_startTime, .-setvar_startTime
 1141              		.section	.text.setvar_stopTime,"ax",%progbits
 1142              		.align	1
 1143              		.global	setvar_stopTime
 1144              		.code	16
 1145              		.thumb_func
 1146              		.type	setvar_stopTime, %function
 1147              	setvar_stopTime:
 1148              	.LFB74:
 162:.\src/waterControl.c **** void setvar_stopTime(int val) {
 1149              		.loc 1 162 0
 1150              		.cfi_startproc
 1151              	.LVL73:
 163:.\src/waterControl.c **** 	water_data.StopTime = val;
 1152              		.loc 1 163 0
 1153 0000 014B     		ldr	r3, .L117
 164:.\src/waterControl.c **** }
 1154              		.loc 1 164 0
 1155              		@ sp needed
 163:.\src/waterControl.c **** 	water_data.StopTime = val;
 1156              		.loc 1 163 0
 1157 0002 5862     		str	r0, [r3, #36]
 1158              		.loc 1 164 0
 1159 0004 7047     		bx	lr
 1160              	.L118:
 1161 0006 C046     		.align	2
 1162              	.L117:
 1163 0008 00000000 		.word	water_data
 1164              		.cfi_endproc
 1165              	.LFE74:
 1166              		.size	setvar_stopTime, .-setvar_stopTime
 1167              		.section	.text.setvar_numStarts,"ax",%progbits
 1168              		.align	1
 1169              		.global	setvar_numStarts
 1170              		.code	16
 1171              		.thumb_func
 1172              		.type	setvar_numStarts, %function
 1173              	setvar_numStarts:
 1174              	.LFB75:
 165:.\src/waterControl.c **** void setvar_numStarts(int val) {
 1175              		.loc 1 165 0
 1176              		.cfi_startproc
 1177              	.LVL74:
 166:.\src/waterControl.c **** 	water_data.NumStarts = val;
 1178              		.loc 1 166 0
 1179 0000 014B     		ldr	r3, .L120
 167:.\src/waterControl.c **** }
 1180              		.loc 1 167 0
 1181              		@ sp needed
 166:.\src/waterControl.c **** 	water_data.NumStarts = val;
ARM GAS  C:\Users\SDEVAS~1\AppData\Local\Temp\ccjJ67Vt.s 			page 25


 1182              		.loc 1 166 0
 1183 0002 9862     		str	r0, [r3, #40]
 1184              		.loc 1 167 0
 1185 0004 7047     		bx	lr
 1186              	.L121:
 1187 0006 C046     		.align	2
 1188              	.L120:
 1189 0008 00000000 		.word	water_data
 1190              		.cfi_endproc
 1191              	.LFE75:
 1192              		.size	setvar_numStarts, .-setvar_numStarts
 1193              		.section	.text.setvar_volPerStart,"ax",%progbits
 1194              		.align	1
 1195              		.global	setvar_volPerStart
 1196              		.code	16
 1197              		.thumb_func
 1198              		.type	setvar_volPerStart, %function
 1199              	setvar_volPerStart:
 1200              	.LFB76:
 168:.\src/waterControl.c **** void setvar_volPerStart(int val) {
 1201              		.loc 1 168 0
 1202              		.cfi_startproc
 1203              	.LVL75:
 169:.\src/waterControl.c **** 	water_data.VolPerStart = val;
 1204              		.loc 1 169 0
 1205 0000 014B     		ldr	r3, .L123
 170:.\src/waterControl.c **** }
 1206              		.loc 1 170 0
 1207              		@ sp needed
 169:.\src/waterControl.c **** 	water_data.VolPerStart = val;
 1208              		.loc 1 169 0
 1209 0002 D862     		str	r0, [r3, #44]
 1210              		.loc 1 170 0
 1211 0004 7047     		bx	lr
 1212              	.L124:
 1213 0006 C046     		.align	2
 1214              	.L123:
 1215 0008 00000000 		.word	water_data
 1216              		.cfi_endproc
 1217              	.LFE76:
 1218              		.size	setvar_volPerStart, .-setvar_volPerStart
 1219              		.section	.text.setvar_maxVol,"ax",%progbits
 1220              		.align	1
 1221              		.global	setvar_maxVol
 1222              		.code	16
 1223              		.thumb_func
 1224              		.type	setvar_maxVol, %function
 1225              	setvar_maxVol:
 1226              	.LFB77:
 171:.\src/waterControl.c **** void setvar_maxVol(int val) {
 1227              		.loc 1 171 0
 1228              		.cfi_startproc
 1229              	.LVL76:
 172:.\src/waterControl.c **** 	water_data.MaxVol = val;
 1230              		.loc 1 172 0
 1231 0000 014B     		ldr	r3, .L126
 173:.\src/waterControl.c **** }
ARM GAS  C:\Users\SDEVAS~1\AppData\Local\Temp\ccjJ67Vt.s 			page 26


 1232              		.loc 1 173 0
 1233              		@ sp needed
 172:.\src/waterControl.c **** 	water_data.MaxVol = val;
 1234              		.loc 1 172 0
 1235 0002 1863     		str	r0, [r3, #48]
 1236              		.loc 1 173 0
 1237 0004 7047     		bx	lr
 1238              	.L127:
 1239 0006 C046     		.align	2
 1240              	.L126:
 1241 0008 00000000 		.word	water_data
 1242              		.cfi_endproc
 1243              	.LFE77:
 1244              		.size	setvar_maxVol, .-setvar_maxVol
 1245              		.section	.text.setvar_minVol,"ax",%progbits
 1246              		.align	1
 1247              		.global	setvar_minVol
 1248              		.code	16
 1249              		.thumb_func
 1250              		.type	setvar_minVol, %function
 1251              	setvar_minVol:
 1252              	.LFB78:
 174:.\src/waterControl.c **** void setvar_minVol(int val) {
 1253              		.loc 1 174 0
 1254              		.cfi_startproc
 1255              	.LVL77:
 175:.\src/waterControl.c **** 	water_data.MinVol = val;
 1256              		.loc 1 175 0
 1257 0000 014B     		ldr	r3, .L129
 176:.\src/waterControl.c **** }
 1258              		.loc 1 176 0
 1259              		@ sp needed
 175:.\src/waterControl.c **** 	water_data.MinVol = val;
 1260              		.loc 1 175 0
 1261 0002 5863     		str	r0, [r3, #52]
 1262              		.loc 1 176 0
 1263 0004 7047     		bx	lr
 1264              	.L130:
 1265 0006 C046     		.align	2
 1266              	.L129:
 1267 0008 00000000 		.word	water_data
 1268              		.cfi_endproc
 1269              	.LFE78:
 1270              		.size	setvar_minVol, .-setvar_minVol
 1271              		.section	.text.getvar_notBefore,"ax",%progbits
 1272              		.align	1
 1273              		.global	getvar_notBefore
 1274              		.code	16
 1275              		.thumb_func
 1276              		.type	getvar_notBefore, %function
 1277              	getvar_notBefore:
 1278              	.LFB79:
 177:.\src/waterControl.c **** 
 178:.\src/waterControl.c **** int getvar_notBefore(void) { return water_data.NotBefore; }
 1279              		.loc 1 178 0
 1280              		.cfi_startproc
 1281              		.loc 1 178 0
ARM GAS  C:\Users\SDEVAS~1\AppData\Local\Temp\ccjJ67Vt.s 			page 27


 1282 0000 014B     		ldr	r3, .L132
 1283              		@ sp needed
 1284 0002 D833     		add	r3, r3, #216
 1285 0004 1868     		ldr	r0, [r3]
 1286 0006 7047     		bx	lr
 1287              	.L133:
 1288              		.align	2
 1289              	.L132:
 1290 0008 00000000 		.word	water_data
 1291              		.cfi_endproc
 1292              	.LFE79:
 1293              		.size	getvar_notBefore, .-getvar_notBefore
 1294              		.section	.text.getvar_notAfter,"ax",%progbits
 1295              		.align	1
 1296              		.global	getvar_notAfter
 1297              		.code	16
 1298              		.thumb_func
 1299              		.type	getvar_notAfter, %function
 1300              	getvar_notAfter:
 1301              	.LFB80:
 179:.\src/waterControl.c **** int getvar_notAfter(void) { return water_data.NotAfter; }
 1302              		.loc 1 179 0
 1303              		.cfi_startproc
 1304              		.loc 1 179 0
 1305 0000 014B     		ldr	r3, .L135
 1306              		@ sp needed
 1307 0002 DC33     		add	r3, r3, #220
 1308 0004 1868     		ldr	r0, [r3]
 1309 0006 7047     		bx	lr
 1310              	.L136:
 1311              		.align	2
 1312              	.L135:
 1313 0008 00000000 		.word	water_data
 1314              		.cfi_endproc
 1315              	.LFE80:
 1316              		.size	getvar_notAfter, .-getvar_notAfter
 1317              		.section	.text.getvar_dilutionFactorA,"ax",%progbits
 1318              		.align	1
 1319              		.global	getvar_dilutionFactorA
 1320              		.code	16
 1321              		.thumb_func
 1322              		.type	getvar_dilutionFactorA, %function
 1323              	getvar_dilutionFactorA:
 1324              	.LFB81:
 180:.\src/waterControl.c **** int getvar_dilutionFactorA(void) { return water_data.DilutionFactorA; }
 1325              		.loc 1 180 0
 1326              		.cfi_startproc
 1327              		.loc 1 180 0
 1328 0000 014B     		ldr	r3, .L138
 1329              		@ sp needed
 1330 0002 E033     		add	r3, r3, #224
 1331 0004 1868     		ldr	r0, [r3]
 1332 0006 7047     		bx	lr
 1333              	.L139:
 1334              		.align	2
 1335              	.L138:
 1336 0008 00000000 		.word	water_data
ARM GAS  C:\Users\SDEVAS~1\AppData\Local\Temp\ccjJ67Vt.s 			page 28


 1337              		.cfi_endproc
 1338              	.LFE81:
 1339              		.size	getvar_dilutionFactorA, .-getvar_dilutionFactorA
 1340              		.section	.text.getvar_dilutionFactorB,"ax",%progbits
 1341              		.align	1
 1342              		.global	getvar_dilutionFactorB
 1343              		.code	16
 1344              		.thumb_func
 1345              		.type	getvar_dilutionFactorB, %function
 1346              	getvar_dilutionFactorB:
 1347              	.LFB82:
 181:.\src/waterControl.c **** int getvar_dilutionFactorB(void) { return water_data.DilutionFactorB; }
 1348              		.loc 1 181 0
 1349              		.cfi_startproc
 1350              		.loc 1 181 0
 1351 0000 014B     		ldr	r3, .L141
 1352              		@ sp needed
 1353 0002 E433     		add	r3, r3, #228
 1354 0004 1868     		ldr	r0, [r3]
 1355 0006 7047     		bx	lr
 1356              	.L142:
 1357              		.align	2
 1358              	.L141:
 1359 0008 00000000 		.word	water_data
 1360              		.cfi_endproc
 1361              	.LFE82:
 1362              		.size	getvar_dilutionFactorB, .-getvar_dilutionFactorB
 1363              		.section	.text.getvar_venturiSuctionA,"ax",%progbits
 1364              		.align	1
 1365              		.global	getvar_venturiSuctionA
 1366              		.code	16
 1367              		.thumb_func
 1368              		.type	getvar_venturiSuctionA, %function
 1369              	getvar_venturiSuctionA:
 1370              	.LFB83:
 182:.\src/waterControl.c **** int getvar_venturiSuctionA(void) { return water_data.VenturiSuctionA; }
 1371              		.loc 1 182 0
 1372              		.cfi_startproc
 1373              		.loc 1 182 0
 1374 0000 014B     		ldr	r3, .L144
 1375              		@ sp needed
 1376 0002 E833     		add	r3, r3, #232
 1377 0004 1868     		ldr	r0, [r3]
 1378 0006 7047     		bx	lr
 1379              	.L145:
 1380              		.align	2
 1381              	.L144:
 1382 0008 00000000 		.word	water_data
 1383              		.cfi_endproc
 1384              	.LFE83:
 1385              		.size	getvar_venturiSuctionA, .-getvar_venturiSuctionA
 1386              		.section	.text.getvar_venturiSuctionB,"ax",%progbits
 1387              		.align	1
 1388              		.global	getvar_venturiSuctionB
 1389              		.code	16
 1390              		.thumb_func
 1391              		.type	getvar_venturiSuctionB, %function
ARM GAS  C:\Users\SDEVAS~1\AppData\Local\Temp\ccjJ67Vt.s 			page 29


 1392              	getvar_venturiSuctionB:
 1393              	.LFB84:
 183:.\src/waterControl.c **** int getvar_venturiSuctionB(void) { return water_data.VenturiSuctionB; }
 1394              		.loc 1 183 0
 1395              		.cfi_startproc
 1396              		.loc 1 183 0
 1397 0000 014B     		ldr	r3, .L147
 1398              		@ sp needed
 1399 0002 EC33     		add	r3, r3, #236
 1400 0004 1868     		ldr	r0, [r3]
 1401 0006 7047     		bx	lr
 1402              	.L148:
 1403              		.align	2
 1404              	.L147:
 1405 0008 00000000 		.word	water_data
 1406              		.cfi_endproc
 1407              	.LFE84:
 1408              		.size	getvar_venturiSuctionB, .-getvar_venturiSuctionB
 1409              		.section	.text.getvar_squareMeters,"ax",%progbits
 1410              		.align	1
 1411              		.global	getvar_squareMeters
 1412              		.code	16
 1413              		.thumb_func
 1414              		.type	getvar_squareMeters, %function
 1415              	getvar_squareMeters:
 1416              	.LFB85:
 184:.\src/waterControl.c **** int getvar_squareMeters(void) { return water_data.SquareMeters; }
 1417              		.loc 1 184 0
 1418              		.cfi_startproc
 1419              		.loc 1 184 0
 1420 0000 014B     		ldr	r3, .L150
 1421              		@ sp needed
 1422 0002 F033     		add	r3, r3, #240
 1423 0004 1868     		ldr	r0, [r3]
 1424 0006 7047     		bx	lr
 1425              	.L151:
 1426              		.align	2
 1427              	.L150:
 1428 0008 00000000 		.word	water_data
 1429              		.cfi_endproc
 1430              	.LFE85:
 1431              		.size	getvar_squareMeters, .-getvar_squareMeters
 1432              		.section	.text.getvar_lPerSqMeterPerDay,"ax",%progbits
 1433              		.align	1
 1434              		.global	getvar_lPerSqMeterPerDay
 1435              		.code	16
 1436              		.thumb_func
 1437              		.type	getvar_lPerSqMeterPerDay, %function
 1438              	getvar_lPerSqMeterPerDay:
 1439              	.LFB86:
 185:.\src/waterControl.c **** int getvar_lPerSqMeterPerDay(void) { return water_data.LperSqMeterPerDay; }
 1440              		.loc 1 185 0
 1441              		.cfi_startproc
 1442              		.loc 1 185 0
 1443 0000 014B     		ldr	r3, .L153
 1444              		@ sp needed
 1445 0002 F433     		add	r3, r3, #244
ARM GAS  C:\Users\SDEVAS~1\AppData\Local\Temp\ccjJ67Vt.s 			page 30


 1446 0004 1868     		ldr	r0, [r3]
 1447 0006 7047     		bx	lr
 1448              	.L154:
 1449              		.align	2
 1450              	.L153:
 1451 0008 00000000 		.word	water_data
 1452              		.cfi_endproc
 1453              	.LFE86:
 1454              		.size	getvar_lPerSqMeterPerDay, .-getvar_lPerSqMeterPerDay
 1455              		.section	.text.getvar_cropType,"ax",%progbits
 1456              		.align	1
 1457              		.global	getvar_cropType
 1458              		.code	16
 1459              		.thumb_func
 1460              		.type	getvar_cropType, %function
 1461              	getvar_cropType:
 1462              	.LFB87:
 186:.\src/waterControl.c **** int getvar_cropType(void) { return water_data.CropType; }
 1463              		.loc 1 186 0
 1464              		.cfi_startproc
 1465              		.loc 1 186 0
 1466 0000 014B     		ldr	r3, .L156
 1467              		@ sp needed
 1468 0002 F833     		add	r3, r3, #248
 1469 0004 1868     		ldr	r0, [r3]
 1470 0006 7047     		bx	lr
 1471              	.L157:
 1472              		.align	2
 1473              	.L156:
 1474 0008 00000000 		.word	water_data
 1475              		.cfi_endproc
 1476              	.LFE87:
 1477              		.size	getvar_cropType, .-getvar_cropType
 1478              		.section	.text.getvar_innerPressure,"ax",%progbits
 1479              		.align	1
 1480              		.global	getvar_innerPressure
 1481              		.code	16
 1482              		.thumb_func
 1483              		.type	getvar_innerPressure, %function
 1484              	getvar_innerPressure:
 1485              	.LFB88:
 187:.\src/waterControl.c **** 
 188:.\src/waterControl.c **** int getvar_innerPressure(void) { return water_data.InnerPressure; }
 1486              		.loc 1 188 0
 1487              		.cfi_startproc
 1488              		.loc 1 188 0
 1489 0000 014B     		ldr	r3, .L159
 1490              		@ sp needed
 1491 0002 1868     		ldr	r0, [r3]
 1492 0004 7047     		bx	lr
 1493              	.L160:
 1494 0006 C046     		.align	2
 1495              	.L159:
 1496 0008 00000000 		.word	water_data
 1497              		.cfi_endproc
 1498              	.LFE88:
 1499              		.size	getvar_innerPressure, .-getvar_innerPressure
ARM GAS  C:\Users\SDEVAS~1\AppData\Local\Temp\ccjJ67Vt.s 			page 31


 1500              		.section	.text.getvar_outerPressure,"ax",%progbits
 1501              		.align	1
 1502              		.global	getvar_outerPressure
 1503              		.code	16
 1504              		.thumb_func
 1505              		.type	getvar_outerPressure, %function
 1506              	getvar_outerPressure:
 1507              	.LFB89:
 189:.\src/waterControl.c **** int getvar_outerPressure(void) { return water_data.OuterPressure; }
 1508              		.loc 1 189 0
 1509              		.cfi_startproc
 1510              		.loc 1 189 0
 1511 0000 014B     		ldr	r3, .L162
 1512              		@ sp needed
 1513 0002 5868     		ldr	r0, [r3, #4]
 1514 0004 7047     		bx	lr
 1515              	.L163:
 1516 0006 C046     		.align	2
 1517              	.L162:
 1518 0008 00000000 		.word	water_data
 1519              		.cfi_endproc
 1520              	.LFE89:
 1521              		.size	getvar_outerPressure, .-getvar_outerPressure
 1522              		.section	.text.getvar_currentFlow,"ax",%progbits
 1523              		.align	1
 1524              		.global	getvar_currentFlow
 1525              		.code	16
 1526              		.thumb_func
 1527              		.type	getvar_currentFlow, %function
 1528              	getvar_currentFlow:
 1529              	.LFB90:
 190:.\src/waterControl.c **** int getvar_currentFlow(void) { return water_data.CurrentFlow; }
 1530              		.loc 1 190 0
 1531              		.cfi_startproc
 1532              		.loc 1 190 0
 1533 0000 014B     		ldr	r3, .L165
 1534              		@ sp needed
 1535 0002 9868     		ldr	r0, [r3, #8]
 1536 0004 7047     		bx	lr
 1537              	.L166:
 1538 0006 C046     		.align	2
 1539              	.L165:
 1540 0008 00000000 		.word	water_data
 1541              		.cfi_endproc
 1542              	.LFE90:
 1543              		.size	getvar_currentFlow, .-getvar_currentFlow
 1544              		.section	.text.getvar_totalVolume,"ax",%progbits
 1545              		.align	1
 1546              		.global	getvar_totalVolume
 1547              		.code	16
 1548              		.thumb_func
 1549              		.type	getvar_totalVolume, %function
 1550              	getvar_totalVolume:
 1551              	.LFB91:
 191:.\src/waterControl.c **** int getvar_totalVolume(void) { return water_data.TotalVolume; }
 1552              		.loc 1 191 0
 1553              		.cfi_startproc
ARM GAS  C:\Users\SDEVAS~1\AppData\Local\Temp\ccjJ67Vt.s 			page 32


 1554              		.loc 1 191 0
 1555 0000 014B     		ldr	r3, .L168
 1556              		@ sp needed
 1557 0002 D868     		ldr	r0, [r3, #12]
 1558 0004 7047     		bx	lr
 1559              	.L169:
 1560 0006 C046     		.align	2
 1561              	.L168:
 1562 0008 00000000 		.word	water_data
 1563              		.cfi_endproc
 1564              	.LFE91:
 1565              		.size	getvar_totalVolume, .-getvar_totalVolume
 1566              		.section	.text.getvar_valveStatus,"ax",%progbits
 1567              		.align	1
 1568              		.global	getvar_valveStatus
 1569              		.code	16
 1570              		.thumb_func
 1571              		.type	getvar_valveStatus, %function
 1572              	getvar_valveStatus:
 1573              	.LFB92:
 192:.\src/waterControl.c **** int getvar_valveStatus(void) { return water_data.ValveStatus; }
 1574              		.loc 1 192 0
 1575              		.cfi_startproc
 1576              		.loc 1 192 0
 1577 0000 014B     		ldr	r3, .L171
 1578              		@ sp needed
 1579 0002 1869     		ldr	r0, [r3, #16]
 1580 0004 7047     		bx	lr
 1581              	.L172:
 1582 0006 C046     		.align	2
 1583              	.L171:
 1584 0008 00000000 		.word	water_data
 1585              		.cfi_endproc
 1586              	.LFE92:
 1587              		.size	getvar_valveStatus, .-getvar_valveStatus
 1588              		.section	.text.getvar_lastStartNumber,"ax",%progbits
 1589              		.align	1
 1590              		.global	getvar_lastStartNumber
 1591              		.code	16
 1592              		.thumb_func
 1593              		.type	getvar_lastStartNumber, %function
 1594              	getvar_lastStartNumber:
 1595              	.LFB93:
 193:.\src/waterControl.c **** int getvar_lastStartNumber(void) { return water_data.LastStartNumber; }
 1596              		.loc 1 193 0
 1597              		.cfi_startproc
 1598              		.loc 1 193 0
 1599 0000 014B     		ldr	r3, .L174
 1600              		@ sp needed
 1601 0002 5869     		ldr	r0, [r3, #20]
 1602 0004 7047     		bx	lr
 1603              	.L175:
 1604 0006 C046     		.align	2
 1605              	.L174:
 1606 0008 00000000 		.word	water_data
 1607              		.cfi_endproc
 1608              	.LFE93:
ARM GAS  C:\Users\SDEVAS~1\AppData\Local\Temp\ccjJ67Vt.s 			page 33


 1609              		.size	getvar_lastStartNumber, .-getvar_lastStartNumber
 1610              		.section	.text.getvar_lastStartVolume,"ax",%progbits
 1611              		.align	1
 1612              		.global	getvar_lastStartVolume
 1613              		.code	16
 1614              		.thumb_func
 1615              		.type	getvar_lastStartVolume, %function
 1616              	getvar_lastStartVolume:
 1617              	.LFB94:
 194:.\src/waterControl.c **** int getvar_lastStartVolume(void) { return water_data.LastStartVolume; }
 1618              		.loc 1 194 0
 1619              		.cfi_startproc
 1620              		.loc 1 194 0
 1621 0000 014B     		ldr	r3, .L177
 1622              		@ sp needed
 1623 0002 9869     		ldr	r0, [r3, #24]
 1624 0004 7047     		bx	lr
 1625              	.L178:
 1626 0006 C046     		.align	2
 1627              	.L177:
 1628 0008 00000000 		.word	water_data
 1629              		.cfi_endproc
 1630              	.LFE94:
 1631              		.size	getvar_lastStartVolume, .-getvar_lastStartVolume
 1632              		.section	.text.getvar_lastStartFlow,"ax",%progbits
 1633              		.align	1
 1634              		.global	getvar_lastStartFlow
 1635              		.code	16
 1636              		.thumb_func
 1637              		.type	getvar_lastStartFlow, %function
 1638              	getvar_lastStartFlow:
 1639              	.LFB95:
 195:.\src/waterControl.c **** int getvar_lastStartFlow(void) { return water_data.LastStartFlow; }
 1640              		.loc 1 195 0
 1641              		.cfi_startproc
 1642              		.loc 1 195 0
 1643 0000 014B     		ldr	r3, .L180
 1644              		@ sp needed
 1645 0002 D869     		ldr	r0, [r3, #28]
 1646 0004 7047     		bx	lr
 1647              	.L181:
 1648 0006 C046     		.align	2
 1649              	.L180:
 1650 0008 00000000 		.word	water_data
 1651              		.cfi_endproc
 1652              	.LFE95:
 1653              		.size	getvar_lastStartFlow, .-getvar_lastStartFlow
 1654              		.section	.text.getvar_startTime,"ax",%progbits
 1655              		.align	1
 1656              		.global	getvar_startTime
 1657              		.code	16
 1658              		.thumb_func
 1659              		.type	getvar_startTime, %function
 1660              	getvar_startTime:
 1661              	.LFB96:
 196:.\src/waterControl.c **** int getvar_startTime(void) { return water_data.StartTime; }
 1662              		.loc 1 196 0
ARM GAS  C:\Users\SDEVAS~1\AppData\Local\Temp\ccjJ67Vt.s 			page 34


 1663              		.cfi_startproc
 1664              		.loc 1 196 0
 1665 0000 014B     		ldr	r3, .L183
 1666              		@ sp needed
 1667 0002 186A     		ldr	r0, [r3, #32]
 1668 0004 7047     		bx	lr
 1669              	.L184:
 1670 0006 C046     		.align	2
 1671              	.L183:
 1672 0008 00000000 		.word	water_data
 1673              		.cfi_endproc
 1674              	.LFE96:
 1675              		.size	getvar_startTime, .-getvar_startTime
 1676              		.section	.text.getvar_stopTime,"ax",%progbits
 1677              		.align	1
 1678              		.global	getvar_stopTime
 1679              		.code	16
 1680              		.thumb_func
 1681              		.type	getvar_stopTime, %function
 1682              	getvar_stopTime:
 1683              	.LFB97:
 197:.\src/waterControl.c **** int getvar_stopTime(void) { return water_data.StopTime; }
 1684              		.loc 1 197 0
 1685              		.cfi_startproc
 1686              		.loc 1 197 0
 1687 0000 014B     		ldr	r3, .L186
 1688              		@ sp needed
 1689 0002 586A     		ldr	r0, [r3, #36]
 1690 0004 7047     		bx	lr
 1691              	.L187:
 1692 0006 C046     		.align	2
 1693              	.L186:
 1694 0008 00000000 		.word	water_data
 1695              		.cfi_endproc
 1696              	.LFE97:
 1697              		.size	getvar_stopTime, .-getvar_stopTime
 1698              		.section	.text.getvar_numStarts,"ax",%progbits
 1699              		.align	1
 1700              		.global	getvar_numStarts
 1701              		.code	16
 1702              		.thumb_func
 1703              		.type	getvar_numStarts, %function
 1704              	getvar_numStarts:
 1705              	.LFB98:
 198:.\src/waterControl.c **** int getvar_numStarts(void) { return water_data.NumStarts; }
 1706              		.loc 1 198 0
 1707              		.cfi_startproc
 1708              		.loc 1 198 0
 1709 0000 014B     		ldr	r3, .L189
 1710              		@ sp needed
 1711 0002 986A     		ldr	r0, [r3, #40]
 1712 0004 7047     		bx	lr
 1713              	.L190:
 1714 0006 C046     		.align	2
 1715              	.L189:
 1716 0008 00000000 		.word	water_data
 1717              		.cfi_endproc
ARM GAS  C:\Users\SDEVAS~1\AppData\Local\Temp\ccjJ67Vt.s 			page 35


 1718              	.LFE98:
 1719              		.size	getvar_numStarts, .-getvar_numStarts
 1720              		.section	.text.getvar_volPerStart,"ax",%progbits
 1721              		.align	1
 1722              		.global	getvar_volPerStart
 1723              		.code	16
 1724              		.thumb_func
 1725              		.type	getvar_volPerStart, %function
 1726              	getvar_volPerStart:
 1727              	.LFB99:
 199:.\src/waterControl.c **** int getvar_volPerStart(void) { return water_data.VolPerStart; }
 1728              		.loc 1 199 0
 1729              		.cfi_startproc
 1730              		.loc 1 199 0
 1731 0000 014B     		ldr	r3, .L192
 1732              		@ sp needed
 1733 0002 D86A     		ldr	r0, [r3, #44]
 1734 0004 7047     		bx	lr
 1735              	.L193:
 1736 0006 C046     		.align	2
 1737              	.L192:
 1738 0008 00000000 		.word	water_data
 1739              		.cfi_endproc
 1740              	.LFE99:
 1741              		.size	getvar_volPerStart, .-getvar_volPerStart
 1742              		.section	.text.getvar_maxVol,"ax",%progbits
 1743              		.align	1
 1744              		.global	getvar_maxVol
 1745              		.code	16
 1746              		.thumb_func
 1747              		.type	getvar_maxVol, %function
 1748              	getvar_maxVol:
 1749              	.LFB100:
 200:.\src/waterControl.c **** int getvar_maxVol(void) { return water_data.MaxVol; }
 1750              		.loc 1 200 0
 1751              		.cfi_startproc
 1752              		.loc 1 200 0
 1753 0000 014B     		ldr	r3, .L195
 1754              		@ sp needed
 1755 0002 186B     		ldr	r0, [r3, #48]
 1756 0004 7047     		bx	lr
 1757              	.L196:
 1758 0006 C046     		.align	2
 1759              	.L195:
 1760 0008 00000000 		.word	water_data
 1761              		.cfi_endproc
 1762              	.LFE100:
 1763              		.size	getvar_maxVol, .-getvar_maxVol
 1764              		.section	.text.getvar_minVol,"ax",%progbits
 1765              		.align	1
 1766              		.global	getvar_minVol
 1767              		.code	16
 1768              		.thumb_func
 1769              		.type	getvar_minVol, %function
 1770              	getvar_minVol:
 1771              	.LFB101:
 201:.\src/waterControl.c **** int getvar_minVol(void) { return water_data.MinVol; }
ARM GAS  C:\Users\SDEVAS~1\AppData\Local\Temp\ccjJ67Vt.s 			page 36


 1772              		.loc 1 201 0
 1773              		.cfi_startproc
 1774              		.loc 1 201 0
 1775 0000 014B     		ldr	r3, .L198
 1776              		@ sp needed
 1777 0002 586B     		ldr	r0, [r3, #52]
 1778 0004 7047     		bx	lr
 1779              	.L199:
 1780 0006 C046     		.align	2
 1781              	.L198:
 1782 0008 00000000 		.word	water_data
 1783              		.cfi_endproc
 1784              	.LFE101:
 1785              		.size	getvar_minVol, .-getvar_minVol
 1786              		.section	.text.comm_GenerateInfo,"ax",%progbits
 1787              		.align	1
 1788              		.global	comm_GenerateInfo
 1789              		.code	16
 1790              		.thumb_func
 1791              		.type	comm_GenerateInfo, %function
 1792              	comm_GenerateInfo:
 1793              	.LFB102:
 202:.\src/waterControl.c **** 
 203:.\src/waterControl.c **** void comm_GenerateInfo(void) {
 1794              		.loc 1 203 0
 1795              		.cfi_startproc
 1796 0000 F8B5     		push	{r3, r4, r5, r6, r7, lr}
 1797              		.cfi_def_cfa_offset 24
 1798              		.cfi_offset 3, -24
 1799              		.cfi_offset 4, -20
 1800              		.cfi_offset 5, -16
 1801              		.cfi_offset 6, -12
 1802              		.cfi_offset 7, -8
 1803              		.cfi_offset 14, -4
 204:.\src/waterControl.c **** 	int tmp;
 205:.\src/waterControl.c **** 
 206:.\src/waterControl.c **** 	ADD_STATIC_STRING_TO_RESP("{\"n\":\"InnerPressure\",\"t\":\"i\",\"v\":");
 1804              		.loc 1 206 0
 1805 0002 664D     		ldr	r5, .L201
 1806 0004 6649     		ldr	r1, .L201+4
 1807 0006 2868     		ldr	r0, [r5]
 1808 0008 2222     		mov	r2, #34
 1809 000a FFF7FEFF 		bl	memcpy
 1810              	.LVL78:
 1811 000e 654C     		ldr	r4, .L201+8
 207:.\src/waterControl.c **** 	tmp = conv_i2str(respEnd, respFreeSpace, water_data.InnerPressure);
 1812              		.loc 1 207 0
 1813 0010 654F     		ldr	r7, .L201+12
 206:.\src/waterControl.c **** 	ADD_STATIC_STRING_TO_RESP("{\"n\":\"InnerPressure\",\"t\":\"i\",\"v\":");
 1814              		.loc 1 206 0
 1815 0012 2868     		ldr	r0, [r5]
 1816 0014 2168     		ldr	r1, [r4]
 1817              		.loc 1 207 0
 1818 0016 3A68     		ldr	r2, [r7]
 206:.\src/waterControl.c **** 	ADD_STATIC_STRING_TO_RESP("{\"n\":\"InnerPressure\",\"t\":\"i\",\"v\":");
 1819              		.loc 1 206 0
 1820 0018 2139     		sub	r1, r1, #33
ARM GAS  C:\Users\SDEVAS~1\AppData\Local\Temp\ccjJ67Vt.s 			page 37


 1821 001a 2130     		add	r0, r0, #33
 1822 001c 2860     		str	r0, [r5]
 1823 001e 2160     		str	r1, [r4]
 1824              		.loc 1 207 0
 1825 0020 FFF7FEFF 		bl	conv_i2str
 1826              	.LVL79:
 208:.\src/waterControl.c **** 	respEnd += tmp;
 1827              		.loc 1 208 0
 1828 0024 2A68     		ldr	r2, [r5]
 209:.\src/waterControl.c **** 	respFreeSpace -= tmp;
 210:.\src/waterControl.c **** 	ADD_CHAR_TO_RESP('}');
 1829              		.loc 1 210 0
 1830 0026 7D26     		mov	r6, #125
 208:.\src/waterControl.c **** 	respEnd += tmp;
 1831              		.loc 1 208 0
 1832 0028 1318     		add	r3, r2, r0
 209:.\src/waterControl.c **** 	respFreeSpace -= tmp;
 1833              		.loc 1 209 0
 1834 002a 2268     		ldr	r2, [r4]
 211:.\src/waterControl.c **** 
 212:.\src/waterControl.c **** 	ADD_STATIC_STRING_TO_RESP(",{\"n\":\"OuterPressure\",\"t\":\"i\",\"v\":");
 1835              		.loc 1 212 0
 1836 002c 5F49     		ldr	r1, .L201+16
 209:.\src/waterControl.c **** 	respFreeSpace -= tmp;
 1837              		.loc 1 209 0
 1838 002e 101A     		sub	r0, r2, r0
 1839              	.LVL80:
 210:.\src/waterControl.c **** 	ADD_CHAR_TO_RESP('}');
 1840              		.loc 1 210 0
 1841 0030 5A1C     		add	r2, r3, #1
 209:.\src/waterControl.c **** 	respFreeSpace -= tmp;
 1842              		.loc 1 209 0
 1843 0032 2060     		str	r0, [r4]
 210:.\src/waterControl.c **** 	ADD_CHAR_TO_RESP('}');
 1844              		.loc 1 210 0
 1845 0034 2A60     		str	r2, [r5]
 1846 0036 1E70     		strb	r6, [r3]
 1847 0038 2368     		ldr	r3, [r4]
 1848              		.loc 1 212 0
 1849 003a 2868     		ldr	r0, [r5]
 210:.\src/waterControl.c **** 	ADD_CHAR_TO_RESP('}');
 1850              		.loc 1 210 0
 1851 003c 013B     		sub	r3, r3, #1
 1852              		.loc 1 212 0
 1853 003e 2322     		mov	r2, #35
 210:.\src/waterControl.c **** 	ADD_CHAR_TO_RESP('}');
 1854              		.loc 1 210 0
 1855 0040 2360     		str	r3, [r4]
 1856              		.loc 1 212 0
 1857 0042 FFF7FEFF 		bl	memcpy
 1858              	.LVL81:
 1859 0046 2868     		ldr	r0, [r5]
 1860 0048 2168     		ldr	r1, [r4]
 213:.\src/waterControl.c **** 	tmp = conv_i2str(respEnd, respFreeSpace, water_data.OuterPressure);
 1861              		.loc 1 213 0
 1862 004a 7A68     		ldr	r2, [r7, #4]
 212:.\src/waterControl.c **** 	ADD_STATIC_STRING_TO_RESP(",{\"n\":\"OuterPressure\",\"t\":\"i\",\"v\":");
ARM GAS  C:\Users\SDEVAS~1\AppData\Local\Temp\ccjJ67Vt.s 			page 38


 1863              		.loc 1 212 0
 1864 004c 2239     		sub	r1, r1, #34
 1865 004e 2230     		add	r0, r0, #34
 1866 0050 2860     		str	r0, [r5]
 1867 0052 2160     		str	r1, [r4]
 1868              		.loc 1 213 0
 1869 0054 FFF7FEFF 		bl	conv_i2str
 1870              	.LVL82:
 214:.\src/waterControl.c **** 	respEnd += tmp;
 1871              		.loc 1 214 0
 1872 0058 2A68     		ldr	r2, [r5]
 215:.\src/waterControl.c **** 	respFreeSpace -= tmp;
 216:.\src/waterControl.c **** 	ADD_CHAR_TO_RESP('}');
 217:.\src/waterControl.c **** 
 218:.\src/waterControl.c **** 	ADD_STATIC_STRING_TO_RESP(",{\"n\":\"CurrentFlow\",\"t\":\"i\",\"v\":");
 1873              		.loc 1 218 0
 1874 005a 5549     		ldr	r1, .L201+20
 214:.\src/waterControl.c **** 	respEnd += tmp;
 1875              		.loc 1 214 0
 1876 005c 1318     		add	r3, r2, r0
 215:.\src/waterControl.c **** 	respFreeSpace -= tmp;
 1877              		.loc 1 215 0
 1878 005e 2268     		ldr	r2, [r4]
 219:.\src/waterControl.c **** 	tmp = conv_i2str(respEnd, respFreeSpace, water_data.CurrentFlow);
 220:.\src/waterControl.c **** 	respEnd += tmp;
 221:.\src/waterControl.c **** 	respFreeSpace -= tmp;
 222:.\src/waterControl.c **** 	ADD_CHAR_TO_RESP('}');
 223:.\src/waterControl.c **** 
 224:.\src/waterControl.c **** 	ADD_STATIC_STRING_TO_RESP(",{\"n\":\"TotalVolume\",\"t\":\"i\",\"v\":");
 225:.\src/waterControl.c **** 	tmp = conv_i2str(respEnd, respFreeSpace, water_data.TotalVolume);
 226:.\src/waterControl.c **** 	respEnd += tmp;
 227:.\src/waterControl.c **** 	respFreeSpace -= tmp;
 228:.\src/waterControl.c **** 	ADD_CHAR_TO_RESP('}');
 229:.\src/waterControl.c **** 
 230:.\src/waterControl.c **** 	ADD_STATIC_STRING_TO_RESP(",{\"n\":\"ValveStatus\",\"t\":\"i\",\"v\":");
 231:.\src/waterControl.c **** 	tmp = conv_i2str(respEnd, respFreeSpace, water_data.ValveStatus);
 232:.\src/waterControl.c **** 	respEnd += tmp;
 233:.\src/waterControl.c **** 	respFreeSpace -= tmp;
 234:.\src/waterControl.c **** 	ADD_CHAR_TO_RESP('}');
 235:.\src/waterControl.c **** 
 236:.\src/waterControl.c **** 	ADD_STATIC_STRING_TO_RESP(",{\"n\":\"LastStartNumber\",\"t\":\"i\",\"v\":");
 237:.\src/waterControl.c **** 	tmp = conv_i2str(respEnd, respFreeSpace, water_data.LastStartNumber);
 238:.\src/waterControl.c **** 	respEnd += tmp;
 239:.\src/waterControl.c **** 	respFreeSpace -= tmp;
 240:.\src/waterControl.c **** 	ADD_CHAR_TO_RESP('}');
 241:.\src/waterControl.c **** 
 242:.\src/waterControl.c **** 	ADD_STATIC_STRING_TO_RESP(",{\"n\":\"LastStartVolume\",\"t\":\"i\",\"v\":");
 243:.\src/waterControl.c **** 	tmp = conv_i2str(respEnd, respFreeSpace, water_data.LastStartVolume);
 244:.\src/waterControl.c **** 	respEnd += tmp;
 245:.\src/waterControl.c **** 	respFreeSpace -= tmp;
 246:.\src/waterControl.c **** 	ADD_CHAR_TO_RESP('}');
 247:.\src/waterControl.c **** 
 248:.\src/waterControl.c **** 	ADD_STATIC_STRING_TO_RESP(",{\"n\":\"LastStartFlow\",\"t\":\"i\",\"v\":");
 249:.\src/waterControl.c **** 	tmp = conv_i2str(respEnd, respFreeSpace, water_data.LastStartFlow);
 250:.\src/waterControl.c **** 	respEnd += tmp;
 251:.\src/waterControl.c **** 	respFreeSpace -= tmp;
 252:.\src/waterControl.c **** 	ADD_CHAR_TO_RESP('}');
ARM GAS  C:\Users\SDEVAS~1\AppData\Local\Temp\ccjJ67Vt.s 			page 39


 253:.\src/waterControl.c **** }
 1879              		.loc 1 253 0
 1880              		@ sp needed
 215:.\src/waterControl.c **** 	respFreeSpace -= tmp;
 1881              		.loc 1 215 0
 1882 0060 101A     		sub	r0, r2, r0
 1883              	.LVL83:
 216:.\src/waterControl.c **** 	ADD_CHAR_TO_RESP('}');
 1884              		.loc 1 216 0
 1885 0062 5A1C     		add	r2, r3, #1
 215:.\src/waterControl.c **** 	respFreeSpace -= tmp;
 1886              		.loc 1 215 0
 1887 0064 2060     		str	r0, [r4]
 216:.\src/waterControl.c **** 	ADD_CHAR_TO_RESP('}');
 1888              		.loc 1 216 0
 1889 0066 2A60     		str	r2, [r5]
 1890 0068 1E70     		strb	r6, [r3]
 1891 006a 2368     		ldr	r3, [r4]
 218:.\src/waterControl.c **** 	ADD_STATIC_STRING_TO_RESP(",{\"n\":\"CurrentFlow\",\"t\":\"i\",\"v\":");
 1892              		.loc 1 218 0
 1893 006c 2868     		ldr	r0, [r5]
 216:.\src/waterControl.c **** 	ADD_CHAR_TO_RESP('}');
 1894              		.loc 1 216 0
 1895 006e 013B     		sub	r3, r3, #1
 218:.\src/waterControl.c **** 	ADD_STATIC_STRING_TO_RESP(",{\"n\":\"CurrentFlow\",\"t\":\"i\",\"v\":");
 1896              		.loc 1 218 0
 1897 0070 2122     		mov	r2, #33
 216:.\src/waterControl.c **** 	ADD_CHAR_TO_RESP('}');
 1898              		.loc 1 216 0
 1899 0072 2360     		str	r3, [r4]
 218:.\src/waterControl.c **** 	ADD_STATIC_STRING_TO_RESP(",{\"n\":\"CurrentFlow\",\"t\":\"i\",\"v\":");
 1900              		.loc 1 218 0
 1901 0074 FFF7FEFF 		bl	memcpy
 1902              	.LVL84:
 1903 0078 2868     		ldr	r0, [r5]
 1904 007a 2168     		ldr	r1, [r4]
 219:.\src/waterControl.c **** 	tmp = conv_i2str(respEnd, respFreeSpace, water_data.CurrentFlow);
 1905              		.loc 1 219 0
 1906 007c BA68     		ldr	r2, [r7, #8]
 218:.\src/waterControl.c **** 	ADD_STATIC_STRING_TO_RESP(",{\"n\":\"CurrentFlow\",\"t\":\"i\",\"v\":");
 1907              		.loc 1 218 0
 1908 007e 2039     		sub	r1, r1, #32
 1909 0080 2030     		add	r0, r0, #32
 1910 0082 2860     		str	r0, [r5]
 1911 0084 2160     		str	r1, [r4]
 219:.\src/waterControl.c **** 	tmp = conv_i2str(respEnd, respFreeSpace, water_data.CurrentFlow);
 1912              		.loc 1 219 0
 1913 0086 FFF7FEFF 		bl	conv_i2str
 1914              	.LVL85:
 220:.\src/waterControl.c **** 	respEnd += tmp;
 1915              		.loc 1 220 0
 1916 008a 2A68     		ldr	r2, [r5]
 224:.\src/waterControl.c **** 	ADD_STATIC_STRING_TO_RESP(",{\"n\":\"TotalVolume\",\"t\":\"i\",\"v\":");
 1917              		.loc 1 224 0
 1918 008c 4949     		ldr	r1, .L201+24
 220:.\src/waterControl.c **** 	respEnd += tmp;
 1919              		.loc 1 220 0
ARM GAS  C:\Users\SDEVAS~1\AppData\Local\Temp\ccjJ67Vt.s 			page 40


 1920 008e 1318     		add	r3, r2, r0
 221:.\src/waterControl.c **** 	respFreeSpace -= tmp;
 1921              		.loc 1 221 0
 1922 0090 2268     		ldr	r2, [r4]
 1923 0092 101A     		sub	r0, r2, r0
 1924              	.LVL86:
 222:.\src/waterControl.c **** 	ADD_CHAR_TO_RESP('}');
 1925              		.loc 1 222 0
 1926 0094 5A1C     		add	r2, r3, #1
 221:.\src/waterControl.c **** 	respFreeSpace -= tmp;
 1927              		.loc 1 221 0
 1928 0096 2060     		str	r0, [r4]
 222:.\src/waterControl.c **** 	ADD_CHAR_TO_RESP('}');
 1929              		.loc 1 222 0
 1930 0098 2A60     		str	r2, [r5]
 1931 009a 1E70     		strb	r6, [r3]
 1932 009c 2368     		ldr	r3, [r4]
 224:.\src/waterControl.c **** 	ADD_STATIC_STRING_TO_RESP(",{\"n\":\"TotalVolume\",\"t\":\"i\",\"v\":");
 1933              		.loc 1 224 0
 1934 009e 2868     		ldr	r0, [r5]
 222:.\src/waterControl.c **** 	ADD_CHAR_TO_RESP('}');
 1935              		.loc 1 222 0
 1936 00a0 013B     		sub	r3, r3, #1
 224:.\src/waterControl.c **** 	ADD_STATIC_STRING_TO_RESP(",{\"n\":\"TotalVolume\",\"t\":\"i\",\"v\":");
 1937              		.loc 1 224 0
 1938 00a2 2122     		mov	r2, #33
 222:.\src/waterControl.c **** 	ADD_CHAR_TO_RESP('}');
 1939              		.loc 1 222 0
 1940 00a4 2360     		str	r3, [r4]
 224:.\src/waterControl.c **** 	ADD_STATIC_STRING_TO_RESP(",{\"n\":\"TotalVolume\",\"t\":\"i\",\"v\":");
 1941              		.loc 1 224 0
 1942 00a6 FFF7FEFF 		bl	memcpy
 1943              	.LVL87:
 1944 00aa 2868     		ldr	r0, [r5]
 1945 00ac 2168     		ldr	r1, [r4]
 225:.\src/waterControl.c **** 	tmp = conv_i2str(respEnd, respFreeSpace, water_data.TotalVolume);
 1946              		.loc 1 225 0
 1947 00ae FA68     		ldr	r2, [r7, #12]
 224:.\src/waterControl.c **** 	ADD_STATIC_STRING_TO_RESP(",{\"n\":\"TotalVolume\",\"t\":\"i\",\"v\":");
 1948              		.loc 1 224 0
 1949 00b0 2039     		sub	r1, r1, #32
 1950 00b2 2030     		add	r0, r0, #32
 1951 00b4 2860     		str	r0, [r5]
 1952 00b6 2160     		str	r1, [r4]
 225:.\src/waterControl.c **** 	tmp = conv_i2str(respEnd, respFreeSpace, water_data.TotalVolume);
 1953              		.loc 1 225 0
 1954 00b8 FFF7FEFF 		bl	conv_i2str
 1955              	.LVL88:
 226:.\src/waterControl.c **** 	respEnd += tmp;
 1956              		.loc 1 226 0
 1957 00bc 2A68     		ldr	r2, [r5]
 230:.\src/waterControl.c **** 	ADD_STATIC_STRING_TO_RESP(",{\"n\":\"ValveStatus\",\"t\":\"i\",\"v\":");
 1958              		.loc 1 230 0
 1959 00be 3E49     		ldr	r1, .L201+28
 226:.\src/waterControl.c **** 	respEnd += tmp;
 1960              		.loc 1 226 0
 1961 00c0 1318     		add	r3, r2, r0
ARM GAS  C:\Users\SDEVAS~1\AppData\Local\Temp\ccjJ67Vt.s 			page 41


 227:.\src/waterControl.c **** 	respFreeSpace -= tmp;
 1962              		.loc 1 227 0
 1963 00c2 2268     		ldr	r2, [r4]
 1964 00c4 101A     		sub	r0, r2, r0
 1965              	.LVL89:
 228:.\src/waterControl.c **** 	ADD_CHAR_TO_RESP('}');
 1966              		.loc 1 228 0
 1967 00c6 5A1C     		add	r2, r3, #1
 227:.\src/waterControl.c **** 	respFreeSpace -= tmp;
 1968              		.loc 1 227 0
 1969 00c8 2060     		str	r0, [r4]
 228:.\src/waterControl.c **** 	ADD_CHAR_TO_RESP('}');
 1970              		.loc 1 228 0
 1971 00ca 2A60     		str	r2, [r5]
 1972 00cc 1E70     		strb	r6, [r3]
 1973 00ce 2368     		ldr	r3, [r4]
 230:.\src/waterControl.c **** 	ADD_STATIC_STRING_TO_RESP(",{\"n\":\"ValveStatus\",\"t\":\"i\",\"v\":");
 1974              		.loc 1 230 0
 1975 00d0 2868     		ldr	r0, [r5]
 228:.\src/waterControl.c **** 	ADD_CHAR_TO_RESP('}');
 1976              		.loc 1 228 0
 1977 00d2 013B     		sub	r3, r3, #1
 230:.\src/waterControl.c **** 	ADD_STATIC_STRING_TO_RESP(",{\"n\":\"ValveStatus\",\"t\":\"i\",\"v\":");
 1978              		.loc 1 230 0
 1979 00d4 2122     		mov	r2, #33
 228:.\src/waterControl.c **** 	ADD_CHAR_TO_RESP('}');
 1980              		.loc 1 228 0
 1981 00d6 2360     		str	r3, [r4]
 230:.\src/waterControl.c **** 	ADD_STATIC_STRING_TO_RESP(",{\"n\":\"ValveStatus\",\"t\":\"i\",\"v\":");
 1982              		.loc 1 230 0
 1983 00d8 FFF7FEFF 		bl	memcpy
 1984              	.LVL90:
 1985 00dc 2868     		ldr	r0, [r5]
 1986 00de 2168     		ldr	r1, [r4]
 231:.\src/waterControl.c **** 	tmp = conv_i2str(respEnd, respFreeSpace, water_data.ValveStatus);
 1987              		.loc 1 231 0
 1988 00e0 3A69     		ldr	r2, [r7, #16]
 230:.\src/waterControl.c **** 	ADD_STATIC_STRING_TO_RESP(",{\"n\":\"ValveStatus\",\"t\":\"i\",\"v\":");
 1989              		.loc 1 230 0
 1990 00e2 2039     		sub	r1, r1, #32
 1991 00e4 2030     		add	r0, r0, #32
 1992 00e6 2860     		str	r0, [r5]
 1993 00e8 2160     		str	r1, [r4]
 231:.\src/waterControl.c **** 	tmp = conv_i2str(respEnd, respFreeSpace, water_data.ValveStatus);
 1994              		.loc 1 231 0
 1995 00ea FFF7FEFF 		bl	conv_i2str
 1996              	.LVL91:
 232:.\src/waterControl.c **** 	respEnd += tmp;
 1997              		.loc 1 232 0
 1998 00ee 2A68     		ldr	r2, [r5]
 236:.\src/waterControl.c **** 	ADD_STATIC_STRING_TO_RESP(",{\"n\":\"LastStartNumber\",\"t\":\"i\",\"v\":");
 1999              		.loc 1 236 0
 2000 00f0 3249     		ldr	r1, .L201+32
 232:.\src/waterControl.c **** 	respEnd += tmp;
 2001              		.loc 1 232 0
 2002 00f2 1318     		add	r3, r2, r0
 233:.\src/waterControl.c **** 	respFreeSpace -= tmp;
ARM GAS  C:\Users\SDEVAS~1\AppData\Local\Temp\ccjJ67Vt.s 			page 42


 2003              		.loc 1 233 0
 2004 00f4 2268     		ldr	r2, [r4]
 2005 00f6 101A     		sub	r0, r2, r0
 2006              	.LVL92:
 234:.\src/waterControl.c **** 	ADD_CHAR_TO_RESP('}');
 2007              		.loc 1 234 0
 2008 00f8 5A1C     		add	r2, r3, #1
 233:.\src/waterControl.c **** 	respFreeSpace -= tmp;
 2009              		.loc 1 233 0
 2010 00fa 2060     		str	r0, [r4]
 234:.\src/waterControl.c **** 	ADD_CHAR_TO_RESP('}');
 2011              		.loc 1 234 0
 2012 00fc 2A60     		str	r2, [r5]
 2013 00fe 1E70     		strb	r6, [r3]
 2014 0100 2368     		ldr	r3, [r4]
 236:.\src/waterControl.c **** 	ADD_STATIC_STRING_TO_RESP(",{\"n\":\"LastStartNumber\",\"t\":\"i\",\"v\":");
 2015              		.loc 1 236 0
 2016 0102 2868     		ldr	r0, [r5]
 234:.\src/waterControl.c **** 	ADD_CHAR_TO_RESP('}');
 2017              		.loc 1 234 0
 2018 0104 013B     		sub	r3, r3, #1
 236:.\src/waterControl.c **** 	ADD_STATIC_STRING_TO_RESP(",{\"n\":\"LastStartNumber\",\"t\":\"i\",\"v\":");
 2019              		.loc 1 236 0
 2020 0106 2522     		mov	r2, #37
 234:.\src/waterControl.c **** 	ADD_CHAR_TO_RESP('}');
 2021              		.loc 1 234 0
 2022 0108 2360     		str	r3, [r4]
 236:.\src/waterControl.c **** 	ADD_STATIC_STRING_TO_RESP(",{\"n\":\"LastStartNumber\",\"t\":\"i\",\"v\":");
 2023              		.loc 1 236 0
 2024 010a FFF7FEFF 		bl	memcpy
 2025              	.LVL93:
 2026 010e 2868     		ldr	r0, [r5]
 2027 0110 2168     		ldr	r1, [r4]
 237:.\src/waterControl.c **** 	tmp = conv_i2str(respEnd, respFreeSpace, water_data.LastStartNumber);
 2028              		.loc 1 237 0
 2029 0112 7A69     		ldr	r2, [r7, #20]
 236:.\src/waterControl.c **** 	ADD_STATIC_STRING_TO_RESP(",{\"n\":\"LastStartNumber\",\"t\":\"i\",\"v\":");
 2030              		.loc 1 236 0
 2031 0114 2439     		sub	r1, r1, #36
 2032 0116 2430     		add	r0, r0, #36
 2033 0118 2860     		str	r0, [r5]
 2034 011a 2160     		str	r1, [r4]
 237:.\src/waterControl.c **** 	tmp = conv_i2str(respEnd, respFreeSpace, water_data.LastStartNumber);
 2035              		.loc 1 237 0
 2036 011c FFF7FEFF 		bl	conv_i2str
 2037              	.LVL94:
 238:.\src/waterControl.c **** 	respEnd += tmp;
 2038              		.loc 1 238 0
 2039 0120 2A68     		ldr	r2, [r5]
 242:.\src/waterControl.c **** 	ADD_STATIC_STRING_TO_RESP(",{\"n\":\"LastStartVolume\",\"t\":\"i\",\"v\":");
 2040              		.loc 1 242 0
 2041 0122 2749     		ldr	r1, .L201+36
 238:.\src/waterControl.c **** 	respEnd += tmp;
 2042              		.loc 1 238 0
 2043 0124 1318     		add	r3, r2, r0
 239:.\src/waterControl.c **** 	respFreeSpace -= tmp;
 2044              		.loc 1 239 0
ARM GAS  C:\Users\SDEVAS~1\AppData\Local\Temp\ccjJ67Vt.s 			page 43


 2045 0126 2268     		ldr	r2, [r4]
 2046 0128 101A     		sub	r0, r2, r0
 2047              	.LVL95:
 240:.\src/waterControl.c **** 	ADD_CHAR_TO_RESP('}');
 2048              		.loc 1 240 0
 2049 012a 5A1C     		add	r2, r3, #1
 239:.\src/waterControl.c **** 	respFreeSpace -= tmp;
 2050              		.loc 1 239 0
 2051 012c 2060     		str	r0, [r4]
 240:.\src/waterControl.c **** 	ADD_CHAR_TO_RESP('}');
 2052              		.loc 1 240 0
 2053 012e 2A60     		str	r2, [r5]
 2054 0130 1E70     		strb	r6, [r3]
 2055 0132 2368     		ldr	r3, [r4]
 242:.\src/waterControl.c **** 	ADD_STATIC_STRING_TO_RESP(",{\"n\":\"LastStartVolume\",\"t\":\"i\",\"v\":");
 2056              		.loc 1 242 0
 2057 0134 2868     		ldr	r0, [r5]
 240:.\src/waterControl.c **** 	ADD_CHAR_TO_RESP('}');
 2058              		.loc 1 240 0
 2059 0136 013B     		sub	r3, r3, #1
 242:.\src/waterControl.c **** 	ADD_STATIC_STRING_TO_RESP(",{\"n\":\"LastStartVolume\",\"t\":\"i\",\"v\":");
 2060              		.loc 1 242 0
 2061 0138 2522     		mov	r2, #37
 240:.\src/waterControl.c **** 	ADD_CHAR_TO_RESP('}');
 2062              		.loc 1 240 0
 2063 013a 2360     		str	r3, [r4]
 242:.\src/waterControl.c **** 	ADD_STATIC_STRING_TO_RESP(",{\"n\":\"LastStartVolume\",\"t\":\"i\",\"v\":");
 2064              		.loc 1 242 0
 2065 013c FFF7FEFF 		bl	memcpy
 2066              	.LVL96:
 2067 0140 2868     		ldr	r0, [r5]
 2068 0142 2168     		ldr	r1, [r4]
 243:.\src/waterControl.c **** 	tmp = conv_i2str(respEnd, respFreeSpace, water_data.LastStartVolume);
 2069              		.loc 1 243 0
 2070 0144 BA69     		ldr	r2, [r7, #24]
 242:.\src/waterControl.c **** 	ADD_STATIC_STRING_TO_RESP(",{\"n\":\"LastStartVolume\",\"t\":\"i\",\"v\":");
 2071              		.loc 1 242 0
 2072 0146 2439     		sub	r1, r1, #36
 2073 0148 2430     		add	r0, r0, #36
 2074 014a 2860     		str	r0, [r5]
 2075 014c 2160     		str	r1, [r4]
 243:.\src/waterControl.c **** 	tmp = conv_i2str(respEnd, respFreeSpace, water_data.LastStartVolume);
 2076              		.loc 1 243 0
 2077 014e FFF7FEFF 		bl	conv_i2str
 2078              	.LVL97:
 244:.\src/waterControl.c **** 	respEnd += tmp;
 2079              		.loc 1 244 0
 2080 0152 2A68     		ldr	r2, [r5]
 248:.\src/waterControl.c **** 	ADD_STATIC_STRING_TO_RESP(",{\"n\":\"LastStartFlow\",\"t\":\"i\",\"v\":");
 2081              		.loc 1 248 0
 2082 0154 1B49     		ldr	r1, .L201+40
 244:.\src/waterControl.c **** 	respEnd += tmp;
 2083              		.loc 1 244 0
 2084 0156 1318     		add	r3, r2, r0
 245:.\src/waterControl.c **** 	respFreeSpace -= tmp;
 2085              		.loc 1 245 0
 2086 0158 2268     		ldr	r2, [r4]
ARM GAS  C:\Users\SDEVAS~1\AppData\Local\Temp\ccjJ67Vt.s 			page 44


 2087 015a 101A     		sub	r0, r2, r0
 2088              	.LVL98:
 246:.\src/waterControl.c **** 	ADD_CHAR_TO_RESP('}');
 2089              		.loc 1 246 0
 2090 015c 5A1C     		add	r2, r3, #1
 245:.\src/waterControl.c **** 	respFreeSpace -= tmp;
 2091              		.loc 1 245 0
 2092 015e 2060     		str	r0, [r4]
 246:.\src/waterControl.c **** 	ADD_CHAR_TO_RESP('}');
 2093              		.loc 1 246 0
 2094 0160 2A60     		str	r2, [r5]
 2095 0162 1E70     		strb	r6, [r3]
 2096 0164 2368     		ldr	r3, [r4]
 248:.\src/waterControl.c **** 	ADD_STATIC_STRING_TO_RESP(",{\"n\":\"LastStartFlow\",\"t\":\"i\",\"v\":");
 2097              		.loc 1 248 0
 2098 0166 2868     		ldr	r0, [r5]
 246:.\src/waterControl.c **** 	ADD_CHAR_TO_RESP('}');
 2099              		.loc 1 246 0
 2100 0168 013B     		sub	r3, r3, #1
 248:.\src/waterControl.c **** 	ADD_STATIC_STRING_TO_RESP(",{\"n\":\"LastStartFlow\",\"t\":\"i\",\"v\":");
 2101              		.loc 1 248 0
 2102 016a 2322     		mov	r2, #35
 246:.\src/waterControl.c **** 	ADD_CHAR_TO_RESP('}');
 2103              		.loc 1 246 0
 2104 016c 2360     		str	r3, [r4]
 248:.\src/waterControl.c **** 	ADD_STATIC_STRING_TO_RESP(",{\"n\":\"LastStartFlow\",\"t\":\"i\",\"v\":");
 2105              		.loc 1 248 0
 2106 016e FFF7FEFF 		bl	memcpy
 2107              	.LVL99:
 2108 0172 2868     		ldr	r0, [r5]
 2109 0174 2168     		ldr	r1, [r4]
 249:.\src/waterControl.c **** 	tmp = conv_i2str(respEnd, respFreeSpace, water_data.LastStartFlow);
 2110              		.loc 1 249 0
 2111 0176 FA69     		ldr	r2, [r7, #28]
 248:.\src/waterControl.c **** 	ADD_STATIC_STRING_TO_RESP(",{\"n\":\"LastStartFlow\",\"t\":\"i\",\"v\":");
 2112              		.loc 1 248 0
 2113 0178 2239     		sub	r1, r1, #34
 2114 017a 2230     		add	r0, r0, #34
 2115 017c 2860     		str	r0, [r5]
 2116 017e 2160     		str	r1, [r4]
 249:.\src/waterControl.c **** 	tmp = conv_i2str(respEnd, respFreeSpace, water_data.LastStartFlow);
 2117              		.loc 1 249 0
 2118 0180 FFF7FEFF 		bl	conv_i2str
 2119              	.LVL100:
 250:.\src/waterControl.c **** 	respEnd += tmp;
 2120              		.loc 1 250 0
 2121 0184 2A68     		ldr	r2, [r5]
 2122 0186 1318     		add	r3, r2, r0
 251:.\src/waterControl.c **** 	respFreeSpace -= tmp;
 2123              		.loc 1 251 0
 2124 0188 2268     		ldr	r2, [r4]
 2125 018a 101A     		sub	r0, r2, r0
 2126              	.LVL101:
 252:.\src/waterControl.c **** 	ADD_CHAR_TO_RESP('}');
 2127              		.loc 1 252 0
 2128 018c 5A1C     		add	r2, r3, #1
 251:.\src/waterControl.c **** 	respFreeSpace -= tmp;
ARM GAS  C:\Users\SDEVAS~1\AppData\Local\Temp\ccjJ67Vt.s 			page 45


 2129              		.loc 1 251 0
 2130 018e 2060     		str	r0, [r4]
 252:.\src/waterControl.c **** 	ADD_CHAR_TO_RESP('}');
 2131              		.loc 1 252 0
 2132 0190 2A60     		str	r2, [r5]
 2133 0192 1E70     		strb	r6, [r3]
 2134 0194 2368     		ldr	r3, [r4]
 2135 0196 013B     		sub	r3, r3, #1
 2136 0198 2360     		str	r3, [r4]
 2137              		.loc 1 253 0
 2138 019a F8BD     		pop	{r3, r4, r5, r6, r7, pc}
 2139              	.L202:
 2140              		.align	2
 2141              	.L201:
 2142 019c 00000000 		.word	respEnd
 2143 01a0 00000000 		.word	.LC80
 2144 01a4 00000000 		.word	respFreeSpace
 2145 01a8 00000000 		.word	water_data
 2146 01ac 22000000 		.word	.LC84
 2147 01b0 45000000 		.word	.LC86
 2148 01b4 66000000 		.word	.LC88
 2149 01b8 87000000 		.word	.LC90
 2150 01bc A8000000 		.word	.LC92
 2151 01c0 CD000000 		.word	.LC94
 2152 01c4 F2000000 		.word	.LC96
 2153              		.cfi_endproc
 2154              	.LFE102:
 2155              		.size	comm_GenerateInfo, .-comm_GenerateInfo
 2156              		.section	.text.fsmIfaceWaterControl_updateOpVals,"ax",%progbits
 2157              		.align	1
 2158              		.global	fsmIfaceWaterControl_updateOpVals
 2159              		.code	16
 2160              		.thumb_func
 2161              		.type	fsmIfaceWaterControl_updateOpVals, %function
 2162              	fsmIfaceWaterControl_updateOpVals:
 2163              	.LFB103:
 254:.\src/waterControl.c **** 
 255:.\src/waterControl.c **** 
 256:.\src/waterControl.c **** int opVals[24][4]=
 257:.\src/waterControl.c **** {
 258:.\src/waterControl.c ****     //At startup everything should be set to zero until vals are downloaded
 259:.\src/waterControl.c ****     //{Time of day, valve mode, minutes on, total max vol}
 260:.\src/waterControl.c ****     {0,OFF,0,0},
 261:.\src/waterControl.c ****     {1,OFF,0,0},
 262:.\src/waterControl.c ****     {2,OFF,0,0},
 263:.\src/waterControl.c ****     {3,OFF,0,0},
 264:.\src/waterControl.c ****     {4,OFF,0,0},
 265:.\src/waterControl.c ****     {5,OFF,0,0},
 266:.\src/waterControl.c ****     {6,OFF,0,0},
 267:.\src/waterControl.c ****     {7,OFF,0,0},
 268:.\src/waterControl.c ****     {8,ON,5,5},
 269:.\src/waterControl.c ****     {9,ON,6,11},
 270:.\src/waterControl.c ****     {10,ON,7,18},
 271:.\src/waterControl.c ****     {11,ON,8,26},
 272:.\src/waterControl.c ****     {12,ON,9,35},
 273:.\src/waterControl.c ****     {13,ON,10,45},
 274:.\src/waterControl.c ****     {14,ON,9,54},
ARM GAS  C:\Users\SDEVAS~1\AppData\Local\Temp\ccjJ67Vt.s 			page 46


 275:.\src/waterControl.c ****     {15,ON,8,62},
 276:.\src/waterControl.c ****     {16,ON,7,69},
 277:.\src/waterControl.c ****     {17,ON,6,75},
 278:.\src/waterControl.c ****     {18,OFF,0,75},
 279:.\src/waterControl.c ****     {19,OFF,0,75},
 280:.\src/waterControl.c ****     {20,OFF,0,75},
 281:.\src/waterControl.c ****     {21,OFF,0,75},
 282:.\src/waterControl.c ****     {22,OFF,0,75},
 283:.\src/waterControl.c ****     {23,OFF,0,75}
 284:.\src/waterControl.c **** };
 285:.\src/waterControl.c **** 
 286:.\src/waterControl.c **** void fsmIfaceWaterControl_updateOpVals(){
 2164              		.loc 1 286 0
 2165              		.cfi_startproc
 2166 0000 08B5     		push	{r3, lr}
 2167              		.cfi_def_cfa_offset 8
 2168              		.cfi_offset 3, -8
 2169              		.cfi_offset 14, -4
 287:.\src/waterControl.c ****     //TODO
 288:.\src/waterControl.c ****     //Update the operation vals based on Info coming from mc200
 289:.\src/waterControl.c ****     UART_UartPutString("updateOpVals\n\r");
 2170              		.loc 1 289 0
 2171 0002 0248     		ldr	r0, .L204
 2172 0004 FFF7FEFF 		bl	UART_UartPutString
 2173              	.LVL102:
 290:.\src/waterControl.c **** }
 2174              		.loc 1 290 0
 2175              		@ sp needed
 2176 0008 08BD     		pop	{r3, pc}
 2177              	.L205:
 2178 000a C046     		.align	2
 2179              	.L204:
 2180 000c 15010000 		.word	.LC98
 2181              		.cfi_endproc
 2182              	.LFE103:
 2183              		.size	fsmIfaceWaterControl_updateOpVals, .-fsmIfaceWaterControl_updateOpVals
 2184              		.section	.text.fsmIfaceWaterControl_setExpTime,"ax",%progbits
 2185              		.align	1
 2186              		.global	fsmIfaceWaterControl_setExpTime
 2187              		.code	16
 2188              		.thumb_func
 2189              		.type	fsmIfaceWaterControl_setExpTime, %function
 2190              	fsmIfaceWaterControl_setExpTime:
 2191              	.LFB104:
 291:.\src/waterControl.c **** 
 292:.\src/waterControl.c **** void fsmIfaceWaterControl_setExpTime(){
 2192              		.loc 1 292 0
 2193              		.cfi_startproc
 2194 0000 37B5     		push	{r0, r1, r2, r4, r5, lr}
 2195              		.cfi_def_cfa_offset 24
 2196              		.cfi_offset 0, -24
 2197              		.cfi_offset 1, -20
 2198              		.cfi_offset 2, -16
 2199              		.cfi_offset 4, -12
 2200              		.cfi_offset 5, -8
 2201              		.cfi_offset 14, -4
 293:.\src/waterControl.c ****     currentTime = getTime();
ARM GAS  C:\Users\SDEVAS~1\AppData\Local\Temp\ccjJ67Vt.s 			page 47


 2202              		.loc 1 293 0
 2203 0002 0F4D     		ldr	r5, .L208
 2204 0004 6846     		mov	r0, sp
 2205 0006 FFF7FEFF 		bl	getTime
 2206              	.LVL103:
 2207 000a 6946     		mov	r1, sp
 2208 000c 0522     		mov	r2, #5
 2209 000e 281C     		mov	r0, r5
 2210 0010 FFF7FEFF 		bl	memcpy
 2211              	.LVL104:
 294:.\src/waterControl.c ****     expTime = currentTime;
 2212              		.loc 1 294 0
 2213 0014 0B4C     		ldr	r4, .L208+4
 2214 0016 291C     		mov	r1, r5
 2215 0018 0522     		mov	r2, #5
 2216 001a 201C     		mov	r0, r4
 2217 001c FFF7FEFF 		bl	memcpy
 2218              	.LVL105:
 295:.\src/waterControl.c ****     int operationMins = opVals[currentTime.hours][1];
 2219              		.loc 1 295 0
 2220 0020 AA78     		ldrb	r2, [r5, #2]
 2221              	.LVL106:
 2222 0022 0949     		ldr	r1, .L208+8
 2223 0024 1301     		lsl	r3, r2, #4
 2224 0026 CB18     		add	r3, r1, r3
 296:.\src/waterControl.c ****        
 297:.\src/waterControl.c ****     expTime.mins += operationMins;
 2225              		.loc 1 297 0
 2226 0028 5968     		ldr	r1, [r3, #4]
 2227 002a 6378     		ldrb	r3, [r4, #1]
 2228 002c CB18     		add	r3, r1, r3
 2229 002e DBB2     		uxtb	r3, r3
 2230 0030 6370     		strb	r3, [r4, #1]
 298:.\src/waterControl.c ****     if(expTime.mins >= 60){
 2231              		.loc 1 298 0
 2232 0032 3B2B     		cmp	r3, #59
 2233 0034 03D9     		bls	.L206
 299:.\src/waterControl.c ****         expTime.hours+=1;
 2234              		.loc 1 299 0
 2235 0036 0132     		add	r2, r2, #1
 300:.\src/waterControl.c ****         expTime.mins-=60;
 2236              		.loc 1 300 0
 2237 0038 3C3B     		sub	r3, r3, #60
 299:.\src/waterControl.c ****         expTime.hours+=1;
 2238              		.loc 1 299 0
 2239 003a A270     		strb	r2, [r4, #2]
 2240              		.loc 1 300 0
 2241 003c 6370     		strb	r3, [r4, #1]
 2242              	.L206:
 301:.\src/waterControl.c ****     }
 302:.\src/waterControl.c **** }
 2243              		.loc 1 302 0
 2244              		@ sp needed
 2245              	.LVL107:
 2246 003e 37BD     		pop	{r0, r1, r2, r4, r5, pc}
 2247              	.L209:
 2248              		.align	2
ARM GAS  C:\Users\SDEVAS~1\AppData\Local\Temp\ccjJ67Vt.s 			page 48


 2249              	.L208:
 2250 0040 00000000 		.word	currentTime
 2251 0044 00000000 		.word	expTime
 2252 0048 00000000 		.word	.LANCHOR1
 2253              		.cfi_endproc
 2254              	.LFE104:
 2255              		.size	fsmIfaceWaterControl_setExpTime, .-fsmIfaceWaterControl_setExpTime
 2256              		.section	.text.fsmIfaceWaterControl_getOpMode,"ax",%progbits
 2257              		.align	1
 2258              		.global	fsmIfaceWaterControl_getOpMode
 2259              		.code	16
 2260              		.thumb_func
 2261              		.type	fsmIfaceWaterControl_getOpMode, %function
 2262              	fsmIfaceWaterControl_getOpMode:
 2263              	.LFB105:
 303:.\src/waterControl.c **** 
 304:.\src/waterControl.c **** sc_integer fsmIfaceWaterControl_getOpMode(){
 2264              		.loc 1 304 0
 2265              		.cfi_startproc
 2266 0000 07B5     		push	{r0, r1, r2, lr}
 2267              		.cfi_def_cfa_offset 16
 2268              		.cfi_offset 0, -16
 2269              		.cfi_offset 1, -12
 2270              		.cfi_offset 2, -8
 2271              		.cfi_offset 14, -4
 305:.\src/waterControl.c ****     currentTime = getTime();
 2272              		.loc 1 305 0
 2273 0002 6846     		mov	r0, sp
 2274 0004 FFF7FEFF 		bl	getTime
 2275              	.LVL108:
 2276 0008 0348     		ldr	r0, .L211
 2277 000a 6946     		mov	r1, sp
 2278 000c 0522     		mov	r2, #5
 2279 000e FFF7FEFF 		bl	memcpy
 2280              	.LVL109:
 306:.\src/waterControl.c ****     int mode = opVals[currentTime.hours][1];
 307:.\src/waterControl.c ****     
 308:.\src/waterControl.c ****     if(currentTime.hours > expTime.hours){
 309:.\src/waterControl.c ****         mode=OFF;
 310:.\src/waterControl.c ****     }
 311:.\src/waterControl.c ****     if(currentTime.hours == expTime.hours && currentTime.mins >= expTime.mins){
 312:.\src/waterControl.c ****         mode=OFF;
 313:.\src/waterControl.c ****     }
 314:.\src/waterControl.c ****         
 315:.\src/waterControl.c **** //    UART_UartPutString("checkOpMode  : ");
 316:.\src/waterControl.c **** //    UART_UartPutChar(mode);
 317:.\src/waterControl.c **** //    UART_UartPutString("\r\n");
 318:.\src/waterControl.c ****     
 319:.\src/waterControl.c ****     //return mode;
 320:.\src/waterControl.c ****     return 1;
 321:.\src/waterControl.c **** }
 2281              		.loc 1 321 0
 2282              		@ sp needed
 2283 0012 0120     		mov	r0, #1
 2284 0014 0EBD     		pop	{r1, r2, r3, pc}
 2285              	.L212:
 2286 0016 C046     		.align	2
ARM GAS  C:\Users\SDEVAS~1\AppData\Local\Temp\ccjJ67Vt.s 			page 49


 2287              	.L211:
 2288 0018 00000000 		.word	currentTime
 2289              		.cfi_endproc
 2290              	.LFE105:
 2291              		.size	fsmIfaceWaterControl_getOpMode, .-fsmIfaceWaterControl_getOpMode
 2292              		.section	.text.fsmIfaceWaterControl_getCurrentVolume,"ax",%progbits
 2293              		.align	1
 2294              		.global	fsmIfaceWaterControl_getCurrentVolume
 2295              		.code	16
 2296              		.thumb_func
 2297              		.type	fsmIfaceWaterControl_getCurrentVolume, %function
 2298              	fsmIfaceWaterControl_getCurrentVolume:
 2299              	.LFB106:
 322:.\src/waterControl.c **** 
 323:.\src/waterControl.c **** sc_integer fsmIfaceWaterControl_getCurrentVolume(){
 2300              		.loc 1 323 0
 2301              		.cfi_startproc
 324:.\src/waterControl.c ****     //TODO
 325:.\src/waterControl.c ****     //make sure that we are not exeeding the maximum volume
 326:.\src/waterControl.c ****     
 327:.\src/waterControl.c **** //    UART_UartPutString("checkVolume\n\r");
 328:.\src/waterControl.c ****     return 1;
 329:.\src/waterControl.c **** }
 2302              		.loc 1 329 0
 2303 0000 0120     		mov	r0, #1
 2304              		@ sp needed
 2305 0002 7047     		bx	lr
 2306              		.cfi_endproc
 2307              	.LFE106:
 2308              		.size	fsmIfaceWaterControl_getCurrentVolume, .-fsmIfaceWaterControl_getCurrentVolume
 2309              		.section	.text.fsmIfaceWaterControl_getMaxVolume,"ax",%progbits
 2310              		.align	1
 2311              		.global	fsmIfaceWaterControl_getMaxVolume
 2312              		.code	16
 2313              		.thumb_func
 2314              		.type	fsmIfaceWaterControl_getMaxVolume, %function
 2315              	fsmIfaceWaterControl_getMaxVolume:
 2316              	.LFB107:
 330:.\src/waterControl.c **** 
 331:.\src/waterControl.c **** sc_integer fsmIfaceWaterControl_getMaxVolume(){
 2317              		.loc 1 331 0
 2318              		.cfi_startproc
 332:.\src/waterControl.c ****     //return opVals[getTime().hours][3];
 333:.\src/waterControl.c ****     return 1000;
 2319              		.loc 1 333 0
 2320 0000 FA20     		mov	r0, #250
 334:.\src/waterControl.c **** }    
 2321              		.loc 1 334 0
 2322 0002 8000     		lsl	r0, r0, #2
 2323              		@ sp needed
 2324 0004 7047     		bx	lr
 2325              		.cfi_endproc
 2326              	.LFE107:
 2327              		.size	fsmIfaceWaterControl_getMaxVolume, .-fsmIfaceWaterControl_getMaxVolume
 2328              		.section	.text.fsmIfaceWaterControl_valveOn,"ax",%progbits
 2329              		.align	1
 2330              		.global	fsmIfaceWaterControl_valveOn
ARM GAS  C:\Users\SDEVAS~1\AppData\Local\Temp\ccjJ67Vt.s 			page 50


 2331              		.code	16
 2332              		.thumb_func
 2333              		.type	fsmIfaceWaterControl_valveOn, %function
 2334              	fsmIfaceWaterControl_valveOn:
 2335              	.LFB108:
 335:.\src/waterControl.c **** void fsmIfaceWaterControl_valveOn(){
 2336              		.loc 1 335 0
 2337              		.cfi_startproc
 336:.\src/waterControl.c ****     //TODO
 337:.\src/waterControl.c ****     //switch valve on
 338:.\src/waterControl.c **** //	UART_UartPutString("valveOn\r\n");
 339:.\src/waterControl.c **** }
 2338              		.loc 1 339 0
 2339              		@ sp needed
 2340 0000 7047     		bx	lr
 2341              		.cfi_endproc
 2342              	.LFE108:
 2343              		.size	fsmIfaceWaterControl_valveOn, .-fsmIfaceWaterControl_valveOn
 2344              		.section	.text.fsmIfaceWaterControl_valveOff,"ax",%progbits
 2345              		.align	1
 2346              		.global	fsmIfaceWaterControl_valveOff
 2347              		.code	16
 2348              		.thumb_func
 2349              		.type	fsmIfaceWaterControl_valveOff, %function
 2350              	fsmIfaceWaterControl_valveOff:
 2351              	.LFB109:
 340:.\src/waterControl.c **** 
 341:.\src/waterControl.c **** void fsmIfaceWaterControl_valveOff(){
 2352              		.loc 1 341 0
 2353              		.cfi_startproc
 2354 0000 08B5     		push	{r3, lr}
 2355              		.cfi_def_cfa_offset 8
 2356              		.cfi_offset 3, -8
 2357              		.cfi_offset 14, -4
 342:.\src/waterControl.c ****     //TODO
 343:.\src/waterControl.c ****     //switch valve off
 344:.\src/waterControl.c **** //    UART_UartPutString("valveOff\r\n");
 345:.\src/waterControl.c **** 	LED_Write(0u);
 2358              		.loc 1 345 0
 2359 0002 0020     		mov	r0, #0
 2360 0004 FFF7FEFF 		bl	LED_Write
 2361              	.LVL110:
 346:.\src/waterControl.c **** }
 2362              		.loc 1 346 0
 2363              		@ sp needed
 2364 0008 08BD     		pop	{r3, pc}
 2365              		.cfi_endproc
 2366              	.LFE109:
 2367              		.size	fsmIfaceWaterControl_valveOff, .-fsmIfaceWaterControl_valveOff
 2368              		.section	.text.fsmIfaceWaterControl_sendStats,"ax",%progbits
 2369              		.align	1
 2370              		.global	fsmIfaceWaterControl_sendStats
 2371              		.code	16
 2372              		.thumb_func
 2373              		.type	fsmIfaceWaterControl_sendStats, %function
 2374              	fsmIfaceWaterControl_sendStats:
 2375              	.LFB110:
ARM GAS  C:\Users\SDEVAS~1\AppData\Local\Temp\ccjJ67Vt.s 			page 51


 347:.\src/waterControl.c **** 
 348:.\src/waterControl.c **** void fsmIfaceWaterControl_sendStats(){
 2376              		.loc 1 348 0
 2377              		.cfi_startproc
 2378 0000 00B5     		push	{lr}
 2379              		.cfi_def_cfa_offset 4
 2380              		.cfi_offset 14, -4
 349:.\src/waterControl.c **** 	comm_ScheduleMessage("Info", 4, 'X', '0');
 2381              		.loc 1 349 0
 2382 0002 3023     		mov	r3, #48
 348:.\src/waterControl.c **** void fsmIfaceWaterControl_sendStats(){
 2383              		.loc 1 348 0
 2384 0004 89B0     		sub	sp, sp, #36
 2385              		.cfi_def_cfa_offset 40
 2386              		.loc 1 349 0
 2387 0006 0421     		mov	r1, #4
 2388 0008 5822     		mov	r2, #88
 2389 000a 1148     		ldr	r0, .L218
 2390 000c FFF7FEFF 		bl	comm_ScheduleMessage
 2391              	.LVL111:
 350:.\src/waterControl.c **** //    int temp;
 351:.\src/waterControl.c ****     char tmpstr[25];
 352:.\src/waterControl.c **** //    temp = PressureSensor1_Read();
 353:.\src/waterControl.c ****     sprintf(tmpstr, "Pressure 1 = %d\r\n", PressureSensor1_Read());    
 2392              		.loc 1 353 0
 2393 0010 FFF7FEFF 		bl	PressureSensor1_Read
 2394              	.LVL112:
 2395 0014 0F49     		ldr	r1, .L218+4
 2396 0016 021C     		mov	r2, r0
 2397 0018 01A8     		add	r0, sp, #4
 2398 001a FFF7FEFF 		bl	sprintf
 2399              	.LVL113:
 354:.\src/waterControl.c ****     UART_UartPutString(tmpstr);
 2400              		.loc 1 354 0
 2401 001e 01A8     		add	r0, sp, #4
 2402 0020 FFF7FEFF 		bl	UART_UartPutString
 2403              	.LVL114:
 355:.\src/waterControl.c ****     
 356:.\src/waterControl.c ****     sprintf(tmpstr, "Pressure 2 = %d\r\n", PressureSensor2_Read());    
 2404              		.loc 1 356 0
 2405 0024 FFF7FEFF 		bl	PressureSensor2_Read
 2406              	.LVL115:
 2407 0028 0B49     		ldr	r1, .L218+8
 2408 002a 021C     		mov	r2, r0
 2409 002c 01A8     		add	r0, sp, #4
 2410 002e FFF7FEFF 		bl	sprintf
 2411              	.LVL116:
 357:.\src/waterControl.c ****     UART_UartPutString(tmpstr);
 2412              		.loc 1 357 0
 2413 0032 01A8     		add	r0, sp, #4
 2414 0034 FFF7FEFF 		bl	UART_UartPutString
 2415              	.LVL117:
 358:.\src/waterControl.c ****     
 359:.\src/waterControl.c ****     sprintf(tmpstr, "Flow = %d\r\n", FlowSensor1_Read());    
 2416              		.loc 1 359 0
 2417 0038 FFF7FEFF 		bl	FlowSensor1_Read
 2418              	.LVL118:
ARM GAS  C:\Users\SDEVAS~1\AppData\Local\Temp\ccjJ67Vt.s 			page 52


 2419 003c 0749     		ldr	r1, .L218+12
 2420 003e 021C     		mov	r2, r0
 2421 0040 01A8     		add	r0, sp, #4
 2422 0042 FFF7FEFF 		bl	sprintf
 2423              	.LVL119:
 360:.\src/waterControl.c ****     UART_UartPutString(tmpstr);
 2424              		.loc 1 360 0
 2425 0046 01A8     		add	r0, sp, #4
 2426 0048 FFF7FEFF 		bl	UART_UartPutString
 2427              	.LVL120:
 361:.\src/waterControl.c ****     
 362:.\src/waterControl.c **** }
 2428              		.loc 1 362 0
 2429 004c 09B0     		add	sp, sp, #36
 2430              		@ sp needed
 2431 004e 00BD     		pop	{pc}
 2432              	.L219:
 2433              		.align	2
 2434              	.L218:
 2435 0050 24010000 		.word	.LC104
 2436 0054 29010000 		.word	.LC106
 2437 0058 3B010000 		.word	.LC108
 2438 005c 4D010000 		.word	.LC110
 2439              		.cfi_endproc
 2440              	.LFE110:
 2441              		.size	fsmIfaceWaterControl_sendStats, .-fsmIfaceWaterControl_sendStats
 2442              		.global	opVals
 2443              		.comm	water_data,252,4
 2444              		.comm	expTime,5,1
 2445              		.comm	currentTime,5,1
 2446              		.section	.rodata.str1.1,"aMS",%progbits,1
 2447              	.LC80:
 2448 0000 7B226E22 		.ascii	"{\"n\":\"InnerPressure\",\"t\":\"i\",\"v\":\000"
 2448      3A22496E 
 2448      6E657250 
 2448      72657373 
 2448      75726522 
 2449              	.LC84:
 2450 0022 2C7B226E 		.ascii	",{\"n\":\"OuterPressure\",\"t\":\"i\",\"v\":\000"
 2450      223A224F 
 2450      75746572 
 2450      50726573 
 2450      73757265 
 2451              	.LC86:
 2452 0045 2C7B226E 		.ascii	",{\"n\":\"CurrentFlow\",\"t\":\"i\",\"v\":\000"
 2452      223A2243 
 2452      75727265 
 2452      6E74466C 
 2452      6F77222C 
 2453              	.LC88:
 2454 0066 2C7B226E 		.ascii	",{\"n\":\"TotalVolume\",\"t\":\"i\",\"v\":\000"
 2454      223A2254 
 2454      6F74616C 
 2454      566F6C75 
 2454      6D65222C 
 2455              	.LC90:
 2456 0087 2C7B226E 		.ascii	",{\"n\":\"ValveStatus\",\"t\":\"i\",\"v\":\000"
ARM GAS  C:\Users\SDEVAS~1\AppData\Local\Temp\ccjJ67Vt.s 			page 53


 2456      223A2256 
 2456      616C7665 
 2456      53746174 
 2456      7573222C 
 2457              	.LC92:
 2458 00a8 2C7B226E 		.ascii	",{\"n\":\"LastStartNumber\",\"t\":\"i\",\"v\":\000"
 2458      223A224C 
 2458      61737453 
 2458      74617274 
 2458      4E756D62 
 2459              	.LC94:
 2460 00cd 2C7B226E 		.ascii	",{\"n\":\"LastStartVolume\",\"t\":\"i\",\"v\":\000"
 2460      223A224C 
 2460      61737453 
 2460      74617274 
 2460      566F6C75 
 2461              	.LC96:
 2462 00f2 2C7B226E 		.ascii	",{\"n\":\"LastStartFlow\",\"t\":\"i\",\"v\":\000"
 2462      223A224C 
 2462      61737453 
 2462      74617274 
 2462      466C6F77 
 2463              	.LC98:
 2464 0115 75706461 		.ascii	"updateOpVals\012\015\000"
 2464      74654F70 
 2464      56616C73 
 2464      0A0D00
 2465              	.LC104:
 2466 0124 496E666F 		.ascii	"Info\000"
 2466      00
 2467              	.LC106:
 2468 0129 50726573 		.ascii	"Pressure 1 = %d\015\012\000"
 2468      73757265 
 2468      2031203D 
 2468      2025640D 
 2468      0A00
 2469              	.LC108:
 2470 013b 50726573 		.ascii	"Pressure 2 = %d\015\012\000"
 2470      73757265 
 2470      2032203D 
 2470      2025640D 
 2470      0A00
 2471              	.LC110:
 2472 014d 466C6F77 		.ascii	"Flow = %d\015\012\000"
 2472      203D2025 
 2472      640D0A00 
 2473              		.data
 2474              		.align	2
 2475              		.set	.LANCHOR1,. + 0
 2476              		.type	opVals, %object
 2477              		.size	opVals, 384
 2478              	opVals:
 2479 0000 00000000 		.word	0
 2480 0004 00000000 		.word	0
 2481 0008 00000000 		.word	0
 2482 000c 00000000 		.word	0
 2483 0010 01000000 		.word	1
ARM GAS  C:\Users\SDEVAS~1\AppData\Local\Temp\ccjJ67Vt.s 			page 54


 2484 0014 00000000 		.word	0
 2485 0018 00000000 		.word	0
 2486 001c 00000000 		.word	0
 2487 0020 02000000 		.word	2
 2488 0024 00000000 		.word	0
 2489 0028 00000000 		.word	0
 2490 002c 00000000 		.word	0
 2491 0030 03000000 		.word	3
 2492 0034 00000000 		.word	0
 2493 0038 00000000 		.word	0
 2494 003c 00000000 		.word	0
 2495 0040 04000000 		.word	4
 2496 0044 00000000 		.word	0
 2497 0048 00000000 		.word	0
 2498 004c 00000000 		.word	0
 2499 0050 05000000 		.word	5
 2500 0054 00000000 		.word	0
 2501 0058 00000000 		.word	0
 2502 005c 00000000 		.word	0
 2503 0060 06000000 		.word	6
 2504 0064 00000000 		.word	0
 2505 0068 00000000 		.word	0
 2506 006c 00000000 		.word	0
 2507 0070 07000000 		.word	7
 2508 0074 00000000 		.word	0
 2509 0078 00000000 		.word	0
 2510 007c 00000000 		.word	0
 2511 0080 08000000 		.word	8
 2512 0084 01000000 		.word	1
 2513 0088 05000000 		.word	5
 2514 008c 05000000 		.word	5
 2515 0090 09000000 		.word	9
 2516 0094 01000000 		.word	1
 2517 0098 06000000 		.word	6
 2518 009c 0B000000 		.word	11
 2519 00a0 0A000000 		.word	10
 2520 00a4 01000000 		.word	1
 2521 00a8 07000000 		.word	7
 2522 00ac 12000000 		.word	18
 2523 00b0 0B000000 		.word	11
 2524 00b4 01000000 		.word	1
 2525 00b8 08000000 		.word	8
 2526 00bc 1A000000 		.word	26
 2527 00c0 0C000000 		.word	12
 2528 00c4 01000000 		.word	1
 2529 00c8 09000000 		.word	9
 2530 00cc 23000000 		.word	35
 2531 00d0 0D000000 		.word	13
 2532 00d4 01000000 		.word	1
 2533 00d8 0A000000 		.word	10
 2534 00dc 2D000000 		.word	45
 2535 00e0 0E000000 		.word	14
 2536 00e4 01000000 		.word	1
 2537 00e8 09000000 		.word	9
 2538 00ec 36000000 		.word	54
 2539 00f0 0F000000 		.word	15
 2540 00f4 01000000 		.word	1
ARM GAS  C:\Users\SDEVAS~1\AppData\Local\Temp\ccjJ67Vt.s 			page 55


 2541 00f8 08000000 		.word	8
 2542 00fc 3E000000 		.word	62
 2543 0100 10000000 		.word	16
 2544 0104 01000000 		.word	1
 2545 0108 07000000 		.word	7
 2546 010c 45000000 		.word	69
 2547 0110 11000000 		.word	17
 2548 0114 01000000 		.word	1
 2549 0118 06000000 		.word	6
 2550 011c 4B000000 		.word	75
 2551 0120 12000000 		.word	18
 2552 0124 00000000 		.word	0
 2553 0128 00000000 		.word	0
 2554 012c 4B000000 		.word	75
 2555 0130 13000000 		.word	19
 2556 0134 00000000 		.word	0
 2557 0138 00000000 		.word	0
 2558 013c 4B000000 		.word	75
 2559 0140 14000000 		.word	20
 2560 0144 00000000 		.word	0
 2561 0148 00000000 		.word	0
 2562 014c 4B000000 		.word	75
 2563 0150 15000000 		.word	21
 2564 0154 00000000 		.word	0
 2565 0158 00000000 		.word	0
 2566 015c 4B000000 		.word	75
 2567 0160 16000000 		.word	22
 2568 0164 00000000 		.word	0
 2569 0168 00000000 		.word	0
 2570 016c 4B000000 		.word	75
 2571 0170 17000000 		.word	23
 2572 0174 00000000 		.word	0
 2573 0178 00000000 		.word	0
 2574 017c 4B000000 		.word	75
 2575              		.bss
 2576              		.align	2
 2577              		.set	.LANCHOR0,. + 0
 2578              		.type	fttmparr, %object
 2579              		.size	fttmparr, 16
 2580              	fttmparr:
 2581 0000 00000000 		.space	16
 2581      00000000 
 2581      00000000 
 2581      00000000 
 2582              		.text
 2583              	.Letext0:
 2584              		.file 2 "c:\\program files (x86)\\cypress\\psoc creator\\3.2\\psoc creator\\import\\gnu\\arm\\4.8.
 2585              		.file 3 "c:\\program files (x86)\\cypress\\psoc creator\\3.2\\psoc creator\\import\\gnu\\arm\\4.8.
 2586              		.file 4 "Generated_Source\\PSoC4/cytypes.h"
 2587              		.file 5 "./src-fsm/sc_types.h"
 2588              		.file 6 ".\\src\\main.h"
 2589              		.file 7 "Generated_Source\\PSoC4/comm.h"
 2590              		.file 8 "Generated_Source\\PSoC4/comm_conv.h"
 2591              		.file 9 "Generated_Source\\PSoC4/UART_SPI_UART.h"
 2592              		.file 10 "Generated_Source\\PSoC4/LED.h"
 2593              		.file 11 "c:\\program files (x86)\\cypress\\psoc creator\\3.2\\psoc creator\\import\\gnu\\arm\\4.8
 2594              		.file 12 ".\\src\\hwInterface.h"
ARM GAS  C:\Users\SDEVAS~1\AppData\Local\Temp\ccjJ67Vt.s 			page 56

