ARM GAS  C:\Users\SDEVAS~1\AppData\Local\Temp\ccoD9F0X.s 			page 1


   1              		.cpu cortex-m0
   2              		.fpu softvfp
   3              		.eabi_attribute 20, 1
   4              		.eabi_attribute 21, 1
   5              		.eabi_attribute 23, 3
   6              		.eabi_attribute 24, 1
   7              		.eabi_attribute 25, 1
   8              		.eabi_attribute 26, 1
   9              		.eabi_attribute 30, 6
  10              		.eabi_attribute 34, 0
  11              		.eabi_attribute 18, 4
  12              		.code	16
  13              		.file	"comm_conv.c"
  14              		.text
  15              	.Ltext0:
  16              		.cfi_sections	.debug_frame
  17              		.global	__aeabi_idivmod
  18              		.global	__aeabi_idiv
  19              		.section	.text.conv_i2str,"ax",%progbits
  20              		.align	2
  21              		.global	conv_i2str
  22              		.code	16
  23              		.thumb_func
  24              		.type	conv_i2str, %function
  25              	conv_i2str:
  26              	.LFB33:
  27              		.file 1 ".\\Generated_Source\\PSoC4\\comm_conv.c"
   1:.\Generated_Source\PSoC4/comm_conv.c **** #include <string.h>
   2:.\Generated_Source\PSoC4/comm_conv.c **** #include <project.h>
   3:.\Generated_Source\PSoC4/comm_conv.c **** 
   4:.\Generated_Source\PSoC4/comm_conv.c **** #define DOUBLE_CONV_PRECISION 6
   5:.\Generated_Source\PSoC4/comm_conv.c **** //we dont want to have power operator in code
   6:.\Generated_Source\PSoC4/comm_conv.c **** #define TEN_TO_DOUBLE_CONV_PRECISION_POWER 1000000
   7:.\Generated_Source\PSoC4/comm_conv.c **** 
   8:.\Generated_Source\PSoC4/comm_conv.c **** //CONVERSION FUNCTIONS
   9:.\Generated_Source\PSoC4/comm_conv.c **** int conv_i2str(char *str, int len, int val) {
  28              		.loc 1 9 0
  29              		.cfi_startproc
  30 0000 90B5     		push	{r4, r7, lr}
  31              		.cfi_def_cfa_offset 12
  32              		.cfi_offset 4, -12
  33              		.cfi_offset 7, -8
  34              		.cfi_offset 14, -4
  35 0002 89B0     		sub	sp, sp, #36
  36              		.cfi_def_cfa_offset 48
  37 0004 00AF     		add	r7, sp, #0
  38              		.cfi_def_cfa_register 7
  39 0006 F860     		str	r0, [r7, #12]
  40 0008 B960     		str	r1, [r7, #8]
  41 000a 7A60     		str	r2, [r7, #4]
  10:.\Generated_Source\PSoC4/comm_conv.c ****   int ret = 0;
  42              		.loc 1 10 0
  43 000c 0023     		mov	r3, #0
  44 000e FB61     		str	r3, [r7, #28]
  11:.\Generated_Source\PSoC4/comm_conv.c ****   int isNeg = (val < 0);
  45              		.loc 1 11 0
  46 0010 7B68     		ldr	r3, [r7, #4]
ARM GAS  C:\Users\SDEVAS~1\AppData\Local\Temp\ccoD9F0X.s 			page 2


  47 0012 DB0F     		lsr	r3, r3, #31
  48 0014 DBB2     		uxtb	r3, r3
  49 0016 7B61     		str	r3, [r7, #20]
  12:.\Generated_Source\PSoC4/comm_conv.c ****   if(isNeg) {*str++ = '-';  ret++; val *= -1;}
  50              		.loc 1 12 0
  51 0018 7B69     		ldr	r3, [r7, #20]
  52 001a 002B     		cmp	r3, #0
  53 001c 0AD0     		beq	.L2
  54              		.loc 1 12 0 is_stmt 0 discriminator 1
  55 001e FB68     		ldr	r3, [r7, #12]
  56 0020 5A1C     		add	r2, r3, #1
  57 0022 FA60     		str	r2, [r7, #12]
  58 0024 2D22     		mov	r2, #45
  59 0026 1A70     		strb	r2, [r3]
  60 0028 FB69     		ldr	r3, [r7, #28]
  61 002a 0133     		add	r3, r3, #1
  62 002c FB61     		str	r3, [r7, #28]
  63 002e 7B68     		ldr	r3, [r7, #4]
  64 0030 5B42     		neg	r3, r3
  65 0032 7B60     		str	r3, [r7, #4]
  66              	.L2:
  13:.\Generated_Source\PSoC4/comm_conv.c ****   char * tmp = str;
  67              		.loc 1 13 0 is_stmt 1
  68 0034 FB68     		ldr	r3, [r7, #12]
  69 0036 BB61     		str	r3, [r7, #24]
  14:.\Generated_Source\PSoC4/comm_conv.c ****   while(val > 9 && ret < len) {
  70              		.loc 1 14 0
  71 0038 16E0     		b	.L3
  72              	.L5:
  15:.\Generated_Source\PSoC4/comm_conv.c ****     *tmp++ = '0' + val%10;
  73              		.loc 1 15 0
  74 003a BC69     		ldr	r4, [r7, #24]
  75 003c 631C     		add	r3, r4, #1
  76 003e BB61     		str	r3, [r7, #24]
  77 0040 7B68     		ldr	r3, [r7, #4]
  78 0042 181C     		mov	r0, r3
  79 0044 0A21     		mov	r1, #10
  80 0046 FFF7FEFF 		bl	__aeabi_idivmod
  81 004a 0B1C     		mov	r3, r1
  82 004c DBB2     		uxtb	r3, r3
  83 004e 3033     		add	r3, r3, #48
  84 0050 DBB2     		uxtb	r3, r3
  85 0052 2370     		strb	r3, [r4]
  16:.\Generated_Source\PSoC4/comm_conv.c ****     ret++;
  86              		.loc 1 16 0
  87 0054 FB69     		ldr	r3, [r7, #28]
  88 0056 0133     		add	r3, r3, #1
  89 0058 FB61     		str	r3, [r7, #28]
  17:.\Generated_Source\PSoC4/comm_conv.c ****     val /= 10;
  90              		.loc 1 17 0
  91 005a 7B68     		ldr	r3, [r7, #4]
  92 005c 181C     		mov	r0, r3
  93 005e 0A21     		mov	r1, #10
  94 0060 FFF7FEFF 		bl	__aeabi_idiv
  95 0064 031C     		mov	r3, r0
  96 0066 7B60     		str	r3, [r7, #4]
  97              	.L3:
ARM GAS  C:\Users\SDEVAS~1\AppData\Local\Temp\ccoD9F0X.s 			page 3


  14:.\Generated_Source\PSoC4/comm_conv.c ****   while(val > 9 && ret < len) {
  98              		.loc 1 14 0 discriminator 1
  99 0068 7B68     		ldr	r3, [r7, #4]
 100 006a 092B     		cmp	r3, #9
 101 006c 03DD     		ble	.L4
  14:.\Generated_Source\PSoC4/comm_conv.c ****   while(val > 9 && ret < len) {
 102              		.loc 1 14 0 is_stmt 0 discriminator 2
 103 006e FA69     		ldr	r2, [r7, #28]
 104 0070 BB68     		ldr	r3, [r7, #8]
 105 0072 9A42     		cmp	r2, r3
 106 0074 E1DB     		blt	.L5
 107              	.L4:
  18:.\Generated_Source\PSoC4/comm_conv.c ****   }
  19:.\Generated_Source\PSoC4/comm_conv.c ****   *tmp++ = '0' + val%10;
 108              		.loc 1 19 0 is_stmt 1
 109 0076 BC69     		ldr	r4, [r7, #24]
 110 0078 631C     		add	r3, r4, #1
 111 007a BB61     		str	r3, [r7, #24]
 112 007c 7B68     		ldr	r3, [r7, #4]
 113 007e 181C     		mov	r0, r3
 114 0080 0A21     		mov	r1, #10
 115 0082 FFF7FEFF 		bl	__aeabi_idivmod
 116 0086 0B1C     		mov	r3, r1
 117 0088 DBB2     		uxtb	r3, r3
 118 008a 3033     		add	r3, r3, #48
 119 008c DBB2     		uxtb	r3, r3
 120 008e 2370     		strb	r3, [r4]
  20:.\Generated_Source\PSoC4/comm_conv.c ****   ret++;
 121              		.loc 1 20 0
 122 0090 FB69     		ldr	r3, [r7, #28]
 123 0092 0133     		add	r3, r3, #1
 124 0094 FB61     		str	r3, [r7, #28]
  21:.\Generated_Source\PSoC4/comm_conv.c **** 
  22:.\Generated_Source\PSoC4/comm_conv.c ****   while(tmp-str > 1) {
 125              		.loc 1 22 0
 126 0096 12E0     		b	.L6
 127              	.L7:
 128              	.LBB2:
  23:.\Generated_Source\PSoC4/comm_conv.c ****     char t = *--tmp;
 129              		.loc 1 23 0
 130 0098 BB69     		ldr	r3, [r7, #24]
 131 009a 013B     		sub	r3, r3, #1
 132 009c BB61     		str	r3, [r7, #24]
 133 009e 3B1C     		mov	r3, r7
 134 00a0 1333     		add	r3, r3, #19
 135 00a2 BA69     		ldr	r2, [r7, #24]
 136 00a4 1278     		ldrb	r2, [r2]
 137 00a6 1A70     		strb	r2, [r3]
  24:.\Generated_Source\PSoC4/comm_conv.c ****     *tmp = *str;
 138              		.loc 1 24 0
 139 00a8 FB68     		ldr	r3, [r7, #12]
 140 00aa 1A78     		ldrb	r2, [r3]
 141 00ac BB69     		ldr	r3, [r7, #24]
 142 00ae 1A70     		strb	r2, [r3]
  25:.\Generated_Source\PSoC4/comm_conv.c ****     *str++ = t;
 143              		.loc 1 25 0
 144 00b0 FB68     		ldr	r3, [r7, #12]
ARM GAS  C:\Users\SDEVAS~1\AppData\Local\Temp\ccoD9F0X.s 			page 4


 145 00b2 5A1C     		add	r2, r3, #1
 146 00b4 FA60     		str	r2, [r7, #12]
 147 00b6 3A1C     		mov	r2, r7
 148 00b8 1332     		add	r2, r2, #19
 149 00ba 1278     		ldrb	r2, [r2]
 150 00bc 1A70     		strb	r2, [r3]
 151              	.L6:
 152              	.LBE2:
  22:.\Generated_Source\PSoC4/comm_conv.c ****   while(tmp-str > 1) {
 153              		.loc 1 22 0 discriminator 1
 154 00be BA69     		ldr	r2, [r7, #24]
 155 00c0 FB68     		ldr	r3, [r7, #12]
 156 00c2 D31A     		sub	r3, r2, r3
 157 00c4 012B     		cmp	r3, #1
 158 00c6 E7DC     		bgt	.L7
  26:.\Generated_Source\PSoC4/comm_conv.c ****   }
  27:.\Generated_Source\PSoC4/comm_conv.c **** 
  28:.\Generated_Source\PSoC4/comm_conv.c ****   return ret;//snprintf(str, len, "%d", val);
 159              		.loc 1 28 0
 160 00c8 FB69     		ldr	r3, [r7, #28]
  29:.\Generated_Source\PSoC4/comm_conv.c **** }
 161              		.loc 1 29 0
 162 00ca 181C     		mov	r0, r3
 163 00cc BD46     		mov	sp, r7
 164 00ce 09B0     		add	sp, sp, #36
 165              		@ sp needed
 166 00d0 90BD     		pop	{r4, r7, pc}
 167              		.cfi_endproc
 168              	.LFE33:
 169              		.size	conv_i2str, .-conv_i2str
 170 00d2 C046     		.section	.text.conv_s2str,"ax",%progbits
 171              		.align	2
 172              		.global	conv_s2str
 173              		.code	16
 174              		.thumb_func
 175              		.type	conv_s2str, %function
 176              	conv_s2str:
 177              	.LFB34:
  30:.\Generated_Source\PSoC4/comm_conv.c **** int conv_s2str(char *str, int len, char *val) {
 178              		.loc 1 30 0
 179              		.cfi_startproc
 180 0000 80B5     		push	{r7, lr}
 181              		.cfi_def_cfa_offset 8
 182              		.cfi_offset 7, -8
 183              		.cfi_offset 14, -4
 184 0002 86B0     		sub	sp, sp, #24
 185              		.cfi_def_cfa_offset 32
 186 0004 00AF     		add	r7, sp, #0
 187              		.cfi_def_cfa_register 7
 188 0006 F860     		str	r0, [r7, #12]
 189 0008 B960     		str	r1, [r7, #8]
 190 000a 7A60     		str	r2, [r7, #4]
  31:.\Generated_Source\PSoC4/comm_conv.c ****   int vallen = 0;
 191              		.loc 1 31 0
 192 000c 0023     		mov	r3, #0
 193 000e 7B61     		str	r3, [r7, #20]
  32:.\Generated_Source\PSoC4/comm_conv.c ****   while(*val++ != '\0') vallen++;
ARM GAS  C:\Users\SDEVAS~1\AppData\Local\Temp\ccoD9F0X.s 			page 5


 194              		.loc 1 32 0
 195 0010 02E0     		b	.L10
 196              	.L11:
 197              		.loc 1 32 0 is_stmt 0 discriminator 2
 198 0012 7B69     		ldr	r3, [r7, #20]
 199 0014 0133     		add	r3, r3, #1
 200 0016 7B61     		str	r3, [r7, #20]
 201              	.L10:
 202              		.loc 1 32 0 discriminator 1
 203 0018 7B68     		ldr	r3, [r7, #4]
 204 001a 5A1C     		add	r2, r3, #1
 205 001c 7A60     		str	r2, [r7, #4]
 206 001e 1B78     		ldrb	r3, [r3]
 207 0020 002B     		cmp	r3, #0
 208 0022 F6D1     		bne	.L11
  33:.\Generated_Source\PSoC4/comm_conv.c ****   val -= vallen+1;
 209              		.loc 1 33 0 is_stmt 1
 210 0024 7B69     		ldr	r3, [r7, #20]
 211 0026 DB43     		mvn	r3, r3
 212 0028 7A68     		ldr	r2, [r7, #4]
 213 002a D318     		add	r3, r2, r3
 214 002c 7B60     		str	r3, [r7, #4]
  34:.\Generated_Source\PSoC4/comm_conv.c **** 
  35:.\Generated_Source\PSoC4/comm_conv.c ****   if(len < vallen + 2) return 0;
 215              		.loc 1 35 0
 216 002e 7B69     		ldr	r3, [r7, #20]
 217 0030 9A1C     		add	r2, r3, #2
 218 0032 BB68     		ldr	r3, [r7, #8]
 219 0034 9A42     		cmp	r2, r3
 220 0036 01DD     		ble	.L12
 221              		.loc 1 35 0 is_stmt 0 discriminator 1
 222 0038 0023     		mov	r3, #0
 223 003a 13E0     		b	.L13
 224              	.L12:
  36:.\Generated_Source\PSoC4/comm_conv.c **** 
  37:.\Generated_Source\PSoC4/comm_conv.c ****   *str++ = '\"';
 225              		.loc 1 37 0 is_stmt 1
 226 003c FB68     		ldr	r3, [r7, #12]
 227 003e 5A1C     		add	r2, r3, #1
 228 0040 FA60     		str	r2, [r7, #12]
 229 0042 2222     		mov	r2, #34
 230 0044 1A70     		strb	r2, [r3]
  38:.\Generated_Source\PSoC4/comm_conv.c ****   memcpy(str, val, vallen);
 231              		.loc 1 38 0
 232 0046 7B69     		ldr	r3, [r7, #20]
 233 0048 F968     		ldr	r1, [r7, #12]
 234 004a 7A68     		ldr	r2, [r7, #4]
 235 004c 081C     		mov	r0, r1
 236 004e 111C     		mov	r1, r2
 237 0050 1A1C     		mov	r2, r3
 238 0052 FFF7FEFF 		bl	memcpy
  39:.\Generated_Source\PSoC4/comm_conv.c ****   *(str+vallen) = '\"';
 239              		.loc 1 39 0
 240 0056 7B69     		ldr	r3, [r7, #20]
 241 0058 FA68     		ldr	r2, [r7, #12]
 242 005a D318     		add	r3, r2, r3
 243 005c 2222     		mov	r2, #34
ARM GAS  C:\Users\SDEVAS~1\AppData\Local\Temp\ccoD9F0X.s 			page 6


 244 005e 1A70     		strb	r2, [r3]
  40:.\Generated_Source\PSoC4/comm_conv.c **** 
  41:.\Generated_Source\PSoC4/comm_conv.c ****   return vallen + 2; //return snprintf(str, len, "\"%s\"", val);
 245              		.loc 1 41 0
 246 0060 7B69     		ldr	r3, [r7, #20]
 247 0062 0233     		add	r3, r3, #2
 248              	.L13:
  42:.\Generated_Source\PSoC4/comm_conv.c **** }
 249              		.loc 1 42 0
 250 0064 181C     		mov	r0, r3
 251 0066 BD46     		mov	sp, r7
 252 0068 06B0     		add	sp, sp, #24
 253              		@ sp needed
 254 006a 80BD     		pop	{r7, pc}
 255              		.cfi_endproc
 256              	.LFE34:
 257              		.size	conv_s2str, .-conv_s2str
 258              		.global	__aeabi_d2iz
 259              		.global	__aeabi_dcmplt
 260              		.global	__aeabi_dcmpgt
 261              		.global	__aeabi_i2d
 262              		.global	__aeabi_dsub
 263              		.global	__aeabi_dmul
 264              		.section	.text.conv_d2str,"ax",%progbits
 265              		.align	2
 266              		.global	conv_d2str
 267              		.code	16
 268              		.thumb_func
 269              		.type	conv_d2str, %function
 270              	conv_d2str:
 271              	.LFB35:
  43:.\Generated_Source\PSoC4/comm_conv.c **** int conv_d2str(char *str, int len, double val) {
 272              		.loc 1 43 0
 273              		.cfi_startproc
 274 0000 90B5     		push	{r4, r7, lr}
 275              		.cfi_def_cfa_offset 12
 276              		.cfi_offset 4, -12
 277              		.cfi_offset 7, -8
 278              		.cfi_offset 14, -4
 279 0002 89B0     		sub	sp, sp, #36
 280              		.cfi_def_cfa_offset 48
 281 0004 00AF     		add	r7, sp, #0
 282              		.cfi_def_cfa_register 7
 283 0006 F860     		str	r0, [r7, #12]
 284 0008 B960     		str	r1, [r7, #8]
 285 000a 3A60     		str	r2, [r7]
 286 000c 7B60     		str	r3, [r7, #4]
  44:.\Generated_Source\PSoC4/comm_conv.c ****   int t = (int) val;
 287              		.loc 1 44 0
 288 000e 3868     		ldr	r0, [r7]
 289 0010 7968     		ldr	r1, [r7, #4]
 290 0012 FFF7FEFF 		bl	__aeabi_d2iz
 291 0016 031C     		mov	r3, r0
 292 0018 FB61     		str	r3, [r7, #28]
  45:.\Generated_Source\PSoC4/comm_conv.c ****   if(val < 0 && val > -1.0) t = -1;
 293              		.loc 1 45 0
 294 001a 3868     		ldr	r0, [r7]
ARM GAS  C:\Users\SDEVAS~1\AppData\Local\Temp\ccoD9F0X.s 			page 7


 295 001c 7968     		ldr	r1, [r7, #4]
 296 001e 5F4B     		ldr	r3, .L35+4
 297 0020 5D4A     		ldr	r2, .L35
 298 0022 FFF7FEFF 		bl	__aeabi_dcmplt
 299 0026 031C     		mov	r3, r0
 300 0028 002B     		cmp	r3, #0
 301 002a 0BD0     		beq	.L15
 302              		.loc 1 45 0 is_stmt 0 discriminator 1
 303 002c 3868     		ldr	r0, [r7]
 304 002e 7968     		ldr	r1, [r7, #4]
 305 0030 5B4A     		ldr	r2, .L35+8
 306 0032 5C4B     		ldr	r3, .L35+12
 307 0034 FFF7FEFF 		bl	__aeabi_dcmpgt
 308 0038 031C     		mov	r3, r0
 309 003a 002B     		cmp	r3, #0
 310 003c 02D0     		beq	.L15
 311 003e 0123     		mov	r3, #1
 312 0040 5B42     		neg	r3, r3
 313 0042 FB61     		str	r3, [r7, #28]
 314              	.L15:
  46:.\Generated_Source\PSoC4/comm_conv.c ****   int ret = conv_i2str(str, len, t);
 315              		.loc 1 46 0 is_stmt 1
 316 0044 F968     		ldr	r1, [r7, #12]
 317 0046 BA68     		ldr	r2, [r7, #8]
 318 0048 FB69     		ldr	r3, [r7, #28]
 319 004a 081C     		mov	r0, r1
 320 004c 111C     		mov	r1, r2
 321 004e 1A1C     		mov	r2, r3
 322 0050 FFF7FEFF 		bl	conv_i2str
 323 0054 031C     		mov	r3, r0
 324 0056 BB61     		str	r3, [r7, #24]
  47:.\Generated_Source\PSoC4/comm_conv.c ****   if(val < 0 && val > -1.0) { str[1] = '0'; t = 0; } //dirty hack for -0.123 values
 325              		.loc 1 47 0
 326 0058 3868     		ldr	r0, [r7]
 327 005a 7968     		ldr	r1, [r7, #4]
 328 005c 4F4B     		ldr	r3, .L35+4
 329 005e 4E4A     		ldr	r2, .L35
 330 0060 FFF7FEFF 		bl	__aeabi_dcmplt
 331 0064 031C     		mov	r3, r0
 332 0066 002B     		cmp	r3, #0
 333 0068 0ED0     		beq	.L18
 334              		.loc 1 47 0 is_stmt 0 discriminator 1
 335 006a 3868     		ldr	r0, [r7]
 336 006c 7968     		ldr	r1, [r7, #4]
 337 006e 4C4A     		ldr	r2, .L35+8
 338 0070 4C4B     		ldr	r3, .L35+12
 339 0072 FFF7FEFF 		bl	__aeabi_dcmpgt
 340 0076 031C     		mov	r3, r0
 341 0078 002B     		cmp	r3, #0
 342 007a 05D0     		beq	.L18
 343 007c FB68     		ldr	r3, [r7, #12]
 344 007e 0133     		add	r3, r3, #1
 345 0080 3022     		mov	r2, #48
 346 0082 1A70     		strb	r2, [r3]
 347 0084 0023     		mov	r3, #0
 348 0086 FB61     		str	r3, [r7, #28]
 349              	.L18:
ARM GAS  C:\Users\SDEVAS~1\AppData\Local\Temp\ccoD9F0X.s 			page 8


  48:.\Generated_Source\PSoC4/comm_conv.c ****   char *tmp = str + ret;
 350              		.loc 1 48 0 is_stmt 1
 351 0088 BB69     		ldr	r3, [r7, #24]
 352 008a FA68     		ldr	r2, [r7, #12]
 353 008c D318     		add	r3, r2, r3
 354 008e 7B61     		str	r3, [r7, #20]
  49:.\Generated_Source\PSoC4/comm_conv.c ****   val -= t; //now it is only .123
 355              		.loc 1 49 0
 356 0090 F869     		ldr	r0, [r7, #28]
 357 0092 FFF7FEFF 		bl	__aeabi_i2d
 358 0096 031C     		mov	r3, r0
 359 0098 0C1C     		mov	r4, r1
 360 009a 3868     		ldr	r0, [r7]
 361 009c 7968     		ldr	r1, [r7, #4]
 362 009e 1A1C     		mov	r2, r3
 363 00a0 231C     		mov	r3, r4
 364 00a2 FFF7FEFF 		bl	__aeabi_dsub
 365 00a6 031C     		mov	r3, r0
 366 00a8 0C1C     		mov	r4, r1
 367 00aa 3B60     		str	r3, [r7]
 368 00ac 7C60     		str	r4, [r7, #4]
  50:.\Generated_Source\PSoC4/comm_conv.c ****   if(val < 0) val *= -1.0;
 369              		.loc 1 50 0
 370 00ae 3868     		ldr	r0, [r7]
 371 00b0 7968     		ldr	r1, [r7, #4]
 372 00b2 3A4B     		ldr	r3, .L35+4
 373 00b4 384A     		ldr	r2, .L35
 374 00b6 FFF7FEFF 		bl	__aeabi_dcmplt
 375 00ba 031C     		mov	r3, r0
 376 00bc 002B     		cmp	r3, #0
 377 00be 06D0     		beq	.L21
 378              		.loc 1 50 0 is_stmt 0 discriminator 1
 379 00c0 3B68     		ldr	r3, [r7]
 380 00c2 3B60     		str	r3, [r7]
 381 00c4 7B68     		ldr	r3, [r7, #4]
 382 00c6 8022     		mov	r2, #128
 383 00c8 1206     		lsl	r2, r2, #24
 384 00ca 5340     		eor	r3, r2
 385 00cc 7B60     		str	r3, [r7, #4]
 386              	.L21:
  51:.\Generated_Source\PSoC4/comm_conv.c ****   if(val > (1.0/TEN_TO_DOUBLE_CONV_PRECISION_POWER)) {
 387              		.loc 1 51 0 is_stmt 1
 388 00ce 3868     		ldr	r0, [r7]
 389 00d0 7968     		ldr	r1, [r7, #4]
 390 00d2 354A     		ldr	r2, .L35+16
 391 00d4 354B     		ldr	r3, .L35+20
 392 00d6 FFF7FEFF 		bl	__aeabi_dcmpgt
 393 00da 031C     		mov	r3, r0
 394 00dc 002B     		cmp	r3, #0
 395 00de 53D0     		beq	.L23
  52:.\Generated_Source\PSoC4/comm_conv.c ****     if(len - ret < 2) return ret; //we only have room for dot, so dont bother
 396              		.loc 1 52 0
 397 00e0 BA68     		ldr	r2, [r7, #8]
 398 00e2 BB69     		ldr	r3, [r7, #24]
 399 00e4 D31A     		sub	r3, r2, r3
 400 00e6 012B     		cmp	r3, #1
 401 00e8 01DC     		bgt	.L25
ARM GAS  C:\Users\SDEVAS~1\AppData\Local\Temp\ccoD9F0X.s 			page 9


 402              		.loc 1 52 0 is_stmt 0 discriminator 1
 403 00ea BB69     		ldr	r3, [r7, #24]
 404 00ec 4DE0     		b	.L26
 405              	.L25:
  53:.\Generated_Source\PSoC4/comm_conv.c ****     *tmp++ = '.';
 406              		.loc 1 53 0 is_stmt 1
 407 00ee 7B69     		ldr	r3, [r7, #20]
 408 00f0 5A1C     		add	r2, r3, #1
 409 00f2 7A61     		str	r2, [r7, #20]
 410 00f4 2E22     		mov	r2, #46
 411 00f6 1A70     		strb	r2, [r3]
  54:.\Generated_Source\PSoC4/comm_conv.c ****     ret++;
 412              		.loc 1 54 0
 413 00f8 BB69     		ldr	r3, [r7, #24]
 414 00fa 0133     		add	r3, r3, #1
 415 00fc BB61     		str	r3, [r7, #24]
  55:.\Generated_Source\PSoC4/comm_conv.c ****     val *= 10.0;
 416              		.loc 1 55 0
 417 00fe 3868     		ldr	r0, [r7]
 418 0100 7968     		ldr	r1, [r7, #4]
 419 0102 2B4A     		ldr	r2, .L35+24
 420 0104 2B4B     		ldr	r3, .L35+28
 421 0106 FFF7FEFF 		bl	__aeabi_dmul
 422 010a 031C     		mov	r3, r0
 423 010c 0C1C     		mov	r4, r1
 424 010e 3B60     		str	r3, [r7]
 425 0110 7C60     		str	r4, [r7, #4]
  56:.\Generated_Source\PSoC4/comm_conv.c ****     for(t = 0; t < DOUBLE_CONV_PRECISION && len - ret > 0; t++, val *= 10.0) {
 426              		.loc 1 56 0
 427 0112 0023     		mov	r3, #0
 428 0114 FB61     		str	r3, [r7, #28]
 429 0116 2FE0     		b	.L27
 430              	.L28:
  57:.\Generated_Source\PSoC4/comm_conv.c ****       *tmp++ = '0' + (int)val;
 431              		.loc 1 57 0 discriminator 1
 432 0118 7C69     		ldr	r4, [r7, #20]
 433 011a 631C     		add	r3, r4, #1
 434 011c 7B61     		str	r3, [r7, #20]
 435 011e 3868     		ldr	r0, [r7]
 436 0120 7968     		ldr	r1, [r7, #4]
 437 0122 FFF7FEFF 		bl	__aeabi_d2iz
 438 0126 031C     		mov	r3, r0
 439 0128 DBB2     		uxtb	r3, r3
 440 012a 3033     		add	r3, r3, #48
 441 012c DBB2     		uxtb	r3, r3
 442 012e 2370     		strb	r3, [r4]
  58:.\Generated_Source\PSoC4/comm_conv.c ****       ret++;
 443              		.loc 1 58 0 discriminator 1
 444 0130 BB69     		ldr	r3, [r7, #24]
 445 0132 0133     		add	r3, r3, #1
 446 0134 BB61     		str	r3, [r7, #24]
  59:.\Generated_Source\PSoC4/comm_conv.c ****       val -= (int)val;
 447              		.loc 1 59 0 discriminator 1
 448 0136 3868     		ldr	r0, [r7]
 449 0138 7968     		ldr	r1, [r7, #4]
 450 013a FFF7FEFF 		bl	__aeabi_d2iz
 451 013e 031C     		mov	r3, r0
ARM GAS  C:\Users\SDEVAS~1\AppData\Local\Temp\ccoD9F0X.s 			page 10


 452 0140 181C     		mov	r0, r3
 453 0142 FFF7FEFF 		bl	__aeabi_i2d
 454 0146 031C     		mov	r3, r0
 455 0148 0C1C     		mov	r4, r1
 456 014a 3868     		ldr	r0, [r7]
 457 014c 7968     		ldr	r1, [r7, #4]
 458 014e 1A1C     		mov	r2, r3
 459 0150 231C     		mov	r3, r4
 460 0152 FFF7FEFF 		bl	__aeabi_dsub
 461 0156 031C     		mov	r3, r0
 462 0158 0C1C     		mov	r4, r1
 463 015a 3B60     		str	r3, [r7]
 464 015c 7C60     		str	r4, [r7, #4]
  56:.\Generated_Source\PSoC4/comm_conv.c ****     for(t = 0; t < DOUBLE_CONV_PRECISION && len - ret > 0; t++, val *= 10.0) {
 465              		.loc 1 56 0 discriminator 1
 466 015e FB69     		ldr	r3, [r7, #28]
 467 0160 0133     		add	r3, r3, #1
 468 0162 FB61     		str	r3, [r7, #28]
 469 0164 3868     		ldr	r0, [r7]
 470 0166 7968     		ldr	r1, [r7, #4]
 471 0168 114A     		ldr	r2, .L35+24
 472 016a 124B     		ldr	r3, .L35+28
 473 016c FFF7FEFF 		bl	__aeabi_dmul
 474 0170 031C     		mov	r3, r0
 475 0172 0C1C     		mov	r4, r1
 476 0174 3B60     		str	r3, [r7]
 477 0176 7C60     		str	r4, [r7, #4]
 478              	.L27:
 479 0178 FB69     		ldr	r3, [r7, #28]
 480 017a 052B     		cmp	r3, #5
 481 017c 04DC     		bgt	.L23
  56:.\Generated_Source\PSoC4/comm_conv.c ****     for(t = 0; t < DOUBLE_CONV_PRECISION && len - ret > 0; t++, val *= 10.0) {
 482              		.loc 1 56 0 is_stmt 0 discriminator 2
 483 017e BA68     		ldr	r2, [r7, #8]
 484 0180 BB69     		ldr	r3, [r7, #24]
 485 0182 D31A     		sub	r3, r2, r3
 486 0184 002B     		cmp	r3, #0
 487 0186 C7DC     		bgt	.L28
 488              	.L23:
  60:.\Generated_Source\PSoC4/comm_conv.c ****     }
  61:.\Generated_Source\PSoC4/comm_conv.c ****   }
  62:.\Generated_Source\PSoC4/comm_conv.c **** 
  63:.\Generated_Source\PSoC4/comm_conv.c ****   return ret;//snprintf(str, len, "%lf", val);
 489              		.loc 1 63 0 is_stmt 1
 490 0188 BB69     		ldr	r3, [r7, #24]
 491              	.L26:
  64:.\Generated_Source\PSoC4/comm_conv.c **** }
 492              		.loc 1 64 0
 493 018a 181C     		mov	r0, r3
 494 018c BD46     		mov	sp, r7
 495 018e 09B0     		add	sp, sp, #36
 496              		@ sp needed
 497 0190 90BD     		pop	{r4, r7, pc}
 498              	.L36:
 499 0192 C046C046 		.align	3
 499      C046
 500              	.L35:
ARM GAS  C:\Users\SDEVAS~1\AppData\Local\Temp\ccoD9F0X.s 			page 11


 501 0198 00000000 		.word	0
 502 019c 00000000 		.word	0
 503 01a0 00000000 		.word	0
 504 01a4 0000F0BF 		.word	-1074790400
 505 01a8 8DEDB5A0 		.word	-1598689907
 506 01ac F7C6B03E 		.word	1051772663
 507 01b0 00000000 		.word	0
 508 01b4 00002440 		.word	1076101120
 509              		.cfi_endproc
 510              	.LFE35:
 511              		.size	conv_d2str, .-conv_d2str
 512              		.section	.rodata
 513              		.align	2
 514              	.LC0:
 515 0000 74727565 		.ascii	"true\000"
 515      00
 516 0005 000000   		.align	2
 517              	.LC2:
 518 0008 66616C73 		.ascii	"false\000"
 518      6500
 519 000e 0000     		.section	.text.conv_b2str,"ax",%progbits
 520              		.align	2
 521              		.global	conv_b2str
 522              		.code	16
 523              		.thumb_func
 524              		.type	conv_b2str, %function
 525              	conv_b2str:
 526              	.LFB36:
  65:.\Generated_Source\PSoC4/comm_conv.c **** int conv_b2str(char *str, int len, unsigned char val) {
 527              		.loc 1 65 0
 528              		.cfi_startproc
 529 0000 80B5     		push	{r7, lr}
 530              		.cfi_def_cfa_offset 8
 531              		.cfi_offset 7, -8
 532              		.cfi_offset 14, -4
 533 0002 84B0     		sub	sp, sp, #16
 534              		.cfi_def_cfa_offset 24
 535 0004 00AF     		add	r7, sp, #0
 536              		.cfi_def_cfa_register 7
 537 0006 F860     		str	r0, [r7, #12]
 538 0008 B960     		str	r1, [r7, #8]
 539 000a FB1D     		add	r3, r7, #7
 540 000c 1A70     		strb	r2, [r3]
  66:.\Generated_Source\PSoC4/comm_conv.c ****   if(val) {
 541              		.loc 1 66 0
 542 000e FB1D     		add	r3, r7, #7
 543 0010 1B78     		ldrb	r3, [r3]
 544 0012 002B     		cmp	r3, #0
 545 0014 0FD0     		beq	.L38
  67:.\Generated_Source\PSoC4/comm_conv.c ****     memcpy(str, "true", len < 4 ? len : 4);
 546              		.loc 1 67 0
 547 0016 BB68     		ldr	r3, [r7, #8]
 548 0018 042B     		cmp	r3, #4
 549 001a 00DD     		ble	.L39
 550 001c 0423     		mov	r3, #4
 551              	.L39:
 552 001e F968     		ldr	r1, [r7, #12]
ARM GAS  C:\Users\SDEVAS~1\AppData\Local\Temp\ccoD9F0X.s 			page 12


 553 0020 0E4A     		ldr	r2, .L44
 554 0022 081C     		mov	r0, r1
 555 0024 111C     		mov	r1, r2
 556 0026 1A1C     		mov	r2, r3
 557 0028 FFF7FEFF 		bl	memcpy
  68:.\Generated_Source\PSoC4/comm_conv.c ****     return len < 4 ? len : 4;
 558              		.loc 1 68 0
 559 002c BB68     		ldr	r3, [r7, #8]
 560 002e 042B     		cmp	r3, #4
 561 0030 10DD     		ble	.L41
 562 0032 0423     		mov	r3, #4
 563 0034 0EE0     		b	.L41
 564              	.L38:
  69:.\Generated_Source\PSoC4/comm_conv.c ****   } else {
  70:.\Generated_Source\PSoC4/comm_conv.c ****     memcpy(str, "false", len < 5 ? len : 5);
 565              		.loc 1 70 0
 566 0036 BB68     		ldr	r3, [r7, #8]
 567 0038 052B     		cmp	r3, #5
 568 003a 00DD     		ble	.L42
 569 003c 0523     		mov	r3, #5
 570              	.L42:
 571 003e F968     		ldr	r1, [r7, #12]
 572 0040 074A     		ldr	r2, .L44+4
 573 0042 081C     		mov	r0, r1
 574 0044 111C     		mov	r1, r2
 575 0046 1A1C     		mov	r2, r3
 576 0048 FFF7FEFF 		bl	memcpy
  71:.\Generated_Source\PSoC4/comm_conv.c ****     return len < 5 ? len : 5;
 577              		.loc 1 71 0
 578 004c BB68     		ldr	r3, [r7, #8]
 579 004e 052B     		cmp	r3, #5
 580 0050 00DD     		ble	.L41
 581 0052 0523     		mov	r3, #5
 582              	.L41:
  72:.\Generated_Source\PSoC4/comm_conv.c ****   }
  73:.\Generated_Source\PSoC4/comm_conv.c **** }
 583              		.loc 1 73 0
 584 0054 181C     		mov	r0, r3
 585 0056 BD46     		mov	sp, r7
 586 0058 04B0     		add	sp, sp, #16
 587              		@ sp needed
 588 005a 80BD     		pop	{r7, pc}
 589              	.L45:
 590              		.align	2
 591              	.L44:
 592 005c 00000000 		.word	.LC0
 593 0060 08000000 		.word	.LC2
 594              		.cfi_endproc
 595              	.LFE36:
 596              		.size	conv_b2str, .-conv_b2str
 597              		.section	.text.conv_str2i,"ax",%progbits
 598              		.align	2
 599              		.global	conv_str2i
 600              		.code	16
 601              		.thumb_func
 602              		.type	conv_str2i, %function
 603              	conv_str2i:
ARM GAS  C:\Users\SDEVAS~1\AppData\Local\Temp\ccoD9F0X.s 			page 13


 604              	.LFB37:
  74:.\Generated_Source\PSoC4/comm_conv.c **** 
  75:.\Generated_Source\PSoC4/comm_conv.c **** int conv_str2i(const char *str, int len) {
 605              		.loc 1 75 0
 606              		.cfi_startproc
 607 0000 80B5     		push	{r7, lr}
 608              		.cfi_def_cfa_offset 8
 609              		.cfi_offset 7, -8
 610              		.cfi_offset 14, -4
 611 0002 84B0     		sub	sp, sp, #16
 612              		.cfi_def_cfa_offset 24
 613 0004 00AF     		add	r7, sp, #0
 614              		.cfi_def_cfa_register 7
 615 0006 7860     		str	r0, [r7, #4]
 616 0008 3960     		str	r1, [r7]
  76:.\Generated_Source\PSoC4/comm_conv.c ****   int x = 0;
 617              		.loc 1 76 0
 618 000a 0023     		mov	r3, #0
 619 000c FB60     		str	r3, [r7, #12]
  77:.\Generated_Source\PSoC4/comm_conv.c ****   const char *tmp = str;
 620              		.loc 1 77 0
 621 000e 7B68     		ldr	r3, [r7, #4]
 622 0010 BB60     		str	r3, [r7, #8]
  78:.\Generated_Source\PSoC4/comm_conv.c ****   //investigate 1 sign to check negative
  79:.\Generated_Source\PSoC4/comm_conv.c ****   if(*str == '-') tmp++;
 623              		.loc 1 79 0
 624 0012 7B68     		ldr	r3, [r7, #4]
 625 0014 1B78     		ldrb	r3, [r3]
 626 0016 2D2B     		cmp	r3, #45
 627 0018 03D1     		bne	.L47
 628              		.loc 1 79 0 is_stmt 0 discriminator 1
 629 001a BB68     		ldr	r3, [r7, #8]
 630 001c 0133     		add	r3, r3, #1
 631 001e BB60     		str	r3, [r7, #8]
  80:.\Generated_Source\PSoC4/comm_conv.c ****   while(tmp-str < len) {
 632              		.loc 1 80 0 is_stmt 1 discriminator 1
 633 0020 0EE0     		b	.L48
 634              	.L47:
 635              		.loc 1 80 0 is_stmt 0
 636 0022 0DE0     		b	.L48
 637              	.L49:
  81:.\Generated_Source\PSoC4/comm_conv.c ****     x = 10*x + (*tmp-'0');
 638              		.loc 1 81 0 is_stmt 1
 639 0024 FA68     		ldr	r2, [r7, #12]
 640 0026 131C     		mov	r3, r2
 641 0028 9B00     		lsl	r3, r3, #2
 642 002a 9B18     		add	r3, r3, r2
 643 002c 5B00     		lsl	r3, r3, #1
 644 002e 1A1C     		mov	r2, r3
 645 0030 BB68     		ldr	r3, [r7, #8]
 646 0032 1B78     		ldrb	r3, [r3]
 647 0034 303B     		sub	r3, r3, #48
 648 0036 D318     		add	r3, r2, r3
 649 0038 FB60     		str	r3, [r7, #12]
  82:.\Generated_Source\PSoC4/comm_conv.c ****     tmp++;
 650              		.loc 1 82 0
 651 003a BB68     		ldr	r3, [r7, #8]
ARM GAS  C:\Users\SDEVAS~1\AppData\Local\Temp\ccoD9F0X.s 			page 14


 652 003c 0133     		add	r3, r3, #1
 653 003e BB60     		str	r3, [r7, #8]
 654              	.L48:
  80:.\Generated_Source\PSoC4/comm_conv.c ****   while(tmp-str < len) {
 655              		.loc 1 80 0 discriminator 1
 656 0040 BA68     		ldr	r2, [r7, #8]
 657 0042 7B68     		ldr	r3, [r7, #4]
 658 0044 D21A     		sub	r2, r2, r3
 659 0046 3B68     		ldr	r3, [r7]
 660 0048 9A42     		cmp	r2, r3
 661 004a EBDB     		blt	.L49
  83:.\Generated_Source\PSoC4/comm_conv.c ****   }
  84:.\Generated_Source\PSoC4/comm_conv.c ****   if(*str == '-') x *= -1;
 662              		.loc 1 84 0
 663 004c 7B68     		ldr	r3, [r7, #4]
 664 004e 1B78     		ldrb	r3, [r3]
 665 0050 2D2B     		cmp	r3, #45
 666 0052 02D1     		bne	.L50
 667              		.loc 1 84 0 is_stmt 0 discriminator 1
 668 0054 FB68     		ldr	r3, [r7, #12]
 669 0056 5B42     		neg	r3, r3
 670 0058 FB60     		str	r3, [r7, #12]
 671              	.L50:
  85:.\Generated_Source\PSoC4/comm_conv.c ****   return x;
 672              		.loc 1 85 0 is_stmt 1
 673 005a FB68     		ldr	r3, [r7, #12]
  86:.\Generated_Source\PSoC4/comm_conv.c **** }
 674              		.loc 1 86 0
 675 005c 181C     		mov	r0, r3
 676 005e BD46     		mov	sp, r7
 677 0060 04B0     		add	sp, sp, #16
 678              		@ sp needed
 679 0062 80BD     		pop	{r7, pc}
 680              		.cfi_endproc
 681              	.LFE37:
 682              		.size	conv_str2i, .-conv_str2i
 683              		.bss
 684              		.align	2
 685              	stringHolderForConversion:
 686 0000 00000000 		.space	20
 686      00000000 
 686      00000000 
 686      00000000 
 686      00000000 
 687              		.section	.text.conv_str2s,"ax",%progbits
 688              		.align	2
 689              		.global	conv_str2s
 690              		.code	16
 691              		.thumb_func
 692              		.type	conv_str2s, %function
 693              	conv_str2s:
 694              	.LFB38:
  87:.\Generated_Source\PSoC4/comm_conv.c **** 
  88:.\Generated_Source\PSoC4/comm_conv.c **** #define STRING_HOLDER_LEN 20
  89:.\Generated_Source\PSoC4/comm_conv.c **** static char stringHolderForConversion[STRING_HOLDER_LEN];
  90:.\Generated_Source\PSoC4/comm_conv.c **** char * conv_str2s(const char *str, int len) {
 695              		.loc 1 90 0
ARM GAS  C:\Users\SDEVAS~1\AppData\Local\Temp\ccoD9F0X.s 			page 15


 696              		.cfi_startproc
 697 0000 80B5     		push	{r7, lr}
 698              		.cfi_def_cfa_offset 8
 699              		.cfi_offset 7, -8
 700              		.cfi_offset 14, -4
 701 0002 82B0     		sub	sp, sp, #8
 702              		.cfi_def_cfa_offset 16
 703 0004 00AF     		add	r7, sp, #0
 704              		.cfi_def_cfa_register 7
 705 0006 7860     		str	r0, [r7, #4]
 706 0008 3960     		str	r1, [r7]
  91:.\Generated_Source\PSoC4/comm_conv.c ****   memcpy(stringHolderForConversion, str, len > STRING_HOLDER_LEN ? STRING_HOLDER_LEN : len);
 707              		.loc 1 91 0
 708 000a 3B68     		ldr	r3, [r7]
 709 000c 142B     		cmp	r3, #20
 710 000e 00DD     		ble	.L53
 711 0010 1423     		mov	r3, #20
 712              	.L53:
 713 0012 0649     		ldr	r1, .L55
 714 0014 7A68     		ldr	r2, [r7, #4]
 715 0016 081C     		mov	r0, r1
 716 0018 111C     		mov	r1, r2
 717 001a 1A1C     		mov	r2, r3
 718 001c FFF7FEFF 		bl	memcpy
  92:.\Generated_Source\PSoC4/comm_conv.c ****   return stringHolderForConversion;
 719              		.loc 1 92 0
 720 0020 024B     		ldr	r3, .L55
  93:.\Generated_Source\PSoC4/comm_conv.c **** }
 721              		.loc 1 93 0
 722 0022 181C     		mov	r0, r3
 723 0024 BD46     		mov	sp, r7
 724 0026 02B0     		add	sp, sp, #8
 725              		@ sp needed
 726 0028 80BD     		pop	{r7, pc}
 727              	.L56:
 728 002a C046     		.align	2
 729              	.L55:
 730 002c 00000000 		.word	stringHolderForConversion
 731              		.cfi_endproc
 732              	.LFE38:
 733              		.size	conv_str2s, .-conv_str2s
 734              		.global	__aeabi_dadd
 735              		.global	__aeabi_ddiv
 736              		.section	.text.conv_str2d,"ax",%progbits
 737              		.align	2
 738              		.global	conv_str2d
 739              		.code	16
 740              		.thumb_func
 741              		.type	conv_str2d, %function
 742              	conv_str2d:
 743              	.LFB39:
  94:.\Generated_Source\PSoC4/comm_conv.c **** double conv_str2d(const char *str, int len) {
 744              		.loc 1 94 0
 745              		.cfi_startproc
 746 0000 F0B5     		push	{r4, r5, r6, r7, lr}
 747              		.cfi_def_cfa_offset 20
 748              		.cfi_offset 4, -20
ARM GAS  C:\Users\SDEVAS~1\AppData\Local\Temp\ccoD9F0X.s 			page 16


 749              		.cfi_offset 5, -16
 750              		.cfi_offset 6, -12
 751              		.cfi_offset 7, -8
 752              		.cfi_offset 14, -4
 753 0002 89B0     		sub	sp, sp, #36
 754              		.cfi_def_cfa_offset 56
 755 0004 00AF     		add	r7, sp, #0
 756              		.cfi_def_cfa_register 7
 757 0006 7860     		str	r0, [r7, #4]
 758 0008 3960     		str	r1, [r7]
  95:.\Generated_Source\PSoC4/comm_conv.c ****   double x = 0.0;
 759              		.loc 1 95 0
 760 000a 424C     		ldr	r4, .L67+4
 761 000c 404B     		ldr	r3, .L67
 762 000e BB61     		str	r3, [r7, #24]
 763 0010 FC61     		str	r4, [r7, #28]
  96:.\Generated_Source\PSoC4/comm_conv.c ****   const char *tmp = str;
 764              		.loc 1 96 0
 765 0012 7B68     		ldr	r3, [r7, #4]
 766 0014 7B61     		str	r3, [r7, #20]
  97:.\Generated_Source\PSoC4/comm_conv.c ****   if(*str == '-') tmp++;
 767              		.loc 1 97 0
 768 0016 7B68     		ldr	r3, [r7, #4]
 769 0018 1B78     		ldrb	r3, [r3]
 770 001a 2D2B     		cmp	r3, #45
 771 001c 03D1     		bne	.L58
 772              		.loc 1 97 0 is_stmt 0 discriminator 1
 773 001e 7B69     		ldr	r3, [r7, #20]
 774 0020 0133     		add	r3, r3, #1
 775 0022 7B61     		str	r3, [r7, #20]
  98:.\Generated_Source\PSoC4/comm_conv.c **** 
  99:.\Generated_Source\PSoC4/comm_conv.c ****   while(tmp-str < len && *tmp != '.') {
 776              		.loc 1 99 0 is_stmt 1 discriminator 1
 777 0024 1FE0     		b	.L59
 778              	.L58:
 779              		.loc 1 99 0 is_stmt 0
 780 0026 1EE0     		b	.L59
 781              	.L61:
 100:.\Generated_Source\PSoC4/comm_conv.c ****     x = 10*x + (*tmp-'0');
 782              		.loc 1 100 0 is_stmt 1
 783 0028 B869     		ldr	r0, [r7, #24]
 784 002a F969     		ldr	r1, [r7, #28]
 785 002c 3A4A     		ldr	r2, .L67+8
 786 002e 3B4B     		ldr	r3, .L67+12
 787 0030 FFF7FEFF 		bl	__aeabi_dmul
 788 0034 031C     		mov	r3, r0
 789 0036 0C1C     		mov	r4, r1
 790 0038 1D1C     		mov	r5, r3
 791 003a 261C     		mov	r6, r4
 792 003c 7B69     		ldr	r3, [r7, #20]
 793 003e 1B78     		ldrb	r3, [r3]
 794 0040 303B     		sub	r3, r3, #48
 795 0042 181C     		mov	r0, r3
 796 0044 FFF7FEFF 		bl	__aeabi_i2d
 797 0048 031C     		mov	r3, r0
 798 004a 0C1C     		mov	r4, r1
 799 004c 281C     		mov	r0, r5
ARM GAS  C:\Users\SDEVAS~1\AppData\Local\Temp\ccoD9F0X.s 			page 17


 800 004e 311C     		mov	r1, r6
 801 0050 1A1C     		mov	r2, r3
 802 0052 231C     		mov	r3, r4
 803 0054 FFF7FEFF 		bl	__aeabi_dadd
 804 0058 031C     		mov	r3, r0
 805 005a 0C1C     		mov	r4, r1
 806 005c BB61     		str	r3, [r7, #24]
 807 005e FC61     		str	r4, [r7, #28]
 101:.\Generated_Source\PSoC4/comm_conv.c ****     tmp++;
 808              		.loc 1 101 0
 809 0060 7B69     		ldr	r3, [r7, #20]
 810 0062 0133     		add	r3, r3, #1
 811 0064 7B61     		str	r3, [r7, #20]
 812              	.L59:
  99:.\Generated_Source\PSoC4/comm_conv.c ****   while(tmp-str < len && *tmp != '.') {
 813              		.loc 1 99 0 discriminator 1
 814 0066 7A69     		ldr	r2, [r7, #20]
 815 0068 7B68     		ldr	r3, [r7, #4]
 816 006a D21A     		sub	r2, r2, r3
 817 006c 3B68     		ldr	r3, [r7]
 818 006e 9A42     		cmp	r2, r3
 819 0070 03DA     		bge	.L60
  99:.\Generated_Source\PSoC4/comm_conv.c ****   while(tmp-str < len && *tmp != '.') {
 820              		.loc 1 99 0 is_stmt 0 discriminator 2
 821 0072 7B69     		ldr	r3, [r7, #20]
 822 0074 1B78     		ldrb	r3, [r3]
 823 0076 2E2B     		cmp	r3, #46
 824 0078 D6D1     		bne	.L61
 825              	.L60:
 102:.\Generated_Source\PSoC4/comm_conv.c ****   }
 103:.\Generated_Source\PSoC4/comm_conv.c ****   if(*tmp == '.') {
 826              		.loc 1 103 0 is_stmt 1
 827 007a 7B69     		ldr	r3, [r7, #20]
 828 007c 1B78     		ldrb	r3, [r3]
 829 007e 2E2B     		cmp	r3, #46
 830 0080 34D1     		bne	.L62
 831              	.LBB3:
 104:.\Generated_Source\PSoC4/comm_conv.c ****     //dot spot here
 105:.\Generated_Source\PSoC4/comm_conv.c ****     double y = 0.0;
 832              		.loc 1 105 0
 833 0082 244C     		ldr	r4, .L67+4
 834 0084 224B     		ldr	r3, .L67
 835 0086 BB60     		str	r3, [r7, #8]
 836 0088 FC60     		str	r4, [r7, #12]
 106:.\Generated_Source\PSoC4/comm_conv.c ****     tmp = str+len-1;
 837              		.loc 1 106 0
 838 008a 3B68     		ldr	r3, [r7]
 839 008c 013B     		sub	r3, r3, #1
 840 008e 7A68     		ldr	r2, [r7, #4]
 841 0090 D318     		add	r3, r2, r3
 842 0092 7B61     		str	r3, [r7, #20]
 107:.\Generated_Source\PSoC4/comm_conv.c ****     while(*tmp != '.') {
 843              		.loc 1 107 0
 844 0094 1CE0     		b	.L63
 845              	.L64:
 108:.\Generated_Source\PSoC4/comm_conv.c ****       y = ((*tmp-'0')+y)/10.0;
 846              		.loc 1 108 0
ARM GAS  C:\Users\SDEVAS~1\AppData\Local\Temp\ccoD9F0X.s 			page 18


 847 0096 7B69     		ldr	r3, [r7, #20]
 848 0098 1B78     		ldrb	r3, [r3]
 849 009a 303B     		sub	r3, r3, #48
 850 009c 181C     		mov	r0, r3
 851 009e FFF7FEFF 		bl	__aeabi_i2d
 852 00a2 031C     		mov	r3, r0
 853 00a4 0C1C     		mov	r4, r1
 854 00a6 181C     		mov	r0, r3
 855 00a8 211C     		mov	r1, r4
 856 00aa BA68     		ldr	r2, [r7, #8]
 857 00ac FB68     		ldr	r3, [r7, #12]
 858 00ae FFF7FEFF 		bl	__aeabi_dadd
 859 00b2 031C     		mov	r3, r0
 860 00b4 0C1C     		mov	r4, r1
 861 00b6 181C     		mov	r0, r3
 862 00b8 211C     		mov	r1, r4
 863 00ba 174A     		ldr	r2, .L67+8
 864 00bc 174B     		ldr	r3, .L67+12
 865 00be FFF7FEFF 		bl	__aeabi_ddiv
 866 00c2 031C     		mov	r3, r0
 867 00c4 0C1C     		mov	r4, r1
 868 00c6 BB60     		str	r3, [r7, #8]
 869 00c8 FC60     		str	r4, [r7, #12]
 109:.\Generated_Source\PSoC4/comm_conv.c ****       tmp--;
 870              		.loc 1 109 0
 871 00ca 7B69     		ldr	r3, [r7, #20]
 872 00cc 013B     		sub	r3, r3, #1
 873 00ce 7B61     		str	r3, [r7, #20]
 874              	.L63:
 107:.\Generated_Source\PSoC4/comm_conv.c ****     while(*tmp != '.') {
 875              		.loc 1 107 0 discriminator 1
 876 00d0 7B69     		ldr	r3, [r7, #20]
 877 00d2 1B78     		ldrb	r3, [r3]
 878 00d4 2E2B     		cmp	r3, #46
 879 00d6 DED1     		bne	.L64
 110:.\Generated_Source\PSoC4/comm_conv.c ****     }
 111:.\Generated_Source\PSoC4/comm_conv.c ****     x += y;
 880              		.loc 1 111 0
 881 00d8 B869     		ldr	r0, [r7, #24]
 882 00da F969     		ldr	r1, [r7, #28]
 883 00dc BA68     		ldr	r2, [r7, #8]
 884 00de FB68     		ldr	r3, [r7, #12]
 885 00e0 FFF7FEFF 		bl	__aeabi_dadd
 886 00e4 031C     		mov	r3, r0
 887 00e6 0C1C     		mov	r4, r1
 888 00e8 BB61     		str	r3, [r7, #24]
 889 00ea FC61     		str	r4, [r7, #28]
 890              	.L62:
 891              	.LBE3:
 112:.\Generated_Source\PSoC4/comm_conv.c ****   }
 113:.\Generated_Source\PSoC4/comm_conv.c ****   if(*str == '-') x *= -1.0;
 892              		.loc 1 113 0
 893 00ec 7B68     		ldr	r3, [r7, #4]
 894 00ee 1B78     		ldrb	r3, [r3]
 895 00f0 2D2B     		cmp	r3, #45
 896 00f2 06D1     		bne	.L65
 897              		.loc 1 113 0 is_stmt 0 discriminator 1
ARM GAS  C:\Users\SDEVAS~1\AppData\Local\Temp\ccoD9F0X.s 			page 19


 898 00f4 BB69     		ldr	r3, [r7, #24]
 899 00f6 BB61     		str	r3, [r7, #24]
 900 00f8 FB69     		ldr	r3, [r7, #28]
 901 00fa 8022     		mov	r2, #128
 902 00fc 1206     		lsl	r2, r2, #24
 903 00fe 5340     		eor	r3, r2
 904 0100 FB61     		str	r3, [r7, #28]
 905              	.L65:
 114:.\Generated_Source\PSoC4/comm_conv.c ****   return x;
 906              		.loc 1 114 0 is_stmt 1
 907 0102 BB69     		ldr	r3, [r7, #24]
 908 0104 FC69     		ldr	r4, [r7, #28]
 115:.\Generated_Source\PSoC4/comm_conv.c **** }
 909              		.loc 1 115 0
 910 0106 181C     		mov	r0, r3
 911 0108 211C     		mov	r1, r4
 912 010a BD46     		mov	sp, r7
 913 010c 09B0     		add	sp, sp, #36
 914              		@ sp needed
 915 010e F0BD     		pop	{r4, r5, r6, r7, pc}
 916              	.L68:
 917              		.align	3
 918              	.L67:
 919 0110 00000000 		.word	0
 920 0114 00000000 		.word	0
 921 0118 00000000 		.word	0
 922 011c 00002440 		.word	1076101120
 923              		.cfi_endproc
 924              	.LFE39:
 925              		.size	conv_str2d, .-conv_str2d
 926              		.section	.text.conv_str2b,"ax",%progbits
 927              		.align	2
 928              		.global	conv_str2b
 929              		.code	16
 930              		.thumb_func
 931              		.type	conv_str2b, %function
 932              	conv_str2b:
 933              	.LFB40:
 116:.\Generated_Source\PSoC4/comm_conv.c **** unsigned int conv_str2b(const char *str, int len) {
 934              		.loc 1 116 0
 935              		.cfi_startproc
 936 0000 80B5     		push	{r7, lr}
 937              		.cfi_def_cfa_offset 8
 938              		.cfi_offset 7, -8
 939              		.cfi_offset 14, -4
 940 0002 82B0     		sub	sp, sp, #8
 941              		.cfi_def_cfa_offset 16
 942 0004 00AF     		add	r7, sp, #0
 943              		.cfi_def_cfa_register 7
 944 0006 7860     		str	r0, [r7, #4]
 945 0008 3960     		str	r1, [r7]
 117:.\Generated_Source\PSoC4/comm_conv.c ****   return (str[0] == 't');
 946              		.loc 1 117 0
 947 000a 7B68     		ldr	r3, [r7, #4]
 948 000c 1B78     		ldrb	r3, [r3]
 949 000e 743B     		sub	r3, r3, #116
 950 0010 5A42     		neg	r2, r3
ARM GAS  C:\Users\SDEVAS~1\AppData\Local\Temp\ccoD9F0X.s 			page 20


 951 0012 5341     		adc	r3, r3, r2
 952 0014 DBB2     		uxtb	r3, r3
 118:.\Generated_Source\PSoC4/comm_conv.c **** }
 953              		.loc 1 118 0
 954 0016 181C     		mov	r0, r3
 955 0018 BD46     		mov	sp, r7
 956 001a 02B0     		add	sp, sp, #8
 957              		@ sp needed
 958 001c 80BD     		pop	{r7, pc}
 959              		.cfi_endproc
 960              	.LFE40:
 961              		.size	conv_str2b, .-conv_str2b
 962 001e C046     		.section	.text.conv_ia2str,"ax",%progbits
 963              		.align	2
 964              		.weak	conv_ia2str
 965              		.code	16
 966              		.thumb_func
 967              		.type	conv_ia2str, %function
 968              	conv_ia2str:
 969              	.LFB41:
 119:.\Generated_Source\PSoC4/comm_conv.c **** 
 120:.\Generated_Source\PSoC4/comm_conv.c **** 
 121:.\Generated_Source\PSoC4/comm_conv.c **** //CONVERSION HOLDERS FOR NON STANDARD IMPLEMENTATIONS
 122:.\Generated_Source\PSoC4/comm_conv.c **** #define X(type, jsname) \
 123:.\Generated_Source\PSoC4/comm_conv.c **** int conv_##jsname##2str(char *str, int len, type val) {return 0;} \
 124:.\Generated_Source\PSoC4/comm_conv.c **** type conv_str2##jsname(const char *str, int len) {return 0;}
 125:.\Generated_Source\PSoC4/comm_conv.c **** NON_PRIMITIVE_CONVS
 970              		.loc 1 125 0
 971              		.cfi_startproc
 972 0000 80B5     		push	{r7, lr}
 973              		.cfi_def_cfa_offset 8
 974              		.cfi_offset 7, -8
 975              		.cfi_offset 14, -4
 976 0002 84B0     		sub	sp, sp, #16
 977              		.cfi_def_cfa_offset 24
 978 0004 00AF     		add	r7, sp, #0
 979              		.cfi_def_cfa_register 7
 980 0006 F860     		str	r0, [r7, #12]
 981 0008 B960     		str	r1, [r7, #8]
 982 000a 7A60     		str	r2, [r7, #4]
 983              		.loc 1 125 0
 984 000c 0023     		mov	r3, #0
 985 000e 181C     		mov	r0, r3
 986 0010 BD46     		mov	sp, r7
 987 0012 04B0     		add	sp, sp, #16
 988              		@ sp needed
 989 0014 80BD     		pop	{r7, pc}
 990              		.cfi_endproc
 991              	.LFE41:
 992              		.size	conv_ia2str, .-conv_ia2str
 993 0016 C046     		.section	.text.conv_str2ia,"ax",%progbits
 994              		.align	2
 995              		.weak	conv_str2ia
 996              		.code	16
 997              		.thumb_func
 998              		.type	conv_str2ia, %function
 999              	conv_str2ia:
ARM GAS  C:\Users\SDEVAS~1\AppData\Local\Temp\ccoD9F0X.s 			page 21


 1000              	.LFB42:
 1001              		.loc 1 125 0
 1002              		.cfi_startproc
 1003 0000 80B5     		push	{r7, lr}
 1004              		.cfi_def_cfa_offset 8
 1005              		.cfi_offset 7, -8
 1006              		.cfi_offset 14, -4
 1007 0002 82B0     		sub	sp, sp, #8
 1008              		.cfi_def_cfa_offset 16
 1009 0004 00AF     		add	r7, sp, #0
 1010              		.cfi_def_cfa_register 7
 1011 0006 7860     		str	r0, [r7, #4]
 1012 0008 3960     		str	r1, [r7]
 1013              		.loc 1 125 0
 1014 000a 0023     		mov	r3, #0
 1015 000c 181C     		mov	r0, r3
 1016 000e BD46     		mov	sp, r7
 1017 0010 02B0     		add	sp, sp, #8
 1018              		@ sp needed
 1019 0012 80BD     		pop	{r7, pc}
 1020              		.cfi_endproc
 1021              	.LFE42:
 1022              		.size	conv_str2ia, .-conv_str2ia
 1023              		.section	.text.conv_da2str,"ax",%progbits
 1024              		.align	2
 1025              		.weak	conv_da2str
 1026              		.code	16
 1027              		.thumb_func
 1028              		.type	conv_da2str, %function
 1029              	conv_da2str:
 1030              	.LFB43:
 1031              		.loc 1 125 0
 1032              		.cfi_startproc
 1033 0000 80B5     		push	{r7, lr}
 1034              		.cfi_def_cfa_offset 8
 1035              		.cfi_offset 7, -8
 1036              		.cfi_offset 14, -4
 1037 0002 84B0     		sub	sp, sp, #16
 1038              		.cfi_def_cfa_offset 24
 1039 0004 00AF     		add	r7, sp, #0
 1040              		.cfi_def_cfa_register 7
 1041 0006 F860     		str	r0, [r7, #12]
 1042 0008 B960     		str	r1, [r7, #8]
 1043 000a 7A60     		str	r2, [r7, #4]
 1044              		.loc 1 125 0
 1045 000c 0023     		mov	r3, #0
 1046 000e 181C     		mov	r0, r3
 1047 0010 BD46     		mov	sp, r7
 1048 0012 04B0     		add	sp, sp, #16
 1049              		@ sp needed
 1050 0014 80BD     		pop	{r7, pc}
 1051              		.cfi_endproc
 1052              	.LFE43:
 1053              		.size	conv_da2str, .-conv_da2str
 1054 0016 C046     		.section	.text.conv_str2da,"ax",%progbits
 1055              		.align	2
 1056              		.weak	conv_str2da
ARM GAS  C:\Users\SDEVAS~1\AppData\Local\Temp\ccoD9F0X.s 			page 22


 1057              		.code	16
 1058              		.thumb_func
 1059              		.type	conv_str2da, %function
 1060              	conv_str2da:
 1061              	.LFB44:
 1062              		.loc 1 125 0
 1063              		.cfi_startproc
 1064 0000 80B5     		push	{r7, lr}
 1065              		.cfi_def_cfa_offset 8
 1066              		.cfi_offset 7, -8
 1067              		.cfi_offset 14, -4
 1068 0002 82B0     		sub	sp, sp, #8
 1069              		.cfi_def_cfa_offset 16
 1070 0004 00AF     		add	r7, sp, #0
 1071              		.cfi_def_cfa_register 7
 1072 0006 7860     		str	r0, [r7, #4]
 1073 0008 3960     		str	r1, [r7]
 1074              		.loc 1 125 0
 1075 000a 0023     		mov	r3, #0
 1076 000c 181C     		mov	r0, r3
 1077 000e BD46     		mov	sp, r7
 1078 0010 02B0     		add	sp, sp, #8
 1079              		@ sp needed
 1080 0012 80BD     		pop	{r7, pc}
 1081              		.cfi_endproc
 1082              	.LFE44:
 1083              		.size	conv_str2da, .-conv_str2da
 1084              		.section	.text.conv_sa2str,"ax",%progbits
 1085              		.align	2
 1086              		.weak	conv_sa2str
 1087              		.code	16
 1088              		.thumb_func
 1089              		.type	conv_sa2str, %function
 1090              	conv_sa2str:
 1091              	.LFB45:
 1092              		.loc 1 125 0
 1093              		.cfi_startproc
 1094 0000 80B5     		push	{r7, lr}
 1095              		.cfi_def_cfa_offset 8
 1096              		.cfi_offset 7, -8
 1097              		.cfi_offset 14, -4
 1098 0002 84B0     		sub	sp, sp, #16
 1099              		.cfi_def_cfa_offset 24
 1100 0004 00AF     		add	r7, sp, #0
 1101              		.cfi_def_cfa_register 7
 1102 0006 F860     		str	r0, [r7, #12]
 1103 0008 B960     		str	r1, [r7, #8]
 1104 000a 7A60     		str	r2, [r7, #4]
 1105              		.loc 1 125 0
 1106 000c 0023     		mov	r3, #0
 1107 000e 181C     		mov	r0, r3
 1108 0010 BD46     		mov	sp, r7
 1109 0012 04B0     		add	sp, sp, #16
 1110              		@ sp needed
 1111 0014 80BD     		pop	{r7, pc}
 1112              		.cfi_endproc
 1113              	.LFE45:
ARM GAS  C:\Users\SDEVAS~1\AppData\Local\Temp\ccoD9F0X.s 			page 23


 1114              		.size	conv_sa2str, .-conv_sa2str
 1115 0016 C046     		.section	.text.conv_str2sa,"ax",%progbits
 1116              		.align	2
 1117              		.weak	conv_str2sa
 1118              		.code	16
 1119              		.thumb_func
 1120              		.type	conv_str2sa, %function
 1121              	conv_str2sa:
 1122              	.LFB46:
 1123              		.loc 1 125 0
 1124              		.cfi_startproc
 1125 0000 80B5     		push	{r7, lr}
 1126              		.cfi_def_cfa_offset 8
 1127              		.cfi_offset 7, -8
 1128              		.cfi_offset 14, -4
 1129 0002 82B0     		sub	sp, sp, #8
 1130              		.cfi_def_cfa_offset 16
 1131 0004 00AF     		add	r7, sp, #0
 1132              		.cfi_def_cfa_register 7
 1133 0006 7860     		str	r0, [r7, #4]
 1134 0008 3960     		str	r1, [r7]
 1135              		.loc 1 125 0
 1136 000a 0023     		mov	r3, #0
 1137 000c 181C     		mov	r0, r3
 1138 000e BD46     		mov	sp, r7
 1139 0010 02B0     		add	sp, sp, #8
 1140              		@ sp needed
 1141 0012 80BD     		pop	{r7, pc}
 1142              		.cfi_endproc
 1143              	.LFE46:
 1144              		.size	conv_str2sa, .-conv_str2sa
 1145              		.section	.text.conv_jo2str,"ax",%progbits
 1146              		.align	2
 1147              		.weak	conv_jo2str
 1148              		.code	16
 1149              		.thumb_func
 1150              		.type	conv_jo2str, %function
 1151              	conv_jo2str:
 1152              	.LFB47:
 1153              		.loc 1 125 0
 1154              		.cfi_startproc
 1155 0000 80B5     		push	{r7, lr}
 1156              		.cfi_def_cfa_offset 8
 1157              		.cfi_offset 7, -8
 1158              		.cfi_offset 14, -4
 1159 0002 84B0     		sub	sp, sp, #16
 1160              		.cfi_def_cfa_offset 24
 1161 0004 00AF     		add	r7, sp, #0
 1162              		.cfi_def_cfa_register 7
 1163 0006 F860     		str	r0, [r7, #12]
 1164 0008 B960     		str	r1, [r7, #8]
 1165 000a 7A60     		str	r2, [r7, #4]
 1166              		.loc 1 125 0
 1167 000c 0023     		mov	r3, #0
 1168 000e 181C     		mov	r0, r3
 1169 0010 BD46     		mov	sp, r7
 1170 0012 04B0     		add	sp, sp, #16
ARM GAS  C:\Users\SDEVAS~1\AppData\Local\Temp\ccoD9F0X.s 			page 24


 1171              		@ sp needed
 1172 0014 80BD     		pop	{r7, pc}
 1173              		.cfi_endproc
 1174              	.LFE47:
 1175              		.size	conv_jo2str, .-conv_jo2str
 1176 0016 C046     		.section	.text.conv_str2jo,"ax",%progbits
 1177              		.align	2
 1178              		.weak	conv_str2jo
 1179              		.code	16
 1180              		.thumb_func
 1181              		.type	conv_str2jo, %function
 1182              	conv_str2jo:
 1183              	.LFB48:
 1184              		.loc 1 125 0
 1185              		.cfi_startproc
 1186 0000 80B5     		push	{r7, lr}
 1187              		.cfi_def_cfa_offset 8
 1188              		.cfi_offset 7, -8
 1189              		.cfi_offset 14, -4
 1190 0002 82B0     		sub	sp, sp, #8
 1191              		.cfi_def_cfa_offset 16
 1192 0004 00AF     		add	r7, sp, #0
 1193              		.cfi_def_cfa_register 7
 1194 0006 7860     		str	r0, [r7, #4]
 1195 0008 3960     		str	r1, [r7]
 1196              		.loc 1 125 0
 1197 000a 0023     		mov	r3, #0
 1198 000c 181C     		mov	r0, r3
 1199 000e BD46     		mov	sp, r7
 1200 0010 02B0     		add	sp, sp, #8
 1201              		@ sp needed
 1202 0012 80BD     		pop	{r7, pc}
 1203              		.cfi_endproc
 1204              	.LFE48:
 1205              		.size	conv_str2jo, .-conv_str2jo
 1206              		.section	.text.conv_oa2str,"ax",%progbits
 1207              		.align	2
 1208              		.weak	conv_oa2str
 1209              		.code	16
 1210              		.thumb_func
 1211              		.type	conv_oa2str, %function
 1212              	conv_oa2str:
 1213              	.LFB49:
 1214              		.loc 1 125 0
 1215              		.cfi_startproc
 1216 0000 80B5     		push	{r7, lr}
 1217              		.cfi_def_cfa_offset 8
 1218              		.cfi_offset 7, -8
 1219              		.cfi_offset 14, -4
 1220 0002 84B0     		sub	sp, sp, #16
 1221              		.cfi_def_cfa_offset 24
 1222 0004 00AF     		add	r7, sp, #0
 1223              		.cfi_def_cfa_register 7
 1224 0006 F860     		str	r0, [r7, #12]
 1225 0008 B960     		str	r1, [r7, #8]
 1226 000a 7A60     		str	r2, [r7, #4]
 1227              		.loc 1 125 0
ARM GAS  C:\Users\SDEVAS~1\AppData\Local\Temp\ccoD9F0X.s 			page 25


 1228 000c 0023     		mov	r3, #0
 1229 000e 181C     		mov	r0, r3
 1230 0010 BD46     		mov	sp, r7
 1231 0012 04B0     		add	sp, sp, #16
 1232              		@ sp needed
 1233 0014 80BD     		pop	{r7, pc}
 1234              		.cfi_endproc
 1235              	.LFE49:
 1236              		.size	conv_oa2str, .-conv_oa2str
 1237 0016 C046     		.section	.text.conv_str2oa,"ax",%progbits
 1238              		.align	2
 1239              		.weak	conv_str2oa
 1240              		.code	16
 1241              		.thumb_func
 1242              		.type	conv_str2oa, %function
 1243              	conv_str2oa:
 1244              	.LFB50:
 1245              		.loc 1 125 0
 1246              		.cfi_startproc
 1247 0000 80B5     		push	{r7, lr}
 1248              		.cfi_def_cfa_offset 8
 1249              		.cfi_offset 7, -8
 1250              		.cfi_offset 14, -4
 1251 0002 82B0     		sub	sp, sp, #8
 1252              		.cfi_def_cfa_offset 16
 1253 0004 00AF     		add	r7, sp, #0
 1254              		.cfi_def_cfa_register 7
 1255 0006 7860     		str	r0, [r7, #4]
 1256 0008 3960     		str	r1, [r7]
 1257              		.loc 1 125 0
 1258 000a 0023     		mov	r3, #0
 1259 000c 181C     		mov	r0, r3
 1260 000e BD46     		mov	sp, r7
 1261 0010 02B0     		add	sp, sp, #8
 1262              		@ sp needed
 1263 0012 80BD     		pop	{r7, pc}
 1264              		.cfi_endproc
 1265              	.LFE50:
 1266              		.size	conv_str2oa, .-conv_str2oa
 1267              		.text
 1268              	.Letext0: