ARM GAS  C:\Users\SDEVAS~1\AppData\Local\Temp\ccBlrBYz.s 			page 1


   1              		.cpu cortex-m0
   2              		.fpu softvfp
   3              		.eabi_attribute 20, 1
   4              		.eabi_attribute 21, 1
   5              		.eabi_attribute 23, 3
   6              		.eabi_attribute 24, 1
   7              		.eabi_attribute 25, 1
   8              		.eabi_attribute 26, 1
   9              		.eabi_attribute 30, 6
  10              		.eabi_attribute 34, 0
  11              		.eabi_attribute 18, 4
  12              		.code	16
  13              		.file	"comm_RS485_UART_UART.c"
  14              		.text
  15              	.Ltext0:
  16              		.cfi_sections	.debug_frame
  17              		.section	.text.comm_RS485_UART_UartInit,"ax",%progbits
  18              		.align	2
  19              		.global	comm_RS485_UART_UartInit
  20              		.code	16
  21              		.thumb_func
  22              		.type	comm_RS485_UART_UartInit, %function
  23              	comm_RS485_UART_UartInit:
  24              	.LFB0:
  25              		.file 1 ".\\Generated_Source\\PSoC4\\comm_RS485_UART_UART.c"
   1:.\Generated_Source\PSoC4/comm_RS485_UART_UART.c **** /*******************************************************************************
   2:.\Generated_Source\PSoC4/comm_RS485_UART_UART.c **** * File Name: comm_RS485_UART_UART.c
   3:.\Generated_Source\PSoC4/comm_RS485_UART_UART.c **** * Version 2.0
   4:.\Generated_Source\PSoC4/comm_RS485_UART_UART.c **** *
   5:.\Generated_Source\PSoC4/comm_RS485_UART_UART.c **** * Description:
   6:.\Generated_Source\PSoC4/comm_RS485_UART_UART.c **** *  This file provides the source code to the API for the SCB Component in
   7:.\Generated_Source\PSoC4/comm_RS485_UART_UART.c **** *  UART mode.
   8:.\Generated_Source\PSoC4/comm_RS485_UART_UART.c **** *
   9:.\Generated_Source\PSoC4/comm_RS485_UART_UART.c **** * Note:
  10:.\Generated_Source\PSoC4/comm_RS485_UART_UART.c **** *
  11:.\Generated_Source\PSoC4/comm_RS485_UART_UART.c **** *******************************************************************************
  12:.\Generated_Source\PSoC4/comm_RS485_UART_UART.c **** * Copyright 2013-2014, Cypress Semiconductor Corporation.  All rights reserved.
  13:.\Generated_Source\PSoC4/comm_RS485_UART_UART.c **** * You may use this file only in accordance with the license, terms, conditions,
  14:.\Generated_Source\PSoC4/comm_RS485_UART_UART.c **** * disclaimers, and limitations in the end user license agreement accompanying
  15:.\Generated_Source\PSoC4/comm_RS485_UART_UART.c **** * the software package with which this file was provided.
  16:.\Generated_Source\PSoC4/comm_RS485_UART_UART.c **** *******************************************************************************/
  17:.\Generated_Source\PSoC4/comm_RS485_UART_UART.c **** 
  18:.\Generated_Source\PSoC4/comm_RS485_UART_UART.c **** #include "comm_RS485_UART_PVT.h"
  19:.\Generated_Source\PSoC4/comm_RS485_UART_UART.c **** #include "comm_RS485_UART_SPI_UART_PVT.h"
  20:.\Generated_Source\PSoC4/comm_RS485_UART_UART.c **** 
  21:.\Generated_Source\PSoC4/comm_RS485_UART_UART.c **** 
  22:.\Generated_Source\PSoC4/comm_RS485_UART_UART.c **** #if(comm_RS485_UART_SCB_MODE_UNCONFIG_CONST_CFG)
  23:.\Generated_Source\PSoC4/comm_RS485_UART_UART.c **** 
  24:.\Generated_Source\PSoC4/comm_RS485_UART_UART.c ****     /***************************************
  25:.\Generated_Source\PSoC4/comm_RS485_UART_UART.c ****     *  Configuration Structure Initialization
  26:.\Generated_Source\PSoC4/comm_RS485_UART_UART.c ****     ***************************************/
  27:.\Generated_Source\PSoC4/comm_RS485_UART_UART.c **** 
  28:.\Generated_Source\PSoC4/comm_RS485_UART_UART.c ****     const comm_RS485_UART_UART_INIT_STRUCT comm_RS485_UART_configUart =
  29:.\Generated_Source\PSoC4/comm_RS485_UART_UART.c ****     {
  30:.\Generated_Source\PSoC4/comm_RS485_UART_UART.c ****         comm_RS485_UART_UART_SUB_MODE,
  31:.\Generated_Source\PSoC4/comm_RS485_UART_UART.c ****         comm_RS485_UART_UART_DIRECTION,
  32:.\Generated_Source\PSoC4/comm_RS485_UART_UART.c ****         comm_RS485_UART_UART_DATA_BITS_NUM,
ARM GAS  C:\Users\SDEVAS~1\AppData\Local\Temp\ccBlrBYz.s 			page 2


  33:.\Generated_Source\PSoC4/comm_RS485_UART_UART.c ****         comm_RS485_UART_UART_PARITY_TYPE,
  34:.\Generated_Source\PSoC4/comm_RS485_UART_UART.c ****         comm_RS485_UART_UART_STOP_BITS_NUM,
  35:.\Generated_Source\PSoC4/comm_RS485_UART_UART.c ****         comm_RS485_UART_UART_OVS_FACTOR,
  36:.\Generated_Source\PSoC4/comm_RS485_UART_UART.c ****         comm_RS485_UART_UART_IRDA_LOW_POWER,
  37:.\Generated_Source\PSoC4/comm_RS485_UART_UART.c ****         comm_RS485_UART_UART_MEDIAN_FILTER_ENABLE,
  38:.\Generated_Source\PSoC4/comm_RS485_UART_UART.c ****         comm_RS485_UART_UART_RETRY_ON_NACK,
  39:.\Generated_Source\PSoC4/comm_RS485_UART_UART.c ****         comm_RS485_UART_UART_IRDA_POLARITY,
  40:.\Generated_Source\PSoC4/comm_RS485_UART_UART.c ****         comm_RS485_UART_UART_DROP_ON_PARITY_ERR,
  41:.\Generated_Source\PSoC4/comm_RS485_UART_UART.c ****         comm_RS485_UART_UART_DROP_ON_FRAME_ERR,
  42:.\Generated_Source\PSoC4/comm_RS485_UART_UART.c ****         comm_RS485_UART_UART_WAKE_ENABLE,
  43:.\Generated_Source\PSoC4/comm_RS485_UART_UART.c ****         0u,
  44:.\Generated_Source\PSoC4/comm_RS485_UART_UART.c ****         NULL,
  45:.\Generated_Source\PSoC4/comm_RS485_UART_UART.c ****         0u,
  46:.\Generated_Source\PSoC4/comm_RS485_UART_UART.c ****         NULL,
  47:.\Generated_Source\PSoC4/comm_RS485_UART_UART.c ****         comm_RS485_UART_UART_MP_MODE_ENABLE,
  48:.\Generated_Source\PSoC4/comm_RS485_UART_UART.c ****         comm_RS485_UART_UART_MP_ACCEPT_ADDRESS,
  49:.\Generated_Source\PSoC4/comm_RS485_UART_UART.c ****         comm_RS485_UART_UART_MP_RX_ADDRESS,
  50:.\Generated_Source\PSoC4/comm_RS485_UART_UART.c ****         comm_RS485_UART_UART_MP_RX_ADDRESS_MASK,
  51:.\Generated_Source\PSoC4/comm_RS485_UART_UART.c ****         (uint32) comm_RS485_UART_SCB_IRQ_INTERNAL,
  52:.\Generated_Source\PSoC4/comm_RS485_UART_UART.c ****         comm_RS485_UART_UART_INTR_RX_MASK,
  53:.\Generated_Source\PSoC4/comm_RS485_UART_UART.c ****         comm_RS485_UART_UART_RX_TRIGGER_LEVEL,
  54:.\Generated_Source\PSoC4/comm_RS485_UART_UART.c ****         comm_RS485_UART_UART_INTR_TX_MASK,
  55:.\Generated_Source\PSoC4/comm_RS485_UART_UART.c ****         comm_RS485_UART_UART_TX_TRIGGER_LEVEL,
  56:.\Generated_Source\PSoC4/comm_RS485_UART_UART.c ****         (uint8) comm_RS485_UART_UART_BYTE_MODE_ENABLE,
  57:.\Generated_Source\PSoC4/comm_RS485_UART_UART.c ****         (uint8) comm_RS485_UART_UART_CTS_ENABLE,
  58:.\Generated_Source\PSoC4/comm_RS485_UART_UART.c ****         (uint8) comm_RS485_UART_UART_CTS_POLARITY,
  59:.\Generated_Source\PSoC4/comm_RS485_UART_UART.c ****         (uint8) comm_RS485_UART_UART_RTS_POLARITY,
  60:.\Generated_Source\PSoC4/comm_RS485_UART_UART.c ****         (uint8) comm_RS485_UART_UART_RTS_FIFO_LEVEL
  61:.\Generated_Source\PSoC4/comm_RS485_UART_UART.c ****     };
  62:.\Generated_Source\PSoC4/comm_RS485_UART_UART.c **** 
  63:.\Generated_Source\PSoC4/comm_RS485_UART_UART.c **** 
  64:.\Generated_Source\PSoC4/comm_RS485_UART_UART.c ****     /*******************************************************************************
  65:.\Generated_Source\PSoC4/comm_RS485_UART_UART.c ****     * Function Name: comm_RS485_UART_UartInit
  66:.\Generated_Source\PSoC4/comm_RS485_UART_UART.c ****     ********************************************************************************
  67:.\Generated_Source\PSoC4/comm_RS485_UART_UART.c ****     *
  68:.\Generated_Source\PSoC4/comm_RS485_UART_UART.c ****     * Summary:
  69:.\Generated_Source\PSoC4/comm_RS485_UART_UART.c ****     *  Configures the SCB for the UART operation.
  70:.\Generated_Source\PSoC4/comm_RS485_UART_UART.c ****     *
  71:.\Generated_Source\PSoC4/comm_RS485_UART_UART.c ****     * Parameters:
  72:.\Generated_Source\PSoC4/comm_RS485_UART_UART.c ****     *  config:  Pointer to a structure that contains the following ordered list of
  73:.\Generated_Source\PSoC4/comm_RS485_UART_UART.c ****     *           fields. These fields match the selections available in the
  74:.\Generated_Source\PSoC4/comm_RS485_UART_UART.c ****     *           customizer.
  75:.\Generated_Source\PSoC4/comm_RS485_UART_UART.c ****     *
  76:.\Generated_Source\PSoC4/comm_RS485_UART_UART.c ****     * Return:
  77:.\Generated_Source\PSoC4/comm_RS485_UART_UART.c ****     *  None
  78:.\Generated_Source\PSoC4/comm_RS485_UART_UART.c ****     *
  79:.\Generated_Source\PSoC4/comm_RS485_UART_UART.c ****     *******************************************************************************/
  80:.\Generated_Source\PSoC4/comm_RS485_UART_UART.c ****     void comm_RS485_UART_UartInit(const comm_RS485_UART_UART_INIT_STRUCT *config)
  81:.\Generated_Source\PSoC4/comm_RS485_UART_UART.c ****     {
  82:.\Generated_Source\PSoC4/comm_RS485_UART_UART.c ****         uint32 pinsConfig;
  83:.\Generated_Source\PSoC4/comm_RS485_UART_UART.c **** 
  84:.\Generated_Source\PSoC4/comm_RS485_UART_UART.c ****         if(NULL == config)
  85:.\Generated_Source\PSoC4/comm_RS485_UART_UART.c ****         {
  86:.\Generated_Source\PSoC4/comm_RS485_UART_UART.c ****             CYASSERT(0u != 0u); /* Halt execution due to bad function parameter */
  87:.\Generated_Source\PSoC4/comm_RS485_UART_UART.c ****         }
  88:.\Generated_Source\PSoC4/comm_RS485_UART_UART.c ****         else
  89:.\Generated_Source\PSoC4/comm_RS485_UART_UART.c ****         {
ARM GAS  C:\Users\SDEVAS~1\AppData\Local\Temp\ccBlrBYz.s 			page 3


  90:.\Generated_Source\PSoC4/comm_RS485_UART_UART.c ****             /* Get direction to configure UART pins: TX, RX or TX+RX */
  91:.\Generated_Source\PSoC4/comm_RS485_UART_UART.c ****             pinsConfig  = config->direction;
  92:.\Generated_Source\PSoC4/comm_RS485_UART_UART.c **** 
  93:.\Generated_Source\PSoC4/comm_RS485_UART_UART.c ****         #if !(comm_RS485_UART_CY_SCBIP_V0 || comm_RS485_UART_CY_SCBIP_V1)
  94:.\Generated_Source\PSoC4/comm_RS485_UART_UART.c ****             /* Add RTS and CTS pins to configure */
  95:.\Generated_Source\PSoC4/comm_RS485_UART_UART.c ****             pinsConfig |= (0u != config->rtsRxFifoLevel) ? (comm_RS485_UART_UART_RTS_PIN_ENABLE) : 
  96:.\Generated_Source\PSoC4/comm_RS485_UART_UART.c ****             pinsConfig |= (0u != config->enableCts)         ? (comm_RS485_UART_UART_CTS_PIN_ENABLE)
  97:.\Generated_Source\PSoC4/comm_RS485_UART_UART.c ****         #endif /* !(comm_RS485_UART_CY_SCBIP_V0 || comm_RS485_UART_CY_SCBIP_V1) */
  98:.\Generated_Source\PSoC4/comm_RS485_UART_UART.c **** 
  99:.\Generated_Source\PSoC4/comm_RS485_UART_UART.c ****             /* Configure pins */
 100:.\Generated_Source\PSoC4/comm_RS485_UART_UART.c ****             comm_RS485_UART_SetPins(comm_RS485_UART_SCB_MODE_UART, config->mode, pinsConfig);
 101:.\Generated_Source\PSoC4/comm_RS485_UART_UART.c **** 
 102:.\Generated_Source\PSoC4/comm_RS485_UART_UART.c ****             /* Store internal configuration */
 103:.\Generated_Source\PSoC4/comm_RS485_UART_UART.c ****             comm_RS485_UART_scbMode       = (uint8) comm_RS485_UART_SCB_MODE_UART;
 104:.\Generated_Source\PSoC4/comm_RS485_UART_UART.c ****             comm_RS485_UART_scbEnableWake = (uint8) config->enableWake;
 105:.\Generated_Source\PSoC4/comm_RS485_UART_UART.c ****             comm_RS485_UART_scbEnableIntr = (uint8) config->enableInterrupt;
 106:.\Generated_Source\PSoC4/comm_RS485_UART_UART.c **** 
 107:.\Generated_Source\PSoC4/comm_RS485_UART_UART.c ****             /* Set RX direction internal variables */
 108:.\Generated_Source\PSoC4/comm_RS485_UART_UART.c ****             comm_RS485_UART_rxBuffer      =         config->rxBuffer;
 109:.\Generated_Source\PSoC4/comm_RS485_UART_UART.c ****             comm_RS485_UART_rxDataBits    = (uint8) config->dataBits;
 110:.\Generated_Source\PSoC4/comm_RS485_UART_UART.c ****             comm_RS485_UART_rxBufferSize  = (uint8) config->rxBufferSize;
 111:.\Generated_Source\PSoC4/comm_RS485_UART_UART.c **** 
 112:.\Generated_Source\PSoC4/comm_RS485_UART_UART.c ****             /* Set TX direction internal variables */
 113:.\Generated_Source\PSoC4/comm_RS485_UART_UART.c ****             comm_RS485_UART_txBuffer      =         config->txBuffer;
 114:.\Generated_Source\PSoC4/comm_RS485_UART_UART.c ****             comm_RS485_UART_txDataBits    = (uint8) config->dataBits;
 115:.\Generated_Source\PSoC4/comm_RS485_UART_UART.c ****             comm_RS485_UART_txBufferSize  = (uint8) config->txBufferSize;
 116:.\Generated_Source\PSoC4/comm_RS485_UART_UART.c **** 
 117:.\Generated_Source\PSoC4/comm_RS485_UART_UART.c ****             /* Configure UART interface */
 118:.\Generated_Source\PSoC4/comm_RS485_UART_UART.c ****             if(comm_RS485_UART_UART_MODE_IRDA == config->mode)
 119:.\Generated_Source\PSoC4/comm_RS485_UART_UART.c ****             {
 120:.\Generated_Source\PSoC4/comm_RS485_UART_UART.c ****                 /* OVS settings: IrDA */
 121:.\Generated_Source\PSoC4/comm_RS485_UART_UART.c ****                 comm_RS485_UART_CTRL_REG  = ((0u != config->enableIrdaLowPower) ?
 122:.\Generated_Source\PSoC4/comm_RS485_UART_UART.c ****                                                 (comm_RS485_UART_UART_GET_CTRL_OVS_IRDA_LP(config->
 123:.\Generated_Source\PSoC4/comm_RS485_UART_UART.c ****                                                 (comm_RS485_UART_CTRL_OVS_IRDA_OVS16));
 124:.\Generated_Source\PSoC4/comm_RS485_UART_UART.c ****             }
 125:.\Generated_Source\PSoC4/comm_RS485_UART_UART.c ****             else
 126:.\Generated_Source\PSoC4/comm_RS485_UART_UART.c ****             {
 127:.\Generated_Source\PSoC4/comm_RS485_UART_UART.c ****                 /* OVS settings: UART and SmartCard */
 128:.\Generated_Source\PSoC4/comm_RS485_UART_UART.c ****                 comm_RS485_UART_CTRL_REG  = comm_RS485_UART_GET_CTRL_OVS(config->oversample);
 129:.\Generated_Source\PSoC4/comm_RS485_UART_UART.c ****             }
 130:.\Generated_Source\PSoC4/comm_RS485_UART_UART.c **** 
 131:.\Generated_Source\PSoC4/comm_RS485_UART_UART.c ****             comm_RS485_UART_CTRL_REG     |= comm_RS485_UART_GET_CTRL_BYTE_MODE  (config->enableByte
 132:.\Generated_Source\PSoC4/comm_RS485_UART_UART.c ****                                              comm_RS485_UART_GET_CTRL_ADDR_ACCEPT(config->multiproc
 133:.\Generated_Source\PSoC4/comm_RS485_UART_UART.c ****                                              comm_RS485_UART_CTRL_UART;
 134:.\Generated_Source\PSoC4/comm_RS485_UART_UART.c **** 
 135:.\Generated_Source\PSoC4/comm_RS485_UART_UART.c ****             /* Configure sub-mode: UART, SmartCard or IrDA */
 136:.\Generated_Source\PSoC4/comm_RS485_UART_UART.c ****             comm_RS485_UART_UART_CTRL_REG = comm_RS485_UART_GET_UART_CTRL_MODE(config->mode);
 137:.\Generated_Source\PSoC4/comm_RS485_UART_UART.c **** 
 138:.\Generated_Source\PSoC4/comm_RS485_UART_UART.c ****             /* Configure RX direction */
 139:.\Generated_Source\PSoC4/comm_RS485_UART_UART.c ****             comm_RS485_UART_UART_RX_CTRL_REG = comm_RS485_UART_GET_UART_RX_CTRL_MODE(config->stopBi
 140:.\Generated_Source\PSoC4/comm_RS485_UART_UART.c ****                                         comm_RS485_UART_GET_UART_RX_CTRL_POLARITY(config->enableInv
 141:.\Generated_Source\PSoC4/comm_RS485_UART_UART.c ****                                         comm_RS485_UART_GET_UART_RX_CTRL_MP_MODE(config->enableMult
 142:.\Generated_Source\PSoC4/comm_RS485_UART_UART.c ****                                         comm_RS485_UART_GET_UART_RX_CTRL_DROP_ON_PARITY_ERR(config-
 143:.\Generated_Source\PSoC4/comm_RS485_UART_UART.c ****                                         comm_RS485_UART_GET_UART_RX_CTRL_DROP_ON_FRAME_ERR(config->
 144:.\Generated_Source\PSoC4/comm_RS485_UART_UART.c **** 
 145:.\Generated_Source\PSoC4/comm_RS485_UART_UART.c ****             if(comm_RS485_UART_UART_PARITY_NONE != config->parity)
 146:.\Generated_Source\PSoC4/comm_RS485_UART_UART.c ****             {
ARM GAS  C:\Users\SDEVAS~1\AppData\Local\Temp\ccBlrBYz.s 			page 4


 147:.\Generated_Source\PSoC4/comm_RS485_UART_UART.c ****                comm_RS485_UART_UART_RX_CTRL_REG |= comm_RS485_UART_GET_UART_RX_CTRL_PARITY(config->
 148:.\Generated_Source\PSoC4/comm_RS485_UART_UART.c ****                                                     comm_RS485_UART_UART_RX_CTRL_PARITY_ENABLED;
 149:.\Generated_Source\PSoC4/comm_RS485_UART_UART.c ****             }
 150:.\Generated_Source\PSoC4/comm_RS485_UART_UART.c **** 
 151:.\Generated_Source\PSoC4/comm_RS485_UART_UART.c ****             comm_RS485_UART_RX_CTRL_REG      = comm_RS485_UART_GET_RX_CTRL_DATA_WIDTH(config->dataB
 152:.\Generated_Source\PSoC4/comm_RS485_UART_UART.c ****                                                 comm_RS485_UART_GET_RX_CTRL_MEDIAN(config->enableMe
 153:.\Generated_Source\PSoC4/comm_RS485_UART_UART.c ****                                                 comm_RS485_UART_GET_UART_RX_CTRL_ENABLED(config->di
 154:.\Generated_Source\PSoC4/comm_RS485_UART_UART.c **** 
 155:.\Generated_Source\PSoC4/comm_RS485_UART_UART.c ****             comm_RS485_UART_RX_FIFO_CTRL_REG = comm_RS485_UART_GET_RX_FIFO_CTRL_TRIGGER_LEVEL(confi
 156:.\Generated_Source\PSoC4/comm_RS485_UART_UART.c **** 
 157:.\Generated_Source\PSoC4/comm_RS485_UART_UART.c ****             /* Configure MP address */
 158:.\Generated_Source\PSoC4/comm_RS485_UART_UART.c ****             comm_RS485_UART_RX_MATCH_REG     = comm_RS485_UART_GET_RX_MATCH_ADDR(config->multiprocA
 159:.\Generated_Source\PSoC4/comm_RS485_UART_UART.c ****                                                 comm_RS485_UART_GET_RX_MATCH_MASK(config->multiproc
 160:.\Generated_Source\PSoC4/comm_RS485_UART_UART.c **** 
 161:.\Generated_Source\PSoC4/comm_RS485_UART_UART.c ****             /* Configure RX direction */
 162:.\Generated_Source\PSoC4/comm_RS485_UART_UART.c ****             comm_RS485_UART_UART_TX_CTRL_REG = comm_RS485_UART_GET_UART_TX_CTRL_MODE(config->stopBi
 163:.\Generated_Source\PSoC4/comm_RS485_UART_UART.c ****                                                 comm_RS485_UART_GET_UART_TX_CTRL_RETRY_NACK(config-
 164:.\Generated_Source\PSoC4/comm_RS485_UART_UART.c **** 
 165:.\Generated_Source\PSoC4/comm_RS485_UART_UART.c ****             if(comm_RS485_UART_UART_PARITY_NONE != config->parity)
 166:.\Generated_Source\PSoC4/comm_RS485_UART_UART.c ****             {
 167:.\Generated_Source\PSoC4/comm_RS485_UART_UART.c ****                comm_RS485_UART_UART_TX_CTRL_REG |= comm_RS485_UART_GET_UART_TX_CTRL_PARITY(config->
 168:.\Generated_Source\PSoC4/comm_RS485_UART_UART.c ****                                                     comm_RS485_UART_UART_TX_CTRL_PARITY_ENABLED;
 169:.\Generated_Source\PSoC4/comm_RS485_UART_UART.c ****             }
 170:.\Generated_Source\PSoC4/comm_RS485_UART_UART.c **** 
 171:.\Generated_Source\PSoC4/comm_RS485_UART_UART.c ****             comm_RS485_UART_TX_CTRL_REG      = comm_RS485_UART_GET_TX_CTRL_DATA_WIDTH(config->dataB
 172:.\Generated_Source\PSoC4/comm_RS485_UART_UART.c ****                                                 comm_RS485_UART_GET_UART_TX_CTRL_ENABLED(config->di
 173:.\Generated_Source\PSoC4/comm_RS485_UART_UART.c **** 
 174:.\Generated_Source\PSoC4/comm_RS485_UART_UART.c ****             comm_RS485_UART_TX_FIFO_CTRL_REG = comm_RS485_UART_GET_TX_FIFO_CTRL_TRIGGER_LEVEL(confi
 175:.\Generated_Source\PSoC4/comm_RS485_UART_UART.c **** 
 176:.\Generated_Source\PSoC4/comm_RS485_UART_UART.c ****         #if !(comm_RS485_UART_CY_SCBIP_V0 || comm_RS485_UART_CY_SCBIP_V1)
 177:.\Generated_Source\PSoC4/comm_RS485_UART_UART.c ****             comm_RS485_UART_UART_FLOW_CTRL_REG = comm_RS485_UART_GET_UART_FLOW_CTRL_CTS_ENABLE(conf
 178:.\Generated_Source\PSoC4/comm_RS485_UART_UART.c ****                                             comm_RS485_UART_GET_UART_FLOW_CTRL_CTS_POLARITY (config
 179:.\Generated_Source\PSoC4/comm_RS485_UART_UART.c ****                                             comm_RS485_UART_GET_UART_FLOW_CTRL_RTS_POLARITY(config-
 180:.\Generated_Source\PSoC4/comm_RS485_UART_UART.c ****                                             comm_RS485_UART_GET_UART_FLOW_CTRL_TRIGGER_LEVEL(config
 181:.\Generated_Source\PSoC4/comm_RS485_UART_UART.c ****         #endif /* !(comm_RS485_UART_CY_SCBIP_V0 || comm_RS485_UART_CY_SCBIP_V1) */
 182:.\Generated_Source\PSoC4/comm_RS485_UART_UART.c **** 
 183:.\Generated_Source\PSoC4/comm_RS485_UART_UART.c ****             /* Configure interrupt with UART handler but do not enable it */
 184:.\Generated_Source\PSoC4/comm_RS485_UART_UART.c ****             CyIntDisable    (comm_RS485_UART_ISR_NUMBER);
 185:.\Generated_Source\PSoC4/comm_RS485_UART_UART.c ****             CyIntSetPriority(comm_RS485_UART_ISR_NUMBER, comm_RS485_UART_ISR_PRIORITY);
 186:.\Generated_Source\PSoC4/comm_RS485_UART_UART.c ****             (void) CyIntSetVector(comm_RS485_UART_ISR_NUMBER, &comm_RS485_UART_SPI_UART_ISR);
 187:.\Generated_Source\PSoC4/comm_RS485_UART_UART.c **** 
 188:.\Generated_Source\PSoC4/comm_RS485_UART_UART.c ****             /* Configure WAKE interrupt */
 189:.\Generated_Source\PSoC4/comm_RS485_UART_UART.c ****         #if(comm_RS485_UART_UART_RX_WAKEUP_IRQ)
 190:.\Generated_Source\PSoC4/comm_RS485_UART_UART.c ****             CyIntDisable    (comm_RS485_UART_RX_WAKE_ISR_NUMBER);
 191:.\Generated_Source\PSoC4/comm_RS485_UART_UART.c ****             CyIntSetPriority(comm_RS485_UART_RX_WAKE_ISR_NUMBER, comm_RS485_UART_RX_WAKE_ISR_PRIORI
 192:.\Generated_Source\PSoC4/comm_RS485_UART_UART.c ****             (void) CyIntSetVector(comm_RS485_UART_RX_WAKE_ISR_NUMBER, &comm_RS485_UART_UART_WAKEUP_
 193:.\Generated_Source\PSoC4/comm_RS485_UART_UART.c ****         #endif /* (comm_RS485_UART_UART_RX_WAKEUP_IRQ) */
 194:.\Generated_Source\PSoC4/comm_RS485_UART_UART.c **** 
 195:.\Generated_Source\PSoC4/comm_RS485_UART_UART.c ****             /* Configure interrupt sources */
 196:.\Generated_Source\PSoC4/comm_RS485_UART_UART.c ****             comm_RS485_UART_INTR_I2C_EC_MASK_REG = comm_RS485_UART_NO_INTR_SOURCES;
 197:.\Generated_Source\PSoC4/comm_RS485_UART_UART.c ****             comm_RS485_UART_INTR_SPI_EC_MASK_REG = comm_RS485_UART_NO_INTR_SOURCES;
 198:.\Generated_Source\PSoC4/comm_RS485_UART_UART.c ****             comm_RS485_UART_INTR_SLAVE_MASK_REG  = comm_RS485_UART_NO_INTR_SOURCES;
 199:.\Generated_Source\PSoC4/comm_RS485_UART_UART.c ****             comm_RS485_UART_INTR_MASTER_MASK_REG = comm_RS485_UART_NO_INTR_SOURCES;
 200:.\Generated_Source\PSoC4/comm_RS485_UART_UART.c ****             comm_RS485_UART_INTR_RX_MASK_REG     = config->rxInterruptMask;
 201:.\Generated_Source\PSoC4/comm_RS485_UART_UART.c ****             comm_RS485_UART_INTR_TX_MASK_REG     = config->txInterruptMask;
 202:.\Generated_Source\PSoC4/comm_RS485_UART_UART.c **** 
 203:.\Generated_Source\PSoC4/comm_RS485_UART_UART.c ****             /* Clear RX buffer indexes */
ARM GAS  C:\Users\SDEVAS~1\AppData\Local\Temp\ccBlrBYz.s 			page 5


 204:.\Generated_Source\PSoC4/comm_RS485_UART_UART.c ****             comm_RS485_UART_rxBufferHead     = 0u;
 205:.\Generated_Source\PSoC4/comm_RS485_UART_UART.c ****             comm_RS485_UART_rxBufferTail     = 0u;
 206:.\Generated_Source\PSoC4/comm_RS485_UART_UART.c ****             comm_RS485_UART_rxBufferOverflow = 0u;
 207:.\Generated_Source\PSoC4/comm_RS485_UART_UART.c **** 
 208:.\Generated_Source\PSoC4/comm_RS485_UART_UART.c ****             /* Clear TX buffer indexes */
 209:.\Generated_Source\PSoC4/comm_RS485_UART_UART.c ****             comm_RS485_UART_txBufferHead = 0u;
 210:.\Generated_Source\PSoC4/comm_RS485_UART_UART.c ****             comm_RS485_UART_txBufferTail = 0u;
 211:.\Generated_Source\PSoC4/comm_RS485_UART_UART.c ****         }
 212:.\Generated_Source\PSoC4/comm_RS485_UART_UART.c ****     }
 213:.\Generated_Source\PSoC4/comm_RS485_UART_UART.c **** 
 214:.\Generated_Source\PSoC4/comm_RS485_UART_UART.c **** #else
 215:.\Generated_Source\PSoC4/comm_RS485_UART_UART.c **** 
 216:.\Generated_Source\PSoC4/comm_RS485_UART_UART.c ****     /*******************************************************************************
 217:.\Generated_Source\PSoC4/comm_RS485_UART_UART.c ****     * Function Name: comm_RS485_UART_UartInit
 218:.\Generated_Source\PSoC4/comm_RS485_UART_UART.c ****     ********************************************************************************
 219:.\Generated_Source\PSoC4/comm_RS485_UART_UART.c ****     *
 220:.\Generated_Source\PSoC4/comm_RS485_UART_UART.c ****     * Summary:
 221:.\Generated_Source\PSoC4/comm_RS485_UART_UART.c ****     *  Configures the SCB for the UART operation.
 222:.\Generated_Source\PSoC4/comm_RS485_UART_UART.c ****     *
 223:.\Generated_Source\PSoC4/comm_RS485_UART_UART.c ****     * Parameters:
 224:.\Generated_Source\PSoC4/comm_RS485_UART_UART.c ****     *  None
 225:.\Generated_Source\PSoC4/comm_RS485_UART_UART.c ****     *
 226:.\Generated_Source\PSoC4/comm_RS485_UART_UART.c ****     * Return:
 227:.\Generated_Source\PSoC4/comm_RS485_UART_UART.c ****     *  None
 228:.\Generated_Source\PSoC4/comm_RS485_UART_UART.c ****     *
 229:.\Generated_Source\PSoC4/comm_RS485_UART_UART.c ****     *******************************************************************************/
 230:.\Generated_Source\PSoC4/comm_RS485_UART_UART.c ****     void comm_RS485_UART_UartInit(void)
 231:.\Generated_Source\PSoC4/comm_RS485_UART_UART.c ****     {
  26              		.loc 1 231 0
  27              		.cfi_startproc
  28 0000 80B5     		push	{r7, lr}
  29              		.cfi_def_cfa_offset 8
  30              		.cfi_offset 7, -8
  31              		.cfi_offset 14, -4
  32 0002 00AF     		add	r7, sp, #0
  33              		.cfi_def_cfa_register 7
 232:.\Generated_Source\PSoC4/comm_RS485_UART_UART.c ****         /* Configure UART interface */
 233:.\Generated_Source\PSoC4/comm_RS485_UART_UART.c ****         comm_RS485_UART_CTRL_REG = comm_RS485_UART_UART_DEFAULT_CTRL;
  34              		.loc 1 233 0
  35 0004 1D4B     		ldr	r3, .L2
  36 0006 1E4A     		ldr	r2, .L2+4
  37 0008 1A60     		str	r2, [r3]
 234:.\Generated_Source\PSoC4/comm_RS485_UART_UART.c **** 
 235:.\Generated_Source\PSoC4/comm_RS485_UART_UART.c ****         /* Configure sub-mode: UART, SmartCard or IrDA */
 236:.\Generated_Source\PSoC4/comm_RS485_UART_UART.c ****         comm_RS485_UART_UART_CTRL_REG = comm_RS485_UART_UART_DEFAULT_UART_CTRL;
  38              		.loc 1 236 0
  39 000a 1E4B     		ldr	r3, .L2+8
  40 000c 0022     		mov	r2, #0
  41 000e 1A60     		str	r2, [r3]
 237:.\Generated_Source\PSoC4/comm_RS485_UART_UART.c **** 
 238:.\Generated_Source\PSoC4/comm_RS485_UART_UART.c ****         /* Configure RX direction */
 239:.\Generated_Source\PSoC4/comm_RS485_UART_UART.c ****         comm_RS485_UART_UART_RX_CTRL_REG = comm_RS485_UART_UART_DEFAULT_UART_RX_CTRL;
  42              		.loc 1 239 0
  43 0010 1D4B     		ldr	r3, .L2+12
  44 0012 1E4A     		ldr	r2, .L2+16
  45 0014 1A60     		str	r2, [r3]
 240:.\Generated_Source\PSoC4/comm_RS485_UART_UART.c ****         comm_RS485_UART_RX_CTRL_REG      = comm_RS485_UART_UART_DEFAULT_RX_CTRL;
ARM GAS  C:\Users\SDEVAS~1\AppData\Local\Temp\ccBlrBYz.s 			page 6


  46              		.loc 1 240 0
  47 0016 1E4B     		ldr	r3, .L2+20
  48 0018 1E4A     		ldr	r2, .L2+24
  49 001a 1A60     		str	r2, [r3]
 241:.\Generated_Source\PSoC4/comm_RS485_UART_UART.c ****         comm_RS485_UART_RX_FIFO_CTRL_REG = comm_RS485_UART_UART_DEFAULT_RX_FIFO_CTRL;
  50              		.loc 1 241 0
  51 001c 1E4B     		ldr	r3, .L2+28
  52 001e 0722     		mov	r2, #7
  53 0020 1A60     		str	r2, [r3]
 242:.\Generated_Source\PSoC4/comm_RS485_UART_UART.c ****         comm_RS485_UART_RX_MATCH_REG     = comm_RS485_UART_UART_DEFAULT_RX_MATCH_REG;
  54              		.loc 1 242 0
  55 0022 1E4B     		ldr	r3, .L2+32
  56 0024 1E4A     		ldr	r2, .L2+36
  57 0026 1A60     		str	r2, [r3]
 243:.\Generated_Source\PSoC4/comm_RS485_UART_UART.c **** 
 244:.\Generated_Source\PSoC4/comm_RS485_UART_UART.c ****         /* Configure TX direction */
 245:.\Generated_Source\PSoC4/comm_RS485_UART_UART.c ****         comm_RS485_UART_UART_TX_CTRL_REG = comm_RS485_UART_UART_DEFAULT_UART_TX_CTRL;
  58              		.loc 1 245 0
  59 0028 1E4B     		ldr	r3, .L2+40
  60 002a 0122     		mov	r2, #1
  61 002c 1A60     		str	r2, [r3]
 246:.\Generated_Source\PSoC4/comm_RS485_UART_UART.c ****         comm_RS485_UART_TX_CTRL_REG      = comm_RS485_UART_UART_DEFAULT_TX_CTRL;
  62              		.loc 1 246 0
  63 002e 1E4B     		ldr	r3, .L2+44
  64 0030 184A     		ldr	r2, .L2+24
  65 0032 1A60     		str	r2, [r3]
 247:.\Generated_Source\PSoC4/comm_RS485_UART_UART.c ****         comm_RS485_UART_TX_FIFO_CTRL_REG = comm_RS485_UART_UART_DEFAULT_TX_FIFO_CTRL;
  66              		.loc 1 247 0
  67 0034 1D4B     		ldr	r3, .L2+48
  68 0036 0022     		mov	r2, #0
  69 0038 1A60     		str	r2, [r3]
 248:.\Generated_Source\PSoC4/comm_RS485_UART_UART.c **** 
 249:.\Generated_Source\PSoC4/comm_RS485_UART_UART.c ****     #if !(comm_RS485_UART_CY_SCBIP_V0 || comm_RS485_UART_CY_SCBIP_V1)
 250:.\Generated_Source\PSoC4/comm_RS485_UART_UART.c ****         comm_RS485_UART_UART_FLOW_CTRL_REG = comm_RS485_UART_UART_DEFAULT_FLOW_CTRL;
 251:.\Generated_Source\PSoC4/comm_RS485_UART_UART.c ****     #endif /* !(comm_RS485_UART_CY_SCBIP_V0 || comm_RS485_UART_CY_SCBIP_V1) */
 252:.\Generated_Source\PSoC4/comm_RS485_UART_UART.c **** 
 253:.\Generated_Source\PSoC4/comm_RS485_UART_UART.c ****         /* Configure interrupt with UART handler but do not enable it */
 254:.\Generated_Source\PSoC4/comm_RS485_UART_UART.c ****     #if(comm_RS485_UART_SCB_IRQ_INTERNAL)
 255:.\Generated_Source\PSoC4/comm_RS485_UART_UART.c ****         CyIntDisable    (comm_RS485_UART_ISR_NUMBER);
  70              		.loc 1 255 0
  71 003a 0A20     		mov	r0, #10
  72 003c FFF7FEFF 		bl	CyIntDisable
 256:.\Generated_Source\PSoC4/comm_RS485_UART_UART.c ****         CyIntSetPriority(comm_RS485_UART_ISR_NUMBER, comm_RS485_UART_ISR_PRIORITY);
  73              		.loc 1 256 0
  74 0040 0A20     		mov	r0, #10
  75 0042 0321     		mov	r1, #3
  76 0044 FFF7FEFF 		bl	CyIntSetPriority
 257:.\Generated_Source\PSoC4/comm_RS485_UART_UART.c ****         (void) CyIntSetVector(comm_RS485_UART_ISR_NUMBER, &comm_RS485_UART_SPI_UART_ISR);
  77              		.loc 1 257 0
  78 0048 194B     		ldr	r3, .L2+52
  79 004a 0A20     		mov	r0, #10
  80 004c 191C     		mov	r1, r3
  81 004e FFF7FEFF 		bl	CyIntSetVector
 258:.\Generated_Source\PSoC4/comm_RS485_UART_UART.c ****     #endif /* (comm_RS485_UART_SCB_IRQ_INTERNAL) */
 259:.\Generated_Source\PSoC4/comm_RS485_UART_UART.c **** 
 260:.\Generated_Source\PSoC4/comm_RS485_UART_UART.c ****         /* Configure WAKE interrupt */
 261:.\Generated_Source\PSoC4/comm_RS485_UART_UART.c ****     #if(comm_RS485_UART_UART_RX_WAKEUP_IRQ)
ARM GAS  C:\Users\SDEVAS~1\AppData\Local\Temp\ccBlrBYz.s 			page 7


 262:.\Generated_Source\PSoC4/comm_RS485_UART_UART.c ****         CyIntDisable    (comm_RS485_UART_RX_WAKE_ISR_NUMBER);
 263:.\Generated_Source\PSoC4/comm_RS485_UART_UART.c ****         CyIntSetPriority(comm_RS485_UART_RX_WAKE_ISR_NUMBER, comm_RS485_UART_RX_WAKE_ISR_PRIORITY);
 264:.\Generated_Source\PSoC4/comm_RS485_UART_UART.c ****         (void) CyIntSetVector(comm_RS485_UART_RX_WAKE_ISR_NUMBER, &comm_RS485_UART_UART_WAKEUP_ISR)
 265:.\Generated_Source\PSoC4/comm_RS485_UART_UART.c ****     #endif /* (comm_RS485_UART_UART_RX_WAKEUP_IRQ) */
 266:.\Generated_Source\PSoC4/comm_RS485_UART_UART.c **** 
 267:.\Generated_Source\PSoC4/comm_RS485_UART_UART.c ****         /* Configure interrupt sources */
 268:.\Generated_Source\PSoC4/comm_RS485_UART_UART.c ****         comm_RS485_UART_INTR_I2C_EC_MASK_REG = comm_RS485_UART_UART_DEFAULT_INTR_I2C_EC_MASK;
  82              		.loc 1 268 0
  83 0052 184B     		ldr	r3, .L2+56
  84 0054 0022     		mov	r2, #0
  85 0056 1A60     		str	r2, [r3]
 269:.\Generated_Source\PSoC4/comm_RS485_UART_UART.c ****         comm_RS485_UART_INTR_SPI_EC_MASK_REG = comm_RS485_UART_UART_DEFAULT_INTR_SPI_EC_MASK;
  86              		.loc 1 269 0
  87 0058 174B     		ldr	r3, .L2+60
  88 005a 0022     		mov	r2, #0
  89 005c 1A60     		str	r2, [r3]
 270:.\Generated_Source\PSoC4/comm_RS485_UART_UART.c ****         comm_RS485_UART_INTR_SLAVE_MASK_REG  = comm_RS485_UART_UART_DEFAULT_INTR_SLAVE_MASK;
  90              		.loc 1 270 0
  91 005e 174B     		ldr	r3, .L2+64
  92 0060 0022     		mov	r2, #0
  93 0062 1A60     		str	r2, [r3]
 271:.\Generated_Source\PSoC4/comm_RS485_UART_UART.c ****         comm_RS485_UART_INTR_MASTER_MASK_REG = comm_RS485_UART_UART_DEFAULT_INTR_MASTER_MASK;
  94              		.loc 1 271 0
  95 0064 164B     		ldr	r3, .L2+68
  96 0066 0022     		mov	r2, #0
  97 0068 1A60     		str	r2, [r3]
 272:.\Generated_Source\PSoC4/comm_RS485_UART_UART.c ****         comm_RS485_UART_INTR_RX_MASK_REG     = comm_RS485_UART_UART_DEFAULT_INTR_RX_MASK;
  98              		.loc 1 272 0
  99 006a 164B     		ldr	r3, .L2+72
 100 006c 0422     		mov	r2, #4
 101 006e 1A60     		str	r2, [r3]
 273:.\Generated_Source\PSoC4/comm_RS485_UART_UART.c ****         comm_RS485_UART_INTR_TX_MASK_REG     = comm_RS485_UART_UART_DEFAULT_INTR_TX_MASK;
 102              		.loc 1 273 0
 103 0070 154B     		ldr	r3, .L2+76
 104 0072 8022     		mov	r2, #128
 105 0074 9200     		lsl	r2, r2, #2
 106 0076 1A60     		str	r2, [r3]
 274:.\Generated_Source\PSoC4/comm_RS485_UART_UART.c **** 
 275:.\Generated_Source\PSoC4/comm_RS485_UART_UART.c ****     #if(comm_RS485_UART_INTERNAL_RX_SW_BUFFER_CONST)
 276:.\Generated_Source\PSoC4/comm_RS485_UART_UART.c ****         comm_RS485_UART_rxBufferHead     = 0u;
 277:.\Generated_Source\PSoC4/comm_RS485_UART_UART.c ****         comm_RS485_UART_rxBufferTail     = 0u;
 278:.\Generated_Source\PSoC4/comm_RS485_UART_UART.c ****         comm_RS485_UART_rxBufferOverflow = 0u;
 279:.\Generated_Source\PSoC4/comm_RS485_UART_UART.c ****     #endif /* (comm_RS485_UART_INTERNAL_RX_SW_BUFFER_CONST) */
 280:.\Generated_Source\PSoC4/comm_RS485_UART_UART.c **** 
 281:.\Generated_Source\PSoC4/comm_RS485_UART_UART.c ****     #if(comm_RS485_UART_INTERNAL_TX_SW_BUFFER_CONST)
 282:.\Generated_Source\PSoC4/comm_RS485_UART_UART.c ****         comm_RS485_UART_txBufferHead = 0u;
 283:.\Generated_Source\PSoC4/comm_RS485_UART_UART.c ****         comm_RS485_UART_txBufferTail = 0u;
 284:.\Generated_Source\PSoC4/comm_RS485_UART_UART.c ****     #endif /* (comm_RS485_UART_INTERNAL_TX_SW_BUFFER_CONST) */
 285:.\Generated_Source\PSoC4/comm_RS485_UART_UART.c ****     }
 107              		.loc 1 285 0
 108 0078 BD46     		mov	sp, r7
 109              		@ sp needed
 110 007a 80BD     		pop	{r7, pc}
 111              	.L3:
 112              		.align	2
 113              	.L2:
 114 007c 00000640 		.word	1074135040
ARM GAS  C:\Users\SDEVAS~1\AppData\Local\Temp\ccBlrBYz.s 			page 8


 115 0080 0B000102 		.word	33619979
 116 0084 40000640 		.word	1074135104
 117 0088 48000640 		.word	1074135112
 118 008c 01040000 		.word	1025
 119 0090 00030640 		.word	1074135808
 120 0094 08000080 		.word	-2147483640
 121 0098 04030640 		.word	1074135812
 122 009c 10030640 		.word	1074135824
 123 00a0 0100FF00 		.word	16711681
 124 00a4 44000640 		.word	1074135108
 125 00a8 00020640 		.word	1074135552
 126 00ac 04020640 		.word	1074135556
 127 00b0 00000000 		.word	comm_RS485_UART_SPI_UART_ISR
 128 00b4 880E0640 		.word	1074138760
 129 00b8 C80E0640 		.word	1074138824
 130 00bc 480F0640 		.word	1074138952
 131 00c0 080F0640 		.word	1074138888
 132 00c4 C80F0640 		.word	1074139080
 133 00c8 880F0640 		.word	1074139016
 134              		.cfi_endproc
 135              	.LFE0:
 136              		.size	comm_RS485_UART_UartInit, .-comm_RS485_UART_UartInit
 137              		.section	.text.comm_RS485_UART_UartSetRxAddress,"ax",%progbits
 138              		.align	2
 139              		.global	comm_RS485_UART_UartSetRxAddress
 140              		.code	16
 141              		.thumb_func
 142              		.type	comm_RS485_UART_UartSetRxAddress, %function
 143              	comm_RS485_UART_UartSetRxAddress:
 144              	.LFB1:
 286:.\Generated_Source\PSoC4/comm_RS485_UART_UART.c **** #endif /* (comm_RS485_UART_SCB_MODE_UNCONFIG_CONST_CFG) */
 287:.\Generated_Source\PSoC4/comm_RS485_UART_UART.c **** 
 288:.\Generated_Source\PSoC4/comm_RS485_UART_UART.c **** 
 289:.\Generated_Source\PSoC4/comm_RS485_UART_UART.c **** /*******************************************************************************
 290:.\Generated_Source\PSoC4/comm_RS485_UART_UART.c **** * Function Name: comm_RS485_UART_UartSetRxAddress
 291:.\Generated_Source\PSoC4/comm_RS485_UART_UART.c **** ********************************************************************************
 292:.\Generated_Source\PSoC4/comm_RS485_UART_UART.c **** *
 293:.\Generated_Source\PSoC4/comm_RS485_UART_UART.c **** * Summary:
 294:.\Generated_Source\PSoC4/comm_RS485_UART_UART.c **** *  Sets the hardware detectable receiver address for the UART in the
 295:.\Generated_Source\PSoC4/comm_RS485_UART_UART.c **** *  Multiprocessor mode.
 296:.\Generated_Source\PSoC4/comm_RS485_UART_UART.c **** *
 297:.\Generated_Source\PSoC4/comm_RS485_UART_UART.c **** * Parameters:
 298:.\Generated_Source\PSoC4/comm_RS485_UART_UART.c **** *  address: Address for hardware address detection.
 299:.\Generated_Source\PSoC4/comm_RS485_UART_UART.c **** *
 300:.\Generated_Source\PSoC4/comm_RS485_UART_UART.c **** * Return:
 301:.\Generated_Source\PSoC4/comm_RS485_UART_UART.c **** *  None
 302:.\Generated_Source\PSoC4/comm_RS485_UART_UART.c **** *
 303:.\Generated_Source\PSoC4/comm_RS485_UART_UART.c **** *******************************************************************************/
 304:.\Generated_Source\PSoC4/comm_RS485_UART_UART.c **** void comm_RS485_UART_UartSetRxAddress(uint32 address)
 305:.\Generated_Source\PSoC4/comm_RS485_UART_UART.c **** {
 145              		.loc 1 305 0
 146              		.cfi_startproc
 147 0000 80B5     		push	{r7, lr}
 148              		.cfi_def_cfa_offset 8
 149              		.cfi_offset 7, -8
 150              		.cfi_offset 14, -4
 151 0002 84B0     		sub	sp, sp, #16
ARM GAS  C:\Users\SDEVAS~1\AppData\Local\Temp\ccBlrBYz.s 			page 9


 152              		.cfi_def_cfa_offset 24
 153 0004 00AF     		add	r7, sp, #0
 154              		.cfi_def_cfa_register 7
 155 0006 7860     		str	r0, [r7, #4]
 306:.\Generated_Source\PSoC4/comm_RS485_UART_UART.c ****      uint32 matchReg;
 307:.\Generated_Source\PSoC4/comm_RS485_UART_UART.c **** 
 308:.\Generated_Source\PSoC4/comm_RS485_UART_UART.c ****     matchReg = comm_RS485_UART_RX_MATCH_REG;
 156              		.loc 1 308 0
 157 0008 094B     		ldr	r3, .L5
 158 000a 1B68     		ldr	r3, [r3]
 159 000c FB60     		str	r3, [r7, #12]
 309:.\Generated_Source\PSoC4/comm_RS485_UART_UART.c **** 
 310:.\Generated_Source\PSoC4/comm_RS485_UART_UART.c ****     matchReg &= ((uint32) ~comm_RS485_UART_RX_MATCH_ADDR_MASK); /* Clear address bits */
 160              		.loc 1 310 0
 161 000e FB68     		ldr	r3, [r7, #12]
 162 0010 FF22     		mov	r2, #255
 163 0012 9343     		bic	r3, r2
 164 0014 FB60     		str	r3, [r7, #12]
 311:.\Generated_Source\PSoC4/comm_RS485_UART_UART.c ****     matchReg |= ((uint32)  (address & comm_RS485_UART_RX_MATCH_ADDR_MASK)); /* Set address  */
 165              		.loc 1 311 0
 166 0016 7A68     		ldr	r2, [r7, #4]
 167 0018 FF23     		mov	r3, #255
 168 001a 1340     		and	r3, r2
 169 001c FA68     		ldr	r2, [r7, #12]
 170 001e 1343     		orr	r3, r2
 171 0020 FB60     		str	r3, [r7, #12]
 312:.\Generated_Source\PSoC4/comm_RS485_UART_UART.c **** 
 313:.\Generated_Source\PSoC4/comm_RS485_UART_UART.c ****     comm_RS485_UART_RX_MATCH_REG = matchReg;
 172              		.loc 1 313 0
 173 0022 034B     		ldr	r3, .L5
 174 0024 FA68     		ldr	r2, [r7, #12]
 175 0026 1A60     		str	r2, [r3]
 314:.\Generated_Source\PSoC4/comm_RS485_UART_UART.c **** }
 176              		.loc 1 314 0
 177 0028 BD46     		mov	sp, r7
 178 002a 04B0     		add	sp, sp, #16
 179              		@ sp needed
 180 002c 80BD     		pop	{r7, pc}
 181              	.L6:
 182 002e C046     		.align	2
 183              	.L5:
 184 0030 10030640 		.word	1074135824
 185              		.cfi_endproc
 186              	.LFE1:
 187              		.size	comm_RS485_UART_UartSetRxAddress, .-comm_RS485_UART_UartSetRxAddress
 188              		.section	.text.comm_RS485_UART_UartSetRxAddressMask,"ax",%progbits
 189              		.align	2
 190              		.global	comm_RS485_UART_UartSetRxAddressMask
 191              		.code	16
 192              		.thumb_func
 193              		.type	comm_RS485_UART_UartSetRxAddressMask, %function
 194              	comm_RS485_UART_UartSetRxAddressMask:
 195              	.LFB2:
 315:.\Generated_Source\PSoC4/comm_RS485_UART_UART.c **** 
 316:.\Generated_Source\PSoC4/comm_RS485_UART_UART.c **** 
 317:.\Generated_Source\PSoC4/comm_RS485_UART_UART.c **** /*******************************************************************************
 318:.\Generated_Source\PSoC4/comm_RS485_UART_UART.c **** * Function Name: comm_RS485_UART_UartSetRxAddressMask
ARM GAS  C:\Users\SDEVAS~1\AppData\Local\Temp\ccBlrBYz.s 			page 10


 319:.\Generated_Source\PSoC4/comm_RS485_UART_UART.c **** ********************************************************************************
 320:.\Generated_Source\PSoC4/comm_RS485_UART_UART.c **** *
 321:.\Generated_Source\PSoC4/comm_RS485_UART_UART.c **** * Summary:
 322:.\Generated_Source\PSoC4/comm_RS485_UART_UART.c **** *  Sets the hardware address mask for the UART in the Multiprocessor mode.
 323:.\Generated_Source\PSoC4/comm_RS485_UART_UART.c **** *
 324:.\Generated_Source\PSoC4/comm_RS485_UART_UART.c **** * Parameters:
 325:.\Generated_Source\PSoC4/comm_RS485_UART_UART.c **** *  addressMask: Address mask.
 326:.\Generated_Source\PSoC4/comm_RS485_UART_UART.c **** *   0 - address bit does not care while comparison.
 327:.\Generated_Source\PSoC4/comm_RS485_UART_UART.c **** *   1 - address bit is significant while comparison.
 328:.\Generated_Source\PSoC4/comm_RS485_UART_UART.c **** *
 329:.\Generated_Source\PSoC4/comm_RS485_UART_UART.c **** * Return:
 330:.\Generated_Source\PSoC4/comm_RS485_UART_UART.c **** *  None
 331:.\Generated_Source\PSoC4/comm_RS485_UART_UART.c **** *
 332:.\Generated_Source\PSoC4/comm_RS485_UART_UART.c **** *******************************************************************************/
 333:.\Generated_Source\PSoC4/comm_RS485_UART_UART.c **** void comm_RS485_UART_UartSetRxAddressMask(uint32 addressMask)
 334:.\Generated_Source\PSoC4/comm_RS485_UART_UART.c **** {
 196              		.loc 1 334 0
 197              		.cfi_startproc
 198 0000 80B5     		push	{r7, lr}
 199              		.cfi_def_cfa_offset 8
 200              		.cfi_offset 7, -8
 201              		.cfi_offset 14, -4
 202 0002 84B0     		sub	sp, sp, #16
 203              		.cfi_def_cfa_offset 24
 204 0004 00AF     		add	r7, sp, #0
 205              		.cfi_def_cfa_register 7
 206 0006 7860     		str	r0, [r7, #4]
 335:.\Generated_Source\PSoC4/comm_RS485_UART_UART.c ****     uint32 matchReg;
 336:.\Generated_Source\PSoC4/comm_RS485_UART_UART.c **** 
 337:.\Generated_Source\PSoC4/comm_RS485_UART_UART.c ****     matchReg = comm_RS485_UART_RX_MATCH_REG;
 207              		.loc 1 337 0
 208 0008 084B     		ldr	r3, .L8
 209 000a 1B68     		ldr	r3, [r3]
 210 000c FB60     		str	r3, [r7, #12]
 338:.\Generated_Source\PSoC4/comm_RS485_UART_UART.c **** 
 339:.\Generated_Source\PSoC4/comm_RS485_UART_UART.c ****     matchReg &= ((uint32) ~comm_RS485_UART_RX_MATCH_MASK_MASK); /* Clear address mask bits */
 211              		.loc 1 339 0
 212 000e FA68     		ldr	r2, [r7, #12]
 213 0010 074B     		ldr	r3, .L8+4
 214 0012 1340     		and	r3, r2
 215 0014 FB60     		str	r3, [r7, #12]
 340:.\Generated_Source\PSoC4/comm_RS485_UART_UART.c ****     matchReg |= ((uint32) (addressMask << comm_RS485_UART_RX_MATCH_MASK_POS));
 216              		.loc 1 340 0
 217 0016 7B68     		ldr	r3, [r7, #4]
 218 0018 1B04     		lsl	r3, r3, #16
 219 001a FA68     		ldr	r2, [r7, #12]
 220 001c 1343     		orr	r3, r2
 221 001e FB60     		str	r3, [r7, #12]
 341:.\Generated_Source\PSoC4/comm_RS485_UART_UART.c **** 
 342:.\Generated_Source\PSoC4/comm_RS485_UART_UART.c ****     comm_RS485_UART_RX_MATCH_REG = matchReg;
 222              		.loc 1 342 0
 223 0020 024B     		ldr	r3, .L8
 224 0022 FA68     		ldr	r2, [r7, #12]
 225 0024 1A60     		str	r2, [r3]
 343:.\Generated_Source\PSoC4/comm_RS485_UART_UART.c **** }
 226              		.loc 1 343 0
 227 0026 BD46     		mov	sp, r7
ARM GAS  C:\Users\SDEVAS~1\AppData\Local\Temp\ccBlrBYz.s 			page 11


 228 0028 04B0     		add	sp, sp, #16
 229              		@ sp needed
 230 002a 80BD     		pop	{r7, pc}
 231              	.L9:
 232              		.align	2
 233              	.L8:
 234 002c 10030640 		.word	1074135824
 235 0030 FFFF00FF 		.word	-16711681
 236              		.cfi_endproc
 237              	.LFE2:
 238              		.size	comm_RS485_UART_UartSetRxAddressMask, .-comm_RS485_UART_UartSetRxAddressMask
 239              		.section	.text.comm_RS485_UART_UartGetChar,"ax",%progbits
 240              		.align	2
 241              		.global	comm_RS485_UART_UartGetChar
 242              		.code	16
 243              		.thumb_func
 244              		.type	comm_RS485_UART_UartGetChar, %function
 245              	comm_RS485_UART_UartGetChar:
 246              	.LFB3:
 344:.\Generated_Source\PSoC4/comm_RS485_UART_UART.c **** 
 345:.\Generated_Source\PSoC4/comm_RS485_UART_UART.c **** 
 346:.\Generated_Source\PSoC4/comm_RS485_UART_UART.c **** #if(comm_RS485_UART_UART_RX_DIRECTION)
 347:.\Generated_Source\PSoC4/comm_RS485_UART_UART.c ****     /*******************************************************************************
 348:.\Generated_Source\PSoC4/comm_RS485_UART_UART.c ****     * Function Name: comm_RS485_UART_UartGetChar
 349:.\Generated_Source\PSoC4/comm_RS485_UART_UART.c ****     ********************************************************************************
 350:.\Generated_Source\PSoC4/comm_RS485_UART_UART.c ****     *
 351:.\Generated_Source\PSoC4/comm_RS485_UART_UART.c ****     * Summary:
 352:.\Generated_Source\PSoC4/comm_RS485_UART_UART.c ****     *  Retrieves the next data element from the receive buffer.
 353:.\Generated_Source\PSoC4/comm_RS485_UART_UART.c ****     *  This function is designed for ASCII characters and returns a char
 354:.\Generated_Source\PSoC4/comm_RS485_UART_UART.c ****     *  where 1 to 255 are valid characters and 0 indicates an error occurred or
 355:.\Generated_Source\PSoC4/comm_RS485_UART_UART.c ****     *  no data present.
 356:.\Generated_Source\PSoC4/comm_RS485_UART_UART.c ****     *  - The RX software buffer is disabled: returns the data element
 357:.\Generated_Source\PSoC4/comm_RS485_UART_UART.c ****     *    retrieved from the RX FIFO.
 358:.\Generated_Source\PSoC4/comm_RS485_UART_UART.c ****     *    Undefined data will be returned if the RX FIFO is empty.
 359:.\Generated_Source\PSoC4/comm_RS485_UART_UART.c ****     *  - The RX software buffer is enabled: returns the data element from
 360:.\Generated_Source\PSoC4/comm_RS485_UART_UART.c ****     *    the software receive buffer.
 361:.\Generated_Source\PSoC4/comm_RS485_UART_UART.c ****     *
 362:.\Generated_Source\PSoC4/comm_RS485_UART_UART.c ****     * Parameters:
 363:.\Generated_Source\PSoC4/comm_RS485_UART_UART.c ****     *  None
 364:.\Generated_Source\PSoC4/comm_RS485_UART_UART.c ****     *
 365:.\Generated_Source\PSoC4/comm_RS485_UART_UART.c ****     * Return:
 366:.\Generated_Source\PSoC4/comm_RS485_UART_UART.c ****     *  The next data element from the receive buffer.
 367:.\Generated_Source\PSoC4/comm_RS485_UART_UART.c ****     *  ASCII character values from 1 to 255 are valid.
 368:.\Generated_Source\PSoC4/comm_RS485_UART_UART.c ****     *  A returned zero signifies an error condition or no data available.
 369:.\Generated_Source\PSoC4/comm_RS485_UART_UART.c ****     *
 370:.\Generated_Source\PSoC4/comm_RS485_UART_UART.c ****     * Side Effects:
 371:.\Generated_Source\PSoC4/comm_RS485_UART_UART.c ****     *  The errors bits may not correspond with reading characters due to RX FIFO
 372:.\Generated_Source\PSoC4/comm_RS485_UART_UART.c ****     *  and software buffer usage.
 373:.\Generated_Source\PSoC4/comm_RS485_UART_UART.c ****     *  RX software buffer is enabled: The internal software buffer overflow
 374:.\Generated_Source\PSoC4/comm_RS485_UART_UART.c ****     *  does not treat as an error condition.
 375:.\Generated_Source\PSoC4/comm_RS485_UART_UART.c ****     *  Check SCB_rxBufferOverflow to capture that error condition.
 376:.\Generated_Source\PSoC4/comm_RS485_UART_UART.c ****     *
 377:.\Generated_Source\PSoC4/comm_RS485_UART_UART.c ****     *******************************************************************************/
 378:.\Generated_Source\PSoC4/comm_RS485_UART_UART.c ****     uint32 comm_RS485_UART_UartGetChar(void)
 379:.\Generated_Source\PSoC4/comm_RS485_UART_UART.c ****     {
 247              		.loc 1 379 0
 248              		.cfi_startproc
ARM GAS  C:\Users\SDEVAS~1\AppData\Local\Temp\ccBlrBYz.s 			page 12


 249 0000 80B5     		push	{r7, lr}
 250              		.cfi_def_cfa_offset 8
 251              		.cfi_offset 7, -8
 252              		.cfi_offset 14, -4
 253 0002 82B0     		sub	sp, sp, #8
 254              		.cfi_def_cfa_offset 16
 255 0004 00AF     		add	r7, sp, #0
 256              		.cfi_def_cfa_register 7
 380:.\Generated_Source\PSoC4/comm_RS485_UART_UART.c ****         uint32 rxData = 0u;
 257              		.loc 1 380 0
 258 0006 0023     		mov	r3, #0
 259 0008 7B60     		str	r3, [r7, #4]
 381:.\Generated_Source\PSoC4/comm_RS485_UART_UART.c **** 
 382:.\Generated_Source\PSoC4/comm_RS485_UART_UART.c ****         /* Reads data only if there is data to read */
 383:.\Generated_Source\PSoC4/comm_RS485_UART_UART.c ****         if(0u != comm_RS485_UART_SpiUartGetRxBufferSize())
 260              		.loc 1 383 0
 261 000a FFF7FEFF 		bl	comm_RS485_UART_SpiUartGetRxBufferSize
 262 000e 031C     		mov	r3, r0
 263 0010 002B     		cmp	r3, #0
 264 0012 03D0     		beq	.L11
 384:.\Generated_Source\PSoC4/comm_RS485_UART_UART.c ****         {
 385:.\Generated_Source\PSoC4/comm_RS485_UART_UART.c ****             rxData = comm_RS485_UART_SpiUartReadRxData();
 265              		.loc 1 385 0
 266 0014 FFF7FEFF 		bl	comm_RS485_UART_SpiUartReadRxData
 267 0018 031C     		mov	r3, r0
 268 001a 7B60     		str	r3, [r7, #4]
 269              	.L11:
 386:.\Generated_Source\PSoC4/comm_RS485_UART_UART.c ****         }
 387:.\Generated_Source\PSoC4/comm_RS485_UART_UART.c **** 
 388:.\Generated_Source\PSoC4/comm_RS485_UART_UART.c ****         if(comm_RS485_UART_CHECK_INTR_RX(comm_RS485_UART_INTR_RX_ERR))
 270              		.loc 1 388 0
 271 001c 084B     		ldr	r3, .L14
 272 001e 1A68     		ldr	r2, [r3]
 273 0020 D823     		mov	r3, #216
 274 0022 9B00     		lsl	r3, r3, #2
 275 0024 1340     		and	r3, r2
 276 0026 05D0     		beq	.L12
 389:.\Generated_Source\PSoC4/comm_RS485_UART_UART.c ****         {
 390:.\Generated_Source\PSoC4/comm_RS485_UART_UART.c ****             rxData = 0u; /* Error occurred: returns zero */
 277              		.loc 1 390 0
 278 0028 0023     		mov	r3, #0
 279 002a 7B60     		str	r3, [r7, #4]
 391:.\Generated_Source\PSoC4/comm_RS485_UART_UART.c ****             comm_RS485_UART_ClearRxInterruptSource(comm_RS485_UART_INTR_RX_ERR);
 280              		.loc 1 391 0
 281 002c 044B     		ldr	r3, .L14
 282 002e D822     		mov	r2, #216
 283 0030 9200     		lsl	r2, r2, #2
 284 0032 1A60     		str	r2, [r3]
 285              	.L12:
 392:.\Generated_Source\PSoC4/comm_RS485_UART_UART.c ****         }
 393:.\Generated_Source\PSoC4/comm_RS485_UART_UART.c **** 
 394:.\Generated_Source\PSoC4/comm_RS485_UART_UART.c ****         return(rxData);
 286              		.loc 1 394 0
 287 0034 7B68     		ldr	r3, [r7, #4]
 395:.\Generated_Source\PSoC4/comm_RS485_UART_UART.c ****     }
 288              		.loc 1 395 0
 289 0036 181C     		mov	r0, r3
ARM GAS  C:\Users\SDEVAS~1\AppData\Local\Temp\ccBlrBYz.s 			page 13


 290 0038 BD46     		mov	sp, r7
 291 003a 02B0     		add	sp, sp, #8
 292              		@ sp needed
 293 003c 80BD     		pop	{r7, pc}
 294              	.L15:
 295 003e C046     		.align	2
 296              	.L14:
 297 0040 C00F0640 		.word	1074139072
 298              		.cfi_endproc
 299              	.LFE3:
 300              		.size	comm_RS485_UART_UartGetChar, .-comm_RS485_UART_UartGetChar
 301              		.section	.text.comm_RS485_UART_UartGetByte,"ax",%progbits
 302              		.align	2
 303              		.global	comm_RS485_UART_UartGetByte
 304              		.code	16
 305              		.thumb_func
 306              		.type	comm_RS485_UART_UartGetByte, %function
 307              	comm_RS485_UART_UartGetByte:
 308              	.LFB4:
 396:.\Generated_Source\PSoC4/comm_RS485_UART_UART.c **** 
 397:.\Generated_Source\PSoC4/comm_RS485_UART_UART.c **** 
 398:.\Generated_Source\PSoC4/comm_RS485_UART_UART.c ****     /*******************************************************************************
 399:.\Generated_Source\PSoC4/comm_RS485_UART_UART.c ****     * Function Name: comm_RS485_UART_UartGetByte
 400:.\Generated_Source\PSoC4/comm_RS485_UART_UART.c ****     ********************************************************************************
 401:.\Generated_Source\PSoC4/comm_RS485_UART_UART.c ****     *
 402:.\Generated_Source\PSoC4/comm_RS485_UART_UART.c ****     * Summary:
 403:.\Generated_Source\PSoC4/comm_RS485_UART_UART.c ****     *  Retrieves the next data element from the receive buffer, returns the
 404:.\Generated_Source\PSoC4/comm_RS485_UART_UART.c ****     *  received byte and error condition.
 405:.\Generated_Source\PSoC4/comm_RS485_UART_UART.c ****     *   - The RX software buffer is disabled: returns the data element retrieved
 406:.\Generated_Source\PSoC4/comm_RS485_UART_UART.c ****     *     from the RX FIFO. Undefined data will be returned if the RX FIFO is
 407:.\Generated_Source\PSoC4/comm_RS485_UART_UART.c ****     *     empty.
 408:.\Generated_Source\PSoC4/comm_RS485_UART_UART.c ****     *   - The RX software buffer is enabled: returns data element from the
 409:.\Generated_Source\PSoC4/comm_RS485_UART_UART.c ****     *     software receive buffer.
 410:.\Generated_Source\PSoC4/comm_RS485_UART_UART.c ****     *
 411:.\Generated_Source\PSoC4/comm_RS485_UART_UART.c ****     * Parameters:
 412:.\Generated_Source\PSoC4/comm_RS485_UART_UART.c ****     *  None
 413:.\Generated_Source\PSoC4/comm_RS485_UART_UART.c ****     *
 414:.\Generated_Source\PSoC4/comm_RS485_UART_UART.c ****     * Return:
 415:.\Generated_Source\PSoC4/comm_RS485_UART_UART.c ****     *  Bits 7-0 contain the next data element from the receive buffer and
 416:.\Generated_Source\PSoC4/comm_RS485_UART_UART.c ****     *  other bits contain the error condition.
 417:.\Generated_Source\PSoC4/comm_RS485_UART_UART.c ****     *
 418:.\Generated_Source\PSoC4/comm_RS485_UART_UART.c ****     * Side Effects:
 419:.\Generated_Source\PSoC4/comm_RS485_UART_UART.c ****     *  The errors bits may not correspond with reading characters due to RX FIFO
 420:.\Generated_Source\PSoC4/comm_RS485_UART_UART.c ****     *  and software buffer usage.
 421:.\Generated_Source\PSoC4/comm_RS485_UART_UART.c ****     *  RX software buffer is disabled: The internal software buffer overflow
 422:.\Generated_Source\PSoC4/comm_RS485_UART_UART.c ****     *  is not returned as status by this function.
 423:.\Generated_Source\PSoC4/comm_RS485_UART_UART.c ****     *  Check SCB_rxBufferOverflow to capture that error condition.
 424:.\Generated_Source\PSoC4/comm_RS485_UART_UART.c ****     *
 425:.\Generated_Source\PSoC4/comm_RS485_UART_UART.c ****     *******************************************************************************/
 426:.\Generated_Source\PSoC4/comm_RS485_UART_UART.c ****     uint32 comm_RS485_UART_UartGetByte(void)
 427:.\Generated_Source\PSoC4/comm_RS485_UART_UART.c ****     {
 309              		.loc 1 427 0
 310              		.cfi_startproc
 311 0000 80B5     		push	{r7, lr}
 312              		.cfi_def_cfa_offset 8
 313              		.cfi_offset 7, -8
 314              		.cfi_offset 14, -4
ARM GAS  C:\Users\SDEVAS~1\AppData\Local\Temp\ccBlrBYz.s 			page 14


 315 0002 84B0     		sub	sp, sp, #16
 316              		.cfi_def_cfa_offset 24
 317 0004 00AF     		add	r7, sp, #0
 318              		.cfi_def_cfa_register 7
 428:.\Generated_Source\PSoC4/comm_RS485_UART_UART.c ****         uint32 rxData;
 429:.\Generated_Source\PSoC4/comm_RS485_UART_UART.c ****         uint32 tmpStatus;
 430:.\Generated_Source\PSoC4/comm_RS485_UART_UART.c ****         uint32 intSourceMask;
 431:.\Generated_Source\PSoC4/comm_RS485_UART_UART.c **** 
 432:.\Generated_Source\PSoC4/comm_RS485_UART_UART.c ****         intSourceMask = comm_RS485_UART_SpiUartDisableIntRx();
 319              		.loc 1 432 0
 320 0006 FFF7FEFF 		bl	comm_RS485_UART_SpiUartDisableIntRx
 321 000a 031C     		mov	r3, r0
 322 000c BB60     		str	r3, [r7, #8]
 433:.\Generated_Source\PSoC4/comm_RS485_UART_UART.c **** 
 434:.\Generated_Source\PSoC4/comm_RS485_UART_UART.c ****         if(0u != comm_RS485_UART_SpiUartGetRxBufferSize())
 323              		.loc 1 434 0
 324 000e FFF7FEFF 		bl	comm_RS485_UART_SpiUartGetRxBufferSize
 325 0012 031C     		mov	r3, r0
 326 0014 002B     		cmp	r3, #0
 327 0016 07D0     		beq	.L17
 435:.\Generated_Source\PSoC4/comm_RS485_UART_UART.c ****         {
 436:.\Generated_Source\PSoC4/comm_RS485_UART_UART.c ****             /* Enables interrupt to receive more bytes: at least one byte is in
 437:.\Generated_Source\PSoC4/comm_RS485_UART_UART.c ****             * buffer.
 438:.\Generated_Source\PSoC4/comm_RS485_UART_UART.c ****             */
 439:.\Generated_Source\PSoC4/comm_RS485_UART_UART.c ****             comm_RS485_UART_SpiUartEnableIntRx(intSourceMask);
 328              		.loc 1 439 0
 329 0018 104B     		ldr	r3, .L20
 330 001a BA68     		ldr	r2, [r7, #8]
 331 001c 1A60     		str	r2, [r3]
 440:.\Generated_Source\PSoC4/comm_RS485_UART_UART.c **** 
 441:.\Generated_Source\PSoC4/comm_RS485_UART_UART.c ****             /* Get received byte */
 442:.\Generated_Source\PSoC4/comm_RS485_UART_UART.c ****             rxData = comm_RS485_UART_SpiUartReadRxData();
 332              		.loc 1 442 0
 333 001e FFF7FEFF 		bl	comm_RS485_UART_SpiUartReadRxData
 334 0022 031C     		mov	r3, r0
 335 0024 FB60     		str	r3, [r7, #12]
 336 0026 05E0     		b	.L18
 337              	.L17:
 443:.\Generated_Source\PSoC4/comm_RS485_UART_UART.c ****         }
 444:.\Generated_Source\PSoC4/comm_RS485_UART_UART.c ****         else
 445:.\Generated_Source\PSoC4/comm_RS485_UART_UART.c ****         {
 446:.\Generated_Source\PSoC4/comm_RS485_UART_UART.c ****             /* Reads a byte directly from RX FIFO: underflow is raised in the case
 447:.\Generated_Source\PSoC4/comm_RS485_UART_UART.c ****             * of empty. Otherwise the first received byte will be read.
 448:.\Generated_Source\PSoC4/comm_RS485_UART_UART.c ****             */
 449:.\Generated_Source\PSoC4/comm_RS485_UART_UART.c ****             rxData = comm_RS485_UART_RX_FIFO_RD_REG;
 338              		.loc 1 449 0
 339 0028 0D4B     		ldr	r3, .L20+4
 340 002a 1B68     		ldr	r3, [r3]
 341 002c FB60     		str	r3, [r7, #12]
 450:.\Generated_Source\PSoC4/comm_RS485_UART_UART.c **** 
 451:.\Generated_Source\PSoC4/comm_RS485_UART_UART.c ****             /* Enables interrupt to receive more bytes.
 452:.\Generated_Source\PSoC4/comm_RS485_UART_UART.c ****             * The RX_NOT_EMPTY interrupt is cleared by the interrupt routine
 453:.\Generated_Source\PSoC4/comm_RS485_UART_UART.c ****             * in case the byte was received and read by code above.
 454:.\Generated_Source\PSoC4/comm_RS485_UART_UART.c ****             */
 455:.\Generated_Source\PSoC4/comm_RS485_UART_UART.c ****             comm_RS485_UART_SpiUartEnableIntRx(intSourceMask);
 342              		.loc 1 455 0
 343 002e 0B4B     		ldr	r3, .L20
ARM GAS  C:\Users\SDEVAS~1\AppData\Local\Temp\ccBlrBYz.s 			page 15


 344 0030 BA68     		ldr	r2, [r7, #8]
 345 0032 1A60     		str	r2, [r3]
 346              	.L18:
 456:.\Generated_Source\PSoC4/comm_RS485_UART_UART.c ****         }
 457:.\Generated_Source\PSoC4/comm_RS485_UART_UART.c **** 
 458:.\Generated_Source\PSoC4/comm_RS485_UART_UART.c ****         /* Get and clear RX error mask */
 459:.\Generated_Source\PSoC4/comm_RS485_UART_UART.c ****         tmpStatus = (comm_RS485_UART_GetRxInterruptSource() & comm_RS485_UART_INTR_RX_ERR);
 347              		.loc 1 459 0
 348 0034 0B4B     		ldr	r3, .L20+8
 349 0036 1A68     		ldr	r2, [r3]
 350 0038 D823     		mov	r3, #216
 351 003a 9B00     		lsl	r3, r3, #2
 352 003c 1340     		and	r3, r2
 353 003e 7B60     		str	r3, [r7, #4]
 460:.\Generated_Source\PSoC4/comm_RS485_UART_UART.c ****         comm_RS485_UART_ClearRxInterruptSource(comm_RS485_UART_INTR_RX_ERR);
 354              		.loc 1 460 0
 355 0040 084B     		ldr	r3, .L20+8
 356 0042 D822     		mov	r2, #216
 357 0044 9200     		lsl	r2, r2, #2
 358 0046 1A60     		str	r2, [r3]
 461:.\Generated_Source\PSoC4/comm_RS485_UART_UART.c **** 
 462:.\Generated_Source\PSoC4/comm_RS485_UART_UART.c ****         /* Puts together data and error status:
 463:.\Generated_Source\PSoC4/comm_RS485_UART_UART.c ****         * MP mode and accept address: 9th bit is set to notify mark.
 464:.\Generated_Source\PSoC4/comm_RS485_UART_UART.c ****         */
 465:.\Generated_Source\PSoC4/comm_RS485_UART_UART.c ****         rxData |= ((uint32) (tmpStatus << 8u));
 359              		.loc 1 465 0
 360 0048 7B68     		ldr	r3, [r7, #4]
 361 004a 1B02     		lsl	r3, r3, #8
 362 004c FA68     		ldr	r2, [r7, #12]
 363 004e 1343     		orr	r3, r2
 364 0050 FB60     		str	r3, [r7, #12]
 466:.\Generated_Source\PSoC4/comm_RS485_UART_UART.c **** 
 467:.\Generated_Source\PSoC4/comm_RS485_UART_UART.c ****         return(rxData);
 365              		.loc 1 467 0
 366 0052 FB68     		ldr	r3, [r7, #12]
 468:.\Generated_Source\PSoC4/comm_RS485_UART_UART.c ****     }
 367              		.loc 1 468 0
 368 0054 181C     		mov	r0, r3
 369 0056 BD46     		mov	sp, r7
 370 0058 04B0     		add	sp, sp, #16
 371              		@ sp needed
 372 005a 80BD     		pop	{r7, pc}
 373              	.L21:
 374              		.align	2
 375              	.L20:
 376 005c C80F0640 		.word	1074139080
 377 0060 40030640 		.word	1074135872
 378 0064 C00F0640 		.word	1074139072
 379              		.cfi_endproc
 380              	.LFE4:
 381              		.size	comm_RS485_UART_UartGetByte, .-comm_RS485_UART_UartGetByte
 382              		.section	.text.comm_RS485_UART_UartPutString,"ax",%progbits
 383              		.align	2
 384              		.global	comm_RS485_UART_UartPutString
 385              		.code	16
 386              		.thumb_func
 387              		.type	comm_RS485_UART_UartPutString, %function
ARM GAS  C:\Users\SDEVAS~1\AppData\Local\Temp\ccBlrBYz.s 			page 16


 388              	comm_RS485_UART_UartPutString:
 389              	.LFB5:
 469:.\Generated_Source\PSoC4/comm_RS485_UART_UART.c **** 
 470:.\Generated_Source\PSoC4/comm_RS485_UART_UART.c **** 
 471:.\Generated_Source\PSoC4/comm_RS485_UART_UART.c ****     #if !(comm_RS485_UART_CY_SCBIP_V0 || comm_RS485_UART_CY_SCBIP_V1)
 472:.\Generated_Source\PSoC4/comm_RS485_UART_UART.c ****         /*******************************************************************************
 473:.\Generated_Source\PSoC4/comm_RS485_UART_UART.c ****         * Function Name: comm_RS485_UART_UartSetRtsPolarity
 474:.\Generated_Source\PSoC4/comm_RS485_UART_UART.c ****         ********************************************************************************
 475:.\Generated_Source\PSoC4/comm_RS485_UART_UART.c ****         *
 476:.\Generated_Source\PSoC4/comm_RS485_UART_UART.c ****         * Summary:
 477:.\Generated_Source\PSoC4/comm_RS485_UART_UART.c ****         *  Sets active polarity of RTS output signal.
 478:.\Generated_Source\PSoC4/comm_RS485_UART_UART.c ****         *
 479:.\Generated_Source\PSoC4/comm_RS485_UART_UART.c ****         * Parameters:
 480:.\Generated_Source\PSoC4/comm_RS485_UART_UART.c ****         *  polarity: Active polarity of RTS output signal.
 481:.\Generated_Source\PSoC4/comm_RS485_UART_UART.c ****         *   comm_RS485_UART_UART_RTS_ACTIVE_LOW  - RTS signal is active low.
 482:.\Generated_Source\PSoC4/comm_RS485_UART_UART.c ****         *   comm_RS485_UART_UART_RTS_ACTIVE_HIGH - RTS signal is active high.
 483:.\Generated_Source\PSoC4/comm_RS485_UART_UART.c ****         *
 484:.\Generated_Source\PSoC4/comm_RS485_UART_UART.c ****         * Return:
 485:.\Generated_Source\PSoC4/comm_RS485_UART_UART.c ****         *  None
 486:.\Generated_Source\PSoC4/comm_RS485_UART_UART.c ****         *
 487:.\Generated_Source\PSoC4/comm_RS485_UART_UART.c ****         *******************************************************************************/
 488:.\Generated_Source\PSoC4/comm_RS485_UART_UART.c ****         void comm_RS485_UART_UartSetRtsPolarity(uint32 polarity)
 489:.\Generated_Source\PSoC4/comm_RS485_UART_UART.c ****         {
 490:.\Generated_Source\PSoC4/comm_RS485_UART_UART.c ****             if(0u != polarity)
 491:.\Generated_Source\PSoC4/comm_RS485_UART_UART.c ****             {
 492:.\Generated_Source\PSoC4/comm_RS485_UART_UART.c ****                 comm_RS485_UART_UART_FLOW_CTRL_REG |= (uint32)  comm_RS485_UART_UART_FLOW_CTRL_RTS_
 493:.\Generated_Source\PSoC4/comm_RS485_UART_UART.c ****             }
 494:.\Generated_Source\PSoC4/comm_RS485_UART_UART.c ****             else
 495:.\Generated_Source\PSoC4/comm_RS485_UART_UART.c ****             {
 496:.\Generated_Source\PSoC4/comm_RS485_UART_UART.c ****                 comm_RS485_UART_UART_FLOW_CTRL_REG &= (uint32) ~comm_RS485_UART_UART_FLOW_CTRL_RTS_
 497:.\Generated_Source\PSoC4/comm_RS485_UART_UART.c ****             }
 498:.\Generated_Source\PSoC4/comm_RS485_UART_UART.c ****         }
 499:.\Generated_Source\PSoC4/comm_RS485_UART_UART.c **** 
 500:.\Generated_Source\PSoC4/comm_RS485_UART_UART.c **** 
 501:.\Generated_Source\PSoC4/comm_RS485_UART_UART.c ****         /*******************************************************************************
 502:.\Generated_Source\PSoC4/comm_RS485_UART_UART.c ****         * Function Name: comm_RS485_UART_UartSetRtsFifoLevel
 503:.\Generated_Source\PSoC4/comm_RS485_UART_UART.c ****         ********************************************************************************
 504:.\Generated_Source\PSoC4/comm_RS485_UART_UART.c ****         *
 505:.\Generated_Source\PSoC4/comm_RS485_UART_UART.c ****         * Summary:
 506:.\Generated_Source\PSoC4/comm_RS485_UART_UART.c ****         *  Sets level in the RX FIFO for RTS signal activation.
 507:.\Generated_Source\PSoC4/comm_RS485_UART_UART.c ****         *  While the RX FIFO has fewer entries than the RX FIFO level the RTS signal
 508:.\Generated_Source\PSoC4/comm_RS485_UART_UART.c ****         *  remains active, otherwise the RTS signal becomes inactive.
 509:.\Generated_Source\PSoC4/comm_RS485_UART_UART.c ****         *
 510:.\Generated_Source\PSoC4/comm_RS485_UART_UART.c ****         * Parameters:
 511:.\Generated_Source\PSoC4/comm_RS485_UART_UART.c ****         *  level: Level in the RX FIFO for RTS signal activation.
 512:.\Generated_Source\PSoC4/comm_RS485_UART_UART.c ****         *         The range of valid level values is between 0 and RX FIFO depth - 1.
 513:.\Generated_Source\PSoC4/comm_RS485_UART_UART.c ****         *         Setting level value to 0 disables RTS signal activation.
 514:.\Generated_Source\PSoC4/comm_RS485_UART_UART.c ****         *
 515:.\Generated_Source\PSoC4/comm_RS485_UART_UART.c ****         * Return:
 516:.\Generated_Source\PSoC4/comm_RS485_UART_UART.c ****         *  None
 517:.\Generated_Source\PSoC4/comm_RS485_UART_UART.c ****         *
 518:.\Generated_Source\PSoC4/comm_RS485_UART_UART.c ****         *******************************************************************************/
 519:.\Generated_Source\PSoC4/comm_RS485_UART_UART.c ****         void comm_RS485_UART_UartSetRtsFifoLevel(uint32 level)
 520:.\Generated_Source\PSoC4/comm_RS485_UART_UART.c ****         {
 521:.\Generated_Source\PSoC4/comm_RS485_UART_UART.c ****             uint32 uartFlowCtrl;
 522:.\Generated_Source\PSoC4/comm_RS485_UART_UART.c **** 
 523:.\Generated_Source\PSoC4/comm_RS485_UART_UART.c ****             uartFlowCtrl = comm_RS485_UART_UART_FLOW_CTRL_REG;
ARM GAS  C:\Users\SDEVAS~1\AppData\Local\Temp\ccBlrBYz.s 			page 17


 524:.\Generated_Source\PSoC4/comm_RS485_UART_UART.c **** 
 525:.\Generated_Source\PSoC4/comm_RS485_UART_UART.c ****             uartFlowCtrl &= ((uint32) ~comm_RS485_UART_UART_FLOW_CTRL_TRIGGER_LEVEL_MASK); /* Clear
 526:.\Generated_Source\PSoC4/comm_RS485_UART_UART.c ****             uartFlowCtrl |= ((uint32) (comm_RS485_UART_UART_FLOW_CTRL_TRIGGER_LEVEL_MASK & level));
 527:.\Generated_Source\PSoC4/comm_RS485_UART_UART.c **** 
 528:.\Generated_Source\PSoC4/comm_RS485_UART_UART.c ****             comm_RS485_UART_UART_FLOW_CTRL_REG = uartFlowCtrl;
 529:.\Generated_Source\PSoC4/comm_RS485_UART_UART.c ****         }
 530:.\Generated_Source\PSoC4/comm_RS485_UART_UART.c ****     #endif /* !(comm_RS485_UART_CY_SCBIP_V0 || comm_RS485_UART_CY_SCBIP_V1) */
 531:.\Generated_Source\PSoC4/comm_RS485_UART_UART.c **** 
 532:.\Generated_Source\PSoC4/comm_RS485_UART_UART.c **** #endif /* (comm_RS485_UART_UART_RX_DIRECTION) */
 533:.\Generated_Source\PSoC4/comm_RS485_UART_UART.c **** 
 534:.\Generated_Source\PSoC4/comm_RS485_UART_UART.c **** 
 535:.\Generated_Source\PSoC4/comm_RS485_UART_UART.c **** #if(comm_RS485_UART_UART_TX_DIRECTION)
 536:.\Generated_Source\PSoC4/comm_RS485_UART_UART.c ****     /*******************************************************************************
 537:.\Generated_Source\PSoC4/comm_RS485_UART_UART.c ****     * Function Name: comm_RS485_UART_UartPutString
 538:.\Generated_Source\PSoC4/comm_RS485_UART_UART.c ****     ********************************************************************************
 539:.\Generated_Source\PSoC4/comm_RS485_UART_UART.c ****     *
 540:.\Generated_Source\PSoC4/comm_RS485_UART_UART.c ****     * Summary:
 541:.\Generated_Source\PSoC4/comm_RS485_UART_UART.c ****     *  Places a NULL terminated string in the transmit buffer to be sent at the
 542:.\Generated_Source\PSoC4/comm_RS485_UART_UART.c ****     *  next available bus time.
 543:.\Generated_Source\PSoC4/comm_RS485_UART_UART.c ****     *  This function is blocking and waits until there is space available to put
 544:.\Generated_Source\PSoC4/comm_RS485_UART_UART.c ****     *  all the requested data into the  transmit buffer.
 545:.\Generated_Source\PSoC4/comm_RS485_UART_UART.c ****     *
 546:.\Generated_Source\PSoC4/comm_RS485_UART_UART.c ****     * Parameters:
 547:.\Generated_Source\PSoC4/comm_RS485_UART_UART.c ****     *  string: pointer to the null terminated string array to be placed in the
 548:.\Generated_Source\PSoC4/comm_RS485_UART_UART.c ****     *          transmit buffer.
 549:.\Generated_Source\PSoC4/comm_RS485_UART_UART.c ****     *
 550:.\Generated_Source\PSoC4/comm_RS485_UART_UART.c ****     * Return:
 551:.\Generated_Source\PSoC4/comm_RS485_UART_UART.c ****     *  None
 552:.\Generated_Source\PSoC4/comm_RS485_UART_UART.c ****     *
 553:.\Generated_Source\PSoC4/comm_RS485_UART_UART.c ****     *******************************************************************************/
 554:.\Generated_Source\PSoC4/comm_RS485_UART_UART.c ****     void comm_RS485_UART_UartPutString(const char8 string[])
 555:.\Generated_Source\PSoC4/comm_RS485_UART_UART.c ****     {
 390              		.loc 1 555 0
 391              		.cfi_startproc
 392 0000 80B5     		push	{r7, lr}
 393              		.cfi_def_cfa_offset 8
 394              		.cfi_offset 7, -8
 395              		.cfi_offset 14, -4
 396 0002 84B0     		sub	sp, sp, #16
 397              		.cfi_def_cfa_offset 24
 398 0004 00AF     		add	r7, sp, #0
 399              		.cfi_def_cfa_register 7
 400 0006 7860     		str	r0, [r7, #4]
 556:.\Generated_Source\PSoC4/comm_RS485_UART_UART.c ****         uint32 bufIndex;
 557:.\Generated_Source\PSoC4/comm_RS485_UART_UART.c **** 
 558:.\Generated_Source\PSoC4/comm_RS485_UART_UART.c ****         bufIndex = 0u;
 401              		.loc 1 558 0
 402 0008 0023     		mov	r3, #0
 403 000a FB60     		str	r3, [r7, #12]
 559:.\Generated_Source\PSoC4/comm_RS485_UART_UART.c **** 
 560:.\Generated_Source\PSoC4/comm_RS485_UART_UART.c ****         /* Blocks the control flow until all data has been sent */
 561:.\Generated_Source\PSoC4/comm_RS485_UART_UART.c ****         while(string[bufIndex] != ((char8) 0))
 404              		.loc 1 561 0
 405 000c 09E0     		b	.L23
 406              	.L24:
 562:.\Generated_Source\PSoC4/comm_RS485_UART_UART.c ****         {
 563:.\Generated_Source\PSoC4/comm_RS485_UART_UART.c ****             comm_RS485_UART_UartPutChar((uint32) string[bufIndex]);
ARM GAS  C:\Users\SDEVAS~1\AppData\Local\Temp\ccBlrBYz.s 			page 18


 407              		.loc 1 563 0
 408 000e 7A68     		ldr	r2, [r7, #4]
 409 0010 FB68     		ldr	r3, [r7, #12]
 410 0012 D318     		add	r3, r2, r3
 411 0014 1B78     		ldrb	r3, [r3]
 412 0016 181C     		mov	r0, r3
 413 0018 FFF7FEFF 		bl	comm_RS485_UART_SpiUartWriteTxData
 564:.\Generated_Source\PSoC4/comm_RS485_UART_UART.c ****             bufIndex++;
 414              		.loc 1 564 0
 415 001c FB68     		ldr	r3, [r7, #12]
 416 001e 0133     		add	r3, r3, #1
 417 0020 FB60     		str	r3, [r7, #12]
 418              	.L23:
 561:.\Generated_Source\PSoC4/comm_RS485_UART_UART.c ****         while(string[bufIndex] != ((char8) 0))
 419              		.loc 1 561 0 discriminator 1
 420 0022 7A68     		ldr	r2, [r7, #4]
 421 0024 FB68     		ldr	r3, [r7, #12]
 422 0026 D318     		add	r3, r2, r3
 423 0028 1B78     		ldrb	r3, [r3]
 424 002a 002B     		cmp	r3, #0
 425 002c EFD1     		bne	.L24
 565:.\Generated_Source\PSoC4/comm_RS485_UART_UART.c ****         }
 566:.\Generated_Source\PSoC4/comm_RS485_UART_UART.c ****     }
 426              		.loc 1 566 0
 427 002e BD46     		mov	sp, r7
 428 0030 04B0     		add	sp, sp, #16
 429              		@ sp needed
 430 0032 80BD     		pop	{r7, pc}
 431              		.cfi_endproc
 432              	.LFE5:
 433              		.size	comm_RS485_UART_UartPutString, .-comm_RS485_UART_UartPutString
 434              		.section	.text.comm_RS485_UART_UartPutCRLF,"ax",%progbits
 435              		.align	2
 436              		.global	comm_RS485_UART_UartPutCRLF
 437              		.code	16
 438              		.thumb_func
 439              		.type	comm_RS485_UART_UartPutCRLF, %function
 440              	comm_RS485_UART_UartPutCRLF:
 441              	.LFB6:
 567:.\Generated_Source\PSoC4/comm_RS485_UART_UART.c **** 
 568:.\Generated_Source\PSoC4/comm_RS485_UART_UART.c **** 
 569:.\Generated_Source\PSoC4/comm_RS485_UART_UART.c ****     /*******************************************************************************
 570:.\Generated_Source\PSoC4/comm_RS485_UART_UART.c ****     * Function Name: comm_RS485_UART_UartPutCRLF
 571:.\Generated_Source\PSoC4/comm_RS485_UART_UART.c ****     ********************************************************************************
 572:.\Generated_Source\PSoC4/comm_RS485_UART_UART.c ****     *
 573:.\Generated_Source\PSoC4/comm_RS485_UART_UART.c ****     * Summary:
 574:.\Generated_Source\PSoC4/comm_RS485_UART_UART.c ****     *  Places a byte of data followed by a carriage return (0x0D) and
 575:.\Generated_Source\PSoC4/comm_RS485_UART_UART.c ****     *  line feed (0x0A) into the transmit buffer.
 576:.\Generated_Source\PSoC4/comm_RS485_UART_UART.c ****     *  This function is blocking and waits until there is space available to put
 577:.\Generated_Source\PSoC4/comm_RS485_UART_UART.c ****     *  all the requested data into the  transmit buffer.
 578:.\Generated_Source\PSoC4/comm_RS485_UART_UART.c ****     *
 579:.\Generated_Source\PSoC4/comm_RS485_UART_UART.c ****     * Parameters:
 580:.\Generated_Source\PSoC4/comm_RS485_UART_UART.c ****     *  txDataByte : the data to be transmitted.
 581:.\Generated_Source\PSoC4/comm_RS485_UART_UART.c ****     *
 582:.\Generated_Source\PSoC4/comm_RS485_UART_UART.c ****     * Return:
 583:.\Generated_Source\PSoC4/comm_RS485_UART_UART.c ****     *  None
 584:.\Generated_Source\PSoC4/comm_RS485_UART_UART.c ****     *
ARM GAS  C:\Users\SDEVAS~1\AppData\Local\Temp\ccBlrBYz.s 			page 19


 585:.\Generated_Source\PSoC4/comm_RS485_UART_UART.c ****     *******************************************************************************/
 586:.\Generated_Source\PSoC4/comm_RS485_UART_UART.c ****     void comm_RS485_UART_UartPutCRLF(uint32 txDataByte)
 587:.\Generated_Source\PSoC4/comm_RS485_UART_UART.c ****     {
 442              		.loc 1 587 0
 443              		.cfi_startproc
 444 0000 80B5     		push	{r7, lr}
 445              		.cfi_def_cfa_offset 8
 446              		.cfi_offset 7, -8
 447              		.cfi_offset 14, -4
 448 0002 82B0     		sub	sp, sp, #8
 449              		.cfi_def_cfa_offset 16
 450 0004 00AF     		add	r7, sp, #0
 451              		.cfi_def_cfa_register 7
 452 0006 7860     		str	r0, [r7, #4]
 588:.\Generated_Source\PSoC4/comm_RS485_UART_UART.c ****         comm_RS485_UART_UartPutChar(txDataByte);  /* Blocks control flow until all data has been se
 453              		.loc 1 588 0
 454 0008 7B68     		ldr	r3, [r7, #4]
 455 000a 181C     		mov	r0, r3
 456 000c FFF7FEFF 		bl	comm_RS485_UART_SpiUartWriteTxData
 589:.\Generated_Source\PSoC4/comm_RS485_UART_UART.c ****         comm_RS485_UART_UartPutChar(0x0Du);       /* Blocks control flow until all data has been se
 457              		.loc 1 589 0
 458 0010 0D20     		mov	r0, #13
 459 0012 FFF7FEFF 		bl	comm_RS485_UART_SpiUartWriteTxData
 590:.\Generated_Source\PSoC4/comm_RS485_UART_UART.c ****         comm_RS485_UART_UartPutChar(0x0Au);       /* Blocks control flow until all data has been se
 460              		.loc 1 590 0
 461 0016 0A20     		mov	r0, #10
 462 0018 FFF7FEFF 		bl	comm_RS485_UART_SpiUartWriteTxData
 591:.\Generated_Source\PSoC4/comm_RS485_UART_UART.c ****     }
 463              		.loc 1 591 0
 464 001c BD46     		mov	sp, r7
 465 001e 02B0     		add	sp, sp, #8
 466              		@ sp needed
 467 0020 80BD     		pop	{r7, pc}
 468              		.cfi_endproc
 469              	.LFE6:
 470              		.size	comm_RS485_UART_UartPutCRLF, .-comm_RS485_UART_UartPutCRLF
 471 0022 C046     		.text
 472              	.Letext0:
 473              		.file 2 "Generated_Source\\PSoC4/cytypes.h"