ARM GAS  C:\Users\SDEVAS~1\AppData\Local\Temp\cc8KFjZb.s 			page 1


   1              		.cpu cortex-m0
   2              		.fpu softvfp
   3              		.eabi_attribute 20, 1
   4              		.eabi_attribute 21, 1
   5              		.eabi_attribute 23, 3
   6              		.eabi_attribute 24, 1
   7              		.eabi_attribute 25, 1
   8              		.eabi_attribute 26, 1
   9              		.eabi_attribute 30, 6
  10              		.eabi_attribute 34, 0
  11              		.eabi_attribute 18, 4
  12              		.code	16
  13              		.file	"comm.c"
  14              		.text
  15              	.Ltext0:
  16              		.cfi_sections	.debug_frame
  17              		.comm	comm,324,4
  18              		.comm	respBuff,300,4
  19              		.global	respEnd
  20              		.data
  21              		.align	2
  22              		.type	respEnd, %object
  23              		.size	respEnd, 4
  24              	respEnd:
  25 0000 00000000 		.word	respBuff
  26              		.global	respFreeSpace
  27              		.align	2
  28              		.type	respFreeSpace, %object
  29              		.size	respFreeSpace, 4
  30              	respFreeSpace:
  31 0004 2C010000 		.word	300
  32              		.global	msgDestinationHolder
  33              		.align	2
  34              		.type	msgDestinationHolder, %object
  35              		.size	msgDestinationHolder, 28
  36              	msgDestinationHolder:
  37 0008 7B226174 		.ascii	"{\"atomType\":\"X\",\"atomId\":0}\000"
  37      6F6D5479 
  37      7065223A 
  37      2258222C 
  37      2261746F 
  38              		.global	msgDestinationHolderAtomType
  39              		.align	2
  40              		.type	msgDestinationHolderAtomType, %object
  41              		.size	msgDestinationHolderAtomType, 4
  42              	msgDestinationHolderAtomType:
  43 0024 0D000000 		.word	msgDestinationHolder+13
  44              		.global	msgDestinationHolderAtomId
  45              		.align	2
  46              		.type	msgDestinationHolderAtomId, %object
  47              		.size	msgDestinationHolderAtomId, 4
  48              	msgDestinationHolderAtomId:
  49 0028 19000000 		.word	msgDestinationHolder+25
  50              		.section	.rodata
  51              		.align	2
  52              	.LC0:
  53 0000 52455100 		.ascii	"REQ\000"
ARM GAS  C:\Users\SDEVAS~1\AppData\Local\Temp\cc8KFjZb.s 			page 2


  54              		.align	2
  55              	.LC2:
  56 0004 5245515F 		.ascii	"REQ_ACK\000"
  56      41434B00 
  57              		.align	2
  58              	.LC4:
  59 000c 41434B00 		.ascii	"ACK\000"
  60              		.align	2
  61              	.LC6:
  62 0010 4E41434B 		.ascii	"NACK\000"
  62      00
  63 0015 000000   		.align	2
  64              	.LC8:
  65 0018 50555348 		.ascii	"PUSH\000"
  65      00
  66              		.section	.text.str2flag,"ax",%progbits
  67              		.align	2
  68              		.code	16
  69              		.thumb_func
  70              		.type	str2flag, %function
  71              	str2flag:
  72              	.LFB33:
  73              		.file 1 ".\\Generated_Source\\PSoC4\\comm.c"
   1:.\Generated_Source\PSoC4/comm.c **** /*
   2:.\Generated_Source\PSoC4/comm.c ****  * commHandler.c
   3:.\Generated_Source\PSoC4/comm.c ****  *
   4:.\Generated_Source\PSoC4/comm.c ****  *  Created on: 1 lip 2015
   5:.\Generated_Source\PSoC4/comm.c ****  *      Author: kuba
   6:.\Generated_Source\PSoC4/comm.c ****  */
   7:.\Generated_Source\PSoC4/comm.c **** 
   8:.\Generated_Source\PSoC4/comm.c **** #include <project.h>
   9:.\Generated_Source\PSoC4/comm.c **** 
  10:.\Generated_Source\PSoC4/comm.c **** /*
  11:.\Generated_Source\PSoC4/comm.c **** Extern declarations to avoid 'implicit declaration' errors
  12:.\Generated_Source\PSoC4/comm.c **** TODO find better fix, because when for some reason prototype will change,
  13:.\Generated_Source\PSoC4/comm.c **** here also neeed to be changed
  14:.\Generated_Source\PSoC4/comm.c **** */
  15:.\Generated_Source\PSoC4/comm.c **** extern void sleepMgr_requestSleep(void);
  16:.\Generated_Source\PSoC4/comm.c **** extern void sleepMgr_releaseSleep(void);
  17:.\Generated_Source\PSoC4/comm.c **** extern uint32_t SysTimer_GetTicks(void);
  18:.\Generated_Source\PSoC4/comm.c **** 
  19:.\Generated_Source\PSoC4/comm.c **** comm_t comm;
  20:.\Generated_Source\PSoC4/comm.c **** 
  21:.\Generated_Source\PSoC4/comm.c **** char respBuff[RESP_BUFF_LEN];
  22:.\Generated_Source\PSoC4/comm.c **** char *respEnd = respBuff;
  23:.\Generated_Source\PSoC4/comm.c **** int respFreeSpace = RESP_BUFF_LEN;
  24:.\Generated_Source\PSoC4/comm.c **** 
  25:.\Generated_Source\PSoC4/comm.c **** 
  26:.\Generated_Source\PSoC4/comm.c **** #define MSG_SOURCE_HOLDER "{\"atomType\":\"" MY_ATOM_TYPE "\",\"atomId\":" MY_ATOM_ID "}"
  27:.\Generated_Source\PSoC4/comm.c **** 
  28:.\Generated_Source\PSoC4/comm.c **** char msgDestinationHolder[] = "{\"atomType\":\"X\",\"atomId\":0}";
  29:.\Generated_Source\PSoC4/comm.c **** char *msgDestinationHolderAtomType = msgDestinationHolder + 13;
  30:.\Generated_Source\PSoC4/comm.c **** char *msgDestinationHolderAtomId = msgDestinationHolder + 25;
  31:.\Generated_Source\PSoC4/comm.c **** 
  32:.\Generated_Source\PSoC4/comm.c **** /*
  33:.\Generated_Source\PSoC4/comm.c ****  * Converts FLAG passed in string to ENUM
  34:.\Generated_Source\PSoC4/comm.c ****  */
ARM GAS  C:\Users\SDEVAS~1\AppData\Local\Temp\cc8KFjZb.s 			page 3


  35:.\Generated_Source\PSoC4/comm.c **** static comm_flags_t str2flag(const char *str, int len) {
  74              		.loc 1 35 0
  75              		.cfi_startproc
  76 0000 80B5     		push	{r7, lr}
  77              		.cfi_def_cfa_offset 8
  78              		.cfi_offset 7, -8
  79              		.cfi_offset 14, -4
  80 0002 82B0     		sub	sp, sp, #8
  81              		.cfi_def_cfa_offset 16
  82 0004 00AF     		add	r7, sp, #0
  83              		.cfi_def_cfa_register 7
  84 0006 7860     		str	r0, [r7, #4]
  85 0008 3960     		str	r1, [r7]
  36:.\Generated_Source\PSoC4/comm.c ****   if(strncmp(str, "REQ", len) == 0) return COMM_FLAG_REQ;
  86              		.loc 1 36 0
  87 000a 3B68     		ldr	r3, [r7]
  88 000c 7968     		ldr	r1, [r7, #4]
  89 000e 224A     		ldr	r2, .L8
  90 0010 081C     		mov	r0, r1
  91 0012 111C     		mov	r1, r2
  92 0014 1A1C     		mov	r2, r3
  93 0016 FFF7FEFF 		bl	strncmp
  94 001a 031C     		mov	r3, r0
  95 001c 002B     		cmp	r3, #0
  96 001e 01D1     		bne	.L2
  97              		.loc 1 36 0 is_stmt 0 discriminator 1
  98 0020 0123     		mov	r3, #1
  99 0022 34E0     		b	.L3
 100              	.L2:
  37:.\Generated_Source\PSoC4/comm.c ****   if(strncmp(str, "REQ_ACK", len) == 0) return COMM_FLAG_REQ_ACK;
 101              		.loc 1 37 0 is_stmt 1
 102 0024 3B68     		ldr	r3, [r7]
 103 0026 7968     		ldr	r1, [r7, #4]
 104 0028 1C4A     		ldr	r2, .L8+4
 105 002a 081C     		mov	r0, r1
 106 002c 111C     		mov	r1, r2
 107 002e 1A1C     		mov	r2, r3
 108 0030 FFF7FEFF 		bl	strncmp
 109 0034 031C     		mov	r3, r0
 110 0036 002B     		cmp	r3, #0
 111 0038 01D1     		bne	.L4
 112              		.loc 1 37 0 is_stmt 0 discriminator 1
 113 003a 0323     		mov	r3, #3
 114 003c 27E0     		b	.L3
 115              	.L4:
  38:.\Generated_Source\PSoC4/comm.c ****   if(strncmp(str, "ACK", len) == 0) return COMM_FLAG_ACK;
 116              		.loc 1 38 0 is_stmt 1
 117 003e 3B68     		ldr	r3, [r7]
 118 0040 7968     		ldr	r1, [r7, #4]
 119 0042 174A     		ldr	r2, .L8+8
 120 0044 081C     		mov	r0, r1
 121 0046 111C     		mov	r1, r2
 122 0048 1A1C     		mov	r2, r3
 123 004a FFF7FEFF 		bl	strncmp
 124 004e 031C     		mov	r3, r0
 125 0050 002B     		cmp	r3, #0
 126 0052 01D1     		bne	.L5
ARM GAS  C:\Users\SDEVAS~1\AppData\Local\Temp\cc8KFjZb.s 			page 4


 127              		.loc 1 38 0 is_stmt 0 discriminator 1
 128 0054 0223     		mov	r3, #2
 129 0056 1AE0     		b	.L3
 130              	.L5:
  39:.\Generated_Source\PSoC4/comm.c ****   if(strncmp(str, "NACK", len) == 0) return COMM_FLAG_NACK;
 131              		.loc 1 39 0 is_stmt 1
 132 0058 3B68     		ldr	r3, [r7]
 133 005a 7968     		ldr	r1, [r7, #4]
 134 005c 114A     		ldr	r2, .L8+12
 135 005e 081C     		mov	r0, r1
 136 0060 111C     		mov	r1, r2
 137 0062 1A1C     		mov	r2, r3
 138 0064 FFF7FEFF 		bl	strncmp
 139 0068 031C     		mov	r3, r0
 140 006a 002B     		cmp	r3, #0
 141 006c 01D1     		bne	.L6
 142              		.loc 1 39 0 is_stmt 0 discriminator 1
 143 006e 0423     		mov	r3, #4
 144 0070 0DE0     		b	.L3
 145              	.L6:
  40:.\Generated_Source\PSoC4/comm.c ****   if(strncmp(str, "PUSH", len) == 0) return COMM_FLAG_PUSH;
 146              		.loc 1 40 0 is_stmt 1
 147 0072 3B68     		ldr	r3, [r7]
 148 0074 7968     		ldr	r1, [r7, #4]
 149 0076 0C4A     		ldr	r2, .L8+16
 150 0078 081C     		mov	r0, r1
 151 007a 111C     		mov	r1, r2
 152 007c 1A1C     		mov	r2, r3
 153 007e FFF7FEFF 		bl	strncmp
 154 0082 031C     		mov	r3, r0
 155 0084 002B     		cmp	r3, #0
 156 0086 01D1     		bne	.L7
 157              		.loc 1 40 0 is_stmt 0 discriminator 1
 158 0088 0823     		mov	r3, #8
 159 008a 00E0     		b	.L3
 160              	.L7:
  41:.\Generated_Source\PSoC4/comm.c ****   return COMM_FLAG_UNKNOWN;
 161              		.loc 1 41 0 is_stmt 1
 162 008c 0023     		mov	r3, #0
 163              	.L3:
  42:.\Generated_Source\PSoC4/comm.c **** }
 164              		.loc 1 42 0
 165 008e 181C     		mov	r0, r3
 166 0090 BD46     		mov	sp, r7
 167 0092 02B0     		add	sp, sp, #8
 168              		@ sp needed
 169 0094 80BD     		pop	{r7, pc}
 170              	.L9:
 171 0096 C046     		.align	2
 172              	.L8:
 173 0098 00000000 		.word	.LC0
 174 009c 04000000 		.word	.LC2
 175 00a0 0C000000 		.word	.LC4
 176 00a4 10000000 		.word	.LC6
 177 00a8 18000000 		.word	.LC8
 178              		.cfi_endproc
 179              	.LFE33:
ARM GAS  C:\Users\SDEVAS~1\AppData\Local\Temp\cc8KFjZb.s 			page 5


 180              		.size	str2flag, .-str2flag
 181              		.section	.rodata
 182 001d 000000   		.align	2
 183              	.LC16:
 184 0020 45525200 		.ascii	"ERR\000"
 185              		.section	.text.flag2str,"ax",%progbits
 186              		.align	2
 187              		.code	16
 188              		.thumb_func
 189              		.type	flag2str, %function
 190              	flag2str:
 191              	.LFB34:
  43:.\Generated_Source\PSoC4/comm.c **** /*
  44:.\Generated_Source\PSoC4/comm.c ****  * Converts ENUM Flag to string, length checking, returns bytes written to string
  45:.\Generated_Source\PSoC4/comm.c ****  */
  46:.\Generated_Source\PSoC4/comm.c **** static int flag2str(char *str, int len, comm_flags_t flag) {
 192              		.loc 1 46 0
 193              		.cfi_startproc
 194 0000 80B5     		push	{r7, lr}
 195              		.cfi_def_cfa_offset 8
 196              		.cfi_offset 7, -8
 197              		.cfi_offset 14, -4
 198 0002 84B0     		sub	sp, sp, #16
 199              		.cfi_def_cfa_offset 24
 200 0004 00AF     		add	r7, sp, #0
 201              		.cfi_def_cfa_register 7
 202 0006 F860     		str	r0, [r7, #12]
 203 0008 B960     		str	r1, [r7, #8]
 204 000a FB1D     		add	r3, r7, #7
 205 000c 1A70     		strb	r2, [r3]
  47:.\Generated_Source\PSoC4/comm.c ****   switch(flag) {
 206              		.loc 1 47 0
 207 000e FB1D     		add	r3, r7, #7
 208 0010 1B78     		ldrb	r3, [r3]
 209 0012 082B     		cmp	r3, #8
 210 0014 54D8     		bhi	.L11
 211 0016 9A00     		lsl	r2, r3, #2
 212 0018 334B     		ldr	r3, .L31
 213 001a D318     		add	r3, r2, r3
 214 001c 1B68     		ldr	r3, [r3]
 215 001e 9F46     		mov	pc, r3
 216              		.section	.rodata
 217              		.align	2
 218              	.L13:
 219 0024 C0000000 		.word	.L11
 220 0028 20000000 		.word	.L12
 221 002c 60000000 		.word	.L14
 222 0030 40000000 		.word	.L15
 223 0034 80000000 		.word	.L16
 224 0038 C0000000 		.word	.L11
 225 003c C0000000 		.word	.L11
 226 0040 C0000000 		.word	.L11
 227 0044 A0000000 		.word	.L17
 228              		.section	.text.flag2str
 229              	.L12:
  48:.\Generated_Source\PSoC4/comm.c ****     case COMM_FLAG_REQ: memcpy(str, "REQ", len < 3 ? len : 3); return len < 3 ? len : 3;
 230              		.loc 1 48 0
ARM GAS  C:\Users\SDEVAS~1\AppData\Local\Temp\cc8KFjZb.s 			page 6


 231 0020 BB68     		ldr	r3, [r7, #8]
 232 0022 032B     		cmp	r3, #3
 233 0024 00DD     		ble	.L18
 234 0026 0323     		mov	r3, #3
 235              	.L18:
 236 0028 F968     		ldr	r1, [r7, #12]
 237 002a 304A     		ldr	r2, .L31+4
 238 002c 081C     		mov	r0, r1
 239 002e 111C     		mov	r1, r2
 240 0030 1A1C     		mov	r2, r3
 241 0032 FFF7FEFF 		bl	memcpy
 242 0036 BB68     		ldr	r3, [r7, #8]
 243 0038 032B     		cmp	r3, #3
 244 003a 50DD     		ble	.L20
 245 003c 0323     		mov	r3, #3
 246 003e 4EE0     		b	.L20
 247              	.L15:
  49:.\Generated_Source\PSoC4/comm.c ****     case COMM_FLAG_REQ_ACK: memcpy(str, "REQ_ACK", len < 7 ? len : 7); return len < 7 ? len : 7;
 248              		.loc 1 49 0
 249 0040 BB68     		ldr	r3, [r7, #8]
 250 0042 072B     		cmp	r3, #7
 251 0044 00DD     		ble	.L21
 252 0046 0723     		mov	r3, #7
 253              	.L21:
 254 0048 F968     		ldr	r1, [r7, #12]
 255 004a 294A     		ldr	r2, .L31+8
 256 004c 081C     		mov	r0, r1
 257 004e 111C     		mov	r1, r2
 258 0050 1A1C     		mov	r2, r3
 259 0052 FFF7FEFF 		bl	memcpy
 260 0056 BB68     		ldr	r3, [r7, #8]
 261 0058 072B     		cmp	r3, #7
 262 005a 40DD     		ble	.L20
 263 005c 0723     		mov	r3, #7
 264 005e 3EE0     		b	.L20
 265              	.L14:
  50:.\Generated_Source\PSoC4/comm.c ****     case COMM_FLAG_ACK: memcpy(str, "ACK", len <  3 ? len : 3); return len <  3 ? len : 3;
 266              		.loc 1 50 0
 267 0060 BB68     		ldr	r3, [r7, #8]
 268 0062 032B     		cmp	r3, #3
 269 0064 00DD     		ble	.L23
 270 0066 0323     		mov	r3, #3
 271              	.L23:
 272 0068 F968     		ldr	r1, [r7, #12]
 273 006a 224A     		ldr	r2, .L31+12
 274 006c 081C     		mov	r0, r1
 275 006e 111C     		mov	r1, r2
 276 0070 1A1C     		mov	r2, r3
 277 0072 FFF7FEFF 		bl	memcpy
 278 0076 BB68     		ldr	r3, [r7, #8]
 279 0078 032B     		cmp	r3, #3
 280 007a 30DD     		ble	.L20
 281 007c 0323     		mov	r3, #3
 282 007e 2EE0     		b	.L20
 283              	.L16:
  51:.\Generated_Source\PSoC4/comm.c ****     case COMM_FLAG_NACK: memcpy(str, "NACK", len < 4 ? len : 4); return len < 4 ? len : 4;
 284              		.loc 1 51 0
ARM GAS  C:\Users\SDEVAS~1\AppData\Local\Temp\cc8KFjZb.s 			page 7


 285 0080 BB68     		ldr	r3, [r7, #8]
 286 0082 042B     		cmp	r3, #4
 287 0084 00DD     		ble	.L25
 288 0086 0423     		mov	r3, #4
 289              	.L25:
 290 0088 F968     		ldr	r1, [r7, #12]
 291 008a 1B4A     		ldr	r2, .L31+16
 292 008c 081C     		mov	r0, r1
 293 008e 111C     		mov	r1, r2
 294 0090 1A1C     		mov	r2, r3
 295 0092 FFF7FEFF 		bl	memcpy
 296 0096 BB68     		ldr	r3, [r7, #8]
 297 0098 042B     		cmp	r3, #4
 298 009a 20DD     		ble	.L20
 299 009c 0423     		mov	r3, #4
 300 009e 1EE0     		b	.L20
 301              	.L17:
  52:.\Generated_Source\PSoC4/comm.c ****     case COMM_FLAG_PUSH: memcpy(str, "PUSH", len < 4 ? len : 4); return len < 4 ? len : 4;
 302              		.loc 1 52 0
 303 00a0 BB68     		ldr	r3, [r7, #8]
 304 00a2 042B     		cmp	r3, #4
 305 00a4 00DD     		ble	.L27
 306 00a6 0423     		mov	r3, #4
 307              	.L27:
 308 00a8 F968     		ldr	r1, [r7, #12]
 309 00aa 144A     		ldr	r2, .L31+20
 310 00ac 081C     		mov	r0, r1
 311 00ae 111C     		mov	r1, r2
 312 00b0 1A1C     		mov	r2, r3
 313 00b2 FFF7FEFF 		bl	memcpy
 314 00b6 BB68     		ldr	r3, [r7, #8]
 315 00b8 042B     		cmp	r3, #4
 316 00ba 10DD     		ble	.L20
 317 00bc 0423     		mov	r3, #4
 318 00be 0EE0     		b	.L20
 319              	.L11:
  53:.\Generated_Source\PSoC4/comm.c ****     case COMM_FLAG_UNKNOWN: //no break on purpose
  54:.\Generated_Source\PSoC4/comm.c ****     default: memcpy(str, "ERR", len < 3 ? len : 3); return len < 3 ? len : 3;
 320              		.loc 1 54 0
 321 00c0 BB68     		ldr	r3, [r7, #8]
 322 00c2 032B     		cmp	r3, #3
 323 00c4 00DD     		ble	.L29
 324 00c6 0323     		mov	r3, #3
 325              	.L29:
 326 00c8 F968     		ldr	r1, [r7, #12]
 327 00ca 0D4A     		ldr	r2, .L31+24
 328 00cc 081C     		mov	r0, r1
 329 00ce 111C     		mov	r1, r2
 330 00d0 1A1C     		mov	r2, r3
 331 00d2 FFF7FEFF 		bl	memcpy
 332 00d6 BB68     		ldr	r3, [r7, #8]
 333 00d8 032B     		cmp	r3, #3
 334 00da 00DD     		ble	.L20
 335 00dc 0323     		mov	r3, #3
 336              	.L20:
  55:.\Generated_Source\PSoC4/comm.c ****   }
  56:.\Generated_Source\PSoC4/comm.c **** }
ARM GAS  C:\Users\SDEVAS~1\AppData\Local\Temp\cc8KFjZb.s 			page 8


 337              		.loc 1 56 0
 338 00de 181C     		mov	r0, r3
 339 00e0 BD46     		mov	sp, r7
 340 00e2 04B0     		add	sp, sp, #16
 341              		@ sp needed
 342 00e4 80BD     		pop	{r7, pc}
 343              	.L32:
 344 00e6 C046     		.align	2
 345              	.L31:
 346 00e8 24000000 		.word	.L13
 347 00ec 00000000 		.word	.LC0
 348 00f0 04000000 		.word	.LC2
 349 00f4 0C000000 		.word	.LC4
 350 00f8 10000000 		.word	.LC6
 351 00fc 18000000 		.word	.LC8
 352 0100 20000000 		.word	.LC16
 353              		.cfi_endproc
 354              	.LFE34:
 355              		.size	flag2str, .-flag2str
 356              		.section	.rodata
 357              		.align	2
 358              	.LC18:
 359 0048 736C6565 		.ascii	"sleepPeriod\000"
 359      70506572 
 359      696F6400 
 360              		.align	2
 361              	.LC19:
 362 0054 73687574 		.ascii	"shutdownTime\000"
 362      646F776E 
 362      54696D65 
 362      00
 363 0061 000000   		.align	2
 364              	.LC20:
 365 0064 74657374 		.ascii	"test\000"
 365      00
 366 0069 000000   		.align	2
 367              	.LC21:
 368 006c 696E6E65 		.ascii	"innerPressure\000"
 368      72507265 
 368      73737572 
 368      6500
 369 007a 0000     		.align	2
 370              	.LC22:
 371 007c 6F757465 		.ascii	"outerPressure\000"
 371      72507265 
 371      73737572 
 371      6500
 372 008a 0000     		.align	2
 373              	.LC23:
 374 008c 63757272 		.ascii	"currentFlow\000"
 374      656E7446 
 374      6C6F7700 
 375              		.align	2
 376              	.LC24:
 377 0098 746F7461 		.ascii	"totalVolume\000"
 377      6C566F6C 
 377      756D6500 
ARM GAS  C:\Users\SDEVAS~1\AppData\Local\Temp\cc8KFjZb.s 			page 9


 378              		.align	2
 379              	.LC25:
 380 00a4 76616C76 		.ascii	"valveStatus\000"
 380      65537461 
 380      74757300 
 381              		.align	2
 382              	.LC26:
 383 00b0 6C617374 		.ascii	"lastStartNumber\000"
 383      53746172 
 383      744E756D 
 383      62657200 
 384              		.align	2
 385              	.LC27:
 386 00c0 6C617374 		.ascii	"lastStartVolume\000"
 386      53746172 
 386      74566F6C 
 386      756D6500 
 387              		.align	2
 388              	.LC28:
 389 00d0 6C617374 		.ascii	"lastStartFlow\000"
 389      53746172 
 389      74466C6F 
 389      7700
 390 00de 0000     		.align	2
 391              	.LC29:
 392 00e0 73746172 		.ascii	"startTime\000"
 392      7454696D 
 392      6500
 393 00ea 0000     		.align	2
 394              	.LC30:
 395 00ec 73746F70 		.ascii	"stopTime\000"
 395      54696D65 
 395      00
 396 00f5 000000   		.align	2
 397              	.LC31:
 398 00f8 6E756D53 		.ascii	"numStarts\000"
 398      74617274 
 398      7300
 399 0102 0000     		.align	2
 400              	.LC32:
 401 0104 766F6C50 		.ascii	"volPerStart\000"
 401      65725374 
 401      61727400 
 402              		.align	2
 403              	.LC33:
 404 0110 6D617856 		.ascii	"maxVol\000"
 404      6F6C00
 405 0117 00       		.align	2
 406              	.LC34:
 407 0118 6D696E56 		.ascii	"minVol\000"
 407      6F6C00
 408 011f 00       		.align	2
 409              	.LC35:
 410 0120 66657274 		.ascii	"fertigationTable0\000"
 410      69676174 
 410      696F6E54 
 410      61626C65 
ARM GAS  C:\Users\SDEVAS~1\AppData\Local\Temp\cc8KFjZb.s 			page 10


 410      3000
 411 0132 0000     		.align	2
 412              	.LC36:
 413 0134 66657274 		.ascii	"fertigationTable1\000"
 413      69676174 
 413      696F6E54 
 413      61626C65 
 413      3100
 414 0146 0000     		.align	2
 415              	.LC37:
 416 0148 66657274 		.ascii	"fertigationTable2\000"
 416      69676174 
 416      696F6E54 
 416      61626C65 
 416      3200
 417 015a 0000     		.align	2
 418              	.LC38:
 419 015c 66657274 		.ascii	"fertigationTable3\000"
 419      69676174 
 419      696F6E54 
 419      61626C65 
 419      3300
 420 016e 0000     		.align	2
 421              	.LC39:
 422 0170 66657274 		.ascii	"fertigationTable4\000"
 422      69676174 
 422      696F6E54 
 422      61626C65 
 422      3400
 423 0182 0000     		.align	2
 424              	.LC40:
 425 0184 66657274 		.ascii	"fertigationTable5\000"
 425      69676174 
 425      696F6E54 
 425      61626C65 
 425      3500
 426 0196 0000     		.align	2
 427              	.LC41:
 428 0198 66657274 		.ascii	"fertigationTable6\000"
 428      69676174 
 428      696F6E54 
 428      61626C65 
 428      3600
 429 01aa 0000     		.align	2
 430              	.LC42:
 431 01ac 66657274 		.ascii	"fertigationTable7\000"
 431      69676174 
 431      696F6E54 
 431      61626C65 
 431      3700
 432 01be 0000     		.align	2
 433              	.LC43:
 434 01c0 66657274 		.ascii	"fertigationTable8\000"
 434      69676174 
 434      696F6E54 
 434      61626C65 
 434      3800
ARM GAS  C:\Users\SDEVAS~1\AppData\Local\Temp\cc8KFjZb.s 			page 11


 435 01d2 0000     		.align	2
 436              	.LC44:
 437 01d4 66657274 		.ascii	"fertigationTable9\000"
 437      69676174 
 437      696F6E54 
 437      61626C65 
 437      3900
 438 01e6 0000     		.align	2
 439              	.LC45:
 440 01e8 6E6F7442 		.ascii	"notBefore\000"
 440      65666F72 
 440      6500
 441 01f2 0000     		.align	2
 442              	.LC46:
 443 01f4 6E6F7441 		.ascii	"notAfter\000"
 443      66746572 
 443      00
 444 01fd 000000   		.align	2
 445              	.LC47:
 446 0200 64696C75 		.ascii	"dilutionFactorA\000"
 446      74696F6E 
 446      46616374 
 446      6F724100 
 447              		.align	2
 448              	.LC48:
 449 0210 64696C75 		.ascii	"dilutionFactorB\000"
 449      74696F6E 
 449      46616374 
 449      6F724200 
 450              		.align	2
 451              	.LC49:
 452 0220 76656E74 		.ascii	"venturiSuctionA\000"
 452      75726953 
 452      75637469 
 452      6F6E4100 
 453              		.align	2
 454              	.LC50:
 455 0230 76656E74 		.ascii	"venturiSuctionB\000"
 455      75726953 
 455      75637469 
 455      6F6E4200 
 456              		.align	2
 457              	.LC51:
 458 0240 73717561 		.ascii	"squareMeters\000"
 458      72654D65 
 458      74657273 
 458      00
 459 024d 000000   		.align	2
 460              	.LC52:
 461 0250 6C506572 		.ascii	"lPerSqMeterPerDay\000"
 461      53714D65 
 461      74657250 
 461      65724461 
 461      7900
 462 0262 0000     		.align	2
 463              	.LC53:
 464 0264 63726F70 		.ascii	"cropType\000"
ARM GAS  C:\Users\SDEVAS~1\AppData\Local\Temp\cc8KFjZb.s 			page 12


 464      54797065 
 464      00
 465              		.data
 466              		.align	2
 467              		.type	atom_variables_id_strings, %object
 468              		.size	atom_variables_id_strings, 144
 469              	atom_variables_id_strings:
 470 002c 48000000 		.word	.LC18
 471 0030 54000000 		.word	.LC19
 472 0034 64000000 		.word	.LC20
 473 0038 6C000000 		.word	.LC21
 474 003c 7C000000 		.word	.LC22
 475 0040 8C000000 		.word	.LC23
 476 0044 98000000 		.word	.LC24
 477 0048 A4000000 		.word	.LC25
 478 004c B0000000 		.word	.LC26
 479 0050 C0000000 		.word	.LC27
 480 0054 D0000000 		.word	.LC28
 481 0058 E0000000 		.word	.LC29
 482 005c EC000000 		.word	.LC30
 483 0060 F8000000 		.word	.LC31
 484 0064 04010000 		.word	.LC32
 485 0068 10010000 		.word	.LC33
 486 006c 18010000 		.word	.LC34
 487 0070 20010000 		.word	.LC35
 488 0074 34010000 		.word	.LC36
 489 0078 48010000 		.word	.LC37
 490 007c 5C010000 		.word	.LC38
 491 0080 70010000 		.word	.LC39
 492 0084 84010000 		.word	.LC40
 493 0088 98010000 		.word	.LC41
 494 008c AC010000 		.word	.LC42
 495 0090 C0010000 		.word	.LC43
 496 0094 D4010000 		.word	.LC44
 497 0098 E8010000 		.word	.LC45
 498 009c F4010000 		.word	.LC46
 499 00a0 00020000 		.word	.LC47
 500 00a4 10020000 		.word	.LC48
 501 00a8 20020000 		.word	.LC49
 502 00ac 30020000 		.word	.LC50
 503 00b0 40020000 		.word	.LC51
 504 00b4 50020000 		.word	.LC52
 505 00b8 64020000 		.word	.LC53
 506              		.section	.text.get_atom_variable_id_from_string,"ax",%progbits
 507              		.align	2
 508              		.code	16
 509              		.thumb_func
 510              		.type	get_atom_variable_id_from_string, %function
 511              	get_atom_variable_id_from_string:
 512              	.LFB35:
  57:.\Generated_Source\PSoC4/comm.c **** 
  58:.\Generated_Source\PSoC4/comm.c **** /*
  59:.\Generated_Source\PSoC4/comm.c ****  * ATOM ORDERs prototypes
  60:.\Generated_Source\PSoC4/comm.c ****  */
  61:.\Generated_Source\PSoC4/comm.c **** #define X(order) extern comm_flags_t comm_handle_##order(comm_flags_t flags, const char *payload, i
  62:.\Generated_Source\PSoC4/comm.c ****   ATOM_ORDERS
  63:.\Generated_Source\PSoC4/comm.c **** #undef X
ARM GAS  C:\Users\SDEVAS~1\AppData\Local\Temp\cc8KFjZb.s 			page 13


  64:.\Generated_Source\PSoC4/comm.c **** comm_flags_t comm_handle_Set(comm_flags_t flags, const char *payload, int payloadLen, jsmntok_t *to
  65:.\Generated_Source\PSoC4/comm.c **** comm_flags_t comm_handle_Get(comm_flags_t flags, const char *payload, int payloadLen, jsmntok_t *to
  66:.\Generated_Source\PSoC4/comm.c **** comm_flags_t comm_handle_Info(comm_flags_t flags, const char *payload, int payloadLen, jsmntok_t *t
  67:.\Generated_Source\PSoC4/comm.c **** comm_flags_t comm_handle_Status(comm_flags_t flags, const char *payload, int payloadLen, jsmntok_t 
  68:.\Generated_Source\PSoC4/comm.c **** comm_flags_t comm_handle_Mode(comm_flags_t flags, const char *payload, int payloadLen, jsmntok_t *t
  69:.\Generated_Source\PSoC4/comm.c **** 
  70:.\Generated_Source\PSoC4/comm.c **** 
  71:.\Generated_Source\PSoC4/comm.c **** 
  72:.\Generated_Source\PSoC4/comm.c **** /*
  73:.\Generated_Source\PSoC4/comm.c ****  * ATOM VARIABLES section
  74:.\Generated_Source\PSoC4/comm.c ****  */
  75:.\Generated_Source\PSoC4/comm.c **** typedef enum {
  76:.\Generated_Source\PSoC4/comm.c **** #define X(name, vtype, jtype) ATOM_VARIABLE_##name,
  77:.\Generated_Source\PSoC4/comm.c ****   ATOM_VARIABLES
  78:.\Generated_Source\PSoC4/comm.c **** #undef X
  79:.\Generated_Source\PSoC4/comm.c ****   NUM_OF_ATOM_VARIABLES,
  80:.\Generated_Source\PSoC4/comm.c ****   INVALID_ATOM_VARIABLE
  81:.\Generated_Source\PSoC4/comm.c **** } atom_variables_id_t;
  82:.\Generated_Source\PSoC4/comm.c **** 
  83:.\Generated_Source\PSoC4/comm.c **** static const char * atom_variables_id_strings[NUM_OF_ATOM_VARIABLES] = {
  84:.\Generated_Source\PSoC4/comm.c **** #define X(name, vtype, jtype) [ATOM_VARIABLE_##name] = #name,
  85:.\Generated_Source\PSoC4/comm.c ****     ATOM_VARIABLES
  86:.\Generated_Source\PSoC4/comm.c **** #undef X
  87:.\Generated_Source\PSoC4/comm.c **** };
  88:.\Generated_Source\PSoC4/comm.c **** static atom_variables_id_t get_atom_variable_id_from_string(const char * str, int len) {
 513              		.loc 1 88 0
 514              		.cfi_startproc
 515 0000 80B5     		push	{r7, lr}
 516              		.cfi_def_cfa_offset 8
 517              		.cfi_offset 7, -8
 518              		.cfi_offset 14, -4
 519 0002 82B0     		sub	sp, sp, #8
 520              		.cfi_def_cfa_offset 16
 521 0004 00AF     		add	r7, sp, #0
 522              		.cfi_def_cfa_register 7
 523 0006 7860     		str	r0, [r7, #4]
 524 0008 3960     		str	r1, [r7]
  89:.\Generated_Source\PSoC4/comm.c **** #define X(name, vtype, jtype) if(strncmp(str, atom_variables_id_strings[ATOM_VARIABLE_##name], len)
  90:.\Generated_Source\PSoC4/comm.c ****   ATOM_VARIABLES
 525              		.loc 1 90 0
 526 000a CB4B     		ldr	r3, .L71
 527 000c 1A68     		ldr	r2, [r3]
 528 000e 3B68     		ldr	r3, [r7]
 529 0010 7968     		ldr	r1, [r7, #4]
 530 0012 081C     		mov	r0, r1
 531 0014 111C     		mov	r1, r2
 532 0016 1A1C     		mov	r2, r3
 533 0018 FFF7FEFF 		bl	strncmp
 534 001c 031C     		mov	r3, r0
 535 001e 002B     		cmp	r3, #0
 536 0020 01D1     		bne	.L34
 537              		.loc 1 90 0 is_stmt 0 discriminator 1
 538 0022 0023     		mov	r3, #0
 539 0024 F1E1     		b	.L35
 540              	.L34:
 541              		.loc 1 90 0 discriminator 2
 542 0026 C44B     		ldr	r3, .L71
ARM GAS  C:\Users\SDEVAS~1\AppData\Local\Temp\cc8KFjZb.s 			page 14


 543 0028 5A68     		ldr	r2, [r3, #4]
 544 002a 3B68     		ldr	r3, [r7]
 545 002c 7968     		ldr	r1, [r7, #4]
 546 002e 081C     		mov	r0, r1
 547 0030 111C     		mov	r1, r2
 548 0032 1A1C     		mov	r2, r3
 549 0034 FFF7FEFF 		bl	strncmp
 550 0038 031C     		mov	r3, r0
 551 003a 002B     		cmp	r3, #0
 552 003c 01D1     		bne	.L36
 553              		.loc 1 90 0 discriminator 1
 554 003e 0123     		mov	r3, #1
 555 0040 E3E1     		b	.L35
 556              	.L36:
 557              		.loc 1 90 0 discriminator 2
 558 0042 BD4B     		ldr	r3, .L71
 559 0044 9A68     		ldr	r2, [r3, #8]
 560 0046 3B68     		ldr	r3, [r7]
 561 0048 7968     		ldr	r1, [r7, #4]
 562 004a 081C     		mov	r0, r1
 563 004c 111C     		mov	r1, r2
 564 004e 1A1C     		mov	r2, r3
 565 0050 FFF7FEFF 		bl	strncmp
 566 0054 031C     		mov	r3, r0
 567 0056 002B     		cmp	r3, #0
 568 0058 01D1     		bne	.L37
 569              		.loc 1 90 0 discriminator 1
 570 005a 0223     		mov	r3, #2
 571 005c D5E1     		b	.L35
 572              	.L37:
 573              		.loc 1 90 0 discriminator 2
 574 005e B64B     		ldr	r3, .L71
 575 0060 DA68     		ldr	r2, [r3, #12]
 576 0062 3B68     		ldr	r3, [r7]
 577 0064 7968     		ldr	r1, [r7, #4]
 578 0066 081C     		mov	r0, r1
 579 0068 111C     		mov	r1, r2
 580 006a 1A1C     		mov	r2, r3
 581 006c FFF7FEFF 		bl	strncmp
 582 0070 031C     		mov	r3, r0
 583 0072 002B     		cmp	r3, #0
 584 0074 01D1     		bne	.L38
 585              		.loc 1 90 0 discriminator 1
 586 0076 0323     		mov	r3, #3
 587 0078 C7E1     		b	.L35
 588              	.L38:
 589              		.loc 1 90 0 discriminator 2
 590 007a AF4B     		ldr	r3, .L71
 591 007c 1A69     		ldr	r2, [r3, #16]
 592 007e 3B68     		ldr	r3, [r7]
 593 0080 7968     		ldr	r1, [r7, #4]
 594 0082 081C     		mov	r0, r1
 595 0084 111C     		mov	r1, r2
 596 0086 1A1C     		mov	r2, r3
 597 0088 FFF7FEFF 		bl	strncmp
 598 008c 031C     		mov	r3, r0
 599 008e 002B     		cmp	r3, #0
ARM GAS  C:\Users\SDEVAS~1\AppData\Local\Temp\cc8KFjZb.s 			page 15


 600 0090 01D1     		bne	.L39
 601              		.loc 1 90 0 discriminator 1
 602 0092 0423     		mov	r3, #4
 603 0094 B9E1     		b	.L35
 604              	.L39:
 605              		.loc 1 90 0 discriminator 2
 606 0096 A84B     		ldr	r3, .L71
 607 0098 5A69     		ldr	r2, [r3, #20]
 608 009a 3B68     		ldr	r3, [r7]
 609 009c 7968     		ldr	r1, [r7, #4]
 610 009e 081C     		mov	r0, r1
 611 00a0 111C     		mov	r1, r2
 612 00a2 1A1C     		mov	r2, r3
 613 00a4 FFF7FEFF 		bl	strncmp
 614 00a8 031C     		mov	r3, r0
 615 00aa 002B     		cmp	r3, #0
 616 00ac 01D1     		bne	.L40
 617              		.loc 1 90 0 discriminator 1
 618 00ae 0523     		mov	r3, #5
 619 00b0 ABE1     		b	.L35
 620              	.L40:
 621              		.loc 1 90 0 discriminator 2
 622 00b2 A14B     		ldr	r3, .L71
 623 00b4 9A69     		ldr	r2, [r3, #24]
 624 00b6 3B68     		ldr	r3, [r7]
 625 00b8 7968     		ldr	r1, [r7, #4]
 626 00ba 081C     		mov	r0, r1
 627 00bc 111C     		mov	r1, r2
 628 00be 1A1C     		mov	r2, r3
 629 00c0 FFF7FEFF 		bl	strncmp
 630 00c4 031C     		mov	r3, r0
 631 00c6 002B     		cmp	r3, #0
 632 00c8 01D1     		bne	.L41
 633              		.loc 1 90 0 discriminator 1
 634 00ca 0623     		mov	r3, #6
 635 00cc 9DE1     		b	.L35
 636              	.L41:
 637              		.loc 1 90 0 discriminator 2
 638 00ce 9A4B     		ldr	r3, .L71
 639 00d0 DA69     		ldr	r2, [r3, #28]
 640 00d2 3B68     		ldr	r3, [r7]
 641 00d4 7968     		ldr	r1, [r7, #4]
 642 00d6 081C     		mov	r0, r1
 643 00d8 111C     		mov	r1, r2
 644 00da 1A1C     		mov	r2, r3
 645 00dc FFF7FEFF 		bl	strncmp
 646 00e0 031C     		mov	r3, r0
 647 00e2 002B     		cmp	r3, #0
 648 00e4 01D1     		bne	.L42
 649              		.loc 1 90 0 discriminator 1
 650 00e6 0723     		mov	r3, #7
 651 00e8 8FE1     		b	.L35
 652              	.L42:
 653              		.loc 1 90 0 discriminator 2
 654 00ea 934B     		ldr	r3, .L71
 655 00ec 1A6A     		ldr	r2, [r3, #32]
 656 00ee 3B68     		ldr	r3, [r7]
ARM GAS  C:\Users\SDEVAS~1\AppData\Local\Temp\cc8KFjZb.s 			page 16


 657 00f0 7968     		ldr	r1, [r7, #4]
 658 00f2 081C     		mov	r0, r1
 659 00f4 111C     		mov	r1, r2
 660 00f6 1A1C     		mov	r2, r3
 661 00f8 FFF7FEFF 		bl	strncmp
 662 00fc 031C     		mov	r3, r0
 663 00fe 002B     		cmp	r3, #0
 664 0100 01D1     		bne	.L43
 665              		.loc 1 90 0 discriminator 1
 666 0102 0823     		mov	r3, #8
 667 0104 81E1     		b	.L35
 668              	.L43:
 669              		.loc 1 90 0 discriminator 2
 670 0106 8C4B     		ldr	r3, .L71
 671 0108 5A6A     		ldr	r2, [r3, #36]
 672 010a 3B68     		ldr	r3, [r7]
 673 010c 7968     		ldr	r1, [r7, #4]
 674 010e 081C     		mov	r0, r1
 675 0110 111C     		mov	r1, r2
 676 0112 1A1C     		mov	r2, r3
 677 0114 FFF7FEFF 		bl	strncmp
 678 0118 031C     		mov	r3, r0
 679 011a 002B     		cmp	r3, #0
 680 011c 01D1     		bne	.L44
 681              		.loc 1 90 0 discriminator 1
 682 011e 0923     		mov	r3, #9
 683 0120 73E1     		b	.L35
 684              	.L44:
 685              		.loc 1 90 0 discriminator 2
 686 0122 854B     		ldr	r3, .L71
 687 0124 9A6A     		ldr	r2, [r3, #40]
 688 0126 3B68     		ldr	r3, [r7]
 689 0128 7968     		ldr	r1, [r7, #4]
 690 012a 081C     		mov	r0, r1
 691 012c 111C     		mov	r1, r2
 692 012e 1A1C     		mov	r2, r3
 693 0130 FFF7FEFF 		bl	strncmp
 694 0134 031C     		mov	r3, r0
 695 0136 002B     		cmp	r3, #0
 696 0138 01D1     		bne	.L45
 697              		.loc 1 90 0 discriminator 1
 698 013a 0A23     		mov	r3, #10
 699 013c 65E1     		b	.L35
 700              	.L45:
 701              		.loc 1 90 0 discriminator 2
 702 013e 7E4B     		ldr	r3, .L71
 703 0140 DA6A     		ldr	r2, [r3, #44]
 704 0142 3B68     		ldr	r3, [r7]
 705 0144 7968     		ldr	r1, [r7, #4]
 706 0146 081C     		mov	r0, r1
 707 0148 111C     		mov	r1, r2
 708 014a 1A1C     		mov	r2, r3
 709 014c FFF7FEFF 		bl	strncmp
 710 0150 031C     		mov	r3, r0
 711 0152 002B     		cmp	r3, #0
 712 0154 01D1     		bne	.L46
 713              		.loc 1 90 0 discriminator 1
ARM GAS  C:\Users\SDEVAS~1\AppData\Local\Temp\cc8KFjZb.s 			page 17


 714 0156 0B23     		mov	r3, #11
 715 0158 57E1     		b	.L35
 716              	.L46:
 717              		.loc 1 90 0 discriminator 2
 718 015a 774B     		ldr	r3, .L71
 719 015c 1A6B     		ldr	r2, [r3, #48]
 720 015e 3B68     		ldr	r3, [r7]
 721 0160 7968     		ldr	r1, [r7, #4]
 722 0162 081C     		mov	r0, r1
 723 0164 111C     		mov	r1, r2
 724 0166 1A1C     		mov	r2, r3
 725 0168 FFF7FEFF 		bl	strncmp
 726 016c 031C     		mov	r3, r0
 727 016e 002B     		cmp	r3, #0
 728 0170 01D1     		bne	.L47
 729              		.loc 1 90 0 discriminator 1
 730 0172 0C23     		mov	r3, #12
 731 0174 49E1     		b	.L35
 732              	.L47:
 733              		.loc 1 90 0 discriminator 2
 734 0176 704B     		ldr	r3, .L71
 735 0178 5A6B     		ldr	r2, [r3, #52]
 736 017a 3B68     		ldr	r3, [r7]
 737 017c 7968     		ldr	r1, [r7, #4]
 738 017e 081C     		mov	r0, r1
 739 0180 111C     		mov	r1, r2
 740 0182 1A1C     		mov	r2, r3
 741 0184 FFF7FEFF 		bl	strncmp
 742 0188 031C     		mov	r3, r0
 743 018a 002B     		cmp	r3, #0
 744 018c 01D1     		bne	.L48
 745              		.loc 1 90 0 discriminator 1
 746 018e 0D23     		mov	r3, #13
 747 0190 3BE1     		b	.L35
 748              	.L48:
 749              		.loc 1 90 0 discriminator 2
 750 0192 694B     		ldr	r3, .L71
 751 0194 9A6B     		ldr	r2, [r3, #56]
 752 0196 3B68     		ldr	r3, [r7]
 753 0198 7968     		ldr	r1, [r7, #4]
 754 019a 081C     		mov	r0, r1
 755 019c 111C     		mov	r1, r2
 756 019e 1A1C     		mov	r2, r3
 757 01a0 FFF7FEFF 		bl	strncmp
 758 01a4 031C     		mov	r3, r0
 759 01a6 002B     		cmp	r3, #0
 760 01a8 01D1     		bne	.L49
 761              		.loc 1 90 0 discriminator 1
 762 01aa 0E23     		mov	r3, #14
 763 01ac 2DE1     		b	.L35
 764              	.L49:
 765              		.loc 1 90 0 discriminator 2
 766 01ae 624B     		ldr	r3, .L71
 767 01b0 DA6B     		ldr	r2, [r3, #60]
 768 01b2 3B68     		ldr	r3, [r7]
 769 01b4 7968     		ldr	r1, [r7, #4]
 770 01b6 081C     		mov	r0, r1
ARM GAS  C:\Users\SDEVAS~1\AppData\Local\Temp\cc8KFjZb.s 			page 18


 771 01b8 111C     		mov	r1, r2
 772 01ba 1A1C     		mov	r2, r3
 773 01bc FFF7FEFF 		bl	strncmp
 774 01c0 031C     		mov	r3, r0
 775 01c2 002B     		cmp	r3, #0
 776 01c4 01D1     		bne	.L50
 777              		.loc 1 90 0 discriminator 1
 778 01c6 0F23     		mov	r3, #15
 779 01c8 1FE1     		b	.L35
 780              	.L50:
 781              		.loc 1 90 0 discriminator 2
 782 01ca 5B4B     		ldr	r3, .L71
 783 01cc 1A6C     		ldr	r2, [r3, #64]
 784 01ce 3B68     		ldr	r3, [r7]
 785 01d0 7968     		ldr	r1, [r7, #4]
 786 01d2 081C     		mov	r0, r1
 787 01d4 111C     		mov	r1, r2
 788 01d6 1A1C     		mov	r2, r3
 789 01d8 FFF7FEFF 		bl	strncmp
 790 01dc 031C     		mov	r3, r0
 791 01de 002B     		cmp	r3, #0
 792 01e0 01D1     		bne	.L51
 793              		.loc 1 90 0 discriminator 1
 794 01e2 1023     		mov	r3, #16
 795 01e4 11E1     		b	.L35
 796              	.L51:
 797              		.loc 1 90 0 discriminator 2
 798 01e6 544B     		ldr	r3, .L71
 799 01e8 5A6C     		ldr	r2, [r3, #68]
 800 01ea 3B68     		ldr	r3, [r7]
 801 01ec 7968     		ldr	r1, [r7, #4]
 802 01ee 081C     		mov	r0, r1
 803 01f0 111C     		mov	r1, r2
 804 01f2 1A1C     		mov	r2, r3
 805 01f4 FFF7FEFF 		bl	strncmp
 806 01f8 031C     		mov	r3, r0
 807 01fa 002B     		cmp	r3, #0
 808 01fc 01D1     		bne	.L52
 809              		.loc 1 90 0 discriminator 1
 810 01fe 1123     		mov	r3, #17
 811 0200 03E1     		b	.L35
 812              	.L52:
 813              		.loc 1 90 0 discriminator 2
 814 0202 4D4B     		ldr	r3, .L71
 815 0204 9A6C     		ldr	r2, [r3, #72]
 816 0206 3B68     		ldr	r3, [r7]
 817 0208 7968     		ldr	r1, [r7, #4]
 818 020a 081C     		mov	r0, r1
 819 020c 111C     		mov	r1, r2
 820 020e 1A1C     		mov	r2, r3
 821 0210 FFF7FEFF 		bl	strncmp
 822 0214 031C     		mov	r3, r0
 823 0216 002B     		cmp	r3, #0
 824 0218 01D1     		bne	.L53
 825              		.loc 1 90 0 discriminator 1
 826 021a 1223     		mov	r3, #18
 827 021c F5E0     		b	.L35
ARM GAS  C:\Users\SDEVAS~1\AppData\Local\Temp\cc8KFjZb.s 			page 19


 828              	.L53:
 829              		.loc 1 90 0 discriminator 2
 830 021e 464B     		ldr	r3, .L71
 831 0220 DA6C     		ldr	r2, [r3, #76]
 832 0222 3B68     		ldr	r3, [r7]
 833 0224 7968     		ldr	r1, [r7, #4]
 834 0226 081C     		mov	r0, r1
 835 0228 111C     		mov	r1, r2
 836 022a 1A1C     		mov	r2, r3
 837 022c FFF7FEFF 		bl	strncmp
 838 0230 031C     		mov	r3, r0
 839 0232 002B     		cmp	r3, #0
 840 0234 01D1     		bne	.L54
 841              		.loc 1 90 0 discriminator 1
 842 0236 1323     		mov	r3, #19
 843 0238 E7E0     		b	.L35
 844              	.L54:
 845              		.loc 1 90 0 discriminator 2
 846 023a 3F4B     		ldr	r3, .L71
 847 023c 1A6D     		ldr	r2, [r3, #80]
 848 023e 3B68     		ldr	r3, [r7]
 849 0240 7968     		ldr	r1, [r7, #4]
 850 0242 081C     		mov	r0, r1
 851 0244 111C     		mov	r1, r2
 852 0246 1A1C     		mov	r2, r3
 853 0248 FFF7FEFF 		bl	strncmp
 854 024c 031C     		mov	r3, r0
 855 024e 002B     		cmp	r3, #0
 856 0250 01D1     		bne	.L55
 857              		.loc 1 90 0 discriminator 1
 858 0252 1423     		mov	r3, #20
 859 0254 D9E0     		b	.L35
 860              	.L55:
 861              		.loc 1 90 0 discriminator 2
 862 0256 384B     		ldr	r3, .L71
 863 0258 5A6D     		ldr	r2, [r3, #84]
 864 025a 3B68     		ldr	r3, [r7]
 865 025c 7968     		ldr	r1, [r7, #4]
 866 025e 081C     		mov	r0, r1
 867 0260 111C     		mov	r1, r2
 868 0262 1A1C     		mov	r2, r3
 869 0264 FFF7FEFF 		bl	strncmp
 870 0268 031C     		mov	r3, r0
 871 026a 002B     		cmp	r3, #0
 872 026c 01D1     		bne	.L56
 873              		.loc 1 90 0 discriminator 1
 874 026e 1523     		mov	r3, #21
 875 0270 CBE0     		b	.L35
 876              	.L56:
 877              		.loc 1 90 0 discriminator 2
 878 0272 314B     		ldr	r3, .L71
 879 0274 9A6D     		ldr	r2, [r3, #88]
 880 0276 3B68     		ldr	r3, [r7]
 881 0278 7968     		ldr	r1, [r7, #4]
 882 027a 081C     		mov	r0, r1
 883 027c 111C     		mov	r1, r2
 884 027e 1A1C     		mov	r2, r3
ARM GAS  C:\Users\SDEVAS~1\AppData\Local\Temp\cc8KFjZb.s 			page 20


 885 0280 FFF7FEFF 		bl	strncmp
 886 0284 031C     		mov	r3, r0
 887 0286 002B     		cmp	r3, #0
 888 0288 01D1     		bne	.L57
 889              		.loc 1 90 0 discriminator 1
 890 028a 1623     		mov	r3, #22
 891 028c BDE0     		b	.L35
 892              	.L57:
 893              		.loc 1 90 0 discriminator 2
 894 028e 2A4B     		ldr	r3, .L71
 895 0290 DA6D     		ldr	r2, [r3, #92]
 896 0292 3B68     		ldr	r3, [r7]
 897 0294 7968     		ldr	r1, [r7, #4]
 898 0296 081C     		mov	r0, r1
 899 0298 111C     		mov	r1, r2
 900 029a 1A1C     		mov	r2, r3
 901 029c FFF7FEFF 		bl	strncmp
 902 02a0 031C     		mov	r3, r0
 903 02a2 002B     		cmp	r3, #0
 904 02a4 01D1     		bne	.L58
 905              		.loc 1 90 0 discriminator 1
 906 02a6 1723     		mov	r3, #23
 907 02a8 AFE0     		b	.L35
 908              	.L58:
 909              		.loc 1 90 0 discriminator 2
 910 02aa 234B     		ldr	r3, .L71
 911 02ac 1A6E     		ldr	r2, [r3, #96]
 912 02ae 3B68     		ldr	r3, [r7]
 913 02b0 7968     		ldr	r1, [r7, #4]
 914 02b2 081C     		mov	r0, r1
 915 02b4 111C     		mov	r1, r2
 916 02b6 1A1C     		mov	r2, r3
 917 02b8 FFF7FEFF 		bl	strncmp
 918 02bc 031C     		mov	r3, r0
 919 02be 002B     		cmp	r3, #0
 920 02c0 01D1     		bne	.L59
 921              		.loc 1 90 0 discriminator 1
 922 02c2 1823     		mov	r3, #24
 923 02c4 A1E0     		b	.L35
 924              	.L59:
 925              		.loc 1 90 0 discriminator 2
 926 02c6 1C4B     		ldr	r3, .L71
 927 02c8 5A6E     		ldr	r2, [r3, #100]
 928 02ca 3B68     		ldr	r3, [r7]
 929 02cc 7968     		ldr	r1, [r7, #4]
 930 02ce 081C     		mov	r0, r1
 931 02d0 111C     		mov	r1, r2
 932 02d2 1A1C     		mov	r2, r3
 933 02d4 FFF7FEFF 		bl	strncmp
 934 02d8 031C     		mov	r3, r0
 935 02da 002B     		cmp	r3, #0
 936 02dc 01D1     		bne	.L60
 937              		.loc 1 90 0 discriminator 1
 938 02de 1923     		mov	r3, #25
 939 02e0 93E0     		b	.L35
 940              	.L60:
 941              		.loc 1 90 0 discriminator 2
ARM GAS  C:\Users\SDEVAS~1\AppData\Local\Temp\cc8KFjZb.s 			page 21


 942 02e2 154B     		ldr	r3, .L71
 943 02e4 9A6E     		ldr	r2, [r3, #104]
 944 02e6 3B68     		ldr	r3, [r7]
 945 02e8 7968     		ldr	r1, [r7, #4]
 946 02ea 081C     		mov	r0, r1
 947 02ec 111C     		mov	r1, r2
 948 02ee 1A1C     		mov	r2, r3
 949 02f0 FFF7FEFF 		bl	strncmp
 950 02f4 031C     		mov	r3, r0
 951 02f6 002B     		cmp	r3, #0
 952 02f8 01D1     		bne	.L61
 953              		.loc 1 90 0 discriminator 1
 954 02fa 1A23     		mov	r3, #26
 955 02fc 85E0     		b	.L35
 956              	.L61:
 957              		.loc 1 90 0 discriminator 2
 958 02fe 0E4B     		ldr	r3, .L71
 959 0300 DA6E     		ldr	r2, [r3, #108]
 960 0302 3B68     		ldr	r3, [r7]
 961 0304 7968     		ldr	r1, [r7, #4]
 962 0306 081C     		mov	r0, r1
 963 0308 111C     		mov	r1, r2
 964 030a 1A1C     		mov	r2, r3
 965 030c FFF7FEFF 		bl	strncmp
 966 0310 031C     		mov	r3, r0
 967 0312 002B     		cmp	r3, #0
 968 0314 01D1     		bne	.L62
 969              		.loc 1 90 0 discriminator 1
 970 0316 1B23     		mov	r3, #27
 971 0318 77E0     		b	.L35
 972              	.L62:
 973              		.loc 1 90 0 discriminator 2
 974 031a 074B     		ldr	r3, .L71
 975 031c 1A6F     		ldr	r2, [r3, #112]
 976 031e 3B68     		ldr	r3, [r7]
 977 0320 7968     		ldr	r1, [r7, #4]
 978 0322 081C     		mov	r0, r1
 979 0324 111C     		mov	r1, r2
 980 0326 1A1C     		mov	r2, r3
 981 0328 FFF7FEFF 		bl	strncmp
 982 032c 031C     		mov	r3, r0
 983 032e 002B     		cmp	r3, #0
 984 0330 04D1     		bne	.L63
 985              		.loc 1 90 0 discriminator 1
 986 0332 1C23     		mov	r3, #28
 987 0334 69E0     		b	.L35
 988              	.L72:
 989 0336 C046     		.align	2
 990              	.L71:
 991 0338 2C000000 		.word	atom_variables_id_strings
 992              	.L63:
 993              		.loc 1 90 0 discriminator 2
 994 033c 354B     		ldr	r3, .L73
 995 033e 5A6F     		ldr	r2, [r3, #116]
 996 0340 3B68     		ldr	r3, [r7]
 997 0342 7968     		ldr	r1, [r7, #4]
 998 0344 081C     		mov	r0, r1
ARM GAS  C:\Users\SDEVAS~1\AppData\Local\Temp\cc8KFjZb.s 			page 22


 999 0346 111C     		mov	r1, r2
 1000 0348 1A1C     		mov	r2, r3
 1001 034a FFF7FEFF 		bl	strncmp
 1002 034e 031C     		mov	r3, r0
 1003 0350 002B     		cmp	r3, #0
 1004 0352 01D1     		bne	.L64
 1005              		.loc 1 90 0 discriminator 1
 1006 0354 1D23     		mov	r3, #29
 1007 0356 58E0     		b	.L35
 1008              	.L64:
 1009              		.loc 1 90 0 discriminator 2
 1010 0358 2E4B     		ldr	r3, .L73
 1011 035a 9A6F     		ldr	r2, [r3, #120]
 1012 035c 3B68     		ldr	r3, [r7]
 1013 035e 7968     		ldr	r1, [r7, #4]
 1014 0360 081C     		mov	r0, r1
 1015 0362 111C     		mov	r1, r2
 1016 0364 1A1C     		mov	r2, r3
 1017 0366 FFF7FEFF 		bl	strncmp
 1018 036a 031C     		mov	r3, r0
 1019 036c 002B     		cmp	r3, #0
 1020 036e 01D1     		bne	.L65
 1021              		.loc 1 90 0 discriminator 1
 1022 0370 1E23     		mov	r3, #30
 1023 0372 4AE0     		b	.L35
 1024              	.L65:
 1025              		.loc 1 90 0 discriminator 2
 1026 0374 274B     		ldr	r3, .L73
 1027 0376 DA6F     		ldr	r2, [r3, #124]
 1028 0378 3B68     		ldr	r3, [r7]
 1029 037a 7968     		ldr	r1, [r7, #4]
 1030 037c 081C     		mov	r0, r1
 1031 037e 111C     		mov	r1, r2
 1032 0380 1A1C     		mov	r2, r3
 1033 0382 FFF7FEFF 		bl	strncmp
 1034 0386 031C     		mov	r3, r0
 1035 0388 002B     		cmp	r3, #0
 1036 038a 01D1     		bne	.L66
 1037              		.loc 1 90 0 discriminator 1
 1038 038c 1F23     		mov	r3, #31
 1039 038e 3CE0     		b	.L35
 1040              	.L66:
 1041              		.loc 1 90 0 discriminator 2
 1042 0390 204A     		ldr	r2, .L73
 1043 0392 8023     		mov	r3, #128
 1044 0394 D258     		ldr	r2, [r2, r3]
 1045 0396 3B68     		ldr	r3, [r7]
 1046 0398 7968     		ldr	r1, [r7, #4]
 1047 039a 081C     		mov	r0, r1
 1048 039c 111C     		mov	r1, r2
 1049 039e 1A1C     		mov	r2, r3
 1050 03a0 FFF7FEFF 		bl	strncmp
 1051 03a4 031C     		mov	r3, r0
 1052 03a6 002B     		cmp	r3, #0
 1053 03a8 01D1     		bne	.L67
 1054              		.loc 1 90 0 discriminator 1
 1055 03aa 2023     		mov	r3, #32
ARM GAS  C:\Users\SDEVAS~1\AppData\Local\Temp\cc8KFjZb.s 			page 23


 1056 03ac 2DE0     		b	.L35
 1057              	.L67:
 1058              		.loc 1 90 0 discriminator 2
 1059 03ae 194A     		ldr	r2, .L73
 1060 03b0 8423     		mov	r3, #132
 1061 03b2 D258     		ldr	r2, [r2, r3]
 1062 03b4 3B68     		ldr	r3, [r7]
 1063 03b6 7968     		ldr	r1, [r7, #4]
 1064 03b8 081C     		mov	r0, r1
 1065 03ba 111C     		mov	r1, r2
 1066 03bc 1A1C     		mov	r2, r3
 1067 03be FFF7FEFF 		bl	strncmp
 1068 03c2 031C     		mov	r3, r0
 1069 03c4 002B     		cmp	r3, #0
 1070 03c6 01D1     		bne	.L68
 1071              		.loc 1 90 0 discriminator 1
 1072 03c8 2123     		mov	r3, #33
 1073 03ca 1EE0     		b	.L35
 1074              	.L68:
 1075              		.loc 1 90 0 discriminator 2
 1076 03cc 114A     		ldr	r2, .L73
 1077 03ce 8823     		mov	r3, #136
 1078 03d0 D258     		ldr	r2, [r2, r3]
 1079 03d2 3B68     		ldr	r3, [r7]
 1080 03d4 7968     		ldr	r1, [r7, #4]
 1081 03d6 081C     		mov	r0, r1
 1082 03d8 111C     		mov	r1, r2
 1083 03da 1A1C     		mov	r2, r3
 1084 03dc FFF7FEFF 		bl	strncmp
 1085 03e0 031C     		mov	r3, r0
 1086 03e2 002B     		cmp	r3, #0
 1087 03e4 01D1     		bne	.L69
 1088              		.loc 1 90 0 discriminator 1
 1089 03e6 2223     		mov	r3, #34
 1090 03e8 0FE0     		b	.L35
 1091              	.L69:
 1092              		.loc 1 90 0 discriminator 2
 1093 03ea 0A4A     		ldr	r2, .L73
 1094 03ec 8C23     		mov	r3, #140
 1095 03ee D258     		ldr	r2, [r2, r3]
 1096 03f0 3B68     		ldr	r3, [r7]
 1097 03f2 7968     		ldr	r1, [r7, #4]
 1098 03f4 081C     		mov	r0, r1
 1099 03f6 111C     		mov	r1, r2
 1100 03f8 1A1C     		mov	r2, r3
 1101 03fa FFF7FEFF 		bl	strncmp
 1102 03fe 031C     		mov	r3, r0
 1103 0400 002B     		cmp	r3, #0
 1104 0402 01D1     		bne	.L70
 1105              		.loc 1 90 0 discriminator 1
 1106 0404 2323     		mov	r3, #35
 1107 0406 00E0     		b	.L35
 1108              	.L70:
  91:.\Generated_Source\PSoC4/comm.c **** #undef X
  92:.\Generated_Source\PSoC4/comm.c ****   return INVALID_ATOM_VARIABLE;
 1109              		.loc 1 92 0 is_stmt 1
 1110 0408 2523     		mov	r3, #37
ARM GAS  C:\Users\SDEVAS~1\AppData\Local\Temp\cc8KFjZb.s 			page 24


 1111              	.L35:
  93:.\Generated_Source\PSoC4/comm.c **** }
 1112              		.loc 1 93 0
 1113 040a 181C     		mov	r0, r3
 1114 040c BD46     		mov	sp, r7
 1115 040e 02B0     		add	sp, sp, #8
 1116              		@ sp needed
 1117 0410 80BD     		pop	{r7, pc}
 1118              	.L74:
 1119 0412 C046     		.align	2
 1120              	.L73:
 1121 0414 2C000000 		.word	atom_variables_id_strings
 1122              		.cfi_endproc
 1123              	.LFE35:
 1124              		.size	get_atom_variable_id_from_string, .-get_atom_variable_id_from_string
 1125              		.section	.rodata
 1126 026d 000000   		.align	2
 1127              	.LC55:
 1128 0270 53746172 		.ascii	"Start\000"
 1128      7400
 1129 0276 0000     		.align	2
 1130              	.LC56:
 1131 0278 54657374 		.ascii	"Test\000"
 1131      00
 1132 027d 000000   		.align	2
 1133              	.LC57:
 1134 0280 49646C65 		.ascii	"Idle\000"
 1134      00
 1135 0285 000000   		.align	2
 1136              	.LC58:
 1137 0288 53687574 		.ascii	"Shutdown\000"
 1137      646F776E 
 1137      00
 1138              		.data
 1139              		.align	2
 1140              		.type	atom_modes_strings, %object
 1141              		.size	atom_modes_strings, 16
 1142              	atom_modes_strings:
 1143 00bc 70020000 		.word	.LC55
 1144 00c0 78020000 		.word	.LC56
 1145 00c4 80020000 		.word	.LC57
 1146 00c8 88020000 		.word	.LC58
 1147              		.section	.text.get_atom_mode_from_string,"ax",%progbits
 1148              		.align	2
 1149              		.code	16
 1150              		.thumb_func
 1151              		.type	get_atom_mode_from_string, %function
 1152              	get_atom_mode_from_string:
 1153              	.LFB36:
  94:.\Generated_Source\PSoC4/comm.c **** 
  95:.\Generated_Source\PSoC4/comm.c **** #define X(name, vtype, jtype) \
  96:.\Generated_Source\PSoC4/comm.c **** extern void setvar_##name(vtype);\
  97:.\Generated_Source\PSoC4/comm.c **** extern vtype getvar_##name(void);
  98:.\Generated_Source\PSoC4/comm.c **** ATOM_VARIABLES
  99:.\Generated_Source\PSoC4/comm.c **** #undef X
 100:.\Generated_Source\PSoC4/comm.c **** /*
 101:.\Generated_Source\PSoC4/comm.c ****  * End of ATOM VARIABLES section
ARM GAS  C:\Users\SDEVAS~1\AppData\Local\Temp\cc8KFjZb.s 			page 25


 102:.\Generated_Source\PSoC4/comm.c ****  */
 103:.\Generated_Source\PSoC4/comm.c **** 
 104:.\Generated_Source\PSoC4/comm.c **** /*
 105:.\Generated_Source\PSoC4/comm.c ****  * ATOM MODES section
 106:.\Generated_Source\PSoC4/comm.c ****  */
 107:.\Generated_Source\PSoC4/comm.c **** static const char * atom_modes_strings[NUM_OF_ATOM_MODES] = {
 108:.\Generated_Source\PSoC4/comm.c **** #define X(mode) [ATOM_MODE_##mode] = #mode,
 109:.\Generated_Source\PSoC4/comm.c **** 	ATOM_MODES
 110:.\Generated_Source\PSoC4/comm.c **** #undef X
 111:.\Generated_Source\PSoC4/comm.c **** };
 112:.\Generated_Source\PSoC4/comm.c **** static atom_modes_t get_atom_mode_from_string(const char *str, int len) {
 1154              		.loc 1 112 0
 1155              		.cfi_startproc
 1156 0000 80B5     		push	{r7, lr}
 1157              		.cfi_def_cfa_offset 8
 1158              		.cfi_offset 7, -8
 1159              		.cfi_offset 14, -4
 1160 0002 82B0     		sub	sp, sp, #8
 1161              		.cfi_def_cfa_offset 16
 1162 0004 00AF     		add	r7, sp, #0
 1163              		.cfi_def_cfa_register 7
 1164 0006 7860     		str	r0, [r7, #4]
 1165 0008 3960     		str	r1, [r7]
 113:.\Generated_Source\PSoC4/comm.c **** #define X(mode) if(strncmp(str, atom_modes_strings[ATOM_MODE_##mode], len) == 0) return ATOM_MODE_#
 114:.\Generated_Source\PSoC4/comm.c **** 	ATOM_MODES
 1166              		.loc 1 114 0
 1167 000a 1E4B     		ldr	r3, .L81
 1168 000c 1A68     		ldr	r2, [r3]
 1169 000e 3B68     		ldr	r3, [r7]
 1170 0010 7968     		ldr	r1, [r7, #4]
 1171 0012 081C     		mov	r0, r1
 1172 0014 111C     		mov	r1, r2
 1173 0016 1A1C     		mov	r2, r3
 1174 0018 FFF7FEFF 		bl	strncmp
 1175 001c 031C     		mov	r3, r0
 1176 001e 002B     		cmp	r3, #0
 1177 0020 01D1     		bne	.L76
 1178              		.loc 1 114 0 is_stmt 0 discriminator 1
 1179 0022 0023     		mov	r3, #0
 1180 0024 2AE0     		b	.L77
 1181              	.L76:
 1182              		.loc 1 114 0 discriminator 2
 1183 0026 174B     		ldr	r3, .L81
 1184 0028 5A68     		ldr	r2, [r3, #4]
 1185 002a 3B68     		ldr	r3, [r7]
 1186 002c 7968     		ldr	r1, [r7, #4]
 1187 002e 081C     		mov	r0, r1
 1188 0030 111C     		mov	r1, r2
 1189 0032 1A1C     		mov	r2, r3
 1190 0034 FFF7FEFF 		bl	strncmp
 1191 0038 031C     		mov	r3, r0
 1192 003a 002B     		cmp	r3, #0
 1193 003c 01D1     		bne	.L78
 1194              		.loc 1 114 0 discriminator 1
 1195 003e 0123     		mov	r3, #1
 1196 0040 1CE0     		b	.L77
 1197              	.L78:
ARM GAS  C:\Users\SDEVAS~1\AppData\Local\Temp\cc8KFjZb.s 			page 26


 1198              		.loc 1 114 0 discriminator 2
 1199 0042 104B     		ldr	r3, .L81
 1200 0044 9A68     		ldr	r2, [r3, #8]
 1201 0046 3B68     		ldr	r3, [r7]
 1202 0048 7968     		ldr	r1, [r7, #4]
 1203 004a 081C     		mov	r0, r1
 1204 004c 111C     		mov	r1, r2
 1205 004e 1A1C     		mov	r2, r3
 1206 0050 FFF7FEFF 		bl	strncmp
 1207 0054 031C     		mov	r3, r0
 1208 0056 002B     		cmp	r3, #0
 1209 0058 01D1     		bne	.L79
 1210              		.loc 1 114 0 discriminator 1
 1211 005a 0223     		mov	r3, #2
 1212 005c 0EE0     		b	.L77
 1213              	.L79:
 1214              		.loc 1 114 0 discriminator 2
 1215 005e 094B     		ldr	r3, .L81
 1216 0060 DA68     		ldr	r2, [r3, #12]
 1217 0062 3B68     		ldr	r3, [r7]
 1218 0064 7968     		ldr	r1, [r7, #4]
 1219 0066 081C     		mov	r0, r1
 1220 0068 111C     		mov	r1, r2
 1221 006a 1A1C     		mov	r2, r3
 1222 006c FFF7FEFF 		bl	strncmp
 1223 0070 031C     		mov	r3, r0
 1224 0072 002B     		cmp	r3, #0
 1225 0074 01D1     		bne	.L80
 1226              		.loc 1 114 0 discriminator 1
 1227 0076 0323     		mov	r3, #3
 1228 0078 00E0     		b	.L77
 1229              	.L80:
 115:.\Generated_Source\PSoC4/comm.c **** #undef X
 116:.\Generated_Source\PSoC4/comm.c **** 	return INVALID_ATOM_MODE;
 1230              		.loc 1 116 0 is_stmt 1
 1231 007a 0523     		mov	r3, #5
 1232              	.L77:
 117:.\Generated_Source\PSoC4/comm.c **** }
 1233              		.loc 1 117 0
 1234 007c 181C     		mov	r0, r3
 1235 007e BD46     		mov	sp, r7
 1236 0080 02B0     		add	sp, sp, #8
 1237              		@ sp needed
 1238 0082 80BD     		pop	{r7, pc}
 1239              	.L82:
 1240              		.align	2
 1241              	.L81:
 1242 0084 BC000000 		.word	atom_modes_strings
 1243              		.cfi_endproc
 1244              	.LFE36:
 1245              		.size	get_atom_mode_from_string, .-get_atom_mode_from_string
 1246              		.section	.text.compKey,"ax",%progbits
 1247              		.align	2
 1248              		.code	16
 1249              		.thumb_func
 1250              		.type	compKey, %function
 1251              	compKey:
ARM GAS  C:\Users\SDEVAS~1\AppData\Local\Temp\cc8KFjZb.s 			page 27


 1252              	.LFB37:
 118:.\Generated_Source\PSoC4/comm.c **** 
 119:.\Generated_Source\PSoC4/comm.c **** /*
 120:.\Generated_Source\PSoC4/comm.c ****  * END OF ATOM MODES
 121:.\Generated_Source\PSoC4/comm.c ****  */
 122:.\Generated_Source\PSoC4/comm.c **** 
 123:.\Generated_Source\PSoC4/comm.c **** //JSON/JSMN helpers
 124:.\Generated_Source\PSoC4/comm.c **** static int compKey(const char *json, jsmntok_t *t, const char *key) {
 1253              		.loc 1 124 0
 1254              		.cfi_startproc
 1255 0000 80B5     		push	{r7, lr}
 1256              		.cfi_def_cfa_offset 8
 1257              		.cfi_offset 7, -8
 1258              		.cfi_offset 14, -4
 1259 0002 84B0     		sub	sp, sp, #16
 1260              		.cfi_def_cfa_offset 24
 1261 0004 00AF     		add	r7, sp, #0
 1262              		.cfi_def_cfa_register 7
 1263 0006 F860     		str	r0, [r7, #12]
 1264 0008 B960     		str	r1, [r7, #8]
 1265 000a 7A60     		str	r2, [r7, #4]
 125:.\Generated_Source\PSoC4/comm.c ****   if(t->type == JSMN_STRING && strncmp(json + t->start, key, t->end - t->start) == 0) {
 1266              		.loc 1 125 0
 1267 000c BB68     		ldr	r3, [r7, #8]
 1268 000e 1B78     		ldrb	r3, [r3]
 1269 0010 032B     		cmp	r3, #3
 1270 0012 13D1     		bne	.L84
 1271              		.loc 1 125 0 is_stmt 0 discriminator 1
 1272 0014 BB68     		ldr	r3, [r7, #8]
 1273 0016 5B68     		ldr	r3, [r3, #4]
 1274 0018 FA68     		ldr	r2, [r7, #12]
 1275 001a D118     		add	r1, r2, r3
 1276 001c BB68     		ldr	r3, [r7, #8]
 1277 001e 9A68     		ldr	r2, [r3, #8]
 1278 0020 BB68     		ldr	r3, [r7, #8]
 1279 0022 5B68     		ldr	r3, [r3, #4]
 1280 0024 D31A     		sub	r3, r2, r3
 1281 0026 7A68     		ldr	r2, [r7, #4]
 1282 0028 081C     		mov	r0, r1
 1283 002a 111C     		mov	r1, r2
 1284 002c 1A1C     		mov	r2, r3
 1285 002e FFF7FEFF 		bl	strncmp
 1286 0032 031C     		mov	r3, r0
 1287 0034 002B     		cmp	r3, #0
 1288 0036 01D1     		bne	.L84
 126:.\Generated_Source\PSoC4/comm.c ****     return 0;
 1289              		.loc 1 126 0 is_stmt 1
 1290 0038 0023     		mov	r3, #0
 1291 003a 01E0     		b	.L85
 1292              	.L84:
 127:.\Generated_Source\PSoC4/comm.c ****   }
 128:.\Generated_Source\PSoC4/comm.c ****   return -1;
 1293              		.loc 1 128 0
 1294 003c 0123     		mov	r3, #1
 1295 003e 5B42     		neg	r3, r3
 1296              	.L85:
 129:.\Generated_Source\PSoC4/comm.c **** }
ARM GAS  C:\Users\SDEVAS~1\AppData\Local\Temp\cc8KFjZb.s 			page 28


 1297              		.loc 1 129 0
 1298 0040 181C     		mov	r0, r3
 1299 0042 BD46     		mov	sp, r7
 1300 0044 04B0     		add	sp, sp, #16
 1301              		@ sp needed
 1302 0046 80BD     		pop	{r7, pc}
 1303              		.cfi_endproc
 1304              	.LFE37:
 1305              		.size	compKey, .-compKey
 1306              		.section	.text.skipToNextTokenInLevel,"ax",%progbits
 1307              		.align	2
 1308              		.code	16
 1309              		.thumb_func
 1310              		.type	skipToNextTokenInLevel, %function
 1311              	skipToNextTokenInLevel:
 1312              	.LFB38:
 130:.\Generated_Source\PSoC4/comm.c **** static int skipToNextTokenInLevel(jsmntok_t *tokens, int current) {
 1313              		.loc 1 130 0
 1314              		.cfi_startproc
 1315 0000 80B5     		push	{r7, lr}
 1316              		.cfi_def_cfa_offset 8
 1317              		.cfi_offset 7, -8
 1318              		.cfi_offset 14, -4
 1319 0002 84B0     		sub	sp, sp, #16
 1320              		.cfi_def_cfa_offset 24
 1321 0004 00AF     		add	r7, sp, #0
 1322              		.cfi_def_cfa_register 7
 1323 0006 7860     		str	r0, [r7, #4]
 1324 0008 3960     		str	r1, [r7]
 131:.\Generated_Source\PSoC4/comm.c ****   if(tokens[current].type == JSMN_OBJECT ||
 1325              		.loc 1 131 0
 1326 000a 3B68     		ldr	r3, [r7]
 1327 000c 1B01     		lsl	r3, r3, #4
 1328 000e 7A68     		ldr	r2, [r7, #4]
 1329 0010 D318     		add	r3, r2, r3
 1330 0012 1B78     		ldrb	r3, [r3]
 1331 0014 012B     		cmp	r3, #1
 1332 0016 06D0     		beq	.L87
 132:.\Generated_Source\PSoC4/comm.c ****      tokens[current].type == JSMN_ARRAY) {
 1333              		.loc 1 132 0 discriminator 1
 1334 0018 3B68     		ldr	r3, [r7]
 1335 001a 1B01     		lsl	r3, r3, #4
 1336 001c 7A68     		ldr	r2, [r7, #4]
 1337 001e D318     		add	r3, r2, r3
 1338 0020 1B78     		ldrb	r3, [r3]
 131:.\Generated_Source\PSoC4/comm.c ****   if(tokens[current].type == JSMN_OBJECT ||
 1339              		.loc 1 131 0 discriminator 1
 1340 0022 022B     		cmp	r3, #2
 1341 0024 11D1     		bne	.L88
 1342              	.L87:
 1343              	.LBB2:
 133:.\Generated_Source\PSoC4/comm.c ****     int expectedEnd = tokens[current].end;
 1344              		.loc 1 133 0
 1345 0026 3B68     		ldr	r3, [r7]
 1346 0028 1B01     		lsl	r3, r3, #4
 1347 002a 7A68     		ldr	r2, [r7, #4]
 1348 002c D318     		add	r3, r2, r3
ARM GAS  C:\Users\SDEVAS~1\AppData\Local\Temp\cc8KFjZb.s 			page 29


 1349 002e 9B68     		ldr	r3, [r3, #8]
 1350 0030 FB60     		str	r3, [r7, #12]
 1351              	.L89:
 134:.\Generated_Source\PSoC4/comm.c ****     while(expectedEnd > tokens[++current].start);
 1352              		.loc 1 134 0 discriminator 1
 1353 0032 3B68     		ldr	r3, [r7]
 1354 0034 0133     		add	r3, r3, #1
 1355 0036 3B60     		str	r3, [r7]
 1356 0038 3B68     		ldr	r3, [r7]
 1357 003a 1B01     		lsl	r3, r3, #4
 1358 003c 7A68     		ldr	r2, [r7, #4]
 1359 003e D318     		add	r3, r2, r3
 1360 0040 5A68     		ldr	r2, [r3, #4]
 1361 0042 FB68     		ldr	r3, [r7, #12]
 1362 0044 9A42     		cmp	r2, r3
 1363 0046 F4DB     		blt	.L89
 1364              	.LBE2:
 132:.\Generated_Source\PSoC4/comm.c ****      tokens[current].type == JSMN_ARRAY) {
 1365              		.loc 1 132 0
 1366 0048 02E0     		b	.L90
 1367              	.L88:
 135:.\Generated_Source\PSoC4/comm.c ****   } else {
 136:.\Generated_Source\PSoC4/comm.c ****     //normal, just skip token
 137:.\Generated_Source\PSoC4/comm.c ****     current++;
 1368              		.loc 1 137 0
 1369 004a 3B68     		ldr	r3, [r7]
 1370 004c 0133     		add	r3, r3, #1
 1371 004e 3B60     		str	r3, [r7]
 1372              	.L90:
 138:.\Generated_Source\PSoC4/comm.c ****   }
 139:.\Generated_Source\PSoC4/comm.c ****   return current;
 1373              		.loc 1 139 0
 1374 0050 3B68     		ldr	r3, [r7]
 140:.\Generated_Source\PSoC4/comm.c **** }
 1375              		.loc 1 140 0
 1376 0052 181C     		mov	r0, r3
 1377 0054 BD46     		mov	sp, r7
 1378 0056 04B0     		add	sp, sp, #16
 1379              		@ sp needed
 1380 0058 80BD     		pop	{r7, pc}
 1381              		.cfi_endproc
 1382              	.LFE38:
 1383              		.size	skipToNextTokenInLevel, .-skipToNextTokenInLevel
 1384 005a C046     		.section	.rodata
 1385 0291 000000   		.align	2
 1386              	.LC63:
 1387 0294 7B226465 		.ascii	"{\"destination\":\000"
 1387      7374696E 
 1387      6174696F 
 1387      6E223A00 
 1388              		.align	2
 1389              	.LC65:
 1390 02a4 2C22736F 		.ascii	",\"source\":\000"
 1390      75726365 
 1390      223A00
 1391 02af 00       		.align	2
 1392              	.LC67:
ARM GAS  C:\Users\SDEVAS~1\AppData\Local\Temp\cc8KFjZb.s 			page 30


 1393 02b0 2C226F72 		.ascii	",\"order\":\"\000"
 1393      64657222 
 1393      3A2200
 1394              		.section	.text.resp_GenDestSrcOrder,"ax",%progbits
 1395              		.align	2
 1396              		.code	16
 1397              		.thumb_func
 1398              		.type	resp_GenDestSrcOrder, %function
 1399              	resp_GenDestSrcOrder:
 1400              	.LFB39:
 141:.\Generated_Source\PSoC4/comm.c **** 
 142:.\Generated_Source\PSoC4/comm.c **** // Functions for JSON protocol creating
 143:.\Generated_Source\PSoC4/comm.c **** static inline void resp_GenDestSrcOrder(
 144:.\Generated_Source\PSoC4/comm.c ****   const char *dest, int destLen,
 145:.\Generated_Source\PSoC4/comm.c ****   const char *src, int srcLen,
 146:.\Generated_Source\PSoC4/comm.c ****   const char *order, int orderLen) {
 1401              		.loc 1 146 0
 1402              		.cfi_startproc
 1403 0000 80B5     		push	{r7, lr}
 1404              		.cfi_def_cfa_offset 8
 1405              		.cfi_offset 7, -8
 1406              		.cfi_offset 14, -4
 1407 0002 84B0     		sub	sp, sp, #16
 1408              		.cfi_def_cfa_offset 24
 1409 0004 00AF     		add	r7, sp, #0
 1410              		.cfi_def_cfa_register 7
 1411 0006 F860     		str	r0, [r7, #12]
 1412 0008 B960     		str	r1, [r7, #8]
 1413 000a 7A60     		str	r2, [r7, #4]
 1414 000c 3B60     		str	r3, [r7]
 147:.\Generated_Source\PSoC4/comm.c **** 
 148:.\Generated_Source\PSoC4/comm.c ****   respEnd = respBuff;
 1415              		.loc 1 148 0
 1416 000e 484B     		ldr	r3, .L93
 1417 0010 484A     		ldr	r2, .L93+4
 1418 0012 1A60     		str	r2, [r3]
 149:.\Generated_Source\PSoC4/comm.c ****   respFreeSpace = RESP_BUFF_LEN;
 1419              		.loc 1 149 0
 1420 0014 484B     		ldr	r3, .L93+8
 1421 0016 9622     		mov	r2, #150
 1422 0018 5200     		lsl	r2, r2, #1
 1423 001a 1A60     		str	r2, [r3]
 150:.\Generated_Source\PSoC4/comm.c **** 
 151:.\Generated_Source\PSoC4/comm.c ****   ADD_STATIC_STRING_TO_RESP("{\"destination\":");
 1424              		.loc 1 151 0
 1425 001c 444B     		ldr	r3, .L93
 1426 001e 1A68     		ldr	r2, [r3]
 1427 0020 464B     		ldr	r3, .L93+12
 1428 0022 101C     		mov	r0, r2
 1429 0024 191C     		mov	r1, r3
 1430 0026 1022     		mov	r2, #16
 1431 0028 FFF7FEFF 		bl	memcpy
 1432 002c 404B     		ldr	r3, .L93
 1433 002e 1B68     		ldr	r3, [r3]
 1434 0030 1A1C     		mov	r2, r3
 1435 0032 0F32     		add	r2, r2, #15
 1436 0034 3E4B     		ldr	r3, .L93
ARM GAS  C:\Users\SDEVAS~1\AppData\Local\Temp\cc8KFjZb.s 			page 31


 1437 0036 1A60     		str	r2, [r3]
 1438 0038 3F4B     		ldr	r3, .L93+8
 1439 003a 1B68     		ldr	r3, [r3]
 1440 003c 0F3B     		sub	r3, r3, #15
 1441 003e 1A1C     		mov	r2, r3
 1442 0040 3D4B     		ldr	r3, .L93+8
 1443 0042 1A60     		str	r2, [r3]
 152:.\Generated_Source\PSoC4/comm.c **** 
 153:.\Generated_Source\PSoC4/comm.c ****   memcpy(respEnd, dest, destLen);
 1444              		.loc 1 153 0
 1445 0044 3A4B     		ldr	r3, .L93
 1446 0046 1968     		ldr	r1, [r3]
 1447 0048 BB68     		ldr	r3, [r7, #8]
 1448 004a FA68     		ldr	r2, [r7, #12]
 1449 004c 081C     		mov	r0, r1
 1450 004e 111C     		mov	r1, r2
 1451 0050 1A1C     		mov	r2, r3
 1452 0052 FFF7FEFF 		bl	memcpy
 154:.\Generated_Source\PSoC4/comm.c ****   respEnd += destLen;
 1453              		.loc 1 154 0
 1454 0056 364B     		ldr	r3, .L93
 1455 0058 1A68     		ldr	r2, [r3]
 1456 005a BB68     		ldr	r3, [r7, #8]
 1457 005c D218     		add	r2, r2, r3
 1458 005e 344B     		ldr	r3, .L93
 1459 0060 1A60     		str	r2, [r3]
 155:.\Generated_Source\PSoC4/comm.c ****   respFreeSpace -= destLen;
 1460              		.loc 1 155 0
 1461 0062 354B     		ldr	r3, .L93+8
 1462 0064 1A68     		ldr	r2, [r3]
 1463 0066 BB68     		ldr	r3, [r7, #8]
 1464 0068 D21A     		sub	r2, r2, r3
 1465 006a 334B     		ldr	r3, .L93+8
 1466 006c 1A60     		str	r2, [r3]
 156:.\Generated_Source\PSoC4/comm.c **** 
 157:.\Generated_Source\PSoC4/comm.c ****   ADD_STATIC_STRING_TO_RESP(",\"source\":");
 1467              		.loc 1 157 0
 1468 006e 304B     		ldr	r3, .L93
 1469 0070 1A68     		ldr	r2, [r3]
 1470 0072 334B     		ldr	r3, .L93+16
 1471 0074 101C     		mov	r0, r2
 1472 0076 191C     		mov	r1, r3
 1473 0078 0B22     		mov	r2, #11
 1474 007a FFF7FEFF 		bl	memcpy
 1475 007e 2C4B     		ldr	r3, .L93
 1476 0080 1B68     		ldr	r3, [r3]
 1477 0082 1A1C     		mov	r2, r3
 1478 0084 0A32     		add	r2, r2, #10
 1479 0086 2A4B     		ldr	r3, .L93
 1480 0088 1A60     		str	r2, [r3]
 1481 008a 2B4B     		ldr	r3, .L93+8
 1482 008c 1B68     		ldr	r3, [r3]
 1483 008e 0A3B     		sub	r3, r3, #10
 1484 0090 1A1C     		mov	r2, r3
 1485 0092 294B     		ldr	r3, .L93+8
 1486 0094 1A60     		str	r2, [r3]
 158:.\Generated_Source\PSoC4/comm.c **** 
ARM GAS  C:\Users\SDEVAS~1\AppData\Local\Temp\cc8KFjZb.s 			page 32


 159:.\Generated_Source\PSoC4/comm.c ****   memcpy(respEnd, src, srcLen);
 1487              		.loc 1 159 0
 1488 0096 264B     		ldr	r3, .L93
 1489 0098 1968     		ldr	r1, [r3]
 1490 009a 3B68     		ldr	r3, [r7]
 1491 009c 7A68     		ldr	r2, [r7, #4]
 1492 009e 081C     		mov	r0, r1
 1493 00a0 111C     		mov	r1, r2
 1494 00a2 1A1C     		mov	r2, r3
 1495 00a4 FFF7FEFF 		bl	memcpy
 160:.\Generated_Source\PSoC4/comm.c ****   respEnd += srcLen;
 1496              		.loc 1 160 0
 1497 00a8 214B     		ldr	r3, .L93
 1498 00aa 1A68     		ldr	r2, [r3]
 1499 00ac 3B68     		ldr	r3, [r7]
 1500 00ae D218     		add	r2, r2, r3
 1501 00b0 1F4B     		ldr	r3, .L93
 1502 00b2 1A60     		str	r2, [r3]
 161:.\Generated_Source\PSoC4/comm.c ****   respFreeSpace -= srcLen;
 1503              		.loc 1 161 0
 1504 00b4 204B     		ldr	r3, .L93+8
 1505 00b6 1A68     		ldr	r2, [r3]
 1506 00b8 3B68     		ldr	r3, [r7]
 1507 00ba D21A     		sub	r2, r2, r3
 1508 00bc 1E4B     		ldr	r3, .L93+8
 1509 00be 1A60     		str	r2, [r3]
 162:.\Generated_Source\PSoC4/comm.c **** 
 163:.\Generated_Source\PSoC4/comm.c ****   // memcpy(respEnd, ",\"source\":" ATOM_SOURCE_FIELD, sizeof(",\"source\":" ATOM_SOURCE_FIELD));
 164:.\Generated_Source\PSoC4/comm.c ****   // respEnd += sizeof(",\"source\":" ATOM_SOURCE_FIELD) -1;
 165:.\Generated_Source\PSoC4/comm.c ****   // respFreeSpace -= sizeof(",\"source\":" ATOM_SOURCE_FIELD) -1;
 166:.\Generated_Source\PSoC4/comm.c **** 
 167:.\Generated_Source\PSoC4/comm.c ****   ADD_STATIC_STRING_TO_RESP(",\"order\":\"");
 1510              		.loc 1 167 0
 1511 00c0 1B4B     		ldr	r3, .L93
 1512 00c2 1A68     		ldr	r2, [r3]
 1513 00c4 1F4B     		ldr	r3, .L93+20
 1514 00c6 101C     		mov	r0, r2
 1515 00c8 191C     		mov	r1, r3
 1516 00ca 0B22     		mov	r2, #11
 1517 00cc FFF7FEFF 		bl	memcpy
 1518 00d0 174B     		ldr	r3, .L93
 1519 00d2 1B68     		ldr	r3, [r3]
 1520 00d4 1A1C     		mov	r2, r3
 1521 00d6 0A32     		add	r2, r2, #10
 1522 00d8 154B     		ldr	r3, .L93
 1523 00da 1A60     		str	r2, [r3]
 1524 00dc 164B     		ldr	r3, .L93+8
 1525 00de 1B68     		ldr	r3, [r3]
 1526 00e0 0A3B     		sub	r3, r3, #10
 1527 00e2 1A1C     		mov	r2, r3
 1528 00e4 144B     		ldr	r3, .L93+8
 1529 00e6 1A60     		str	r2, [r3]
 168:.\Generated_Source\PSoC4/comm.c **** 
 169:.\Generated_Source\PSoC4/comm.c ****   memcpy(respEnd, order, orderLen);
 1530              		.loc 1 169 0
 1531 00e8 114B     		ldr	r3, .L93
 1532 00ea 1968     		ldr	r1, [r3]
ARM GAS  C:\Users\SDEVAS~1\AppData\Local\Temp\cc8KFjZb.s 			page 33


 1533 00ec FB69     		ldr	r3, [r7, #28]
 1534 00ee BA69     		ldr	r2, [r7, #24]
 1535 00f0 081C     		mov	r0, r1
 1536 00f2 111C     		mov	r1, r2
 1537 00f4 1A1C     		mov	r2, r3
 1538 00f6 FFF7FEFF 		bl	memcpy
 170:.\Generated_Source\PSoC4/comm.c ****   respEnd += orderLen;
 1539              		.loc 1 170 0
 1540 00fa 0D4B     		ldr	r3, .L93
 1541 00fc 1A68     		ldr	r2, [r3]
 1542 00fe FB69     		ldr	r3, [r7, #28]
 1543 0100 D218     		add	r2, r2, r3
 1544 0102 0B4B     		ldr	r3, .L93
 1545 0104 1A60     		str	r2, [r3]
 171:.\Generated_Source\PSoC4/comm.c ****   respFreeSpace -= orderLen;
 1546              		.loc 1 171 0
 1547 0106 0C4B     		ldr	r3, .L93+8
 1548 0108 1A68     		ldr	r2, [r3]
 1549 010a FB69     		ldr	r3, [r7, #28]
 1550 010c D21A     		sub	r2, r2, r3
 1551 010e 0A4B     		ldr	r3, .L93+8
 1552 0110 1A60     		str	r2, [r3]
 172:.\Generated_Source\PSoC4/comm.c **** 
 173:.\Generated_Source\PSoC4/comm.c ****   ADD_CHAR_TO_RESP('\"');
 1553              		.loc 1 173 0
 1554 0112 074B     		ldr	r3, .L93
 1555 0114 1B68     		ldr	r3, [r3]
 1556 0116 591C     		add	r1, r3, #1
 1557 0118 054A     		ldr	r2, .L93
 1558 011a 1160     		str	r1, [r2]
 1559 011c 2222     		mov	r2, #34
 1560 011e 1A70     		strb	r2, [r3]
 1561 0120 054B     		ldr	r3, .L93+8
 1562 0122 1B68     		ldr	r3, [r3]
 1563 0124 5A1E     		sub	r2, r3, #1
 1564 0126 044B     		ldr	r3, .L93+8
 1565 0128 1A60     		str	r2, [r3]
 174:.\Generated_Source\PSoC4/comm.c **** }
 1566              		.loc 1 174 0
 1567 012a BD46     		mov	sp, r7
 1568 012c 04B0     		add	sp, sp, #16
 1569              		@ sp needed
 1570 012e 80BD     		pop	{r7, pc}
 1571              	.L94:
 1572              		.align	2
 1573              	.L93:
 1574 0130 00000000 		.word	respEnd
 1575 0134 00000000 		.word	respBuff
 1576 0138 00000000 		.word	respFreeSpace
 1577 013c 94020000 		.word	.LC63
 1578 0140 A4020000 		.word	.LC65
 1579 0144 B0020000 		.word	.LC67
 1580              		.cfi_endproc
 1581              	.LFE39:
 1582              		.size	resp_GenDestSrcOrder, .-resp_GenDestSrcOrder
 1583              		.section	.rodata
 1584 02bb 00       		.align	2
ARM GAS  C:\Users\SDEVAS~1\AppData\Local\Temp\cc8KFjZb.s 			page 34


 1585              	.LC70:
 1586 02bc 2C22666C 		.ascii	",\"flags\":\"\000"
 1586      61677322 
 1586      3A2200
 1587              		.section	.text.resp_AddFlags,"ax",%progbits
 1588              		.align	2
 1589              		.global	resp_AddFlags
 1590              		.code	16
 1591              		.thumb_func
 1592              		.type	resp_AddFlags, %function
 1593              	resp_AddFlags:
 1594              	.LFB40:
 175:.\Generated_Source\PSoC4/comm.c **** 
 176:.\Generated_Source\PSoC4/comm.c **** void resp_AddFlags(comm_flags_t flag) {
 1595              		.loc 1 176 0
 1596              		.cfi_startproc
 1597 0000 80B5     		push	{r7, lr}
 1598              		.cfi_def_cfa_offset 8
 1599              		.cfi_offset 7, -8
 1600              		.cfi_offset 14, -4
 1601 0002 84B0     		sub	sp, sp, #16
 1602              		.cfi_def_cfa_offset 24
 1603 0004 00AF     		add	r7, sp, #0
 1604              		.cfi_def_cfa_register 7
 1605 0006 021C     		mov	r2, r0
 1606 0008 FB1D     		add	r3, r7, #7
 1607 000a 1A70     		strb	r2, [r3]
 177:.\Generated_Source\PSoC4/comm.c ****   ADD_STATIC_STRING_TO_RESP(",\"flags\":\"");
 1608              		.loc 1 177 0
 1609 000c 1D4B     		ldr	r3, .L96
 1610 000e 1A68     		ldr	r2, [r3]
 1611 0010 1D4B     		ldr	r3, .L96+4
 1612 0012 101C     		mov	r0, r2
 1613 0014 191C     		mov	r1, r3
 1614 0016 0B22     		mov	r2, #11
 1615 0018 FFF7FEFF 		bl	memcpy
 1616 001c 194B     		ldr	r3, .L96
 1617 001e 1B68     		ldr	r3, [r3]
 1618 0020 1A1C     		mov	r2, r3
 1619 0022 0A32     		add	r2, r2, #10
 1620 0024 174B     		ldr	r3, .L96
 1621 0026 1A60     		str	r2, [r3]
 1622 0028 184B     		ldr	r3, .L96+8
 1623 002a 1B68     		ldr	r3, [r3]
 1624 002c 0A3B     		sub	r3, r3, #10
 1625 002e 1A1C     		mov	r2, r3
 1626 0030 164B     		ldr	r3, .L96+8
 1627 0032 1A60     		str	r2, [r3]
 178:.\Generated_Source\PSoC4/comm.c **** 
 179:.\Generated_Source\PSoC4/comm.c ****   int r = flag2str(respEnd, respFreeSpace, flag);
 1628              		.loc 1 179 0
 1629 0034 134B     		ldr	r3, .L96
 1630 0036 1968     		ldr	r1, [r3]
 1631 0038 144B     		ldr	r3, .L96+8
 1632 003a 1A68     		ldr	r2, [r3]
 1633 003c FB1D     		add	r3, r7, #7
 1634 003e 1B78     		ldrb	r3, [r3]
ARM GAS  C:\Users\SDEVAS~1\AppData\Local\Temp\cc8KFjZb.s 			page 35


 1635 0040 081C     		mov	r0, r1
 1636 0042 111C     		mov	r1, r2
 1637 0044 1A1C     		mov	r2, r3
 1638 0046 FFF7FEFF 		bl	flag2str
 1639 004a 031C     		mov	r3, r0
 1640 004c FB60     		str	r3, [r7, #12]
 180:.\Generated_Source\PSoC4/comm.c ****   respEnd += r;
 1641              		.loc 1 180 0
 1642 004e 0D4B     		ldr	r3, .L96
 1643 0050 1A68     		ldr	r2, [r3]
 1644 0052 FB68     		ldr	r3, [r7, #12]
 1645 0054 D218     		add	r2, r2, r3
 1646 0056 0B4B     		ldr	r3, .L96
 1647 0058 1A60     		str	r2, [r3]
 181:.\Generated_Source\PSoC4/comm.c ****   respFreeSpace -= r;
 1648              		.loc 1 181 0
 1649 005a 0C4B     		ldr	r3, .L96+8
 1650 005c 1A68     		ldr	r2, [r3]
 1651 005e FB68     		ldr	r3, [r7, #12]
 1652 0060 D21A     		sub	r2, r2, r3
 1653 0062 0A4B     		ldr	r3, .L96+8
 1654 0064 1A60     		str	r2, [r3]
 182:.\Generated_Source\PSoC4/comm.c **** 
 183:.\Generated_Source\PSoC4/comm.c ****   ADD_CHAR_TO_RESP('\"');
 1655              		.loc 1 183 0
 1656 0066 074B     		ldr	r3, .L96
 1657 0068 1B68     		ldr	r3, [r3]
 1658 006a 591C     		add	r1, r3, #1
 1659 006c 054A     		ldr	r2, .L96
 1660 006e 1160     		str	r1, [r2]
 1661 0070 2222     		mov	r2, #34
 1662 0072 1A70     		strb	r2, [r3]
 1663 0074 054B     		ldr	r3, .L96+8
 1664 0076 1B68     		ldr	r3, [r3]
 1665 0078 5A1E     		sub	r2, r3, #1
 1666 007a 044B     		ldr	r3, .L96+8
 1667 007c 1A60     		str	r2, [r3]
 184:.\Generated_Source\PSoC4/comm.c **** }
 1668              		.loc 1 184 0
 1669 007e BD46     		mov	sp, r7
 1670 0080 04B0     		add	sp, sp, #16
 1671              		@ sp needed
 1672 0082 80BD     		pop	{r7, pc}
 1673              	.L97:
 1674              		.align	2
 1675              	.L96:
 1676 0084 00000000 		.word	respEnd
 1677 0088 BC020000 		.word	.LC70
 1678 008c 00000000 		.word	respFreeSpace
 1679              		.cfi_endproc
 1680              	.LFE40:
 1681              		.size	resp_AddFlags, .-resp_AddFlags
 1682              		.bss
 1683              	flags:
 1684 0000 00       		.space	1
 1685 0001 000000   		.align	2
 1686              	order:
ARM GAS  C:\Users\SDEVAS~1\AppData\Local\Temp\cc8KFjZb.s 			page 36


 1687 0004 00000000 		.space	4
 1688              		.align	2
 1689              	orderLen:
 1690 0008 00000000 		.space	4
 1691              		.align	2
 1692              	payload:
 1693 000c 00000000 		.space	4
 1694              		.align	2
 1695              	payloadLen:
 1696 0010 00000000 		.space	4
 1697              		.align	2
 1698              	msgSource:
 1699 0014 00000000 		.space	4
 1700              		.align	2
 1701              	msgSourceLen:
 1702 0018 00000000 		.space	4
 1703              		.align	2
 1704              	msgDest:
 1705 001c 00000000 		.space	4
 1706              		.align	2
 1707              	msgDestLen:
 1708 0020 00000000 		.space	4
 1709              		.align	2
 1710              	parser:
 1711 0024 00000000 		.space	12
 1711      00000000 
 1711      00000000 
 1712              		.comm	tokens,960,4
 1713              		.section	.rodata
 1714 02c7 00       		.align	2
 1715              	.LC80:
 1716 02c8 64657374 		.ascii	"destination\000"
 1716      696E6174 
 1716      696F6E00 
 1717              		.align	2
 1718              	.LC82:
 1719 02d4 61746F6D 		.ascii	"atomType\000"
 1719      54797065 
 1719      00
 1720 02dd 000000   		.align	2
 1721              	.LC84:
 1722 02e0 5700     		.ascii	"W\000"
 1723 02e2 0000     		.align	2
 1724              	.LC86:
 1725 02e4 61746F6D 		.ascii	"atomId\000"
 1725      496400
 1726 02eb 00       		.align	2
 1727              	.LC88:
 1728 02ec 3000     		.ascii	"0\000"
 1729 02ee 0000     		.align	2
 1730              	.LC91:
 1731 02f0 736F7572 		.ascii	"source\000"
 1731      636500
 1732 02f7 00       		.align	2
 1733              	.LC94:
 1734 02f8 666C6167 		.ascii	"flags\000"
 1734      7300
ARM GAS  C:\Users\SDEVAS~1\AppData\Local\Temp\cc8KFjZb.s 			page 37


 1735 02fe 0000     		.align	2
 1736              	.LC96:
 1737 0300 6F726465 		.ascii	"order\000"
 1737      7200
 1738 0306 0000     		.align	2
 1739              	.LC99:
 1740 0308 7061796C 		.ascii	"payload\000"
 1740      6F616400 
 1741              		.section	.text.validateDestinationAndParse,"ax",%progbits
 1742              		.align	2
 1743              		.global	validateDestinationAndParse
 1744              		.code	16
 1745              		.thumb_func
 1746              		.type	validateDestinationAndParse, %function
 1747              	validateDestinationAndParse:
 1748              	.LFB41:
 185:.\Generated_Source\PSoC4/comm.c **** 
 186:.\Generated_Source\PSoC4/comm.c **** typedef enum {
 187:.\Generated_Source\PSoC4/comm.c ****   JSON_MSG_PARSE_OK = 0,
 188:.\Generated_Source\PSoC4/comm.c ****   JSON_MSG_PARSE_FAILED,
 189:.\Generated_Source\PSoC4/comm.c ****   JSON_MSG_INVALID_DESTINATION,
 190:.\Generated_Source\PSoC4/comm.c ****   JSON_MSG_INVALID_FIELDS,
 191:.\Generated_Source\PSoC4/comm.c ****   JSON_MSG_GETSET_INVALID_VARIABLE
 192:.\Generated_Source\PSoC4/comm.c **** } JSON_MSG_return_t;
 193:.\Generated_Source\PSoC4/comm.c **** 
 194:.\Generated_Source\PSoC4/comm.c **** static comm_flags_t flags = COMM_FLAG_UNKNOWN;
 195:.\Generated_Source\PSoC4/comm.c **** static const char *order = NULL;
 196:.\Generated_Source\PSoC4/comm.c **** static int orderLen = 0;
 197:.\Generated_Source\PSoC4/comm.c **** static const char *payload = NULL;
 198:.\Generated_Source\PSoC4/comm.c **** static int payloadLen = 0;
 199:.\Generated_Source\PSoC4/comm.c **** 
 200:.\Generated_Source\PSoC4/comm.c **** static const char *msgSource = NULL;
 201:.\Generated_Source\PSoC4/comm.c **** static int msgSourceLen = 0;
 202:.\Generated_Source\PSoC4/comm.c **** static const char *msgDest = NULL;
 203:.\Generated_Source\PSoC4/comm.c **** static int msgDestLen = 0;
 204:.\Generated_Source\PSoC4/comm.c **** 
 205:.\Generated_Source\PSoC4/comm.c **** #define JSMN_TOKENS_SIZE 60
 206:.\Generated_Source\PSoC4/comm.c **** static jsmn_parser parser;
 207:.\Generated_Source\PSoC4/comm.c **** jsmntok_t tokens[JSMN_TOKENS_SIZE];
 208:.\Generated_Source\PSoC4/comm.c **** 
 209:.\Generated_Source\PSoC4/comm.c **** /* This function tests if recived JSON msg was addressed correctly,
 210:.\Generated_Source\PSoC4/comm.c ****  * it sets flags, order, payload and msgSource variables
 211:.\Generated_Source\PSoC4/comm.c ****  */
 212:.\Generated_Source\PSoC4/comm.c **** JSON_MSG_return_t validateDestinationAndParse(const char* json, int json_len) {
 1749              		.loc 1 212 0
 1750              		.cfi_startproc
 1751 0000 90B5     		push	{r4, r7, lr}
 1752              		.cfi_def_cfa_offset 12
 1753              		.cfi_offset 4, -12
 1754              		.cfi_offset 7, -8
 1755              		.cfi_offset 14, -4
 1756 0002 8BB0     		sub	sp, sp, #44
 1757              		.cfi_def_cfa_offset 56
 1758 0004 02AF     		add	r7, sp, #8
 1759              		.cfi_def_cfa 7, 48
 1760 0006 7860     		str	r0, [r7, #4]
 1761 0008 3960     		str	r1, [r7]
ARM GAS  C:\Users\SDEVAS~1\AppData\Local\Temp\cc8KFjZb.s 			page 38


 213:.\Generated_Source\PSoC4/comm.c **** 	//reset globals
 214:.\Generated_Source\PSoC4/comm.c **** 	order = payload = msgSource = msgDest = NULL;
 1762              		.loc 1 214 0
 1763 000a BB4B     		ldr	r3, .L119
 1764 000c 0022     		mov	r2, #0
 1765 000e 1A60     		str	r2, [r3]
 1766 0010 B94B     		ldr	r3, .L119
 1767 0012 1A68     		ldr	r2, [r3]
 1768 0014 B94B     		ldr	r3, .L119+4
 1769 0016 1A60     		str	r2, [r3]
 1770 0018 B84B     		ldr	r3, .L119+4
 1771 001a 1A68     		ldr	r2, [r3]
 1772 001c B84B     		ldr	r3, .L119+8
 1773 001e 1A60     		str	r2, [r3]
 1774 0020 B74B     		ldr	r3, .L119+8
 1775 0022 1A68     		ldr	r2, [r3]
 1776 0024 B74B     		ldr	r3, .L119+12
 1777 0026 1A60     		str	r2, [r3]
 215:.\Generated_Source\PSoC4/comm.c **** 	flags = COMM_FLAG_UNKNOWN;
 1778              		.loc 1 215 0
 1779 0028 B74B     		ldr	r3, .L119+16
 1780 002a 0022     		mov	r2, #0
 1781 002c 1A70     		strb	r2, [r3]
 216:.\Generated_Source\PSoC4/comm.c ****   jsmn_init(&parser);
 1782              		.loc 1 216 0
 1783 002e B74B     		ldr	r3, .L119+20
 1784 0030 181C     		mov	r0, r3
 1785 0032 FFF7FEFF 		bl	jsmn_init
 217:.\Generated_Source\PSoC4/comm.c ****   int r = jsmn_parse(&parser, json, json_len, tokens, JSMN_TOKENS_SIZE);
 1786              		.loc 1 217 0
 1787 0036 3A68     		ldr	r2, [r7]
 1788 0038 B448     		ldr	r0, .L119+20
 1789 003a 7968     		ldr	r1, [r7, #4]
 1790 003c B44B     		ldr	r3, .L119+24
 1791 003e 3C24     		mov	r4, #60
 1792 0040 0094     		str	r4, [sp]
 1793 0042 FFF7FEFF 		bl	jsmn_parse
 1794 0046 031C     		mov	r3, r0
 1795 0048 FB60     		str	r3, [r7, #12]
 218:.\Generated_Source\PSoC4/comm.c ****   if(r <= 0)
 1796              		.loc 1 218 0
 1797 004a FB68     		ldr	r3, [r7, #12]
 1798 004c 002B     		cmp	r3, #0
 1799 004e 01DC     		bgt	.L99
 219:.\Generated_Source\PSoC4/comm.c ****     return JSON_MSG_PARSE_FAILED;
 1800              		.loc 1 219 0
 1801 0050 0123     		mov	r3, #1
 1802 0052 C8E1     		b	.L100
 1803              	.L99:
 220:.\Generated_Source\PSoC4/comm.c ****   // for(int i = 0; i < r; i++) {
 221:.\Generated_Source\PSoC4/comm.c ****   //   printf("[%2d]Type: %3d, size: %3d, start: %3d, end: %3d", i, tokens[i].type,
 222:.\Generated_Source\PSoC4/comm.c ****   //   tokens[i].size, tokens[i].start, tokens[i].end);
 223:.\Generated_Source\PSoC4/comm.c ****   //   printf(", value: %.*s", tokens[i].end - tokens[i].start, json + tokens[i].start);
 224:.\Generated_Source\PSoC4/comm.c ****   //   printf("\n");
 225:.\Generated_Source\PSoC4/comm.c ****   // }
 226:.\Generated_Source\PSoC4/comm.c ****   // return 0;
 227:.\Generated_Source\PSoC4/comm.c ****   if(tokens[0].type != JSMN_OBJECT)
ARM GAS  C:\Users\SDEVAS~1\AppData\Local\Temp\cc8KFjZb.s 			page 39


 1804              		.loc 1 227 0
 1805 0054 AE4B     		ldr	r3, .L119+24
 1806 0056 1B78     		ldrb	r3, [r3]
 1807 0058 012B     		cmp	r3, #1
 1808 005a 01D0     		beq	.L101
 228:.\Generated_Source\PSoC4/comm.c ****     return JSON_MSG_PARSE_FAILED;
 1809              		.loc 1 228 0
 1810 005c 0123     		mov	r3, #1
 1811 005e C2E1     		b	.L100
 1812              	.L101:
 229:.\Generated_Source\PSoC4/comm.c **** 
 230:.\Generated_Source\PSoC4/comm.c ****   int t = 1;
 1813              		.loc 1 230 0
 1814 0060 0123     		mov	r3, #1
 1815 0062 FB61     		str	r3, [r7, #28]
 231:.\Generated_Source\PSoC4/comm.c ****   int i = 0;
 1816              		.loc 1 231 0
 1817 0064 0023     		mov	r3, #0
 1818 0066 BB61     		str	r3, [r7, #24]
 232:.\Generated_Source\PSoC4/comm.c ****   for(; i < tokens[0].size; i++) {
 1819              		.loc 1 232 0
 1820 0068 A0E1     		b	.L102
 1821              	.L116:
 233:.\Generated_Source\PSoC4/comm.c ****     if(tokens[t].type != JSMN_STRING) //it should point to key
 1822              		.loc 1 233 0
 1823 006a A94B     		ldr	r3, .L119+24
 1824 006c FA69     		ldr	r2, [r7, #28]
 1825 006e 1201     		lsl	r2, r2, #4
 1826 0070 D35C     		ldrb	r3, [r2, r3]
 1827 0072 032B     		cmp	r3, #3
 1828 0074 01D0     		beq	.L103
 234:.\Generated_Source\PSoC4/comm.c ****       return JSON_MSG_PARSE_FAILED;
 1829              		.loc 1 234 0
 1830 0076 0123     		mov	r3, #1
 1831 0078 B5E1     		b	.L100
 1832              	.L103:
 235:.\Generated_Source\PSoC4/comm.c ****     //printf("!value: %.*s\n", tokens[t].end - tokens[t].start, argv[1] + tokens[t].start);
 236:.\Generated_Source\PSoC4/comm.c ****     if(compKey(json, &tokens[t], "destination") == 0) {
 1833              		.loc 1 236 0
 1834 007a FB69     		ldr	r3, [r7, #28]
 1835 007c 1A01     		lsl	r2, r3, #4
 1836 007e A44B     		ldr	r3, .L119+24
 1837 0080 D218     		add	r2, r2, r3
 1838 0082 7968     		ldr	r1, [r7, #4]
 1839 0084 A34B     		ldr	r3, .L119+28
 1840 0086 081C     		mov	r0, r1
 1841 0088 111C     		mov	r1, r2
 1842 008a 1A1C     		mov	r2, r3
 1843 008c FFF7FEFF 		bl	compKey
 1844 0090 031C     		mov	r3, r0
 1845 0092 002B     		cmp	r3, #0
 1846 0094 00D0     		beq	.LCB1483
 1847 0096 A7E0     		b	.L104	@long jump
 1848              	.LCB1483:
 1849              	.LBB3:
 237:.\Generated_Source\PSoC4/comm.c ****       if(tokens[t+1].type != JSMN_OBJECT)//it should be OBJECT
 1850              		.loc 1 237 0
ARM GAS  C:\Users\SDEVAS~1\AppData\Local\Temp\cc8KFjZb.s 			page 40


 1851 0098 FB69     		ldr	r3, [r7, #28]
 1852 009a 5A1C     		add	r2, r3, #1
 1853 009c 9C4B     		ldr	r3, .L119+24
 1854 009e 1201     		lsl	r2, r2, #4
 1855 00a0 D35C     		ldrb	r3, [r2, r3]
 1856 00a2 012B     		cmp	r3, #1
 1857 00a4 01D0     		beq	.L105
 238:.\Generated_Source\PSoC4/comm.c ****         return JSON_MSG_PARSE_FAILED;
 1858              		.loc 1 238 0
 1859 00a6 0123     		mov	r3, #1
 1860 00a8 9DE1     		b	.L100
 1861              	.L105:
 239:.\Generated_Source\PSoC4/comm.c ****       int y = t+2;
 1862              		.loc 1 239 0
 1863 00aa FB69     		ldr	r3, [r7, #28]
 1864 00ac 0233     		add	r3, r3, #2
 1865 00ae 7B61     		str	r3, [r7, #20]
 240:.\Generated_Source\PSoC4/comm.c ****       int j = 0;
 1866              		.loc 1 240 0
 1867 00b0 0023     		mov	r3, #0
 1868 00b2 3B61     		str	r3, [r7, #16]
 241:.\Generated_Source\PSoC4/comm.c ****       for(; j < tokens[t+1].size; j++) {
 1869              		.loc 1 241 0
 1870 00b4 73E0     		b	.L106
 1871              	.L110:
 242:.\Generated_Source\PSoC4/comm.c ****         //were in destination object
 243:.\Generated_Source\PSoC4/comm.c ****         if(tokens[y].type != JSMN_STRING) //it should point to key
 1872              		.loc 1 243 0
 1873 00b6 964B     		ldr	r3, .L119+24
 1874 00b8 7A69     		ldr	r2, [r7, #20]
 1875 00ba 1201     		lsl	r2, r2, #4
 1876 00bc D35C     		ldrb	r3, [r2, r3]
 1877 00be 032B     		cmp	r3, #3
 1878 00c0 01D0     		beq	.L107
 244:.\Generated_Source\PSoC4/comm.c ****           return JSON_MSG_PARSE_FAILED;
 1879              		.loc 1 244 0
 1880 00c2 0123     		mov	r3, #1
 1881 00c4 8FE1     		b	.L100
 1882              	.L107:
 245:.\Generated_Source\PSoC4/comm.c ****         //printf("-!value: %.*s\n", tokens[y].end - tokens[y].start, argv[1] + tokens[y].start);
 246:.\Generated_Source\PSoC4/comm.c ****         if(compKey(json, &tokens[y], "atomType") == 0) {
 1883              		.loc 1 246 0
 1884 00c6 7B69     		ldr	r3, [r7, #20]
 1885 00c8 1A01     		lsl	r2, r3, #4
 1886 00ca 914B     		ldr	r3, .L119+24
 1887 00cc D218     		add	r2, r2, r3
 1888 00ce 7968     		ldr	r1, [r7, #4]
 1889 00d0 914B     		ldr	r3, .L119+32
 1890 00d2 081C     		mov	r0, r1
 1891 00d4 111C     		mov	r1, r2
 1892 00d6 1A1C     		mov	r2, r3
 1893 00d8 FFF7FEFF 		bl	compKey
 1894 00dc 031C     		mov	r3, r0
 1895 00de 002B     		cmp	r3, #0
 1896 00e0 20D1     		bne	.L108
 247:.\Generated_Source\PSoC4/comm.c ****           //woot atom type
 248:.\Generated_Source\PSoC4/comm.c ****           if(strncmp(json + tokens[y+1].start, MY_ATOM_TYPE, tokens[y+1].end - tokens[y+1].start) !
ARM GAS  C:\Users\SDEVAS~1\AppData\Local\Temp\cc8KFjZb.s 			page 41


 1897              		.loc 1 248 0
 1898 00e2 7B69     		ldr	r3, [r7, #20]
 1899 00e4 0133     		add	r3, r3, #1
 1900 00e6 8A4A     		ldr	r2, .L119+24
 1901 00e8 1B01     		lsl	r3, r3, #4
 1902 00ea D318     		add	r3, r2, r3
 1903 00ec 5B68     		ldr	r3, [r3, #4]
 1904 00ee 7A68     		ldr	r2, [r7, #4]
 1905 00f0 D118     		add	r1, r2, r3
 1906 00f2 7B69     		ldr	r3, [r7, #20]
 1907 00f4 0133     		add	r3, r3, #1
 1908 00f6 864A     		ldr	r2, .L119+24
 1909 00f8 1B01     		lsl	r3, r3, #4
 1910 00fa D318     		add	r3, r2, r3
 1911 00fc 0833     		add	r3, r3, #8
 1912 00fe 1A68     		ldr	r2, [r3]
 1913 0100 7B69     		ldr	r3, [r7, #20]
 1914 0102 0133     		add	r3, r3, #1
 1915 0104 8248     		ldr	r0, .L119+24
 1916 0106 1B01     		lsl	r3, r3, #4
 1917 0108 C318     		add	r3, r0, r3
 1918 010a 5B68     		ldr	r3, [r3, #4]
 1919 010c D31A     		sub	r3, r2, r3
 1920 010e 834A     		ldr	r2, .L119+36
 1921 0110 081C     		mov	r0, r1
 1922 0112 111C     		mov	r1, r2
 1923 0114 1A1C     		mov	r2, r3
 1924 0116 FFF7FEFF 		bl	strncmp
 1925 011a 031C     		mov	r3, r0
 1926 011c 002B     		cmp	r3, #0
 1927 011e 30D0     		beq	.L109
 249:.\Generated_Source\PSoC4/comm.c ****             return JSON_MSG_INVALID_DESTINATION;
 1928              		.loc 1 249 0
 1929 0120 0223     		mov	r3, #2
 1930 0122 60E1     		b	.L100
 1931              	.L108:
 250:.\Generated_Source\PSoC4/comm.c ****           }
 251:.\Generated_Source\PSoC4/comm.c ****         } else if(compKey(json, &tokens[y], "atomId") == 0) {
 1932              		.loc 1 251 0
 1933 0124 7B69     		ldr	r3, [r7, #20]
 1934 0126 1A01     		lsl	r2, r3, #4
 1935 0128 794B     		ldr	r3, .L119+24
 1936 012a D218     		add	r2, r2, r3
 1937 012c 7968     		ldr	r1, [r7, #4]
 1938 012e 7C4B     		ldr	r3, .L119+40
 1939 0130 081C     		mov	r0, r1
 1940 0132 111C     		mov	r1, r2
 1941 0134 1A1C     		mov	r2, r3
 1942 0136 FFF7FEFF 		bl	compKey
 1943 013a 031C     		mov	r3, r0
 1944 013c 002B     		cmp	r3, #0
 1945 013e 20D1     		bne	.L109
 252:.\Generated_Source\PSoC4/comm.c ****           //woot atomId
 253:.\Generated_Source\PSoC4/comm.c ****           if(strncmp(json + tokens[y+1].start, MY_ATOM_ID, tokens[y+1].end - tokens[y+1].start) != 
 1946              		.loc 1 253 0
 1947 0140 7B69     		ldr	r3, [r7, #20]
 1948 0142 0133     		add	r3, r3, #1
ARM GAS  C:\Users\SDEVAS~1\AppData\Local\Temp\cc8KFjZb.s 			page 42


 1949 0144 724A     		ldr	r2, .L119+24
 1950 0146 1B01     		lsl	r3, r3, #4
 1951 0148 D318     		add	r3, r2, r3
 1952 014a 5B68     		ldr	r3, [r3, #4]
 1953 014c 7A68     		ldr	r2, [r7, #4]
 1954 014e D118     		add	r1, r2, r3
 1955 0150 7B69     		ldr	r3, [r7, #20]
 1956 0152 0133     		add	r3, r3, #1
 1957 0154 6E4A     		ldr	r2, .L119+24
 1958 0156 1B01     		lsl	r3, r3, #4
 1959 0158 D318     		add	r3, r2, r3
 1960 015a 0833     		add	r3, r3, #8
 1961 015c 1A68     		ldr	r2, [r3]
 1962 015e 7B69     		ldr	r3, [r7, #20]
 1963 0160 0133     		add	r3, r3, #1
 1964 0162 6B48     		ldr	r0, .L119+24
 1965 0164 1B01     		lsl	r3, r3, #4
 1966 0166 C318     		add	r3, r0, r3
 1967 0168 5B68     		ldr	r3, [r3, #4]
 1968 016a D31A     		sub	r3, r2, r3
 1969 016c 6D4A     		ldr	r2, .L119+44
 1970 016e 081C     		mov	r0, r1
 1971 0170 111C     		mov	r1, r2
 1972 0172 1A1C     		mov	r2, r3
 1973 0174 FFF7FEFF 		bl	strncmp
 1974 0178 031C     		mov	r3, r0
 1975 017a 002B     		cmp	r3, #0
 1976 017c 01D0     		beq	.L109
 254:.\Generated_Source\PSoC4/comm.c ****             return JSON_MSG_INVALID_DESTINATION;
 1977              		.loc 1 254 0
 1978 017e 0223     		mov	r3, #2
 1979 0180 31E1     		b	.L100
 1980              	.L109:
 255:.\Generated_Source\PSoC4/comm.c ****           }
 256:.\Generated_Source\PSoC4/comm.c ****         }
 257:.\Generated_Source\PSoC4/comm.c ****         y = skipToNextTokenInLevel(tokens, ++y);
 1981              		.loc 1 257 0
 1982 0182 7B69     		ldr	r3, [r7, #20]
 1983 0184 0133     		add	r3, r3, #1
 1984 0186 7B61     		str	r3, [r7, #20]
 1985 0188 614A     		ldr	r2, .L119+24
 1986 018a 7B69     		ldr	r3, [r7, #20]
 1987 018c 101C     		mov	r0, r2
 1988 018e 191C     		mov	r1, r3
 1989 0190 FFF7FEFF 		bl	skipToNextTokenInLevel
 1990 0194 031C     		mov	r3, r0
 1991 0196 7B61     		str	r3, [r7, #20]
 241:.\Generated_Source\PSoC4/comm.c ****       for(; j < tokens[t+1].size; j++) {
 1992              		.loc 1 241 0
 1993 0198 3B69     		ldr	r3, [r7, #16]
 1994 019a 0133     		add	r3, r3, #1
 1995 019c 3B61     		str	r3, [r7, #16]
 1996              	.L106:
 241:.\Generated_Source\PSoC4/comm.c ****       for(; j < tokens[t+1].size; j++) {
 1997              		.loc 1 241 0 is_stmt 0 discriminator 1
 1998 019e FB69     		ldr	r3, [r7, #28]
 1999 01a0 0133     		add	r3, r3, #1
ARM GAS  C:\Users\SDEVAS~1\AppData\Local\Temp\cc8KFjZb.s 			page 43


 2000 01a2 5B4A     		ldr	r2, .L119+24
 2001 01a4 1B01     		lsl	r3, r3, #4
 2002 01a6 D318     		add	r3, r2, r3
 2003 01a8 0833     		add	r3, r3, #8
 2004 01aa 5A68     		ldr	r2, [r3, #4]
 2005 01ac 3B69     		ldr	r3, [r7, #16]
 2006 01ae 9A42     		cmp	r2, r3
 2007 01b0 81DC     		bgt	.L110
 258:.\Generated_Source\PSoC4/comm.c ****       }
 259:.\Generated_Source\PSoC4/comm.c ****       msgDest = json + tokens[t+1].start;
 2008              		.loc 1 259 0 is_stmt 1
 2009 01b2 FB69     		ldr	r3, [r7, #28]
 2010 01b4 0133     		add	r3, r3, #1
 2011 01b6 564A     		ldr	r2, .L119+24
 2012 01b8 1B01     		lsl	r3, r3, #4
 2013 01ba D318     		add	r3, r2, r3
 2014 01bc 5B68     		ldr	r3, [r3, #4]
 2015 01be 7A68     		ldr	r2, [r7, #4]
 2016 01c0 D218     		add	r2, r2, r3
 2017 01c2 4D4B     		ldr	r3, .L119
 2018 01c4 1A60     		str	r2, [r3]
 260:.\Generated_Source\PSoC4/comm.c ****       msgDestLen = tokens[t+1].end - tokens[t+1].start;
 2019              		.loc 1 260 0
 2020 01c6 FB69     		ldr	r3, [r7, #28]
 2021 01c8 0133     		add	r3, r3, #1
 2022 01ca 514A     		ldr	r2, .L119+24
 2023 01cc 1B01     		lsl	r3, r3, #4
 2024 01ce D318     		add	r3, r2, r3
 2025 01d0 0833     		add	r3, r3, #8
 2026 01d2 1A68     		ldr	r2, [r3]
 2027 01d4 FB69     		ldr	r3, [r7, #28]
 2028 01d6 0133     		add	r3, r3, #1
 2029 01d8 4D49     		ldr	r1, .L119+24
 2030 01da 1B01     		lsl	r3, r3, #4
 2031 01dc CB18     		add	r3, r1, r3
 2032 01de 5B68     		ldr	r3, [r3, #4]
 2033 01e0 D21A     		sub	r2, r2, r3
 2034 01e2 514B     		ldr	r3, .L119+48
 2035 01e4 1A60     		str	r2, [r3]
 2036              	.LBE3:
 2037 01e6 D3E0     		b	.L111
 2038              	.L104:
 261:.\Generated_Source\PSoC4/comm.c ****     } else if(compKey(json, &tokens[t], "source") == 0) {
 2039              		.loc 1 261 0
 2040 01e8 FB69     		ldr	r3, [r7, #28]
 2041 01ea 1A01     		lsl	r2, r3, #4
 2042 01ec 484B     		ldr	r3, .L119+24
 2043 01ee D218     		add	r2, r2, r3
 2044 01f0 7968     		ldr	r1, [r7, #4]
 2045 01f2 4E4B     		ldr	r3, .L119+52
 2046 01f4 081C     		mov	r0, r1
 2047 01f6 111C     		mov	r1, r2
 2048 01f8 1A1C     		mov	r2, r3
 2049 01fa FFF7FEFF 		bl	compKey
 2050 01fe 031C     		mov	r3, r0
 2051 0200 002B     		cmp	r3, #0
 2052 0202 23D1     		bne	.L112
ARM GAS  C:\Users\SDEVAS~1\AppData\Local\Temp\cc8KFjZb.s 			page 44


 262:.\Generated_Source\PSoC4/comm.c ****       if(tokens[t+1].type != JSMN_OBJECT)//it should be OBJECT
 2053              		.loc 1 262 0
 2054 0204 FB69     		ldr	r3, [r7, #28]
 2055 0206 5A1C     		add	r2, r3, #1
 2056 0208 414B     		ldr	r3, .L119+24
 2057 020a 1201     		lsl	r2, r2, #4
 2058 020c D35C     		ldrb	r3, [r2, r3]
 2059 020e 012B     		cmp	r3, #1
 2060 0210 01D0     		beq	.L113
 263:.\Generated_Source\PSoC4/comm.c ****         return JSON_MSG_PARSE_FAILED;
 2061              		.loc 1 263 0
 2062 0212 0123     		mov	r3, #1
 2063 0214 E7E0     		b	.L100
 2064              	.L113:
 264:.\Generated_Source\PSoC4/comm.c ****       msgSource = json + tokens[t+1].start;
 2065              		.loc 1 264 0
 2066 0216 FB69     		ldr	r3, [r7, #28]
 2067 0218 0133     		add	r3, r3, #1
 2068 021a 3D4A     		ldr	r2, .L119+24
 2069 021c 1B01     		lsl	r3, r3, #4
 2070 021e D318     		add	r3, r2, r3
 2071 0220 5B68     		ldr	r3, [r3, #4]
 2072 0222 7A68     		ldr	r2, [r7, #4]
 2073 0224 D218     		add	r2, r2, r3
 2074 0226 354B     		ldr	r3, .L119+4
 2075 0228 1A60     		str	r2, [r3]
 265:.\Generated_Source\PSoC4/comm.c ****       msgSourceLen = tokens[t+1].end - tokens[t+1].start;
 2076              		.loc 1 265 0
 2077 022a FB69     		ldr	r3, [r7, #28]
 2078 022c 0133     		add	r3, r3, #1
 2079 022e 384A     		ldr	r2, .L119+24
 2080 0230 1B01     		lsl	r3, r3, #4
 2081 0232 D318     		add	r3, r2, r3
 2082 0234 0833     		add	r3, r3, #8
 2083 0236 1A68     		ldr	r2, [r3]
 2084 0238 FB69     		ldr	r3, [r7, #28]
 2085 023a 0133     		add	r3, r3, #1
 2086 023c 3449     		ldr	r1, .L119+24
 2087 023e 1B01     		lsl	r3, r3, #4
 2088 0240 CB18     		add	r3, r1, r3
 2089 0242 5B68     		ldr	r3, [r3, #4]
 2090 0244 D21A     		sub	r2, r2, r3
 2091 0246 3A4B     		ldr	r3, .L119+56
 2092 0248 1A60     		str	r2, [r3]
 2093 024a A1E0     		b	.L111
 2094              	.L112:
 266:.\Generated_Source\PSoC4/comm.c ****     } else if(compKey(json, &tokens[t], "flags") == 0) {
 2095              		.loc 1 266 0
 2096 024c FB69     		ldr	r3, [r7, #28]
 2097 024e 1A01     		lsl	r2, r3, #4
 2098 0250 2F4B     		ldr	r3, .L119+24
 2099 0252 D218     		add	r2, r2, r3
 2100 0254 7968     		ldr	r1, [r7, #4]
 2101 0256 374B     		ldr	r3, .L119+60
 2102 0258 081C     		mov	r0, r1
 2103 025a 111C     		mov	r1, r2
 2104 025c 1A1C     		mov	r2, r3
ARM GAS  C:\Users\SDEVAS~1\AppData\Local\Temp\cc8KFjZb.s 			page 45


 2105 025e FFF7FEFF 		bl	compKey
 2106 0262 031C     		mov	r3, r0
 2107 0264 002B     		cmp	r3, #0
 2108 0266 1ED1     		bne	.L114
 267:.\Generated_Source\PSoC4/comm.c ****       flags = str2flag(json + tokens[t+1].start, tokens[t+1].end - tokens[t+1].start);
 2109              		.loc 1 267 0
 2110 0268 FB69     		ldr	r3, [r7, #28]
 2111 026a 0133     		add	r3, r3, #1
 2112 026c 284A     		ldr	r2, .L119+24
 2113 026e 1B01     		lsl	r3, r3, #4
 2114 0270 D318     		add	r3, r2, r3
 2115 0272 5B68     		ldr	r3, [r3, #4]
 2116 0274 7A68     		ldr	r2, [r7, #4]
 2117 0276 D218     		add	r2, r2, r3
 2118 0278 FB69     		ldr	r3, [r7, #28]
 2119 027a 0133     		add	r3, r3, #1
 2120 027c 2449     		ldr	r1, .L119+24
 2121 027e 1B01     		lsl	r3, r3, #4
 2122 0280 CB18     		add	r3, r1, r3
 2123 0282 0833     		add	r3, r3, #8
 2124 0284 1968     		ldr	r1, [r3]
 2125 0286 FB69     		ldr	r3, [r7, #28]
 2126 0288 0133     		add	r3, r3, #1
 2127 028a 2148     		ldr	r0, .L119+24
 2128 028c 1B01     		lsl	r3, r3, #4
 2129 028e C318     		add	r3, r0, r3
 2130 0290 5B68     		ldr	r3, [r3, #4]
 2131 0292 CB1A     		sub	r3, r1, r3
 2132 0294 101C     		mov	r0, r2
 2133 0296 191C     		mov	r1, r3
 2134 0298 FFF7FEFF 		bl	str2flag
 2135 029c 031C     		mov	r3, r0
 2136 029e 1A1C     		mov	r2, r3
 2137 02a0 194B     		ldr	r3, .L119+16
 2138 02a2 1A70     		strb	r2, [r3]
 2139 02a4 74E0     		b	.L111
 2140              	.L114:
 268:.\Generated_Source\PSoC4/comm.c ****     } else if(compKey(json, &tokens[t], "order") == 0) {
 2141              		.loc 1 268 0
 2142 02a6 FB69     		ldr	r3, [r7, #28]
 2143 02a8 1A01     		lsl	r2, r3, #4
 2144 02aa 194B     		ldr	r3, .L119+24
 2145 02ac D218     		add	r2, r2, r3
 2146 02ae 7968     		ldr	r1, [r7, #4]
 2147 02b0 214B     		ldr	r3, .L119+64
 2148 02b2 081C     		mov	r0, r1
 2149 02b4 111C     		mov	r1, r2
 2150 02b6 1A1C     		mov	r2, r3
 2151 02b8 FFF7FEFF 		bl	compKey
 2152 02bc 031C     		mov	r3, r0
 2153 02be 002B     		cmp	r3, #0
 2154 02c0 3ED1     		bne	.L115
 269:.\Generated_Source\PSoC4/comm.c ****       order = json + tokens[t+1].start;
 2155              		.loc 1 269 0
 2156 02c2 FB69     		ldr	r3, [r7, #28]
 2157 02c4 0133     		add	r3, r3, #1
 2158 02c6 124A     		ldr	r2, .L119+24
ARM GAS  C:\Users\SDEVAS~1\AppData\Local\Temp\cc8KFjZb.s 			page 46


 2159 02c8 1B01     		lsl	r3, r3, #4
 2160 02ca D318     		add	r3, r2, r3
 2161 02cc 5B68     		ldr	r3, [r3, #4]
 2162 02ce 7A68     		ldr	r2, [r7, #4]
 2163 02d0 D218     		add	r2, r2, r3
 2164 02d2 0C4B     		ldr	r3, .L119+12
 2165 02d4 1A60     		str	r2, [r3]
 270:.\Generated_Source\PSoC4/comm.c ****       orderLen = tokens[t+1].end - tokens[t+1].start;
 2166              		.loc 1 270 0
 2167 02d6 FB69     		ldr	r3, [r7, #28]
 2168 02d8 0133     		add	r3, r3, #1
 2169 02da 0D4A     		ldr	r2, .L119+24
 2170 02dc 1B01     		lsl	r3, r3, #4
 2171 02de D318     		add	r3, r2, r3
 2172 02e0 0833     		add	r3, r3, #8
 2173 02e2 1A68     		ldr	r2, [r3]
 2174 02e4 FB69     		ldr	r3, [r7, #28]
 2175 02e6 0133     		add	r3, r3, #1
 2176 02e8 0949     		ldr	r1, .L119+24
 2177 02ea 1B01     		lsl	r3, r3, #4
 2178 02ec CB18     		add	r3, r1, r3
 2179 02ee 5B68     		ldr	r3, [r3, #4]
 2180 02f0 D21A     		sub	r2, r2, r3
 2181 02f2 124B     		ldr	r3, .L119+68
 2182 02f4 1A60     		str	r2, [r3]
 2183 02f6 4BE0     		b	.L111
 2184              	.L120:
 2185              		.align	2
 2186              	.L119:
 2187 02f8 1C000000 		.word	msgDest
 2188 02fc 14000000 		.word	msgSource
 2189 0300 0C000000 		.word	payload
 2190 0304 04000000 		.word	order
 2191 0308 00000000 		.word	flags
 2192 030c 24000000 		.word	parser
 2193 0310 00000000 		.word	tokens
 2194 0314 C8020000 		.word	.LC80
 2195 0318 D4020000 		.word	.LC82
 2196 031c E0020000 		.word	.LC84
 2197 0320 E4020000 		.word	.LC86
 2198 0324 EC020000 		.word	.LC88
 2199 0328 20000000 		.word	msgDestLen
 2200 032c F0020000 		.word	.LC91
 2201 0330 18000000 		.word	msgSourceLen
 2202 0334 F8020000 		.word	.LC94
 2203 0338 00030000 		.word	.LC96
 2204 033c 08000000 		.word	orderLen
 2205              	.L115:
 271:.\Generated_Source\PSoC4/comm.c ****     } else if(compKey(json, &tokens[t], "payload") == 0) {
 2206              		.loc 1 271 0
 2207 0340 FB69     		ldr	r3, [r7, #28]
 2208 0342 1A01     		lsl	r2, r3, #4
 2209 0344 2A4B     		ldr	r3, .L121
 2210 0346 D218     		add	r2, r2, r3
 2211 0348 7968     		ldr	r1, [r7, #4]
 2212 034a 2A4B     		ldr	r3, .L121+4
 2213 034c 081C     		mov	r0, r1
ARM GAS  C:\Users\SDEVAS~1\AppData\Local\Temp\cc8KFjZb.s 			page 47


 2214 034e 111C     		mov	r1, r2
 2215 0350 1A1C     		mov	r2, r3
 2216 0352 FFF7FEFF 		bl	compKey
 2217 0356 031C     		mov	r3, r0
 2218 0358 002B     		cmp	r3, #0
 2219 035a 19D1     		bne	.L111
 272:.\Generated_Source\PSoC4/comm.c ****       payload = json + tokens[t+1].start;
 2220              		.loc 1 272 0
 2221 035c FB69     		ldr	r3, [r7, #28]
 2222 035e 0133     		add	r3, r3, #1
 2223 0360 234A     		ldr	r2, .L121
 2224 0362 1B01     		lsl	r3, r3, #4
 2225 0364 D318     		add	r3, r2, r3
 2226 0366 5B68     		ldr	r3, [r3, #4]
 2227 0368 7A68     		ldr	r2, [r7, #4]
 2228 036a D218     		add	r2, r2, r3
 2229 036c 224B     		ldr	r3, .L121+8
 2230 036e 1A60     		str	r2, [r3]
 273:.\Generated_Source\PSoC4/comm.c ****       payloadLen = tokens[t+1].end - tokens[t+1].start;
 2231              		.loc 1 273 0
 2232 0370 FB69     		ldr	r3, [r7, #28]
 2233 0372 0133     		add	r3, r3, #1
 2234 0374 1E4A     		ldr	r2, .L121
 2235 0376 1B01     		lsl	r3, r3, #4
 2236 0378 D318     		add	r3, r2, r3
 2237 037a 0833     		add	r3, r3, #8
 2238 037c 1A68     		ldr	r2, [r3]
 2239 037e FB69     		ldr	r3, [r7, #28]
 2240 0380 0133     		add	r3, r3, #1
 2241 0382 1B49     		ldr	r1, .L121
 2242 0384 1B01     		lsl	r3, r3, #4
 2243 0386 CB18     		add	r3, r1, r3
 2244 0388 5B68     		ldr	r3, [r3, #4]
 2245 038a D21A     		sub	r2, r2, r3
 2246 038c 1B4B     		ldr	r3, .L121+12
 2247 038e 1A60     		str	r2, [r3]
 2248              	.L111:
 274:.\Generated_Source\PSoC4/comm.c ****     }
 275:.\Generated_Source\PSoC4/comm.c ****     t = skipToNextTokenInLevel(tokens, ++t);
 2249              		.loc 1 275 0
 2250 0390 FB69     		ldr	r3, [r7, #28]
 2251 0392 0133     		add	r3, r3, #1
 2252 0394 FB61     		str	r3, [r7, #28]
 2253 0396 164A     		ldr	r2, .L121
 2254 0398 FB69     		ldr	r3, [r7, #28]
 2255 039a 101C     		mov	r0, r2
 2256 039c 191C     		mov	r1, r3
 2257 039e FFF7FEFF 		bl	skipToNextTokenInLevel
 2258 03a2 031C     		mov	r3, r0
 2259 03a4 FB61     		str	r3, [r7, #28]
 232:.\Generated_Source\PSoC4/comm.c ****   for(; i < tokens[0].size; i++) {
 2260              		.loc 1 232 0
 2261 03a6 BB69     		ldr	r3, [r7, #24]
 2262 03a8 0133     		add	r3, r3, #1
 2263 03aa BB61     		str	r3, [r7, #24]
 2264              	.L102:
 232:.\Generated_Source\PSoC4/comm.c ****   for(; i < tokens[0].size; i++) {
ARM GAS  C:\Users\SDEVAS~1\AppData\Local\Temp\cc8KFjZb.s 			page 48


 2265              		.loc 1 232 0 is_stmt 0 discriminator 1
 2266 03ac 104B     		ldr	r3, .L121
 2267 03ae DA68     		ldr	r2, [r3, #12]
 2268 03b0 BB69     		ldr	r3, [r7, #24]
 2269 03b2 9A42     		cmp	r2, r3
 2270 03b4 00DD     		ble	.LCB1896
 2271 03b6 58E6     		b	.L116	@long jump
 2272              	.LCB1896:
 276:.\Generated_Source\PSoC4/comm.c ****   }
 277:.\Generated_Source\PSoC4/comm.c ****   if(msgSource == NULL || msgDest == NULL || order == NULL || flags == COMM_FLAG_UNKNOWN || payload
 2273              		.loc 1 277 0 is_stmt 1
 2274 03b8 114B     		ldr	r3, .L121+16
 2275 03ba 1B68     		ldr	r3, [r3]
 2276 03bc 002B     		cmp	r3, #0
 2277 03be 0FD0     		beq	.L117
 2278              		.loc 1 277 0 is_stmt 0 discriminator 1
 2279 03c0 104B     		ldr	r3, .L121+20
 2280 03c2 1B68     		ldr	r3, [r3]
 2281 03c4 002B     		cmp	r3, #0
 2282 03c6 0BD0     		beq	.L117
 2283 03c8 0F4B     		ldr	r3, .L121+24
 2284 03ca 1B68     		ldr	r3, [r3]
 2285 03cc 002B     		cmp	r3, #0
 2286 03ce 07D0     		beq	.L117
 2287 03d0 0E4B     		ldr	r3, .L121+28
 2288 03d2 1B78     		ldrb	r3, [r3]
 2289 03d4 002B     		cmp	r3, #0
 2290 03d6 03D0     		beq	.L117
 2291 03d8 074B     		ldr	r3, .L121+8
 2292 03da 1B68     		ldr	r3, [r3]
 2293 03dc 002B     		cmp	r3, #0
 2294 03de 01D1     		bne	.L118
 2295              	.L117:
 278:.\Generated_Source\PSoC4/comm.c ****     return JSON_MSG_INVALID_FIELDS;
 2296              		.loc 1 278 0 is_stmt 1
 2297 03e0 0323     		mov	r3, #3
 2298 03e2 00E0     		b	.L100
 2299              	.L118:
 279:.\Generated_Source\PSoC4/comm.c ****   }
 280:.\Generated_Source\PSoC4/comm.c ****   return JSON_MSG_PARSE_OK;
 2300              		.loc 1 280 0
 2301 03e4 0023     		mov	r3, #0
 2302              	.L100:
 281:.\Generated_Source\PSoC4/comm.c **** }
 2303              		.loc 1 281 0
 2304 03e6 181C     		mov	r0, r3
 2305 03e8 BD46     		mov	sp, r7
 2306 03ea 09B0     		add	sp, sp, #36
 2307              		@ sp needed
 2308 03ec 90BD     		pop	{r4, r7, pc}
 2309              	.L122:
 2310 03ee C046     		.align	2
 2311              	.L121:
 2312 03f0 00000000 		.word	tokens
 2313 03f4 08030000 		.word	.LC99
 2314 03f8 0C000000 		.word	payload
 2315 03fc 10000000 		.word	payloadLen
ARM GAS  C:\Users\SDEVAS~1\AppData\Local\Temp\cc8KFjZb.s 			page 49


 2316 0400 14000000 		.word	msgSource
 2317 0404 1C000000 		.word	msgDest
 2318 0408 04000000 		.word	order
 2319 040c 00000000 		.word	flags
 2320              		.cfi_endproc
 2321              	.LFE41:
 2322              		.size	validateDestinationAndParse, .-validateDestinationAndParse
 2323              		.section	.rodata
 2324              		.align	2
 2325              	.LC102:
 2326 0310 6E00     		.ascii	"n\000"
 2327 0312 0000     		.align	2
 2328              	.LC106:
 2329 0314 2C227061 		.ascii	",\"payload\":{\"n\":\"sleepPeriod\",\"t\":\"i\",\"v"
 2329      796C6F61 
 2329      64223A7B 
 2329      226E223A 
 2329      22736C65 
 2330 033c 223A00   		.ascii	"\":\000"
 2331 033f 00       		.align	2
 2332              	.LC109:
 2333 0340 2C227061 		.ascii	",\"payload\":{\"n\":\"shutdownTime\",\"t\":\"i\",\""
 2333      796C6F61 
 2333      64223A7B 
 2333      226E223A 
 2333      22736875 
 2334 0368 76223A00 		.ascii	"v\":\000"
 2335              		.align	2
 2336              	.LC111:
 2337 036c 2C227061 		.ascii	",\"payload\":{\"n\":\"test\",\"t\":\"s\",\"v\":\000"
 2337      796C6F61 
 2337      64223A7B 
 2337      226E223A 
 2337      22746573 
 2338              		.align	2
 2339              	.LC113:
 2340 0390 2C227061 		.ascii	",\"payload\":{\"n\":\"innerPressure\",\"t\":\"i\",\""
 2340      796C6F61 
 2340      64223A7B 
 2340      226E223A 
 2340      22696E6E 
 2341 03b9 76223A00 		.ascii	"v\":\000"
 2342 03bd 000000   		.align	2
 2343              	.LC115:
 2344 03c0 2C227061 		.ascii	",\"payload\":{\"n\":\"outerPressure\",\"t\":\"i\",\""
 2344      796C6F61 
 2344      64223A7B 
 2344      226E223A 
 2344      226F7574 
 2345 03e9 76223A00 		.ascii	"v\":\000"
 2346 03ed 000000   		.align	2
 2347              	.LC117:
 2348 03f0 2C227061 		.ascii	",\"payload\":{\"n\":\"currentFlow\",\"t\":\"i\",\"v"
 2348      796C6F61 
 2348      64223A7B 
 2348      226E223A 
 2348      22637572 
ARM GAS  C:\Users\SDEVAS~1\AppData\Local\Temp\cc8KFjZb.s 			page 50


 2349 0418 223A00   		.ascii	"\":\000"
 2350 041b 00       		.align	2
 2351              	.LC119:
 2352 041c 2C227061 		.ascii	",\"payload\":{\"n\":\"totalVolume\",\"t\":\"i\",\"v"
 2352      796C6F61 
 2352      64223A7B 
 2352      226E223A 
 2352      22746F74 
 2353 0444 223A00   		.ascii	"\":\000"
 2354 0447 00       		.align	2
 2355              	.LC121:
 2356 0448 2C227061 		.ascii	",\"payload\":{\"n\":\"valveStatus\",\"t\":\"i\",\"v"
 2356      796C6F61 
 2356      64223A7B 
 2356      226E223A 
 2356      2276616C 
 2357 0470 223A00   		.ascii	"\":\000"
 2358 0473 00       		.align	2
 2359              	.LC123:
 2360 0474 2C227061 		.ascii	",\"payload\":{\"n\":\"lastStartNumber\",\"t\":\"i\""
 2360      796C6F61 
 2360      64223A7B 
 2360      226E223A 
 2360      226C6173 
 2361 049d 2C227622 		.ascii	",\"v\":\000"
 2361      3A00
 2362 04a3 00       		.align	2
 2363              	.LC125:
 2364 04a4 2C227061 		.ascii	",\"payload\":{\"n\":\"lastStartVolume\",\"t\":\"i\""
 2364      796C6F61 
 2364      64223A7B 
 2364      226E223A 
 2364      226C6173 
 2365 04cd 2C227622 		.ascii	",\"v\":\000"
 2365      3A00
 2366 04d3 00       		.align	2
 2367              	.LC127:
 2368 04d4 2C227061 		.ascii	",\"payload\":{\"n\":\"lastStartFlow\",\"t\":\"i\",\""
 2368      796C6F61 
 2368      64223A7B 
 2368      226E223A 
 2368      226C6173 
 2369 04fd 76223A00 		.ascii	"v\":\000"
 2370 0501 000000   		.align	2
 2371              	.LC129:
 2372 0504 2C227061 		.ascii	",\"payload\":{\"n\":\"startTime\",\"t\":\"i\",\"v\""
 2372      796C6F61 
 2372      64223A7B 
 2372      226E223A 
 2372      22737461 
 2373 052b 3A00     		.ascii	":\000"
 2374 052d 000000   		.align	2
 2375              	.LC131:
 2376 0530 2C227061 		.ascii	",\"payload\":{\"n\":\"stopTime\",\"t\":\"i\",\"v\":"
 2376      796C6F61 
 2376      64223A7B 
 2376      226E223A 
ARM GAS  C:\Users\SDEVAS~1\AppData\Local\Temp\cc8KFjZb.s 			page 51


 2376      2273746F 
 2377 0557 00       		.ascii	"\000"
 2378              		.align	2
 2379              	.LC133:
 2380 0558 2C227061 		.ascii	",\"payload\":{\"n\":\"numStarts\",\"t\":\"i\",\"v\""
 2380      796C6F61 
 2380      64223A7B 
 2380      226E223A 
 2380      226E756D 
 2381 057f 3A00     		.ascii	":\000"
 2382 0581 000000   		.align	2
 2383              	.LC135:
 2384 0584 2C227061 		.ascii	",\"payload\":{\"n\":\"volPerStart\",\"t\":\"i\",\"v"
 2384      796C6F61 
 2384      64223A7B 
 2384      226E223A 
 2384      22766F6C 
 2385 05ac 223A00   		.ascii	"\":\000"
 2386 05af 00       		.align	2
 2387              	.LC137:
 2388 05b0 2C227061 		.ascii	",\"payload\":{\"n\":\"maxVol\",\"t\":\"i\",\"v\":\000"
 2388      796C6F61 
 2388      64223A7B 
 2388      226E223A 
 2388      226D6178 
 2389 05d6 0000     		.align	2
 2390              	.LC139:
 2391 05d8 2C227061 		.ascii	",\"payload\":{\"n\":\"minVol\",\"t\":\"i\",\"v\":\000"
 2391      796C6F61 
 2391      64223A7B 
 2391      226E223A 
 2391      226D696E 
 2392 05fe 0000     		.align	2
 2393              	.LC141:
 2394 0600 2C227061 		.ascii	",\"payload\":{\"n\":\"fertigationTable0\",\"t\":\"i"
 2394      796C6F61 
 2394      64223A7B 
 2394      226E223A 
 2394      22666572 
 2395 062a 61222C22 		.ascii	"a\",\"v\":\000"
 2395      76223A00 
 2396 0632 0000     		.align	2
 2397              	.LC143:
 2398 0634 2C227061 		.ascii	",\"payload\":{\"n\":\"fertigationTable1\",\"t\":\"i"
 2398      796C6F61 
 2398      64223A7B 
 2398      226E223A 
 2398      22666572 
 2399 065e 61222C22 		.ascii	"a\",\"v\":\000"
 2399      76223A00 
 2400 0666 0000     		.align	2
 2401              	.LC145:
 2402 0668 2C227061 		.ascii	",\"payload\":{\"n\":\"fertigationTable2\",\"t\":\"i"
 2402      796C6F61 
 2402      64223A7B 
 2402      226E223A 
 2402      22666572 
ARM GAS  C:\Users\SDEVAS~1\AppData\Local\Temp\cc8KFjZb.s 			page 52


 2403 0692 61222C22 		.ascii	"a\",\"v\":\000"
 2403      76223A00 
 2404 069a 0000     		.align	2
 2405              	.LC147:
 2406 069c 2C227061 		.ascii	",\"payload\":{\"n\":\"fertigationTable3\",\"t\":\"i"
 2406      796C6F61 
 2406      64223A7B 
 2406      226E223A 
 2406      22666572 
 2407 06c6 61222C22 		.ascii	"a\",\"v\":\000"
 2407      76223A00 
 2408 06ce 0000     		.align	2
 2409              	.LC149:
 2410 06d0 2C227061 		.ascii	",\"payload\":{\"n\":\"fertigationTable4\",\"t\":\"i"
 2410      796C6F61 
 2410      64223A7B 
 2410      226E223A 
 2410      22666572 
 2411 06fa 61222C22 		.ascii	"a\",\"v\":\000"
 2411      76223A00 
 2412 0702 0000     		.align	2
 2413              	.LC151:
 2414 0704 2C227061 		.ascii	",\"payload\":{\"n\":\"fertigationTable5\",\"t\":\"i"
 2414      796C6F61 
 2414      64223A7B 
 2414      226E223A 
 2414      22666572 
 2415 072e 61222C22 		.ascii	"a\",\"v\":\000"
 2415      76223A00 
 2416 0736 0000     		.align	2
 2417              	.LC153:
 2418 0738 2C227061 		.ascii	",\"payload\":{\"n\":\"fertigationTable6\",\"t\":\"i"
 2418      796C6F61 
 2418      64223A7B 
 2418      226E223A 
 2418      22666572 
 2419 0762 61222C22 		.ascii	"a\",\"v\":\000"
 2419      76223A00 
 2420 076a 0000     		.align	2
 2421              	.LC155:
 2422 076c 2C227061 		.ascii	",\"payload\":{\"n\":\"fertigationTable7\",\"t\":\"i"
 2422      796C6F61 
 2422      64223A7B 
 2422      226E223A 
 2422      22666572 
 2423 0796 61222C22 		.ascii	"a\",\"v\":\000"
 2423      76223A00 
 2424 079e 0000     		.align	2
 2425              	.LC157:
 2426 07a0 2C227061 		.ascii	",\"payload\":{\"n\":\"fertigationTable8\",\"t\":\"i"
 2426      796C6F61 
 2426      64223A7B 
 2426      226E223A 
 2426      22666572 
 2427 07ca 61222C22 		.ascii	"a\",\"v\":\000"
 2427      76223A00 
 2428 07d2 0000     		.align	2
ARM GAS  C:\Users\SDEVAS~1\AppData\Local\Temp\cc8KFjZb.s 			page 53


 2429              	.LC159:
 2430 07d4 2C227061 		.ascii	",\"payload\":{\"n\":\"fertigationTable9\",\"t\":\"i"
 2430      796C6F61 
 2430      64223A7B 
 2430      226E223A 
 2430      22666572 
 2431 07fe 61222C22 		.ascii	"a\",\"v\":\000"
 2431      76223A00 
 2432 0806 0000     		.align	2
 2433              	.LC161:
 2434 0808 2C227061 		.ascii	",\"payload\":{\"n\":\"notBefore\",\"t\":\"i\",\"v\""
 2434      796C6F61 
 2434      64223A7B 
 2434      226E223A 
 2434      226E6F74 
 2435 082f 3A00     		.ascii	":\000"
 2436 0831 000000   		.align	2
 2437              	.LC163:
 2438 0834 2C227061 		.ascii	",\"payload\":{\"n\":\"notAfter\",\"t\":\"i\",\"v\":"
 2438      796C6F61 
 2438      64223A7B 
 2438      226E223A 
 2438      226E6F74 
 2439 085b 00       		.ascii	"\000"
 2440              		.align	2
 2441              	.LC165:
 2442 085c 2C227061 		.ascii	",\"payload\":{\"n\":\"dilutionFactorA\",\"t\":\"i\""
 2442      796C6F61 
 2442      64223A7B 
 2442      226E223A 
 2442      2264696C 
 2443 0885 2C227622 		.ascii	",\"v\":\000"
 2443      3A00
 2444 088b 00       		.align	2
 2445              	.LC167:
 2446 088c 2C227061 		.ascii	",\"payload\":{\"n\":\"dilutionFactorB\",\"t\":\"i\""
 2446      796C6F61 
 2446      64223A7B 
 2446      226E223A 
 2446      2264696C 
 2447 08b5 2C227622 		.ascii	",\"v\":\000"
 2447      3A00
 2448 08bb 00       		.align	2
 2449              	.LC169:
 2450 08bc 2C227061 		.ascii	",\"payload\":{\"n\":\"venturiSuctionA\",\"t\":\"i\""
 2450      796C6F61 
 2450      64223A7B 
 2450      226E223A 
 2450      2276656E 
 2451 08e5 2C227622 		.ascii	",\"v\":\000"
 2451      3A00
 2452 08eb 00       		.align	2
 2453              	.LC171:
 2454 08ec 2C227061 		.ascii	",\"payload\":{\"n\":\"venturiSuctionB\",\"t\":\"i\""
 2454      796C6F61 
 2454      64223A7B 
 2454      226E223A 
ARM GAS  C:\Users\SDEVAS~1\AppData\Local\Temp\cc8KFjZb.s 			page 54


 2454      2276656E 
 2455 0915 2C227622 		.ascii	",\"v\":\000"
 2455      3A00
 2456 091b 00       		.align	2
 2457              	.LC173:
 2458 091c 2C227061 		.ascii	",\"payload\":{\"n\":\"squareMeters\",\"t\":\"i\",\""
 2458      796C6F61 
 2458      64223A7B 
 2458      226E223A 
 2458      22737175 
 2459 0944 76223A00 		.ascii	"v\":\000"
 2460              		.align	2
 2461              	.LC175:
 2462 0948 2C227061 		.ascii	",\"payload\":{\"n\":\"lPerSqMeterPerDay\",\"t\":\"i"
 2462      796C6F61 
 2462      64223A7B 
 2462      226E223A 
 2462      226C5065 
 2463 0972 222C2276 		.ascii	"\",\"v\":\000"
 2463      223A00
 2464 0979 000000   		.align	2
 2465              	.LC177:
 2466 097c 2C227061 		.ascii	",\"payload\":{\"n\":\"cropType\",\"t\":\"i\",\"v\":"
 2466      796C6F61 
 2466      64223A7B 
 2466      226E223A 
 2466      2263726F 
 2467 09a3 00       		.ascii	"\000"
 2468              		.align	2
 2469              	.LC179:
 2470 09a4 2C227061 		.ascii	",\"payload\":null\000"
 2470      796C6F61 
 2470      64223A6E 
 2470      756C6C00 
 2471              		.section	.text.comm_handle_Get,"ax",%progbits
 2472              		.align	2
 2473              		.global	comm_handle_Get
 2474              		.code	16
 2475              		.thumb_func
 2476              		.type	comm_handle_Get, %function
 2477              	comm_handle_Get:
 2478              	.LFB42:
 282:.\Generated_Source\PSoC4/comm.c **** 
 283:.\Generated_Source\PSoC4/comm.c **** comm_flags_t comm_handle_Get(comm_flags_t flags, const char *payload, int payloadLen, jsmntok_t *to
 2479              		.loc 1 283 0
 2480              		.cfi_startproc
 2481 0000 B0B5     		push	{r4, r5, r7, lr}
 2482              		.cfi_def_cfa_offset 16
 2483              		.cfi_offset 4, -16
 2484              		.cfi_offset 5, -12
 2485              		.cfi_offset 7, -8
 2486              		.cfi_offset 14, -4
 2487 0002 88B0     		sub	sp, sp, #32
 2488              		.cfi_def_cfa_offset 48
 2489 0004 00AF     		add	r7, sp, #0
 2490              		.cfi_def_cfa_register 7
 2491 0006 B960     		str	r1, [r7, #8]
ARM GAS  C:\Users\SDEVAS~1\AppData\Local\Temp\cc8KFjZb.s 			page 55


 2492 0008 7A60     		str	r2, [r7, #4]
 2493 000a 3B60     		str	r3, [r7]
 2494 000c 3B1C     		mov	r3, r7
 2495 000e 0F33     		add	r3, r3, #15
 2496 0010 021C     		add	r2, r0, #0
 2497 0012 1A70     		strb	r2, [r3]
 284:.\Generated_Source\PSoC4/comm.c ****   switch(flags) {
 2498              		.loc 1 284 0
 2499 0014 3B1C     		mov	r3, r7
 2500 0016 0F33     		add	r3, r3, #15
 2501 0018 1B78     		ldrb	r3, [r3]
 2502 001a 012B     		cmp	r3, #1
 2503 001c 02D0     		beq	.L175
 285:.\Generated_Source\PSoC4/comm.c ****   case COMM_FLAG_REQ: //here is implementation of standard GET request, we are breaking case, so im
 286:.\Generated_Source\PSoC4/comm.c **** 	  break;
 287:.\Generated_Source\PSoC4/comm.c ****   case COMM_FLAG_ACK: //here can be implementation of GET ACK message, however, receiving ACK means
 288:.\Generated_Source\PSoC4/comm.c ****   default: return COMM_FLAG_UNKNOWN;//we only handle REQ and ACK
 2504              		.loc 1 288 0
 2505 001e 0023     		mov	r3, #0
 2506 0020 00F0D1FD 		bl	.L127	@ far jump
 2507              	.L175:
 286:.\Generated_Source\PSoC4/comm.c **** 	  break;
 2508              		.loc 1 286 0
 2509 0024 C046     		mov	r8, r8
 289:.\Generated_Source\PSoC4/comm.c ****   }
 290:.\Generated_Source\PSoC4/comm.c **** 
 291:.\Generated_Source\PSoC4/comm.c ****   if(tokens[0].type != JSMN_OBJECT) {
 2510              		.loc 1 291 0
 2511 0026 3B68     		ldr	r3, [r7]
 2512 0028 1B78     		ldrb	r3, [r3]
 2513 002a 012B     		cmp	r3, #1
 2514 002c 01D0     		beq	.L128
 292:.\Generated_Source\PSoC4/comm.c **** 	  //invalid payload, it should be an object
 293:.\Generated_Source\PSoC4/comm.c **** 	  goto error_exit;
 2515              		.loc 1 293 0
 2516 002e 00F0B5FD 		bl	.L129	@ far jump
 2517              	.L128:
 294:.\Generated_Source\PSoC4/comm.c ****   }
 295:.\Generated_Source\PSoC4/comm.c **** 
 296:.\Generated_Source\PSoC4/comm.c ****   int t = 1;
 2518              		.loc 1 296 0
 2519 0032 0123     		mov	r3, #1
 2520 0034 FB61     		str	r3, [r7, #28]
 297:.\Generated_Source\PSoC4/comm.c ****   atom_variables_id_t avid = INVALID_ATOM_VARIABLE;
 2521              		.loc 1 297 0
 2522 0036 3B1C     		mov	r3, r7
 2523 0038 1B33     		add	r3, r3, #27
 2524 003a 2522     		mov	r2, #37
 2525 003c 1A70     		strb	r2, [r3]
 298:.\Generated_Source\PSoC4/comm.c ****   int i = 0;
 2526              		.loc 1 298 0
 2527 003e 0023     		mov	r3, #0
 2528 0040 7B61     		str	r3, [r7, #20]
 299:.\Generated_Source\PSoC4/comm.c ****   for(; i < tokens[0].size; i++) {
 2529              		.loc 1 299 0
 2530 0042 42E0     		b	.L130
 2531              	.L134:
ARM GAS  C:\Users\SDEVAS~1\AppData\Local\Temp\cc8KFjZb.s 			page 56


 300:.\Generated_Source\PSoC4/comm.c **** 	if(tokens[t].type != JSMN_STRING) {//it should point to key
 2532              		.loc 1 300 0
 2533 0044 FB69     		ldr	r3, [r7, #28]
 2534 0046 1B01     		lsl	r3, r3, #4
 2535 0048 3A68     		ldr	r2, [r7]
 2536 004a D318     		add	r3, r2, r3
 2537 004c 1B78     		ldrb	r3, [r3]
 2538 004e 032B     		cmp	r3, #3
 2539 0050 01D0     		beq	.L131
 301:.\Generated_Source\PSoC4/comm.c **** 	  //something is wrong with payload
 302:.\Generated_Source\PSoC4/comm.c **** 	  goto error_exit;
 2540              		.loc 1 302 0
 2541 0052 00F0A3FD 		bl	.L129	@ far jump
 2542              	.L131:
 303:.\Generated_Source\PSoC4/comm.c **** 	}
 304:.\Generated_Source\PSoC4/comm.c ****     if(compKey(payload, &tokens[t], "n") == 0) {
 2543              		.loc 1 304 0
 2544 0056 FB69     		ldr	r3, [r7, #28]
 2545 0058 1B01     		lsl	r3, r3, #4
 2546 005a 3A68     		ldr	r2, [r7]
 2547 005c D218     		add	r2, r2, r3
 2548 005e B968     		ldr	r1, [r7, #8]
 2549 0060 EC4B     		ldr	r3, .L178
 2550 0062 081C     		mov	r0, r1
 2551 0064 111C     		mov	r1, r2
 2552 0066 1A1C     		mov	r2, r3
 2553 0068 FFF7FEFF 		bl	compKey
 2554 006c 031C     		mov	r3, r0
 2555 006e 002B     		cmp	r3, #0
 2556 0070 1DD1     		bne	.L132
 305:.\Generated_Source\PSoC4/comm.c ****       //printf("%.*s\n", tokens[t+1].end - tokens[t+1].start, payload + tokens[t+1].start);
 306:.\Generated_Source\PSoC4/comm.c ****       avid = get_atom_variable_id_from_string(payload + tokens[t+1].start,tokens[t+1].end - tokens[
 2557              		.loc 1 306 0
 2558 0072 FB69     		ldr	r3, [r7, #28]
 2559 0074 0133     		add	r3, r3, #1
 2560 0076 1B01     		lsl	r3, r3, #4
 2561 0078 3A68     		ldr	r2, [r7]
 2562 007a D318     		add	r3, r2, r3
 2563 007c 5B68     		ldr	r3, [r3, #4]
 2564 007e BA68     		ldr	r2, [r7, #8]
 2565 0080 D218     		add	r2, r2, r3
 2566 0082 FB69     		ldr	r3, [r7, #28]
 2567 0084 0133     		add	r3, r3, #1
 2568 0086 1B01     		lsl	r3, r3, #4
 2569 0088 3968     		ldr	r1, [r7]
 2570 008a CB18     		add	r3, r1, r3
 2571 008c 9968     		ldr	r1, [r3, #8]
 2572 008e FB69     		ldr	r3, [r7, #28]
 2573 0090 0133     		add	r3, r3, #1
 2574 0092 1B01     		lsl	r3, r3, #4
 2575 0094 3868     		ldr	r0, [r7]
 2576 0096 C318     		add	r3, r0, r3
 2577 0098 5B68     		ldr	r3, [r3, #4]
 2578 009a CB1A     		sub	r3, r1, r3
 2579 009c 3C1C     		mov	r4, r7
 2580 009e 1B34     		add	r4, r4, #27
 2581 00a0 101C     		mov	r0, r2
ARM GAS  C:\Users\SDEVAS~1\AppData\Local\Temp\cc8KFjZb.s 			page 57


 2582 00a2 191C     		mov	r1, r3
 2583 00a4 FFF7FEFF 		bl	get_atom_variable_id_from_string
 2584 00a8 031C     		mov	r3, r0
 2585 00aa 2370     		strb	r3, [r4]
 307:.\Generated_Source\PSoC4/comm.c ****       break;
 2586              		.loc 1 307 0
 2587 00ac 12E0     		b	.L133
 2588              	.L132:
 308:.\Generated_Source\PSoC4/comm.c ****     }
 309:.\Generated_Source\PSoC4/comm.c ****     t = skipToNextTokenInLevel(tokens, ++t);
 2589              		.loc 1 309 0
 2590 00ae FB69     		ldr	r3, [r7, #28]
 2591 00b0 0133     		add	r3, r3, #1
 2592 00b2 FB61     		str	r3, [r7, #28]
 2593 00b4 3A68     		ldr	r2, [r7]
 2594 00b6 FB69     		ldr	r3, [r7, #28]
 2595 00b8 101C     		mov	r0, r2
 2596 00ba 191C     		mov	r1, r3
 2597 00bc FFF7FEFF 		bl	skipToNextTokenInLevel
 2598 00c0 031C     		mov	r3, r0
 2599 00c2 FB61     		str	r3, [r7, #28]
 299:.\Generated_Source\PSoC4/comm.c ****   for(; i < tokens[0].size; i++) {
 2600              		.loc 1 299 0
 2601 00c4 7B69     		ldr	r3, [r7, #20]
 2602 00c6 0133     		add	r3, r3, #1
 2603 00c8 7B61     		str	r3, [r7, #20]
 2604              	.L130:
 299:.\Generated_Source\PSoC4/comm.c ****   for(; i < tokens[0].size; i++) {
 2605              		.loc 1 299 0 is_stmt 0 discriminator 1
 2606 00ca 3B68     		ldr	r3, [r7]
 2607 00cc DA68     		ldr	r2, [r3, #12]
 2608 00ce 7B69     		ldr	r3, [r7, #20]
 2609 00d0 9A42     		cmp	r2, r3
 2610 00d2 B7DC     		bgt	.L134
 2611              	.L133:
 310:.\Generated_Source\PSoC4/comm.c ****   }
 311:.\Generated_Source\PSoC4/comm.c ****   if(avid == INVALID_ATOM_VARIABLE) {
 2612              		.loc 1 311 0 is_stmt 1
 2613 00d4 3B1C     		mov	r3, r7
 2614 00d6 1B33     		add	r3, r3, #27
 2615 00d8 1B78     		ldrb	r3, [r3]
 2616 00da 252B     		cmp	r3, #37
 2617 00dc 01D1     		bne	.L135
 312:.\Generated_Source\PSoC4/comm.c **** 	  //failed to properly parse Payload, not found variable or unknown
 313:.\Generated_Source\PSoC4/comm.c **** 	  goto error_exit;
 2618              		.loc 1 313 0
 2619 00de 00F05DFD 		bl	.L129	@ far jump
 2620              	.L135:
 314:.\Generated_Source\PSoC4/comm.c ****   }
 315:.\Generated_Source\PSoC4/comm.c **** 
 316:.\Generated_Source\PSoC4/comm.c ****   int tmp = 0;
 2621              		.loc 1 316 0
 2622 00e2 0023     		mov	r3, #0
 2623 00e4 3B61     		str	r3, [r7, #16]
 317:.\Generated_Source\PSoC4/comm.c ****   switch(avid) {
 2624              		.loc 1 317 0
 2625 00e6 3B1C     		mov	r3, r7
ARM GAS  C:\Users\SDEVAS~1\AppData\Local\Temp\cc8KFjZb.s 			page 58


 2626 00e8 1B33     		add	r3, r3, #27
 2627 00ea 1B78     		ldrb	r3, [r3]
 2628 00ec 232B     		cmp	r3, #35
 2629 00ee 01D9     		bls	.LCB2095
 2630 00f0 00F053FD 		bl	.L176	@far jump
 2631              	.LCB2095:
 2632 00f4 9A00     		lsl	r2, r3, #2
 2633 00f6 C84B     		ldr	r3, .L178+4
 2634 00f8 D318     		add	r3, r2, r3
 2635 00fa 1B68     		ldr	r3, [r3]
 2636 00fc 9F46     		mov	pc, r3
 2637              		.section	.rodata
 2638              		.align	2
 2639              	.L138:
 2640 09b4 FE000000 		.word	.L137
 2641 09b8 46010000 		.word	.L139
 2642 09bc 8E010000 		.word	.L140
 2643 09c0 D6010000 		.word	.L141
 2644 09c4 1E020000 		.word	.L142
 2645 09c8 66020000 		.word	.L143
 2646 09cc AE020000 		.word	.L144
 2647 09d0 F6020000 		.word	.L145
 2648 09d4 3E030000 		.word	.L146
 2649 09d8 86030000 		.word	.L147
 2650 09dc CC030000 		.word	.L148
 2651 09e0 50040000 		.word	.L149
 2652 09e4 96040000 		.word	.L150
 2653 09e8 DC040000 		.word	.L151
 2654 09ec 22050000 		.word	.L152
 2655 09f0 68050000 		.word	.L153
 2656 09f4 AE050000 		.word	.L154
 2657 09f8 F4050000 		.word	.L155
 2658 09fc 3A060000 		.word	.L156
 2659 0a00 80060000 		.word	.L157
 2660 0a04 C6060000 		.word	.L158
 2661 0a08 0C070000 		.word	.L159
 2662 0a0c 52070000 		.word	.L160
 2663 0a10 98070000 		.word	.L161
 2664 0a14 DE070000 		.word	.L162
 2665 0a18 64080000 		.word	.L163
 2666 0a1c AA080000 		.word	.L164
 2667 0a20 F0080000 		.word	.L165
 2668 0a24 36090000 		.word	.L166
 2669 0a28 7C090000 		.word	.L167
 2670 0a2c C2090000 		.word	.L168
 2671 0a30 080A0000 		.word	.L169
 2672 0a34 4E0A0000 		.word	.L170
 2673 0a38 940A0000 		.word	.L171
 2674 0a3c DA0A0000 		.word	.L172
 2675 0a40 200B0000 		.word	.L173
 2676              		.section	.text.comm_handle_Get
 2677              	.L137:
 318:.\Generated_Source\PSoC4/comm.c **** #define X(name, vtype, jtype) \
 319:.\Generated_Source\PSoC4/comm.c ****     case ATOM_VARIABLE_##name: { \
 320:.\Generated_Source\PSoC4/comm.c ****       ADD_STATIC_STRING_TO_RESP(",\"payload\":{\"n\":\"" #name "\",\"t\":\"" #jtype "\",\"v\":"); \
 321:.\Generated_Source\PSoC4/comm.c ****       tmp = conv_##jtype##2str(respEnd, respFreeSpace, getvar_##name()); \
 322:.\Generated_Source\PSoC4/comm.c ****     } break;
ARM GAS  C:\Users\SDEVAS~1\AppData\Local\Temp\cc8KFjZb.s 			page 59


 323:.\Generated_Source\PSoC4/comm.c ****     ATOM_VARIABLES
 2678              		.loc 1 323 0
 2679 00fe C74B     		ldr	r3, .L178+8
 2680 0100 1A68     		ldr	r2, [r3]
 2681 0102 C74B     		ldr	r3, .L178+12
 2682 0104 101C     		mov	r0, r2
 2683 0106 191C     		mov	r1, r3
 2684 0108 2B22     		mov	r2, #43
 2685 010a FFF7FEFF 		bl	memcpy
 2686 010e C34B     		ldr	r3, .L178+8
 2687 0110 1B68     		ldr	r3, [r3]
 2688 0112 1A1C     		mov	r2, r3
 2689 0114 2A32     		add	r2, r2, #42
 2690 0116 C14B     		ldr	r3, .L178+8
 2691 0118 1A60     		str	r2, [r3]
 2692 011a C24B     		ldr	r3, .L178+16
 2693 011c 1B68     		ldr	r3, [r3]
 2694 011e 2A3B     		sub	r3, r3, #42
 2695 0120 1A1C     		mov	r2, r3
 2696 0122 C04B     		ldr	r3, .L178+16
 2697 0124 1A60     		str	r2, [r3]
 2698 0126 BD4B     		ldr	r3, .L178+8
 2699 0128 1D68     		ldr	r5, [r3]
 2700 012a BE4B     		ldr	r3, .L178+16
 2701 012c 1C68     		ldr	r4, [r3]
 2702 012e FFF7FEFF 		bl	getvar_sleepPeriod
 2703 0132 031C     		mov	r3, r0
 2704 0134 281C     		mov	r0, r5
 2705 0136 211C     		mov	r1, r4
 2706 0138 1A1C     		mov	r2, r3
 2707 013a FFF7FEFF 		bl	conv_i2str
 2708 013e 031C     		mov	r3, r0
 2709 0140 3B61     		str	r3, [r7, #16]
 2710 0142 00F00FFD 		bl	.L177	@ far jump
 2711              	.L139:
 2712 0146 B54B     		ldr	r3, .L178+8
 2713 0148 1A68     		ldr	r2, [r3]
 2714 014a B74B     		ldr	r3, .L178+20
 2715 014c 101C     		mov	r0, r2
 2716 014e 191C     		mov	r1, r3
 2717 0150 2C22     		mov	r2, #44
 2718 0152 FFF7FEFF 		bl	memcpy
 2719 0156 B14B     		ldr	r3, .L178+8
 2720 0158 1B68     		ldr	r3, [r3]
 2721 015a 1A1C     		mov	r2, r3
 2722 015c 2B32     		add	r2, r2, #43
 2723 015e AF4B     		ldr	r3, .L178+8
 2724 0160 1A60     		str	r2, [r3]
 2725 0162 B04B     		ldr	r3, .L178+16
 2726 0164 1B68     		ldr	r3, [r3]
 2727 0166 2B3B     		sub	r3, r3, #43
 2728 0168 1A1C     		mov	r2, r3
 2729 016a AE4B     		ldr	r3, .L178+16
 2730 016c 1A60     		str	r2, [r3]
 2731 016e AB4B     		ldr	r3, .L178+8
 2732 0170 1D68     		ldr	r5, [r3]
 2733 0172 AC4B     		ldr	r3, .L178+16
ARM GAS  C:\Users\SDEVAS~1\AppData\Local\Temp\cc8KFjZb.s 			page 60


 2734 0174 1C68     		ldr	r4, [r3]
 2735 0176 FFF7FEFF 		bl	getvar_shutdownTime
 2736 017a 031C     		mov	r3, r0
 2737 017c 281C     		mov	r0, r5
 2738 017e 211C     		mov	r1, r4
 2739 0180 1A1C     		mov	r2, r3
 2740 0182 FFF7FEFF 		bl	conv_i2str
 2741 0186 031C     		mov	r3, r0
 2742 0188 3B61     		str	r3, [r7, #16]
 2743 018a 00F0EBFC 		bl	.L177	@ far jump
 2744              	.L140:
 2745 018e A34B     		ldr	r3, .L178+8
 2746 0190 1A68     		ldr	r2, [r3]
 2747 0192 A64B     		ldr	r3, .L178+24
 2748 0194 101C     		mov	r0, r2
 2749 0196 191C     		mov	r1, r3
 2750 0198 2422     		mov	r2, #36
 2751 019a FFF7FEFF 		bl	memcpy
 2752 019e 9F4B     		ldr	r3, .L178+8
 2753 01a0 1B68     		ldr	r3, [r3]
 2754 01a2 1A1C     		mov	r2, r3
 2755 01a4 2332     		add	r2, r2, #35
 2756 01a6 9D4B     		ldr	r3, .L178+8
 2757 01a8 1A60     		str	r2, [r3]
 2758 01aa 9E4B     		ldr	r3, .L178+16
 2759 01ac 1B68     		ldr	r3, [r3]
 2760 01ae 233B     		sub	r3, r3, #35
 2761 01b0 1A1C     		mov	r2, r3
 2762 01b2 9C4B     		ldr	r3, .L178+16
 2763 01b4 1A60     		str	r2, [r3]
 2764 01b6 994B     		ldr	r3, .L178+8
 2765 01b8 1D68     		ldr	r5, [r3]
 2766 01ba 9A4B     		ldr	r3, .L178+16
 2767 01bc 1C68     		ldr	r4, [r3]
 2768 01be FFF7FEFF 		bl	getvar_test
 2769 01c2 031C     		mov	r3, r0
 2770 01c4 281C     		mov	r0, r5
 2771 01c6 211C     		mov	r1, r4
 2772 01c8 1A1C     		mov	r2, r3
 2773 01ca FFF7FEFF 		bl	conv_s2str
 2774 01ce 031C     		mov	r3, r0
 2775 01d0 3B61     		str	r3, [r7, #16]
 2776 01d2 00F0C7FC 		bl	.L177	@ far jump
 2777              	.L141:
 2778 01d6 914B     		ldr	r3, .L178+8
 2779 01d8 1A68     		ldr	r2, [r3]
 2780 01da 954B     		ldr	r3, .L178+28
 2781 01dc 101C     		mov	r0, r2
 2782 01de 191C     		mov	r1, r3
 2783 01e0 2D22     		mov	r2, #45
 2784 01e2 FFF7FEFF 		bl	memcpy
 2785 01e6 8D4B     		ldr	r3, .L178+8
 2786 01e8 1B68     		ldr	r3, [r3]
 2787 01ea 1A1C     		mov	r2, r3
 2788 01ec 2C32     		add	r2, r2, #44
 2789 01ee 8B4B     		ldr	r3, .L178+8
 2790 01f0 1A60     		str	r2, [r3]
ARM GAS  C:\Users\SDEVAS~1\AppData\Local\Temp\cc8KFjZb.s 			page 61


 2791 01f2 8C4B     		ldr	r3, .L178+16
 2792 01f4 1B68     		ldr	r3, [r3]
 2793 01f6 2C3B     		sub	r3, r3, #44
 2794 01f8 1A1C     		mov	r2, r3
 2795 01fa 8A4B     		ldr	r3, .L178+16
 2796 01fc 1A60     		str	r2, [r3]
 2797 01fe 874B     		ldr	r3, .L178+8
 2798 0200 1D68     		ldr	r5, [r3]
 2799 0202 884B     		ldr	r3, .L178+16
 2800 0204 1C68     		ldr	r4, [r3]
 2801 0206 FFF7FEFF 		bl	getvar_innerPressure
 2802 020a 031C     		mov	r3, r0
 2803 020c 281C     		mov	r0, r5
 2804 020e 211C     		mov	r1, r4
 2805 0210 1A1C     		mov	r2, r3
 2806 0212 FFF7FEFF 		bl	conv_i2str
 2807 0216 031C     		mov	r3, r0
 2808 0218 3B61     		str	r3, [r7, #16]
 2809 021a 00F0A3FC 		bl	.L177	@ far jump
 2810              	.L142:
 2811 021e 7F4B     		ldr	r3, .L178+8
 2812 0220 1A68     		ldr	r2, [r3]
 2813 0222 844B     		ldr	r3, .L178+32
 2814 0224 101C     		mov	r0, r2
 2815 0226 191C     		mov	r1, r3
 2816 0228 2D22     		mov	r2, #45
 2817 022a FFF7FEFF 		bl	memcpy
 2818 022e 7B4B     		ldr	r3, .L178+8
 2819 0230 1B68     		ldr	r3, [r3]
 2820 0232 1A1C     		mov	r2, r3
 2821 0234 2C32     		add	r2, r2, #44
 2822 0236 794B     		ldr	r3, .L178+8
 2823 0238 1A60     		str	r2, [r3]
 2824 023a 7A4B     		ldr	r3, .L178+16
 2825 023c 1B68     		ldr	r3, [r3]
 2826 023e 2C3B     		sub	r3, r3, #44
 2827 0240 1A1C     		mov	r2, r3
 2828 0242 784B     		ldr	r3, .L178+16
 2829 0244 1A60     		str	r2, [r3]
 2830 0246 754B     		ldr	r3, .L178+8
 2831 0248 1D68     		ldr	r5, [r3]
 2832 024a 764B     		ldr	r3, .L178+16
 2833 024c 1C68     		ldr	r4, [r3]
 2834 024e FFF7FEFF 		bl	getvar_outerPressure
 2835 0252 031C     		mov	r3, r0
 2836 0254 281C     		mov	r0, r5
 2837 0256 211C     		mov	r1, r4
 2838 0258 1A1C     		mov	r2, r3
 2839 025a FFF7FEFF 		bl	conv_i2str
 2840 025e 031C     		mov	r3, r0
 2841 0260 3B61     		str	r3, [r7, #16]
 2842 0262 00F07FFC 		bl	.L177	@ far jump
 2843              	.L143:
 2844 0266 6D4B     		ldr	r3, .L178+8
 2845 0268 1A68     		ldr	r2, [r3]
 2846 026a 734B     		ldr	r3, .L178+36
 2847 026c 101C     		mov	r0, r2
ARM GAS  C:\Users\SDEVAS~1\AppData\Local\Temp\cc8KFjZb.s 			page 62


 2848 026e 191C     		mov	r1, r3
 2849 0270 2B22     		mov	r2, #43
 2850 0272 FFF7FEFF 		bl	memcpy
 2851 0276 694B     		ldr	r3, .L178+8
 2852 0278 1B68     		ldr	r3, [r3]
 2853 027a 1A1C     		mov	r2, r3
 2854 027c 2A32     		add	r2, r2, #42
 2855 027e 674B     		ldr	r3, .L178+8
 2856 0280 1A60     		str	r2, [r3]
 2857 0282 684B     		ldr	r3, .L178+16
 2858 0284 1B68     		ldr	r3, [r3]
 2859 0286 2A3B     		sub	r3, r3, #42
 2860 0288 1A1C     		mov	r2, r3
 2861 028a 664B     		ldr	r3, .L178+16
 2862 028c 1A60     		str	r2, [r3]
 2863 028e 634B     		ldr	r3, .L178+8
 2864 0290 1D68     		ldr	r5, [r3]
 2865 0292 644B     		ldr	r3, .L178+16
 2866 0294 1C68     		ldr	r4, [r3]
 2867 0296 FFF7FEFF 		bl	getvar_currentFlow
 2868 029a 031C     		mov	r3, r0
 2869 029c 281C     		mov	r0, r5
 2870 029e 211C     		mov	r1, r4
 2871 02a0 1A1C     		mov	r2, r3
 2872 02a2 FFF7FEFF 		bl	conv_i2str
 2873 02a6 031C     		mov	r3, r0
 2874 02a8 3B61     		str	r3, [r7, #16]
 2875 02aa 00F05BFC 		bl	.L177	@ far jump
 2876              	.L144:
 2877 02ae 5B4B     		ldr	r3, .L178+8
 2878 02b0 1A68     		ldr	r2, [r3]
 2879 02b2 624B     		ldr	r3, .L178+40
 2880 02b4 101C     		mov	r0, r2
 2881 02b6 191C     		mov	r1, r3
 2882 02b8 2B22     		mov	r2, #43
 2883 02ba FFF7FEFF 		bl	memcpy
 2884 02be 574B     		ldr	r3, .L178+8
 2885 02c0 1B68     		ldr	r3, [r3]
 2886 02c2 1A1C     		mov	r2, r3
 2887 02c4 2A32     		add	r2, r2, #42
 2888 02c6 554B     		ldr	r3, .L178+8
 2889 02c8 1A60     		str	r2, [r3]
 2890 02ca 564B     		ldr	r3, .L178+16
 2891 02cc 1B68     		ldr	r3, [r3]
 2892 02ce 2A3B     		sub	r3, r3, #42
 2893 02d0 1A1C     		mov	r2, r3
 2894 02d2 544B     		ldr	r3, .L178+16
 2895 02d4 1A60     		str	r2, [r3]
 2896 02d6 514B     		ldr	r3, .L178+8
 2897 02d8 1D68     		ldr	r5, [r3]
 2898 02da 524B     		ldr	r3, .L178+16
 2899 02dc 1C68     		ldr	r4, [r3]
 2900 02de FFF7FEFF 		bl	getvar_totalVolume
 2901 02e2 031C     		mov	r3, r0
 2902 02e4 281C     		mov	r0, r5
 2903 02e6 211C     		mov	r1, r4
 2904 02e8 1A1C     		mov	r2, r3
ARM GAS  C:\Users\SDEVAS~1\AppData\Local\Temp\cc8KFjZb.s 			page 63


 2905 02ea FFF7FEFF 		bl	conv_i2str
 2906 02ee 031C     		mov	r3, r0
 2907 02f0 3B61     		str	r3, [r7, #16]
 2908 02f2 00F037FC 		bl	.L177	@ far jump
 2909              	.L145:
 2910 02f6 494B     		ldr	r3, .L178+8
 2911 02f8 1A68     		ldr	r2, [r3]
 2912 02fa 514B     		ldr	r3, .L178+44
 2913 02fc 101C     		mov	r0, r2
 2914 02fe 191C     		mov	r1, r3
 2915 0300 2B22     		mov	r2, #43
 2916 0302 FFF7FEFF 		bl	memcpy
 2917 0306 454B     		ldr	r3, .L178+8
 2918 0308 1B68     		ldr	r3, [r3]
 2919 030a 1A1C     		mov	r2, r3
 2920 030c 2A32     		add	r2, r2, #42
 2921 030e 434B     		ldr	r3, .L178+8
 2922 0310 1A60     		str	r2, [r3]
 2923 0312 444B     		ldr	r3, .L178+16
 2924 0314 1B68     		ldr	r3, [r3]
 2925 0316 2A3B     		sub	r3, r3, #42
 2926 0318 1A1C     		mov	r2, r3
 2927 031a 424B     		ldr	r3, .L178+16
 2928 031c 1A60     		str	r2, [r3]
 2929 031e 3F4B     		ldr	r3, .L178+8
 2930 0320 1D68     		ldr	r5, [r3]
 2931 0322 404B     		ldr	r3, .L178+16
 2932 0324 1C68     		ldr	r4, [r3]
 2933 0326 FFF7FEFF 		bl	getvar_valveStatus
 2934 032a 031C     		mov	r3, r0
 2935 032c 281C     		mov	r0, r5
 2936 032e 211C     		mov	r1, r4
 2937 0330 1A1C     		mov	r2, r3
 2938 0332 FFF7FEFF 		bl	conv_i2str
 2939 0336 031C     		mov	r3, r0
 2940 0338 3B61     		str	r3, [r7, #16]
 2941 033a 00F013FC 		bl	.L177	@ far jump
 2942              	.L146:
 2943 033e 374B     		ldr	r3, .L178+8
 2944 0340 1A68     		ldr	r2, [r3]
 2945 0342 404B     		ldr	r3, .L178+48
 2946 0344 101C     		mov	r0, r2
 2947 0346 191C     		mov	r1, r3
 2948 0348 2F22     		mov	r2, #47
 2949 034a FFF7FEFF 		bl	memcpy
 2950 034e 334B     		ldr	r3, .L178+8
 2951 0350 1B68     		ldr	r3, [r3]
 2952 0352 1A1C     		mov	r2, r3
 2953 0354 2E32     		add	r2, r2, #46
 2954 0356 314B     		ldr	r3, .L178+8
 2955 0358 1A60     		str	r2, [r3]
 2956 035a 324B     		ldr	r3, .L178+16
 2957 035c 1B68     		ldr	r3, [r3]
 2958 035e 2E3B     		sub	r3, r3, #46
 2959 0360 1A1C     		mov	r2, r3
 2960 0362 304B     		ldr	r3, .L178+16
 2961 0364 1A60     		str	r2, [r3]
ARM GAS  C:\Users\SDEVAS~1\AppData\Local\Temp\cc8KFjZb.s 			page 64


 2962 0366 2D4B     		ldr	r3, .L178+8
 2963 0368 1D68     		ldr	r5, [r3]
 2964 036a 2E4B     		ldr	r3, .L178+16
 2965 036c 1C68     		ldr	r4, [r3]
 2966 036e FFF7FEFF 		bl	getvar_lastStartNumber
 2967 0372 031C     		mov	r3, r0
 2968 0374 281C     		mov	r0, r5
 2969 0376 211C     		mov	r1, r4
 2970 0378 1A1C     		mov	r2, r3
 2971 037a FFF7FEFF 		bl	conv_i2str
 2972 037e 031C     		mov	r3, r0
 2973 0380 3B61     		str	r3, [r7, #16]
 2974 0382 00F0EFFB 		bl	.L177	@ far jump
 2975              	.L147:
 2976 0386 254B     		ldr	r3, .L178+8
 2977 0388 1A68     		ldr	r2, [r3]
 2978 038a 2F4B     		ldr	r3, .L178+52
 2979 038c 101C     		mov	r0, r2
 2980 038e 191C     		mov	r1, r3
 2981 0390 2F22     		mov	r2, #47
 2982 0392 FFF7FEFF 		bl	memcpy
 2983 0396 214B     		ldr	r3, .L178+8
 2984 0398 1B68     		ldr	r3, [r3]
 2985 039a 1A1C     		mov	r2, r3
 2986 039c 2E32     		add	r2, r2, #46
 2987 039e 1F4B     		ldr	r3, .L178+8
 2988 03a0 1A60     		str	r2, [r3]
 2989 03a2 204B     		ldr	r3, .L178+16
 2990 03a4 1B68     		ldr	r3, [r3]
 2991 03a6 2E3B     		sub	r3, r3, #46
 2992 03a8 1A1C     		mov	r2, r3
 2993 03aa 1E4B     		ldr	r3, .L178+16
 2994 03ac 1A60     		str	r2, [r3]
 2995 03ae 1B4B     		ldr	r3, .L178+8
 2996 03b0 1D68     		ldr	r5, [r3]
 2997 03b2 1C4B     		ldr	r3, .L178+16
 2998 03b4 1C68     		ldr	r4, [r3]
 2999 03b6 FFF7FEFF 		bl	getvar_lastStartVolume
 3000 03ba 031C     		mov	r3, r0
 3001 03bc 281C     		mov	r0, r5
 3002 03be 211C     		mov	r1, r4
 3003 03c0 1A1C     		mov	r2, r3
 3004 03c2 FFF7FEFF 		bl	conv_i2str
 3005 03c6 031C     		mov	r3, r0
 3006 03c8 3B61     		str	r3, [r7, #16]
 3007 03ca CBE3     		b	.L177
 3008              	.L148:
 3009 03cc 134B     		ldr	r3, .L178+8
 3010 03ce 1A68     		ldr	r2, [r3]
 3011 03d0 1E4B     		ldr	r3, .L178+56
 3012 03d2 101C     		mov	r0, r2
 3013 03d4 191C     		mov	r1, r3
 3014 03d6 2D22     		mov	r2, #45
 3015 03d8 FFF7FEFF 		bl	memcpy
 3016 03dc 0F4B     		ldr	r3, .L178+8
 3017 03de 1B68     		ldr	r3, [r3]
 3018 03e0 1A1C     		mov	r2, r3
ARM GAS  C:\Users\SDEVAS~1\AppData\Local\Temp\cc8KFjZb.s 			page 65


 3019 03e2 2C32     		add	r2, r2, #44
 3020 03e4 0D4B     		ldr	r3, .L178+8
 3021 03e6 1A60     		str	r2, [r3]
 3022 03e8 0E4B     		ldr	r3, .L178+16
 3023 03ea 1B68     		ldr	r3, [r3]
 3024 03ec 2C3B     		sub	r3, r3, #44
 3025 03ee 1A1C     		mov	r2, r3
 3026 03f0 0C4B     		ldr	r3, .L178+16
 3027 03f2 1A60     		str	r2, [r3]
 3028 03f4 094B     		ldr	r3, .L178+8
 3029 03f6 1D68     		ldr	r5, [r3]
 3030 03f8 0A4B     		ldr	r3, .L178+16
 3031 03fa 1C68     		ldr	r4, [r3]
 3032 03fc FFF7FEFF 		bl	getvar_lastStartFlow
 3033 0400 031C     		mov	r3, r0
 3034 0402 281C     		mov	r0, r5
 3035 0404 211C     		mov	r1, r4
 3036 0406 1A1C     		mov	r2, r3
 3037 0408 FFF7FEFF 		bl	conv_i2str
 3038 040c 031C     		mov	r3, r0
 3039 040e 3B61     		str	r3, [r7, #16]
 3040 0410 A8E3     		b	.L177
 3041              	.L179:
 3042 0412 C046     		.align	2
 3043              	.L178:
 3044 0414 10030000 		.word	.LC102
 3045 0418 B4090000 		.word	.L138
 3046 041c 00000000 		.word	respEnd
 3047 0420 14030000 		.word	.LC106
 3048 0424 00000000 		.word	respFreeSpace
 3049 0428 40030000 		.word	.LC109
 3050 042c 6C030000 		.word	.LC111
 3051 0430 90030000 		.word	.LC113
 3052 0434 C0030000 		.word	.LC115
 3053 0438 F0030000 		.word	.LC117
 3054 043c 1C040000 		.word	.LC119
 3055 0440 48040000 		.word	.LC121
 3056 0444 74040000 		.word	.LC123
 3057 0448 A4040000 		.word	.LC125
 3058 044c D4040000 		.word	.LC127
 3059              	.L149:
 3060 0450 F44B     		ldr	r3, .L180
 3061 0452 1A68     		ldr	r2, [r3]
 3062 0454 F44B     		ldr	r3, .L180+4
 3063 0456 101C     		mov	r0, r2
 3064 0458 191C     		mov	r1, r3
 3065 045a 2922     		mov	r2, #41
 3066 045c FFF7FEFF 		bl	memcpy
 3067 0460 F04B     		ldr	r3, .L180
 3068 0462 1B68     		ldr	r3, [r3]
 3069 0464 1A1C     		mov	r2, r3
 3070 0466 2832     		add	r2, r2, #40
 3071 0468 EE4B     		ldr	r3, .L180
 3072 046a 1A60     		str	r2, [r3]
 3073 046c EF4B     		ldr	r3, .L180+8
 3074 046e 1B68     		ldr	r3, [r3]
 3075 0470 283B     		sub	r3, r3, #40
ARM GAS  C:\Users\SDEVAS~1\AppData\Local\Temp\cc8KFjZb.s 			page 66


 3076 0472 1A1C     		mov	r2, r3
 3077 0474 ED4B     		ldr	r3, .L180+8
 3078 0476 1A60     		str	r2, [r3]
 3079 0478 EA4B     		ldr	r3, .L180
 3080 047a 1D68     		ldr	r5, [r3]
 3081 047c EB4B     		ldr	r3, .L180+8
 3082 047e 1C68     		ldr	r4, [r3]
 3083 0480 FFF7FEFF 		bl	getvar_startTime
 3084 0484 031C     		mov	r3, r0
 3085 0486 281C     		mov	r0, r5
 3086 0488 211C     		mov	r1, r4
 3087 048a 1A1C     		mov	r2, r3
 3088 048c FFF7FEFF 		bl	conv_i2str
 3089 0490 031C     		mov	r3, r0
 3090 0492 3B61     		str	r3, [r7, #16]
 3091 0494 66E3     		b	.L177
 3092              	.L150:
 3093 0496 E34B     		ldr	r3, .L180
 3094 0498 1A68     		ldr	r2, [r3]
 3095 049a E54B     		ldr	r3, .L180+12
 3096 049c 101C     		mov	r0, r2
 3097 049e 191C     		mov	r1, r3
 3098 04a0 2822     		mov	r2, #40
 3099 04a2 FFF7FEFF 		bl	memcpy
 3100 04a6 DF4B     		ldr	r3, .L180
 3101 04a8 1B68     		ldr	r3, [r3]
 3102 04aa 1A1C     		mov	r2, r3
 3103 04ac 2732     		add	r2, r2, #39
 3104 04ae DD4B     		ldr	r3, .L180
 3105 04b0 1A60     		str	r2, [r3]
 3106 04b2 DE4B     		ldr	r3, .L180+8
 3107 04b4 1B68     		ldr	r3, [r3]
 3108 04b6 273B     		sub	r3, r3, #39
 3109 04b8 1A1C     		mov	r2, r3
 3110 04ba DC4B     		ldr	r3, .L180+8
 3111 04bc 1A60     		str	r2, [r3]
 3112 04be D94B     		ldr	r3, .L180
 3113 04c0 1D68     		ldr	r5, [r3]
 3114 04c2 DA4B     		ldr	r3, .L180+8
 3115 04c4 1C68     		ldr	r4, [r3]
 3116 04c6 FFF7FEFF 		bl	getvar_stopTime
 3117 04ca 031C     		mov	r3, r0
 3118 04cc 281C     		mov	r0, r5
 3119 04ce 211C     		mov	r1, r4
 3120 04d0 1A1C     		mov	r2, r3
 3121 04d2 FFF7FEFF 		bl	conv_i2str
 3122 04d6 031C     		mov	r3, r0
 3123 04d8 3B61     		str	r3, [r7, #16]
 3124 04da 43E3     		b	.L177
 3125              	.L151:
 3126 04dc D14B     		ldr	r3, .L180
 3127 04de 1A68     		ldr	r2, [r3]
 3128 04e0 D44B     		ldr	r3, .L180+16
 3129 04e2 101C     		mov	r0, r2
 3130 04e4 191C     		mov	r1, r3
 3131 04e6 2922     		mov	r2, #41
 3132 04e8 FFF7FEFF 		bl	memcpy
ARM GAS  C:\Users\SDEVAS~1\AppData\Local\Temp\cc8KFjZb.s 			page 67


 3133 04ec CD4B     		ldr	r3, .L180
 3134 04ee 1B68     		ldr	r3, [r3]
 3135 04f0 1A1C     		mov	r2, r3
 3136 04f2 2832     		add	r2, r2, #40
 3137 04f4 CB4B     		ldr	r3, .L180
 3138 04f6 1A60     		str	r2, [r3]
 3139 04f8 CC4B     		ldr	r3, .L180+8
 3140 04fa 1B68     		ldr	r3, [r3]
 3141 04fc 283B     		sub	r3, r3, #40
 3142 04fe 1A1C     		mov	r2, r3
 3143 0500 CA4B     		ldr	r3, .L180+8
 3144 0502 1A60     		str	r2, [r3]
 3145 0504 C74B     		ldr	r3, .L180
 3146 0506 1D68     		ldr	r5, [r3]
 3147 0508 C84B     		ldr	r3, .L180+8
 3148 050a 1C68     		ldr	r4, [r3]
 3149 050c FFF7FEFF 		bl	getvar_numStarts
 3150 0510 031C     		mov	r3, r0
 3151 0512 281C     		mov	r0, r5
 3152 0514 211C     		mov	r1, r4
 3153 0516 1A1C     		mov	r2, r3
 3154 0518 FFF7FEFF 		bl	conv_i2str
 3155 051c 031C     		mov	r3, r0
 3156 051e 3B61     		str	r3, [r7, #16]
 3157 0520 20E3     		b	.L177
 3158              	.L152:
 3159 0522 C04B     		ldr	r3, .L180
 3160 0524 1A68     		ldr	r2, [r3]
 3161 0526 C44B     		ldr	r3, .L180+20
 3162 0528 101C     		mov	r0, r2
 3163 052a 191C     		mov	r1, r3
 3164 052c 2B22     		mov	r2, #43
 3165 052e FFF7FEFF 		bl	memcpy
 3166 0532 BC4B     		ldr	r3, .L180
 3167 0534 1B68     		ldr	r3, [r3]
 3168 0536 1A1C     		mov	r2, r3
 3169 0538 2A32     		add	r2, r2, #42
 3170 053a BA4B     		ldr	r3, .L180
 3171 053c 1A60     		str	r2, [r3]
 3172 053e BB4B     		ldr	r3, .L180+8
 3173 0540 1B68     		ldr	r3, [r3]
 3174 0542 2A3B     		sub	r3, r3, #42
 3175 0544 1A1C     		mov	r2, r3
 3176 0546 B94B     		ldr	r3, .L180+8
 3177 0548 1A60     		str	r2, [r3]
 3178 054a B64B     		ldr	r3, .L180
 3179 054c 1D68     		ldr	r5, [r3]
 3180 054e B74B     		ldr	r3, .L180+8
 3181 0550 1C68     		ldr	r4, [r3]
 3182 0552 FFF7FEFF 		bl	getvar_volPerStart
 3183 0556 031C     		mov	r3, r0
 3184 0558 281C     		mov	r0, r5
 3185 055a 211C     		mov	r1, r4
 3186 055c 1A1C     		mov	r2, r3
 3187 055e FFF7FEFF 		bl	conv_i2str
 3188 0562 031C     		mov	r3, r0
 3189 0564 3B61     		str	r3, [r7, #16]
ARM GAS  C:\Users\SDEVAS~1\AppData\Local\Temp\cc8KFjZb.s 			page 68


 3190 0566 FDE2     		b	.L177
 3191              	.L153:
 3192 0568 AE4B     		ldr	r3, .L180
 3193 056a 1A68     		ldr	r2, [r3]
 3194 056c B34B     		ldr	r3, .L180+24
 3195 056e 101C     		mov	r0, r2
 3196 0570 191C     		mov	r1, r3
 3197 0572 2622     		mov	r2, #38
 3198 0574 FFF7FEFF 		bl	memcpy
 3199 0578 AA4B     		ldr	r3, .L180
 3200 057a 1B68     		ldr	r3, [r3]
 3201 057c 1A1C     		mov	r2, r3
 3202 057e 2532     		add	r2, r2, #37
 3203 0580 A84B     		ldr	r3, .L180
 3204 0582 1A60     		str	r2, [r3]
 3205 0584 A94B     		ldr	r3, .L180+8
 3206 0586 1B68     		ldr	r3, [r3]
 3207 0588 253B     		sub	r3, r3, #37
 3208 058a 1A1C     		mov	r2, r3
 3209 058c A74B     		ldr	r3, .L180+8
 3210 058e 1A60     		str	r2, [r3]
 3211 0590 A44B     		ldr	r3, .L180
 3212 0592 1D68     		ldr	r5, [r3]
 3213 0594 A54B     		ldr	r3, .L180+8
 3214 0596 1C68     		ldr	r4, [r3]
 3215 0598 FFF7FEFF 		bl	getvar_maxVol
 3216 059c 031C     		mov	r3, r0
 3217 059e 281C     		mov	r0, r5
 3218 05a0 211C     		mov	r1, r4
 3219 05a2 1A1C     		mov	r2, r3
 3220 05a4 FFF7FEFF 		bl	conv_i2str
 3221 05a8 031C     		mov	r3, r0
 3222 05aa 3B61     		str	r3, [r7, #16]
 3223 05ac DAE2     		b	.L177
 3224              	.L154:
 3225 05ae 9D4B     		ldr	r3, .L180
 3226 05b0 1A68     		ldr	r2, [r3]
 3227 05b2 A34B     		ldr	r3, .L180+28
 3228 05b4 101C     		mov	r0, r2
 3229 05b6 191C     		mov	r1, r3
 3230 05b8 2622     		mov	r2, #38
 3231 05ba FFF7FEFF 		bl	memcpy
 3232 05be 994B     		ldr	r3, .L180
 3233 05c0 1B68     		ldr	r3, [r3]
 3234 05c2 1A1C     		mov	r2, r3
 3235 05c4 2532     		add	r2, r2, #37
 3236 05c6 974B     		ldr	r3, .L180
 3237 05c8 1A60     		str	r2, [r3]
 3238 05ca 984B     		ldr	r3, .L180+8
 3239 05cc 1B68     		ldr	r3, [r3]
 3240 05ce 253B     		sub	r3, r3, #37
 3241 05d0 1A1C     		mov	r2, r3
 3242 05d2 964B     		ldr	r3, .L180+8
 3243 05d4 1A60     		str	r2, [r3]
 3244 05d6 934B     		ldr	r3, .L180
 3245 05d8 1D68     		ldr	r5, [r3]
 3246 05da 944B     		ldr	r3, .L180+8
ARM GAS  C:\Users\SDEVAS~1\AppData\Local\Temp\cc8KFjZb.s 			page 69


 3247 05dc 1C68     		ldr	r4, [r3]
 3248 05de FFF7FEFF 		bl	getvar_minVol
 3249 05e2 031C     		mov	r3, r0
 3250 05e4 281C     		mov	r0, r5
 3251 05e6 211C     		mov	r1, r4
 3252 05e8 1A1C     		mov	r2, r3
 3253 05ea FFF7FEFF 		bl	conv_i2str
 3254 05ee 031C     		mov	r3, r0
 3255 05f0 3B61     		str	r3, [r7, #16]
 3256 05f2 B7E2     		b	.L177
 3257              	.L155:
 3258 05f4 8B4B     		ldr	r3, .L180
 3259 05f6 1A68     		ldr	r2, [r3]
 3260 05f8 924B     		ldr	r3, .L180+32
 3261 05fa 101C     		mov	r0, r2
 3262 05fc 191C     		mov	r1, r3
 3263 05fe 3222     		mov	r2, #50
 3264 0600 FFF7FEFF 		bl	memcpy
 3265 0604 874B     		ldr	r3, .L180
 3266 0606 1B68     		ldr	r3, [r3]
 3267 0608 1A1C     		mov	r2, r3
 3268 060a 3132     		add	r2, r2, #49
 3269 060c 854B     		ldr	r3, .L180
 3270 060e 1A60     		str	r2, [r3]
 3271 0610 864B     		ldr	r3, .L180+8
 3272 0612 1B68     		ldr	r3, [r3]
 3273 0614 313B     		sub	r3, r3, #49
 3274 0616 1A1C     		mov	r2, r3
 3275 0618 844B     		ldr	r3, .L180+8
 3276 061a 1A60     		str	r2, [r3]
 3277 061c 814B     		ldr	r3, .L180
 3278 061e 1D68     		ldr	r5, [r3]
 3279 0620 824B     		ldr	r3, .L180+8
 3280 0622 1C68     		ldr	r4, [r3]
 3281 0624 FFF7FEFF 		bl	getvar_fertigationTable0
 3282 0628 031C     		mov	r3, r0
 3283 062a 281C     		mov	r0, r5
 3284 062c 211C     		mov	r1, r4
 3285 062e 1A1C     		mov	r2, r3
 3286 0630 FFF7FEFF 		bl	conv_ia2str
 3287 0634 031C     		mov	r3, r0
 3288 0636 3B61     		str	r3, [r7, #16]
 3289 0638 94E2     		b	.L177
 3290              	.L156:
 3291 063a 7A4B     		ldr	r3, .L180
 3292 063c 1A68     		ldr	r2, [r3]
 3293 063e 824B     		ldr	r3, .L180+36
 3294 0640 101C     		mov	r0, r2
 3295 0642 191C     		mov	r1, r3
 3296 0644 3222     		mov	r2, #50
 3297 0646 FFF7FEFF 		bl	memcpy
 3298 064a 764B     		ldr	r3, .L180
 3299 064c 1B68     		ldr	r3, [r3]
 3300 064e 1A1C     		mov	r2, r3
 3301 0650 3132     		add	r2, r2, #49
 3302 0652 744B     		ldr	r3, .L180
 3303 0654 1A60     		str	r2, [r3]
ARM GAS  C:\Users\SDEVAS~1\AppData\Local\Temp\cc8KFjZb.s 			page 70


 3304 0656 754B     		ldr	r3, .L180+8
 3305 0658 1B68     		ldr	r3, [r3]
 3306 065a 313B     		sub	r3, r3, #49
 3307 065c 1A1C     		mov	r2, r3
 3308 065e 734B     		ldr	r3, .L180+8
 3309 0660 1A60     		str	r2, [r3]
 3310 0662 704B     		ldr	r3, .L180
 3311 0664 1D68     		ldr	r5, [r3]
 3312 0666 714B     		ldr	r3, .L180+8
 3313 0668 1C68     		ldr	r4, [r3]
 3314 066a FFF7FEFF 		bl	getvar_fertigationTable1
 3315 066e 031C     		mov	r3, r0
 3316 0670 281C     		mov	r0, r5
 3317 0672 211C     		mov	r1, r4
 3318 0674 1A1C     		mov	r2, r3
 3319 0676 FFF7FEFF 		bl	conv_ia2str
 3320 067a 031C     		mov	r3, r0
 3321 067c 3B61     		str	r3, [r7, #16]
 3322 067e 71E2     		b	.L177
 3323              	.L157:
 3324 0680 684B     		ldr	r3, .L180
 3325 0682 1A68     		ldr	r2, [r3]
 3326 0684 714B     		ldr	r3, .L180+40
 3327 0686 101C     		mov	r0, r2
 3328 0688 191C     		mov	r1, r3
 3329 068a 3222     		mov	r2, #50
 3330 068c FFF7FEFF 		bl	memcpy
 3331 0690 644B     		ldr	r3, .L180
 3332 0692 1B68     		ldr	r3, [r3]
 3333 0694 1A1C     		mov	r2, r3
 3334 0696 3132     		add	r2, r2, #49
 3335 0698 624B     		ldr	r3, .L180
 3336 069a 1A60     		str	r2, [r3]
 3337 069c 634B     		ldr	r3, .L180+8
 3338 069e 1B68     		ldr	r3, [r3]
 3339 06a0 313B     		sub	r3, r3, #49
 3340 06a2 1A1C     		mov	r2, r3
 3341 06a4 614B     		ldr	r3, .L180+8
 3342 06a6 1A60     		str	r2, [r3]
 3343 06a8 5E4B     		ldr	r3, .L180
 3344 06aa 1D68     		ldr	r5, [r3]
 3345 06ac 5F4B     		ldr	r3, .L180+8
 3346 06ae 1C68     		ldr	r4, [r3]
 3347 06b0 FFF7FEFF 		bl	getvar_fertigationTable2
 3348 06b4 031C     		mov	r3, r0
 3349 06b6 281C     		mov	r0, r5
 3350 06b8 211C     		mov	r1, r4
 3351 06ba 1A1C     		mov	r2, r3
 3352 06bc FFF7FEFF 		bl	conv_ia2str
 3353 06c0 031C     		mov	r3, r0
 3354 06c2 3B61     		str	r3, [r7, #16]
 3355 06c4 4EE2     		b	.L177
 3356              	.L158:
 3357 06c6 574B     		ldr	r3, .L180
 3358 06c8 1A68     		ldr	r2, [r3]
 3359 06ca 614B     		ldr	r3, .L180+44
 3360 06cc 101C     		mov	r0, r2
ARM GAS  C:\Users\SDEVAS~1\AppData\Local\Temp\cc8KFjZb.s 			page 71


 3361 06ce 191C     		mov	r1, r3
 3362 06d0 3222     		mov	r2, #50
 3363 06d2 FFF7FEFF 		bl	memcpy
 3364 06d6 534B     		ldr	r3, .L180
 3365 06d8 1B68     		ldr	r3, [r3]
 3366 06da 1A1C     		mov	r2, r3
 3367 06dc 3132     		add	r2, r2, #49
 3368 06de 514B     		ldr	r3, .L180
 3369 06e0 1A60     		str	r2, [r3]
 3370 06e2 524B     		ldr	r3, .L180+8
 3371 06e4 1B68     		ldr	r3, [r3]
 3372 06e6 313B     		sub	r3, r3, #49
 3373 06e8 1A1C     		mov	r2, r3
 3374 06ea 504B     		ldr	r3, .L180+8
 3375 06ec 1A60     		str	r2, [r3]
 3376 06ee 4D4B     		ldr	r3, .L180
 3377 06f0 1D68     		ldr	r5, [r3]
 3378 06f2 4E4B     		ldr	r3, .L180+8
 3379 06f4 1C68     		ldr	r4, [r3]
 3380 06f6 FFF7FEFF 		bl	getvar_fertigationTable3
 3381 06fa 031C     		mov	r3, r0
 3382 06fc 281C     		mov	r0, r5
 3383 06fe 211C     		mov	r1, r4
 3384 0700 1A1C     		mov	r2, r3
 3385 0702 FFF7FEFF 		bl	conv_ia2str
 3386 0706 031C     		mov	r3, r0
 3387 0708 3B61     		str	r3, [r7, #16]
 3388 070a 2BE2     		b	.L177
 3389              	.L159:
 3390 070c 454B     		ldr	r3, .L180
 3391 070e 1A68     		ldr	r2, [r3]
 3392 0710 504B     		ldr	r3, .L180+48
 3393 0712 101C     		mov	r0, r2
 3394 0714 191C     		mov	r1, r3
 3395 0716 3222     		mov	r2, #50
 3396 0718 FFF7FEFF 		bl	memcpy
 3397 071c 414B     		ldr	r3, .L180
 3398 071e 1B68     		ldr	r3, [r3]
 3399 0720 1A1C     		mov	r2, r3
 3400 0722 3132     		add	r2, r2, #49
 3401 0724 3F4B     		ldr	r3, .L180
 3402 0726 1A60     		str	r2, [r3]
 3403 0728 404B     		ldr	r3, .L180+8
 3404 072a 1B68     		ldr	r3, [r3]
 3405 072c 313B     		sub	r3, r3, #49
 3406 072e 1A1C     		mov	r2, r3
 3407 0730 3E4B     		ldr	r3, .L180+8
 3408 0732 1A60     		str	r2, [r3]
 3409 0734 3B4B     		ldr	r3, .L180
 3410 0736 1D68     		ldr	r5, [r3]
 3411 0738 3C4B     		ldr	r3, .L180+8
 3412 073a 1C68     		ldr	r4, [r3]
 3413 073c FFF7FEFF 		bl	getvar_fertigationTable4
 3414 0740 031C     		mov	r3, r0
 3415 0742 281C     		mov	r0, r5
 3416 0744 211C     		mov	r1, r4
 3417 0746 1A1C     		mov	r2, r3
ARM GAS  C:\Users\SDEVAS~1\AppData\Local\Temp\cc8KFjZb.s 			page 72


 3418 0748 FFF7FEFF 		bl	conv_ia2str
 3419 074c 031C     		mov	r3, r0
 3420 074e 3B61     		str	r3, [r7, #16]
 3421 0750 08E2     		b	.L177
 3422              	.L160:
 3423 0752 344B     		ldr	r3, .L180
 3424 0754 1A68     		ldr	r2, [r3]
 3425 0756 404B     		ldr	r3, .L180+52
 3426 0758 101C     		mov	r0, r2
 3427 075a 191C     		mov	r1, r3
 3428 075c 3222     		mov	r2, #50
 3429 075e FFF7FEFF 		bl	memcpy
 3430 0762 304B     		ldr	r3, .L180
 3431 0764 1B68     		ldr	r3, [r3]
 3432 0766 1A1C     		mov	r2, r3
 3433 0768 3132     		add	r2, r2, #49
 3434 076a 2E4B     		ldr	r3, .L180
 3435 076c 1A60     		str	r2, [r3]
 3436 076e 2F4B     		ldr	r3, .L180+8
 3437 0770 1B68     		ldr	r3, [r3]
 3438 0772 313B     		sub	r3, r3, #49
 3439 0774 1A1C     		mov	r2, r3
 3440 0776 2D4B     		ldr	r3, .L180+8
 3441 0778 1A60     		str	r2, [r3]
 3442 077a 2A4B     		ldr	r3, .L180
 3443 077c 1D68     		ldr	r5, [r3]
 3444 077e 2B4B     		ldr	r3, .L180+8
 3445 0780 1C68     		ldr	r4, [r3]
 3446 0782 FFF7FEFF 		bl	getvar_fertigationTable5
 3447 0786 031C     		mov	r3, r0
 3448 0788 281C     		mov	r0, r5
 3449 078a 211C     		mov	r1, r4
 3450 078c 1A1C     		mov	r2, r3
 3451 078e FFF7FEFF 		bl	conv_ia2str
 3452 0792 031C     		mov	r3, r0
 3453 0794 3B61     		str	r3, [r7, #16]
 3454 0796 E5E1     		b	.L177
 3455              	.L161:
 3456 0798 224B     		ldr	r3, .L180
 3457 079a 1A68     		ldr	r2, [r3]
 3458 079c 2F4B     		ldr	r3, .L180+56
 3459 079e 101C     		mov	r0, r2
 3460 07a0 191C     		mov	r1, r3
 3461 07a2 3222     		mov	r2, #50
 3462 07a4 FFF7FEFF 		bl	memcpy
 3463 07a8 1E4B     		ldr	r3, .L180
 3464 07aa 1B68     		ldr	r3, [r3]
 3465 07ac 1A1C     		mov	r2, r3
 3466 07ae 3132     		add	r2, r2, #49
 3467 07b0 1C4B     		ldr	r3, .L180
 3468 07b2 1A60     		str	r2, [r3]
 3469 07b4 1D4B     		ldr	r3, .L180+8
 3470 07b6 1B68     		ldr	r3, [r3]
 3471 07b8 313B     		sub	r3, r3, #49
 3472 07ba 1A1C     		mov	r2, r3
 3473 07bc 1B4B     		ldr	r3, .L180+8
 3474 07be 1A60     		str	r2, [r3]
ARM GAS  C:\Users\SDEVAS~1\AppData\Local\Temp\cc8KFjZb.s 			page 73


 3475 07c0 184B     		ldr	r3, .L180
 3476 07c2 1D68     		ldr	r5, [r3]
 3477 07c4 194B     		ldr	r3, .L180+8
 3478 07c6 1C68     		ldr	r4, [r3]
 3479 07c8 FFF7FEFF 		bl	getvar_fertigationTable6
 3480 07cc 031C     		mov	r3, r0
 3481 07ce 281C     		mov	r0, r5
 3482 07d0 211C     		mov	r1, r4
 3483 07d2 1A1C     		mov	r2, r3
 3484 07d4 FFF7FEFF 		bl	conv_ia2str
 3485 07d8 031C     		mov	r3, r0
 3486 07da 3B61     		str	r3, [r7, #16]
 3487 07dc C2E1     		b	.L177
 3488              	.L162:
 3489 07de 114B     		ldr	r3, .L180
 3490 07e0 1A68     		ldr	r2, [r3]
 3491 07e2 1F4B     		ldr	r3, .L180+60
 3492 07e4 101C     		mov	r0, r2
 3493 07e6 191C     		mov	r1, r3
 3494 07e8 3222     		mov	r2, #50
 3495 07ea FFF7FEFF 		bl	memcpy
 3496 07ee 0D4B     		ldr	r3, .L180
 3497 07f0 1B68     		ldr	r3, [r3]
 3498 07f2 1A1C     		mov	r2, r3
 3499 07f4 3132     		add	r2, r2, #49
 3500 07f6 0B4B     		ldr	r3, .L180
 3501 07f8 1A60     		str	r2, [r3]
 3502 07fa 0C4B     		ldr	r3, .L180+8
 3503 07fc 1B68     		ldr	r3, [r3]
 3504 07fe 313B     		sub	r3, r3, #49
 3505 0800 1A1C     		mov	r2, r3
 3506 0802 0A4B     		ldr	r3, .L180+8
 3507 0804 1A60     		str	r2, [r3]
 3508 0806 074B     		ldr	r3, .L180
 3509 0808 1D68     		ldr	r5, [r3]
 3510 080a 084B     		ldr	r3, .L180+8
 3511 080c 1C68     		ldr	r4, [r3]
 3512 080e FFF7FEFF 		bl	getvar_fertigationTable7
 3513 0812 031C     		mov	r3, r0
 3514 0814 281C     		mov	r0, r5
 3515 0816 211C     		mov	r1, r4
 3516 0818 1A1C     		mov	r2, r3
 3517 081a FFF7FEFF 		bl	conv_ia2str
 3518 081e 031C     		mov	r3, r0
 3519 0820 3B61     		str	r3, [r7, #16]
 3520 0822 9FE1     		b	.L177
 3521              	.L181:
 3522              		.align	2
 3523              	.L180:
 3524 0824 00000000 		.word	respEnd
 3525 0828 04050000 		.word	.LC129
 3526 082c 00000000 		.word	respFreeSpace
 3527 0830 30050000 		.word	.LC131
 3528 0834 58050000 		.word	.LC133
 3529 0838 84050000 		.word	.LC135
 3530 083c B0050000 		.word	.LC137
 3531 0840 D8050000 		.word	.LC139
ARM GAS  C:\Users\SDEVAS~1\AppData\Local\Temp\cc8KFjZb.s 			page 74


 3532 0844 00060000 		.word	.LC141
 3533 0848 34060000 		.word	.LC143
 3534 084c 68060000 		.word	.LC145
 3535 0850 9C060000 		.word	.LC147
 3536 0854 D0060000 		.word	.LC149
 3537 0858 04070000 		.word	.LC151
 3538 085c 38070000 		.word	.LC153
 3539 0860 6C070000 		.word	.LC155
 3540              	.L163:
 3541 0864 DA4B     		ldr	r3, .L182
 3542 0866 1A68     		ldr	r2, [r3]
 3543 0868 DA4B     		ldr	r3, .L182+4
 3544 086a 101C     		mov	r0, r2
 3545 086c 191C     		mov	r1, r3
 3546 086e 3222     		mov	r2, #50
 3547 0870 FFF7FEFF 		bl	memcpy
 3548 0874 D64B     		ldr	r3, .L182
 3549 0876 1B68     		ldr	r3, [r3]
 3550 0878 1A1C     		mov	r2, r3
 3551 087a 3132     		add	r2, r2, #49
 3552 087c D44B     		ldr	r3, .L182
 3553 087e 1A60     		str	r2, [r3]
 3554 0880 D54B     		ldr	r3, .L182+8
 3555 0882 1B68     		ldr	r3, [r3]
 3556 0884 313B     		sub	r3, r3, #49
 3557 0886 1A1C     		mov	r2, r3
 3558 0888 D34B     		ldr	r3, .L182+8
 3559 088a 1A60     		str	r2, [r3]
 3560 088c D04B     		ldr	r3, .L182
 3561 088e 1D68     		ldr	r5, [r3]
 3562 0890 D14B     		ldr	r3, .L182+8
 3563 0892 1C68     		ldr	r4, [r3]
 3564 0894 FFF7FEFF 		bl	getvar_fertigationTable8
 3565 0898 031C     		mov	r3, r0
 3566 089a 281C     		mov	r0, r5
 3567 089c 211C     		mov	r1, r4
 3568 089e 1A1C     		mov	r2, r3
 3569 08a0 FFF7FEFF 		bl	conv_ia2str
 3570 08a4 031C     		mov	r3, r0
 3571 08a6 3B61     		str	r3, [r7, #16]
 3572 08a8 5CE1     		b	.L177
 3573              	.L164:
 3574 08aa C94B     		ldr	r3, .L182
 3575 08ac 1A68     		ldr	r2, [r3]
 3576 08ae CB4B     		ldr	r3, .L182+12
 3577 08b0 101C     		mov	r0, r2
 3578 08b2 191C     		mov	r1, r3
 3579 08b4 3222     		mov	r2, #50
 3580 08b6 FFF7FEFF 		bl	memcpy
 3581 08ba C54B     		ldr	r3, .L182
 3582 08bc 1B68     		ldr	r3, [r3]
 3583 08be 1A1C     		mov	r2, r3
 3584 08c0 3132     		add	r2, r2, #49
 3585 08c2 C34B     		ldr	r3, .L182
 3586 08c4 1A60     		str	r2, [r3]
 3587 08c6 C44B     		ldr	r3, .L182+8
 3588 08c8 1B68     		ldr	r3, [r3]
ARM GAS  C:\Users\SDEVAS~1\AppData\Local\Temp\cc8KFjZb.s 			page 75


 3589 08ca 313B     		sub	r3, r3, #49
 3590 08cc 1A1C     		mov	r2, r3
 3591 08ce C24B     		ldr	r3, .L182+8
 3592 08d0 1A60     		str	r2, [r3]
 3593 08d2 BF4B     		ldr	r3, .L182
 3594 08d4 1D68     		ldr	r5, [r3]
 3595 08d6 C04B     		ldr	r3, .L182+8
 3596 08d8 1C68     		ldr	r4, [r3]
 3597 08da FFF7FEFF 		bl	getvar_fertigationTable9
 3598 08de 031C     		mov	r3, r0
 3599 08e0 281C     		mov	r0, r5
 3600 08e2 211C     		mov	r1, r4
 3601 08e4 1A1C     		mov	r2, r3
 3602 08e6 FFF7FEFF 		bl	conv_ia2str
 3603 08ea 031C     		mov	r3, r0
 3604 08ec 3B61     		str	r3, [r7, #16]
 3605 08ee 39E1     		b	.L177
 3606              	.L165:
 3607 08f0 B74B     		ldr	r3, .L182
 3608 08f2 1A68     		ldr	r2, [r3]
 3609 08f4 BA4B     		ldr	r3, .L182+16
 3610 08f6 101C     		mov	r0, r2
 3611 08f8 191C     		mov	r1, r3
 3612 08fa 2922     		mov	r2, #41
 3613 08fc FFF7FEFF 		bl	memcpy
 3614 0900 B34B     		ldr	r3, .L182
 3615 0902 1B68     		ldr	r3, [r3]
 3616 0904 1A1C     		mov	r2, r3
 3617 0906 2832     		add	r2, r2, #40
 3618 0908 B14B     		ldr	r3, .L182
 3619 090a 1A60     		str	r2, [r3]
 3620 090c B24B     		ldr	r3, .L182+8
 3621 090e 1B68     		ldr	r3, [r3]
 3622 0910 283B     		sub	r3, r3, #40
 3623 0912 1A1C     		mov	r2, r3
 3624 0914 B04B     		ldr	r3, .L182+8
 3625 0916 1A60     		str	r2, [r3]
 3626 0918 AD4B     		ldr	r3, .L182
 3627 091a 1D68     		ldr	r5, [r3]
 3628 091c AE4B     		ldr	r3, .L182+8
 3629 091e 1C68     		ldr	r4, [r3]
 3630 0920 FFF7FEFF 		bl	getvar_notBefore
 3631 0924 031C     		mov	r3, r0
 3632 0926 281C     		mov	r0, r5
 3633 0928 211C     		mov	r1, r4
 3634 092a 1A1C     		mov	r2, r3
 3635 092c FFF7FEFF 		bl	conv_i2str
 3636 0930 031C     		mov	r3, r0
 3637 0932 3B61     		str	r3, [r7, #16]
 3638 0934 16E1     		b	.L177
 3639              	.L166:
 3640 0936 A64B     		ldr	r3, .L182
 3641 0938 1A68     		ldr	r2, [r3]
 3642 093a AA4B     		ldr	r3, .L182+20
 3643 093c 101C     		mov	r0, r2
 3644 093e 191C     		mov	r1, r3
 3645 0940 2822     		mov	r2, #40
ARM GAS  C:\Users\SDEVAS~1\AppData\Local\Temp\cc8KFjZb.s 			page 76


 3646 0942 FFF7FEFF 		bl	memcpy
 3647 0946 A24B     		ldr	r3, .L182
 3648 0948 1B68     		ldr	r3, [r3]
 3649 094a 1A1C     		mov	r2, r3
 3650 094c 2732     		add	r2, r2, #39
 3651 094e A04B     		ldr	r3, .L182
 3652 0950 1A60     		str	r2, [r3]
 3653 0952 A14B     		ldr	r3, .L182+8
 3654 0954 1B68     		ldr	r3, [r3]
 3655 0956 273B     		sub	r3, r3, #39
 3656 0958 1A1C     		mov	r2, r3
 3657 095a 9F4B     		ldr	r3, .L182+8
 3658 095c 1A60     		str	r2, [r3]
 3659 095e 9C4B     		ldr	r3, .L182
 3660 0960 1D68     		ldr	r5, [r3]
 3661 0962 9D4B     		ldr	r3, .L182+8
 3662 0964 1C68     		ldr	r4, [r3]
 3663 0966 FFF7FEFF 		bl	getvar_notAfter
 3664 096a 031C     		mov	r3, r0
 3665 096c 281C     		mov	r0, r5
 3666 096e 211C     		mov	r1, r4
 3667 0970 1A1C     		mov	r2, r3
 3668 0972 FFF7FEFF 		bl	conv_i2str
 3669 0976 031C     		mov	r3, r0
 3670 0978 3B61     		str	r3, [r7, #16]
 3671 097a F3E0     		b	.L177
 3672              	.L167:
 3673 097c 944B     		ldr	r3, .L182
 3674 097e 1A68     		ldr	r2, [r3]
 3675 0980 994B     		ldr	r3, .L182+24
 3676 0982 101C     		mov	r0, r2
 3677 0984 191C     		mov	r1, r3
 3678 0986 2F22     		mov	r2, #47
 3679 0988 FFF7FEFF 		bl	memcpy
 3680 098c 904B     		ldr	r3, .L182
 3681 098e 1B68     		ldr	r3, [r3]
 3682 0990 1A1C     		mov	r2, r3
 3683 0992 2E32     		add	r2, r2, #46
 3684 0994 8E4B     		ldr	r3, .L182
 3685 0996 1A60     		str	r2, [r3]
 3686 0998 8F4B     		ldr	r3, .L182+8
 3687 099a 1B68     		ldr	r3, [r3]
 3688 099c 2E3B     		sub	r3, r3, #46
 3689 099e 1A1C     		mov	r2, r3
 3690 09a0 8D4B     		ldr	r3, .L182+8
 3691 09a2 1A60     		str	r2, [r3]
 3692 09a4 8A4B     		ldr	r3, .L182
 3693 09a6 1D68     		ldr	r5, [r3]
 3694 09a8 8B4B     		ldr	r3, .L182+8
 3695 09aa 1C68     		ldr	r4, [r3]
 3696 09ac FFF7FEFF 		bl	getvar_dilutionFactorA
 3697 09b0 031C     		mov	r3, r0
 3698 09b2 281C     		mov	r0, r5
 3699 09b4 211C     		mov	r1, r4
 3700 09b6 1A1C     		mov	r2, r3
 3701 09b8 FFF7FEFF 		bl	conv_i2str
 3702 09bc 031C     		mov	r3, r0
ARM GAS  C:\Users\SDEVAS~1\AppData\Local\Temp\cc8KFjZb.s 			page 77


 3703 09be 3B61     		str	r3, [r7, #16]
 3704 09c0 D0E0     		b	.L177
 3705              	.L168:
 3706 09c2 834B     		ldr	r3, .L182
 3707 09c4 1A68     		ldr	r2, [r3]
 3708 09c6 894B     		ldr	r3, .L182+28
 3709 09c8 101C     		mov	r0, r2
 3710 09ca 191C     		mov	r1, r3
 3711 09cc 2F22     		mov	r2, #47
 3712 09ce FFF7FEFF 		bl	memcpy
 3713 09d2 7F4B     		ldr	r3, .L182
 3714 09d4 1B68     		ldr	r3, [r3]
 3715 09d6 1A1C     		mov	r2, r3
 3716 09d8 2E32     		add	r2, r2, #46
 3717 09da 7D4B     		ldr	r3, .L182
 3718 09dc 1A60     		str	r2, [r3]
 3719 09de 7E4B     		ldr	r3, .L182+8
 3720 09e0 1B68     		ldr	r3, [r3]
 3721 09e2 2E3B     		sub	r3, r3, #46
 3722 09e4 1A1C     		mov	r2, r3
 3723 09e6 7C4B     		ldr	r3, .L182+8
 3724 09e8 1A60     		str	r2, [r3]
 3725 09ea 794B     		ldr	r3, .L182
 3726 09ec 1D68     		ldr	r5, [r3]
 3727 09ee 7A4B     		ldr	r3, .L182+8
 3728 09f0 1C68     		ldr	r4, [r3]
 3729 09f2 FFF7FEFF 		bl	getvar_dilutionFactorB
 3730 09f6 031C     		mov	r3, r0
 3731 09f8 281C     		mov	r0, r5
 3732 09fa 211C     		mov	r1, r4
 3733 09fc 1A1C     		mov	r2, r3
 3734 09fe FFF7FEFF 		bl	conv_i2str
 3735 0a02 031C     		mov	r3, r0
 3736 0a04 3B61     		str	r3, [r7, #16]
 3737 0a06 ADE0     		b	.L177
 3738              	.L169:
 3739 0a08 714B     		ldr	r3, .L182
 3740 0a0a 1A68     		ldr	r2, [r3]
 3741 0a0c 784B     		ldr	r3, .L182+32
 3742 0a0e 101C     		mov	r0, r2
 3743 0a10 191C     		mov	r1, r3
 3744 0a12 2F22     		mov	r2, #47
 3745 0a14 FFF7FEFF 		bl	memcpy
 3746 0a18 6D4B     		ldr	r3, .L182
 3747 0a1a 1B68     		ldr	r3, [r3]
 3748 0a1c 1A1C     		mov	r2, r3
 3749 0a1e 2E32     		add	r2, r2, #46
 3750 0a20 6B4B     		ldr	r3, .L182
 3751 0a22 1A60     		str	r2, [r3]
 3752 0a24 6C4B     		ldr	r3, .L182+8
 3753 0a26 1B68     		ldr	r3, [r3]
 3754 0a28 2E3B     		sub	r3, r3, #46
 3755 0a2a 1A1C     		mov	r2, r3
 3756 0a2c 6A4B     		ldr	r3, .L182+8
 3757 0a2e 1A60     		str	r2, [r3]
 3758 0a30 674B     		ldr	r3, .L182
 3759 0a32 1D68     		ldr	r5, [r3]
ARM GAS  C:\Users\SDEVAS~1\AppData\Local\Temp\cc8KFjZb.s 			page 78


 3760 0a34 684B     		ldr	r3, .L182+8
 3761 0a36 1C68     		ldr	r4, [r3]
 3762 0a38 FFF7FEFF 		bl	getvar_venturiSuctionA
 3763 0a3c 031C     		mov	r3, r0
 3764 0a3e 281C     		mov	r0, r5
 3765 0a40 211C     		mov	r1, r4
 3766 0a42 1A1C     		mov	r2, r3
 3767 0a44 FFF7FEFF 		bl	conv_i2str
 3768 0a48 031C     		mov	r3, r0
 3769 0a4a 3B61     		str	r3, [r7, #16]
 3770 0a4c 8AE0     		b	.L177
 3771              	.L170:
 3772 0a4e 604B     		ldr	r3, .L182
 3773 0a50 1A68     		ldr	r2, [r3]
 3774 0a52 684B     		ldr	r3, .L182+36
 3775 0a54 101C     		mov	r0, r2
 3776 0a56 191C     		mov	r1, r3
 3777 0a58 2F22     		mov	r2, #47
 3778 0a5a FFF7FEFF 		bl	memcpy
 3779 0a5e 5C4B     		ldr	r3, .L182
 3780 0a60 1B68     		ldr	r3, [r3]
 3781 0a62 1A1C     		mov	r2, r3
 3782 0a64 2E32     		add	r2, r2, #46
 3783 0a66 5A4B     		ldr	r3, .L182
 3784 0a68 1A60     		str	r2, [r3]
 3785 0a6a 5B4B     		ldr	r3, .L182+8
 3786 0a6c 1B68     		ldr	r3, [r3]
 3787 0a6e 2E3B     		sub	r3, r3, #46
 3788 0a70 1A1C     		mov	r2, r3
 3789 0a72 594B     		ldr	r3, .L182+8
 3790 0a74 1A60     		str	r2, [r3]
 3791 0a76 564B     		ldr	r3, .L182
 3792 0a78 1D68     		ldr	r5, [r3]
 3793 0a7a 574B     		ldr	r3, .L182+8
 3794 0a7c 1C68     		ldr	r4, [r3]
 3795 0a7e FFF7FEFF 		bl	getvar_venturiSuctionB
 3796 0a82 031C     		mov	r3, r0
 3797 0a84 281C     		mov	r0, r5
 3798 0a86 211C     		mov	r1, r4
 3799 0a88 1A1C     		mov	r2, r3
 3800 0a8a FFF7FEFF 		bl	conv_i2str
 3801 0a8e 031C     		mov	r3, r0
 3802 0a90 3B61     		str	r3, [r7, #16]
 3803 0a92 67E0     		b	.L177
 3804              	.L171:
 3805 0a94 4E4B     		ldr	r3, .L182
 3806 0a96 1A68     		ldr	r2, [r3]
 3807 0a98 574B     		ldr	r3, .L182+40
 3808 0a9a 101C     		mov	r0, r2
 3809 0a9c 191C     		mov	r1, r3
 3810 0a9e 2C22     		mov	r2, #44
 3811 0aa0 FFF7FEFF 		bl	memcpy
 3812 0aa4 4A4B     		ldr	r3, .L182
 3813 0aa6 1B68     		ldr	r3, [r3]
 3814 0aa8 1A1C     		mov	r2, r3
 3815 0aaa 2B32     		add	r2, r2, #43
 3816 0aac 484B     		ldr	r3, .L182
ARM GAS  C:\Users\SDEVAS~1\AppData\Local\Temp\cc8KFjZb.s 			page 79


 3817 0aae 1A60     		str	r2, [r3]
 3818 0ab0 494B     		ldr	r3, .L182+8
 3819 0ab2 1B68     		ldr	r3, [r3]
 3820 0ab4 2B3B     		sub	r3, r3, #43
 3821 0ab6 1A1C     		mov	r2, r3
 3822 0ab8 474B     		ldr	r3, .L182+8
 3823 0aba 1A60     		str	r2, [r3]
 3824 0abc 444B     		ldr	r3, .L182
 3825 0abe 1D68     		ldr	r5, [r3]
 3826 0ac0 454B     		ldr	r3, .L182+8
 3827 0ac2 1C68     		ldr	r4, [r3]
 3828 0ac4 FFF7FEFF 		bl	getvar_squareMeters
 3829 0ac8 031C     		mov	r3, r0
 3830 0aca 281C     		mov	r0, r5
 3831 0acc 211C     		mov	r1, r4
 3832 0ace 1A1C     		mov	r2, r3
 3833 0ad0 FFF7FEFF 		bl	conv_i2str
 3834 0ad4 031C     		mov	r3, r0
 3835 0ad6 3B61     		str	r3, [r7, #16]
 3836 0ad8 44E0     		b	.L177
 3837              	.L172:
 3838 0ada 3D4B     		ldr	r3, .L182
 3839 0adc 1A68     		ldr	r2, [r3]
 3840 0ade 474B     		ldr	r3, .L182+44
 3841 0ae0 101C     		mov	r0, r2
 3842 0ae2 191C     		mov	r1, r3
 3843 0ae4 3122     		mov	r2, #49
 3844 0ae6 FFF7FEFF 		bl	memcpy
 3845 0aea 394B     		ldr	r3, .L182
 3846 0aec 1B68     		ldr	r3, [r3]
 3847 0aee 1A1C     		mov	r2, r3
 3848 0af0 3032     		add	r2, r2, #48
 3849 0af2 374B     		ldr	r3, .L182
 3850 0af4 1A60     		str	r2, [r3]
 3851 0af6 384B     		ldr	r3, .L182+8
 3852 0af8 1B68     		ldr	r3, [r3]
 3853 0afa 303B     		sub	r3, r3, #48
 3854 0afc 1A1C     		mov	r2, r3
 3855 0afe 364B     		ldr	r3, .L182+8
 3856 0b00 1A60     		str	r2, [r3]
 3857 0b02 334B     		ldr	r3, .L182
 3858 0b04 1D68     		ldr	r5, [r3]
 3859 0b06 344B     		ldr	r3, .L182+8
 3860 0b08 1C68     		ldr	r4, [r3]
 3861 0b0a FFF7FEFF 		bl	getvar_lPerSqMeterPerDay
 3862 0b0e 031C     		mov	r3, r0
 3863 0b10 281C     		mov	r0, r5
 3864 0b12 211C     		mov	r1, r4
 3865 0b14 1A1C     		mov	r2, r3
 3866 0b16 FFF7FEFF 		bl	conv_i2str
 3867 0b1a 031C     		mov	r3, r0
 3868 0b1c 3B61     		str	r3, [r7, #16]
 3869 0b1e 21E0     		b	.L177
 3870              	.L173:
 3871 0b20 2B4B     		ldr	r3, .L182
 3872 0b22 1A68     		ldr	r2, [r3]
 3873 0b24 364B     		ldr	r3, .L182+48
ARM GAS  C:\Users\SDEVAS~1\AppData\Local\Temp\cc8KFjZb.s 			page 80


 3874 0b26 101C     		mov	r0, r2
 3875 0b28 191C     		mov	r1, r3
 3876 0b2a 2822     		mov	r2, #40
 3877 0b2c FFF7FEFF 		bl	memcpy
 3878 0b30 274B     		ldr	r3, .L182
 3879 0b32 1B68     		ldr	r3, [r3]
 3880 0b34 1A1C     		mov	r2, r3
 3881 0b36 2732     		add	r2, r2, #39
 3882 0b38 254B     		ldr	r3, .L182
 3883 0b3a 1A60     		str	r2, [r3]
 3884 0b3c 264B     		ldr	r3, .L182+8
 3885 0b3e 1B68     		ldr	r3, [r3]
 3886 0b40 273B     		sub	r3, r3, #39
 3887 0b42 1A1C     		mov	r2, r3
 3888 0b44 244B     		ldr	r3, .L182+8
 3889 0b46 1A60     		str	r2, [r3]
 3890 0b48 214B     		ldr	r3, .L182
 3891 0b4a 1D68     		ldr	r5, [r3]
 3892 0b4c 224B     		ldr	r3, .L182+8
 3893 0b4e 1C68     		ldr	r4, [r3]
 3894 0b50 FFF7FEFF 		bl	getvar_cropType
 3895 0b54 031C     		mov	r3, r0
 3896 0b56 281C     		mov	r0, r5
 3897 0b58 211C     		mov	r1, r4
 3898 0b5a 1A1C     		mov	r2, r3
 3899 0b5c FFF7FEFF 		bl	conv_i2str
 3900 0b60 031C     		mov	r3, r0
 3901 0b62 3B61     		str	r3, [r7, #16]
 3902              	.L177:
 3903 0b64 C046     		mov	r8, r8
 324:.\Generated_Source\PSoC4/comm.c **** #undef X
 325:.\Generated_Source\PSoC4/comm.c ****     default: goto error_exit;
 326:.\Generated_Source\PSoC4/comm.c ****     break;
 327:.\Generated_Source\PSoC4/comm.c ****   }
 328:.\Generated_Source\PSoC4/comm.c ****   respEnd += tmp;
 3904              		.loc 1 328 0
 3905 0b66 1A4B     		ldr	r3, .L182
 3906 0b68 1A68     		ldr	r2, [r3]
 3907 0b6a 3B69     		ldr	r3, [r7, #16]
 3908 0b6c D218     		add	r2, r2, r3
 3909 0b6e 184B     		ldr	r3, .L182
 3910 0b70 1A60     		str	r2, [r3]
 329:.\Generated_Source\PSoC4/comm.c ****   respFreeSpace -= tmp;
 3911              		.loc 1 329 0
 3912 0b72 194B     		ldr	r3, .L182+8
 3913 0b74 1A68     		ldr	r2, [r3]
 3914 0b76 3B69     		ldr	r3, [r7, #16]
 3915 0b78 D21A     		sub	r2, r2, r3
 3916 0b7a 174B     		ldr	r3, .L182+8
 3917 0b7c 1A60     		str	r2, [r3]
 330:.\Generated_Source\PSoC4/comm.c **** 
 331:.\Generated_Source\PSoC4/comm.c ****   ADD_CHAR_TO_RESP('}');
 3918              		.loc 1 331 0
 3919 0b7e 144B     		ldr	r3, .L182
 3920 0b80 1B68     		ldr	r3, [r3]
 3921 0b82 591C     		add	r1, r3, #1
 3922 0b84 124A     		ldr	r2, .L182
ARM GAS  C:\Users\SDEVAS~1\AppData\Local\Temp\cc8KFjZb.s 			page 81


 3923 0b86 1160     		str	r1, [r2]
 3924 0b88 7D22     		mov	r2, #125
 3925 0b8a 1A70     		strb	r2, [r3]
 3926 0b8c 124B     		ldr	r3, .L182+8
 3927 0b8e 1B68     		ldr	r3, [r3]
 3928 0b90 5A1E     		sub	r2, r3, #1
 3929 0b92 114B     		ldr	r3, .L182+8
 3930 0b94 1A60     		str	r2, [r3]
 332:.\Generated_Source\PSoC4/comm.c **** 
 333:.\Generated_Source\PSoC4/comm.c ****   return COMM_FLAG_REQ_ACK;
 3931              		.loc 1 333 0
 3932 0b96 0323     		mov	r3, #3
 3933 0b98 15E0     		b	.L127
 3934              	.L176:
 325:.\Generated_Source\PSoC4/comm.c ****     default: goto error_exit;
 3935              		.loc 1 325 0
 3936 0b9a C046     		mov	r8, r8
 3937              	.L129:
 334:.\Generated_Source\PSoC4/comm.c **** error_exit:
 335:.\Generated_Source\PSoC4/comm.c **** 	ADD_STATIC_STRING_TO_RESP(",\"payload\":null");
 3938              		.loc 1 335 0
 3939 0b9c 0C4B     		ldr	r3, .L182
 3940 0b9e 1A68     		ldr	r2, [r3]
 3941 0ba0 184B     		ldr	r3, .L182+52
 3942 0ba2 101C     		mov	r0, r2
 3943 0ba4 191C     		mov	r1, r3
 3944 0ba6 1022     		mov	r2, #16
 3945 0ba8 FFF7FEFF 		bl	memcpy
 3946 0bac 084B     		ldr	r3, .L182
 3947 0bae 1B68     		ldr	r3, [r3]
 3948 0bb0 1A1C     		mov	r2, r3
 3949 0bb2 0F32     		add	r2, r2, #15
 3950 0bb4 064B     		ldr	r3, .L182
 3951 0bb6 1A60     		str	r2, [r3]
 3952 0bb8 074B     		ldr	r3, .L182+8
 3953 0bba 1B68     		ldr	r3, [r3]
 3954 0bbc 0F3B     		sub	r3, r3, #15
 3955 0bbe 1A1C     		mov	r2, r3
 3956 0bc0 054B     		ldr	r3, .L182+8
 3957 0bc2 1A60     		str	r2, [r3]
 336:.\Generated_Source\PSoC4/comm.c **** 	return COMM_FLAG_NACK;
 3958              		.loc 1 336 0
 3959 0bc4 0423     		mov	r3, #4
 3960              	.L127:
 337:.\Generated_Source\PSoC4/comm.c **** }
 3961              		.loc 1 337 0
 3962 0bc6 181C     		mov	r0, r3
 3963 0bc8 BD46     		mov	sp, r7
 3964 0bca 08B0     		add	sp, sp, #32
 3965              		@ sp needed
 3966 0bcc B0BD     		pop	{r4, r5, r7, pc}
 3967              	.L183:
 3968 0bce C046     		.align	2
 3969              	.L182:
 3970 0bd0 00000000 		.word	respEnd
 3971 0bd4 A0070000 		.word	.LC157
 3972 0bd8 00000000 		.word	respFreeSpace
ARM GAS  C:\Users\SDEVAS~1\AppData\Local\Temp\cc8KFjZb.s 			page 82


 3973 0bdc D4070000 		.word	.LC159
 3974 0be0 08080000 		.word	.LC161
 3975 0be4 34080000 		.word	.LC163
 3976 0be8 5C080000 		.word	.LC165
 3977 0bec 8C080000 		.word	.LC167
 3978 0bf0 BC080000 		.word	.LC169
 3979 0bf4 EC080000 		.word	.LC171
 3980 0bf8 1C090000 		.word	.LC173
 3981 0bfc 48090000 		.word	.LC175
 3982 0c00 7C090000 		.word	.LC177
 3983 0c04 A4090000 		.word	.LC179
 3984              		.cfi_endproc
 3985              	.LFE42:
 3986              		.size	comm_handle_Get, .-comm_handle_Get
 3987              		.section	.rodata
 3988              		.align	2
 3989              	.LC182:
 3990 0a44 7400     		.ascii	"t\000"
 3991 0a46 0000     		.align	2
 3992              	.LC184:
 3993 0a48 7600     		.ascii	"v\000"
 3994 0a4a 0000     		.align	2
 3995              	.LC187:
 3996 0a4c 6900     		.ascii	"i\000"
 3997 0a4e 0000     		.align	2
 3998              	.LC189:
 3999 0a50 7300     		.ascii	"s\000"
 4000 0a52 0000     		.align	2
 4001              	.LC191:
 4002 0a54 696100   		.ascii	"ia\000"
 4003              		.section	.text.comm_handle_Set,"ax",%progbits
 4004              		.align	2
 4005              		.global	comm_handle_Set
 4006              		.code	16
 4007              		.thumb_func
 4008              		.type	comm_handle_Set, %function
 4009              	comm_handle_Set:
 4010              	.LFB43:
 338:.\Generated_Source\PSoC4/comm.c **** 
 339:.\Generated_Source\PSoC4/comm.c **** comm_flags_t comm_handle_Set(comm_flags_t flags, const char *payload, int payloadLen, jsmntok_t *to
 4011              		.loc 1 339 0
 4012              		.cfi_startproc
 4013 0000 90B5     		push	{r4, r7, lr}
 4014              		.cfi_def_cfa_offset 12
 4015              		.cfi_offset 4, -12
 4016              		.cfi_offset 7, -8
 4017              		.cfi_offset 14, -4
 4018 0002 8DB0     		sub	sp, sp, #52
 4019              		.cfi_def_cfa_offset 64
 4020 0004 00AF     		add	r7, sp, #0
 4021              		.cfi_def_cfa_register 7
 4022 0006 B960     		str	r1, [r7, #8]
 4023 0008 7A60     		str	r2, [r7, #4]
 4024 000a 3B60     		str	r3, [r7]
 4025 000c 3B1C     		mov	r3, r7
 4026 000e 0F33     		add	r3, r3, #15
 4027 0010 021C     		add	r2, r0, #0
ARM GAS  C:\Users\SDEVAS~1\AppData\Local\Temp\cc8KFjZb.s 			page 83


 4028 0012 1A70     		strb	r2, [r3]
 340:.\Generated_Source\PSoC4/comm.c **** 	if(flags != COMM_FLAG_REQ) {
 4029              		.loc 1 340 0
 4030 0014 3B1C     		mov	r3, r7
 4031 0016 0F33     		add	r3, r3, #15
 4032 0018 1B78     		ldrb	r3, [r3]
 4033 001a 012B     		cmp	r3, #1
 4034 001c 02D0     		beq	.L185
 341:.\Generated_Source\PSoC4/comm.c **** 		//we only expect REQ flags, ignore otherwise (this is error?
 342:.\Generated_Source\PSoC4/comm.c **** 		return COMM_FLAG_UNKNOWN;
 4035              		.loc 1 342 0
 4036 001e 0023     		mov	r3, #0
 4037 0020 00F040FC 		bl	.L186	@ far jump
 4038              	.L185:
 343:.\Generated_Source\PSoC4/comm.c **** 	}
 344:.\Generated_Source\PSoC4/comm.c ****   if(tokens[0].type != JSMN_OBJECT) {
 4039              		.loc 1 344 0
 4040 0024 3B68     		ldr	r3, [r7]
 4041 0026 1B78     		ldrb	r3, [r3]
 4042 0028 012B     		cmp	r3, #1
 4043 002a 01D0     		beq	.L187
 345:.\Generated_Source\PSoC4/comm.c **** 	  //invalid payload, it should be an object
 346:.\Generated_Source\PSoC4/comm.c **** 	  goto error_exit;
 4044              		.loc 1 346 0
 4045 002c 00F025FC 		bl	.L188	@ far jump
 4046              	.L187:
 347:.\Generated_Source\PSoC4/comm.c ****   }
 348:.\Generated_Source\PSoC4/comm.c **** 
 349:.\Generated_Source\PSoC4/comm.c ****   int t = 1;
 4047              		.loc 1 349 0
 4048 0030 0123     		mov	r3, #1
 4049 0032 FB62     		str	r3, [r7, #44]
 350:.\Generated_Source\PSoC4/comm.c ****   atom_variables_id_t avid = INVALID_ATOM_VARIABLE;
 4050              		.loc 1 350 0
 4051 0034 3B1C     		mov	r3, r7
 4052 0036 2B33     		add	r3, r3, #43
 4053 0038 2522     		mov	r2, #37
 4054 003a 1A70     		strb	r2, [r3]
 351:.\Generated_Source\PSoC4/comm.c ****   const char *value = NULL;
 4055              		.loc 1 351 0
 4056 003c 0023     		mov	r3, #0
 4057 003e 7B62     		str	r3, [r7, #36]
 352:.\Generated_Source\PSoC4/comm.c ****   int valueLen = 0;
 4058              		.loc 1 352 0
 4059 0040 0023     		mov	r3, #0
 4060 0042 3B62     		str	r3, [r7, #32]
 353:.\Generated_Source\PSoC4/comm.c ****   const char *type = NULL;
 4061              		.loc 1 353 0
 4062 0044 0023     		mov	r3, #0
 4063 0046 FB61     		str	r3, [r7, #28]
 354:.\Generated_Source\PSoC4/comm.c ****   int typeLen = 0;
 4064              		.loc 1 354 0
 4065 0048 0023     		mov	r3, #0
 4066 004a BB61     		str	r3, [r7, #24]
 355:.\Generated_Source\PSoC4/comm.c ****   int i = 0;
 4067              		.loc 1 355 0
 4068 004c 0023     		mov	r3, #0
ARM GAS  C:\Users\SDEVAS~1\AppData\Local\Temp\cc8KFjZb.s 			page 84


 4069 004e 7B61     		str	r3, [r7, #20]
 356:.\Generated_Source\PSoC4/comm.c ****   for(; i < tokens[0].size; i++) {
 4070              		.loc 1 356 0
 4071 0050 8DE0     		b	.L189
 4072              	.L194:
 357:.\Generated_Source\PSoC4/comm.c **** 	  if(tokens[t].type != JSMN_STRING) {//it should point to key
 4073              		.loc 1 357 0
 4074 0052 FB6A     		ldr	r3, [r7, #44]
 4075 0054 1B01     		lsl	r3, r3, #4
 4076 0056 3A68     		ldr	r2, [r7]
 4077 0058 D318     		add	r3, r2, r3
 4078 005a 1B78     		ldrb	r3, [r3]
 4079 005c 032B     		cmp	r3, #3
 4080 005e 01D0     		beq	.L190
 358:.\Generated_Source\PSoC4/comm.c **** 		  //something is wrong with payload
 359:.\Generated_Source\PSoC4/comm.c **** 		  goto error_exit;
 4081              		.loc 1 359 0
 4082 0060 00F00BFC 		bl	.L188	@ far jump
 4083              	.L190:
 360:.\Generated_Source\PSoC4/comm.c **** 	  }
 361:.\Generated_Source\PSoC4/comm.c ****     if(compKey(payload, &tokens[t], "n") == 0) {
 4084              		.loc 1 361 0
 4085 0064 FB6A     		ldr	r3, [r7, #44]
 4086 0066 1B01     		lsl	r3, r3, #4
 4087 0068 3A68     		ldr	r2, [r7]
 4088 006a D218     		add	r2, r2, r3
 4089 006c B968     		ldr	r1, [r7, #8]
 4090 006e DB4B     		ldr	r3, .L272
 4091 0070 081C     		mov	r0, r1
 4092 0072 111C     		mov	r1, r2
 4093 0074 1A1C     		mov	r2, r3
 4094 0076 FFF7FEFF 		bl	compKey
 4095 007a 031C     		mov	r3, r0
 4096 007c 002B     		cmp	r3, #0
 4097 007e 1DD1     		bne	.L191
 362:.\Generated_Source\PSoC4/comm.c ****       //printf("%.*s\n", tokens[t+1].end - tokens[t+1].start, payload + tokens[t+1].start);
 363:.\Generated_Source\PSoC4/comm.c ****       avid = get_atom_variable_id_from_string(payload + tokens[t+1].start,tokens[t+1].end - tokens[
 4098              		.loc 1 363 0
 4099 0080 FB6A     		ldr	r3, [r7, #44]
 4100 0082 0133     		add	r3, r3, #1
 4101 0084 1B01     		lsl	r3, r3, #4
 4102 0086 3A68     		ldr	r2, [r7]
 4103 0088 D318     		add	r3, r2, r3
 4104 008a 5B68     		ldr	r3, [r3, #4]
 4105 008c BA68     		ldr	r2, [r7, #8]
 4106 008e D218     		add	r2, r2, r3
 4107 0090 FB6A     		ldr	r3, [r7, #44]
 4108 0092 0133     		add	r3, r3, #1
 4109 0094 1B01     		lsl	r3, r3, #4
 4110 0096 3968     		ldr	r1, [r7]
 4111 0098 CB18     		add	r3, r1, r3
 4112 009a 9968     		ldr	r1, [r3, #8]
 4113 009c FB6A     		ldr	r3, [r7, #44]
 4114 009e 0133     		add	r3, r3, #1
 4115 00a0 1B01     		lsl	r3, r3, #4
 4116 00a2 3868     		ldr	r0, [r7]
 4117 00a4 C318     		add	r3, r0, r3
ARM GAS  C:\Users\SDEVAS~1\AppData\Local\Temp\cc8KFjZb.s 			page 85


 4118 00a6 5B68     		ldr	r3, [r3, #4]
 4119 00a8 CB1A     		sub	r3, r1, r3
 4120 00aa 3C1C     		mov	r4, r7
 4121 00ac 2B34     		add	r4, r4, #43
 4122 00ae 101C     		mov	r0, r2
 4123 00b0 191C     		mov	r1, r3
 4124 00b2 FFF7FEFF 		bl	get_atom_variable_id_from_string
 4125 00b6 031C     		mov	r3, r0
 4126 00b8 2370     		strb	r3, [r4]
 4127 00ba 4AE0     		b	.L192
 4128              	.L191:
 364:.\Generated_Source\PSoC4/comm.c ****     } else if(compKey(payload, &tokens[t], "t") == 0) {
 4129              		.loc 1 364 0
 4130 00bc FB6A     		ldr	r3, [r7, #44]
 4131 00be 1B01     		lsl	r3, r3, #4
 4132 00c0 3A68     		ldr	r2, [r7]
 4133 00c2 D218     		add	r2, r2, r3
 4134 00c4 B968     		ldr	r1, [r7, #8]
 4135 00c6 C64B     		ldr	r3, .L272+4
 4136 00c8 081C     		mov	r0, r1
 4137 00ca 111C     		mov	r1, r2
 4138 00cc 1A1C     		mov	r2, r3
 4139 00ce FFF7FEFF 		bl	compKey
 4140 00d2 031C     		mov	r3, r0
 4141 00d4 002B     		cmp	r3, #0
 4142 00d6 17D1     		bne	.L193
 365:.\Generated_Source\PSoC4/comm.c ****       type = payload + tokens[t+1].start;
 4143              		.loc 1 365 0
 4144 00d8 FB6A     		ldr	r3, [r7, #44]
 4145 00da 0133     		add	r3, r3, #1
 4146 00dc 1B01     		lsl	r3, r3, #4
 4147 00de 3A68     		ldr	r2, [r7]
 4148 00e0 D318     		add	r3, r2, r3
 4149 00e2 5B68     		ldr	r3, [r3, #4]
 4150 00e4 BA68     		ldr	r2, [r7, #8]
 4151 00e6 D318     		add	r3, r2, r3
 4152 00e8 FB61     		str	r3, [r7, #28]
 366:.\Generated_Source\PSoC4/comm.c ****       typeLen = tokens[t+1].end - tokens[t+1].start;
 4153              		.loc 1 366 0
 4154 00ea FB6A     		ldr	r3, [r7, #44]
 4155 00ec 0133     		add	r3, r3, #1
 4156 00ee 1B01     		lsl	r3, r3, #4
 4157 00f0 3A68     		ldr	r2, [r7]
 4158 00f2 D318     		add	r3, r2, r3
 4159 00f4 9A68     		ldr	r2, [r3, #8]
 4160 00f6 FB6A     		ldr	r3, [r7, #44]
 4161 00f8 0133     		add	r3, r3, #1
 4162 00fa 1B01     		lsl	r3, r3, #4
 4163 00fc 3968     		ldr	r1, [r7]
 4164 00fe CB18     		add	r3, r1, r3
 4165 0100 5B68     		ldr	r3, [r3, #4]
 4166 0102 D31A     		sub	r3, r2, r3
 4167 0104 BB61     		str	r3, [r7, #24]
 4168 0106 24E0     		b	.L192
 4169              	.L193:
 367:.\Generated_Source\PSoC4/comm.c ****     } else if(compKey(payload, &tokens[t], "v") == 0) {
 4170              		.loc 1 367 0
ARM GAS  C:\Users\SDEVAS~1\AppData\Local\Temp\cc8KFjZb.s 			page 86


 4171 0108 FB6A     		ldr	r3, [r7, #44]
 4172 010a 1B01     		lsl	r3, r3, #4
 4173 010c 3A68     		ldr	r2, [r7]
 4174 010e D218     		add	r2, r2, r3
 4175 0110 B968     		ldr	r1, [r7, #8]
 4176 0112 B44B     		ldr	r3, .L272+8
 4177 0114 081C     		mov	r0, r1
 4178 0116 111C     		mov	r1, r2
 4179 0118 1A1C     		mov	r2, r3
 4180 011a FFF7FEFF 		bl	compKey
 4181 011e 031C     		mov	r3, r0
 4182 0120 002B     		cmp	r3, #0
 4183 0122 16D1     		bne	.L192
 368:.\Generated_Source\PSoC4/comm.c ****       value = payload + tokens[t+1].start;
 4184              		.loc 1 368 0
 4185 0124 FB6A     		ldr	r3, [r7, #44]
 4186 0126 0133     		add	r3, r3, #1
 4187 0128 1B01     		lsl	r3, r3, #4
 4188 012a 3A68     		ldr	r2, [r7]
 4189 012c D318     		add	r3, r2, r3
 4190 012e 5B68     		ldr	r3, [r3, #4]
 4191 0130 BA68     		ldr	r2, [r7, #8]
 4192 0132 D318     		add	r3, r2, r3
 4193 0134 7B62     		str	r3, [r7, #36]
 369:.\Generated_Source\PSoC4/comm.c ****       valueLen = tokens[t+1].end - tokens[t+1].start;
 4194              		.loc 1 369 0
 4195 0136 FB6A     		ldr	r3, [r7, #44]
 4196 0138 0133     		add	r3, r3, #1
 4197 013a 1B01     		lsl	r3, r3, #4
 4198 013c 3A68     		ldr	r2, [r7]
 4199 013e D318     		add	r3, r2, r3
 4200 0140 9A68     		ldr	r2, [r3, #8]
 4201 0142 FB6A     		ldr	r3, [r7, #44]
 4202 0144 0133     		add	r3, r3, #1
 4203 0146 1B01     		lsl	r3, r3, #4
 4204 0148 3968     		ldr	r1, [r7]
 4205 014a CB18     		add	r3, r1, r3
 4206 014c 5B68     		ldr	r3, [r3, #4]
 4207 014e D31A     		sub	r3, r2, r3
 4208 0150 3B62     		str	r3, [r7, #32]
 4209              	.L192:
 370:.\Generated_Source\PSoC4/comm.c ****     }
 371:.\Generated_Source\PSoC4/comm.c ****     t = skipToNextTokenInLevel(tokens, ++t);
 4210              		.loc 1 371 0
 4211 0152 FB6A     		ldr	r3, [r7, #44]
 4212 0154 0133     		add	r3, r3, #1
 4213 0156 FB62     		str	r3, [r7, #44]
 4214 0158 3A68     		ldr	r2, [r7]
 4215 015a FB6A     		ldr	r3, [r7, #44]
 4216 015c 101C     		mov	r0, r2
 4217 015e 191C     		mov	r1, r3
 4218 0160 FFF7FEFF 		bl	skipToNextTokenInLevel
 4219 0164 031C     		mov	r3, r0
 4220 0166 FB62     		str	r3, [r7, #44]
 356:.\Generated_Source\PSoC4/comm.c ****   for(; i < tokens[0].size; i++) {
 4221              		.loc 1 356 0
 4222 0168 7B69     		ldr	r3, [r7, #20]
ARM GAS  C:\Users\SDEVAS~1\AppData\Local\Temp\cc8KFjZb.s 			page 87


 4223 016a 0133     		add	r3, r3, #1
 4224 016c 7B61     		str	r3, [r7, #20]
 4225              	.L189:
 356:.\Generated_Source\PSoC4/comm.c ****   for(; i < tokens[0].size; i++) {
 4226              		.loc 1 356 0 is_stmt 0 discriminator 1
 4227 016e 3B68     		ldr	r3, [r7]
 4228 0170 DA68     		ldr	r2, [r3, #12]
 4229 0172 7B69     		ldr	r3, [r7, #20]
 4230 0174 9A42     		cmp	r2, r3
 4231 0176 00DD     		ble	.LCB3704
 4232 0178 6BE7     		b	.L194	@long jump
 4233              	.LCB3704:
 372:.\Generated_Source\PSoC4/comm.c ****   }
 373:.\Generated_Source\PSoC4/comm.c **** 
 374:.\Generated_Source\PSoC4/comm.c ****   if(value == NULL || type == NULL || avid == INVALID_ATOM_VARIABLE) {
 4234              		.loc 1 374 0 is_stmt 1
 4235 017a 7B6A     		ldr	r3, [r7, #36]
 4236 017c 002B     		cmp	r3, #0
 4237 017e 01D1     		bne	.LCB3707
 4238 0180 00F07BFB 		bl	.L188	@far jump
 4239              	.LCB3707:
 4240              		.loc 1 374 0 is_stmt 0 discriminator 1
 4241 0184 FB69     		ldr	r3, [r7, #28]
 4242 0186 002B     		cmp	r3, #0
 4243 0188 01D1     		bne	.LCB3710
 4244 018a 00F076FB 		bl	.L188	@far jump
 4245              	.LCB3710:
 4246 018e 3B1C     		mov	r3, r7
 4247 0190 2B33     		add	r3, r3, #43
 4248 0192 1B78     		ldrb	r3, [r3]
 4249 0194 252B     		cmp	r3, #37
 4250 0196 01D1     		bne	.LCB3715
 4251 0198 00F06FFB 		bl	.L188	@far jump
 4252              	.LCB3715:
 375:.\Generated_Source\PSoC4/comm.c **** 	  //failed to properly parse Payload
 376:.\Generated_Source\PSoC4/comm.c **** 	  goto error_exit;
 377:.\Generated_Source\PSoC4/comm.c ****   }
 378:.\Generated_Source\PSoC4/comm.c **** 
 379:.\Generated_Source\PSoC4/comm.c ****   switch(avid) {
 4253              		.loc 1 379 0 is_stmt 1
 4254 019c 3B1C     		mov	r3, r7
 4255 019e 2B33     		add	r3, r3, #43
 4256 01a0 1B78     		ldrb	r3, [r3]
 4257 01a2 232B     		cmp	r3, #35
 4258 01a4 00D9     		bls	.LCB3720
 4259 01a6 67E3     		b	.L270	@long jump
 4260              	.LCB3720:
 4261 01a8 9A00     		lsl	r2, r3, #2
 4262 01aa 8F4B     		ldr	r3, .L272+12
 4263 01ac D318     		add	r3, r2, r3
 4264 01ae 1B68     		ldr	r3, [r3]
 4265 01b0 9F46     		mov	pc, r3
 4266              		.section	.rodata
 4267 0a57 00       		.align	2
 4268              	.L197:
 4269 0a58 B2010000 		.word	.L196
 4270 0a5c E0010000 		.word	.L198
ARM GAS  C:\Users\SDEVAS~1\AppData\Local\Temp\cc8KFjZb.s 			page 88


 4271 0a60 0E020000 		.word	.L199
 4272 0a64 3C020000 		.word	.L200
 4273 0a68 6A020000 		.word	.L201
 4274 0a6c 98020000 		.word	.L202
 4275 0a70 C6020000 		.word	.L203
 4276 0a74 F4020000 		.word	.L204
 4277 0a78 22030000 		.word	.L205
 4278 0a7c 50030000 		.word	.L206
 4279 0a80 7E030000 		.word	.L207
 4280 0a84 AC030000 		.word	.L208
 4281 0a88 F4030000 		.word	.L209
 4282 0a8c 22040000 		.word	.L210
 4283 0a90 50040000 		.word	.L211
 4284 0a94 7E040000 		.word	.L212
 4285 0a98 AC040000 		.word	.L213
 4286 0a9c DA040000 		.word	.L214
 4287 0aa0 08050000 		.word	.L215
 4288 0aa4 36050000 		.word	.L216
 4289 0aa8 64050000 		.word	.L217
 4290 0aac 92050000 		.word	.L218
 4291 0ab0 C0050000 		.word	.L219
 4292 0ab4 EE050000 		.word	.L220
 4293 0ab8 1C060000 		.word	.L221
 4294 0abc 4A060000 		.word	.L222
 4295 0ac0 78060000 		.word	.L223
 4296 0ac4 A6060000 		.word	.L224
 4297 0ac8 D4060000 		.word	.L225
 4298 0acc 02070000 		.word	.L226
 4299 0ad0 38070000 		.word	.L227
 4300 0ad4 66070000 		.word	.L228
 4301 0ad8 94070000 		.word	.L229
 4302 0adc C2070000 		.word	.L230
 4303 0ae0 F0070000 		.word	.L231
 4304 0ae4 1E080000 		.word	.L232
 4305              		.section	.text.comm_handle_Set
 4306              	.L196:
 380:.\Generated_Source\PSoC4/comm.c **** #define X(name, vtype, jtype) \
 381:.\Generated_Source\PSoC4/comm.c ****     case ATOM_VARIABLE_##name: { \
 382:.\Generated_Source\PSoC4/comm.c ****       if(strncmp(type, #jtype, typeLen) == 0) \
 383:.\Generated_Source\PSoC4/comm.c ****         setvar_##name(conv_str2##jtype(value, valueLen)); \
 384:.\Generated_Source\PSoC4/comm.c ****     } break;
 385:.\Generated_Source\PSoC4/comm.c ****     ATOM_VARIABLES
 4307              		.loc 1 385 0
 4308 01b2 BB69     		ldr	r3, [r7, #24]
 4309 01b4 F969     		ldr	r1, [r7, #28]
 4310 01b6 8D4A     		ldr	r2, .L272+16
 4311 01b8 081C     		mov	r0, r1
 4312 01ba 111C     		mov	r1, r2
 4313 01bc 1A1C     		mov	r2, r3
 4314 01be FFF7FEFF 		bl	strncmp
 4315 01c2 031C     		mov	r3, r0
 4316 01c4 002B     		cmp	r3, #0
 4317 01c6 0AD1     		bne	.L233
 4318              		.loc 1 385 0 is_stmt 0 discriminator 1
 4319 01c8 7A6A     		ldr	r2, [r7, #36]
 4320 01ca 3B6A     		ldr	r3, [r7, #32]
 4321 01cc 101C     		mov	r0, r2
ARM GAS  C:\Users\SDEVAS~1\AppData\Local\Temp\cc8KFjZb.s 			page 89


 4322 01ce 191C     		mov	r1, r3
 4323 01d0 FFF7FEFF 		bl	conv_str2i
 4324 01d4 031C     		mov	r3, r0
 4325 01d6 181C     		mov	r0, r3
 4326 01d8 FFF7FEFF 		bl	setvar_sleepPeriod
 4327 01dc 35E3     		b	.L271
 4328              	.L233:
 4329              		.loc 1 385 0 discriminator 2
 4330 01de 34E3     		b	.L271
 4331              	.L198:
 4332              		.loc 1 385 0
 4333 01e0 BB69     		ldr	r3, [r7, #24]
 4334 01e2 F969     		ldr	r1, [r7, #28]
 4335 01e4 814A     		ldr	r2, .L272+16
 4336 01e6 081C     		mov	r0, r1
 4337 01e8 111C     		mov	r1, r2
 4338 01ea 1A1C     		mov	r2, r3
 4339 01ec FFF7FEFF 		bl	strncmp
 4340 01f0 031C     		mov	r3, r0
 4341 01f2 002B     		cmp	r3, #0
 4342 01f4 0AD1     		bne	.L235
 4343              		.loc 1 385 0 discriminator 1
 4344 01f6 7A6A     		ldr	r2, [r7, #36]
 4345 01f8 3B6A     		ldr	r3, [r7, #32]
 4346 01fa 101C     		mov	r0, r2
 4347 01fc 191C     		mov	r1, r3
 4348 01fe FFF7FEFF 		bl	conv_str2i
 4349 0202 031C     		mov	r3, r0
 4350 0204 181C     		mov	r0, r3
 4351 0206 FFF7FEFF 		bl	setvar_shutdownTime
 4352 020a 1EE3     		b	.L271
 4353              	.L235:
 4354              		.loc 1 385 0 discriminator 2
 4355 020c 1DE3     		b	.L271
 4356              	.L199:
 4357              		.loc 1 385 0
 4358 020e BB69     		ldr	r3, [r7, #24]
 4359 0210 F969     		ldr	r1, [r7, #28]
 4360 0212 774A     		ldr	r2, .L272+20
 4361 0214 081C     		mov	r0, r1
 4362 0216 111C     		mov	r1, r2
 4363 0218 1A1C     		mov	r2, r3
 4364 021a FFF7FEFF 		bl	strncmp
 4365 021e 031C     		mov	r3, r0
 4366 0220 002B     		cmp	r3, #0
 4367 0222 0AD1     		bne	.L236
 4368              		.loc 1 385 0 discriminator 1
 4369 0224 7A6A     		ldr	r2, [r7, #36]
 4370 0226 3B6A     		ldr	r3, [r7, #32]
 4371 0228 101C     		mov	r0, r2
 4372 022a 191C     		mov	r1, r3
 4373 022c FFF7FEFF 		bl	conv_str2s
 4374 0230 031C     		mov	r3, r0
 4375 0232 181C     		mov	r0, r3
 4376 0234 FFF7FEFF 		bl	setvar_test
 4377 0238 07E3     		b	.L271
 4378              	.L236:
ARM GAS  C:\Users\SDEVAS~1\AppData\Local\Temp\cc8KFjZb.s 			page 90


 4379              		.loc 1 385 0 discriminator 2
 4380 023a 06E3     		b	.L271
 4381              	.L200:
 4382              		.loc 1 385 0
 4383 023c BB69     		ldr	r3, [r7, #24]
 4384 023e F969     		ldr	r1, [r7, #28]
 4385 0240 6A4A     		ldr	r2, .L272+16
 4386 0242 081C     		mov	r0, r1
 4387 0244 111C     		mov	r1, r2
 4388 0246 1A1C     		mov	r2, r3
 4389 0248 FFF7FEFF 		bl	strncmp
 4390 024c 031C     		mov	r3, r0
 4391 024e 002B     		cmp	r3, #0
 4392 0250 0AD1     		bne	.L237
 4393              		.loc 1 385 0 discriminator 1
 4394 0252 7A6A     		ldr	r2, [r7, #36]
 4395 0254 3B6A     		ldr	r3, [r7, #32]
 4396 0256 101C     		mov	r0, r2
 4397 0258 191C     		mov	r1, r3
 4398 025a FFF7FEFF 		bl	conv_str2i
 4399 025e 031C     		mov	r3, r0
 4400 0260 181C     		mov	r0, r3
 4401 0262 FFF7FEFF 		bl	setvar_innerPressure
 4402 0266 F0E2     		b	.L271
 4403              	.L237:
 4404              		.loc 1 385 0 discriminator 2
 4405 0268 EFE2     		b	.L271
 4406              	.L201:
 4407              		.loc 1 385 0
 4408 026a BB69     		ldr	r3, [r7, #24]
 4409 026c F969     		ldr	r1, [r7, #28]
 4410 026e 5F4A     		ldr	r2, .L272+16
 4411 0270 081C     		mov	r0, r1
 4412 0272 111C     		mov	r1, r2
 4413 0274 1A1C     		mov	r2, r3
 4414 0276 FFF7FEFF 		bl	strncmp
 4415 027a 031C     		mov	r3, r0
 4416 027c 002B     		cmp	r3, #0
 4417 027e 0AD1     		bne	.L238
 4418              		.loc 1 385 0 discriminator 1
 4419 0280 7A6A     		ldr	r2, [r7, #36]
 4420 0282 3B6A     		ldr	r3, [r7, #32]
 4421 0284 101C     		mov	r0, r2
 4422 0286 191C     		mov	r1, r3
 4423 0288 FFF7FEFF 		bl	conv_str2i
 4424 028c 031C     		mov	r3, r0
 4425 028e 181C     		mov	r0, r3
 4426 0290 FFF7FEFF 		bl	setvar_outerPressure
 4427 0294 D9E2     		b	.L271
 4428              	.L238:
 4429              		.loc 1 385 0 discriminator 2
 4430 0296 D8E2     		b	.L271
 4431              	.L202:
 4432              		.loc 1 385 0
 4433 0298 BB69     		ldr	r3, [r7, #24]
 4434 029a F969     		ldr	r1, [r7, #28]
 4435 029c 534A     		ldr	r2, .L272+16
ARM GAS  C:\Users\SDEVAS~1\AppData\Local\Temp\cc8KFjZb.s 			page 91


 4436 029e 081C     		mov	r0, r1
 4437 02a0 111C     		mov	r1, r2
 4438 02a2 1A1C     		mov	r2, r3
 4439 02a4 FFF7FEFF 		bl	strncmp
 4440 02a8 031C     		mov	r3, r0
 4441 02aa 002B     		cmp	r3, #0
 4442 02ac 0AD1     		bne	.L239
 4443              		.loc 1 385 0 discriminator 1
 4444 02ae 7A6A     		ldr	r2, [r7, #36]
 4445 02b0 3B6A     		ldr	r3, [r7, #32]
 4446 02b2 101C     		mov	r0, r2
 4447 02b4 191C     		mov	r1, r3
 4448 02b6 FFF7FEFF 		bl	conv_str2i
 4449 02ba 031C     		mov	r3, r0
 4450 02bc 181C     		mov	r0, r3
 4451 02be FFF7FEFF 		bl	setvar_currentFlow
 4452 02c2 C2E2     		b	.L271
 4453              	.L239:
 4454              		.loc 1 385 0 discriminator 2
 4455 02c4 C1E2     		b	.L271
 4456              	.L203:
 4457              		.loc 1 385 0
 4458 02c6 BB69     		ldr	r3, [r7, #24]
 4459 02c8 F969     		ldr	r1, [r7, #28]
 4460 02ca 484A     		ldr	r2, .L272+16
 4461 02cc 081C     		mov	r0, r1
 4462 02ce 111C     		mov	r1, r2
 4463 02d0 1A1C     		mov	r2, r3
 4464 02d2 FFF7FEFF 		bl	strncmp
 4465 02d6 031C     		mov	r3, r0
 4466 02d8 002B     		cmp	r3, #0
 4467 02da 0AD1     		bne	.L240
 4468              		.loc 1 385 0 discriminator 1
 4469 02dc 7A6A     		ldr	r2, [r7, #36]
 4470 02de 3B6A     		ldr	r3, [r7, #32]
 4471 02e0 101C     		mov	r0, r2
 4472 02e2 191C     		mov	r1, r3
 4473 02e4 FFF7FEFF 		bl	conv_str2i
 4474 02e8 031C     		mov	r3, r0
 4475 02ea 181C     		mov	r0, r3
 4476 02ec FFF7FEFF 		bl	setvar_totalVolume
 4477 02f0 ABE2     		b	.L271
 4478              	.L240:
 4479              		.loc 1 385 0 discriminator 2
 4480 02f2 AAE2     		b	.L271
 4481              	.L204:
 4482              		.loc 1 385 0
 4483 02f4 BB69     		ldr	r3, [r7, #24]
 4484 02f6 F969     		ldr	r1, [r7, #28]
 4485 02f8 3C4A     		ldr	r2, .L272+16
 4486 02fa 081C     		mov	r0, r1
 4487 02fc 111C     		mov	r1, r2
 4488 02fe 1A1C     		mov	r2, r3
 4489 0300 FFF7FEFF 		bl	strncmp
 4490 0304 031C     		mov	r3, r0
 4491 0306 002B     		cmp	r3, #0
 4492 0308 0AD1     		bne	.L241
ARM GAS  C:\Users\SDEVAS~1\AppData\Local\Temp\cc8KFjZb.s 			page 92


 4493              		.loc 1 385 0 discriminator 1
 4494 030a 7A6A     		ldr	r2, [r7, #36]
 4495 030c 3B6A     		ldr	r3, [r7, #32]
 4496 030e 101C     		mov	r0, r2
 4497 0310 191C     		mov	r1, r3
 4498 0312 FFF7FEFF 		bl	conv_str2i
 4499 0316 031C     		mov	r3, r0
 4500 0318 181C     		mov	r0, r3
 4501 031a FFF7FEFF 		bl	setvar_valveStatus
 4502 031e 94E2     		b	.L271
 4503              	.L241:
 4504              		.loc 1 385 0 discriminator 2
 4505 0320 93E2     		b	.L271
 4506              	.L205:
 4507              		.loc 1 385 0
 4508 0322 BB69     		ldr	r3, [r7, #24]
 4509 0324 F969     		ldr	r1, [r7, #28]
 4510 0326 314A     		ldr	r2, .L272+16
 4511 0328 081C     		mov	r0, r1
 4512 032a 111C     		mov	r1, r2
 4513 032c 1A1C     		mov	r2, r3
 4514 032e FFF7FEFF 		bl	strncmp
 4515 0332 031C     		mov	r3, r0
 4516 0334 002B     		cmp	r3, #0
 4517 0336 0AD1     		bne	.L242
 4518              		.loc 1 385 0 discriminator 1
 4519 0338 7A6A     		ldr	r2, [r7, #36]
 4520 033a 3B6A     		ldr	r3, [r7, #32]
 4521 033c 101C     		mov	r0, r2
 4522 033e 191C     		mov	r1, r3
 4523 0340 FFF7FEFF 		bl	conv_str2i
 4524 0344 031C     		mov	r3, r0
 4525 0346 181C     		mov	r0, r3
 4526 0348 FFF7FEFF 		bl	setvar_lastStartNumber
 4527 034c 7DE2     		b	.L271
 4528              	.L242:
 4529              		.loc 1 385 0 discriminator 2
 4530 034e 7CE2     		b	.L271
 4531              	.L206:
 4532              		.loc 1 385 0
 4533 0350 BB69     		ldr	r3, [r7, #24]
 4534 0352 F969     		ldr	r1, [r7, #28]
 4535 0354 254A     		ldr	r2, .L272+16
 4536 0356 081C     		mov	r0, r1
 4537 0358 111C     		mov	r1, r2
 4538 035a 1A1C     		mov	r2, r3
 4539 035c FFF7FEFF 		bl	strncmp
 4540 0360 031C     		mov	r3, r0
 4541 0362 002B     		cmp	r3, #0
 4542 0364 0AD1     		bne	.L243
 4543              		.loc 1 385 0 discriminator 1
 4544 0366 7A6A     		ldr	r2, [r7, #36]
 4545 0368 3B6A     		ldr	r3, [r7, #32]
 4546 036a 101C     		mov	r0, r2
 4547 036c 191C     		mov	r1, r3
 4548 036e FFF7FEFF 		bl	conv_str2i
 4549 0372 031C     		mov	r3, r0
ARM GAS  C:\Users\SDEVAS~1\AppData\Local\Temp\cc8KFjZb.s 			page 93


 4550 0374 181C     		mov	r0, r3
 4551 0376 FFF7FEFF 		bl	setvar_lastStartVolume
 4552 037a 66E2     		b	.L271
 4553              	.L243:
 4554              		.loc 1 385 0 discriminator 2
 4555 037c 65E2     		b	.L271
 4556              	.L207:
 4557              		.loc 1 385 0
 4558 037e BB69     		ldr	r3, [r7, #24]
 4559 0380 F969     		ldr	r1, [r7, #28]
 4560 0382 1A4A     		ldr	r2, .L272+16
 4561 0384 081C     		mov	r0, r1
 4562 0386 111C     		mov	r1, r2
 4563 0388 1A1C     		mov	r2, r3
 4564 038a FFF7FEFF 		bl	strncmp
 4565 038e 031C     		mov	r3, r0
 4566 0390 002B     		cmp	r3, #0
 4567 0392 0AD1     		bne	.L244
 4568              		.loc 1 385 0 discriminator 1
 4569 0394 7A6A     		ldr	r2, [r7, #36]
 4570 0396 3B6A     		ldr	r3, [r7, #32]
 4571 0398 101C     		mov	r0, r2
 4572 039a 191C     		mov	r1, r3
 4573 039c FFF7FEFF 		bl	conv_str2i
 4574 03a0 031C     		mov	r3, r0
 4575 03a2 181C     		mov	r0, r3
 4576 03a4 FFF7FEFF 		bl	setvar_lastStartFlow
 4577 03a8 4FE2     		b	.L271
 4578              	.L244:
 4579              		.loc 1 385 0 discriminator 2
 4580 03aa 4EE2     		b	.L271
 4581              	.L208:
 4582              		.loc 1 385 0
 4583 03ac BB69     		ldr	r3, [r7, #24]
 4584 03ae F969     		ldr	r1, [r7, #28]
 4585 03b0 0E4A     		ldr	r2, .L272+16
 4586 03b2 081C     		mov	r0, r1
 4587 03b4 111C     		mov	r1, r2
 4588 03b6 1A1C     		mov	r2, r3
 4589 03b8 FFF7FEFF 		bl	strncmp
 4590 03bc 031C     		mov	r3, r0
 4591 03be 002B     		cmp	r3, #0
 4592 03c0 0AD1     		bne	.L245
 4593              		.loc 1 385 0 discriminator 1
 4594 03c2 7A6A     		ldr	r2, [r7, #36]
 4595 03c4 3B6A     		ldr	r3, [r7, #32]
 4596 03c6 101C     		mov	r0, r2
 4597 03c8 191C     		mov	r1, r3
 4598 03ca FFF7FEFF 		bl	conv_str2i
 4599 03ce 031C     		mov	r3, r0
 4600 03d0 181C     		mov	r0, r3
 4601 03d2 FFF7FEFF 		bl	setvar_startTime
 4602 03d6 38E2     		b	.L271
 4603              	.L245:
 4604              		.loc 1 385 0 discriminator 2
 4605 03d8 37E2     		b	.L271
 4606              	.L273:
ARM GAS  C:\Users\SDEVAS~1\AppData\Local\Temp\cc8KFjZb.s 			page 94


 4607 03da C046     		.align	2
 4608              	.L272:
 4609 03dc 10030000 		.word	.LC102
 4610 03e0 440A0000 		.word	.LC182
 4611 03e4 480A0000 		.word	.LC184
 4612 03e8 580A0000 		.word	.L197
 4613 03ec 4C0A0000 		.word	.LC187
 4614 03f0 500A0000 		.word	.LC189
 4615              	.L209:
 4616              		.loc 1 385 0
 4617 03f4 BB69     		ldr	r3, [r7, #24]
 4618 03f6 F969     		ldr	r1, [r7, #28]
 4619 03f8 CD4A     		ldr	r2, .L274
 4620 03fa 081C     		mov	r0, r1
 4621 03fc 111C     		mov	r1, r2
 4622 03fe 1A1C     		mov	r2, r3
 4623 0400 FFF7FEFF 		bl	strncmp
 4624 0404 031C     		mov	r3, r0
 4625 0406 002B     		cmp	r3, #0
 4626 0408 0AD1     		bne	.L246
 4627              		.loc 1 385 0 discriminator 1
 4628 040a 7A6A     		ldr	r2, [r7, #36]
 4629 040c 3B6A     		ldr	r3, [r7, #32]
 4630 040e 101C     		mov	r0, r2
 4631 0410 191C     		mov	r1, r3
 4632 0412 FFF7FEFF 		bl	conv_str2i
 4633 0416 031C     		mov	r3, r0
 4634 0418 181C     		mov	r0, r3
 4635 041a FFF7FEFF 		bl	setvar_stopTime
 4636 041e 14E2     		b	.L271
 4637              	.L246:
 4638              		.loc 1 385 0 discriminator 2
 4639 0420 13E2     		b	.L271
 4640              	.L210:
 4641              		.loc 1 385 0
 4642 0422 BB69     		ldr	r3, [r7, #24]
 4643 0424 F969     		ldr	r1, [r7, #28]
 4644 0426 C24A     		ldr	r2, .L274
 4645 0428 081C     		mov	r0, r1
 4646 042a 111C     		mov	r1, r2
 4647 042c 1A1C     		mov	r2, r3
 4648 042e FFF7FEFF 		bl	strncmp
 4649 0432 031C     		mov	r3, r0
 4650 0434 002B     		cmp	r3, #0
 4651 0436 0AD1     		bne	.L247
 4652              		.loc 1 385 0 discriminator 1
 4653 0438 7A6A     		ldr	r2, [r7, #36]
 4654 043a 3B6A     		ldr	r3, [r7, #32]
 4655 043c 101C     		mov	r0, r2
 4656 043e 191C     		mov	r1, r3
 4657 0440 FFF7FEFF 		bl	conv_str2i
 4658 0444 031C     		mov	r3, r0
 4659 0446 181C     		mov	r0, r3
 4660 0448 FFF7FEFF 		bl	setvar_numStarts
 4661 044c FDE1     		b	.L271
 4662              	.L247:
 4663              		.loc 1 385 0 discriminator 2
ARM GAS  C:\Users\SDEVAS~1\AppData\Local\Temp\cc8KFjZb.s 			page 95


 4664 044e FCE1     		b	.L271
 4665              	.L211:
 4666              		.loc 1 385 0
 4667 0450 BB69     		ldr	r3, [r7, #24]
 4668 0452 F969     		ldr	r1, [r7, #28]
 4669 0454 B64A     		ldr	r2, .L274
 4670 0456 081C     		mov	r0, r1
 4671 0458 111C     		mov	r1, r2
 4672 045a 1A1C     		mov	r2, r3
 4673 045c FFF7FEFF 		bl	strncmp
 4674 0460 031C     		mov	r3, r0
 4675 0462 002B     		cmp	r3, #0
 4676 0464 0AD1     		bne	.L248
 4677              		.loc 1 385 0 discriminator 1
 4678 0466 7A6A     		ldr	r2, [r7, #36]
 4679 0468 3B6A     		ldr	r3, [r7, #32]
 4680 046a 101C     		mov	r0, r2
 4681 046c 191C     		mov	r1, r3
 4682 046e FFF7FEFF 		bl	conv_str2i
 4683 0472 031C     		mov	r3, r0
 4684 0474 181C     		mov	r0, r3
 4685 0476 FFF7FEFF 		bl	setvar_volPerStart
 4686 047a E6E1     		b	.L271
 4687              	.L248:
 4688              		.loc 1 385 0 discriminator 2
 4689 047c E5E1     		b	.L271
 4690              	.L212:
 4691              		.loc 1 385 0
 4692 047e BB69     		ldr	r3, [r7, #24]
 4693 0480 F969     		ldr	r1, [r7, #28]
 4694 0482 AB4A     		ldr	r2, .L274
 4695 0484 081C     		mov	r0, r1
 4696 0486 111C     		mov	r1, r2
 4697 0488 1A1C     		mov	r2, r3
 4698 048a FFF7FEFF 		bl	strncmp
 4699 048e 031C     		mov	r3, r0
 4700 0490 002B     		cmp	r3, #0
 4701 0492 0AD1     		bne	.L249
 4702              		.loc 1 385 0 discriminator 1
 4703 0494 7A6A     		ldr	r2, [r7, #36]
 4704 0496 3B6A     		ldr	r3, [r7, #32]
 4705 0498 101C     		mov	r0, r2
 4706 049a 191C     		mov	r1, r3
 4707 049c FFF7FEFF 		bl	conv_str2i
 4708 04a0 031C     		mov	r3, r0
 4709 04a2 181C     		mov	r0, r3
 4710 04a4 FFF7FEFF 		bl	setvar_maxVol
 4711 04a8 CFE1     		b	.L271
 4712              	.L249:
 4713              		.loc 1 385 0 discriminator 2
 4714 04aa CEE1     		b	.L271
 4715              	.L213:
 4716              		.loc 1 385 0
 4717 04ac BB69     		ldr	r3, [r7, #24]
 4718 04ae F969     		ldr	r1, [r7, #28]
 4719 04b0 9F4A     		ldr	r2, .L274
 4720 04b2 081C     		mov	r0, r1
ARM GAS  C:\Users\SDEVAS~1\AppData\Local\Temp\cc8KFjZb.s 			page 96


 4721 04b4 111C     		mov	r1, r2
 4722 04b6 1A1C     		mov	r2, r3
 4723 04b8 FFF7FEFF 		bl	strncmp
 4724 04bc 031C     		mov	r3, r0
 4725 04be 002B     		cmp	r3, #0
 4726 04c0 0AD1     		bne	.L250
 4727              		.loc 1 385 0 discriminator 1
 4728 04c2 7A6A     		ldr	r2, [r7, #36]
 4729 04c4 3B6A     		ldr	r3, [r7, #32]
 4730 04c6 101C     		mov	r0, r2
 4731 04c8 191C     		mov	r1, r3
 4732 04ca FFF7FEFF 		bl	conv_str2i
 4733 04ce 031C     		mov	r3, r0
 4734 04d0 181C     		mov	r0, r3
 4735 04d2 FFF7FEFF 		bl	setvar_minVol
 4736 04d6 B8E1     		b	.L271
 4737              	.L250:
 4738              		.loc 1 385 0 discriminator 2
 4739 04d8 B7E1     		b	.L271
 4740              	.L214:
 4741              		.loc 1 385 0
 4742 04da BB69     		ldr	r3, [r7, #24]
 4743 04dc F969     		ldr	r1, [r7, #28]
 4744 04de 954A     		ldr	r2, .L274+4
 4745 04e0 081C     		mov	r0, r1
 4746 04e2 111C     		mov	r1, r2
 4747 04e4 1A1C     		mov	r2, r3
 4748 04e6 FFF7FEFF 		bl	strncmp
 4749 04ea 031C     		mov	r3, r0
 4750 04ec 002B     		cmp	r3, #0
 4751 04ee 0AD1     		bne	.L251
 4752              		.loc 1 385 0 discriminator 1
 4753 04f0 7A6A     		ldr	r2, [r7, #36]
 4754 04f2 3B6A     		ldr	r3, [r7, #32]
 4755 04f4 101C     		mov	r0, r2
 4756 04f6 191C     		mov	r1, r3
 4757 04f8 FFF7FEFF 		bl	conv_str2ia
 4758 04fc 031C     		mov	r3, r0
 4759 04fe 181C     		mov	r0, r3
 4760 0500 FFF7FEFF 		bl	setvar_fertigationTable0
 4761 0504 A1E1     		b	.L271
 4762              	.L251:
 4763              		.loc 1 385 0 discriminator 2
 4764 0506 A0E1     		b	.L271
 4765              	.L215:
 4766              		.loc 1 385 0
 4767 0508 BB69     		ldr	r3, [r7, #24]
 4768 050a F969     		ldr	r1, [r7, #28]
 4769 050c 894A     		ldr	r2, .L274+4
 4770 050e 081C     		mov	r0, r1
 4771 0510 111C     		mov	r1, r2
 4772 0512 1A1C     		mov	r2, r3
 4773 0514 FFF7FEFF 		bl	strncmp
 4774 0518 031C     		mov	r3, r0
 4775 051a 002B     		cmp	r3, #0
 4776 051c 0AD1     		bne	.L252
 4777              		.loc 1 385 0 discriminator 1
ARM GAS  C:\Users\SDEVAS~1\AppData\Local\Temp\cc8KFjZb.s 			page 97


 4778 051e 7A6A     		ldr	r2, [r7, #36]
 4779 0520 3B6A     		ldr	r3, [r7, #32]
 4780 0522 101C     		mov	r0, r2
 4781 0524 191C     		mov	r1, r3
 4782 0526 FFF7FEFF 		bl	conv_str2ia
 4783 052a 031C     		mov	r3, r0
 4784 052c 181C     		mov	r0, r3
 4785 052e FFF7FEFF 		bl	setvar_fertigationTable1
 4786 0532 8AE1     		b	.L271
 4787              	.L252:
 4788              		.loc 1 385 0 discriminator 2
 4789 0534 89E1     		b	.L271
 4790              	.L216:
 4791              		.loc 1 385 0
 4792 0536 BB69     		ldr	r3, [r7, #24]
 4793 0538 F969     		ldr	r1, [r7, #28]
 4794 053a 7E4A     		ldr	r2, .L274+4
 4795 053c 081C     		mov	r0, r1
 4796 053e 111C     		mov	r1, r2
 4797 0540 1A1C     		mov	r2, r3
 4798 0542 FFF7FEFF 		bl	strncmp
 4799 0546 031C     		mov	r3, r0
 4800 0548 002B     		cmp	r3, #0
 4801 054a 0AD1     		bne	.L253
 4802              		.loc 1 385 0 discriminator 1
 4803 054c 7A6A     		ldr	r2, [r7, #36]
 4804 054e 3B6A     		ldr	r3, [r7, #32]
 4805 0550 101C     		mov	r0, r2
 4806 0552 191C     		mov	r1, r3
 4807 0554 FFF7FEFF 		bl	conv_str2ia
 4808 0558 031C     		mov	r3, r0
 4809 055a 181C     		mov	r0, r3
 4810 055c FFF7FEFF 		bl	setvar_fertigationTable2
 4811 0560 73E1     		b	.L271
 4812              	.L253:
 4813              		.loc 1 385 0 discriminator 2
 4814 0562 72E1     		b	.L271
 4815              	.L217:
 4816              		.loc 1 385 0
 4817 0564 BB69     		ldr	r3, [r7, #24]
 4818 0566 F969     		ldr	r1, [r7, #28]
 4819 0568 724A     		ldr	r2, .L274+4
 4820 056a 081C     		mov	r0, r1
 4821 056c 111C     		mov	r1, r2
 4822 056e 1A1C     		mov	r2, r3
 4823 0570 FFF7FEFF 		bl	strncmp
 4824 0574 031C     		mov	r3, r0
 4825 0576 002B     		cmp	r3, #0
 4826 0578 0AD1     		bne	.L254
 4827              		.loc 1 385 0 discriminator 1
 4828 057a 7A6A     		ldr	r2, [r7, #36]
 4829 057c 3B6A     		ldr	r3, [r7, #32]
 4830 057e 101C     		mov	r0, r2
 4831 0580 191C     		mov	r1, r3
 4832 0582 FFF7FEFF 		bl	conv_str2ia
 4833 0586 031C     		mov	r3, r0
 4834 0588 181C     		mov	r0, r3
ARM GAS  C:\Users\SDEVAS~1\AppData\Local\Temp\cc8KFjZb.s 			page 98


 4835 058a FFF7FEFF 		bl	setvar_fertigationTable3
 4836 058e 5CE1     		b	.L271
 4837              	.L254:
 4838              		.loc 1 385 0 discriminator 2
 4839 0590 5BE1     		b	.L271
 4840              	.L218:
 4841              		.loc 1 385 0
 4842 0592 BB69     		ldr	r3, [r7, #24]
 4843 0594 F969     		ldr	r1, [r7, #28]
 4844 0596 674A     		ldr	r2, .L274+4
 4845 0598 081C     		mov	r0, r1
 4846 059a 111C     		mov	r1, r2
 4847 059c 1A1C     		mov	r2, r3
 4848 059e FFF7FEFF 		bl	strncmp
 4849 05a2 031C     		mov	r3, r0
 4850 05a4 002B     		cmp	r3, #0
 4851 05a6 0AD1     		bne	.L255
 4852              		.loc 1 385 0 discriminator 1
 4853 05a8 7A6A     		ldr	r2, [r7, #36]
 4854 05aa 3B6A     		ldr	r3, [r7, #32]
 4855 05ac 101C     		mov	r0, r2
 4856 05ae 191C     		mov	r1, r3
 4857 05b0 FFF7FEFF 		bl	conv_str2ia
 4858 05b4 031C     		mov	r3, r0
 4859 05b6 181C     		mov	r0, r3
 4860 05b8 FFF7FEFF 		bl	setvar_fertigationTable4
 4861 05bc 45E1     		b	.L271
 4862              	.L255:
 4863              		.loc 1 385 0 discriminator 2
 4864 05be 44E1     		b	.L271
 4865              	.L219:
 4866              		.loc 1 385 0
 4867 05c0 BB69     		ldr	r3, [r7, #24]
 4868 05c2 F969     		ldr	r1, [r7, #28]
 4869 05c4 5B4A     		ldr	r2, .L274+4
 4870 05c6 081C     		mov	r0, r1
 4871 05c8 111C     		mov	r1, r2
 4872 05ca 1A1C     		mov	r2, r3
 4873 05cc FFF7FEFF 		bl	strncmp
 4874 05d0 031C     		mov	r3, r0
 4875 05d2 002B     		cmp	r3, #0
 4876 05d4 0AD1     		bne	.L256
 4877              		.loc 1 385 0 discriminator 1
 4878 05d6 7A6A     		ldr	r2, [r7, #36]
 4879 05d8 3B6A     		ldr	r3, [r7, #32]
 4880 05da 101C     		mov	r0, r2
 4881 05dc 191C     		mov	r1, r3
 4882 05de FFF7FEFF 		bl	conv_str2ia
 4883 05e2 031C     		mov	r3, r0
 4884 05e4 181C     		mov	r0, r3
 4885 05e6 FFF7FEFF 		bl	setvar_fertigationTable5
 4886 05ea 2EE1     		b	.L271
 4887              	.L256:
 4888              		.loc 1 385 0 discriminator 2
 4889 05ec 2DE1     		b	.L271
 4890              	.L220:
 4891              		.loc 1 385 0
ARM GAS  C:\Users\SDEVAS~1\AppData\Local\Temp\cc8KFjZb.s 			page 99


 4892 05ee BB69     		ldr	r3, [r7, #24]
 4893 05f0 F969     		ldr	r1, [r7, #28]
 4894 05f2 504A     		ldr	r2, .L274+4
 4895 05f4 081C     		mov	r0, r1
 4896 05f6 111C     		mov	r1, r2
 4897 05f8 1A1C     		mov	r2, r3
 4898 05fa FFF7FEFF 		bl	strncmp
 4899 05fe 031C     		mov	r3, r0
 4900 0600 002B     		cmp	r3, #0
 4901 0602 0AD1     		bne	.L257
 4902              		.loc 1 385 0 discriminator 1
 4903 0604 7A6A     		ldr	r2, [r7, #36]
 4904 0606 3B6A     		ldr	r3, [r7, #32]
 4905 0608 101C     		mov	r0, r2
 4906 060a 191C     		mov	r1, r3
 4907 060c FFF7FEFF 		bl	conv_str2ia
 4908 0610 031C     		mov	r3, r0
 4909 0612 181C     		mov	r0, r3
 4910 0614 FFF7FEFF 		bl	setvar_fertigationTable6
 4911 0618 17E1     		b	.L271
 4912              	.L257:
 4913              		.loc 1 385 0 discriminator 2
 4914 061a 16E1     		b	.L271
 4915              	.L221:
 4916              		.loc 1 385 0
 4917 061c BB69     		ldr	r3, [r7, #24]
 4918 061e F969     		ldr	r1, [r7, #28]
 4919 0620 444A     		ldr	r2, .L274+4
 4920 0622 081C     		mov	r0, r1
 4921 0624 111C     		mov	r1, r2
 4922 0626 1A1C     		mov	r2, r3
 4923 0628 FFF7FEFF 		bl	strncmp
 4924 062c 031C     		mov	r3, r0
 4925 062e 002B     		cmp	r3, #0
 4926 0630 0AD1     		bne	.L258
 4927              		.loc 1 385 0 discriminator 1
 4928 0632 7A6A     		ldr	r2, [r7, #36]
 4929 0634 3B6A     		ldr	r3, [r7, #32]
 4930 0636 101C     		mov	r0, r2
 4931 0638 191C     		mov	r1, r3
 4932 063a FFF7FEFF 		bl	conv_str2ia
 4933 063e 031C     		mov	r3, r0
 4934 0640 181C     		mov	r0, r3
 4935 0642 FFF7FEFF 		bl	setvar_fertigationTable7
 4936 0646 00E1     		b	.L271
 4937              	.L258:
 4938              		.loc 1 385 0 discriminator 2
 4939 0648 FFE0     		b	.L271
 4940              	.L222:
 4941              		.loc 1 385 0
 4942 064a BB69     		ldr	r3, [r7, #24]
 4943 064c F969     		ldr	r1, [r7, #28]
 4944 064e 394A     		ldr	r2, .L274+4
 4945 0650 081C     		mov	r0, r1
 4946 0652 111C     		mov	r1, r2
 4947 0654 1A1C     		mov	r2, r3
 4948 0656 FFF7FEFF 		bl	strncmp
ARM GAS  C:\Users\SDEVAS~1\AppData\Local\Temp\cc8KFjZb.s 			page 100


 4949 065a 031C     		mov	r3, r0
 4950 065c 002B     		cmp	r3, #0
 4951 065e 0AD1     		bne	.L259
 4952              		.loc 1 385 0 discriminator 1
 4953 0660 7A6A     		ldr	r2, [r7, #36]
 4954 0662 3B6A     		ldr	r3, [r7, #32]
 4955 0664 101C     		mov	r0, r2
 4956 0666 191C     		mov	r1, r3
 4957 0668 FFF7FEFF 		bl	conv_str2ia
 4958 066c 031C     		mov	r3, r0
 4959 066e 181C     		mov	r0, r3
 4960 0670 FFF7FEFF 		bl	setvar_fertigationTable8
 4961 0674 E9E0     		b	.L271
 4962              	.L259:
 4963              		.loc 1 385 0 discriminator 2
 4964 0676 E8E0     		b	.L271
 4965              	.L223:
 4966              		.loc 1 385 0
 4967 0678 BB69     		ldr	r3, [r7, #24]
 4968 067a F969     		ldr	r1, [r7, #28]
 4969 067c 2D4A     		ldr	r2, .L274+4
 4970 067e 081C     		mov	r0, r1
 4971 0680 111C     		mov	r1, r2
 4972 0682 1A1C     		mov	r2, r3
 4973 0684 FFF7FEFF 		bl	strncmp
 4974 0688 031C     		mov	r3, r0
 4975 068a 002B     		cmp	r3, #0
 4976 068c 0AD1     		bne	.L260
 4977              		.loc 1 385 0 discriminator 1
 4978 068e 7A6A     		ldr	r2, [r7, #36]
 4979 0690 3B6A     		ldr	r3, [r7, #32]
 4980 0692 101C     		mov	r0, r2
 4981 0694 191C     		mov	r1, r3
 4982 0696 FFF7FEFF 		bl	conv_str2ia
 4983 069a 031C     		mov	r3, r0
 4984 069c 181C     		mov	r0, r3
 4985 069e FFF7FEFF 		bl	setvar_fertigationTable9
 4986 06a2 D2E0     		b	.L271
 4987              	.L260:
 4988              		.loc 1 385 0 discriminator 2
 4989 06a4 D1E0     		b	.L271
 4990              	.L224:
 4991              		.loc 1 385 0
 4992 06a6 BB69     		ldr	r3, [r7, #24]
 4993 06a8 F969     		ldr	r1, [r7, #28]
 4994 06aa 214A     		ldr	r2, .L274
 4995 06ac 081C     		mov	r0, r1
 4996 06ae 111C     		mov	r1, r2
 4997 06b0 1A1C     		mov	r2, r3
 4998 06b2 FFF7FEFF 		bl	strncmp
 4999 06b6 031C     		mov	r3, r0
 5000 06b8 002B     		cmp	r3, #0
 5001 06ba 0AD1     		bne	.L261
 5002              		.loc 1 385 0 discriminator 1
 5003 06bc 7A6A     		ldr	r2, [r7, #36]
 5004 06be 3B6A     		ldr	r3, [r7, #32]
 5005 06c0 101C     		mov	r0, r2
ARM GAS  C:\Users\SDEVAS~1\AppData\Local\Temp\cc8KFjZb.s 			page 101


 5006 06c2 191C     		mov	r1, r3
 5007 06c4 FFF7FEFF 		bl	conv_str2i
 5008 06c8 031C     		mov	r3, r0
 5009 06ca 181C     		mov	r0, r3
 5010 06cc FFF7FEFF 		bl	setvar_notBefore
 5011 06d0 BBE0     		b	.L271
 5012              	.L261:
 5013              		.loc 1 385 0 discriminator 2
 5014 06d2 BAE0     		b	.L271
 5015              	.L225:
 5016              		.loc 1 385 0
 5017 06d4 BB69     		ldr	r3, [r7, #24]
 5018 06d6 F969     		ldr	r1, [r7, #28]
 5019 06d8 154A     		ldr	r2, .L274
 5020 06da 081C     		mov	r0, r1
 5021 06dc 111C     		mov	r1, r2
 5022 06de 1A1C     		mov	r2, r3
 5023 06e0 FFF7FEFF 		bl	strncmp
 5024 06e4 031C     		mov	r3, r0
 5025 06e6 002B     		cmp	r3, #0
 5026 06e8 0AD1     		bne	.L262
 5027              		.loc 1 385 0 discriminator 1
 5028 06ea 7A6A     		ldr	r2, [r7, #36]
 5029 06ec 3B6A     		ldr	r3, [r7, #32]
 5030 06ee 101C     		mov	r0, r2
 5031 06f0 191C     		mov	r1, r3
 5032 06f2 FFF7FEFF 		bl	conv_str2i
 5033 06f6 031C     		mov	r3, r0
 5034 06f8 181C     		mov	r0, r3
 5035 06fa FFF7FEFF 		bl	setvar_notAfter
 5036 06fe A4E0     		b	.L271
 5037              	.L262:
 5038              		.loc 1 385 0 discriminator 2
 5039 0700 A3E0     		b	.L271
 5040              	.L226:
 5041              		.loc 1 385 0
 5042 0702 BB69     		ldr	r3, [r7, #24]
 5043 0704 F969     		ldr	r1, [r7, #28]
 5044 0706 0A4A     		ldr	r2, .L274
 5045 0708 081C     		mov	r0, r1
 5046 070a 111C     		mov	r1, r2
 5047 070c 1A1C     		mov	r2, r3
 5048 070e FFF7FEFF 		bl	strncmp
 5049 0712 031C     		mov	r3, r0
 5050 0714 002B     		cmp	r3, #0
 5051 0716 0AD1     		bne	.L263
 5052              		.loc 1 385 0 discriminator 1
 5053 0718 7A6A     		ldr	r2, [r7, #36]
 5054 071a 3B6A     		ldr	r3, [r7, #32]
 5055 071c 101C     		mov	r0, r2
 5056 071e 191C     		mov	r1, r3
 5057 0720 FFF7FEFF 		bl	conv_str2i
 5058 0724 031C     		mov	r3, r0
 5059 0726 181C     		mov	r0, r3
 5060 0728 FFF7FEFF 		bl	setvar_dilutionFactorA
 5061 072c 8DE0     		b	.L271
 5062              	.L263:
ARM GAS  C:\Users\SDEVAS~1\AppData\Local\Temp\cc8KFjZb.s 			page 102


 5063              		.loc 1 385 0 discriminator 2
 5064 072e 8CE0     		b	.L271
 5065              	.L275:
 5066              		.align	2
 5067              	.L274:
 5068 0730 4C0A0000 		.word	.LC187
 5069 0734 540A0000 		.word	.LC191
 5070              	.L227:
 5071              		.loc 1 385 0
 5072 0738 BB69     		ldr	r3, [r7, #24]
 5073 073a F969     		ldr	r1, [r7, #28]
 5074 073c 5B4A     		ldr	r2, .L276
 5075 073e 081C     		mov	r0, r1
 5076 0740 111C     		mov	r1, r2
 5077 0742 1A1C     		mov	r2, r3
 5078 0744 FFF7FEFF 		bl	strncmp
 5079 0748 031C     		mov	r3, r0
 5080 074a 002B     		cmp	r3, #0
 5081 074c 0AD1     		bne	.L264
 5082              		.loc 1 385 0 discriminator 1
 5083 074e 7A6A     		ldr	r2, [r7, #36]
 5084 0750 3B6A     		ldr	r3, [r7, #32]
 5085 0752 101C     		mov	r0, r2
 5086 0754 191C     		mov	r1, r3
 5087 0756 FFF7FEFF 		bl	conv_str2i
 5088 075a 031C     		mov	r3, r0
 5089 075c 181C     		mov	r0, r3
 5090 075e FFF7FEFF 		bl	setvar_dilutionFactorB
 5091 0762 72E0     		b	.L271
 5092              	.L264:
 5093              		.loc 1 385 0 discriminator 2
 5094 0764 71E0     		b	.L271
 5095              	.L228:
 5096              		.loc 1 385 0
 5097 0766 BB69     		ldr	r3, [r7, #24]
 5098 0768 F969     		ldr	r1, [r7, #28]
 5099 076a 504A     		ldr	r2, .L276
 5100 076c 081C     		mov	r0, r1
 5101 076e 111C     		mov	r1, r2
 5102 0770 1A1C     		mov	r2, r3
 5103 0772 FFF7FEFF 		bl	strncmp
 5104 0776 031C     		mov	r3, r0
 5105 0778 002B     		cmp	r3, #0
 5106 077a 0AD1     		bne	.L265
 5107              		.loc 1 385 0 discriminator 1
 5108 077c 7A6A     		ldr	r2, [r7, #36]
 5109 077e 3B6A     		ldr	r3, [r7, #32]
 5110 0780 101C     		mov	r0, r2
 5111 0782 191C     		mov	r1, r3
 5112 0784 FFF7FEFF 		bl	conv_str2i
 5113 0788 031C     		mov	r3, r0
 5114 078a 181C     		mov	r0, r3
 5115 078c FFF7FEFF 		bl	setvar_venturiSuctionA
 5116 0790 5BE0     		b	.L271
 5117              	.L265:
 5118              		.loc 1 385 0 discriminator 2
 5119 0792 5AE0     		b	.L271
ARM GAS  C:\Users\SDEVAS~1\AppData\Local\Temp\cc8KFjZb.s 			page 103


 5120              	.L229:
 5121              		.loc 1 385 0
 5122 0794 BB69     		ldr	r3, [r7, #24]
 5123 0796 F969     		ldr	r1, [r7, #28]
 5124 0798 444A     		ldr	r2, .L276
 5125 079a 081C     		mov	r0, r1
 5126 079c 111C     		mov	r1, r2
 5127 079e 1A1C     		mov	r2, r3
 5128 07a0 FFF7FEFF 		bl	strncmp
 5129 07a4 031C     		mov	r3, r0
 5130 07a6 002B     		cmp	r3, #0
 5131 07a8 0AD1     		bne	.L266
 5132              		.loc 1 385 0 discriminator 1
 5133 07aa 7A6A     		ldr	r2, [r7, #36]
 5134 07ac 3B6A     		ldr	r3, [r7, #32]
 5135 07ae 101C     		mov	r0, r2
 5136 07b0 191C     		mov	r1, r3
 5137 07b2 FFF7FEFF 		bl	conv_str2i
 5138 07b6 031C     		mov	r3, r0
 5139 07b8 181C     		mov	r0, r3
 5140 07ba FFF7FEFF 		bl	setvar_venturiSuctionB
 5141 07be 44E0     		b	.L271
 5142              	.L266:
 5143              		.loc 1 385 0 discriminator 2
 5144 07c0 43E0     		b	.L271
 5145              	.L230:
 5146              		.loc 1 385 0
 5147 07c2 BB69     		ldr	r3, [r7, #24]
 5148 07c4 F969     		ldr	r1, [r7, #28]
 5149 07c6 394A     		ldr	r2, .L276
 5150 07c8 081C     		mov	r0, r1
 5151 07ca 111C     		mov	r1, r2
 5152 07cc 1A1C     		mov	r2, r3
 5153 07ce FFF7FEFF 		bl	strncmp
 5154 07d2 031C     		mov	r3, r0
 5155 07d4 002B     		cmp	r3, #0
 5156 07d6 0AD1     		bne	.L267
 5157              		.loc 1 385 0 discriminator 1
 5158 07d8 7A6A     		ldr	r2, [r7, #36]
 5159 07da 3B6A     		ldr	r3, [r7, #32]
 5160 07dc 101C     		mov	r0, r2
 5161 07de 191C     		mov	r1, r3
 5162 07e0 FFF7FEFF 		bl	conv_str2i
 5163 07e4 031C     		mov	r3, r0
 5164 07e6 181C     		mov	r0, r3
 5165 07e8 FFF7FEFF 		bl	setvar_squareMeters
 5166 07ec 2DE0     		b	.L271
 5167              	.L267:
 5168              		.loc 1 385 0 discriminator 2
 5169 07ee 2CE0     		b	.L271
 5170              	.L231:
 5171              		.loc 1 385 0
 5172 07f0 BB69     		ldr	r3, [r7, #24]
 5173 07f2 F969     		ldr	r1, [r7, #28]
 5174 07f4 2D4A     		ldr	r2, .L276
 5175 07f6 081C     		mov	r0, r1
 5176 07f8 111C     		mov	r1, r2
ARM GAS  C:\Users\SDEVAS~1\AppData\Local\Temp\cc8KFjZb.s 			page 104


 5177 07fa 1A1C     		mov	r2, r3
 5178 07fc FFF7FEFF 		bl	strncmp
 5179 0800 031C     		mov	r3, r0
 5180 0802 002B     		cmp	r3, #0
 5181 0804 0AD1     		bne	.L268
 5182              		.loc 1 385 0 discriminator 1
 5183 0806 7A6A     		ldr	r2, [r7, #36]
 5184 0808 3B6A     		ldr	r3, [r7, #32]
 5185 080a 101C     		mov	r0, r2
 5186 080c 191C     		mov	r1, r3
 5187 080e FFF7FEFF 		bl	conv_str2i
 5188 0812 031C     		mov	r3, r0
 5189 0814 181C     		mov	r0, r3
 5190 0816 FFF7FEFF 		bl	setvar_lPerSqMeterPerDay
 5191 081a 16E0     		b	.L271
 5192              	.L268:
 5193              		.loc 1 385 0 discriminator 2
 5194 081c 15E0     		b	.L271
 5195              	.L232:
 5196              		.loc 1 385 0
 5197 081e BB69     		ldr	r3, [r7, #24]
 5198 0820 F969     		ldr	r1, [r7, #28]
 5199 0822 224A     		ldr	r2, .L276
 5200 0824 081C     		mov	r0, r1
 5201 0826 111C     		mov	r1, r2
 5202 0828 1A1C     		mov	r2, r3
 5203 082a FFF7FEFF 		bl	strncmp
 5204 082e 031C     		mov	r3, r0
 5205 0830 002B     		cmp	r3, #0
 5206 0832 0AD1     		bne	.L269
 5207              		.loc 1 385 0 discriminator 1
 5208 0834 7A6A     		ldr	r2, [r7, #36]
 5209 0836 3B6A     		ldr	r3, [r7, #32]
 5210 0838 101C     		mov	r0, r2
 5211 083a 191C     		mov	r1, r3
 5212 083c FFF7FEFF 		bl	conv_str2i
 5213 0840 031C     		mov	r3, r0
 5214 0842 181C     		mov	r0, r3
 5215 0844 FFF7FEFF 		bl	setvar_cropType
 5216 0848 FFE7     		b	.L271
 5217              	.L269:
 5218              	.L271:
 5219              		.loc 1 385 0
 5220 084a C046     		mov	r8, r8
 386:.\Generated_Source\PSoC4/comm.c **** #undef X
 387:.\Generated_Source\PSoC4/comm.c ****     default: goto error_exit;
 388:.\Generated_Source\PSoC4/comm.c ****     break;
 389:.\Generated_Source\PSoC4/comm.c ****   }
 390:.\Generated_Source\PSoC4/comm.c **** 
 391:.\Generated_Source\PSoC4/comm.c ****   ADD_STATIC_STRING_TO_RESP(",\"payload\":null");
 5221              		.loc 1 391 0 is_stmt 1
 5222 084c 184B     		ldr	r3, .L276+4
 5223 084e 1A68     		ldr	r2, [r3]
 5224 0850 184B     		ldr	r3, .L276+8
 5225 0852 101C     		mov	r0, r2
 5226 0854 191C     		mov	r1, r3
 5227 0856 1022     		mov	r2, #16
ARM GAS  C:\Users\SDEVAS~1\AppData\Local\Temp\cc8KFjZb.s 			page 105


 5228 0858 FFF7FEFF 		bl	memcpy
 5229 085c 144B     		ldr	r3, .L276+4
 5230 085e 1B68     		ldr	r3, [r3]
 5231 0860 1A1C     		mov	r2, r3
 5232 0862 0F32     		add	r2, r2, #15
 5233 0864 124B     		ldr	r3, .L276+4
 5234 0866 1A60     		str	r2, [r3]
 5235 0868 134B     		ldr	r3, .L276+12
 5236 086a 1B68     		ldr	r3, [r3]
 5237 086c 0F3B     		sub	r3, r3, #15
 5238 086e 1A1C     		mov	r2, r3
 5239 0870 114B     		ldr	r3, .L276+12
 5240 0872 1A60     		str	r2, [r3]
 392:.\Generated_Source\PSoC4/comm.c **** 
 393:.\Generated_Source\PSoC4/comm.c ****   return COMM_FLAG_ACK;
 5241              		.loc 1 393 0
 5242 0874 0223     		mov	r3, #2
 5243 0876 15E0     		b	.L186
 5244              	.L270:
 387:.\Generated_Source\PSoC4/comm.c ****     default: goto error_exit;
 5245              		.loc 1 387 0
 5246 0878 C046     		mov	r8, r8
 5247              	.L188:
 394:.\Generated_Source\PSoC4/comm.c **** error_exit:
 395:.\Generated_Source\PSoC4/comm.c **** 	ADD_STATIC_STRING_TO_RESP(",\"payload\":null");
 5248              		.loc 1 395 0
 5249 087a 0D4B     		ldr	r3, .L276+4
 5250 087c 1A68     		ldr	r2, [r3]
 5251 087e 0D4B     		ldr	r3, .L276+8
 5252 0880 101C     		mov	r0, r2
 5253 0882 191C     		mov	r1, r3
 5254 0884 1022     		mov	r2, #16
 5255 0886 FFF7FEFF 		bl	memcpy
 5256 088a 094B     		ldr	r3, .L276+4
 5257 088c 1B68     		ldr	r3, [r3]
 5258 088e 1A1C     		mov	r2, r3
 5259 0890 0F32     		add	r2, r2, #15
 5260 0892 074B     		ldr	r3, .L276+4
 5261 0894 1A60     		str	r2, [r3]
 5262 0896 084B     		ldr	r3, .L276+12
 5263 0898 1B68     		ldr	r3, [r3]
 5264 089a 0F3B     		sub	r3, r3, #15
 5265 089c 1A1C     		mov	r2, r3
 5266 089e 064B     		ldr	r3, .L276+12
 5267 08a0 1A60     		str	r2, [r3]
 396:.\Generated_Source\PSoC4/comm.c **** 	return COMM_FLAG_NACK;
 5268              		.loc 1 396 0
 5269 08a2 0423     		mov	r3, #4
 5270              	.L186:
 397:.\Generated_Source\PSoC4/comm.c **** }
 5271              		.loc 1 397 0
 5272 08a4 181C     		mov	r0, r3
 5273 08a6 BD46     		mov	sp, r7
 5274 08a8 0DB0     		add	sp, sp, #52
 5275              		@ sp needed
 5276 08aa 90BD     		pop	{r4, r7, pc}
 5277              	.L277:
ARM GAS  C:\Users\SDEVAS~1\AppData\Local\Temp\cc8KFjZb.s 			page 106


 5278              		.align	2
 5279              	.L276:
 5280 08ac 4C0A0000 		.word	.LC187
 5281 08b0 00000000 		.word	respEnd
 5282 08b4 A4090000 		.word	.LC179
 5283 08b8 00000000 		.word	respFreeSpace
 5284              		.cfi_endproc
 5285              	.LFE43:
 5286              		.size	comm_handle_Set, .-comm_handle_Set
 5287              		.section	.rodata
 5288              		.align	2
 5289              	.LC197:
 5290 0ae8 2C227061 		.ascii	",\"payload\":{\"oa\":[\000"
 5290      796C6F61 
 5290      64223A7B 
 5290      226F6122 
 5290      3A5B00
 5291 0afb 00       		.align	2
 5292              	.LC200:
 5293 0afc 5D7D00   		.ascii	"]}\000"
 5294              		.section	.text.comm_handle_Info,"ax",%progbits
 5295              		.align	2
 5296              		.global	comm_handle_Info
 5297              		.code	16
 5298              		.thumb_func
 5299              		.type	comm_handle_Info, %function
 5300              	comm_handle_Info:
 5301              	.LFB44:
 398:.\Generated_Source\PSoC4/comm.c **** 
 399:.\Generated_Source\PSoC4/comm.c **** comm_flags_t comm_handle_Info(comm_flags_t flags, const char *payload, int payloadLen, jsmntok_t *t
 5302              		.loc 1 399 0
 5303              		.cfi_startproc
 5304 0000 80B5     		push	{r7, lr}
 5305              		.cfi_def_cfa_offset 8
 5306              		.cfi_offset 7, -8
 5307              		.cfi_offset 14, -4
 5308 0002 84B0     		sub	sp, sp, #16
 5309              		.cfi_def_cfa_offset 24
 5310 0004 00AF     		add	r7, sp, #0
 5311              		.cfi_def_cfa_register 7
 5312 0006 B960     		str	r1, [r7, #8]
 5313 0008 7A60     		str	r2, [r7, #4]
 5314 000a 3B60     		str	r3, [r7]
 5315 000c 3B1C     		mov	r3, r7
 5316 000e 0F33     		add	r3, r3, #15
 5317 0010 021C     		add	r2, r0, #0
 5318 0012 1A70     		strb	r2, [r3]
 400:.\Generated_Source\PSoC4/comm.c **** 	if(flags == COMM_FLAG_UNKNOWN) {
 5319              		.loc 1 400 0
 5320 0014 3B1C     		mov	r3, r7
 5321 0016 0F33     		add	r3, r3, #15
 5322 0018 1B78     		ldrb	r3, [r3]
 5323 001a 002B     		cmp	r3, #0
 5324 001c 2AD1     		bne	.L279
 401:.\Generated_Source\PSoC4/comm.c **** 		//in this case we are preparing this message!
 402:.\Generated_Source\PSoC4/comm.c **** 		ADD_STATIC_STRING_TO_RESP(",\"payload\":{\"oa\":[");
 5325              		.loc 1 402 0
ARM GAS  C:\Users\SDEVAS~1\AppData\Local\Temp\cc8KFjZb.s 			page 107


 5326 001e 184B     		ldr	r3, .L281
 5327 0020 1A68     		ldr	r2, [r3]
 5328 0022 184B     		ldr	r3, .L281+4
 5329 0024 101C     		mov	r0, r2
 5330 0026 191C     		mov	r1, r3
 5331 0028 1322     		mov	r2, #19
 5332 002a FFF7FEFF 		bl	memcpy
 5333 002e 144B     		ldr	r3, .L281
 5334 0030 1B68     		ldr	r3, [r3]
 5335 0032 1A1C     		mov	r2, r3
 5336 0034 1232     		add	r2, r2, #18
 5337 0036 124B     		ldr	r3, .L281
 5338 0038 1A60     		str	r2, [r3]
 5339 003a 134B     		ldr	r3, .L281+8
 5340 003c 1B68     		ldr	r3, [r3]
 5341 003e 123B     		sub	r3, r3, #18
 5342 0040 1A1C     		mov	r2, r3
 5343 0042 114B     		ldr	r3, .L281+8
 5344 0044 1A60     		str	r2, [r3]
 403:.\Generated_Source\PSoC4/comm.c **** 		comm_GenerateInfo();
 5345              		.loc 1 403 0
 5346 0046 FFF7FEFF 		bl	comm_GenerateInfo
 404:.\Generated_Source\PSoC4/comm.c **** 		ADD_STATIC_STRING_TO_RESP("]}");
 5347              		.loc 1 404 0
 5348 004a 0D4B     		ldr	r3, .L281
 5349 004c 1A68     		ldr	r2, [r3]
 5350 004e 0F4B     		ldr	r3, .L281+12
 5351 0050 101C     		mov	r0, r2
 5352 0052 191C     		mov	r1, r3
 5353 0054 0322     		mov	r2, #3
 5354 0056 FFF7FEFF 		bl	memcpy
 5355 005a 094B     		ldr	r3, .L281
 5356 005c 1B68     		ldr	r3, [r3]
 5357 005e 9A1C     		add	r2, r3, #2
 5358 0060 074B     		ldr	r3, .L281
 5359 0062 1A60     		str	r2, [r3]
 5360 0064 084B     		ldr	r3, .L281+8
 5361 0066 1B68     		ldr	r3, [r3]
 5362 0068 023B     		sub	r3, r3, #2
 5363 006a 1A1C     		mov	r2, r3
 5364 006c 064B     		ldr	r3, .L281+8
 5365 006e 1A60     		str	r2, [r3]
 405:.\Generated_Source\PSoC4/comm.c **** 		return COMM_FLAG_PUSH;
 5366              		.loc 1 405 0
 5367 0070 0823     		mov	r3, #8
 5368 0072 00E0     		b	.L280
 5369              	.L279:
 406:.\Generated_Source\PSoC4/comm.c **** 	}
 407:.\Generated_Source\PSoC4/comm.c **** 	return COMM_FLAG_UNKNOWN;
 5370              		.loc 1 407 0
 5371 0074 0023     		mov	r3, #0
 5372              	.L280:
 408:.\Generated_Source\PSoC4/comm.c **** }
 5373              		.loc 1 408 0
 5374 0076 181C     		mov	r0, r3
 5375 0078 BD46     		mov	sp, r7
 5376 007a 04B0     		add	sp, sp, #16
ARM GAS  C:\Users\SDEVAS~1\AppData\Local\Temp\cc8KFjZb.s 			page 108


 5377              		@ sp needed
 5378 007c 80BD     		pop	{r7, pc}
 5379              	.L282:
 5380 007e C046     		.align	2
 5381              	.L281:
 5382 0080 00000000 		.word	respEnd
 5383 0084 E80A0000 		.word	.LC197
 5384 0088 00000000 		.word	respFreeSpace
 5385 008c FC0A0000 		.word	.LC200
 5386              		.cfi_endproc
 5387              	.LFE44:
 5388              		.size	comm_handle_Info, .-comm_handle_Info
 5389              		.section	.text.comm_handle_Status,"ax",%progbits
 5390              		.align	2
 5391              		.global	comm_handle_Status
 5392              		.code	16
 5393              		.thumb_func
 5394              		.type	comm_handle_Status, %function
 5395              	comm_handle_Status:
 5396              	.LFB45:
 409:.\Generated_Source\PSoC4/comm.c **** comm_flags_t comm_handle_Status(comm_flags_t flags, const char *payload, int payloadLen, jsmntok_t 
 5397              		.loc 1 409 0
 5398              		.cfi_startproc
 5399 0000 80B5     		push	{r7, lr}
 5400              		.cfi_def_cfa_offset 8
 5401              		.cfi_offset 7, -8
 5402              		.cfi_offset 14, -4
 5403 0002 84B0     		sub	sp, sp, #16
 5404              		.cfi_def_cfa_offset 24
 5405 0004 00AF     		add	r7, sp, #0
 5406              		.cfi_def_cfa_register 7
 5407 0006 B960     		str	r1, [r7, #8]
 5408 0008 7A60     		str	r2, [r7, #4]
 5409 000a 3B60     		str	r3, [r7]
 5410 000c 3B1C     		mov	r3, r7
 5411 000e 0F33     		add	r3, r3, #15
 5412 0010 021C     		add	r2, r0, #0
 5413 0012 1A70     		strb	r2, [r3]
 410:.\Generated_Source\PSoC4/comm.c **** 	if(flags == COMM_FLAG_REQ) {
 5414              		.loc 1 410 0
 5415 0014 3B1C     		mov	r3, r7
 5416 0016 0F33     		add	r3, r3, #15
 5417 0018 1B78     		ldrb	r3, [r3]
 5418 001a 012B     		cmp	r3, #1
 5419 001c 2AD1     		bne	.L284
 411:.\Generated_Source\PSoC4/comm.c **** 		//We are expecting only REQ here, according to protocol, payload array with Info block is expecte
 412:.\Generated_Source\PSoC4/comm.c **** 		ADD_STATIC_STRING_TO_RESP(",\"payload\":{\"oa\":[");
 5420              		.loc 1 412 0
 5421 001e 184B     		ldr	r3, .L286
 5422 0020 1A68     		ldr	r2, [r3]
 5423 0022 184B     		ldr	r3, .L286+4
 5424 0024 101C     		mov	r0, r2
 5425 0026 191C     		mov	r1, r3
 5426 0028 1322     		mov	r2, #19
 5427 002a FFF7FEFF 		bl	memcpy
 5428 002e 144B     		ldr	r3, .L286
 5429 0030 1B68     		ldr	r3, [r3]
ARM GAS  C:\Users\SDEVAS~1\AppData\Local\Temp\cc8KFjZb.s 			page 109


 5430 0032 1A1C     		mov	r2, r3
 5431 0034 1232     		add	r2, r2, #18
 5432 0036 124B     		ldr	r3, .L286
 5433 0038 1A60     		str	r2, [r3]
 5434 003a 134B     		ldr	r3, .L286+8
 5435 003c 1B68     		ldr	r3, [r3]
 5436 003e 123B     		sub	r3, r3, #18
 5437 0040 1A1C     		mov	r2, r3
 5438 0042 114B     		ldr	r3, .L286+8
 5439 0044 1A60     		str	r2, [r3]
 413:.\Generated_Source\PSoC4/comm.c **** 		comm_GenerateInfo();
 5440              		.loc 1 413 0
 5441 0046 FFF7FEFF 		bl	comm_GenerateInfo
 414:.\Generated_Source\PSoC4/comm.c **** 		ADD_STATIC_STRING_TO_RESP("]}");
 5442              		.loc 1 414 0
 5443 004a 0D4B     		ldr	r3, .L286
 5444 004c 1A68     		ldr	r2, [r3]
 5445 004e 0F4B     		ldr	r3, .L286+12
 5446 0050 101C     		mov	r0, r2
 5447 0052 191C     		mov	r1, r3
 5448 0054 0322     		mov	r2, #3
 5449 0056 FFF7FEFF 		bl	memcpy
 5450 005a 094B     		ldr	r3, .L286
 5451 005c 1B68     		ldr	r3, [r3]
 5452 005e 9A1C     		add	r2, r3, #2
 5453 0060 074B     		ldr	r3, .L286
 5454 0062 1A60     		str	r2, [r3]
 5455 0064 084B     		ldr	r3, .L286+8
 5456 0066 1B68     		ldr	r3, [r3]
 5457 0068 023B     		sub	r3, r3, #2
 5458 006a 1A1C     		mov	r2, r3
 5459 006c 064B     		ldr	r3, .L286+8
 5460 006e 1A60     		str	r2, [r3]
 415:.\Generated_Source\PSoC4/comm.c **** 		return COMM_FLAG_REQ_ACK;
 5461              		.loc 1 415 0
 5462 0070 0323     		mov	r3, #3
 5463 0072 00E0     		b	.L285
 5464              	.L284:
 416:.\Generated_Source\PSoC4/comm.c **** 	}
 417:.\Generated_Source\PSoC4/comm.c **** 	//if we receive ACK, end of communication
 418:.\Generated_Source\PSoC4/comm.c **** 	return COMM_FLAG_UNKNOWN;
 5465              		.loc 1 418 0
 5466 0074 0023     		mov	r3, #0
 5467              	.L285:
 419:.\Generated_Source\PSoC4/comm.c **** }
 5468              		.loc 1 419 0
 5469 0076 181C     		mov	r0, r3
 5470 0078 BD46     		mov	sp, r7
 5471 007a 04B0     		add	sp, sp, #16
 5472              		@ sp needed
 5473 007c 80BD     		pop	{r7, pc}
 5474              	.L287:
 5475 007e C046     		.align	2
 5476              	.L286:
 5477 0080 00000000 		.word	respEnd
 5478 0084 E80A0000 		.word	.LC197
 5479 0088 00000000 		.word	respFreeSpace
ARM GAS  C:\Users\SDEVAS~1\AppData\Local\Temp\cc8KFjZb.s 			page 110


 5480 008c FC0A0000 		.word	.LC200
 5481              		.cfi_endproc
 5482              	.LFE45:
 5483              		.size	comm_handle_Status, .-comm_handle_Status
 5484              		.section	.text.comm_handle_Mode,"ax",%progbits
 5485              		.align	2
 5486              		.global	comm_handle_Mode
 5487              		.code	16
 5488              		.thumb_func
 5489              		.type	comm_handle_Mode, %function
 5490              	comm_handle_Mode:
 5491              	.LFB46:
 420:.\Generated_Source\PSoC4/comm.c **** 
 421:.\Generated_Source\PSoC4/comm.c **** comm_flags_t comm_handle_Mode(comm_flags_t flags, const char *payload, int payloadLen, jsmntok_t *t
 5492              		.loc 1 421 0
 5493              		.cfi_startproc
 5494 0000 90B5     		push	{r4, r7, lr}
 5495              		.cfi_def_cfa_offset 12
 5496              		.cfi_offset 4, -12
 5497              		.cfi_offset 7, -8
 5498              		.cfi_offset 14, -4
 5499 0002 87B0     		sub	sp, sp, #28
 5500              		.cfi_def_cfa_offset 40
 5501 0004 00AF     		add	r7, sp, #0
 5502              		.cfi_def_cfa_register 7
 5503 0006 B960     		str	r1, [r7, #8]
 5504 0008 7A60     		str	r2, [r7, #4]
 5505 000a 3B60     		str	r3, [r7]
 5506 000c 3B1C     		mov	r3, r7
 5507 000e 0F33     		add	r3, r3, #15
 5508 0010 021C     		add	r2, r0, #0
 5509 0012 1A70     		strb	r2, [r3]
 422:.\Generated_Source\PSoC4/comm.c **** 	if(flags == COMM_FLAG_REQ) {
 5510              		.loc 1 422 0
 5511 0014 3B1C     		mov	r3, r7
 5512 0016 0F33     		add	r3, r3, #15
 5513 0018 1B78     		ldrb	r3, [r3]
 5514 001a 012B     		cmp	r3, #1
 5515 001c 41D1     		bne	.L289
 5516              	.LBB4:
 423:.\Generated_Source\PSoC4/comm.c **** 		//We are expecting only REQ here, according to protocol, ACK or NACK is proper anserw
 424:.\Generated_Source\PSoC4/comm.c **** 
 425:.\Generated_Source\PSoC4/comm.c **** 		atom_modes_t mode = get_atom_mode_from_string(payload, payloadLen);
 5517              		.loc 1 425 0
 5518 001e 3C1C     		mov	r4, r7
 5519 0020 1734     		add	r4, r4, #23
 5520 0022 BA68     		ldr	r2, [r7, #8]
 5521 0024 7B68     		ldr	r3, [r7, #4]
 5522 0026 101C     		mov	r0, r2
 5523 0028 191C     		mov	r1, r3
 5524 002a FFF7FEFF 		bl	get_atom_mode_from_string
 5525 002e 031C     		mov	r3, r0
 5526 0030 2370     		strb	r3, [r4]
 426:.\Generated_Source\PSoC4/comm.c **** 
 427:.\Generated_Source\PSoC4/comm.c **** 		if(mode == INVALID_ATOM_MODE) {
 5527              		.loc 1 427 0
 5528 0032 3B1C     		mov	r3, r7
ARM GAS  C:\Users\SDEVAS~1\AppData\Local\Temp\cc8KFjZb.s 			page 111


 5529 0034 1733     		add	r3, r3, #23
 5530 0036 1B78     		ldrb	r3, [r3]
 5531 0038 052B     		cmp	r3, #5
 5532 003a 16D1     		bne	.L290
 428:.\Generated_Source\PSoC4/comm.c **** 			//invalid payload
 429:.\Generated_Source\PSoC4/comm.c **** 			goto error_exit;
 5533              		.loc 1 429 0
 5534 003c C046     		mov	r8, r8
 5535              	.L291:
 430:.\Generated_Source\PSoC4/comm.c **** 		}
 431:.\Generated_Source\PSoC4/comm.c **** 
 432:.\Generated_Source\PSoC4/comm.c **** 		comm_ModeChange(mode);
 433:.\Generated_Source\PSoC4/comm.c **** 
 434:.\Generated_Source\PSoC4/comm.c **** 		ADD_STATIC_STRING_TO_RESP(",\"payload\":null");
 435:.\Generated_Source\PSoC4/comm.c **** 		return COMM_FLAG_ACK;
 436:.\Generated_Source\PSoC4/comm.c **** 	error_exit:
 437:.\Generated_Source\PSoC4/comm.c **** 		ADD_STATIC_STRING_TO_RESP(",\"payload\":null");
 5536              		.loc 1 437 0
 5537 003e 1B4B     		ldr	r3, .L293
 5538 0040 1A68     		ldr	r2, [r3]
 5539 0042 1B4B     		ldr	r3, .L293+4
 5540 0044 101C     		mov	r0, r2
 5541 0046 191C     		mov	r1, r3
 5542 0048 1022     		mov	r2, #16
 5543 004a FFF7FEFF 		bl	memcpy
 5544 004e 174B     		ldr	r3, .L293
 5545 0050 1B68     		ldr	r3, [r3]
 5546 0052 1A1C     		mov	r2, r3
 5547 0054 0F32     		add	r2, r2, #15
 5548 0056 154B     		ldr	r3, .L293
 5549 0058 1A60     		str	r2, [r3]
 5550 005a 164B     		ldr	r3, .L293+8
 5551 005c 1B68     		ldr	r3, [r3]
 5552 005e 0F3B     		sub	r3, r3, #15
 5553 0060 1A1C     		mov	r2, r3
 5554 0062 144B     		ldr	r3, .L293+8
 5555 0064 1A60     		str	r2, [r3]
 438:.\Generated_Source\PSoC4/comm.c **** 		return COMM_FLAG_NACK;
 5556              		.loc 1 438 0
 5557 0066 0423     		mov	r3, #4
 5558 0068 1CE0     		b	.L292
 5559              	.L290:
 432:.\Generated_Source\PSoC4/comm.c **** 		comm_ModeChange(mode);
 5560              		.loc 1 432 0
 5561 006a 3B1C     		mov	r3, r7
 5562 006c 1733     		add	r3, r3, #23
 5563 006e 1B78     		ldrb	r3, [r3]
 5564 0070 181C     		mov	r0, r3
 5565 0072 FFF7FEFF 		bl	comm_ModeChange
 434:.\Generated_Source\PSoC4/comm.c **** 		ADD_STATIC_STRING_TO_RESP(",\"payload\":null");
 5566              		.loc 1 434 0
 5567 0076 0D4B     		ldr	r3, .L293
 5568 0078 1A68     		ldr	r2, [r3]
 5569 007a 0D4B     		ldr	r3, .L293+4
 5570 007c 101C     		mov	r0, r2
 5571 007e 191C     		mov	r1, r3
 5572 0080 1022     		mov	r2, #16
ARM GAS  C:\Users\SDEVAS~1\AppData\Local\Temp\cc8KFjZb.s 			page 112


 5573 0082 FFF7FEFF 		bl	memcpy
 5574 0086 094B     		ldr	r3, .L293
 5575 0088 1B68     		ldr	r3, [r3]
 5576 008a 1A1C     		mov	r2, r3
 5577 008c 0F32     		add	r2, r2, #15
 5578 008e 074B     		ldr	r3, .L293
 5579 0090 1A60     		str	r2, [r3]
 5580 0092 084B     		ldr	r3, .L293+8
 5581 0094 1B68     		ldr	r3, [r3]
 5582 0096 0F3B     		sub	r3, r3, #15
 5583 0098 1A1C     		mov	r2, r3
 5584 009a 064B     		ldr	r3, .L293+8
 5585 009c 1A60     		str	r2, [r3]
 435:.\Generated_Source\PSoC4/comm.c **** 		return COMM_FLAG_ACK;
 5586              		.loc 1 435 0
 5587 009e 0223     		mov	r3, #2
 5588 00a0 00E0     		b	.L292
 5589              	.L289:
 5590              	.LBE4:
 439:.\Generated_Source\PSoC4/comm.c **** 	}
 440:.\Generated_Source\PSoC4/comm.c **** 	return COMM_FLAG_UNKNOWN;
 5591              		.loc 1 440 0
 5592 00a2 0023     		mov	r3, #0
 5593              	.L292:
 441:.\Generated_Source\PSoC4/comm.c **** }
 5594              		.loc 1 441 0
 5595 00a4 181C     		mov	r0, r3
 5596 00a6 BD46     		mov	sp, r7
 5597 00a8 07B0     		add	sp, sp, #28
 5598              		@ sp needed
 5599 00aa 90BD     		pop	{r4, r7, pc}
 5600              	.L294:
 5601              		.align	2
 5602              	.L293:
 5603 00ac 00000000 		.word	respEnd
 5604 00b0 A4090000 		.word	.LC179
 5605 00b4 00000000 		.word	respFreeSpace
 5606              		.cfi_endproc
 5607              	.LFE46:
 5608              		.size	comm_handle_Mode, .-comm_handle_Mode
 5609              		.section	.text.jsonAddressToRS,"ax",%progbits
 5610              		.align	2
 5611              		.code	16
 5612              		.thumb_func
 5613              		.type	jsonAddressToRS, %function
 5614              	jsonAddressToRS:
 5615              	.LFB47:
 442:.\Generated_Source\PSoC4/comm.c **** 
 443:.\Generated_Source\PSoC4/comm.c **** static comm_RS485_address jsonAddressToRS(char atomType, char atomID) {
 5616              		.loc 1 443 0
 5617              		.cfi_startproc
 5618 0000 80B5     		push	{r7, lr}
 5619              		.cfi_def_cfa_offset 8
 5620              		.cfi_offset 7, -8
 5621              		.cfi_offset 14, -4
 5622 0002 82B0     		sub	sp, sp, #8
 5623              		.cfi_def_cfa_offset 16
ARM GAS  C:\Users\SDEVAS~1\AppData\Local\Temp\cc8KFjZb.s 			page 113


 5624 0004 00AF     		add	r7, sp, #0
 5625              		.cfi_def_cfa_register 7
 5626 0006 0A1C     		mov	r2, r1
 5627 0008 FB1D     		add	r3, r7, #7
 5628 000a 011C     		add	r1, r0, #0
 5629 000c 1970     		strb	r1, [r3]
 5630 000e BB1D     		add	r3, r7, #6
 5631 0010 1A70     		strb	r2, [r3]
 444:.\Generated_Source\PSoC4/comm.c **** 	return (((atomType - 'A')&0x1f) << 3) | ((atomID - '0')&0x07);
 5632              		.loc 1 444 0
 5633 0012 FB1D     		add	r3, r7, #7
 5634 0014 1B78     		ldrb	r3, [r3]
 5635 0016 413B     		sub	r3, r3, #65
 5636 0018 DA00     		lsl	r2, r3, #3
 5637 001a FF23     		mov	r3, #255
 5638 001c 1A40     		and	r2, r3
 5639 001e BB1D     		add	r3, r7, #6
 5640 0020 1978     		ldrb	r1, [r3]
 5641 0022 0723     		mov	r3, #7
 5642 0024 0B40     		and	r3, r1
 5643 0026 1343     		orr	r3, r2
 445:.\Generated_Source\PSoC4/comm.c **** }
 5644              		.loc 1 445 0
 5645 0028 181C     		mov	r0, r3
 5646 002a BD46     		mov	sp, r7
 5647 002c 02B0     		add	sp, sp, #8
 5648              		@ sp needed
 5649 002e 80BD     		pop	{r7, pc}
 5650              		.cfi_endproc
 5651              	.LFE47:
 5652              		.size	jsonAddressToRS, .-jsonAddressToRS
 5653              		.section	.text.rs485_selected_as_slave_callback,"ax",%progbits
 5654              		.align	2
 5655              		.global	rs485_selected_as_slave_callback
 5656              		.code	16
 5657              		.thumb_func
 5658              		.type	rs485_selected_as_slave_callback, %function
 5659              	rs485_selected_as_slave_callback:
 5660              	.LFB48:
 446:.\Generated_Source\PSoC4/comm.c **** 
 447:.\Generated_Source\PSoC4/comm.c **** /*
 448:.\Generated_Source\PSoC4/comm.c ****  * ************************************
 449:.\Generated_Source\PSoC4/comm.c ****  * RS485 callbacks
 450:.\Generated_Source\PSoC4/comm.c ****  * ************************************
 451:.\Generated_Source\PSoC4/comm.c ****  */
 452:.\Generated_Source\PSoC4/comm.c **** 
 453:.\Generated_Source\PSoC4/comm.c **** void rs485_selected_as_slave_callback(comm_RS485_address byWho) {
 5661              		.loc 1 453 0
 5662              		.cfi_startproc
 5663 0000 80B5     		push	{r7, lr}
 5664              		.cfi_def_cfa_offset 8
 5665              		.cfi_offset 7, -8
 5666              		.cfi_offset 14, -4
 5667 0002 82B0     		sub	sp, sp, #8
 5668              		.cfi_def_cfa_offset 16
 5669 0004 00AF     		add	r7, sp, #0
 5670              		.cfi_def_cfa_register 7
ARM GAS  C:\Users\SDEVAS~1\AppData\Local\Temp\cc8KFjZb.s 			page 114


 5671 0006 7860     		str	r0, [r7, #4]
 454:.\Generated_Source\PSoC4/comm.c **** 	comm.flags.SLAVE = 1;
 5672              		.loc 1 454 0
 5673 0008 044A     		ldr	r2, .L298
 5674 000a 9823     		mov	r3, #152
 5675 000c 5B00     		lsl	r3, r3, #1
 5676 000e D15C     		ldrb	r1, [r2, r3]
 5677 0010 0420     		mov	r0, #4
 5678 0012 0143     		orr	r1, r0
 5679 0014 D154     		strb	r1, [r2, r3]
 455:.\Generated_Source\PSoC4/comm.c **** }
 5680              		.loc 1 455 0
 5681 0016 BD46     		mov	sp, r7
 5682 0018 02B0     		add	sp, sp, #8
 5683              		@ sp needed
 5684 001a 80BD     		pop	{r7, pc}
 5685              	.L299:
 5686              		.align	2
 5687              	.L298:
 5688 001c 00000000 		.word	comm
 5689              		.cfi_endproc
 5690              	.LFE48:
 5691              		.size	rs485_selected_as_slave_callback, .-rs485_selected_as_slave_callback
 5692              		.section	.text.rs485_released_as_slave_callback,"ax",%progbits
 5693              		.align	2
 5694              		.global	rs485_released_as_slave_callback
 5695              		.code	16
 5696              		.thumb_func
 5697              		.type	rs485_released_as_slave_callback, %function
 5698              	rs485_released_as_slave_callback:
 5699              	.LFB49:
 456:.\Generated_Source\PSoC4/comm.c **** void rs485_released_as_slave_callback(void) {
 5700              		.loc 1 456 0
 5701              		.cfi_startproc
 5702 0000 80B5     		push	{r7, lr}
 5703              		.cfi_def_cfa_offset 8
 5704              		.cfi_offset 7, -8
 5705              		.cfi_offset 14, -4
 5706 0002 00AF     		add	r7, sp, #0
 5707              		.cfi_def_cfa_register 7
 457:.\Generated_Source\PSoC4/comm.c **** 	comm.flags.SLAVE = 0;
 5708              		.loc 1 457 0
 5709 0004 074A     		ldr	r2, .L301
 5710 0006 9823     		mov	r3, #152
 5711 0008 5B00     		lsl	r3, r3, #1
 5712 000a D15C     		ldrb	r1, [r2, r3]
 5713 000c 0420     		mov	r0, #4
 5714 000e 8143     		bic	r1, r0
 5715 0010 D154     		strb	r1, [r2, r3]
 458:.\Generated_Source\PSoC4/comm.c **** 	//connection was broken, just to be sure stop sending
 459:.\Generated_Source\PSoC4/comm.c **** 	comm.flags.SENT = 0;
 5716              		.loc 1 459 0
 5717 0012 044A     		ldr	r2, .L301
 5718 0014 9823     		mov	r3, #152
 5719 0016 5B00     		lsl	r3, r3, #1
 5720 0018 D15C     		ldrb	r1, [r2, r3]
 5721 001a 0220     		mov	r0, #2
ARM GAS  C:\Users\SDEVAS~1\AppData\Local\Temp\cc8KFjZb.s 			page 115


 5722 001c 8143     		bic	r1, r0
 5723 001e D154     		strb	r1, [r2, r3]
 460:.\Generated_Source\PSoC4/comm.c **** }
 5724              		.loc 1 460 0
 5725 0020 BD46     		mov	sp, r7
 5726              		@ sp needed
 5727 0022 80BD     		pop	{r7, pc}
 5728              	.L302:
 5729              		.align	2
 5730              	.L301:
 5731 0024 00000000 		.word	comm
 5732              		.cfi_endproc
 5733              	.LFE49:
 5734              		.size	rs485_released_as_slave_callback, .-rs485_released_as_slave_callback
 5735              		.section	.text.rs485_receive_callback,"ax",%progbits
 5736              		.align	2
 5737              		.global	rs485_receive_callback
 5738              		.code	16
 5739              		.thumb_func
 5740              		.type	rs485_receive_callback, %function
 5741              	rs485_receive_callback:
 5742              	.LFB50:
 461:.\Generated_Source\PSoC4/comm.c **** void rs485_receive_callback(char * buff, uint32 len) {
 5743              		.loc 1 461 0
 5744              		.cfi_startproc
 5745 0000 80B5     		push	{r7, lr}
 5746              		.cfi_def_cfa_offset 8
 5747              		.cfi_offset 7, -8
 5748              		.cfi_offset 14, -4
 5749 0002 82B0     		sub	sp, sp, #8
 5750              		.cfi_def_cfa_offset 16
 5751 0004 00AF     		add	r7, sp, #0
 5752              		.cfi_def_cfa_register 7
 5753 0006 7860     		str	r0, [r7, #4]
 5754 0008 3960     		str	r1, [r7]
 462:.\Generated_Source\PSoC4/comm.c **** 	comm.len = len;
 5755              		.loc 1 462 0
 5756 000a 074A     		ldr	r2, .L304
 5757 000c 9623     		mov	r3, #150
 5758 000e 5B00     		lsl	r3, r3, #1
 5759 0010 3968     		ldr	r1, [r7]
 5760 0012 D150     		str	r1, [r2, r3]
 463:.\Generated_Source\PSoC4/comm.c **** 	comm.flags.RECV = 1;
 5761              		.loc 1 463 0
 5762 0014 044A     		ldr	r2, .L304
 5763 0016 9823     		mov	r3, #152
 5764 0018 5B00     		lsl	r3, r3, #1
 5765 001a D15C     		ldrb	r1, [r2, r3]
 5766 001c 0120     		mov	r0, #1
 5767 001e 0143     		orr	r1, r0
 5768 0020 D154     		strb	r1, [r2, r3]
 464:.\Generated_Source\PSoC4/comm.c **** }
 5769              		.loc 1 464 0
 5770 0022 BD46     		mov	sp, r7
 5771 0024 02B0     		add	sp, sp, #8
 5772              		@ sp needed
 5773 0026 80BD     		pop	{r7, pc}
ARM GAS  C:\Users\SDEVAS~1\AppData\Local\Temp\cc8KFjZb.s 			page 116


 5774              	.L305:
 5775              		.align	2
 5776              	.L304:
 5777 0028 00000000 		.word	comm
 5778              		.cfi_endproc
 5779              	.LFE50:
 5780              		.size	rs485_receive_callback, .-rs485_receive_callback
 5781              		.section	.text.rs485_wake_callback,"ax",%progbits
 5782              		.align	2
 5783              		.global	rs485_wake_callback
 5784              		.code	16
 5785              		.thumb_func
 5786              		.type	rs485_wake_callback, %function
 5787              	rs485_wake_callback:
 5788              	.LFB51:
 465:.\Generated_Source\PSoC4/comm.c **** 
 466:.\Generated_Source\PSoC4/comm.c **** void rs485_wake_callback(uint8 isWake) {
 5789              		.loc 1 466 0
 5790              		.cfi_startproc
 5791 0000 80B5     		push	{r7, lr}
 5792              		.cfi_def_cfa_offset 8
 5793              		.cfi_offset 7, -8
 5794              		.cfi_offset 14, -4
 5795 0002 82B0     		sub	sp, sp, #8
 5796              		.cfi_def_cfa_offset 16
 5797 0004 00AF     		add	r7, sp, #0
 5798              		.cfi_def_cfa_register 7
 5799 0006 021C     		mov	r2, r0
 5800 0008 FB1D     		add	r3, r7, #7
 5801 000a 1A70     		strb	r2, [r3]
 467:.\Generated_Source\PSoC4/comm.c **** 	isWake ? sleepMgr_requestSleep() : sleepMgr_releaseSleep();
 5802              		.loc 1 467 0
 5803 000c FB1D     		add	r3, r7, #7
 5804 000e 1B78     		ldrb	r3, [r3]
 5805 0010 002B     		cmp	r3, #0
 5806 0012 02D0     		beq	.L307
 5807              		.loc 1 467 0 is_stmt 0 discriminator 1
 5808 0014 FFF7FEFF 		bl	sleepMgr_requestSleep
 5809 0018 01E0     		b	.L306
 5810              	.L307:
 5811              		.loc 1 467 0 discriminator 2
 5812 001a FFF7FEFF 		bl	sleepMgr_releaseSleep
 5813              	.L306:
 468:.\Generated_Source\PSoC4/comm.c **** }
 5814              		.loc 1 468 0 is_stmt 1
 5815 001e BD46     		mov	sp, r7
 5816 0020 02B0     		add	sp, sp, #8
 5817              		@ sp needed
 5818 0022 80BD     		pop	{r7, pc}
 5819              		.cfi_endproc
 5820              	.LFE51:
 5821              		.size	rs485_wake_callback, .-rs485_wake_callback
 5822              		.section	.text.rs485_bus_granted_callback,"ax",%progbits
 5823              		.align	2
 5824              		.global	rs485_bus_granted_callback
 5825              		.code	16
 5826              		.thumb_func
ARM GAS  C:\Users\SDEVAS~1\AppData\Local\Temp\cc8KFjZb.s 			page 117


 5827              		.type	rs485_bus_granted_callback, %function
 5828              	rs485_bus_granted_callback:
 5829              	.LFB52:
 469:.\Generated_Source\PSoC4/comm.c **** //void rs485_error_callback(int line) {
 470:.\Generated_Source\PSoC4/comm.c **** //	if(line < 10000) {
 471:.\Generated_Source\PSoC4/comm.c **** //	  DEBUG_UartPutString("ERR ");
 472:.\Generated_Source\PSoC4/comm.c **** //	  DEBUG_UartPutChar("0123456789"[line/1000]);
 473:.\Generated_Source\PSoC4/comm.c **** //	  DEBUG_UartPutChar("0123456789"[(line%1000)/100]);
 474:.\Generated_Source\PSoC4/comm.c **** //	  DEBUG_UartPutChar("0123456789"[(line%100)/10]);
 475:.\Generated_Source\PSoC4/comm.c **** //	  DEBUG_UartPutChar("0123456789"[line%10]);
 476:.\Generated_Source\PSoC4/comm.c **** //	  DEBUG_UartPutString("\r\n");
 477:.\Generated_Source\PSoC4/comm.c **** //	}
 478:.\Generated_Source\PSoC4/comm.c **** //
 479:.\Generated_Source\PSoC4/comm.c **** //}
 480:.\Generated_Source\PSoC4/comm.c **** void rs485_bus_granted_callback(void) {
 5830              		.loc 1 480 0
 5831              		.cfi_startproc
 5832 0000 80B5     		push	{r7, lr}
 5833              		.cfi_def_cfa_offset 8
 5834              		.cfi_offset 7, -8
 5835              		.cfi_offset 14, -4
 5836 0002 00AF     		add	r7, sp, #0
 5837              		.cfi_def_cfa_register 7
 481:.\Generated_Source\PSoC4/comm.c **** 	comm.state = COMM_STATE_BUS_GRANTED;
 5838              		.loc 1 481 0
 5839 0004 034A     		ldr	r2, .L310
 5840 0006 9A23     		mov	r3, #154
 5841 0008 5B00     		lsl	r3, r3, #1
 5842 000a 0121     		mov	r1, #1
 5843 000c D154     		strb	r1, [r2, r3]
 482:.\Generated_Source\PSoC4/comm.c **** }
 5844              		.loc 1 482 0
 5845 000e BD46     		mov	sp, r7
 5846              		@ sp needed
 5847 0010 80BD     		pop	{r7, pc}
 5848              	.L311:
 5849 0012 C046     		.align	2
 5850              	.L310:
 5851 0014 00000000 		.word	comm
 5852              		.cfi_endproc
 5853              	.LFE52:
 5854              		.size	rs485_bus_granted_callback, .-rs485_bus_granted_callback
 5855              		.section	.text.rs485_slave_selected_callback,"ax",%progbits
 5856              		.align	2
 5857              		.global	rs485_slave_selected_callback
 5858              		.code	16
 5859              		.thumb_func
 5860              		.type	rs485_slave_selected_callback, %function
 5861              	rs485_slave_selected_callback:
 5862              	.LFB53:
 483:.\Generated_Source\PSoC4/comm.c **** void rs485_slave_selected_callback(void) {
 5863              		.loc 1 483 0
 5864              		.cfi_startproc
 5865 0000 80B5     		push	{r7, lr}
 5866              		.cfi_def_cfa_offset 8
 5867              		.cfi_offset 7, -8
 5868              		.cfi_offset 14, -4
ARM GAS  C:\Users\SDEVAS~1\AppData\Local\Temp\cc8KFjZb.s 			page 118


 5869 0002 00AF     		add	r7, sp, #0
 5870              		.cfi_def_cfa_register 7
 484:.\Generated_Source\PSoC4/comm.c **** 	comm.state = COMM_STATE_SLAVE_SELECTED;
 5871              		.loc 1 484 0
 5872 0004 034A     		ldr	r2, .L313
 5873 0006 9A23     		mov	r3, #154
 5874 0008 5B00     		lsl	r3, r3, #1
 5875 000a 0221     		mov	r1, #2
 5876 000c D154     		strb	r1, [r2, r3]
 485:.\Generated_Source\PSoC4/comm.c **** }
 5877              		.loc 1 485 0
 5878 000e BD46     		mov	sp, r7
 5879              		@ sp needed
 5880 0010 80BD     		pop	{r7, pc}
 5881              	.L314:
 5882 0012 C046     		.align	2
 5883              	.L313:
 5884 0014 00000000 		.word	comm
 5885              		.cfi_endproc
 5886              	.LFE53:
 5887              		.size	rs485_slave_selected_callback, .-rs485_slave_selected_callback
 5888              		.section	.text.rs485_slave_released_callback,"ax",%progbits
 5889              		.align	2
 5890              		.global	rs485_slave_released_callback
 5891              		.code	16
 5892              		.thumb_func
 5893              		.type	rs485_slave_released_callback, %function
 5894              	rs485_slave_released_callback:
 5895              	.LFB54:
 486:.\Generated_Source\PSoC4/comm.c **** void rs485_slave_released_callback(void) {
 5896              		.loc 1 486 0
 5897              		.cfi_startproc
 5898 0000 80B5     		push	{r7, lr}
 5899              		.cfi_def_cfa_offset 8
 5900              		.cfi_offset 7, -8
 5901              		.cfi_offset 14, -4
 5902 0002 00AF     		add	r7, sp, #0
 5903              		.cfi_def_cfa_register 7
 487:.\Generated_Source\PSoC4/comm.c **** 	comm.state = COMM_STATE_SLAVE_RELEASED;
 5904              		.loc 1 487 0
 5905 0004 034A     		ldr	r2, .L316
 5906 0006 9A23     		mov	r3, #154
 5907 0008 5B00     		lsl	r3, r3, #1
 5908 000a 0321     		mov	r1, #3
 5909 000c D154     		strb	r1, [r2, r3]
 488:.\Generated_Source\PSoC4/comm.c **** }
 5910              		.loc 1 488 0
 5911 000e BD46     		mov	sp, r7
 5912              		@ sp needed
 5913 0010 80BD     		pop	{r7, pc}
 5914              	.L317:
 5915 0012 C046     		.align	2
 5916              	.L316:
 5917 0014 00000000 		.word	comm
 5918              		.cfi_endproc
 5919              	.LFE54:
 5920              		.size	rs485_slave_released_callback, .-rs485_slave_released_callback
ARM GAS  C:\Users\SDEVAS~1\AppData\Local\Temp\cc8KFjZb.s 			page 119


 5921              		.section	.text.rs485_bus_released_callback,"ax",%progbits
 5922              		.align	2
 5923              		.global	rs485_bus_released_callback
 5924              		.code	16
 5925              		.thumb_func
 5926              		.type	rs485_bus_released_callback, %function
 5927              	rs485_bus_released_callback:
 5928              	.LFB55:
 489:.\Generated_Source\PSoC4/comm.c **** void rs485_bus_released_callback(void) {
 5929              		.loc 1 489 0
 5930              		.cfi_startproc
 5931 0000 80B5     		push	{r7, lr}
 5932              		.cfi_def_cfa_offset 8
 5933              		.cfi_offset 7, -8
 5934              		.cfi_offset 14, -4
 5935 0002 00AF     		add	r7, sp, #0
 5936              		.cfi_def_cfa_register 7
 490:.\Generated_Source\PSoC4/comm.c **** 	comm.state = COMM_STATE_BUS_RELEASED;
 5937              		.loc 1 490 0
 5938 0004 034A     		ldr	r2, .L319
 5939 0006 9A23     		mov	r3, #154
 5940 0008 5B00     		lsl	r3, r3, #1
 5941 000a 0421     		mov	r1, #4
 5942 000c D154     		strb	r1, [r2, r3]
 491:.\Generated_Source\PSoC4/comm.c **** }
 5943              		.loc 1 491 0
 5944 000e BD46     		mov	sp, r7
 5945              		@ sp needed
 5946 0010 80BD     		pop	{r7, pc}
 5947              	.L320:
 5948 0012 C046     		.align	2
 5949              	.L319:
 5950 0014 00000000 		.word	comm
 5951              		.cfi_endproc
 5952              	.LFE55:
 5953              		.size	rs485_bus_released_callback, .-rs485_bus_released_callback
 5954              		.section	.text.comm_Init,"ax",%progbits
 5955              		.align	2
 5956              		.global	comm_Init
 5957              		.code	16
 5958              		.thumb_func
 5959              		.type	comm_Init, %function
 5960              	comm_Init:
 5961              	.LFB56:
 492:.\Generated_Source\PSoC4/comm.c **** 
 493:.\Generated_Source\PSoC4/comm.c **** void comm_Init(void) {
 5962              		.loc 1 493 0
 5963              		.cfi_startproc
 5964 0000 80B5     		push	{r7, lr}
 5965              		.cfi_def_cfa_offset 8
 5966              		.cfi_offset 7, -8
 5967              		.cfi_offset 14, -4
 5968 0002 00AF     		add	r7, sp, #0
 5969              		.cfi_def_cfa_register 7
 494:.\Generated_Source\PSoC4/comm.c **** 	memset(&comm, 0, sizeof(comm));
 5970              		.loc 1 494 0
 5971 0004 174A     		ldr	r2, .L322
ARM GAS  C:\Users\SDEVAS~1\AppData\Local\Temp\cc8KFjZb.s 			page 120


 5972 0006 A223     		mov	r3, #162
 5973 0008 5B00     		lsl	r3, r3, #1
 5974 000a 101C     		mov	r0, r2
 5975 000c 0021     		mov	r1, #0
 5976 000e 1A1C     		mov	r2, r3
 5977 0010 FFF7FEFF 		bl	memset
 495:.\Generated_Source\PSoC4/comm.c **** 	comm.state = COMM_STATE_IDLE;
 5978              		.loc 1 495 0
 5979 0014 134A     		ldr	r2, .L322
 5980 0016 9A23     		mov	r3, #154
 5981 0018 5B00     		lsl	r3, r3, #1
 5982 001a 0021     		mov	r1, #0
 5983 001c D154     		strb	r1, [r2, r3]
 496:.\Generated_Source\PSoC4/comm.c **** 
 497:.\Generated_Source\PSoC4/comm.c ****     comm_RS485_SetCallbackOnSelectedAsSlave(rs485_selected_as_slave_callback);
 5984              		.loc 1 497 0
 5985 001e 124B     		ldr	r3, .L322+4
 5986 0020 181C     		mov	r0, r3
 5987 0022 FFF7FEFF 		bl	comm_RS485_SetCallbackOnSelectedAsSlave
 498:.\Generated_Source\PSoC4/comm.c ****     comm_RS485_SetCallbackOnReleasedAsSlave(rs485_released_as_slave_callback);
 5988              		.loc 1 498 0
 5989 0026 114B     		ldr	r3, .L322+8
 5990 0028 181C     		mov	r0, r3
 5991 002a FFF7FEFF 		bl	comm_RS485_SetCallbackOnReleasedAsSlave
 499:.\Generated_Source\PSoC4/comm.c ****     comm_RS485_SetCallbackOnSlaveReceive(rs485_receive_callback, comm.recvBuff, RECV_BUFF_LEN);
 5992              		.loc 1 499 0
 5993 002e 1049     		ldr	r1, .L322+12
 5994 0030 0C4A     		ldr	r2, .L322
 5995 0032 9623     		mov	r3, #150
 5996 0034 5B00     		lsl	r3, r3, #1
 5997 0036 081C     		mov	r0, r1
 5998 0038 111C     		mov	r1, r2
 5999 003a 1A1C     		mov	r2, r3
 6000 003c FFF7FEFF 		bl	comm_RS485_SetCallbackOnSlaveReceive
 500:.\Generated_Source\PSoC4/comm.c ****     comm_RS485_SetCallbackOnMasterReceive(rs485_receive_callback, comm.recvBuff, RECV_BUFF_LEN);
 6001              		.loc 1 500 0
 6002 0040 0B49     		ldr	r1, .L322+12
 6003 0042 084A     		ldr	r2, .L322
 6004 0044 9623     		mov	r3, #150
 6005 0046 5B00     		lsl	r3, r3, #1
 6006 0048 081C     		mov	r0, r1
 6007 004a 111C     		mov	r1, r2
 6008 004c 1A1C     		mov	r2, r3
 6009 004e FFF7FEFF 		bl	comm_RS485_SetCallbackOnMasterReceive
 501:.\Generated_Source\PSoC4/comm.c ****     comm_RS485_SetCallbackOnWake(rs485_wake_callback);
 6010              		.loc 1 501 0
 6011 0052 084B     		ldr	r3, .L322+16
 6012 0054 181C     		mov	r0, r3
 6013 0056 FFF7FEFF 		bl	comm_RS485_SetCallbackOnWake
 502:.\Generated_Source\PSoC4/comm.c **** //    comm_RS485_SetCallbackOnError(rs485_error_callback);
 503:.\Generated_Source\PSoC4/comm.c ****     comm_RS485_Init();
 6014              		.loc 1 503 0
 6015 005a FFF7FEFF 		bl	comm_RS485_Init
 504:.\Generated_Source\PSoC4/comm.c **** }
 6016              		.loc 1 504 0
 6017 005e BD46     		mov	sp, r7
 6018              		@ sp needed
ARM GAS  C:\Users\SDEVAS~1\AppData\Local\Temp\cc8KFjZb.s 			page 121


 6019 0060 80BD     		pop	{r7, pc}
 6020              	.L323:
 6021 0062 C046     		.align	2
 6022              	.L322:
 6023 0064 00000000 		.word	comm
 6024 0068 00000000 		.word	rs485_selected_as_slave_callback
 6025 006c 00000000 		.word	rs485_released_as_slave_callback
 6026 0070 00000000 		.word	rs485_receive_callback
 6027 0074 00000000 		.word	rs485_wake_callback
 6028              		.cfi_endproc
 6029              	.LFE56:
 6030              		.size	comm_Init, .-comm_Init
 6031              		.section	.text.comm_ScheduleMessage,"ax",%progbits
 6032              		.align	2
 6033              		.global	comm_ScheduleMessage
 6034              		.code	16
 6035              		.thumb_func
 6036              		.type	comm_ScheduleMessage, %function
 6037              	comm_ScheduleMessage:
 6038              	.LFB57:
 505:.\Generated_Source\PSoC4/comm.c **** 
 506:.\Generated_Source\PSoC4/comm.c **** void comm_ScheduleMessage(const char *order, int orderLen, char atomType, char atomID) {
 6039              		.loc 1 506 0
 6040              		.cfi_startproc
 6041 0000 80B5     		push	{r7, lr}
 6042              		.cfi_def_cfa_offset 8
 6043              		.cfi_offset 7, -8
 6044              		.cfi_offset 14, -4
 6045 0002 84B0     		sub	sp, sp, #16
 6046              		.cfi_def_cfa_offset 24
 6047 0004 00AF     		add	r7, sp, #0
 6048              		.cfi_def_cfa_register 7
 6049 0006 F860     		str	r0, [r7, #12]
 6050 0008 B960     		str	r1, [r7, #8]
 6051 000a 111C     		mov	r1, r2
 6052 000c 1A1C     		mov	r2, r3
 6053 000e FB1D     		add	r3, r7, #7
 6054 0010 1970     		strb	r1, [r3]
 6055 0012 BB1D     		add	r3, r7, #6
 6056 0014 1A70     		strb	r2, [r3]
 507:.\Generated_Source\PSoC4/comm.c **** 	comm.schedOrder = order;
 6057              		.loc 1 507 0
 6058 0016 174A     		ldr	r2, .L327
 6059 0018 9C23     		mov	r3, #156
 6060 001a 5B00     		lsl	r3, r3, #1
 6061 001c F968     		ldr	r1, [r7, #12]
 6062 001e D150     		str	r1, [r2, r3]
 508:.\Generated_Source\PSoC4/comm.c **** 	comm.schedOrderLen = orderLen;
 6063              		.loc 1 508 0
 6064 0020 144A     		ldr	r2, .L327
 6065 0022 9E23     		mov	r3, #158
 6066 0024 5B00     		lsl	r3, r3, #1
 6067 0026 B968     		ldr	r1, [r7, #8]
 6068 0028 D150     		str	r1, [r2, r3]
 509:.\Generated_Source\PSoC4/comm.c **** 	comm.schedAddr = atomType == 'X' ? comm_RS485_Protocol_ARB_ADDRESS : jsonAddressToRS(atomType, ato
 6069              		.loc 1 509 0
 6070 002a FB1D     		add	r3, r7, #7
ARM GAS  C:\Users\SDEVAS~1\AppData\Local\Temp\cc8KFjZb.s 			page 122


 6071 002c 1B78     		ldrb	r3, [r3]
 6072 002e 582B     		cmp	r3, #88
 6073 0030 09D0     		beq	.L325
 6074              		.loc 1 509 0 is_stmt 0 discriminator 1
 6075 0032 FB1D     		add	r3, r7, #7
 6076 0034 1A78     		ldrb	r2, [r3]
 6077 0036 BB1D     		add	r3, r7, #6
 6078 0038 1B78     		ldrb	r3, [r3]
 6079 003a 101C     		mov	r0, r2
 6080 003c 191C     		mov	r1, r3
 6081 003e FFF7FEFF 		bl	jsonAddressToRS
 6082 0042 031C     		mov	r3, r0
 6083 0044 00E0     		b	.L326
 6084              	.L325:
 6085              		.loc 1 509 0 discriminator 2
 6086 0046 0123     		mov	r3, #1
 6087              	.L326:
 6088              		.loc 1 509 0 discriminator 3
 6089 0048 0A49     		ldr	r1, .L327
 6090 004a A022     		mov	r2, #160
 6091 004c 5200     		lsl	r2, r2, #1
 6092 004e 8B50     		str	r3, [r1, r2]
 510:.\Generated_Source\PSoC4/comm.c **** 	*msgDestinationHolderAtomType = atomType;
 6093              		.loc 1 510 0 is_stmt 1 discriminator 3
 6094 0050 094B     		ldr	r3, .L327+4
 6095 0052 1B68     		ldr	r3, [r3]
 6096 0054 FA1D     		add	r2, r7, #7
 6097 0056 1278     		ldrb	r2, [r2]
 6098 0058 1A70     		strb	r2, [r3]
 511:.\Generated_Source\PSoC4/comm.c **** 	*msgDestinationHolderAtomId = atomID;
 6099              		.loc 1 511 0 discriminator 3
 6100 005a 084B     		ldr	r3, .L327+8
 6101 005c 1B68     		ldr	r3, [r3]
 6102 005e BA1D     		add	r2, r7, #6
 6103 0060 1278     		ldrb	r2, [r2]
 6104 0062 1A70     		strb	r2, [r3]
 512:.\Generated_Source\PSoC4/comm.c **** 
 513:.\Generated_Source\PSoC4/comm.c **** 	comm_RS485_RequestBus(rs485_bus_granted_callback);
 6105              		.loc 1 513 0 discriminator 3
 6106 0064 064B     		ldr	r3, .L327+12
 6107 0066 181C     		mov	r0, r3
 6108 0068 FFF7FEFF 		bl	comm_RS485_RequestBus
 514:.\Generated_Source\PSoC4/comm.c **** }
 6109              		.loc 1 514 0 discriminator 3
 6110 006c BD46     		mov	sp, r7
 6111 006e 04B0     		add	sp, sp, #16
 6112              		@ sp needed
 6113 0070 80BD     		pop	{r7, pc}
 6114              	.L328:
 6115 0072 C046     		.align	2
 6116              	.L327:
 6117 0074 00000000 		.word	comm
 6118 0078 00000000 		.word	msgDestinationHolderAtomType
 6119 007c 00000000 		.word	msgDestinationHolderAtomId
 6120 0080 00000000 		.word	rs485_bus_granted_callback
 6121              		.cfi_endproc
 6122              	.LFE57:
ARM GAS  C:\Users\SDEVAS~1\AppData\Local\Temp\cc8KFjZb.s 			page 123


 6123              		.size	comm_ScheduleMessage, .-comm_ScheduleMessage
 6124              		.bss
 6125              		.align	2
 6126              	sendingTicks:
 6127 0030 00000000 		.space	4
 6128              		.section	.text.rs485_frame_sent_callback,"ax",%progbits
 6129              		.align	2
 6130              		.global	rs485_frame_sent_callback
 6131              		.code	16
 6132              		.thumb_func
 6133              		.type	rs485_frame_sent_callback, %function
 6134              	rs485_frame_sent_callback:
 6135              	.LFB58:
 515:.\Generated_Source\PSoC4/comm.c **** 
 516:.\Generated_Source\PSoC4/comm.c **** 
 517:.\Generated_Source\PSoC4/comm.c **** static uint32_t sendingTicks = 0;
 518:.\Generated_Source\PSoC4/comm.c **** void rs485_frame_sent_callback(char * buff, uint32 len) {
 6136              		.loc 1 518 0
 6137              		.cfi_startproc
 6138 0000 80B5     		push	{r7, lr}
 6139              		.cfi_def_cfa_offset 8
 6140              		.cfi_offset 7, -8
 6141              		.cfi_offset 14, -4
 6142 0002 82B0     		sub	sp, sp, #8
 6143              		.cfi_def_cfa_offset 16
 6144 0004 00AF     		add	r7, sp, #0
 6145              		.cfi_def_cfa_register 7
 6146 0006 7860     		str	r0, [r7, #4]
 6147 0008 3960     		str	r1, [r7]
 519:.\Generated_Source\PSoC4/comm.c **** 	if(comm.flags.LAST_MSG) {
 6148              		.loc 1 519 0
 6149 000a 124A     		ldr	r2, .L332
 6150 000c 9823     		mov	r3, #152
 6151 000e 5B00     		lsl	r3, r3, #1
 6152 0010 D35C     		ldrb	r3, [r2, r3]
 6153 0012 1B07     		lsl	r3, r3, #28
 6154 0014 DB0F     		lsr	r3, r3, #31
 6155 0016 DBB2     		uxtb	r3, r3
 6156 0018 002B     		cmp	r3, #0
 6157 001a 0BD0     		beq	.L330
 520:.\Generated_Source\PSoC4/comm.c **** 		comm.flags.LAST_MSG = 0;
 6158              		.loc 1 520 0
 6159 001c 0D4A     		ldr	r2, .L332
 6160 001e 9823     		mov	r3, #152
 6161 0020 5B00     		lsl	r3, r3, #1
 6162 0022 D15C     		ldrb	r1, [r2, r3]
 6163 0024 0820     		mov	r0, #8
 6164 0026 8143     		bic	r1, r0
 6165 0028 D154     		strb	r1, [r2, r3]
 521:.\Generated_Source\PSoC4/comm.c **** 		comm_RS485_ReleaseSlave(rs485_slave_released_callback);  //if we are slave, this will fail
 6166              		.loc 1 521 0
 6167 002a 0B4B     		ldr	r3, .L332+4
 6168 002c 181C     		mov	r0, r3
 6169 002e FFF7FEFF 		bl	comm_RS485_ReleaseSlave
 6170 0032 0BE0     		b	.L329
 6171              	.L330:
 522:.\Generated_Source\PSoC4/comm.c **** 	} else {
ARM GAS  C:\Users\SDEVAS~1\AppData\Local\Temp\cc8KFjZb.s 			page 124


 523:.\Generated_Source\PSoC4/comm.c **** 		sendingTicks = SysTimer_GetTicks();
 6172              		.loc 1 523 0
 6173 0034 FFF7FEFF 		bl	SysTimer_GetTicks
 6174 0038 021C     		mov	r2, r0
 6175 003a 084B     		ldr	r3, .L332+8
 6176 003c 1A60     		str	r2, [r3]
 524:.\Generated_Source\PSoC4/comm.c **** 		comm.flags.SENT = 1;
 6177              		.loc 1 524 0
 6178 003e 054A     		ldr	r2, .L332
 6179 0040 9823     		mov	r3, #152
 6180 0042 5B00     		lsl	r3, r3, #1
 6181 0044 D15C     		ldrb	r1, [r2, r3]
 6182 0046 0220     		mov	r0, #2
 6183 0048 0143     		orr	r1, r0
 6184 004a D154     		strb	r1, [r2, r3]
 6185              	.L329:
 525:.\Generated_Source\PSoC4/comm.c **** 	}
 526:.\Generated_Source\PSoC4/comm.c **** }
 6186              		.loc 1 526 0
 6187 004c BD46     		mov	sp, r7
 6188 004e 02B0     		add	sp, sp, #8
 6189              		@ sp needed
 6190 0050 80BD     		pop	{r7, pc}
 6191              	.L333:
 6192 0052 C046     		.align	2
 6193              	.L332:
 6194 0054 00000000 		.word	comm
 6195 0058 00000000 		.word	rs485_slave_released_callback
 6196 005c 30000000 		.word	sendingTicks
 6197              		.cfi_endproc
 6198              	.LFE58:
 6199              		.size	rs485_frame_sent_callback, .-rs485_frame_sent_callback
 6200              		.section	.rodata
 6201 0aff 00       		.align	2
 6202              	.LC245:
 6203 0b00 53657400 		.ascii	"Set\000"
 6204              		.align	2
 6205              	.LC247:
 6206 0b04 47657400 		.ascii	"Get\000"
 6207              		.align	2
 6208              	.LC249:
 6209 0b08 496E666F 		.ascii	"Info\000"
 6209      00
 6210 0b0d 000000   		.align	2
 6211              	.LC251:
 6212 0b10 53746174 		.ascii	"Status\000"
 6212      757300
 6213 0b17 00       		.align	2
 6214              	.LC253:
 6215 0b18 4D6F6465 		.ascii	"Mode\000"
 6215      00
 6216 0b1d 000000   		.align	2
 6217              	.LC260:
 6218 0b20 7B226174 		.ascii	"{\"atomType\":\"W\",\"atomId\":0}\000"
 6218      6F6D5479 
 6218      7065223A 
 6218      2257222C 
ARM GAS  C:\Users\SDEVAS~1\AppData\Local\Temp\cc8KFjZb.s 			page 125


 6218      2261746F 
 6219              		.section	.text.comm_Handler,"ax",%progbits
 6220              		.align	2
 6221              		.global	comm_Handler
 6222              		.code	16
 6223              		.thumb_func
 6224              		.type	comm_Handler, %function
 6225              	comm_Handler:
 6226              	.LFB59:
 527:.\Generated_Source\PSoC4/comm.c **** 
 528:.\Generated_Source\PSoC4/comm.c **** void comm_Handler(void) {
 6227              		.loc 1 528 0
 6228              		.cfi_startproc
 6229 0000 B0B5     		push	{r4, r5, r7, lr}
 6230              		.cfi_def_cfa_offset 16
 6231              		.cfi_offset 4, -16
 6232              		.cfi_offset 5, -12
 6233              		.cfi_offset 7, -8
 6234              		.cfi_offset 14, -4
 6235 0002 84B0     		sub	sp, sp, #16
 6236              		.cfi_def_cfa_offset 32
 6237 0004 02AF     		add	r7, sp, #8
 6238              		.cfi_def_cfa 7, 24
 529:.\Generated_Source\PSoC4/comm.c **** 	static int error_counter = 0;
 530:.\Generated_Source\PSoC4/comm.c **** 	static int timeout_counter = 0;
 531:.\Generated_Source\PSoC4/comm.c **** 	if(comm.flags.RECV) {
 6239              		.loc 1 531 0
 6240 0006 CB4A     		ldr	r2, .L363
 6241 0008 9823     		mov	r3, #152
 6242 000a 5B00     		lsl	r3, r3, #1
 6243 000c D35C     		ldrb	r3, [r2, r3]
 6244 000e DB07     		lsl	r3, r3, #31
 6245 0010 DB0F     		lsr	r3, r3, #31
 6246 0012 DBB2     		uxtb	r3, r3
 6247 0014 002B     		cmp	r3, #0
 6248 0016 00D1     		bne	.LCB5601
 6249 0018 31E1     		b	.L335	@long jump
 6250              	.LCB5601:
 532:.\Generated_Source\PSoC4/comm.c **** 		//stop resending
 533:.\Generated_Source\PSoC4/comm.c **** 		comm.flags.SENT = 0;
 6251              		.loc 1 533 0
 6252 001a C64A     		ldr	r2, .L363
 6253 001c 9823     		mov	r3, #152
 6254 001e 5B00     		lsl	r3, r3, #1
 6255 0020 D15C     		ldrb	r1, [r2, r3]
 6256 0022 0220     		mov	r0, #2
 6257 0024 8143     		bic	r1, r0
 6258 0026 D154     		strb	r1, [r2, r3]
 534:.\Generated_Source\PSoC4/comm.c **** 		//recv message
 535:.\Generated_Source\PSoC4/comm.c **** 		if(validateDestinationAndParse(comm.recvBuff, comm.len) == JSON_MSG_PARSE_OK) {
 6259              		.loc 1 535 0
 6260 0028 C24A     		ldr	r2, .L363
 6261 002a 9623     		mov	r3, #150
 6262 002c 5B00     		lsl	r3, r3, #1
 6263 002e D358     		ldr	r3, [r2, r3]
 6264 0030 C04A     		ldr	r2, .L363
 6265 0032 101C     		mov	r0, r2
ARM GAS  C:\Users\SDEVAS~1\AppData\Local\Temp\cc8KFjZb.s 			page 126


 6266 0034 191C     		mov	r1, r3
 6267 0036 FFF7FEFF 		bl	validateDestinationAndParse
 6268 003a 031C     		mov	r3, r0
 6269 003c 002B     		cmp	r3, #0
 6270 003e 00D0     		beq	.LCB5619
 6271 0040 16E1     		b	.L336	@long jump
 6272              	.LCB5619:
 536:.\Generated_Source\PSoC4/comm.c **** 			if(flags == COMM_FLAG_NACK) {
 6273              		.loc 1 536 0
 6274 0042 BD4B     		ldr	r3, .L363+4
 6275 0044 1B78     		ldrb	r3, [r3]
 6276 0046 042B     		cmp	r3, #4
 6277 0048 15D1     		bne	.L337
 537:.\Generated_Source\PSoC4/comm.c **** 				//we are in session, but receivied NACK increease error counter
 538:.\Generated_Source\PSoC4/comm.c **** 				if(error_counter++ < 3) {
 6278              		.loc 1 538 0
 6279 004a BC4B     		ldr	r3, .L363+8
 6280 004c 1B68     		ldr	r3, [r3]
 6281 004e 591C     		add	r1, r3, #1
 6282 0050 BA4A     		ldr	r2, .L363+8
 6283 0052 1160     		str	r1, [r2]
 6284 0054 022B     		cmp	r3, #2
 6285 0056 00DD     		ble	.LCB5630
 6286 0058 0AE1     		b	.L336	@long jump
 6287              	.LCB5630:
 539:.\Generated_Source\PSoC4/comm.c **** 					//resend message
 540:.\Generated_Source\PSoC4/comm.c **** 					comm_RS485_SendFrame(respBuff, RESP_BUFF_LEN - respFreeSpace, rs485_frame_sent_callback);
 6288              		.loc 1 540 0
 6289 005a B94B     		ldr	r3, .L363+12
 6290 005c 1B68     		ldr	r3, [r3]
 6291 005e 9622     		mov	r2, #150
 6292 0060 5200     		lsl	r2, r2, #1
 6293 0062 D31A     		sub	r3, r2, r3
 6294 0064 1A1C     		mov	r2, r3
 6295 0066 B749     		ldr	r1, .L363+16
 6296 0068 B74B     		ldr	r3, .L363+20
 6297 006a 081C     		mov	r0, r1
 6298 006c 111C     		mov	r1, r2
 6299 006e 1A1C     		mov	r2, r3
 6300 0070 FFF7FEFF 		bl	comm_RS485_SendFrame
 6301 0074 FCE0     		b	.L336
 6302              	.L337:
 6303              	.LBB5:
 541:.\Generated_Source\PSoC4/comm.c **** 				}
 542:.\Generated_Source\PSoC4/comm.c **** 			} else {
 543:.\Generated_Source\PSoC4/comm.c **** 				//reset error & timeout counter
 544:.\Generated_Source\PSoC4/comm.c **** 				error_counter = 0;
 6304              		.loc 1 544 0
 6305 0076 B14B     		ldr	r3, .L363+8
 6306 0078 0022     		mov	r2, #0
 6307 007a 1A60     		str	r2, [r3]
 545:.\Generated_Source\PSoC4/comm.c **** 				timeout_counter = 0;
 6308              		.loc 1 545 0
 6309 007c B34B     		ldr	r3, .L363+24
 6310 007e 0022     		mov	r2, #0
 6311 0080 1A60     		str	r2, [r3]
 546:.\Generated_Source\PSoC4/comm.c **** 				resp_GenDestSrcOrder(msgSource, msgSourceLen, msgDest, msgDestLen, order, orderLen);
ARM GAS  C:\Users\SDEVAS~1\AppData\Local\Temp\cc8KFjZb.s 			page 127


 6312              		.loc 1 546 0
 6313 0082 B34B     		ldr	r3, .L363+28
 6314 0084 1868     		ldr	r0, [r3]
 6315 0086 B34B     		ldr	r3, .L363+32
 6316 0088 1968     		ldr	r1, [r3]
 6317 008a B34B     		ldr	r3, .L363+36
 6318 008c 1A68     		ldr	r2, [r3]
 6319 008e B34B     		ldr	r3, .L363+40
 6320 0090 1C68     		ldr	r4, [r3]
 6321 0092 B34B     		ldr	r3, .L363+44
 6322 0094 1D68     		ldr	r5, [r3]
 6323 0096 B34B     		ldr	r3, .L363+48
 6324 0098 1B68     		ldr	r3, [r3]
 6325 009a 0095     		str	r5, [sp]
 6326 009c 0193     		str	r3, [sp, #4]
 6327 009e 231C     		mov	r3, r4
 6328 00a0 FFF7FEFF 		bl	resp_GenDestSrcOrder
 547:.\Generated_Source\PSoC4/comm.c **** 
 548:.\Generated_Source\PSoC4/comm.c **** 				jsmn_init(&parser);
 6329              		.loc 1 548 0
 6330 00a4 B04B     		ldr	r3, .L363+52
 6331 00a6 181C     		mov	r0, r3
 6332 00a8 FFF7FEFF 		bl	jsmn_init
 549:.\Generated_Source\PSoC4/comm.c **** 				int r = jsmn_parse(&parser, payload, payloadLen, tokens, JSMN_TOKENS_SIZE);
 6333              		.loc 1 549 0
 6334 00ac AF4B     		ldr	r3, .L363+56
 6335 00ae 1968     		ldr	r1, [r3]
 6336 00b0 AF4B     		ldr	r3, .L363+60
 6337 00b2 1B68     		ldr	r3, [r3]
 6338 00b4 1A1C     		mov	r2, r3
 6339 00b6 AC48     		ldr	r0, .L363+52
 6340 00b8 AE4B     		ldr	r3, .L363+64
 6341 00ba 3C24     		mov	r4, #60
 6342 00bc 0094     		str	r4, [sp]
 6343 00be FFF7FEFF 		bl	jsmn_parse
 6344 00c2 031C     		mov	r3, r0
 6345 00c4 3B60     		str	r3, [r7]
 550:.\Generated_Source\PSoC4/comm.c **** 				if(r > 0) {
 6346              		.loc 1 550 0
 6347 00c6 3B68     		ldr	r3, [r7]
 6348 00c8 002B     		cmp	r3, #0
 6349 00ca 00DC     		bgt	.LCB5687
 6350 00cc D0E0     		b	.L336	@long jump
 6351              	.LCB5687:
 6352              	.LBB6:
 551:.\Generated_Source\PSoC4/comm.c **** 					comm_flags_t retflag = COMM_FLAG_UNKNOWN;
 6353              		.loc 1 551 0
 6354 00ce FB1D     		add	r3, r7, #7
 6355 00d0 0022     		mov	r2, #0
 6356 00d2 1A70     		strb	r2, [r3]
 552:.\Generated_Source\PSoC4/comm.c **** 
 553:.\Generated_Source\PSoC4/comm.c **** 					if(strncmp(order, "Set", orderLen) == 0) {
 6357              		.loc 1 553 0
 6358 00d4 A24B     		ldr	r3, .L363+44
 6359 00d6 1968     		ldr	r1, [r3]
 6360 00d8 A24B     		ldr	r3, .L363+48
 6361 00da 1B68     		ldr	r3, [r3]
ARM GAS  C:\Users\SDEVAS~1\AppData\Local\Temp\cc8KFjZb.s 			page 128


 6362 00dc A64A     		ldr	r2, .L363+68
 6363 00de 081C     		mov	r0, r1
 6364 00e0 111C     		mov	r1, r2
 6365 00e2 1A1C     		mov	r2, r3
 6366 00e4 FFF7FEFF 		bl	strncmp
 6367 00e8 031C     		mov	r3, r0
 6368 00ea 002B     		cmp	r3, #0
 6369 00ec 0ED1     		bne	.L339
 554:.\Generated_Source\PSoC4/comm.c **** 						retflag = comm_handle_Set(flags, payload, payloadLen, tokens, r);
 6370              		.loc 1 554 0
 6371 00ee 924B     		ldr	r3, .L363+4
 6372 00f0 1878     		ldrb	r0, [r3]
 6373 00f2 9E4B     		ldr	r3, .L363+56
 6374 00f4 1968     		ldr	r1, [r3]
 6375 00f6 9E4B     		ldr	r3, .L363+60
 6376 00f8 1A68     		ldr	r2, [r3]
 6377 00fa FC1D     		add	r4, r7, #7
 6378 00fc 9D4B     		ldr	r3, .L363+64
 6379 00fe 3D68     		ldr	r5, [r7]
 6380 0100 0095     		str	r5, [sp]
 6381 0102 FFF7FEFF 		bl	comm_handle_Set
 6382 0106 031C     		mov	r3, r0
 6383 0108 2370     		strb	r3, [r4]
 6384 010a 6EE0     		b	.L340
 6385              	.L339:
 555:.\Generated_Source\PSoC4/comm.c **** 					} else if(strncmp(order, "Get", orderLen) == 0) {
 6386              		.loc 1 555 0
 6387 010c 944B     		ldr	r3, .L363+44
 6388 010e 1968     		ldr	r1, [r3]
 6389 0110 944B     		ldr	r3, .L363+48
 6390 0112 1B68     		ldr	r3, [r3]
 6391 0114 994A     		ldr	r2, .L363+72
 6392 0116 081C     		mov	r0, r1
 6393 0118 111C     		mov	r1, r2
 6394 011a 1A1C     		mov	r2, r3
 6395 011c FFF7FEFF 		bl	strncmp
 6396 0120 031C     		mov	r3, r0
 6397 0122 002B     		cmp	r3, #0
 6398 0124 0ED1     		bne	.L341
 556:.\Generated_Source\PSoC4/comm.c **** 						retflag = comm_handle_Get(flags, payload, payloadLen, tokens, r);
 6399              		.loc 1 556 0
 6400 0126 844B     		ldr	r3, .L363+4
 6401 0128 1878     		ldrb	r0, [r3]
 6402 012a 904B     		ldr	r3, .L363+56
 6403 012c 1968     		ldr	r1, [r3]
 6404 012e 904B     		ldr	r3, .L363+60
 6405 0130 1A68     		ldr	r2, [r3]
 6406 0132 FC1D     		add	r4, r7, #7
 6407 0134 8F4B     		ldr	r3, .L363+64
 6408 0136 3D68     		ldr	r5, [r7]
 6409 0138 0095     		str	r5, [sp]
 6410 013a FFF7FEFF 		bl	comm_handle_Get
 6411 013e 031C     		mov	r3, r0
 6412 0140 2370     		strb	r3, [r4]
 6413 0142 52E0     		b	.L340
 6414              	.L341:
 557:.\Generated_Source\PSoC4/comm.c **** 					} else if(strncmp(order, "Info", orderLen) == 0) {
ARM GAS  C:\Users\SDEVAS~1\AppData\Local\Temp\cc8KFjZb.s 			page 129


 6415              		.loc 1 557 0
 6416 0144 864B     		ldr	r3, .L363+44
 6417 0146 1968     		ldr	r1, [r3]
 6418 0148 864B     		ldr	r3, .L363+48
 6419 014a 1B68     		ldr	r3, [r3]
 6420 014c 8C4A     		ldr	r2, .L363+76
 6421 014e 081C     		mov	r0, r1
 6422 0150 111C     		mov	r1, r2
 6423 0152 1A1C     		mov	r2, r3
 6424 0154 FFF7FEFF 		bl	strncmp
 6425 0158 031C     		mov	r3, r0
 6426 015a 002B     		cmp	r3, #0
 6427 015c 0ED1     		bne	.L342
 558:.\Generated_Source\PSoC4/comm.c **** 						retflag = comm_handle_Info(flags, payload, payloadLen, tokens, r);
 6428              		.loc 1 558 0
 6429 015e 764B     		ldr	r3, .L363+4
 6430 0160 1878     		ldrb	r0, [r3]
 6431 0162 824B     		ldr	r3, .L363+56
 6432 0164 1968     		ldr	r1, [r3]
 6433 0166 824B     		ldr	r3, .L363+60
 6434 0168 1A68     		ldr	r2, [r3]
 6435 016a FC1D     		add	r4, r7, #7
 6436 016c 814B     		ldr	r3, .L363+64
 6437 016e 3D68     		ldr	r5, [r7]
 6438 0170 0095     		str	r5, [sp]
 6439 0172 FFF7FEFF 		bl	comm_handle_Info
 6440 0176 031C     		mov	r3, r0
 6441 0178 2370     		strb	r3, [r4]
 6442 017a 36E0     		b	.L340
 6443              	.L342:
 559:.\Generated_Source\PSoC4/comm.c **** 					} else if(strncmp(order, "Status", orderLen) == 0) {
 6444              		.loc 1 559 0
 6445 017c 784B     		ldr	r3, .L363+44
 6446 017e 1968     		ldr	r1, [r3]
 6447 0180 784B     		ldr	r3, .L363+48
 6448 0182 1B68     		ldr	r3, [r3]
 6449 0184 7F4A     		ldr	r2, .L363+80
 6450 0186 081C     		mov	r0, r1
 6451 0188 111C     		mov	r1, r2
 6452 018a 1A1C     		mov	r2, r3
 6453 018c FFF7FEFF 		bl	strncmp
 6454 0190 031C     		mov	r3, r0
 6455 0192 002B     		cmp	r3, #0
 6456 0194 0ED1     		bne	.L343
 560:.\Generated_Source\PSoC4/comm.c **** 						retflag = comm_handle_Status(flags, payload, payloadLen, tokens, r);
 6457              		.loc 1 560 0
 6458 0196 684B     		ldr	r3, .L363+4
 6459 0198 1878     		ldrb	r0, [r3]
 6460 019a 744B     		ldr	r3, .L363+56
 6461 019c 1968     		ldr	r1, [r3]
 6462 019e 744B     		ldr	r3, .L363+60
 6463 01a0 1A68     		ldr	r2, [r3]
 6464 01a2 FC1D     		add	r4, r7, #7
 6465 01a4 734B     		ldr	r3, .L363+64
 6466 01a6 3D68     		ldr	r5, [r7]
 6467 01a8 0095     		str	r5, [sp]
 6468 01aa FFF7FEFF 		bl	comm_handle_Status
ARM GAS  C:\Users\SDEVAS~1\AppData\Local\Temp\cc8KFjZb.s 			page 130


 6469 01ae 031C     		mov	r3, r0
 6470 01b0 2370     		strb	r3, [r4]
 6471 01b2 1AE0     		b	.L340
 6472              	.L343:
 561:.\Generated_Source\PSoC4/comm.c **** 					} else if(strncmp(order, "Mode", orderLen) == 0) {
 6473              		.loc 1 561 0
 6474 01b4 6A4B     		ldr	r3, .L363+44
 6475 01b6 1968     		ldr	r1, [r3]
 6476 01b8 6A4B     		ldr	r3, .L363+48
 6477 01ba 1B68     		ldr	r3, [r3]
 6478 01bc 724A     		ldr	r2, .L363+84
 6479 01be 081C     		mov	r0, r1
 6480 01c0 111C     		mov	r1, r2
 6481 01c2 1A1C     		mov	r2, r3
 6482 01c4 FFF7FEFF 		bl	strncmp
 6483 01c8 031C     		mov	r3, r0
 6484 01ca 002B     		cmp	r3, #0
 6485 01cc 0DD1     		bne	.L340
 562:.\Generated_Source\PSoC4/comm.c **** 						retflag = comm_handle_Mode(flags, payload, payloadLen, tokens, r);
 6486              		.loc 1 562 0
 6487 01ce 5A4B     		ldr	r3, .L363+4
 6488 01d0 1878     		ldrb	r0, [r3]
 6489 01d2 664B     		ldr	r3, .L363+56
 6490 01d4 1968     		ldr	r1, [r3]
 6491 01d6 664B     		ldr	r3, .L363+60
 6492 01d8 1A68     		ldr	r2, [r3]
 6493 01da FC1D     		add	r4, r7, #7
 6494 01dc 654B     		ldr	r3, .L363+64
 6495 01de 3D68     		ldr	r5, [r7]
 6496 01e0 0095     		str	r5, [sp]
 6497 01e2 FFF7FEFF 		bl	comm_handle_Mode
 6498 01e6 031C     		mov	r3, r0
 6499 01e8 2370     		strb	r3, [r4]
 6500              	.L340:
 563:.\Generated_Source\PSoC4/comm.c **** 					}
 564:.\Generated_Source\PSoC4/comm.c **** 					#define X(OrderName) else if(strncmp(order, #OrderName, orderLen) == 0) { \
 565:.\Generated_Source\PSoC4/comm.c **** 						retflag = comm_handle_##OrderName(flags, payload, payloadLen, tokens, r); \
 566:.\Generated_Source\PSoC4/comm.c **** 					}
 567:.\Generated_Source\PSoC4/comm.c **** 					ATOM_ORDERS
 568:.\Generated_Source\PSoC4/comm.c **** 					#undef X
 569:.\Generated_Source\PSoC4/comm.c **** 
 570:.\Generated_Source\PSoC4/comm.c **** 					if(retflag != COMM_FLAG_UNKNOWN) {
 6501              		.loc 1 570 0
 6502 01ea FB1D     		add	r3, r7, #7
 6503 01ec 1B78     		ldrb	r3, [r3]
 6504 01ee 002B     		cmp	r3, #0
 6505 01f0 31D0     		beq	.L344
 571:.\Generated_Source\PSoC4/comm.c **** 						//handler returned flag that indicates communication, we are adding it to overall payload, an
 572:.\Generated_Source\PSoC4/comm.c **** 						resp_AddFlags(retflag);
 6506              		.loc 1 572 0
 6507 01f2 FB1D     		add	r3, r7, #7
 6508 01f4 1B78     		ldrb	r3, [r3]
 6509 01f6 181C     		mov	r0, r3
 6510 01f8 FFF7FEFF 		bl	resp_AddFlags
 573:.\Generated_Source\PSoC4/comm.c **** 						ADD_CHAR_TO_RESP('}');
 6511              		.loc 1 573 0
 6512 01fc 634B     		ldr	r3, .L363+88
ARM GAS  C:\Users\SDEVAS~1\AppData\Local\Temp\cc8KFjZb.s 			page 131


 6513 01fe 1B68     		ldr	r3, [r3]
 6514 0200 591C     		add	r1, r3, #1
 6515 0202 624A     		ldr	r2, .L363+88
 6516 0204 1160     		str	r1, [r2]
 6517 0206 7D22     		mov	r2, #125
 6518 0208 1A70     		strb	r2, [r3]
 6519 020a 4D4B     		ldr	r3, .L363+12
 6520 020c 1B68     		ldr	r3, [r3]
 6521 020e 5A1E     		sub	r2, r3, #1
 6522 0210 4B4B     		ldr	r3, .L363+12
 6523 0212 1A60     		str	r2, [r3]
 574:.\Generated_Source\PSoC4/comm.c **** 
 575:.\Generated_Source\PSoC4/comm.c **** 						*respEnd = '\0';
 6524              		.loc 1 575 0
 6525 0214 5D4B     		ldr	r3, .L363+88
 6526 0216 1B68     		ldr	r3, [r3]
 6527 0218 0022     		mov	r2, #0
 6528 021a 1A70     		strb	r2, [r3]
 576:.\Generated_Source\PSoC4/comm.c **** 
 577:.\Generated_Source\PSoC4/comm.c **** 						if(retflag == COMM_FLAG_ACK || retflag == COMM_FLAG_NACK) {
 6529              		.loc 1 577 0
 6530 021c FB1D     		add	r3, r7, #7
 6531 021e 1B78     		ldrb	r3, [r3]
 6532 0220 022B     		cmp	r3, #2
 6533 0222 03D0     		beq	.L345
 6534              		.loc 1 577 0 is_stmt 0 discriminator 1
 6535 0224 FB1D     		add	r3, r7, #7
 6536 0226 1B78     		ldrb	r3, [r3]
 6537 0228 042B     		cmp	r3, #4
 6538 022a 06D1     		bne	.L346
 6539              	.L345:
 578:.\Generated_Source\PSoC4/comm.c **** 							//this is final message from this atom
 579:.\Generated_Source\PSoC4/comm.c **** 							comm.flags.LAST_MSG = 1;
 6540              		.loc 1 579 0 is_stmt 1
 6541 022c 414A     		ldr	r2, .L363
 6542 022e 9823     		mov	r3, #152
 6543 0230 5B00     		lsl	r3, r3, #1
 6544 0232 D15C     		ldrb	r1, [r2, r3]
 6545 0234 0820     		mov	r0, #8
 6546 0236 0143     		orr	r1, r0
 6547 0238 D154     		strb	r1, [r2, r3]
 6548              	.L346:
 580:.\Generated_Source\PSoC4/comm.c **** 						}
 581:.\Generated_Source\PSoC4/comm.c **** 
 582:.\Generated_Source\PSoC4/comm.c **** 						comm_RS485_SendFrame(respBuff, RESP_BUFF_LEN - respFreeSpace, rs485_frame_sent_callback);
 6549              		.loc 1 582 0
 6550 023a 414B     		ldr	r3, .L363+12
 6551 023c 1B68     		ldr	r3, [r3]
 6552 023e 9622     		mov	r2, #150
 6553 0240 5200     		lsl	r2, r2, #1
 6554 0242 D31A     		sub	r3, r2, r3
 6555 0244 1A1C     		mov	r2, r3
 6556 0246 3F49     		ldr	r1, .L363+16
 6557 0248 3F4B     		ldr	r3, .L363+20
 6558 024a 081C     		mov	r0, r1
 6559 024c 111C     		mov	r1, r2
 6560 024e 1A1C     		mov	r2, r3
ARM GAS  C:\Users\SDEVAS~1\AppData\Local\Temp\cc8KFjZb.s 			page 132


 6561 0250 FFF7FEFF 		bl	comm_RS485_SendFrame
 6562 0254 0CE0     		b	.L336
 6563              	.L344:
 583:.\Generated_Source\PSoC4/comm.c **** 					} else {
 584:.\Generated_Source\PSoC4/comm.c **** 						//handler indicated that comm is over, if we are master, we should release the bus!
 585:.\Generated_Source\PSoC4/comm.c **** 						if(comm.flags.SLAVE == 0) {
 6564              		.loc 1 585 0
 6565 0256 374A     		ldr	r2, .L363
 6566 0258 9823     		mov	r3, #152
 6567 025a 5B00     		lsl	r3, r3, #1
 6568 025c D35C     		ldrb	r3, [r2, r3]
 6569 025e 5B07     		lsl	r3, r3, #29
 6570 0260 DB0F     		lsr	r3, r3, #31
 6571 0262 DBB2     		uxtb	r3, r3
 6572 0264 002B     		cmp	r3, #0
 6573 0266 03D1     		bne	.L336
 586:.\Generated_Source\PSoC4/comm.c **** 							comm_RS485_ReleaseSlave(rs485_slave_released_callback); //we can call this even if we are no
 6574              		.loc 1 586 0
 6575 0268 494B     		ldr	r3, .L363+92
 6576 026a 181C     		mov	r0, r3
 6577 026c FFF7FEFF 		bl	comm_RS485_ReleaseSlave
 6578              	.L336:
 6579              	.LBE6:
 6580              	.LBE5:
 587:.\Generated_Source\PSoC4/comm.c **** 						}
 588:.\Generated_Source\PSoC4/comm.c **** 					}
 589:.\Generated_Source\PSoC4/comm.c **** 					//otherwise just wait for other events (another message or bus release?)
 590:.\Generated_Source\PSoC4/comm.c **** 				}
 591:.\Generated_Source\PSoC4/comm.c **** 			}
 592:.\Generated_Source\PSoC4/comm.c **** 		}
 593:.\Generated_Source\PSoC4/comm.c **** 		comm.flags.RECV = 0;
 6581              		.loc 1 593 0
 6582 0270 304A     		ldr	r2, .L363
 6583 0272 9823     		mov	r3, #152
 6584 0274 5B00     		lsl	r3, r3, #1
 6585 0276 D15C     		ldrb	r1, [r2, r3]
 6586 0278 0120     		mov	r0, #1
 6587 027a 8143     		bic	r1, r0
 6588 027c D154     		strb	r1, [r2, r3]
 6589              	.L335:
 594:.\Generated_Source\PSoC4/comm.c **** 	}
 595:.\Generated_Source\PSoC4/comm.c **** 	if(comm.flags.SENT) {
 6590              		.loc 1 595 0
 6591 027e 2D4A     		ldr	r2, .L363
 6592 0280 9823     		mov	r3, #152
 6593 0282 5B00     		lsl	r3, r3, #1
 6594 0284 D35C     		ldrb	r3, [r2, r3]
 6595 0286 9B07     		lsl	r3, r3, #30
 6596 0288 DB0F     		lsr	r3, r3, #31
 6597 028a DBB2     		uxtb	r3, r3
 6598 028c 002B     		cmp	r3, #0
 6599 028e 3AD0     		beq	.L347
 596:.\Generated_Source\PSoC4/comm.c **** 		//message was sent,
 597:.\Generated_Source\PSoC4/comm.c **** 		if(timeout_counter > 2) {
 6600              		.loc 1 597 0
 6601 0290 2E4B     		ldr	r3, .L363+24
 6602 0292 1B68     		ldr	r3, [r3]
ARM GAS  C:\Users\SDEVAS~1\AppData\Local\Temp\cc8KFjZb.s 			page 133


 6603 0294 022B     		cmp	r3, #2
 6604 0296 14DD     		ble	.L348
 598:.\Generated_Source\PSoC4/comm.c **** 			//we are 3x timeouted, stop sending...
 599:.\Generated_Source\PSoC4/comm.c **** 			comm.flags.SENT = 0;
 6605              		.loc 1 599 0
 6606 0298 264A     		ldr	r2, .L363
 6607 029a 9823     		mov	r3, #152
 6608 029c 5B00     		lsl	r3, r3, #1
 6609 029e D15C     		ldrb	r1, [r2, r3]
 6610 02a0 0220     		mov	r0, #2
 6611 02a2 8143     		bic	r1, r0
 6612 02a4 D154     		strb	r1, [r2, r3]
 600:.\Generated_Source\PSoC4/comm.c **** 			//if we are MASTER here, well, release bus
 601:.\Generated_Source\PSoC4/comm.c **** 			if(comm.flags.SLAVE == 0) {
 6613              		.loc 1 601 0
 6614 02a6 234A     		ldr	r2, .L363
 6615 02a8 9823     		mov	r3, #152
 6616 02aa 5B00     		lsl	r3, r3, #1
 6617 02ac D35C     		ldrb	r3, [r2, r3]
 6618 02ae 5B07     		lsl	r3, r3, #29
 6619 02b0 DB0F     		lsr	r3, r3, #31
 6620 02b2 DBB2     		uxtb	r3, r3
 6621 02b4 002B     		cmp	r3, #0
 6622 02b6 26D1     		bne	.L347
 602:.\Generated_Source\PSoC4/comm.c **** 				comm_RS485_ReleaseSlave(rs485_slave_released_callback);
 6623              		.loc 1 602 0
 6624 02b8 354B     		ldr	r3, .L363+92
 6625 02ba 181C     		mov	r0, r3
 6626 02bc FFF7FEFF 		bl	comm_RS485_ReleaseSlave
 6627 02c0 21E0     		b	.L347
 6628              	.L348:
 603:.\Generated_Source\PSoC4/comm.c **** 			}
 604:.\Generated_Source\PSoC4/comm.c **** 		} else if(SysTimer_GetTicks() - sendingTicks > 3000) {
 6629              		.loc 1 604 0
 6630 02c2 FFF7FEFF 		bl	SysTimer_GetTicks
 6631 02c6 021C     		mov	r2, r0
 6632 02c8 324B     		ldr	r3, .L363+96
 6633 02ca 1B68     		ldr	r3, [r3]
 6634 02cc D21A     		sub	r2, r2, r3
 6635 02ce 324B     		ldr	r3, .L363+100
 6636 02d0 9A42     		cmp	r2, r3
 6637 02d2 18D9     		bls	.L347
 605:.\Generated_Source\PSoC4/comm.c **** 			//we've got timeout, resend frame
 606:.\Generated_Source\PSoC4/comm.c **** 			comm.flags.SENT = 0;
 6638              		.loc 1 606 0
 6639 02d4 174A     		ldr	r2, .L363
 6640 02d6 9823     		mov	r3, #152
 6641 02d8 5B00     		lsl	r3, r3, #1
 6642 02da D15C     		ldrb	r1, [r2, r3]
 6643 02dc 0220     		mov	r0, #2
 6644 02de 8143     		bic	r1, r0
 6645 02e0 D154     		strb	r1, [r2, r3]
 607:.\Generated_Source\PSoC4/comm.c **** 			timeout_counter++;
 6646              		.loc 1 607 0
 6647 02e2 1A4B     		ldr	r3, .L363+24
 6648 02e4 1B68     		ldr	r3, [r3]
 6649 02e6 5A1C     		add	r2, r3, #1
ARM GAS  C:\Users\SDEVAS~1\AppData\Local\Temp\cc8KFjZb.s 			page 134


 6650 02e8 184B     		ldr	r3, .L363+24
 6651 02ea 1A60     		str	r2, [r3]
 608:.\Generated_Source\PSoC4/comm.c **** 			comm_RS485_SendFrame(respBuff, RESP_BUFF_LEN - respFreeSpace, rs485_frame_sent_callback);
 6652              		.loc 1 608 0
 6653 02ec 144B     		ldr	r3, .L363+12
 6654 02ee 1B68     		ldr	r3, [r3]
 6655 02f0 9622     		mov	r2, #150
 6656 02f2 5200     		lsl	r2, r2, #1
 6657 02f4 D31A     		sub	r3, r2, r3
 6658 02f6 1A1C     		mov	r2, r3
 6659 02f8 1249     		ldr	r1, .L363+16
 6660 02fa 134B     		ldr	r3, .L363+20
 6661 02fc 081C     		mov	r0, r1
 6662 02fe 111C     		mov	r1, r2
 6663 0300 1A1C     		mov	r2, r3
 6664 0302 FFF7FEFF 		bl	comm_RS485_SendFrame
 6665              	.L347:
 609:.\Generated_Source\PSoC4/comm.c **** 		}
 610:.\Generated_Source\PSoC4/comm.c **** 	}
 611:.\Generated_Source\PSoC4/comm.c **** 	switch(comm.state) {
 6666              		.loc 1 611 0
 6667 0306 0B4A     		ldr	r2, .L363
 6668 0308 9A23     		mov	r3, #154
 6669 030a 5B00     		lsl	r3, r3, #1
 6670 030c D35C     		ldrb	r3, [r2, r3]
 6671 030e 022B     		cmp	r3, #2
 6672 0310 46D0     		beq	.L351
 6673 0312 032B     		cmp	r3, #3
 6674 0314 00D1     		bne	.LCB5995
 6675 0316 25E1     		b	.L352	@long jump
 6676              	.LCB5995:
 6677 0318 012B     		cmp	r3, #1
 6678 031a 00D0     		beq	.L353
 6679              	.LBB7:
 612:.\Generated_Source\PSoC4/comm.c **** 	case COMM_STATE_BUS_GRANTED:
 613:.\Generated_Source\PSoC4/comm.c **** 		comm_RS485_SelectSlave(comm.schedAddr, rs485_slave_selected_callback);
 614:.\Generated_Source\PSoC4/comm.c **** 		break;
 615:.\Generated_Source\PSoC4/comm.c **** 	case COMM_STATE_SLAVE_SELECTED:
 616:.\Generated_Source\PSoC4/comm.c **** 		//reset error & timeout counter
 617:.\Generated_Source\PSoC4/comm.c **** 		error_counter = 0;
 618:.\Generated_Source\PSoC4/comm.c **** 		timeout_counter = 0;
 619:.\Generated_Source\PSoC4/comm.c **** 		resp_GenDestSrcOrder(msgDestinationHolder, sizeof(msgDestinationHolder) - 1,
 620:.\Generated_Source\PSoC4/comm.c **** 				MSG_SOURCE_HOLDER, sizeof(MSG_SOURCE_HOLDER) - 1,
 621:.\Generated_Source\PSoC4/comm.c **** 				comm.schedOrder, comm.schedOrderLen);
 622:.\Generated_Source\PSoC4/comm.c **** 
 623:.\Generated_Source\PSoC4/comm.c **** 		comm_flags_t retflag = COMM_FLAG_UNKNOWN;
 624:.\Generated_Source\PSoC4/comm.c **** 
 625:.\Generated_Source\PSoC4/comm.c **** 		if(strncmp(comm.schedOrder, "Set", comm.schedOrderLen) == 0) {
 626:.\Generated_Source\PSoC4/comm.c **** 			retflag = comm_handle_Set(COMM_FLAG_UNKNOWN, NULL, 0, NULL, 0);
 627:.\Generated_Source\PSoC4/comm.c **** 		} else if(strncmp(comm.schedOrder, "Get", comm.schedOrderLen) == 0) {
 628:.\Generated_Source\PSoC4/comm.c **** 			retflag = comm_handle_Get(COMM_FLAG_UNKNOWN, NULL, 0, NULL, 0);
 629:.\Generated_Source\PSoC4/comm.c **** 		} else if(strncmp(comm.schedOrder, "Info", comm.schedOrderLen) == 0) {
 630:.\Generated_Source\PSoC4/comm.c **** 			retflag = comm_handle_Info(COMM_FLAG_UNKNOWN, NULL, 0, NULL, 0);
 631:.\Generated_Source\PSoC4/comm.c **** 		} else if(strncmp(comm.schedOrder, "Status", comm.schedOrderLen) == 0) {
 632:.\Generated_Source\PSoC4/comm.c **** 			retflag = comm_handle_Info(COMM_FLAG_UNKNOWN, NULL, 0, NULL, 0);
 633:.\Generated_Source\PSoC4/comm.c **** 		} else if(strncmp(comm.schedOrder, "Mode", comm.schedOrderLen) == 0) {
 634:.\Generated_Source\PSoC4/comm.c **** 			retflag = comm_handle_Mode(COMM_FLAG_UNKNOWN, NULL, 0, NULL, 0);
ARM GAS  C:\Users\SDEVAS~1\AppData\Local\Temp\cc8KFjZb.s 			page 135


 635:.\Generated_Source\PSoC4/comm.c **** 		}
 636:.\Generated_Source\PSoC4/comm.c **** 		#define X(OrderName) else if(strncmp(comm.schedOrder, #OrderName, comm.schedOrderLen) == 0) { \
 637:.\Generated_Source\PSoC4/comm.c **** 			retflag = comm_handle_##OrderName(COMM_FLAG_UNKNOWN, NULL, 0, NULL, 0); \
 638:.\Generated_Source\PSoC4/comm.c **** 		}
 639:.\Generated_Source\PSoC4/comm.c **** 		ATOM_ORDERS
 640:.\Generated_Source\PSoC4/comm.c **** 		#undef X
 641:.\Generated_Source\PSoC4/comm.c **** 
 642:.\Generated_Source\PSoC4/comm.c **** 		if(retflag != COMM_FLAG_UNKNOWN) {
 643:.\Generated_Source\PSoC4/comm.c **** 			//handler returned flag that indicates communication, we are adding it to overall payload, and s
 644:.\Generated_Source\PSoC4/comm.c **** 			resp_AddFlags(retflag);
 645:.\Generated_Source\PSoC4/comm.c **** 			ADD_CHAR_TO_RESP('}');
 646:.\Generated_Source\PSoC4/comm.c **** 
 647:.\Generated_Source\PSoC4/comm.c **** 			*respEnd = '\0';
 648:.\Generated_Source\PSoC4/comm.c **** 
 649:.\Generated_Source\PSoC4/comm.c **** 			if(retflag == COMM_FLAG_PUSH) {
 650:.\Generated_Source\PSoC4/comm.c **** 				//we dont care about ACKs...
 651:.\Generated_Source\PSoC4/comm.c **** 				comm.flags.LAST_MSG = 1;
 652:.\Generated_Source\PSoC4/comm.c **** 			}
 653:.\Generated_Source\PSoC4/comm.c **** 			comm_RS485_SendFrame(respBuff, RESP_BUFF_LEN - respFreeSpace, rs485_frame_sent_callback);
 654:.\Generated_Source\PSoC4/comm.c **** 		} else {
 655:.\Generated_Source\PSoC4/comm.c **** 			//this is defeneatly error, but release slave
 656:.\Generated_Source\PSoC4/comm.c **** 			comm_RS485_ReleaseSlave(rs485_slave_released_callback);
 657:.\Generated_Source\PSoC4/comm.c **** 		}
 658:.\Generated_Source\PSoC4/comm.c **** 
 659:.\Generated_Source\PSoC4/comm.c **** 		break;
 660:.\Generated_Source\PSoC4/comm.c **** 	case COMM_STATE_SLAVE_RELEASED:
 661:.\Generated_Source\PSoC4/comm.c **** 		comm_RS485_ReleaseBus(rs485_bus_released_callback);
 662:.\Generated_Source\PSoC4/comm.c **** 		break;
 663:.\Generated_Source\PSoC4/comm.c **** 	case COMM_STATE_BUS_RELEASED:
 664:.\Generated_Source\PSoC4/comm.c **** 	default:
 665:.\Generated_Source\PSoC4/comm.c **** 		break;
 6680              		.loc 1 665 0
 6681 031c 27E1     		b	.L354
 6682              	.L353:
 613:.\Generated_Source\PSoC4/comm.c **** 		comm_RS485_SelectSlave(comm.schedAddr, rs485_slave_selected_callback);
 6683              		.loc 1 613 0
 6684 031e 054A     		ldr	r2, .L363
 6685 0320 A023     		mov	r3, #160
 6686 0322 5B00     		lsl	r3, r3, #1
 6687 0324 D258     		ldr	r2, [r2, r3]
 6688 0326 1D4B     		ldr	r3, .L363+104
 6689 0328 101C     		mov	r0, r2
 6690 032a 191C     		mov	r1, r3
 6691 032c FFF7FEFF 		bl	comm_RS485_SelectSlave
 614:.\Generated_Source\PSoC4/comm.c **** 		break;
 6692              		.loc 1 614 0
 6693 0330 1DE1     		b	.L354
 6694              	.L364:
 6695 0332 C046     		.align	2
 6696              	.L363:
 6697 0334 00000000 		.word	comm
 6698 0338 00000000 		.word	flags
 6699 033c 34000000 		.word	error_counter.6419
 6700 0340 00000000 		.word	respFreeSpace
 6701 0344 00000000 		.word	respBuff
 6702 0348 00000000 		.word	rs485_frame_sent_callback
 6703 034c 38000000 		.word	timeout_counter.6420
ARM GAS  C:\Users\SDEVAS~1\AppData\Local\Temp\cc8KFjZb.s 			page 136


 6704 0350 14000000 		.word	msgSource
 6705 0354 18000000 		.word	msgSourceLen
 6706 0358 1C000000 		.word	msgDest
 6707 035c 20000000 		.word	msgDestLen
 6708 0360 04000000 		.word	order
 6709 0364 08000000 		.word	orderLen
 6710 0368 24000000 		.word	parser
 6711 036c 0C000000 		.word	payload
 6712 0370 10000000 		.word	payloadLen
 6713 0374 00000000 		.word	tokens
 6714 0378 000B0000 		.word	.LC245
 6715 037c 040B0000 		.word	.LC247
 6716 0380 080B0000 		.word	.LC249
 6717 0384 100B0000 		.word	.LC251
 6718 0388 180B0000 		.word	.LC253
 6719 038c 00000000 		.word	respEnd
 6720 0390 00000000 		.word	rs485_slave_released_callback
 6721 0394 30000000 		.word	sendingTicks
 6722 0398 B80B0000 		.word	3000
 6723 039c 00000000 		.word	rs485_slave_selected_callback
 6724              	.L351:
 617:.\Generated_Source\PSoC4/comm.c **** 		error_counter = 0;
 6725              		.loc 1 617 0
 6726 03a0 774B     		ldr	r3, .L365
 6727 03a2 0022     		mov	r2, #0
 6728 03a4 1A60     		str	r2, [r3]
 618:.\Generated_Source\PSoC4/comm.c **** 		timeout_counter = 0;
 6729              		.loc 1 618 0
 6730 03a6 774B     		ldr	r3, .L365+4
 6731 03a8 0022     		mov	r2, #0
 6732 03aa 1A60     		str	r2, [r3]
 619:.\Generated_Source\PSoC4/comm.c **** 		resp_GenDestSrcOrder(msgDestinationHolder, sizeof(msgDestinationHolder) - 1,
 6733              		.loc 1 619 0
 6734 03ac 764A     		ldr	r2, .L365+8
 6735 03ae 9C23     		mov	r3, #156
 6736 03b0 5B00     		lsl	r3, r3, #1
 6737 03b2 D058     		ldr	r0, [r2, r3]
 6738 03b4 744A     		ldr	r2, .L365+8
 6739 03b6 9E23     		mov	r3, #158
 6740 03b8 5B00     		lsl	r3, r3, #1
 6741 03ba D158     		ldr	r1, [r2, r3]
 6742 03bc 734A     		ldr	r2, .L365+12
 6743 03be 744B     		ldr	r3, .L365+16
 6744 03c0 0090     		str	r0, [sp]
 6745 03c2 0191     		str	r1, [sp, #4]
 6746 03c4 101C     		mov	r0, r2
 6747 03c6 1B21     		mov	r1, #27
 6748 03c8 1A1C     		mov	r2, r3
 6749 03ca 1B23     		mov	r3, #27
 6750 03cc FFF7FEFF 		bl	resp_GenDestSrcOrder
 623:.\Generated_Source\PSoC4/comm.c **** 		comm_flags_t retflag = COMM_FLAG_UNKNOWN;
 6751              		.loc 1 623 0
 6752 03d0 BB1D     		add	r3, r7, #6
 6753 03d2 0022     		mov	r2, #0
 6754 03d4 1A70     		strb	r2, [r3]
 625:.\Generated_Source\PSoC4/comm.c **** 		if(strncmp(comm.schedOrder, "Set", comm.schedOrderLen) == 0) {
 6755              		.loc 1 625 0
ARM GAS  C:\Users\SDEVAS~1\AppData\Local\Temp\cc8KFjZb.s 			page 137


 6756 03d6 6C4A     		ldr	r2, .L365+8
 6757 03d8 9C23     		mov	r3, #156
 6758 03da 5B00     		lsl	r3, r3, #1
 6759 03dc D158     		ldr	r1, [r2, r3]
 6760 03de 6A4A     		ldr	r2, .L365+8
 6761 03e0 9E23     		mov	r3, #158
 6762 03e2 5B00     		lsl	r3, r3, #1
 6763 03e4 D358     		ldr	r3, [r2, r3]
 6764 03e6 6B4A     		ldr	r2, .L365+20
 6765 03e8 081C     		mov	r0, r1
 6766 03ea 111C     		mov	r1, r2
 6767 03ec 1A1C     		mov	r2, r3
 6768 03ee FFF7FEFF 		bl	strncmp
 6769 03f2 031C     		mov	r3, r0
 6770 03f4 002B     		cmp	r3, #0
 6771 03f6 0BD1     		bne	.L355
 626:.\Generated_Source\PSoC4/comm.c **** 			retflag = comm_handle_Set(COMM_FLAG_UNKNOWN, NULL, 0, NULL, 0);
 6772              		.loc 1 626 0
 6773 03f8 BC1D     		add	r4, r7, #6
 6774 03fa 0023     		mov	r3, #0
 6775 03fc 0093     		str	r3, [sp]
 6776 03fe 0020     		mov	r0, #0
 6777 0400 0021     		mov	r1, #0
 6778 0402 0022     		mov	r2, #0
 6779 0404 0023     		mov	r3, #0
 6780 0406 FFF7FEFF 		bl	comm_handle_Set
 6781 040a 031C     		mov	r3, r0
 6782 040c 2370     		strb	r3, [r4]
 6783 040e 72E0     		b	.L356
 6784              	.L355:
 627:.\Generated_Source\PSoC4/comm.c **** 		} else if(strncmp(comm.schedOrder, "Get", comm.schedOrderLen) == 0) {
 6785              		.loc 1 627 0
 6786 0410 5D4A     		ldr	r2, .L365+8
 6787 0412 9C23     		mov	r3, #156
 6788 0414 5B00     		lsl	r3, r3, #1
 6789 0416 D158     		ldr	r1, [r2, r3]
 6790 0418 5B4A     		ldr	r2, .L365+8
 6791 041a 9E23     		mov	r3, #158
 6792 041c 5B00     		lsl	r3, r3, #1
 6793 041e D358     		ldr	r3, [r2, r3]
 6794 0420 5D4A     		ldr	r2, .L365+24
 6795 0422 081C     		mov	r0, r1
 6796 0424 111C     		mov	r1, r2
 6797 0426 1A1C     		mov	r2, r3
 6798 0428 FFF7FEFF 		bl	strncmp
 6799 042c 031C     		mov	r3, r0
 6800 042e 002B     		cmp	r3, #0
 6801 0430 0BD1     		bne	.L357
 628:.\Generated_Source\PSoC4/comm.c **** 			retflag = comm_handle_Get(COMM_FLAG_UNKNOWN, NULL, 0, NULL, 0);
 6802              		.loc 1 628 0
 6803 0432 BC1D     		add	r4, r7, #6
 6804 0434 0023     		mov	r3, #0
 6805 0436 0093     		str	r3, [sp]
 6806 0438 0020     		mov	r0, #0
 6807 043a 0021     		mov	r1, #0
 6808 043c 0022     		mov	r2, #0
 6809 043e 0023     		mov	r3, #0
ARM GAS  C:\Users\SDEVAS~1\AppData\Local\Temp\cc8KFjZb.s 			page 138


 6810 0440 FFF7FEFF 		bl	comm_handle_Get
 6811 0444 031C     		mov	r3, r0
 6812 0446 2370     		strb	r3, [r4]
 6813 0448 55E0     		b	.L356
 6814              	.L357:
 629:.\Generated_Source\PSoC4/comm.c **** 		} else if(strncmp(comm.schedOrder, "Info", comm.schedOrderLen) == 0) {
 6815              		.loc 1 629 0
 6816 044a 4F4A     		ldr	r2, .L365+8
 6817 044c 9C23     		mov	r3, #156
 6818 044e 5B00     		lsl	r3, r3, #1
 6819 0450 D158     		ldr	r1, [r2, r3]
 6820 0452 4D4A     		ldr	r2, .L365+8
 6821 0454 9E23     		mov	r3, #158
 6822 0456 5B00     		lsl	r3, r3, #1
 6823 0458 D358     		ldr	r3, [r2, r3]
 6824 045a 504A     		ldr	r2, .L365+28
 6825 045c 081C     		mov	r0, r1
 6826 045e 111C     		mov	r1, r2
 6827 0460 1A1C     		mov	r2, r3
 6828 0462 FFF7FEFF 		bl	strncmp
 6829 0466 031C     		mov	r3, r0
 6830 0468 002B     		cmp	r3, #0
 6831 046a 0BD1     		bne	.L358
 630:.\Generated_Source\PSoC4/comm.c **** 			retflag = comm_handle_Info(COMM_FLAG_UNKNOWN, NULL, 0, NULL, 0);
 6832              		.loc 1 630 0
 6833 046c BC1D     		add	r4, r7, #6
 6834 046e 0023     		mov	r3, #0
 6835 0470 0093     		str	r3, [sp]
 6836 0472 0020     		mov	r0, #0
 6837 0474 0021     		mov	r1, #0
 6838 0476 0022     		mov	r2, #0
 6839 0478 0023     		mov	r3, #0
 6840 047a FFF7FEFF 		bl	comm_handle_Info
 6841 047e 031C     		mov	r3, r0
 6842 0480 2370     		strb	r3, [r4]
 6843 0482 38E0     		b	.L356
 6844              	.L358:
 631:.\Generated_Source\PSoC4/comm.c **** 		} else if(strncmp(comm.schedOrder, "Status", comm.schedOrderLen) == 0) {
 6845              		.loc 1 631 0
 6846 0484 404A     		ldr	r2, .L365+8
 6847 0486 9C23     		mov	r3, #156
 6848 0488 5B00     		lsl	r3, r3, #1
 6849 048a D158     		ldr	r1, [r2, r3]
 6850 048c 3E4A     		ldr	r2, .L365+8
 6851 048e 9E23     		mov	r3, #158
 6852 0490 5B00     		lsl	r3, r3, #1
 6853 0492 D358     		ldr	r3, [r2, r3]
 6854 0494 424A     		ldr	r2, .L365+32
 6855 0496 081C     		mov	r0, r1
 6856 0498 111C     		mov	r1, r2
 6857 049a 1A1C     		mov	r2, r3
 6858 049c FFF7FEFF 		bl	strncmp
 6859 04a0 031C     		mov	r3, r0
 6860 04a2 002B     		cmp	r3, #0
 6861 04a4 0BD1     		bne	.L359
 632:.\Generated_Source\PSoC4/comm.c **** 			retflag = comm_handle_Info(COMM_FLAG_UNKNOWN, NULL, 0, NULL, 0);
 6862              		.loc 1 632 0
ARM GAS  C:\Users\SDEVAS~1\AppData\Local\Temp\cc8KFjZb.s 			page 139


 6863 04a6 BC1D     		add	r4, r7, #6
 6864 04a8 0023     		mov	r3, #0
 6865 04aa 0093     		str	r3, [sp]
 6866 04ac 0020     		mov	r0, #0
 6867 04ae 0021     		mov	r1, #0
 6868 04b0 0022     		mov	r2, #0
 6869 04b2 0023     		mov	r3, #0
 6870 04b4 FFF7FEFF 		bl	comm_handle_Info
 6871 04b8 031C     		mov	r3, r0
 6872 04ba 2370     		strb	r3, [r4]
 6873 04bc 1BE0     		b	.L356
 6874              	.L359:
 633:.\Generated_Source\PSoC4/comm.c **** 		} else if(strncmp(comm.schedOrder, "Mode", comm.schedOrderLen) == 0) {
 6875              		.loc 1 633 0
 6876 04be 324A     		ldr	r2, .L365+8
 6877 04c0 9C23     		mov	r3, #156
 6878 04c2 5B00     		lsl	r3, r3, #1
 6879 04c4 D158     		ldr	r1, [r2, r3]
 6880 04c6 304A     		ldr	r2, .L365+8
 6881 04c8 9E23     		mov	r3, #158
 6882 04ca 5B00     		lsl	r3, r3, #1
 6883 04cc D358     		ldr	r3, [r2, r3]
 6884 04ce 354A     		ldr	r2, .L365+36
 6885 04d0 081C     		mov	r0, r1
 6886 04d2 111C     		mov	r1, r2
 6887 04d4 1A1C     		mov	r2, r3
 6888 04d6 FFF7FEFF 		bl	strncmp
 6889 04da 031C     		mov	r3, r0
 6890 04dc 002B     		cmp	r3, #0
 6891 04de 0AD1     		bne	.L356
 634:.\Generated_Source\PSoC4/comm.c **** 			retflag = comm_handle_Mode(COMM_FLAG_UNKNOWN, NULL, 0, NULL, 0);
 6892              		.loc 1 634 0
 6893 04e0 BC1D     		add	r4, r7, #6
 6894 04e2 0023     		mov	r3, #0
 6895 04e4 0093     		str	r3, [sp]
 6896 04e6 0020     		mov	r0, #0
 6897 04e8 0021     		mov	r1, #0
 6898 04ea 0022     		mov	r2, #0
 6899 04ec 0023     		mov	r3, #0
 6900 04ee FFF7FEFF 		bl	comm_handle_Mode
 6901 04f2 031C     		mov	r3, r0
 6902 04f4 2370     		strb	r3, [r4]
 6903              	.L356:
 642:.\Generated_Source\PSoC4/comm.c **** 		if(retflag != COMM_FLAG_UNKNOWN) {
 6904              		.loc 1 642 0
 6905 04f6 BB1D     		add	r3, r7, #6
 6906 04f8 1B78     		ldrb	r3, [r3]
 6907 04fa 002B     		cmp	r3, #0
 6908 04fc 2DD0     		beq	.L360
 644:.\Generated_Source\PSoC4/comm.c **** 			resp_AddFlags(retflag);
 6909              		.loc 1 644 0
 6910 04fe BB1D     		add	r3, r7, #6
 6911 0500 1B78     		ldrb	r3, [r3]
 6912 0502 181C     		mov	r0, r3
 6913 0504 FFF7FEFF 		bl	resp_AddFlags
 645:.\Generated_Source\PSoC4/comm.c **** 			ADD_CHAR_TO_RESP('}');
 6914              		.loc 1 645 0
ARM GAS  C:\Users\SDEVAS~1\AppData\Local\Temp\cc8KFjZb.s 			page 140


 6915 0508 274B     		ldr	r3, .L365+40
 6916 050a 1B68     		ldr	r3, [r3]
 6917 050c 591C     		add	r1, r3, #1
 6918 050e 264A     		ldr	r2, .L365+40
 6919 0510 1160     		str	r1, [r2]
 6920 0512 7D22     		mov	r2, #125
 6921 0514 1A70     		strb	r2, [r3]
 6922 0516 254B     		ldr	r3, .L365+44
 6923 0518 1B68     		ldr	r3, [r3]
 6924 051a 5A1E     		sub	r2, r3, #1
 6925 051c 234B     		ldr	r3, .L365+44
 6926 051e 1A60     		str	r2, [r3]
 647:.\Generated_Source\PSoC4/comm.c **** 			*respEnd = '\0';
 6927              		.loc 1 647 0
 6928 0520 214B     		ldr	r3, .L365+40
 6929 0522 1B68     		ldr	r3, [r3]
 6930 0524 0022     		mov	r2, #0
 6931 0526 1A70     		strb	r2, [r3]
 649:.\Generated_Source\PSoC4/comm.c **** 			if(retflag == COMM_FLAG_PUSH) {
 6932              		.loc 1 649 0
 6933 0528 BB1D     		add	r3, r7, #6
 6934 052a 1B78     		ldrb	r3, [r3]
 6935 052c 082B     		cmp	r3, #8
 6936 052e 06D1     		bne	.L361
 651:.\Generated_Source\PSoC4/comm.c **** 				comm.flags.LAST_MSG = 1;
 6937              		.loc 1 651 0
 6938 0530 154A     		ldr	r2, .L365+8
 6939 0532 9823     		mov	r3, #152
 6940 0534 5B00     		lsl	r3, r3, #1
 6941 0536 D15C     		ldrb	r1, [r2, r3]
 6942 0538 0820     		mov	r0, #8
 6943 053a 0143     		orr	r1, r0
 6944 053c D154     		strb	r1, [r2, r3]
 6945              	.L361:
 653:.\Generated_Source\PSoC4/comm.c **** 			comm_RS485_SendFrame(respBuff, RESP_BUFF_LEN - respFreeSpace, rs485_frame_sent_callback);
 6946              		.loc 1 653 0
 6947 053e 1B4B     		ldr	r3, .L365+44
 6948 0540 1B68     		ldr	r3, [r3]
 6949 0542 9622     		mov	r2, #150
 6950 0544 5200     		lsl	r2, r2, #1
 6951 0546 D31A     		sub	r3, r2, r3
 6952 0548 1A1C     		mov	r2, r3
 6953 054a 1949     		ldr	r1, .L365+48
 6954 054c 194B     		ldr	r3, .L365+52
 6955 054e 081C     		mov	r0, r1
 6956 0550 111C     		mov	r1, r2
 6957 0552 1A1C     		mov	r2, r3
 6958 0554 FFF7FEFF 		bl	comm_RS485_SendFrame
 659:.\Generated_Source\PSoC4/comm.c **** 		break;
 6959              		.loc 1 659 0
 6960 0558 09E0     		b	.L354
 6961              	.L360:
 656:.\Generated_Source\PSoC4/comm.c **** 			comm_RS485_ReleaseSlave(rs485_slave_released_callback);
 6962              		.loc 1 656 0
 6963 055a 174B     		ldr	r3, .L365+56
 6964 055c 181C     		mov	r0, r3
 6965 055e FFF7FEFF 		bl	comm_RS485_ReleaseSlave
ARM GAS  C:\Users\SDEVAS~1\AppData\Local\Temp\cc8KFjZb.s 			page 141


 659:.\Generated_Source\PSoC4/comm.c **** 		break;
 6966              		.loc 1 659 0
 6967 0562 04E0     		b	.L354
 6968              	.L352:
 661:.\Generated_Source\PSoC4/comm.c **** 		comm_RS485_ReleaseBus(rs485_bus_released_callback);
 6969              		.loc 1 661 0
 6970 0564 154B     		ldr	r3, .L365+60
 6971 0566 181C     		mov	r0, r3
 6972 0568 FFF7FEFF 		bl	comm_RS485_ReleaseBus
 662:.\Generated_Source\PSoC4/comm.c **** 		break;
 6973              		.loc 1 662 0
 6974 056c C046     		mov	r8, r8
 6975              	.L354:
 6976              	.LBE7:
 666:.\Generated_Source\PSoC4/comm.c **** 	}
 667:.\Generated_Source\PSoC4/comm.c **** 	comm.state = COMM_STATE_IDLE;
 6977              		.loc 1 667 0
 6978 056e 064A     		ldr	r2, .L365+8
 6979 0570 9A23     		mov	r3, #154
 6980 0572 5B00     		lsl	r3, r3, #1
 6981 0574 0021     		mov	r1, #0
 6982 0576 D154     		strb	r1, [r2, r3]
 668:.\Generated_Source\PSoC4/comm.c **** }
 6983              		.loc 1 668 0
 6984 0578 BD46     		mov	sp, r7
 6985 057a 02B0     		add	sp, sp, #8
 6986              		@ sp needed
 6987 057c B0BD     		pop	{r4, r5, r7, pc}
 6988              	.L366:
 6989 057e C046     		.align	2
 6990              	.L365:
 6991 0580 34000000 		.word	error_counter.6419
 6992 0584 38000000 		.word	timeout_counter.6420
 6993 0588 00000000 		.word	comm
 6994 058c 00000000 		.word	msgDestinationHolder
 6995 0590 200B0000 		.word	.LC260
 6996 0594 000B0000 		.word	.LC245
 6997 0598 040B0000 		.word	.LC247
 6998 059c 080B0000 		.word	.LC249
 6999 05a0 100B0000 		.word	.LC251
 7000 05a4 180B0000 		.word	.LC253
 7001 05a8 00000000 		.word	respEnd
 7002 05ac 00000000 		.word	respFreeSpace
 7003 05b0 00000000 		.word	respBuff
 7004 05b4 00000000 		.word	rs485_frame_sent_callback
 7005 05b8 00000000 		.word	rs485_slave_released_callback
 7006 05bc 00000000 		.word	rs485_bus_released_callback
 7007              		.cfi_endproc
 7008              	.LFE59:
 7009              		.size	comm_Handler, .-comm_Handler
 7010              		.bss
 7011              		.align	2
 7012              	error_counter.6419:
 7013 0034 00000000 		.space	4
 7014              		.align	2
 7015              	timeout_counter.6420:
 7016 0038 00000000 		.space	4
ARM GAS  C:\Users\SDEVAS~1\AppData\Local\Temp\cc8KFjZb.s 			page 142


 7017              		.weak	conv_str2ia
 7018              		.weak	conv_ia2str
 7019              		.text
 7020              	.Letext0:
 7021              		.file 2 "c:\\program files (x86)\\cypress\\psoc creator\\3.2\\psoc creator\\import\\gnu\\arm\\4.8.
 7022              		.file 3 "c:\\program files (x86)\\cypress\\psoc creator\\3.2\\psoc creator\\import\\gnu\\arm\\4.8.
 7023              		.file 4 "Generated_Source\\PSoC4/cytypes.h"
 7024              		.file 5 "Generated_Source\\PSoC4/comm_RS485.h"
 7025              		.file 6 "Generated_Source\\PSoC4/comm_jsmn.h"
 7026              		.file 7 "Generated_Source\\PSoC4/comm.h"
 7027              		.section	.debug_info,"",%progbits
 7028              	.Ldebug_info0:
 7029 0000 400D0000 		.4byte	0xd40
 7030 0004 0400     		.2byte	0x4
 7031 0006 00000000 		.4byte	.Ldebug_abbrev0
 7032 000a 04       		.byte	0x4
 7033 000b 01       		.uleb128 0x1
 7034 000c AA060000 		.4byte	.LASF174
 7035 0010 01       		.byte	0x1
 7036 0011 690A0000 		.4byte	.LASF175
 7037 0015 35030000 		.4byte	.LASF176
 7038 0019 00000000 		.4byte	.Ldebug_ranges0+0
 7039 001d 00000000 		.4byte	0
 7040 0021 00000000 		.4byte	.Ldebug_line0
 7041 0025 02       		.uleb128 0x2
 7042 0026 01       		.byte	0x1
 7043 0027 06       		.byte	0x6
 7044 0028 0C0B0000 		.4byte	.LASF0
 7045 002c 02       		.uleb128 0x2
 7046 002d 01       		.byte	0x1
 7047 002e 08       		.byte	0x8
 7048 002f 050A0000 		.4byte	.LASF1
 7049 0033 02       		.uleb128 0x2
 7050 0034 02       		.byte	0x2
 7051 0035 05       		.byte	0x5
 7052 0036 E5080000 		.4byte	.LASF2
 7053 003a 02       		.uleb128 0x2
 7054 003b 02       		.byte	0x2
 7055 003c 07       		.byte	0x7
 7056 003d 530B0000 		.4byte	.LASF3
 7057 0041 02       		.uleb128 0x2
 7058 0042 04       		.byte	0x4
 7059 0043 05       		.byte	0x5
 7060 0044 EF080000 		.4byte	.LASF4
 7061 0048 03       		.uleb128 0x3
 7062 0049 130A0000 		.4byte	.LASF9
 7063 004d 02       		.byte	0x2
 7064 004e 38       		.byte	0x38
 7065 004f 53000000 		.4byte	0x53
 7066 0053 02       		.uleb128 0x2
 7067 0054 04       		.byte	0x4
 7068 0055 07       		.byte	0x7
 7069 0056 70090000 		.4byte	.LASF5
 7070 005a 02       		.uleb128 0x2
 7071 005b 08       		.byte	0x8
 7072 005c 05       		.byte	0x5
 7073 005d 67050000 		.4byte	.LASF6
ARM GAS  C:\Users\SDEVAS~1\AppData\Local\Temp\cc8KFjZb.s 			page 143


 7074 0061 02       		.uleb128 0x2
 7075 0062 08       		.byte	0x8
 7076 0063 07       		.byte	0x7
 7077 0064 D2020000 		.4byte	.LASF7
 7078 0068 04       		.uleb128 0x4
 7079 0069 04       		.byte	0x4
 7080 006a 05       		.byte	0x5
 7081 006b 696E7400 		.ascii	"int\000"
 7082 006f 02       		.uleb128 0x2
 7083 0070 04       		.byte	0x4
 7084 0071 07       		.byte	0x7
 7085 0072 BE000000 		.4byte	.LASF8
 7086 0076 03       		.uleb128 0x3
 7087 0077 4C020000 		.4byte	.LASF10
 7088 007b 03       		.byte	0x3
 7089 007c 42       		.byte	0x42
 7090 007d 48000000 		.4byte	0x48
 7091 0081 03       		.uleb128 0x3
 7092 0082 A70B0000 		.4byte	.LASF11
 7093 0086 04       		.byte	0x4
 7094 0087 B3       		.byte	0xb3
 7095 0088 2C000000 		.4byte	0x2c
 7096 008c 03       		.uleb128 0x3
 7097 008d F8050000 		.4byte	.LASF12
 7098 0091 04       		.byte	0x4
 7099 0092 B5       		.byte	0xb5
 7100 0093 53000000 		.4byte	0x53
 7101 0097 02       		.uleb128 0x2
 7102 0098 04       		.byte	0x4
 7103 0099 04       		.byte	0x4
 7104 009a 95020000 		.4byte	.LASF13
 7105 009e 02       		.uleb128 0x2
 7106 009f 08       		.byte	0x8
 7107 00a0 04       		.byte	0x4
 7108 00a1 AD0B0000 		.4byte	.LASF14
 7109 00a5 02       		.uleb128 0x2
 7110 00a6 01       		.byte	0x1
 7111 00a7 08       		.byte	0x8
 7112 00a8 44040000 		.4byte	.LASF15
 7113 00ac 02       		.uleb128 0x2
 7114 00ad 04       		.byte	0x4
 7115 00ae 07       		.byte	0x7
 7116 00af 4F090000 		.4byte	.LASF16
 7117 00b3 05       		.uleb128 0x5
 7118 00b4 04       		.byte	0x4
 7119 00b5 A5000000 		.4byte	0xa5
 7120 00b9 05       		.uleb128 0x5
 7121 00ba 04       		.byte	0x4
 7122 00bb BF000000 		.4byte	0xbf
 7123 00bf 06       		.uleb128 0x6
 7124 00c0 A5000000 		.4byte	0xa5
 7125 00c4 03       		.uleb128 0x3
 7126 00c5 AF010000 		.4byte	.LASF17
 7127 00c9 05       		.byte	0x5
 7128 00ca 36       		.byte	0x36
 7129 00cb 8C000000 		.4byte	0x8c
 7130 00cf 07       		.uleb128 0x7
ARM GAS  C:\Users\SDEVAS~1\AppData\Local\Temp\cc8KFjZb.s 			page 144


 7131 00d0 01       		.byte	0x1
 7132 00d1 06       		.byte	0x6
 7133 00d2 18       		.byte	0x18
 7134 00d3 F0000000 		.4byte	0xf0
 7135 00d7 08       		.uleb128 0x8
 7136 00d8 540A0000 		.4byte	.LASF18
 7137 00dc 00       		.sleb128 0
 7138 00dd 08       		.uleb128 0x8
 7139 00de 75050000 		.4byte	.LASF19
 7140 00e2 01       		.sleb128 1
 7141 00e3 08       		.uleb128 0x8
 7142 00e4 88010000 		.4byte	.LASF20
 7143 00e8 02       		.sleb128 2
 7144 00e9 08       		.uleb128 0x8
 7145 00ea 35060000 		.4byte	.LASF21
 7146 00ee 03       		.sleb128 3
 7147 00ef 00       		.byte	0
 7148 00f0 03       		.uleb128 0x3
 7149 00f1 29040000 		.4byte	.LASF22
 7150 00f5 06       		.byte	0x6
 7151 00f6 1D       		.byte	0x1d
 7152 00f7 CF000000 		.4byte	0xcf
 7153 00fb 09       		.uleb128 0x9
 7154 00fc 10       		.byte	0x10
 7155 00fd 06       		.byte	0x6
 7156 00fe 2E       		.byte	0x2e
 7157 00ff 34010000 		.4byte	0x134
 7158 0103 0A       		.uleb128 0xa
 7159 0104 000A0000 		.4byte	.LASF23
 7160 0108 06       		.byte	0x6
 7161 0109 2F       		.byte	0x2f
 7162 010a F0000000 		.4byte	0xf0
 7163 010e 00       		.byte	0
 7164 010f 0A       		.uleb128 0xa
 7165 0110 2B090000 		.4byte	.LASF24
 7166 0114 06       		.byte	0x6
 7167 0115 30       		.byte	0x30
 7168 0116 68000000 		.4byte	0x68
 7169 011a 04       		.byte	0x4
 7170 011b 0B       		.uleb128 0xb
 7171 011c 656E6400 		.ascii	"end\000"
 7172 0120 06       		.byte	0x6
 7173 0121 31       		.byte	0x31
 7174 0122 68000000 		.4byte	0x68
 7175 0126 08       		.byte	0x8
 7176 0127 0A       		.uleb128 0xa
 7177 0128 F3050000 		.4byte	.LASF25
 7178 012c 06       		.byte	0x6
 7179 012d 32       		.byte	0x32
 7180 012e 68000000 		.4byte	0x68
 7181 0132 0C       		.byte	0xc
 7182 0133 00       		.byte	0
 7183 0134 03       		.uleb128 0x3
 7184 0135 7E010000 		.4byte	.LASF26
 7185 0139 06       		.byte	0x6
 7186 013a 36       		.byte	0x36
 7187 013b FB000000 		.4byte	0xfb
ARM GAS  C:\Users\SDEVAS~1\AppData\Local\Temp\cc8KFjZb.s 			page 145


 7188 013f 09       		.uleb128 0x9
 7189 0140 0C       		.byte	0xc
 7190 0141 06       		.byte	0x6
 7191 0142 3C       		.byte	0x3c
 7192 0143 6C010000 		.4byte	0x16c
 7193 0147 0B       		.uleb128 0xb
 7194 0148 706F7300 		.ascii	"pos\000"
 7195 014c 06       		.byte	0x6
 7196 014d 3D       		.byte	0x3d
 7197 014e 6F000000 		.4byte	0x6f
 7198 0152 00       		.byte	0
 7199 0153 0A       		.uleb128 0xa
 7200 0154 5B060000 		.4byte	.LASF27
 7201 0158 06       		.byte	0x6
 7202 0159 3E       		.byte	0x3e
 7203 015a 6F000000 		.4byte	0x6f
 7204 015e 04       		.byte	0x4
 7205 015f 0A       		.uleb128 0xa
 7206 0160 9C090000 		.4byte	.LASF28
 7207 0164 06       		.byte	0x6
 7208 0165 3F       		.byte	0x3f
 7209 0166 68000000 		.4byte	0x68
 7210 016a 08       		.byte	0x8
 7211 016b 00       		.byte	0
 7212 016c 03       		.uleb128 0x3
 7213 016d B2000000 		.4byte	.LASF29
 7214 0171 06       		.byte	0x6
 7215 0172 40       		.byte	0x40
 7216 0173 3F010000 		.4byte	0x13f
 7217 0177 09       		.uleb128 0x9
 7218 0178 04       		.byte	0x4
 7219 0179 07       		.byte	0x7
 7220 017a 31       		.byte	0x31
 7221 017b BC010000 		.4byte	0x1bc
 7222 017f 0C       		.uleb128 0xc
 7223 0180 21090000 		.4byte	.LASF30
 7224 0184 07       		.byte	0x7
 7225 0185 32       		.byte	0x32
 7226 0186 8C000000 		.4byte	0x8c
 7227 018a 04       		.byte	0x4
 7228 018b 01       		.byte	0x1
 7229 018c 1F       		.byte	0x1f
 7230 018d 00       		.byte	0
 7231 018e 0C       		.uleb128 0xc
 7232 018f 27000000 		.4byte	.LASF31
 7233 0193 07       		.byte	0x7
 7234 0194 33       		.byte	0x33
 7235 0195 8C000000 		.4byte	0x8c
 7236 0199 04       		.byte	0x4
 7237 019a 01       		.byte	0x1
 7238 019b 1E       		.byte	0x1e
 7239 019c 00       		.byte	0
 7240 019d 0C       		.uleb128 0xc
 7241 019e F3030000 		.4byte	.LASF32
 7242 01a2 07       		.byte	0x7
 7243 01a3 34       		.byte	0x34
 7244 01a4 8C000000 		.4byte	0x8c
ARM GAS  C:\Users\SDEVAS~1\AppData\Local\Temp\cc8KFjZb.s 			page 146


 7245 01a8 04       		.byte	0x4
 7246 01a9 01       		.byte	0x1
 7247 01aa 1D       		.byte	0x1d
 7248 01ab 00       		.byte	0
 7249 01ac 0C       		.uleb128 0xc
 7250 01ad F4020000 		.4byte	.LASF33
 7251 01b1 07       		.byte	0x7
 7252 01b2 35       		.byte	0x35
 7253 01b3 8C000000 		.4byte	0x8c
 7254 01b7 04       		.byte	0x4
 7255 01b8 01       		.byte	0x1
 7256 01b9 1C       		.byte	0x1c
 7257 01ba 00       		.byte	0
 7258 01bb 00       		.byte	0
 7259 01bc 07       		.uleb128 0x7
 7260 01bd 01       		.byte	0x1
 7261 01be 07       		.byte	0x7
 7262 01bf 37       		.byte	0x37
 7263 01c0 E3010000 		.4byte	0x1e3
 7264 01c4 08       		.uleb128 0x8
 7265 01c5 33020000 		.4byte	.LASF34
 7266 01c9 00       		.sleb128 0
 7267 01ca 08       		.uleb128 0x8
 7268 01cb 65040000 		.4byte	.LASF35
 7269 01cf 01       		.sleb128 1
 7270 01d0 08       		.uleb128 0x8
 7271 01d1 E6090000 		.4byte	.LASF36
 7272 01d5 02       		.sleb128 2
 7273 01d6 08       		.uleb128 0x8
 7274 01d7 E20A0000 		.4byte	.LASF37
 7275 01db 03       		.sleb128 3
 7276 01dc 08       		.uleb128 0x8
 7277 01dd FD020000 		.4byte	.LASF38
 7278 01e1 04       		.sleb128 4
 7279 01e2 00       		.byte	0
 7280 01e3 0D       		.uleb128 0xd
 7281 01e4 4401     		.2byte	0x144
 7282 01e6 07       		.byte	0x7
 7283 01e7 2E       		.byte	0x2e
 7284 01e8 47020000 		.4byte	0x247
 7285 01ec 0A       		.uleb128 0xa
 7286 01ed 43020000 		.4byte	.LASF39
 7287 01f1 07       		.byte	0x7
 7288 01f2 2F       		.byte	0x2f
 7289 01f3 47020000 		.4byte	0x247
 7290 01f7 00       		.byte	0
 7291 01f8 0E       		.uleb128 0xe
 7292 01f9 6C656E00 		.ascii	"len\000"
 7293 01fd 07       		.byte	0x7
 7294 01fe 30       		.byte	0x30
 7295 01ff 8C000000 		.4byte	0x8c
 7296 0203 2C01     		.2byte	0x12c
 7297 0205 0F       		.uleb128 0xf
 7298 0206 5E000000 		.4byte	.LASF40
 7299 020a 07       		.byte	0x7
 7300 020b 36       		.byte	0x36
 7301 020c 77010000 		.4byte	0x177
ARM GAS  C:\Users\SDEVAS~1\AppData\Local\Temp\cc8KFjZb.s 			page 147


 7302 0210 3001     		.2byte	0x130
 7303 0212 0F       		.uleb128 0xf
 7304 0213 630A0000 		.4byte	.LASF41
 7305 0217 07       		.byte	0x7
 7306 0218 3D       		.byte	0x3d
 7307 0219 BC010000 		.4byte	0x1bc
 7308 021d 3401     		.2byte	0x134
 7309 021f 0F       		.uleb128 0xf
 7310 0220 9B020000 		.4byte	.LASF42
 7311 0224 07       		.byte	0x7
 7312 0225 3E       		.byte	0x3e
 7313 0226 B9000000 		.4byte	0xb9
 7314 022a 3801     		.2byte	0x138
 7315 022c 0F       		.uleb128 0xf
 7316 022d A5090000 		.4byte	.LASF43
 7317 0231 07       		.byte	0x7
 7318 0232 3F       		.byte	0x3f
 7319 0233 68000000 		.4byte	0x68
 7320 0237 3C01     		.2byte	0x13c
 7321 0239 0F       		.uleb128 0xf
 7322 023a 06020000 		.4byte	.LASF44
 7323 023e 07       		.byte	0x7
 7324 023f 40       		.byte	0x40
 7325 0240 C4000000 		.4byte	0xc4
 7326 0244 4001     		.2byte	0x140
 7327 0246 00       		.byte	0
 7328 0247 10       		.uleb128 0x10
 7329 0248 A5000000 		.4byte	0xa5
 7330 024c 58020000 		.4byte	0x258
 7331 0250 11       		.uleb128 0x11
 7332 0251 AC000000 		.4byte	0xac
 7333 0255 2B01     		.2byte	0x12b
 7334 0257 00       		.byte	0
 7335 0258 03       		.uleb128 0x3
 7336 0259 73020000 		.4byte	.LASF45
 7337 025d 07       		.byte	0x7
 7338 025e 41       		.byte	0x41
 7339 025f E3010000 		.4byte	0x1e3
 7340 0263 07       		.uleb128 0x7
 7341 0264 01       		.byte	0x1
 7342 0265 07       		.byte	0x7
 7343 0266 44       		.byte	0x44
 7344 0267 90020000 		.4byte	0x290
 7345 026b 08       		.uleb128 0x8
 7346 026c 24050000 		.4byte	.LASF46
 7347 0270 00       		.sleb128 0
 7348 0271 08       		.uleb128 0x8
 7349 0272 C10A0000 		.4byte	.LASF47
 7350 0276 01       		.sleb128 1
 7351 0277 08       		.uleb128 0x8
 7352 0278 08000000 		.4byte	.LASF48
 7353 027c 02       		.sleb128 2
 7354 027d 08       		.uleb128 0x8
 7355 027e 5C020000 		.4byte	.LASF49
 7356 0282 03       		.sleb128 3
 7357 0283 08       		.uleb128 0x8
 7358 0284 F7040000 		.4byte	.LASF50
ARM GAS  C:\Users\SDEVAS~1\AppData\Local\Temp\cc8KFjZb.s 			page 148


 7359 0288 04       		.sleb128 4
 7360 0289 08       		.uleb128 0x8
 7361 028a 9B060000 		.4byte	.LASF51
 7362 028e 08       		.sleb128 8
 7363 028f 00       		.byte	0
 7364 0290 03       		.uleb128 0x3
 7365 0291 3D010000 		.4byte	.LASF52
 7366 0295 07       		.byte	0x7
 7367 0296 4B       		.byte	0x4b
 7368 0297 63020000 		.4byte	0x263
 7369 029b 07       		.uleb128 0x7
 7370 029c 01       		.byte	0x1
 7371 029d 07       		.byte	0x7
 7372 029e 6B       		.byte	0x6b
 7373 029f C8020000 		.4byte	0x2c8
 7374 02a3 08       		.uleb128 0x8
 7375 02a4 360A0000 		.4byte	.LASF53
 7376 02a8 00       		.sleb128 0
 7377 02a9 08       		.uleb128 0x8
 7378 02aa 4A010000 		.4byte	.LASF54
 7379 02ae 01       		.sleb128 1
 7380 02af 08       		.uleb128 0x8
 7381 02b0 B20A0000 		.4byte	.LASF55
 7382 02b4 02       		.sleb128 2
 7383 02b5 08       		.uleb128 0x8
 7384 02b6 C6040000 		.4byte	.LASF56
 7385 02ba 03       		.sleb128 3
 7386 02bb 08       		.uleb128 0x8
 7387 02bc C6030000 		.4byte	.LASF57
 7388 02c0 04       		.sleb128 4
 7389 02c1 08       		.uleb128 0x8
 7390 02c2 9D010000 		.4byte	.LASF58
 7391 02c6 05       		.sleb128 5
 7392 02c7 00       		.byte	0
 7393 02c8 03       		.uleb128 0x3
 7394 02c9 AA050000 		.4byte	.LASF59
 7395 02cd 07       		.byte	0x7
 7396 02ce 71       		.byte	0x71
 7397 02cf 9B020000 		.4byte	0x29b
 7398 02d3 07       		.uleb128 0x7
 7399 02d4 01       		.byte	0x1
 7400 02d5 01       		.byte	0x1
 7401 02d6 4B       		.byte	0x4b
 7402 02d7 C0030000 		.4byte	0x3c0
 7403 02db 08       		.uleb128 0x8
 7404 02dc 41060000 		.4byte	.LASF60
 7405 02e0 00       		.sleb128 0
 7406 02e1 08       		.uleb128 0x8
 7407 02e2 7A020000 		.4byte	.LASF61
 7408 02e6 01       		.sleb128 1
 7409 02e7 08       		.uleb128 0x8
 7410 02e8 F9030000 		.4byte	.LASF62
 7411 02ec 02       		.sleb128 2
 7412 02ed 08       		.uleb128 0x8
 7413 02ee 40070000 		.4byte	.LASF63
 7414 02f2 03       		.sleb128 3
 7415 02f3 08       		.uleb128 0x8
ARM GAS  C:\Users\SDEVAS~1\AppData\Local\Temp\cc8KFjZb.s 			page 149


 7416 02f4 8B0B0000 		.4byte	.LASF64
 7417 02f8 04       		.sleb128 4
 7418 02f9 08       		.uleb128 0x8
 7419 02fa 26070000 		.4byte	.LASF65
 7420 02fe 05       		.sleb128 5
 7421 02ff 08       		.uleb128 0x8
 7422 0300 CB000000 		.4byte	.LASF66
 7423 0304 06       		.sleb128 6
 7424 0305 08       		.uleb128 0x8
 7425 0306 98000000 		.4byte	.LASF67
 7426 030a 07       		.sleb128 7
 7427 030b 08       		.uleb128 0x8
 7428 030c D9040000 		.4byte	.LASF68
 7429 0310 08       		.sleb128 8
 7430 0311 08       		.uleb128 0x8
 7431 0312 B3090000 		.4byte	.LASF69
 7432 0316 09       		.sleb128 9
 7433 0317 08       		.uleb128 0x8
 7434 0318 5C070000 		.4byte	.LASF70
 7435 031c 0A       		.sleb128 10
 7436 031d 08       		.uleb128 0x8
 7437 031e BA020000 		.4byte	.LASF71
 7438 0322 0B       		.sleb128 11
 7439 0323 08       		.uleb128 0x8
 7440 0324 A9040000 		.4byte	.LASF72
 7441 0328 0C       		.sleb128 12
 7442 0329 08       		.uleb128 0x8
 7443 032a 8D070000 		.4byte	.LASF73
 7444 032e 0D       		.sleb128 13
 7445 032f 08       		.uleb128 0x8
 7446 0330 23010000 		.4byte	.LASF74
 7447 0334 0E       		.sleb128 14
 7448 0335 08       		.uleb128 0x8
 7449 0336 52050000 		.4byte	.LASF75
 7450 033a 0F       		.sleb128 15
 7451 033b 08       		.uleb128 0x8
 7452 033c 760B0000 		.4byte	.LASF76
 7453 0340 10       		.sleb128 16
 7454 0341 08       		.uleb128 0x8
 7455 0342 A5070000 		.4byte	.LASF77
 7456 0346 11       		.sleb128 17
 7457 0347 08       		.uleb128 0x8
 7458 0348 C5070000 		.4byte	.LASF78
 7459 034c 12       		.sleb128 18
 7460 034d 08       		.uleb128 0x8
 7461 034e E5070000 		.4byte	.LASF79
 7462 0352 13       		.sleb128 19
 7463 0353 08       		.uleb128 0x8
 7464 0354 05080000 		.4byte	.LASF80
 7465 0358 14       		.sleb128 20
 7466 0359 08       		.uleb128 0x8
 7467 035a 25080000 		.4byte	.LASF81
 7468 035e 15       		.sleb128 21
 7469 035f 08       		.uleb128 0x8
 7470 0360 45080000 		.4byte	.LASF82
 7471 0364 16       		.sleb128 22
 7472 0365 08       		.uleb128 0x8
ARM GAS  C:\Users\SDEVAS~1\AppData\Local\Temp\cc8KFjZb.s 			page 150


 7473 0366 65080000 		.4byte	.LASF83
 7474 036a 17       		.sleb128 23
 7475 036b 08       		.uleb128 0x8
 7476 036c 85080000 		.4byte	.LASF84
 7477 0370 18       		.sleb128 24
 7478 0371 08       		.uleb128 0x8
 7479 0372 A5080000 		.4byte	.LASF85
 7480 0376 19       		.sleb128 25
 7481 0377 08       		.uleb128 0x8
 7482 0378 C5080000 		.4byte	.LASF86
 7483 037c 1A       		.sleb128 26
 7484 037d 08       		.uleb128 0x8
 7485 037e 58090000 		.4byte	.LASF87
 7486 0382 1B       		.sleb128 27
 7487 0383 08       		.uleb128 0x8
 7488 0384 DC050000 		.4byte	.LASF88
 7489 0388 1C       		.sleb128 28
 7490 0389 08       		.uleb128 0x8
 7491 038a CC0B0000 		.4byte	.LASF89
 7492 038e 1D       		.sleb128 29
 7493 038f 08       		.uleb128 0x8
 7494 0390 EA0B0000 		.4byte	.LASF90
 7495 0394 1E       		.sleb128 30
 7496 0395 08       		.uleb128 0x8
 7497 0396 080C0000 		.4byte	.LASF91
 7498 039a 1F       		.sleb128 31
 7499 039b 08       		.uleb128 0x8
 7500 039c 260C0000 		.4byte	.LASF92
 7501 03a0 20       		.sleb128 32
 7502 03a1 08       		.uleb128 0x8
 7503 03a2 80060000 		.4byte	.LASF93
 7504 03a6 21       		.sleb128 33
 7505 03a7 08       		.uleb128 0x8
 7506 03a8 15060000 		.4byte	.LASF94
 7507 03ac 22       		.sleb128 34
 7508 03ad 08       		.uleb128 0x8
 7509 03ae 81000000 		.4byte	.LASF95
 7510 03b2 23       		.sleb128 35
 7511 03b3 08       		.uleb128 0x8
 7512 03b4 C2010000 		.4byte	.LASF96
 7513 03b8 24       		.sleb128 36
 7514 03b9 08       		.uleb128 0x8
 7515 03ba FF050000 		.4byte	.LASF97
 7516 03be 25       		.sleb128 37
 7517 03bf 00       		.byte	0
 7518 03c0 03       		.uleb128 0x3
 7519 03c1 4A000000 		.4byte	.LASF98
 7520 03c5 01       		.byte	0x1
 7521 03c6 51       		.byte	0x51
 7522 03c7 D3020000 		.4byte	0x2d3
 7523 03cb 07       		.uleb128 0x7
 7524 03cc 01       		.byte	0x1
 7525 03cd 01       		.byte	0x1
 7526 03ce BA       		.byte	0xba
 7527 03cf F2030000 		.4byte	0x3f2
 7528 03d3 08       		.uleb128 0x8
 7529 03d4 71030000 		.4byte	.LASF99
ARM GAS  C:\Users\SDEVAS~1\AppData\Local\Temp\cc8KFjZb.s 			page 151


 7530 03d8 00       		.sleb128 0
 7531 03d9 08       		.uleb128 0x8
 7532 03da 05010000 		.4byte	.LASF100
 7533 03de 01       		.sleb128 1
 7534 03df 08       		.uleb128 0x8
 7535 03e0 64000000 		.4byte	.LASF101
 7536 03e4 02       		.sleb128 2
 7537 03e5 08       		.uleb128 0x8
 7538 03e6 1E0A0000 		.4byte	.LASF102
 7539 03ea 03       		.sleb128 3
 7540 03eb 08       		.uleb128 0x8
 7541 03ec E5010000 		.4byte	.LASF103
 7542 03f0 04       		.sleb128 4
 7543 03f1 00       		.byte	0
 7544 03f2 03       		.uleb128 0x3
 7545 03f3 97040000 		.4byte	.LASF104
 7546 03f7 01       		.byte	0x1
 7547 03f8 C0       		.byte	0xc0
 7548 03f9 CB030000 		.4byte	0x3cb
 7549 03fd 12       		.uleb128 0x12
 7550 03fe 75010000 		.4byte	.LASF105
 7551 0402 01       		.byte	0x1
 7552 0403 23       		.byte	0x23
 7553 0404 90020000 		.4byte	0x290
 7554 0408 00000000 		.4byte	.LFB33
 7555 040c AC000000 		.4byte	.LFE33-.LFB33
 7556 0410 01       		.uleb128 0x1
 7557 0411 9C       		.byte	0x9c
 7558 0412 33040000 		.4byte	0x433
 7559 0416 13       		.uleb128 0x13
 7560 0417 73747200 		.ascii	"str\000"
 7561 041b 01       		.byte	0x1
 7562 041c 23       		.byte	0x23
 7563 041d B9000000 		.4byte	0xb9
 7564 0421 02       		.uleb128 0x2
 7565 0422 91       		.byte	0x91
 7566 0423 74       		.sleb128 -12
 7567 0424 13       		.uleb128 0x13
 7568 0425 6C656E00 		.ascii	"len\000"
 7569 0429 01       		.byte	0x1
 7570 042a 23       		.byte	0x23
 7571 042b 68000000 		.4byte	0x68
 7572 042f 02       		.uleb128 0x2
 7573 0430 91       		.byte	0x91
 7574 0431 70       		.sleb128 -16
 7575 0432 00       		.byte	0
 7576 0433 12       		.uleb128 0x12
 7577 0434 13090000 		.4byte	.LASF106
 7578 0438 01       		.byte	0x1
 7579 0439 2E       		.byte	0x2e
 7580 043a 68000000 		.4byte	0x68
 7581 043e 00000000 		.4byte	.LFB34
 7582 0442 04010000 		.4byte	.LFE34-.LFB34
 7583 0446 01       		.uleb128 0x1
 7584 0447 9C       		.byte	0x9c
 7585 0448 77040000 		.4byte	0x477
 7586 044c 13       		.uleb128 0x13
ARM GAS  C:\Users\SDEVAS~1\AppData\Local\Temp\cc8KFjZb.s 			page 152


 7587 044d 73747200 		.ascii	"str\000"
 7588 0451 01       		.byte	0x1
 7589 0452 2E       		.byte	0x2e
 7590 0453 B3000000 		.4byte	0xb3
 7591 0457 02       		.uleb128 0x2
 7592 0458 91       		.byte	0x91
 7593 0459 74       		.sleb128 -12
 7594 045a 13       		.uleb128 0x13
 7595 045b 6C656E00 		.ascii	"len\000"
 7596 045f 01       		.byte	0x1
 7597 0460 2E       		.byte	0x2e
 7598 0461 68000000 		.4byte	0x68
 7599 0465 02       		.uleb128 0x2
 7600 0466 91       		.byte	0x91
 7601 0467 70       		.sleb128 -16
 7602 0468 14       		.uleb128 0x14
 7603 0469 1C090000 		.4byte	.LASF107
 7604 046d 01       		.byte	0x1
 7605 046e 2E       		.byte	0x2e
 7606 046f 90020000 		.4byte	0x290
 7607 0473 02       		.uleb128 0x2
 7608 0474 91       		.byte	0x91
 7609 0475 6F       		.sleb128 -17
 7610 0476 00       		.byte	0
 7611 0477 12       		.uleb128 0x12
 7612 0478 92030000 		.4byte	.LASF108
 7613 047c 01       		.byte	0x1
 7614 047d 58       		.byte	0x58
 7615 047e C0030000 		.4byte	0x3c0
 7616 0482 00000000 		.4byte	.LFB35
 7617 0486 18040000 		.4byte	.LFE35-.LFB35
 7618 048a 01       		.uleb128 0x1
 7619 048b 9C       		.byte	0x9c
 7620 048c AD040000 		.4byte	0x4ad
 7621 0490 13       		.uleb128 0x13
 7622 0491 73747200 		.ascii	"str\000"
 7623 0495 01       		.byte	0x1
 7624 0496 58       		.byte	0x58
 7625 0497 B9000000 		.4byte	0xb9
 7626 049b 02       		.uleb128 0x2
 7627 049c 91       		.byte	0x91
 7628 049d 74       		.sleb128 -12
 7629 049e 13       		.uleb128 0x13
 7630 049f 6C656E00 		.ascii	"len\000"
 7631 04a3 01       		.byte	0x1
 7632 04a4 58       		.byte	0x58
 7633 04a5 68000000 		.4byte	0x68
 7634 04a9 02       		.uleb128 0x2
 7635 04aa 91       		.byte	0x91
 7636 04ab 70       		.sleb128 -16
 7637 04ac 00       		.byte	0
 7638 04ad 12       		.uleb128 0x12
 7639 04ae 82090000 		.4byte	.LASF109
 7640 04b2 01       		.byte	0x1
 7641 04b3 70       		.byte	0x70
 7642 04b4 C8020000 		.4byte	0x2c8
 7643 04b8 00000000 		.4byte	.LFB36
ARM GAS  C:\Users\SDEVAS~1\AppData\Local\Temp\cc8KFjZb.s 			page 153


 7644 04bc 88000000 		.4byte	.LFE36-.LFB36
 7645 04c0 01       		.uleb128 0x1
 7646 04c1 9C       		.byte	0x9c
 7647 04c2 E3040000 		.4byte	0x4e3
 7648 04c6 13       		.uleb128 0x13
 7649 04c7 73747200 		.ascii	"str\000"
 7650 04cb 01       		.byte	0x1
 7651 04cc 70       		.byte	0x70
 7652 04cd B9000000 		.4byte	0xb9
 7653 04d1 02       		.uleb128 0x2
 7654 04d2 91       		.byte	0x91
 7655 04d3 74       		.sleb128 -12
 7656 04d4 13       		.uleb128 0x13
 7657 04d5 6C656E00 		.ascii	"len\000"
 7658 04d9 01       		.byte	0x1
 7659 04da 70       		.byte	0x70
 7660 04db 68000000 		.4byte	0x68
 7661 04df 02       		.uleb128 0x2
 7662 04e0 91       		.byte	0x91
 7663 04e1 70       		.sleb128 -16
 7664 04e2 00       		.byte	0
 7665 04e3 12       		.uleb128 0x12
 7666 04e4 00000000 		.4byte	.LASF110
 7667 04e8 01       		.byte	0x1
 7668 04e9 7C       		.byte	0x7c
 7669 04ea 68000000 		.4byte	0x68
 7670 04ee 00000000 		.4byte	.LFB37
 7671 04f2 48000000 		.4byte	.LFE37-.LFB37
 7672 04f6 01       		.uleb128 0x1
 7673 04f7 9C       		.byte	0x9c
 7674 04f8 25050000 		.4byte	0x525
 7675 04fc 14       		.uleb128 0x14
 7676 04fd 26090000 		.4byte	.LASF111
 7677 0501 01       		.byte	0x1
 7678 0502 7C       		.byte	0x7c
 7679 0503 B9000000 		.4byte	0xb9
 7680 0507 02       		.uleb128 0x2
 7681 0508 91       		.byte	0x91
 7682 0509 74       		.sleb128 -12
 7683 050a 13       		.uleb128 0x13
 7684 050b 7400     		.ascii	"t\000"
 7685 050d 01       		.byte	0x1
 7686 050e 7C       		.byte	0x7c
 7687 050f 25050000 		.4byte	0x525
 7688 0513 02       		.uleb128 0x2
 7689 0514 91       		.byte	0x91
 7690 0515 70       		.sleb128 -16
 7691 0516 13       		.uleb128 0x13
 7692 0517 6B657900 		.ascii	"key\000"
 7693 051b 01       		.byte	0x1
 7694 051c 7C       		.byte	0x7c
 7695 051d B9000000 		.4byte	0xb9
 7696 0521 02       		.uleb128 0x2
 7697 0522 91       		.byte	0x91
 7698 0523 6C       		.sleb128 -20
 7699 0524 00       		.byte	0
 7700 0525 05       		.uleb128 0x5
ARM GAS  C:\Users\SDEVAS~1\AppData\Local\Temp\cc8KFjZb.s 			page 154


 7701 0526 04       		.byte	0x4
 7702 0527 34010000 		.4byte	0x134
 7703 052b 15       		.uleb128 0x15
 7704 052c E5000000 		.4byte	.LASF112
 7705 0530 01       		.byte	0x1
 7706 0531 82       		.byte	0x82
 7707 0532 68000000 		.4byte	0x68
 7708 0536 00000000 		.4byte	.LFB38
 7709 053a 5A000000 		.4byte	.LFE38-.LFB38
 7710 053e 01       		.uleb128 0x1
 7711 053f 9C       		.byte	0x9c
 7712 0540 79050000 		.4byte	0x579
 7713 0544 14       		.uleb128 0x14
 7714 0545 55020000 		.4byte	.LASF113
 7715 0549 01       		.byte	0x1
 7716 054a 82       		.byte	0x82
 7717 054b 25050000 		.4byte	0x525
 7718 054f 02       		.uleb128 0x2
 7719 0550 91       		.byte	0x91
 7720 0551 6C       		.sleb128 -20
 7721 0552 14       		.uleb128 0x14
 7722 0553 6E0B0000 		.4byte	.LASF114
 7723 0557 01       		.byte	0x1
 7724 0558 82       		.byte	0x82
 7725 0559 68000000 		.4byte	0x68
 7726 055d 02       		.uleb128 0x2
 7727 055e 91       		.byte	0x91
 7728 055f 68       		.sleb128 -24
 7729 0560 16       		.uleb128 0x16
 7730 0561 26000000 		.4byte	.LBB2
 7731 0565 22000000 		.4byte	.LBE2-.LBB2
 7732 0569 17       		.uleb128 0x17
 7733 056a 27020000 		.4byte	.LASF120
 7734 056e 01       		.byte	0x1
 7735 056f 85       		.byte	0x85
 7736 0570 68000000 		.4byte	0x68
 7737 0574 02       		.uleb128 0x2
 7738 0575 91       		.byte	0x91
 7739 0576 74       		.sleb128 -12
 7740 0577 00       		.byte	0
 7741 0578 00       		.byte	0
 7742 0579 18       		.uleb128 0x18
 7743 057a B7050000 		.4byte	.LASF177
 7744 057e 01       		.byte	0x1
 7745 057f 8F       		.byte	0x8f
 7746 0580 00000000 		.4byte	.LFB39
 7747 0584 48010000 		.4byte	.LFE39-.LFB39
 7748 0588 01       		.uleb128 0x1
 7749 0589 9C       		.byte	0x9c
 7750 058a E3050000 		.4byte	0x5e3
 7751 058e 14       		.uleb128 0x14
 7752 058f 6B0C0000 		.4byte	.LASF115
 7753 0593 01       		.byte	0x1
 7754 0594 90       		.byte	0x90
 7755 0595 B9000000 		.4byte	0xb9
 7756 0599 02       		.uleb128 0x2
 7757 059a 91       		.byte	0x91
ARM GAS  C:\Users\SDEVAS~1\AppData\Local\Temp\cc8KFjZb.s 			page 155


 7758 059b 74       		.sleb128 -12
 7759 059c 14       		.uleb128 0x14
 7760 059d 1B010000 		.4byte	.LASF116
 7761 05a1 01       		.byte	0x1
 7762 05a2 90       		.byte	0x90
 7763 05a3 68000000 		.4byte	0x68
 7764 05a7 02       		.uleb128 0x2
 7765 05a8 91       		.byte	0x91
 7766 05a9 70       		.sleb128 -16
 7767 05aa 13       		.uleb128 0x13
 7768 05ab 73726300 		.ascii	"src\000"
 7769 05af 01       		.byte	0x1
 7770 05b0 91       		.byte	0x91
 7771 05b1 B9000000 		.4byte	0xb9
 7772 05b5 02       		.uleb128 0x2
 7773 05b6 91       		.byte	0x91
 7774 05b7 6C       		.sleb128 -20
 7775 05b8 14       		.uleb128 0x14
 7776 05b9 0C040000 		.4byte	.LASF117
 7777 05bd 01       		.byte	0x1
 7778 05be 91       		.byte	0x91
 7779 05bf 68000000 		.4byte	0x68
 7780 05c3 02       		.uleb128 0x2
 7781 05c4 91       		.byte	0x91
 7782 05c5 68       		.sleb128 -24
 7783 05c6 14       		.uleb128 0x14
 7784 05c7 C0040000 		.4byte	.LASF118
 7785 05cb 01       		.byte	0x1
 7786 05cc 92       		.byte	0x92
 7787 05cd B9000000 		.4byte	0xb9
 7788 05d1 02       		.uleb128 0x2
 7789 05d2 91       		.byte	0x91
 7790 05d3 00       		.sleb128 0
 7791 05d4 14       		.uleb128 0x14
 7792 05d5 DD030000 		.4byte	.LASF119
 7793 05d9 01       		.byte	0x1
 7794 05da 92       		.byte	0x92
 7795 05db 68000000 		.4byte	0x68
 7796 05df 02       		.uleb128 0x2
 7797 05e0 91       		.byte	0x91
 7798 05e1 04       		.sleb128 4
 7799 05e2 00       		.byte	0
 7800 05e3 19       		.uleb128 0x19
 7801 05e4 9C050000 		.4byte	.LASF140
 7802 05e8 01       		.byte	0x1
 7803 05e9 B0       		.byte	0xb0
 7804 05ea 00000000 		.4byte	.LFB40
 7805 05ee 90000000 		.4byte	.LFE40-.LFB40
 7806 05f2 01       		.uleb128 0x1
 7807 05f3 9C       		.byte	0x9c
 7808 05f4 13060000 		.4byte	0x613
 7809 05f8 14       		.uleb128 0x14
 7810 05f9 1C090000 		.4byte	.LASF107
 7811 05fd 01       		.byte	0x1
 7812 05fe B0       		.byte	0xb0
 7813 05ff 90020000 		.4byte	0x290
 7814 0603 02       		.uleb128 0x2
ARM GAS  C:\Users\SDEVAS~1\AppData\Local\Temp\cc8KFjZb.s 			page 156


 7815 0604 91       		.byte	0x91
 7816 0605 6F       		.sleb128 -17
 7817 0606 1A       		.uleb128 0x1a
 7818 0607 7200     		.ascii	"r\000"
 7819 0609 01       		.byte	0x1
 7820 060a B3       		.byte	0xb3
 7821 060b 68000000 		.4byte	0x68
 7822 060f 02       		.uleb128 0x2
 7823 0610 91       		.byte	0x91
 7824 0611 74       		.sleb128 -12
 7825 0612 00       		.byte	0
 7826 0613 1B       		.uleb128 0x1b
 7827 0614 49040000 		.4byte	.LASF122
 7828 0618 01       		.byte	0x1
 7829 0619 D4       		.byte	0xd4
 7830 061a F2030000 		.4byte	0x3f2
 7831 061e 00000000 		.4byte	.LFB41
 7832 0622 10040000 		.4byte	.LFE41-.LFB41
 7833 0626 01       		.uleb128 0x1
 7834 0627 9C       		.byte	0x9c
 7835 0628 8F060000 		.4byte	0x68f
 7836 062c 14       		.uleb128 0x14
 7837 062d 26090000 		.4byte	.LASF111
 7838 0631 01       		.byte	0x1
 7839 0632 D4       		.byte	0xd4
 7840 0633 B9000000 		.4byte	0xb9
 7841 0637 02       		.uleb128 0x2
 7842 0638 91       		.byte	0x91
 7843 0639 54       		.sleb128 -44
 7844 063a 14       		.uleb128 0x14
 7845 063b BD030000 		.4byte	.LASF121
 7846 063f 01       		.byte	0x1
 7847 0640 D4       		.byte	0xd4
 7848 0641 68000000 		.4byte	0x68
 7849 0645 02       		.uleb128 0x2
 7850 0646 91       		.byte	0x91
 7851 0647 50       		.sleb128 -48
 7852 0648 1A       		.uleb128 0x1a
 7853 0649 7200     		.ascii	"r\000"
 7854 064b 01       		.byte	0x1
 7855 064c D9       		.byte	0xd9
 7856 064d 68000000 		.4byte	0x68
 7857 0651 02       		.uleb128 0x2
 7858 0652 91       		.byte	0x91
 7859 0653 5C       		.sleb128 -36
 7860 0654 1A       		.uleb128 0x1a
 7861 0655 7400     		.ascii	"t\000"
 7862 0657 01       		.byte	0x1
 7863 0658 E6       		.byte	0xe6
 7864 0659 68000000 		.4byte	0x68
 7865 065d 02       		.uleb128 0x2
 7866 065e 91       		.byte	0x91
 7867 065f 6C       		.sleb128 -20
 7868 0660 1A       		.uleb128 0x1a
 7869 0661 6900     		.ascii	"i\000"
 7870 0663 01       		.byte	0x1
 7871 0664 E7       		.byte	0xe7
ARM GAS  C:\Users\SDEVAS~1\AppData\Local\Temp\cc8KFjZb.s 			page 157


 7872 0665 68000000 		.4byte	0x68
 7873 0669 02       		.uleb128 0x2
 7874 066a 91       		.byte	0x91
 7875 066b 68       		.sleb128 -24
 7876 066c 16       		.uleb128 0x16
 7877 066d 98000000 		.4byte	.LBB3
 7878 0671 4E010000 		.4byte	.LBE3-.LBB3
 7879 0675 1A       		.uleb128 0x1a
 7880 0676 7900     		.ascii	"y\000"
 7881 0678 01       		.byte	0x1
 7882 0679 EF       		.byte	0xef
 7883 067a 68000000 		.4byte	0x68
 7884 067e 02       		.uleb128 0x2
 7885 067f 91       		.byte	0x91
 7886 0680 64       		.sleb128 -28
 7887 0681 1A       		.uleb128 0x1a
 7888 0682 6A00     		.ascii	"j\000"
 7889 0684 01       		.byte	0x1
 7890 0685 F0       		.byte	0xf0
 7891 0686 68000000 		.4byte	0x68
 7892 068a 02       		.uleb128 0x2
 7893 068b 91       		.byte	0x91
 7894 068c 60       		.sleb128 -32
 7895 068d 00       		.byte	0
 7896 068e 00       		.byte	0
 7897 068f 1C       		.uleb128 0x1c
 7898 0690 FC0A0000 		.4byte	.LASF123
 7899 0694 01       		.byte	0x1
 7900 0695 1B01     		.2byte	0x11b
 7901 0697 90020000 		.4byte	0x290
 7902 069b 00000000 		.4byte	.LFB42
 7903 069f 080C0000 		.4byte	.LFE42-.LFB42
 7904 06a3 01       		.uleb128 0x1
 7905 06a4 9C       		.byte	0x9c
 7906 06a5 39070000 		.4byte	0x739
 7907 06a9 1D       		.uleb128 0x1d
 7908 06aa 5E000000 		.4byte	.LASF40
 7909 06ae 01       		.byte	0x1
 7910 06af 1B01     		.2byte	0x11b
 7911 06b1 90020000 		.4byte	0x290
 7912 06b5 02       		.uleb128 0x2
 7913 06b6 91       		.byte	0x91
 7914 06b7 5F       		.sleb128 -33
 7915 06b8 1D       		.uleb128 0x1d
 7916 06b9 CC050000 		.4byte	.LASF124
 7917 06bd 01       		.byte	0x1
 7918 06be 1B01     		.2byte	0x11b
 7919 06c0 B9000000 		.4byte	0xb9
 7920 06c4 02       		.uleb128 0x2
 7921 06c5 91       		.byte	0x91
 7922 06c6 58       		.sleb128 -40
 7923 06c7 1D       		.uleb128 0x1d
 7924 06c8 F8080000 		.4byte	.LASF125
 7925 06cc 01       		.byte	0x1
 7926 06cd 1B01     		.2byte	0x11b
 7927 06cf 68000000 		.4byte	0x68
 7928 06d3 02       		.uleb128 0x2
ARM GAS  C:\Users\SDEVAS~1\AppData\Local\Temp\cc8KFjZb.s 			page 158


 7929 06d4 91       		.byte	0x91
 7930 06d5 54       		.sleb128 -44
 7931 06d6 1D       		.uleb128 0x1d
 7932 06d7 55020000 		.4byte	.LASF113
 7933 06db 01       		.byte	0x1
 7934 06dc 1B01     		.2byte	0x11b
 7935 06de 25050000 		.4byte	0x525
 7936 06e2 02       		.uleb128 0x2
 7937 06e3 91       		.byte	0x91
 7938 06e4 50       		.sleb128 -48
 7939 06e5 1D       		.uleb128 0x1d
 7940 06e6 B3030000 		.4byte	.LASF126
 7941 06ea 01       		.byte	0x1
 7942 06eb 1B01     		.2byte	0x11b
 7943 06ed 68000000 		.4byte	0x68
 7944 06f1 02       		.uleb128 0x2
 7945 06f2 91       		.byte	0x91
 7946 06f3 00       		.sleb128 0
 7947 06f4 1E       		.uleb128 0x1e
 7948 06f5 C10B0000 		.4byte	.LASF129
 7949 06f9 01       		.byte	0x1
 7950 06fa 4E01     		.2byte	0x14e
 7951 06fc 9C0B0000 		.4byte	.L129
 7952 0700 1F       		.uleb128 0x1f
 7953 0701 7400     		.ascii	"t\000"
 7954 0703 01       		.byte	0x1
 7955 0704 2801     		.2byte	0x128
 7956 0706 68000000 		.4byte	0x68
 7957 070a 02       		.uleb128 0x2
 7958 070b 91       		.byte	0x91
 7959 070c 6C       		.sleb128 -20
 7960 070d 20       		.uleb128 0x20
 7961 070e 8D030000 		.4byte	.LASF127
 7962 0712 01       		.byte	0x1
 7963 0713 2901     		.2byte	0x129
 7964 0715 C0030000 		.4byte	0x3c0
 7965 0719 02       		.uleb128 0x2
 7966 071a 91       		.byte	0x91
 7967 071b 6B       		.sleb128 -21
 7968 071c 1F       		.uleb128 0x1f
 7969 071d 6900     		.ascii	"i\000"
 7970 071f 01       		.byte	0x1
 7971 0720 2A01     		.2byte	0x12a
 7972 0722 68000000 		.4byte	0x68
 7973 0726 02       		.uleb128 0x2
 7974 0727 91       		.byte	0x91
 7975 0728 64       		.sleb128 -28
 7976 0729 1F       		.uleb128 0x1f
 7977 072a 746D7000 		.ascii	"tmp\000"
 7978 072e 01       		.byte	0x1
 7979 072f 3C01     		.2byte	0x13c
 7980 0731 68000000 		.4byte	0x68
 7981 0735 02       		.uleb128 0x2
 7982 0736 91       		.byte	0x91
 7983 0737 60       		.sleb128 -32
 7984 0738 00       		.byte	0
 7985 0739 1C       		.uleb128 0x1c
ARM GAS  C:\Users\SDEVAS~1\AppData\Local\Temp\cc8KFjZb.s 			page 159


 7986 073a 34040000 		.4byte	.LASF128
 7987 073e 01       		.byte	0x1
 7988 073f 5301     		.2byte	0x153
 7989 0741 90020000 		.4byte	0x290
 7990 0745 00000000 		.4byte	.LFB43
 7991 0749 BC080000 		.4byte	.LFE43-.LFB43
 7992 074d 01       		.uleb128 0x1
 7993 074e 9C       		.byte	0x9c
 7994 074f 10080000 		.4byte	0x810
 7995 0753 1D       		.uleb128 0x1d
 7996 0754 5E000000 		.4byte	.LASF40
 7997 0758 01       		.byte	0x1
 7998 0759 5301     		.2byte	0x153
 7999 075b 90020000 		.4byte	0x290
 8000 075f 02       		.uleb128 0x2
 8001 0760 91       		.byte	0x91
 8002 0761 4F       		.sleb128 -49
 8003 0762 1D       		.uleb128 0x1d
 8004 0763 CC050000 		.4byte	.LASF124
 8005 0767 01       		.byte	0x1
 8006 0768 5301     		.2byte	0x153
 8007 076a B9000000 		.4byte	0xb9
 8008 076e 02       		.uleb128 0x2
 8009 076f 91       		.byte	0x91
 8010 0770 48       		.sleb128 -56
 8011 0771 1D       		.uleb128 0x1d
 8012 0772 F8080000 		.4byte	.LASF125
 8013 0776 01       		.byte	0x1
 8014 0777 5301     		.2byte	0x153
 8015 0779 68000000 		.4byte	0x68
 8016 077d 02       		.uleb128 0x2
 8017 077e 91       		.byte	0x91
 8018 077f 44       		.sleb128 -60
 8019 0780 1D       		.uleb128 0x1d
 8020 0781 55020000 		.4byte	.LASF113
 8021 0785 01       		.byte	0x1
 8022 0786 5301     		.2byte	0x153
 8023 0788 25050000 		.4byte	0x525
 8024 078c 02       		.uleb128 0x2
 8025 078d 91       		.byte	0x91
 8026 078e 40       		.sleb128 -64
 8027 078f 1D       		.uleb128 0x1d
 8028 0790 B3030000 		.4byte	.LASF126
 8029 0794 01       		.byte	0x1
 8030 0795 5301     		.2byte	0x153
 8031 0797 68000000 		.4byte	0x68
 8032 079b 02       		.uleb128 0x2
 8033 079c 91       		.byte	0x91
 8034 079d 00       		.sleb128 0
 8035 079e 1E       		.uleb128 0x1e
 8036 079f C10B0000 		.4byte	.LASF129
 8037 07a3 01       		.byte	0x1
 8038 07a4 8A01     		.2byte	0x18a
 8039 07a6 7A080000 		.4byte	.L188
 8040 07aa 1F       		.uleb128 0x1f
 8041 07ab 7400     		.ascii	"t\000"
 8042 07ad 01       		.byte	0x1
ARM GAS  C:\Users\SDEVAS~1\AppData\Local\Temp\cc8KFjZb.s 			page 160


 8043 07ae 5D01     		.2byte	0x15d
 8044 07b0 68000000 		.4byte	0x68
 8045 07b4 02       		.uleb128 0x2
 8046 07b5 91       		.byte	0x91
 8047 07b6 6C       		.sleb128 -20
 8048 07b7 20       		.uleb128 0x20
 8049 07b8 8D030000 		.4byte	.LASF127
 8050 07bc 01       		.byte	0x1
 8051 07bd 5E01     		.2byte	0x15e
 8052 07bf C0030000 		.4byte	0x3c0
 8053 07c3 02       		.uleb128 0x2
 8054 07c4 91       		.byte	0x91
 8055 07c5 6B       		.sleb128 -21
 8056 07c6 20       		.uleb128 0x20
 8057 07c7 15030000 		.4byte	.LASF130
 8058 07cb 01       		.byte	0x1
 8059 07cc 5F01     		.2byte	0x15f
 8060 07ce B9000000 		.4byte	0xb9
 8061 07d2 02       		.uleb128 0x2
 8062 07d3 91       		.byte	0x91
 8063 07d4 64       		.sleb128 -28
 8064 07d5 20       		.uleb128 0x20
 8065 07d6 FC000000 		.4byte	.LASF131
 8066 07da 01       		.byte	0x1
 8067 07db 6001     		.2byte	0x160
 8068 07dd 68000000 		.4byte	0x68
 8069 07e1 02       		.uleb128 0x2
 8070 07e2 91       		.byte	0x91
 8071 07e3 60       		.sleb128 -32
 8072 07e4 20       		.uleb128 0x20
 8073 07e5 000A0000 		.4byte	.LASF23
 8074 07e9 01       		.byte	0x1
 8075 07ea 6101     		.2byte	0x161
 8076 07ec B9000000 		.4byte	0xb9
 8077 07f0 02       		.uleb128 0x2
 8078 07f1 91       		.byte	0x91
 8079 07f2 5C       		.sleb128 -36
 8080 07f3 20       		.uleb128 0x20
 8081 07f4 D4050000 		.4byte	.LASF132
 8082 07f8 01       		.byte	0x1
 8083 07f9 6201     		.2byte	0x162
 8084 07fb 68000000 		.4byte	0x68
 8085 07ff 02       		.uleb128 0x2
 8086 0800 91       		.byte	0x91
 8087 0801 58       		.sleb128 -40
 8088 0802 1F       		.uleb128 0x1f
 8089 0803 6900     		.ascii	"i\000"
 8090 0805 01       		.byte	0x1
 8091 0806 6301     		.2byte	0x163
 8092 0808 68000000 		.4byte	0x68
 8093 080c 02       		.uleb128 0x2
 8094 080d 91       		.byte	0x91
 8095 080e 54       		.sleb128 -44
 8096 080f 00       		.byte	0
 8097 0810 1C       		.uleb128 0x1c
 8098 0811 2C000000 		.4byte	.LASF133
 8099 0815 01       		.byte	0x1
ARM GAS  C:\Users\SDEVAS~1\AppData\Local\Temp\cc8KFjZb.s 			page 161


 8100 0816 8F01     		.2byte	0x18f
 8101 0818 90020000 		.4byte	0x290
 8102 081c 00000000 		.4byte	.LFB44
 8103 0820 90000000 		.4byte	.LFE44-.LFB44
 8104 0824 01       		.uleb128 0x1
 8105 0825 9C       		.byte	0x9c
 8106 0826 76080000 		.4byte	0x876
 8107 082a 1D       		.uleb128 0x1d
 8108 082b 5E000000 		.4byte	.LASF40
 8109 082f 01       		.byte	0x1
 8110 0830 8F01     		.2byte	0x18f
 8111 0832 90020000 		.4byte	0x290
 8112 0836 02       		.uleb128 0x2
 8113 0837 91       		.byte	0x91
 8114 0838 77       		.sleb128 -9
 8115 0839 1D       		.uleb128 0x1d
 8116 083a CC050000 		.4byte	.LASF124
 8117 083e 01       		.byte	0x1
 8118 083f 8F01     		.2byte	0x18f
 8119 0841 B9000000 		.4byte	0xb9
 8120 0845 02       		.uleb128 0x2
 8121 0846 91       		.byte	0x91
 8122 0847 70       		.sleb128 -16
 8123 0848 1D       		.uleb128 0x1d
 8124 0849 F8080000 		.4byte	.LASF125
 8125 084d 01       		.byte	0x1
 8126 084e 8F01     		.2byte	0x18f
 8127 0850 68000000 		.4byte	0x68
 8128 0854 02       		.uleb128 0x2
 8129 0855 91       		.byte	0x91
 8130 0856 6C       		.sleb128 -20
 8131 0857 1D       		.uleb128 0x1d
 8132 0858 55020000 		.4byte	.LASF113
 8133 085c 01       		.byte	0x1
 8134 085d 8F01     		.2byte	0x18f
 8135 085f 25050000 		.4byte	0x525
 8136 0863 02       		.uleb128 0x2
 8137 0864 91       		.byte	0x91
 8138 0865 68       		.sleb128 -24
 8139 0866 1D       		.uleb128 0x1d
 8140 0867 B3030000 		.4byte	.LASF126
 8141 086b 01       		.byte	0x1
 8142 086c 8F01     		.2byte	0x18f
 8143 086e 68000000 		.4byte	0x68
 8144 0872 02       		.uleb128 0x2
 8145 0873 91       		.byte	0x91
 8146 0874 00       		.sleb128 0
 8147 0875 00       		.byte	0
 8148 0876 1C       		.uleb128 0x1c
 8149 0877 36050000 		.4byte	.LASF134
 8150 087b 01       		.byte	0x1
 8151 087c 9901     		.2byte	0x199
 8152 087e 90020000 		.4byte	0x290
 8153 0882 00000000 		.4byte	.LFB45
 8154 0886 90000000 		.4byte	.LFE45-.LFB45
 8155 088a 01       		.uleb128 0x1
 8156 088b 9C       		.byte	0x9c
ARM GAS  C:\Users\SDEVAS~1\AppData\Local\Temp\cc8KFjZb.s 			page 162


 8157 088c DC080000 		.4byte	0x8dc
 8158 0890 1D       		.uleb128 0x1d
 8159 0891 5E000000 		.4byte	.LASF40
 8160 0895 01       		.byte	0x1
 8161 0896 9901     		.2byte	0x199
 8162 0898 90020000 		.4byte	0x290
 8163 089c 02       		.uleb128 0x2
 8164 089d 91       		.byte	0x91
 8165 089e 77       		.sleb128 -9
 8166 089f 1D       		.uleb128 0x1d
 8167 08a0 CC050000 		.4byte	.LASF124
 8168 08a4 01       		.byte	0x1
 8169 08a5 9901     		.2byte	0x199
 8170 08a7 B9000000 		.4byte	0xb9
 8171 08ab 02       		.uleb128 0x2
 8172 08ac 91       		.byte	0x91
 8173 08ad 70       		.sleb128 -16
 8174 08ae 1D       		.uleb128 0x1d
 8175 08af F8080000 		.4byte	.LASF125
 8176 08b3 01       		.byte	0x1
 8177 08b4 9901     		.2byte	0x199
 8178 08b6 68000000 		.4byte	0x68
 8179 08ba 02       		.uleb128 0x2
 8180 08bb 91       		.byte	0x91
 8181 08bc 6C       		.sleb128 -20
 8182 08bd 1D       		.uleb128 0x1d
 8183 08be 55020000 		.4byte	.LASF113
 8184 08c2 01       		.byte	0x1
 8185 08c3 9901     		.2byte	0x199
 8186 08c5 25050000 		.4byte	0x525
 8187 08c9 02       		.uleb128 0x2
 8188 08ca 91       		.byte	0x91
 8189 08cb 68       		.sleb128 -24
 8190 08cc 1D       		.uleb128 0x1d
 8191 08cd B3030000 		.4byte	.LASF126
 8192 08d1 01       		.byte	0x1
 8193 08d2 9901     		.2byte	0x199
 8194 08d4 68000000 		.4byte	0x68
 8195 08d8 02       		.uleb128 0x2
 8196 08d9 91       		.byte	0x91
 8197 08da 00       		.sleb128 0
 8198 08db 00       		.byte	0
 8199 08dc 1C       		.uleb128 0x1c
 8200 08dd 16000000 		.4byte	.LASF135
 8201 08e1 01       		.byte	0x1
 8202 08e2 A501     		.2byte	0x1a5
 8203 08e4 90020000 		.4byte	0x290
 8204 08e8 00000000 		.4byte	.LFB46
 8205 08ec B8000000 		.4byte	.LFE46-.LFB46
 8206 08f0 01       		.uleb128 0x1
 8207 08f1 9C       		.byte	0x9c
 8208 08f2 67090000 		.4byte	0x967
 8209 08f6 1D       		.uleb128 0x1d
 8210 08f7 5E000000 		.4byte	.LASF40
 8211 08fb 01       		.byte	0x1
 8212 08fc A501     		.2byte	0x1a5
 8213 08fe 90020000 		.4byte	0x290
ARM GAS  C:\Users\SDEVAS~1\AppData\Local\Temp\cc8KFjZb.s 			page 163


 8214 0902 02       		.uleb128 0x2
 8215 0903 91       		.byte	0x91
 8216 0904 67       		.sleb128 -25
 8217 0905 1D       		.uleb128 0x1d
 8218 0906 CC050000 		.4byte	.LASF124
 8219 090a 01       		.byte	0x1
 8220 090b A501     		.2byte	0x1a5
 8221 090d B9000000 		.4byte	0xb9
 8222 0911 02       		.uleb128 0x2
 8223 0912 91       		.byte	0x91
 8224 0913 60       		.sleb128 -32
 8225 0914 1D       		.uleb128 0x1d
 8226 0915 F8080000 		.4byte	.LASF125
 8227 0919 01       		.byte	0x1
 8228 091a A501     		.2byte	0x1a5
 8229 091c 68000000 		.4byte	0x68
 8230 0920 02       		.uleb128 0x2
 8231 0921 91       		.byte	0x91
 8232 0922 5C       		.sleb128 -36
 8233 0923 1D       		.uleb128 0x1d
 8234 0924 55020000 		.4byte	.LASF113
 8235 0928 01       		.byte	0x1
 8236 0929 A501     		.2byte	0x1a5
 8237 092b 25050000 		.4byte	0x525
 8238 092f 02       		.uleb128 0x2
 8239 0930 91       		.byte	0x91
 8240 0931 58       		.sleb128 -40
 8241 0932 1D       		.uleb128 0x1d
 8242 0933 B3030000 		.4byte	.LASF126
 8243 0937 01       		.byte	0x1
 8244 0938 A501     		.2byte	0x1a5
 8245 093a 68000000 		.4byte	0x68
 8246 093e 02       		.uleb128 0x2
 8247 093f 91       		.byte	0x91
 8248 0940 00       		.sleb128 0
 8249 0941 1E       		.uleb128 0x1e
 8250 0942 C10B0000 		.4byte	.LASF129
 8251 0946 01       		.byte	0x1
 8252 0947 B401     		.2byte	0x1b4
 8253 0949 3E000000 		.4byte	.L291
 8254 094d 16       		.uleb128 0x16
 8255 094e 1E000000 		.4byte	.LBB4
 8256 0952 84000000 		.4byte	.LBE4-.LBB4
 8257 0956 20       		.uleb128 0x20
 8258 0957 D8030000 		.4byte	.LASF136
 8259 095b 01       		.byte	0x1
 8260 095c A901     		.2byte	0x1a9
 8261 095e C8020000 		.4byte	0x2c8
 8262 0962 02       		.uleb128 0x2
 8263 0963 91       		.byte	0x91
 8264 0964 6F       		.sleb128 -17
 8265 0965 00       		.byte	0
 8266 0966 00       		.byte	0
 8267 0967 21       		.uleb128 0x21
 8268 0968 38090000 		.4byte	.LASF137
 8269 096c 01       		.byte	0x1
 8270 096d BB01     		.2byte	0x1bb
ARM GAS  C:\Users\SDEVAS~1\AppData\Local\Temp\cc8KFjZb.s 			page 164


 8271 096f C4000000 		.4byte	0xc4
 8272 0973 00000000 		.4byte	.LFB47
 8273 0977 30000000 		.4byte	.LFE47-.LFB47
 8274 097b 01       		.uleb128 0x1
 8275 097c 9C       		.byte	0x9c
 8276 097d A0090000 		.4byte	0x9a0
 8277 0981 1D       		.uleb128 0x1d
 8278 0982 49050000 		.4byte	.LASF138
 8279 0986 01       		.byte	0x1
 8280 0987 BB01     		.2byte	0x1bb
 8281 0989 A5000000 		.4byte	0xa5
 8282 098d 02       		.uleb128 0x2
 8283 098e 91       		.byte	0x91
 8284 098f 77       		.sleb128 -9
 8285 0990 1D       		.uleb128 0x1d
 8286 0991 48090000 		.4byte	.LASF139
 8287 0995 01       		.byte	0x1
 8288 0996 BB01     		.2byte	0x1bb
 8289 0998 A5000000 		.4byte	0xa5
 8290 099c 02       		.uleb128 0x2
 8291 099d 91       		.byte	0x91
 8292 099e 76       		.sleb128 -10
 8293 099f 00       		.byte	0
 8294 09a0 22       		.uleb128 0x22
 8295 09a1 320B0000 		.4byte	.LASF141
 8296 09a5 01       		.byte	0x1
 8297 09a6 C501     		.2byte	0x1c5
 8298 09a8 00000000 		.4byte	.LFB48
 8299 09ac 20000000 		.4byte	.LFE48-.LFB48
 8300 09b0 01       		.uleb128 0x1
 8301 09b1 9C       		.byte	0x9c
 8302 09b2 C6090000 		.4byte	0x9c6
 8303 09b6 1D       		.uleb128 0x1d
 8304 09b7 44000000 		.4byte	.LASF142
 8305 09bb 01       		.byte	0x1
 8306 09bc C501     		.2byte	0x1c5
 8307 09be C4000000 		.4byte	0xc4
 8308 09c2 02       		.uleb128 0x2
 8309 09c3 91       		.byte	0x91
 8310 09c4 74       		.sleb128 -12
 8311 09c5 00       		.byte	0
 8312 09c6 23       		.uleb128 0x23
 8313 09c7 890A0000 		.4byte	.LASF147
 8314 09cb 01       		.byte	0x1
 8315 09cc C801     		.2byte	0x1c8
 8316 09ce 00000000 		.4byte	.LFB49
 8317 09d2 28000000 		.4byte	.LFE49-.LFB49
 8318 09d6 01       		.uleb128 0x1
 8319 09d7 9C       		.byte	0x9c
 8320 09d8 22       		.uleb128 0x22
 8321 09d9 10020000 		.4byte	.LASF143
 8322 09dd 01       		.byte	0x1
 8323 09de CD01     		.2byte	0x1cd
 8324 09e0 00000000 		.4byte	.LFB50
 8325 09e4 2C000000 		.4byte	.LFE50-.LFB50
 8326 09e8 01       		.uleb128 0x1
 8327 09e9 9C       		.byte	0x9c
ARM GAS  C:\Users\SDEVAS~1\AppData\Local\Temp\cc8KFjZb.s 			page 165


 8328 09ea 0D0A0000 		.4byte	0xa0d
 8329 09ee 1D       		.uleb128 0x1d
 8330 09ef 6C030000 		.4byte	.LASF144
 8331 09f3 01       		.byte	0x1
 8332 09f4 CD01     		.2byte	0x1cd
 8333 09f6 B3000000 		.4byte	0xb3
 8334 09fa 02       		.uleb128 0x2
 8335 09fb 91       		.byte	0x91
 8336 09fc 74       		.sleb128 -12
 8337 09fd 24       		.uleb128 0x24
 8338 09fe 6C656E00 		.ascii	"len\000"
 8339 0a02 01       		.byte	0x1
 8340 0a03 CD01     		.2byte	0x1cd
 8341 0a05 8C000000 		.4byte	0x8c
 8342 0a09 02       		.uleb128 0x2
 8343 0a0a 91       		.byte	0x91
 8344 0a0b 70       		.sleb128 -16
 8345 0a0c 00       		.byte	0
 8346 0a0d 25       		.uleb128 0x25
 8347 0a0e A6020000 		.4byte	.LASF145
 8348 0a12 01       		.byte	0x1
 8349 0a13 D201     		.2byte	0x1d2
 8350 0a15 00000000 		.4byte	.LFB51
 8351 0a19 24000000 		.4byte	.LFE51-.LFB51
 8352 0a1d 01       		.uleb128 0x1
 8353 0a1e 9C       		.byte	0x9c
 8354 0a1f 330A0000 		.4byte	0xa33
 8355 0a23 1D       		.uleb128 0x1d
 8356 0a24 31090000 		.4byte	.LASF146
 8357 0a28 01       		.byte	0x1
 8358 0a29 D201     		.2byte	0x1d2
 8359 0a2b 81000000 		.4byte	0x81
 8360 0a2f 02       		.uleb128 0x2
 8361 0a30 91       		.byte	0x91
 8362 0a31 77       		.sleb128 -9
 8363 0a32 00       		.byte	0
 8364 0a33 23       		.uleb128 0x23
 8365 0a34 81050000 		.4byte	.LASF148
 8366 0a38 01       		.byte	0x1
 8367 0a39 E001     		.2byte	0x1e0
 8368 0a3b 00000000 		.4byte	.LFB52
 8369 0a3f 18000000 		.4byte	.LFE52-.LFB52
 8370 0a43 01       		.uleb128 0x1
 8371 0a44 9C       		.byte	0x9c
 8372 0a45 23       		.uleb128 0x23
 8373 0a46 06050000 		.4byte	.LASF149
 8374 0a4a 01       		.byte	0x1
 8375 0a4b E301     		.2byte	0x1e3
 8376 0a4d 00000000 		.4byte	.LFB53
 8377 0a51 18000000 		.4byte	.LFE53-.LFB53
 8378 0a55 01       		.uleb128 0x1
 8379 0a56 9C       		.byte	0x9c
 8380 0a57 23       		.uleb128 0x23
 8381 0a58 4D0C0000 		.4byte	.LASF150
 8382 0a5c 01       		.byte	0x1
 8383 0a5d E601     		.2byte	0x1e6
 8384 0a5f 00000000 		.4byte	.LFB54
ARM GAS  C:\Users\SDEVAS~1\AppData\Local\Temp\cc8KFjZb.s 			page 166


 8385 0a63 18000000 		.4byte	.LFE54-.LFB54
 8386 0a67 01       		.uleb128 0x1
 8387 0a68 9C       		.byte	0x9c
 8388 0a69 23       		.uleb128 0x23
 8389 0a6a 59010000 		.4byte	.LASF151
 8390 0a6e 01       		.byte	0x1
 8391 0a6f E901     		.2byte	0x1e9
 8392 0a71 00000000 		.4byte	.LFB55
 8393 0a75 18000000 		.4byte	.LFE55-.LFB55
 8394 0a79 01       		.uleb128 0x1
 8395 0a7a 9C       		.byte	0x9c
 8396 0a7b 26       		.uleb128 0x26
 8397 0a7c 93010000 		.4byte	.LASF152
 8398 0a80 01       		.byte	0x1
 8399 0a81 ED01     		.2byte	0x1ed
 8400 0a83 00000000 		.4byte	.LFB56
 8401 0a87 78000000 		.4byte	.LFE56-.LFB56
 8402 0a8b 01       		.uleb128 0x1
 8403 0a8c 9C       		.byte	0x9c
 8404 0a8d 25       		.uleb128 0x25
 8405 0a8e 78070000 		.4byte	.LASF153
 8406 0a92 01       		.byte	0x1
 8407 0a93 FA01     		.2byte	0x1fa
 8408 0a95 00000000 		.4byte	.LFB57
 8409 0a99 84000000 		.4byte	.LFE57-.LFB57
 8410 0a9d 01       		.uleb128 0x1
 8411 0a9e 9C       		.byte	0x9c
 8412 0a9f E00A0000 		.4byte	0xae0
 8413 0aa3 1D       		.uleb128 0x1d
 8414 0aa4 C0040000 		.4byte	.LASF118
 8415 0aa8 01       		.byte	0x1
 8416 0aa9 FA01     		.2byte	0x1fa
 8417 0aab B9000000 		.4byte	0xb9
 8418 0aaf 02       		.uleb128 0x2
 8419 0ab0 91       		.byte	0x91
 8420 0ab1 74       		.sleb128 -12
 8421 0ab2 1D       		.uleb128 0x1d
 8422 0ab3 DD030000 		.4byte	.LASF119
 8423 0ab7 01       		.byte	0x1
 8424 0ab8 FA01     		.2byte	0x1fa
 8425 0aba 68000000 		.4byte	0x68
 8426 0abe 02       		.uleb128 0x2
 8427 0abf 91       		.byte	0x91
 8428 0ac0 70       		.sleb128 -16
 8429 0ac1 1D       		.uleb128 0x1d
 8430 0ac2 49050000 		.4byte	.LASF138
 8431 0ac6 01       		.byte	0x1
 8432 0ac7 FA01     		.2byte	0x1fa
 8433 0ac9 A5000000 		.4byte	0xa5
 8434 0acd 02       		.uleb128 0x2
 8435 0ace 91       		.byte	0x91
 8436 0acf 6F       		.sleb128 -17
 8437 0ad0 1D       		.uleb128 0x1d
 8438 0ad1 48090000 		.4byte	.LASF139
 8439 0ad5 01       		.byte	0x1
 8440 0ad6 FA01     		.2byte	0x1fa
 8441 0ad8 A5000000 		.4byte	0xa5
ARM GAS  C:\Users\SDEVAS~1\AppData\Local\Temp\cc8KFjZb.s 			page 167


 8442 0adc 02       		.uleb128 0x2
 8443 0add 91       		.byte	0x91
 8444 0ade 6E       		.sleb128 -18
 8445 0adf 00       		.byte	0
 8446 0ae0 25       		.uleb128 0x25
 8447 0ae1 180B0000 		.4byte	.LASF154
 8448 0ae5 01       		.byte	0x1
 8449 0ae6 0602     		.2byte	0x206
 8450 0ae8 00000000 		.4byte	.LFB58
 8451 0aec 60000000 		.4byte	.LFE58-.LFB58
 8452 0af0 01       		.uleb128 0x1
 8453 0af1 9C       		.byte	0x9c
 8454 0af2 150B0000 		.4byte	0xb15
 8455 0af6 1D       		.uleb128 0x1d
 8456 0af7 6C030000 		.4byte	.LASF144
 8457 0afb 01       		.byte	0x1
 8458 0afc 0602     		.2byte	0x206
 8459 0afe B3000000 		.4byte	0xb3
 8460 0b02 02       		.uleb128 0x2
 8461 0b03 91       		.byte	0x91
 8462 0b04 74       		.sleb128 -12
 8463 0b05 24       		.uleb128 0x24
 8464 0b06 6C656E00 		.ascii	"len\000"
 8465 0b0a 01       		.byte	0x1
 8466 0b0b 0602     		.2byte	0x206
 8467 0b0d 8C000000 		.4byte	0x8c
 8468 0b11 02       		.uleb128 0x2
 8469 0b12 91       		.byte	0x91
 8470 0b13 70       		.sleb128 -16
 8471 0b14 00       		.byte	0
 8472 0b15 25       		.uleb128 0x25
 8473 0b16 D8010000 		.4byte	.LASF155
 8474 0b1a 01       		.byte	0x1
 8475 0b1b 1002     		.2byte	0x210
 8476 0b1d 00000000 		.4byte	.LFB59
 8477 0b21 C0050000 		.4byte	.LFE59-.LFB59
 8478 0b25 01       		.uleb128 0x1
 8479 0b26 9C       		.byte	0x9c
 8480 0b27 9D0B0000 		.4byte	0xb9d
 8481 0b2b 20       		.uleb128 0x20
 8482 0b2c 460A0000 		.4byte	.LASF156
 8483 0b30 01       		.byte	0x1
 8484 0b31 1102     		.2byte	0x211
 8485 0b33 68000000 		.4byte	0x68
 8486 0b37 05       		.uleb128 0x5
 8487 0b38 03       		.byte	0x3
 8488 0b39 34000000 		.4byte	error_counter.6419
 8489 0b3d 20       		.uleb128 0x20
 8490 0b3e 03090000 		.4byte	.LASF157
 8491 0b42 01       		.byte	0x1
 8492 0b43 1202     		.2byte	0x212
 8493 0b45 68000000 		.4byte	0x68
 8494 0b49 05       		.uleb128 0x5
 8495 0b4a 03       		.byte	0x3
 8496 0b4b 38000000 		.4byte	timeout_counter.6420
 8497 0b4f 27       		.uleb128 0x27
 8498 0b50 76000000 		.4byte	.LBB5
ARM GAS  C:\Users\SDEVAS~1\AppData\Local\Temp\cc8KFjZb.s 			page 168


 8499 0b54 FA010000 		.4byte	.LBE5-.LBB5
 8500 0b58 830B0000 		.4byte	0xb83
 8501 0b5c 1F       		.uleb128 0x1f
 8502 0b5d 7200     		.ascii	"r\000"
 8503 0b5f 01       		.byte	0x1
 8504 0b60 2502     		.2byte	0x225
 8505 0b62 68000000 		.4byte	0x68
 8506 0b66 02       		.uleb128 0x2
 8507 0b67 91       		.byte	0x91
 8508 0b68 68       		.sleb128 -24
 8509 0b69 16       		.uleb128 0x16
 8510 0b6a CE000000 		.4byte	.LBB6
 8511 0b6e A2010000 		.4byte	.LBE6-.LBB6
 8512 0b72 20       		.uleb128 0x20
 8513 0b73 AA0A0000 		.4byte	.LASF158
 8514 0b77 01       		.byte	0x1
 8515 0b78 2702     		.2byte	0x227
 8516 0b7a 90020000 		.4byte	0x290
 8517 0b7e 02       		.uleb128 0x2
 8518 0b7f 91       		.byte	0x91
 8519 0b80 6F       		.sleb128 -17
 8520 0b81 00       		.byte	0
 8521 0b82 00       		.byte	0
 8522 0b83 16       		.uleb128 0x16
 8523 0b84 1C030000 		.4byte	.LBB7
 8524 0b88 52020000 		.4byte	.LBE7-.LBB7
 8525 0b8c 20       		.uleb128 0x20
 8526 0b8d AA0A0000 		.4byte	.LASF158
 8527 0b91 01       		.byte	0x1
 8528 0b92 6F02     		.2byte	0x26f
 8529 0b94 90020000 		.4byte	0x290
 8530 0b98 02       		.uleb128 0x2
 8531 0b99 91       		.byte	0x91
 8532 0b9a 6E       		.sleb128 -18
 8533 0b9b 00       		.byte	0
 8534 0b9c 00       		.byte	0
 8535 0b9d 10       		.uleb128 0x10
 8536 0b9e B9000000 		.4byte	0xb9
 8537 0ba2 AD0B0000 		.4byte	0xbad
 8538 0ba6 28       		.uleb128 0x28
 8539 0ba7 AC000000 		.4byte	0xac
 8540 0bab 23       		.byte	0x23
 8541 0bac 00       		.byte	0
 8542 0bad 17       		.uleb128 0x17
 8543 0bae 1B030000 		.4byte	.LASF159
 8544 0bb2 01       		.byte	0x1
 8545 0bb3 53       		.byte	0x53
 8546 0bb4 9D0B0000 		.4byte	0xb9d
 8547 0bb8 05       		.uleb128 0x5
 8548 0bb9 03       		.byte	0x3
 8549 0bba 2C000000 		.4byte	atom_variables_id_strings
 8550 0bbe 10       		.uleb128 0x10
 8551 0bbf B9000000 		.4byte	0xb9
 8552 0bc3 CE0B0000 		.4byte	0xbce
 8553 0bc7 28       		.uleb128 0x28
 8554 0bc8 AC000000 		.4byte	0xac
 8555 0bcc 03       		.byte	0x3
ARM GAS  C:\Users\SDEVAS~1\AppData\Local\Temp\cc8KFjZb.s 			page 169


 8556 0bcd 00       		.byte	0
 8557 0bce 17       		.uleb128 0x17
 8558 0bcf CF0A0000 		.4byte	.LASF160
 8559 0bd3 01       		.byte	0x1
 8560 0bd4 6B       		.byte	0x6b
 8561 0bd5 BE0B0000 		.4byte	0xbbe
 8562 0bd9 05       		.uleb128 0x5
 8563 0bda 03       		.byte	0x3
 8564 0bdb BC000000 		.4byte	atom_modes_strings
 8565 0bdf 17       		.uleb128 0x17
 8566 0be0 5E000000 		.4byte	.LASF40
 8567 0be4 01       		.byte	0x1
 8568 0be5 C2       		.byte	0xc2
 8569 0be6 90020000 		.4byte	0x290
 8570 0bea 05       		.uleb128 0x5
 8571 0beb 03       		.byte	0x3
 8572 0bec 00000000 		.4byte	flags
 8573 0bf0 17       		.uleb128 0x17
 8574 0bf1 C0040000 		.4byte	.LASF118
 8575 0bf5 01       		.byte	0x1
 8576 0bf6 C3       		.byte	0xc3
 8577 0bf7 B9000000 		.4byte	0xb9
 8578 0bfb 05       		.uleb128 0x5
 8579 0bfc 03       		.byte	0x3
 8580 0bfd 04000000 		.4byte	order
 8581 0c01 17       		.uleb128 0x17
 8582 0c02 DD030000 		.4byte	.LASF119
 8583 0c06 01       		.byte	0x1
 8584 0c07 C4       		.byte	0xc4
 8585 0c08 68000000 		.4byte	0x68
 8586 0c0c 05       		.uleb128 0x5
 8587 0c0d 03       		.byte	0x3
 8588 0c0e 08000000 		.4byte	orderLen
 8589 0c12 17       		.uleb128 0x17
 8590 0c13 CC050000 		.4byte	.LASF124
 8591 0c17 01       		.byte	0x1
 8592 0c18 C5       		.byte	0xc5
 8593 0c19 B9000000 		.4byte	0xb9
 8594 0c1d 05       		.uleb128 0x5
 8595 0c1e 03       		.byte	0x3
 8596 0c1f 0C000000 		.4byte	payload
 8597 0c23 17       		.uleb128 0x17
 8598 0c24 F8080000 		.4byte	.LASF125
 8599 0c28 01       		.byte	0x1
 8600 0c29 C6       		.byte	0xc6
 8601 0c2a 68000000 		.4byte	0x68
 8602 0c2e 05       		.uleb128 0x5
 8603 0c2f 03       		.byte	0x3
 8604 0c30 10000000 		.4byte	payloadLen
 8605 0c34 17       		.uleb128 0x17
 8606 0c35 83030000 		.4byte	.LASF161
 8607 0c39 01       		.byte	0x1
 8608 0c3a C8       		.byte	0xc8
 8609 0c3b B9000000 		.4byte	0xb9
 8610 0c3f 05       		.uleb128 0x5
 8611 0c40 03       		.byte	0x3
 8612 0c41 14000000 		.4byte	msgSource
ARM GAS  C:\Users\SDEVAS~1\AppData\Local\Temp\cc8KFjZb.s 			page 170


 8613 0c45 17       		.uleb128 0x17
 8614 0c46 B40B0000 		.4byte	.LASF162
 8615 0c4a 01       		.byte	0x1
 8616 0c4b C9       		.byte	0xc9
 8617 0c4c 68000000 		.4byte	0x68
 8618 0c50 05       		.uleb128 0x5
 8619 0c51 03       		.byte	0x3
 8620 0c52 18000000 		.4byte	msgSourceLen
 8621 0c56 17       		.uleb128 0x17
 8622 0c57 660B0000 		.4byte	.LASF163
 8623 0c5b 01       		.byte	0x1
 8624 0c5c CA       		.byte	0xca
 8625 0c5d B9000000 		.4byte	0xb9
 8626 0c61 05       		.uleb128 0x5
 8627 0c62 03       		.byte	0x3
 8628 0c63 1C000000 		.4byte	msgDest
 8629 0c67 17       		.uleb128 0x17
 8630 0c68 E9020000 		.4byte	.LASF164
 8631 0c6c 01       		.byte	0x1
 8632 0c6d CB       		.byte	0xcb
 8633 0c6e 68000000 		.4byte	0x68
 8634 0c72 05       		.uleb128 0x5
 8635 0c73 03       		.byte	0x3
 8636 0c74 20000000 		.4byte	msgDestLen
 8637 0c78 17       		.uleb128 0x17
 8638 0c79 3D000000 		.4byte	.LASF165
 8639 0c7d 01       		.byte	0x1
 8640 0c7e CE       		.byte	0xce
 8641 0c7f 6C010000 		.4byte	0x16c
 8642 0c83 05       		.uleb128 0x5
 8643 0c84 03       		.byte	0x3
 8644 0c85 24000000 		.4byte	parser
 8645 0c89 20       		.uleb128 0x20
 8646 0c8a E6030000 		.4byte	.LASF166
 8647 0c8e 01       		.byte	0x1
 8648 0c8f 0502     		.2byte	0x205
 8649 0c91 76000000 		.4byte	0x76
 8650 0c95 05       		.uleb128 0x5
 8651 0c96 03       		.byte	0x3
 8652 0c97 30000000 		.4byte	sendingTicks
 8653 0c9b 29       		.uleb128 0x29
 8654 0c9c 6E020000 		.4byte	.LASF167
 8655 0ca0 01       		.byte	0x1
 8656 0ca1 13       		.byte	0x13
 8657 0ca2 58020000 		.4byte	0x258
 8658 0ca6 05       		.uleb128 0x5
 8659 0ca7 03       		.byte	0x3
 8660 0ca8 00000000 		.4byte	comm
 8661 0cac 29       		.uleb128 0x29
 8662 0cad 440C0000 		.4byte	.LASF168
 8663 0cb1 01       		.byte	0x1
 8664 0cb2 15       		.byte	0x15
 8665 0cb3 47020000 		.4byte	0x247
 8666 0cb7 05       		.uleb128 0x5
 8667 0cb8 03       		.byte	0x3
 8668 0cb9 00000000 		.4byte	respBuff
 8669 0cbd 29       		.uleb128 0x29
ARM GAS  C:\Users\SDEVAS~1\AppData\Local\Temp\cc8KFjZb.s 			page 171


 8670 0cbe 21040000 		.4byte	.LASF169
 8671 0cc2 01       		.byte	0x1
 8672 0cc3 16       		.byte	0x16
 8673 0cc4 B3000000 		.4byte	0xb3
 8674 0cc8 05       		.uleb128 0x5
 8675 0cc9 03       		.byte	0x3
 8676 0cca 00000000 		.4byte	respEnd
 8677 0cce 29       		.uleb128 0x29
 8678 0ccf 13040000 		.4byte	.LASF170
 8679 0cd3 01       		.byte	0x1
 8680 0cd4 17       		.byte	0x17
 8681 0cd5 68000000 		.4byte	0x68
 8682 0cd9 05       		.uleb128 0x5
 8683 0cda 03       		.byte	0x3
 8684 0cdb 00000000 		.4byte	respFreeSpace
 8685 0cdf 10       		.uleb128 0x10
 8686 0ce0 A5000000 		.4byte	0xa5
 8687 0ce4 EF0C0000 		.4byte	0xcef
 8688 0ce8 28       		.uleb128 0x28
 8689 0ce9 AC000000 		.4byte	0xac
 8690 0ced 1B       		.byte	0x1b
 8691 0cee 00       		.byte	0
 8692 0cef 29       		.uleb128 0x29
 8693 0cf0 D1090000 		.4byte	.LASF171
 8694 0cf4 01       		.byte	0x1
 8695 0cf5 1C       		.byte	0x1c
 8696 0cf6 DF0C0000 		.4byte	0xcdf
 8697 0cfa 05       		.uleb128 0x5
 8698 0cfb 03       		.byte	0x3
 8699 0cfc 00000000 		.4byte	msgDestinationHolder
 8700 0d00 29       		.uleb128 0x29
 8701 0d01 63060000 		.4byte	.LASF172
 8702 0d05 01       		.byte	0x1
 8703 0d06 1D       		.byte	0x1d
 8704 0d07 B3000000 		.4byte	0xb3
 8705 0d0b 05       		.uleb128 0x5
 8706 0d0c 03       		.byte	0x3
 8707 0d0d 00000000 		.4byte	msgDestinationHolderAtomType
 8708 0d11 29       		.uleb128 0x29
 8709 0d12 7C040000 		.4byte	.LASF173
 8710 0d16 01       		.byte	0x1
 8711 0d17 1E       		.byte	0x1e
 8712 0d18 B3000000 		.4byte	0xb3
 8713 0d1c 05       		.uleb128 0x5
 8714 0d1d 03       		.byte	0x3
 8715 0d1e 00000000 		.4byte	msgDestinationHolderAtomId
 8716 0d22 10       		.uleb128 0x10
 8717 0d23 34010000 		.4byte	0x134
 8718 0d27 320D0000 		.4byte	0xd32
 8719 0d2b 28       		.uleb128 0x28
 8720 0d2c AC000000 		.4byte	0xac
 8721 0d30 3B       		.byte	0x3b
 8722 0d31 00       		.byte	0
 8723 0d32 29       		.uleb128 0x29
 8724 0d33 55020000 		.4byte	.LASF113
 8725 0d37 01       		.byte	0x1
 8726 0d38 CF       		.byte	0xcf
ARM GAS  C:\Users\SDEVAS~1\AppData\Local\Temp\cc8KFjZb.s 			page 172


 8727 0d39 220D0000 		.4byte	0xd22
 8728 0d3d 05       		.uleb128 0x5
 8729 0d3e 03       		.byte	0x3
 8730 0d3f 00000000 		.4byte	tokens
 8731 0d43 00       		.byte	0
 8732              		.section	.debug_abbrev,"",%progbits
 8733              	.Ldebug_abbrev0:
 8734 0000 01       		.uleb128 0x1
 8735 0001 11       		.uleb128 0x11
 8736 0002 01       		.byte	0x1
 8737 0003 25       		.uleb128 0x25
 8738 0004 0E       		.uleb128 0xe
 8739 0005 13       		.uleb128 0x13
 8740 0006 0B       		.uleb128 0xb
 8741 0007 03       		.uleb128 0x3
 8742 0008 0E       		.uleb128 0xe
 8743 0009 1B       		.uleb128 0x1b
 8744 000a 0E       		.uleb128 0xe
 8745 000b 55       		.uleb128 0x55
 8746 000c 17       		.uleb128 0x17
 8747 000d 11       		.uleb128 0x11
 8748 000e 01       		.uleb128 0x1
 8749 000f 10       		.uleb128 0x10
 8750 0010 17       		.uleb128 0x17
 8751 0011 00       		.byte	0
 8752 0012 00       		.byte	0
 8753 0013 02       		.uleb128 0x2
 8754 0014 24       		.uleb128 0x24
 8755 0015 00       		.byte	0
 8756 0016 0B       		.uleb128 0xb
 8757 0017 0B       		.uleb128 0xb
 8758 0018 3E       		.uleb128 0x3e
 8759 0019 0B       		.uleb128 0xb
 8760 001a 03       		.uleb128 0x3
 8761 001b 0E       		.uleb128 0xe
 8762 001c 00       		.byte	0
 8763 001d 00       		.byte	0
 8764 001e 03       		.uleb128 0x3
 8765 001f 16       		.uleb128 0x16
 8766 0020 00       		.byte	0
 8767 0021 03       		.uleb128 0x3
 8768 0022 0E       		.uleb128 0xe
 8769 0023 3A       		.uleb128 0x3a
 8770 0024 0B       		.uleb128 0xb
 8771 0025 3B       		.uleb128 0x3b
 8772 0026 0B       		.uleb128 0xb
 8773 0027 49       		.uleb128 0x49
 8774 0028 13       		.uleb128 0x13
 8775 0029 00       		.byte	0
 8776 002a 00       		.byte	0
 8777 002b 04       		.uleb128 0x4
 8778 002c 24       		.uleb128 0x24
 8779 002d 00       		.byte	0
 8780 002e 0B       		.uleb128 0xb
 8781 002f 0B       		.uleb128 0xb
 8782 0030 3E       		.uleb128 0x3e
 8783 0031 0B       		.uleb128 0xb
ARM GAS  C:\Users\SDEVAS~1\AppData\Local\Temp\cc8KFjZb.s 			page 173


 8784 0032 03       		.uleb128 0x3
 8785 0033 08       		.uleb128 0x8
 8786 0034 00       		.byte	0
 8787 0035 00       		.byte	0
 8788 0036 05       		.uleb128 0x5
 8789 0037 0F       		.uleb128 0xf
 8790 0038 00       		.byte	0
 8791 0039 0B       		.uleb128 0xb
 8792 003a 0B       		.uleb128 0xb
 8793 003b 49       		.uleb128 0x49
 8794 003c 13       		.uleb128 0x13
 8795 003d 00       		.byte	0
 8796 003e 00       		.byte	0
 8797 003f 06       		.uleb128 0x6
 8798 0040 26       		.uleb128 0x26
 8799 0041 00       		.byte	0
 8800 0042 49       		.uleb128 0x49
 8801 0043 13       		.uleb128 0x13
 8802 0044 00       		.byte	0
 8803 0045 00       		.byte	0
 8804 0046 07       		.uleb128 0x7
 8805 0047 04       		.uleb128 0x4
 8806 0048 01       		.byte	0x1
 8807 0049 0B       		.uleb128 0xb
 8808 004a 0B       		.uleb128 0xb
 8809 004b 3A       		.uleb128 0x3a
 8810 004c 0B       		.uleb128 0xb
 8811 004d 3B       		.uleb128 0x3b
 8812 004e 0B       		.uleb128 0xb
 8813 004f 01       		.uleb128 0x1
 8814 0050 13       		.uleb128 0x13
 8815 0051 00       		.byte	0
 8816 0052 00       		.byte	0
 8817 0053 08       		.uleb128 0x8
 8818 0054 28       		.uleb128 0x28
 8819 0055 00       		.byte	0
 8820 0056 03       		.uleb128 0x3
 8821 0057 0E       		.uleb128 0xe
 8822 0058 1C       		.uleb128 0x1c
 8823 0059 0D       		.uleb128 0xd
 8824 005a 00       		.byte	0
 8825 005b 00       		.byte	0
 8826 005c 09       		.uleb128 0x9
 8827 005d 13       		.uleb128 0x13
 8828 005e 01       		.byte	0x1
 8829 005f 0B       		.uleb128 0xb
 8830 0060 0B       		.uleb128 0xb
 8831 0061 3A       		.uleb128 0x3a
 8832 0062 0B       		.uleb128 0xb
 8833 0063 3B       		.uleb128 0x3b
 8834 0064 0B       		.uleb128 0xb
 8835 0065 01       		.uleb128 0x1
 8836 0066 13       		.uleb128 0x13
 8837 0067 00       		.byte	0
 8838 0068 00       		.byte	0
 8839 0069 0A       		.uleb128 0xa
 8840 006a 0D       		.uleb128 0xd
ARM GAS  C:\Users\SDEVAS~1\AppData\Local\Temp\cc8KFjZb.s 			page 174


 8841 006b 00       		.byte	0
 8842 006c 03       		.uleb128 0x3
 8843 006d 0E       		.uleb128 0xe
 8844 006e 3A       		.uleb128 0x3a
 8845 006f 0B       		.uleb128 0xb
 8846 0070 3B       		.uleb128 0x3b
 8847 0071 0B       		.uleb128 0xb
 8848 0072 49       		.uleb128 0x49
 8849 0073 13       		.uleb128 0x13
 8850 0074 38       		.uleb128 0x38
 8851 0075 0B       		.uleb128 0xb
 8852 0076 00       		.byte	0
 8853 0077 00       		.byte	0
 8854 0078 0B       		.uleb128 0xb
 8855 0079 0D       		.uleb128 0xd
 8856 007a 00       		.byte	0
 8857 007b 03       		.uleb128 0x3
 8858 007c 08       		.uleb128 0x8
 8859 007d 3A       		.uleb128 0x3a
 8860 007e 0B       		.uleb128 0xb
 8861 007f 3B       		.uleb128 0x3b
 8862 0080 0B       		.uleb128 0xb
 8863 0081 49       		.uleb128 0x49
 8864 0082 13       		.uleb128 0x13
 8865 0083 38       		.uleb128 0x38
 8866 0084 0B       		.uleb128 0xb
 8867 0085 00       		.byte	0
 8868 0086 00       		.byte	0
 8869 0087 0C       		.uleb128 0xc
 8870 0088 0D       		.uleb128 0xd
 8871 0089 00       		.byte	0
 8872 008a 03       		.uleb128 0x3
 8873 008b 0E       		.uleb128 0xe
 8874 008c 3A       		.uleb128 0x3a
 8875 008d 0B       		.uleb128 0xb
 8876 008e 3B       		.uleb128 0x3b
 8877 008f 0B       		.uleb128 0xb
 8878 0090 49       		.uleb128 0x49
 8879 0091 13       		.uleb128 0x13
 8880 0092 0B       		.uleb128 0xb
 8881 0093 0B       		.uleb128 0xb
 8882 0094 0D       		.uleb128 0xd
 8883 0095 0B       		.uleb128 0xb
 8884 0096 0C       		.uleb128 0xc
 8885 0097 0B       		.uleb128 0xb
 8886 0098 38       		.uleb128 0x38
 8887 0099 0B       		.uleb128 0xb
 8888 009a 00       		.byte	0
 8889 009b 00       		.byte	0
 8890 009c 0D       		.uleb128 0xd
 8891 009d 13       		.uleb128 0x13
 8892 009e 01       		.byte	0x1
 8893 009f 0B       		.uleb128 0xb
 8894 00a0 05       		.uleb128 0x5
 8895 00a1 3A       		.uleb128 0x3a
 8896 00a2 0B       		.uleb128 0xb
 8897 00a3 3B       		.uleb128 0x3b
ARM GAS  C:\Users\SDEVAS~1\AppData\Local\Temp\cc8KFjZb.s 			page 175


 8898 00a4 0B       		.uleb128 0xb
 8899 00a5 01       		.uleb128 0x1
 8900 00a6 13       		.uleb128 0x13
 8901 00a7 00       		.byte	0
 8902 00a8 00       		.byte	0
 8903 00a9 0E       		.uleb128 0xe
 8904 00aa 0D       		.uleb128 0xd
 8905 00ab 00       		.byte	0
 8906 00ac 03       		.uleb128 0x3
 8907 00ad 08       		.uleb128 0x8
 8908 00ae 3A       		.uleb128 0x3a
 8909 00af 0B       		.uleb128 0xb
 8910 00b0 3B       		.uleb128 0x3b
 8911 00b1 0B       		.uleb128 0xb
 8912 00b2 49       		.uleb128 0x49
 8913 00b3 13       		.uleb128 0x13
 8914 00b4 38       		.uleb128 0x38
 8915 00b5 05       		.uleb128 0x5
 8916 00b6 00       		.byte	0
 8917 00b7 00       		.byte	0
 8918 00b8 0F       		.uleb128 0xf
 8919 00b9 0D       		.uleb128 0xd
 8920 00ba 00       		.byte	0
 8921 00bb 03       		.uleb128 0x3
 8922 00bc 0E       		.uleb128 0xe
 8923 00bd 3A       		.uleb128 0x3a
 8924 00be 0B       		.uleb128 0xb
 8925 00bf 3B       		.uleb128 0x3b
 8926 00c0 0B       		.uleb128 0xb
 8927 00c1 49       		.uleb128 0x49
 8928 00c2 13       		.uleb128 0x13
 8929 00c3 38       		.uleb128 0x38
 8930 00c4 05       		.uleb128 0x5
 8931 00c5 00       		.byte	0
 8932 00c6 00       		.byte	0
 8933 00c7 10       		.uleb128 0x10
 8934 00c8 01       		.uleb128 0x1
 8935 00c9 01       		.byte	0x1
 8936 00ca 49       		.uleb128 0x49
 8937 00cb 13       		.uleb128 0x13
 8938 00cc 01       		.uleb128 0x1
 8939 00cd 13       		.uleb128 0x13
 8940 00ce 00       		.byte	0
 8941 00cf 00       		.byte	0
 8942 00d0 11       		.uleb128 0x11
 8943 00d1 21       		.uleb128 0x21
 8944 00d2 00       		.byte	0
 8945 00d3 49       		.uleb128 0x49
 8946 00d4 13       		.uleb128 0x13
 8947 00d5 2F       		.uleb128 0x2f
 8948 00d6 05       		.uleb128 0x5
 8949 00d7 00       		.byte	0
 8950 00d8 00       		.byte	0
 8951 00d9 12       		.uleb128 0x12
 8952 00da 2E       		.uleb128 0x2e
 8953 00db 01       		.byte	0x1
 8954 00dc 03       		.uleb128 0x3
ARM GAS  C:\Users\SDEVAS~1\AppData\Local\Temp\cc8KFjZb.s 			page 176


 8955 00dd 0E       		.uleb128 0xe
 8956 00de 3A       		.uleb128 0x3a
 8957 00df 0B       		.uleb128 0xb
 8958 00e0 3B       		.uleb128 0x3b
 8959 00e1 0B       		.uleb128 0xb
 8960 00e2 27       		.uleb128 0x27
 8961 00e3 19       		.uleb128 0x19
 8962 00e4 49       		.uleb128 0x49
 8963 00e5 13       		.uleb128 0x13
 8964 00e6 11       		.uleb128 0x11
 8965 00e7 01       		.uleb128 0x1
 8966 00e8 12       		.uleb128 0x12
 8967 00e9 06       		.uleb128 0x6
 8968 00ea 40       		.uleb128 0x40
 8969 00eb 18       		.uleb128 0x18
 8970 00ec 9642     		.uleb128 0x2116
 8971 00ee 19       		.uleb128 0x19
 8972 00ef 01       		.uleb128 0x1
 8973 00f0 13       		.uleb128 0x13
 8974 00f1 00       		.byte	0
 8975 00f2 00       		.byte	0
 8976 00f3 13       		.uleb128 0x13
 8977 00f4 05       		.uleb128 0x5
 8978 00f5 00       		.byte	0
 8979 00f6 03       		.uleb128 0x3
 8980 00f7 08       		.uleb128 0x8
 8981 00f8 3A       		.uleb128 0x3a
 8982 00f9 0B       		.uleb128 0xb
 8983 00fa 3B       		.uleb128 0x3b
 8984 00fb 0B       		.uleb128 0xb
 8985 00fc 49       		.uleb128 0x49
 8986 00fd 13       		.uleb128 0x13
 8987 00fe 02       		.uleb128 0x2
 8988 00ff 18       		.uleb128 0x18
 8989 0100 00       		.byte	0
 8990 0101 00       		.byte	0
 8991 0102 14       		.uleb128 0x14
 8992 0103 05       		.uleb128 0x5
 8993 0104 00       		.byte	0
 8994 0105 03       		.uleb128 0x3
 8995 0106 0E       		.uleb128 0xe
 8996 0107 3A       		.uleb128 0x3a
 8997 0108 0B       		.uleb128 0xb
 8998 0109 3B       		.uleb128 0x3b
 8999 010a 0B       		.uleb128 0xb
 9000 010b 49       		.uleb128 0x49
 9001 010c 13       		.uleb128 0x13
 9002 010d 02       		.uleb128 0x2
 9003 010e 18       		.uleb128 0x18
 9004 010f 00       		.byte	0
 9005 0110 00       		.byte	0
 9006 0111 15       		.uleb128 0x15
 9007 0112 2E       		.uleb128 0x2e
 9008 0113 01       		.byte	0x1
 9009 0114 03       		.uleb128 0x3
 9010 0115 0E       		.uleb128 0xe
 9011 0116 3A       		.uleb128 0x3a
ARM GAS  C:\Users\SDEVAS~1\AppData\Local\Temp\cc8KFjZb.s 			page 177


 9012 0117 0B       		.uleb128 0xb
 9013 0118 3B       		.uleb128 0x3b
 9014 0119 0B       		.uleb128 0xb
 9015 011a 27       		.uleb128 0x27
 9016 011b 19       		.uleb128 0x19
 9017 011c 49       		.uleb128 0x49
 9018 011d 13       		.uleb128 0x13
 9019 011e 11       		.uleb128 0x11
 9020 011f 01       		.uleb128 0x1
 9021 0120 12       		.uleb128 0x12
 9022 0121 06       		.uleb128 0x6
 9023 0122 40       		.uleb128 0x40
 9024 0123 18       		.uleb128 0x18
 9025 0124 9742     		.uleb128 0x2117
 9026 0126 19       		.uleb128 0x19
 9027 0127 01       		.uleb128 0x1
 9028 0128 13       		.uleb128 0x13
 9029 0129 00       		.byte	0
 9030 012a 00       		.byte	0
 9031 012b 16       		.uleb128 0x16
 9032 012c 0B       		.uleb128 0xb
 9033 012d 01       		.byte	0x1
 9034 012e 11       		.uleb128 0x11
 9035 012f 01       		.uleb128 0x1
 9036 0130 12       		.uleb128 0x12
 9037 0131 06       		.uleb128 0x6
 9038 0132 00       		.byte	0
 9039 0133 00       		.byte	0
 9040 0134 17       		.uleb128 0x17
 9041 0135 34       		.uleb128 0x34
 9042 0136 00       		.byte	0
 9043 0137 03       		.uleb128 0x3
 9044 0138 0E       		.uleb128 0xe
 9045 0139 3A       		.uleb128 0x3a
 9046 013a 0B       		.uleb128 0xb
 9047 013b 3B       		.uleb128 0x3b
 9048 013c 0B       		.uleb128 0xb
 9049 013d 49       		.uleb128 0x49
 9050 013e 13       		.uleb128 0x13
 9051 013f 02       		.uleb128 0x2
 9052 0140 18       		.uleb128 0x18
 9053 0141 00       		.byte	0
 9054 0142 00       		.byte	0
 9055 0143 18       		.uleb128 0x18
 9056 0144 2E       		.uleb128 0x2e
 9057 0145 01       		.byte	0x1
 9058 0146 03       		.uleb128 0x3
 9059 0147 0E       		.uleb128 0xe
 9060 0148 3A       		.uleb128 0x3a
 9061 0149 0B       		.uleb128 0xb
 9062 014a 3B       		.uleb128 0x3b
 9063 014b 0B       		.uleb128 0xb
 9064 014c 27       		.uleb128 0x27
 9065 014d 19       		.uleb128 0x19
 9066 014e 11       		.uleb128 0x11
 9067 014f 01       		.uleb128 0x1
 9068 0150 12       		.uleb128 0x12
ARM GAS  C:\Users\SDEVAS~1\AppData\Local\Temp\cc8KFjZb.s 			page 178


 9069 0151 06       		.uleb128 0x6
 9070 0152 40       		.uleb128 0x40
 9071 0153 18       		.uleb128 0x18
 9072 0154 9642     		.uleb128 0x2116
 9073 0156 19       		.uleb128 0x19
 9074 0157 01       		.uleb128 0x1
 9075 0158 13       		.uleb128 0x13
 9076 0159 00       		.byte	0
 9077 015a 00       		.byte	0
 9078 015b 19       		.uleb128 0x19
 9079 015c 2E       		.uleb128 0x2e
 9080 015d 01       		.byte	0x1
 9081 015e 3F       		.uleb128 0x3f
 9082 015f 19       		.uleb128 0x19
 9083 0160 03       		.uleb128 0x3
 9084 0161 0E       		.uleb128 0xe
 9085 0162 3A       		.uleb128 0x3a
 9086 0163 0B       		.uleb128 0xb
 9087 0164 3B       		.uleb128 0x3b
 9088 0165 0B       		.uleb128 0xb
 9089 0166 27       		.uleb128 0x27
 9090 0167 19       		.uleb128 0x19
 9091 0168 11       		.uleb128 0x11
 9092 0169 01       		.uleb128 0x1
 9093 016a 12       		.uleb128 0x12
 9094 016b 06       		.uleb128 0x6
 9095 016c 40       		.uleb128 0x40
 9096 016d 18       		.uleb128 0x18
 9097 016e 9642     		.uleb128 0x2116
 9098 0170 19       		.uleb128 0x19
 9099 0171 01       		.uleb128 0x1
 9100 0172 13       		.uleb128 0x13
 9101 0173 00       		.byte	0
 9102 0174 00       		.byte	0
 9103 0175 1A       		.uleb128 0x1a
 9104 0176 34       		.uleb128 0x34
 9105 0177 00       		.byte	0
 9106 0178 03       		.uleb128 0x3
 9107 0179 08       		.uleb128 0x8
 9108 017a 3A       		.uleb128 0x3a
 9109 017b 0B       		.uleb128 0xb
 9110 017c 3B       		.uleb128 0x3b
 9111 017d 0B       		.uleb128 0xb
 9112 017e 49       		.uleb128 0x49
 9113 017f 13       		.uleb128 0x13
 9114 0180 02       		.uleb128 0x2
 9115 0181 18       		.uleb128 0x18
 9116 0182 00       		.byte	0
 9117 0183 00       		.byte	0
 9118 0184 1B       		.uleb128 0x1b
 9119 0185 2E       		.uleb128 0x2e
 9120 0186 01       		.byte	0x1
 9121 0187 3F       		.uleb128 0x3f
 9122 0188 19       		.uleb128 0x19
 9123 0189 03       		.uleb128 0x3
 9124 018a 0E       		.uleb128 0xe
 9125 018b 3A       		.uleb128 0x3a
ARM GAS  C:\Users\SDEVAS~1\AppData\Local\Temp\cc8KFjZb.s 			page 179


 9126 018c 0B       		.uleb128 0xb
 9127 018d 3B       		.uleb128 0x3b
 9128 018e 0B       		.uleb128 0xb
 9129 018f 27       		.uleb128 0x27
 9130 0190 19       		.uleb128 0x19
 9131 0191 49       		.uleb128 0x49
 9132 0192 13       		.uleb128 0x13
 9133 0193 11       		.uleb128 0x11
 9134 0194 01       		.uleb128 0x1
 9135 0195 12       		.uleb128 0x12
 9136 0196 06       		.uleb128 0x6
 9137 0197 40       		.uleb128 0x40
 9138 0198 18       		.uleb128 0x18
 9139 0199 9642     		.uleb128 0x2116
 9140 019b 19       		.uleb128 0x19
 9141 019c 01       		.uleb128 0x1
 9142 019d 13       		.uleb128 0x13
 9143 019e 00       		.byte	0
 9144 019f 00       		.byte	0
 9145 01a0 1C       		.uleb128 0x1c
 9146 01a1 2E       		.uleb128 0x2e
 9147 01a2 01       		.byte	0x1
 9148 01a3 3F       		.uleb128 0x3f
 9149 01a4 19       		.uleb128 0x19
 9150 01a5 03       		.uleb128 0x3
 9151 01a6 0E       		.uleb128 0xe
 9152 01a7 3A       		.uleb128 0x3a
 9153 01a8 0B       		.uleb128 0xb
 9154 01a9 3B       		.uleb128 0x3b
 9155 01aa 05       		.uleb128 0x5
 9156 01ab 27       		.uleb128 0x27
 9157 01ac 19       		.uleb128 0x19
 9158 01ad 49       		.uleb128 0x49
 9159 01ae 13       		.uleb128 0x13
 9160 01af 11       		.uleb128 0x11
 9161 01b0 01       		.uleb128 0x1
 9162 01b1 12       		.uleb128 0x12
 9163 01b2 06       		.uleb128 0x6
 9164 01b3 40       		.uleb128 0x40
 9165 01b4 18       		.uleb128 0x18
 9166 01b5 9642     		.uleb128 0x2116
 9167 01b7 19       		.uleb128 0x19
 9168 01b8 01       		.uleb128 0x1
 9169 01b9 13       		.uleb128 0x13
 9170 01ba 00       		.byte	0
 9171 01bb 00       		.byte	0
 9172 01bc 1D       		.uleb128 0x1d
 9173 01bd 05       		.uleb128 0x5
 9174 01be 00       		.byte	0
 9175 01bf 03       		.uleb128 0x3
 9176 01c0 0E       		.uleb128 0xe
 9177 01c1 3A       		.uleb128 0x3a
 9178 01c2 0B       		.uleb128 0xb
 9179 01c3 3B       		.uleb128 0x3b
 9180 01c4 05       		.uleb128 0x5
 9181 01c5 49       		.uleb128 0x49
 9182 01c6 13       		.uleb128 0x13
ARM GAS  C:\Users\SDEVAS~1\AppData\Local\Temp\cc8KFjZb.s 			page 180


 9183 01c7 02       		.uleb128 0x2
 9184 01c8 18       		.uleb128 0x18
 9185 01c9 00       		.byte	0
 9186 01ca 00       		.byte	0
 9187 01cb 1E       		.uleb128 0x1e
 9188 01cc 0A       		.uleb128 0xa
 9189 01cd 00       		.byte	0
 9190 01ce 03       		.uleb128 0x3
 9191 01cf 0E       		.uleb128 0xe
 9192 01d0 3A       		.uleb128 0x3a
 9193 01d1 0B       		.uleb128 0xb
 9194 01d2 3B       		.uleb128 0x3b
 9195 01d3 05       		.uleb128 0x5
 9196 01d4 11       		.uleb128 0x11
 9197 01d5 01       		.uleb128 0x1
 9198 01d6 00       		.byte	0
 9199 01d7 00       		.byte	0
 9200 01d8 1F       		.uleb128 0x1f
 9201 01d9 34       		.uleb128 0x34
 9202 01da 00       		.byte	0
 9203 01db 03       		.uleb128 0x3
 9204 01dc 08       		.uleb128 0x8
 9205 01dd 3A       		.uleb128 0x3a
 9206 01de 0B       		.uleb128 0xb
 9207 01df 3B       		.uleb128 0x3b
 9208 01e0 05       		.uleb128 0x5
 9209 01e1 49       		.uleb128 0x49
 9210 01e2 13       		.uleb128 0x13
 9211 01e3 02       		.uleb128 0x2
 9212 01e4 18       		.uleb128 0x18
 9213 01e5 00       		.byte	0
 9214 01e6 00       		.byte	0
 9215 01e7 20       		.uleb128 0x20
 9216 01e8 34       		.uleb128 0x34
 9217 01e9 00       		.byte	0
 9218 01ea 03       		.uleb128 0x3
 9219 01eb 0E       		.uleb128 0xe
 9220 01ec 3A       		.uleb128 0x3a
 9221 01ed 0B       		.uleb128 0xb
 9222 01ee 3B       		.uleb128 0x3b
 9223 01ef 05       		.uleb128 0x5
 9224 01f0 49       		.uleb128 0x49
 9225 01f1 13       		.uleb128 0x13
 9226 01f2 02       		.uleb128 0x2
 9227 01f3 18       		.uleb128 0x18
 9228 01f4 00       		.byte	0
 9229 01f5 00       		.byte	0
 9230 01f6 21       		.uleb128 0x21
 9231 01f7 2E       		.uleb128 0x2e
 9232 01f8 01       		.byte	0x1
 9233 01f9 03       		.uleb128 0x3
 9234 01fa 0E       		.uleb128 0xe
 9235 01fb 3A       		.uleb128 0x3a
 9236 01fc 0B       		.uleb128 0xb
 9237 01fd 3B       		.uleb128 0x3b
 9238 01fe 05       		.uleb128 0x5
 9239 01ff 27       		.uleb128 0x27
ARM GAS  C:\Users\SDEVAS~1\AppData\Local\Temp\cc8KFjZb.s 			page 181


 9240 0200 19       		.uleb128 0x19
 9241 0201 49       		.uleb128 0x49
 9242 0202 13       		.uleb128 0x13
 9243 0203 11       		.uleb128 0x11
 9244 0204 01       		.uleb128 0x1
 9245 0205 12       		.uleb128 0x12
 9246 0206 06       		.uleb128 0x6
 9247 0207 40       		.uleb128 0x40
 9248 0208 18       		.uleb128 0x18
 9249 0209 9742     		.uleb128 0x2117
 9250 020b 19       		.uleb128 0x19
 9251 020c 01       		.uleb128 0x1
 9252 020d 13       		.uleb128 0x13
 9253 020e 00       		.byte	0
 9254 020f 00       		.byte	0
 9255 0210 22       		.uleb128 0x22
 9256 0211 2E       		.uleb128 0x2e
 9257 0212 01       		.byte	0x1
 9258 0213 3F       		.uleb128 0x3f
 9259 0214 19       		.uleb128 0x19
 9260 0215 03       		.uleb128 0x3
 9261 0216 0E       		.uleb128 0xe
 9262 0217 3A       		.uleb128 0x3a
 9263 0218 0B       		.uleb128 0xb
 9264 0219 3B       		.uleb128 0x3b
 9265 021a 05       		.uleb128 0x5
 9266 021b 27       		.uleb128 0x27
 9267 021c 19       		.uleb128 0x19
 9268 021d 11       		.uleb128 0x11
 9269 021e 01       		.uleb128 0x1
 9270 021f 12       		.uleb128 0x12
 9271 0220 06       		.uleb128 0x6
 9272 0221 40       		.uleb128 0x40
 9273 0222 18       		.uleb128 0x18
 9274 0223 9742     		.uleb128 0x2117
 9275 0225 19       		.uleb128 0x19
 9276 0226 01       		.uleb128 0x1
 9277 0227 13       		.uleb128 0x13
 9278 0228 00       		.byte	0
 9279 0229 00       		.byte	0
 9280 022a 23       		.uleb128 0x23
 9281 022b 2E       		.uleb128 0x2e
 9282 022c 00       		.byte	0
 9283 022d 3F       		.uleb128 0x3f
 9284 022e 19       		.uleb128 0x19
 9285 022f 03       		.uleb128 0x3
 9286 0230 0E       		.uleb128 0xe
 9287 0231 3A       		.uleb128 0x3a
 9288 0232 0B       		.uleb128 0xb
 9289 0233 3B       		.uleb128 0x3b
 9290 0234 05       		.uleb128 0x5
 9291 0235 27       		.uleb128 0x27
 9292 0236 19       		.uleb128 0x19
 9293 0237 11       		.uleb128 0x11
 9294 0238 01       		.uleb128 0x1
 9295 0239 12       		.uleb128 0x12
 9296 023a 06       		.uleb128 0x6
ARM GAS  C:\Users\SDEVAS~1\AppData\Local\Temp\cc8KFjZb.s 			page 182


 9297 023b 40       		.uleb128 0x40
 9298 023c 18       		.uleb128 0x18
 9299 023d 9742     		.uleb128 0x2117
 9300 023f 19       		.uleb128 0x19
 9301 0240 00       		.byte	0
 9302 0241 00       		.byte	0
 9303 0242 24       		.uleb128 0x24
 9304 0243 05       		.uleb128 0x5
 9305 0244 00       		.byte	0
 9306 0245 03       		.uleb128 0x3
 9307 0246 08       		.uleb128 0x8
 9308 0247 3A       		.uleb128 0x3a
 9309 0248 0B       		.uleb128 0xb
 9310 0249 3B       		.uleb128 0x3b
 9311 024a 05       		.uleb128 0x5
 9312 024b 49       		.uleb128 0x49
 9313 024c 13       		.uleb128 0x13
 9314 024d 02       		.uleb128 0x2
 9315 024e 18       		.uleb128 0x18
 9316 024f 00       		.byte	0
 9317 0250 00       		.byte	0
 9318 0251 25       		.uleb128 0x25
 9319 0252 2E       		.uleb128 0x2e
 9320 0253 01       		.byte	0x1
 9321 0254 3F       		.uleb128 0x3f
 9322 0255 19       		.uleb128 0x19
 9323 0256 03       		.uleb128 0x3
 9324 0257 0E       		.uleb128 0xe
 9325 0258 3A       		.uleb128 0x3a
 9326 0259 0B       		.uleb128 0xb
 9327 025a 3B       		.uleb128 0x3b
 9328 025b 05       		.uleb128 0x5
 9329 025c 27       		.uleb128 0x27
 9330 025d 19       		.uleb128 0x19
 9331 025e 11       		.uleb128 0x11
 9332 025f 01       		.uleb128 0x1
 9333 0260 12       		.uleb128 0x12
 9334 0261 06       		.uleb128 0x6
 9335 0262 40       		.uleb128 0x40
 9336 0263 18       		.uleb128 0x18
 9337 0264 9642     		.uleb128 0x2116
 9338 0266 19       		.uleb128 0x19
 9339 0267 01       		.uleb128 0x1
 9340 0268 13       		.uleb128 0x13
 9341 0269 00       		.byte	0
 9342 026a 00       		.byte	0
 9343 026b 26       		.uleb128 0x26
 9344 026c 2E       		.uleb128 0x2e
 9345 026d 00       		.byte	0
 9346 026e 3F       		.uleb128 0x3f
 9347 026f 19       		.uleb128 0x19
 9348 0270 03       		.uleb128 0x3
 9349 0271 0E       		.uleb128 0xe
 9350 0272 3A       		.uleb128 0x3a
 9351 0273 0B       		.uleb128 0xb
 9352 0274 3B       		.uleb128 0x3b
 9353 0275 05       		.uleb128 0x5
ARM GAS  C:\Users\SDEVAS~1\AppData\Local\Temp\cc8KFjZb.s 			page 183


 9354 0276 27       		.uleb128 0x27
 9355 0277 19       		.uleb128 0x19
 9356 0278 11       		.uleb128 0x11
 9357 0279 01       		.uleb128 0x1
 9358 027a 12       		.uleb128 0x12
 9359 027b 06       		.uleb128 0x6
 9360 027c 40       		.uleb128 0x40
 9361 027d 18       		.uleb128 0x18
 9362 027e 9642     		.uleb128 0x2116
 9363 0280 19       		.uleb128 0x19
 9364 0281 00       		.byte	0
 9365 0282 00       		.byte	0
 9366 0283 27       		.uleb128 0x27
 9367 0284 0B       		.uleb128 0xb
 9368 0285 01       		.byte	0x1
 9369 0286 11       		.uleb128 0x11
 9370 0287 01       		.uleb128 0x1
 9371 0288 12       		.uleb128 0x12
 9372 0289 06       		.uleb128 0x6
 9373 028a 01       		.uleb128 0x1
 9374 028b 13       		.uleb128 0x13
 9375 028c 00       		.byte	0
 9376 028d 00       		.byte	0
 9377 028e 28       		.uleb128 0x28
 9378 028f 21       		.uleb128 0x21
 9379 0290 00       		.byte	0
 9380 0291 49       		.uleb128 0x49
 9381 0292 13       		.uleb128 0x13
 9382 0293 2F       		.uleb128 0x2f
 9383 0294 0B       		.uleb128 0xb
 9384 0295 00       		.byte	0
 9385 0296 00       		.byte	0
 9386 0297 29       		.uleb128 0x29
 9387 0298 34       		.uleb128 0x34
 9388 0299 00       		.byte	0
 9389 029a 03       		.uleb128 0x3
 9390 029b 0E       		.uleb128 0xe
 9391 029c 3A       		.uleb128 0x3a
 9392 029d 0B       		.uleb128 0xb
 9393 029e 3B       		.uleb128 0x3b
 9394 029f 0B       		.uleb128 0xb
 9395 02a0 49       		.uleb128 0x49
 9396 02a1 13       		.uleb128 0x13
 9397 02a2 3F       		.uleb128 0x3f
 9398 02a3 19       		.uleb128 0x19
 9399 02a4 02       		.uleb128 0x2
 9400 02a5 18       		.uleb128 0x18
 9401 02a6 00       		.byte	0
 9402 02a7 00       		.byte	0
 9403 02a8 00       		.byte	0
 9404              		.section	.debug_aranges,"",%progbits
 9405 0000 EC000000 		.4byte	0xec
 9406 0004 0200     		.2byte	0x2
 9407 0006 00000000 		.4byte	.Ldebug_info0
 9408 000a 04       		.byte	0x4
 9409 000b 00       		.byte	0
 9410 000c 0000     		.2byte	0
ARM GAS  C:\Users\SDEVAS~1\AppData\Local\Temp\cc8KFjZb.s 			page 184


 9411 000e 0000     		.2byte	0
 9412 0010 00000000 		.4byte	.LFB33
 9413 0014 AC000000 		.4byte	.LFE33-.LFB33
 9414 0018 00000000 		.4byte	.LFB34
 9415 001c 04010000 		.4byte	.LFE34-.LFB34
 9416 0020 00000000 		.4byte	.LFB35
 9417 0024 18040000 		.4byte	.LFE35-.LFB35
 9418 0028 00000000 		.4byte	.LFB36
 9419 002c 88000000 		.4byte	.LFE36-.LFB36
 9420 0030 00000000 		.4byte	.LFB37
 9421 0034 48000000 		.4byte	.LFE37-.LFB37
 9422 0038 00000000 		.4byte	.LFB38
 9423 003c 5A000000 		.4byte	.LFE38-.LFB38
 9424 0040 00000000 		.4byte	.LFB39
 9425 0044 48010000 		.4byte	.LFE39-.LFB39
 9426 0048 00000000 		.4byte	.LFB40
 9427 004c 90000000 		.4byte	.LFE40-.LFB40
 9428 0050 00000000 		.4byte	.LFB41
 9429 0054 10040000 		.4byte	.LFE41-.LFB41
 9430 0058 00000000 		.4byte	.LFB42
 9431 005c 080C0000 		.4byte	.LFE42-.LFB42
 9432 0060 00000000 		.4byte	.LFB43
 9433 0064 BC080000 		.4byte	.LFE43-.LFB43
 9434 0068 00000000 		.4byte	.LFB44
 9435 006c 90000000 		.4byte	.LFE44-.LFB44
 9436 0070 00000000 		.4byte	.LFB45
 9437 0074 90000000 		.4byte	.LFE45-.LFB45
 9438 0078 00000000 		.4byte	.LFB46
 9439 007c B8000000 		.4byte	.LFE46-.LFB46
 9440 0080 00000000 		.4byte	.LFB47
 9441 0084 30000000 		.4byte	.LFE47-.LFB47
 9442 0088 00000000 		.4byte	.LFB48
 9443 008c 20000000 		.4byte	.LFE48-.LFB48
 9444 0090 00000000 		.4byte	.LFB49
 9445 0094 28000000 		.4byte	.LFE49-.LFB49
 9446 0098 00000000 		.4byte	.LFB50
 9447 009c 2C000000 		.4byte	.LFE50-.LFB50
 9448 00a0 00000000 		.4byte	.LFB51
 9449 00a4 24000000 		.4byte	.LFE51-.LFB51
 9450 00a8 00000000 		.4byte	.LFB52
 9451 00ac 18000000 		.4byte	.LFE52-.LFB52
 9452 00b0 00000000 		.4byte	.LFB53
 9453 00b4 18000000 		.4byte	.LFE53-.LFB53
 9454 00b8 00000000 		.4byte	.LFB54
 9455 00bc 18000000 		.4byte	.LFE54-.LFB54
 9456 00c0 00000000 		.4byte	.LFB55
 9457 00c4 18000000 		.4byte	.LFE55-.LFB55
 9458 00c8 00000000 		.4byte	.LFB56
 9459 00cc 78000000 		.4byte	.LFE56-.LFB56
 9460 00d0 00000000 		.4byte	.LFB57
 9461 00d4 84000000 		.4byte	.LFE57-.LFB57
 9462 00d8 00000000 		.4byte	.LFB58
 9463 00dc 60000000 		.4byte	.LFE58-.LFB58
 9464 00e0 00000000 		.4byte	.LFB59
 9465 00e4 C0050000 		.4byte	.LFE59-.LFB59
 9466 00e8 00000000 		.4byte	0
 9467 00ec 00000000 		.4byte	0
ARM GAS  C:\Users\SDEVAS~1\AppData\Local\Temp\cc8KFjZb.s 			page 185


 9468              		.section	.debug_ranges,"",%progbits
 9469              	.Ldebug_ranges0:
 9470 0000 00000000 		.4byte	.LFB33
 9471 0004 AC000000 		.4byte	.LFE33
 9472 0008 00000000 		.4byte	.LFB34
 9473 000c 04010000 		.4byte	.LFE34
 9474 0010 00000000 		.4byte	.LFB35
 9475 0014 18040000 		.4byte	.LFE35
 9476 0018 00000000 		.4byte	.LFB36
 9477 001c 88000000 		.4byte	.LFE36
 9478 0020 00000000 		.4byte	.LFB37
 9479 0024 48000000 		.4byte	.LFE37
 9480 0028 00000000 		.4byte	.LFB38
 9481 002c 5A000000 		.4byte	.LFE38
 9482 0030 00000000 		.4byte	.LFB39
 9483 0034 48010000 		.4byte	.LFE39
 9484 0038 00000000 		.4byte	.LFB40
 9485 003c 90000000 		.4byte	.LFE40
 9486 0040 00000000 		.4byte	.LFB41
 9487 0044 10040000 		.4byte	.LFE41
 9488 0048 00000000 		.4byte	.LFB42
 9489 004c 080C0000 		.4byte	.LFE42
 9490 0050 00000000 		.4byte	.LFB43
 9491 0054 BC080000 		.4byte	.LFE43
 9492 0058 00000000 		.4byte	.LFB44
 9493 005c 90000000 		.4byte	.LFE44
 9494 0060 00000000 		.4byte	.LFB45
 9495 0064 90000000 		.4byte	.LFE45
 9496 0068 00000000 		.4byte	.LFB46
 9497 006c B8000000 		.4byte	.LFE46
 9498 0070 00000000 		.4byte	.LFB47
 9499 0074 30000000 		.4byte	.LFE47
 9500 0078 00000000 		.4byte	.LFB48
 9501 007c 20000000 		.4byte	.LFE48
 9502 0080 00000000 		.4byte	.LFB49
 9503 0084 28000000 		.4byte	.LFE49
 9504 0088 00000000 		.4byte	.LFB50
 9505 008c 2C000000 		.4byte	.LFE50
 9506 0090 00000000 		.4byte	.LFB51
 9507 0094 24000000 		.4byte	.LFE51
 9508 0098 00000000 		.4byte	.LFB52
 9509 009c 18000000 		.4byte	.LFE52
 9510 00a0 00000000 		.4byte	.LFB53
 9511 00a4 18000000 		.4byte	.LFE53
 9512 00a8 00000000 		.4byte	.LFB54
 9513 00ac 18000000 		.4byte	.LFE54
 9514 00b0 00000000 		.4byte	.LFB55
 9515 00b4 18000000 		.4byte	.LFE55
 9516 00b8 00000000 		.4byte	.LFB56
 9517 00bc 78000000 		.4byte	.LFE56
 9518 00c0 00000000 		.4byte	.LFB57
 9519 00c4 84000000 		.4byte	.LFE57
 9520 00c8 00000000 		.4byte	.LFB58
 9521 00cc 60000000 		.4byte	.LFE58
 9522 00d0 00000000 		.4byte	.LFB59
 9523 00d4 C0050000 		.4byte	.LFE59
 9524 00d8 00000000 		.4byte	0
ARM GAS  C:\Users\SDEVAS~1\AppData\Local\Temp\cc8KFjZb.s 			page 186


 9525 00dc 00000000 		.4byte	0
 9526              		.section	.debug_line,"",%progbits
 9527              	.Ldebug_line0:
 9528 0000 4A080000 		.section	.debug_str,"MS",%progbits,1
 9528      02007B01 
 9528      00000201 
 9528      FB0E0D00 
 9528      01010101 
 9529              	.LASF110:
 9530 0000 636F6D70 		.ascii	"compKey\000"
 9530      4B657900 
 9531              	.LASF48:
 9532 0008 434F4D4D 		.ascii	"COMM_FLAG_ACK\000"
 9532      5F464C41 
 9532      475F4143 
 9532      4B00
 9533              	.LASF135:
 9534 0016 636F6D6D 		.ascii	"comm_handle_Mode\000"
 9534      5F68616E 
 9534      646C655F 
 9534      4D6F6465 
 9534      00
 9535              	.LASF31:
 9536 0027 53454E54 		.ascii	"SENT\000"
 9536      00
 9537              	.LASF133:
 9538 002c 636F6D6D 		.ascii	"comm_handle_Info\000"
 9538      5F68616E 
 9538      646C655F 
 9538      496E666F 
 9538      00
 9539              	.LASF165:
 9540 003d 70617273 		.ascii	"parser\000"
 9540      657200
 9541              	.LASF142:
 9542 0044 62795768 		.ascii	"byWho\000"
 9542      6F00
 9543              	.LASF98:
 9544 004a 61746F6D 		.ascii	"atom_variables_id_t\000"
 9544      5F766172 
 9544      6961626C 
 9544      65735F69 
 9544      645F7400 
 9545              	.LASF40:
 9546 005e 666C6167 		.ascii	"flags\000"
 9546      7300
 9547              	.LASF101:
 9548 0064 4A534F4E 		.ascii	"JSON_MSG_INVALID_DESTINATION\000"
 9548      5F4D5347 
 9548      5F494E56 
 9548      414C4944 
 9548      5F444553 
 9549              	.LASF95:
 9550 0081 41544F4D 		.ascii	"ATOM_VARIABLE_cropType\000"
 9550      5F564152 
 9550      4941424C 
 9550      455F6372 
ARM GAS  C:\Users\SDEVAS~1\AppData\Local\Temp\cc8KFjZb.s 			page 187


 9550      6F705479 
 9551              	.LASF67:
 9552 0098 41544F4D 		.ascii	"ATOM_VARIABLE_valveStatus\000"
 9552      5F564152 
 9552      4941424C 
 9552      455F7661 
 9552      6C766553 
 9553              	.LASF29:
 9554 00b2 6A736D6E 		.ascii	"jsmn_parser\000"
 9554      5F706172 
 9554      73657200 
 9555              	.LASF8:
 9556 00be 756E7369 		.ascii	"unsigned int\000"
 9556      676E6564 
 9556      20696E74 
 9556      00
 9557              	.LASF66:
 9558 00cb 41544F4D 		.ascii	"ATOM_VARIABLE_totalVolume\000"
 9558      5F564152 
 9558      4941424C 
 9558      455F746F 
 9558      74616C56 
 9559              	.LASF112:
 9560 00e5 736B6970 		.ascii	"skipToNextTokenInLevel\000"
 9560      546F4E65 
 9560      7874546F 
 9560      6B656E49 
 9560      6E4C6576 
 9561              	.LASF131:
 9562 00fc 76616C75 		.ascii	"valueLen\000"
 9562      654C656E 
 9562      00
 9563              	.LASF100:
 9564 0105 4A534F4E 		.ascii	"JSON_MSG_PARSE_FAILED\000"
 9564      5F4D5347 
 9564      5F504152 
 9564      53455F46 
 9564      41494C45 
 9565              	.LASF116:
 9566 011b 64657374 		.ascii	"destLen\000"
 9566      4C656E00 
 9567              	.LASF74:
 9568 0123 41544F4D 		.ascii	"ATOM_VARIABLE_volPerStart\000"
 9568      5F564152 
 9568      4941424C 
 9568      455F766F 
 9568      6C506572 
 9569              	.LASF52:
 9570 013d 636F6D6D 		.ascii	"comm_flags_t\000"
 9570      5F666C61 
 9570      67735F74 
 9570      00
 9571              	.LASF54:
 9572 014a 41544F4D 		.ascii	"ATOM_MODE_Test\000"
 9572      5F4D4F44 
 9572      455F5465 
 9572      737400
ARM GAS  C:\Users\SDEVAS~1\AppData\Local\Temp\cc8KFjZb.s 			page 188


 9573              	.LASF151:
 9574 0159 72733438 		.ascii	"rs485_bus_released_callback\000"
 9574      355F6275 
 9574      735F7265 
 9574      6C656173 
 9574      65645F63 
 9575              	.LASF105:
 9576 0175 73747232 		.ascii	"str2flag\000"
 9576      666C6167 
 9576      00
 9577              	.LASF26:
 9578 017e 6A736D6E 		.ascii	"jsmntok_t\000"
 9578      746F6B5F 
 9578      7400
 9579              	.LASF20:
 9580 0188 4A534D4E 		.ascii	"JSMN_ARRAY\000"
 9580      5F415252 
 9580      415900
 9581              	.LASF152:
 9582 0193 636F6D6D 		.ascii	"comm_Init\000"
 9582      5F496E69 
 9582      7400
 9583              	.LASF58:
 9584 019d 494E5641 		.ascii	"INVALID_ATOM_MODE\000"
 9584      4C49445F 
 9584      41544F4D 
 9584      5F4D4F44 
 9584      4500
 9585              	.LASF17:
 9586 01af 636F6D6D 		.ascii	"comm_RS485_address\000"
 9586      5F525334 
 9586      38355F61 
 9586      64647265 
 9586      737300
 9587              	.LASF96:
 9588 01c2 4E554D5F 		.ascii	"NUM_OF_ATOM_VARIABLES\000"
 9588      4F465F41 
 9588      544F4D5F 
 9588      56415249 
 9588      41424C45 
 9589              	.LASF155:
 9590 01d8 636F6D6D 		.ascii	"comm_Handler\000"
 9590      5F48616E 
 9590      646C6572 
 9590      00
 9591              	.LASF103:
 9592 01e5 4A534F4E 		.ascii	"JSON_MSG_GETSET_INVALID_VARIABLE\000"
 9592      5F4D5347 
 9592      5F474554 
 9592      5345545F 
 9592      494E5641 
 9593              	.LASF44:
 9594 0206 73636865 		.ascii	"schedAddr\000"
 9594      64416464 
 9594      7200
 9595              	.LASF143:
 9596 0210 72733438 		.ascii	"rs485_receive_callback\000"
ARM GAS  C:\Users\SDEVAS~1\AppData\Local\Temp\cc8KFjZb.s 			page 189


 9596      355F7265 
 9596      63656976 
 9596      655F6361 
 9596      6C6C6261 
 9597              	.LASF120:
 9598 0227 65787065 		.ascii	"expectedEnd\000"
 9598      63746564 
 9598      456E6400 
 9599              	.LASF34:
 9600 0233 434F4D4D 		.ascii	"COMM_STATE_IDLE\000"
 9600      5F535441 
 9600      54455F49 
 9600      444C4500 
 9601              	.LASF39:
 9602 0243 72656376 		.ascii	"recvBuff\000"
 9602      42756666 
 9602      00
 9603              	.LASF10:
 9604 024c 75696E74 		.ascii	"uint32_t\000"
 9604      33325F74 
 9604      00
 9605              	.LASF113:
 9606 0255 746F6B65 		.ascii	"tokens\000"
 9606      6E7300
 9607              	.LASF49:
 9608 025c 434F4D4D 		.ascii	"COMM_FLAG_REQ_ACK\000"
 9608      5F464C41 
 9608      475F5245 
 9608      515F4143 
 9608      4B00
 9609              	.LASF167:
 9610 026e 636F6D6D 		.ascii	"comm\000"
 9610      00
 9611              	.LASF45:
 9612 0273 636F6D6D 		.ascii	"comm_t\000"
 9612      5F7400
 9613              	.LASF61:
 9614 027a 41544F4D 		.ascii	"ATOM_VARIABLE_shutdownTime\000"
 9614      5F564152 
 9614      4941424C 
 9614      455F7368 
 9614      7574646F 
 9615              	.LASF13:
 9616 0295 666C6F61 		.ascii	"float\000"
 9616      7400
 9617              	.LASF42:
 9618 029b 73636865 		.ascii	"schedOrder\000"
 9618      644F7264 
 9618      657200
 9619              	.LASF145:
 9620 02a6 72733438 		.ascii	"rs485_wake_callback\000"
 9620      355F7761 
 9620      6B655F63 
 9620      616C6C62 
 9620      61636B00 
 9621              	.LASF71:
 9622 02ba 41544F4D 		.ascii	"ATOM_VARIABLE_startTime\000"
ARM GAS  C:\Users\SDEVAS~1\AppData\Local\Temp\cc8KFjZb.s 			page 190


 9622      5F564152 
 9622      4941424C 
 9622      455F7374 
 9622      61727454 
 9623              	.LASF7:
 9624 02d2 6C6F6E67 		.ascii	"long long unsigned int\000"
 9624      206C6F6E 
 9624      6720756E 
 9624      7369676E 
 9624      65642069 
 9625              	.LASF164:
 9626 02e9 6D736744 		.ascii	"msgDestLen\000"
 9626      6573744C 
 9626      656E00
 9627              	.LASF33:
 9628 02f4 4C415354 		.ascii	"LAST_MSG\000"
 9628      5F4D5347 
 9628      00
 9629              	.LASF38:
 9630 02fd 434F4D4D 		.ascii	"COMM_STATE_BUS_RELEASED\000"
 9630      5F535441 
 9630      54455F42 
 9630      55535F52 
 9630      454C4541 
 9631              	.LASF130:
 9632 0315 76616C75 		.ascii	"value\000"
 9632      6500
 9633              	.LASF159:
 9634 031b 61746F6D 		.ascii	"atom_variables_id_strings\000"
 9634      5F766172 
 9634      6961626C 
 9634      65735F69 
 9634      645F7374 
 9635              	.LASF176:
 9636 0335 443A5C55 		.ascii	"D:\\Users\\sdevasenapathy\\atoms\\AtomWorkspace\\At"
 9636      73657273 
 9636      5C736465 
 9636      76617365 
 9636      6E617061 
 9637 0363 6F6D2E63 		.ascii	"om.cydsn\000"
 9637      7964736E 
 9637      00
 9638              	.LASF144:
 9639 036c 62756666 		.ascii	"buff\000"
 9639      00
 9640              	.LASF99:
 9641 0371 4A534F4E 		.ascii	"JSON_MSG_PARSE_OK\000"
 9641      5F4D5347 
 9641      5F504152 
 9641      53455F4F 
 9641      4B00
 9642              	.LASF161:
 9643 0383 6D736753 		.ascii	"msgSource\000"
 9643      6F757263 
 9643      6500
 9644              	.LASF127:
 9645 038d 61766964 		.ascii	"avid\000"
ARM GAS  C:\Users\SDEVAS~1\AppData\Local\Temp\cc8KFjZb.s 			page 191


 9645      00
 9646              	.LASF108:
 9647 0392 6765745F 		.ascii	"get_atom_variable_id_from_string\000"
 9647      61746F6D 
 9647      5F766172 
 9647      6961626C 
 9647      655F6964 
 9648              	.LASF126:
 9649 03b3 746F6B65 		.ascii	"tokensLen\000"
 9649      6E734C65 
 9649      6E00
 9650              	.LASF121:
 9651 03bd 6A736F6E 		.ascii	"json_len\000"
 9651      5F6C656E 
 9651      00
 9652              	.LASF57:
 9653 03c6 4E554D5F 		.ascii	"NUM_OF_ATOM_MODES\000"
 9653      4F465F41 
 9653      544F4D5F 
 9653      4D4F4445 
 9653      5300
 9654              	.LASF136:
 9655 03d8 6D6F6465 		.ascii	"mode\000"
 9655      00
 9656              	.LASF119:
 9657 03dd 6F726465 		.ascii	"orderLen\000"
 9657      724C656E 
 9657      00
 9658              	.LASF166:
 9659 03e6 73656E64 		.ascii	"sendingTicks\000"
 9659      696E6754 
 9659      69636B73 
 9659      00
 9660              	.LASF32:
 9661 03f3 534C4156 		.ascii	"SLAVE\000"
 9661      4500
 9662              	.LASF62:
 9663 03f9 41544F4D 		.ascii	"ATOM_VARIABLE_test\000"
 9663      5F564152 
 9663      4941424C 
 9663      455F7465 
 9663      737400
 9664              	.LASF117:
 9665 040c 7372634C 		.ascii	"srcLen\000"
 9665      656E00
 9666              	.LASF170:
 9667 0413 72657370 		.ascii	"respFreeSpace\000"
 9667      46726565 
 9667      53706163 
 9667      6500
 9668              	.LASF169:
 9669 0421 72657370 		.ascii	"respEnd\000"
 9669      456E6400 
 9670              	.LASF22:
 9671 0429 6A736D6E 		.ascii	"jsmntype_t\000"
 9671      74797065 
 9671      5F7400
ARM GAS  C:\Users\SDEVAS~1\AppData\Local\Temp\cc8KFjZb.s 			page 192


 9672              	.LASF128:
 9673 0434 636F6D6D 		.ascii	"comm_handle_Set\000"
 9673      5F68616E 
 9673      646C655F 
 9673      53657400 
 9674              	.LASF15:
 9675 0444 63686172 		.ascii	"char\000"
 9675      00
 9676              	.LASF122:
 9677 0449 76616C69 		.ascii	"validateDestinationAndParse\000"
 9677      64617465 
 9677      44657374 
 9677      696E6174 
 9677      696F6E41 
 9678              	.LASF35:
 9679 0465 434F4D4D 		.ascii	"COMM_STATE_BUS_GRANTED\000"
 9679      5F535441 
 9679      54455F42 
 9679      55535F47 
 9679      52414E54 
 9680              	.LASF173:
 9681 047c 6D736744 		.ascii	"msgDestinationHolderAtomId\000"
 9681      65737469 
 9681      6E617469 
 9681      6F6E486F 
 9681      6C646572 
 9682              	.LASF104:
 9683 0497 4A534F4E 		.ascii	"JSON_MSG_return_t\000"
 9683      5F4D5347 
 9683      5F726574 
 9683      75726E5F 
 9683      7400
 9684              	.LASF72:
 9685 04a9 41544F4D 		.ascii	"ATOM_VARIABLE_stopTime\000"
 9685      5F564152 
 9685      4941424C 
 9685      455F7374 
 9685      6F705469 
 9686              	.LASF118:
 9687 04c0 6F726465 		.ascii	"order\000"
 9687      7200
 9688              	.LASF56:
 9689 04c6 41544F4D 		.ascii	"ATOM_MODE_Shutdown\000"
 9689      5F4D4F44 
 9689      455F5368 
 9689      7574646F 
 9689      776E00
 9690              	.LASF68:
 9691 04d9 41544F4D 		.ascii	"ATOM_VARIABLE_lastStartNumber\000"
 9691      5F564152 
 9691      4941424C 
 9691      455F6C61 
 9691      73745374 
 9692              	.LASF50:
 9693 04f7 434F4D4D 		.ascii	"COMM_FLAG_NACK\000"
 9693      5F464C41 
 9693      475F4E41 
ARM GAS  C:\Users\SDEVAS~1\AppData\Local\Temp\cc8KFjZb.s 			page 193


 9693      434B00
 9694              	.LASF149:
 9695 0506 72733438 		.ascii	"rs485_slave_selected_callback\000"
 9695      355F736C 
 9695      6176655F 
 9695      73656C65 
 9695      63746564 
 9696              	.LASF46:
 9697 0524 434F4D4D 		.ascii	"COMM_FLAG_UNKNOWN\000"
 9697      5F464C41 
 9697      475F554E 
 9697      4B4E4F57 
 9697      4E00
 9698              	.LASF134:
 9699 0536 636F6D6D 		.ascii	"comm_handle_Status\000"
 9699      5F68616E 
 9699      646C655F 
 9699      53746174 
 9699      757300
 9700              	.LASF138:
 9701 0549 61746F6D 		.ascii	"atomType\000"
 9701      54797065 
 9701      00
 9702              	.LASF75:
 9703 0552 41544F4D 		.ascii	"ATOM_VARIABLE_maxVol\000"
 9703      5F564152 
 9703      4941424C 
 9703      455F6D61 
 9703      78566F6C 
 9704              	.LASF6:
 9705 0567 6C6F6E67 		.ascii	"long long int\000"
 9705      206C6F6E 
 9705      6720696E 
 9705      7400
 9706              	.LASF19:
 9707 0575 4A534D4E 		.ascii	"JSMN_OBJECT\000"
 9707      5F4F424A 
 9707      45435400 
 9708              	.LASF148:
 9709 0581 72733438 		.ascii	"rs485_bus_granted_callback\000"
 9709      355F6275 
 9709      735F6772 
 9709      616E7465 
 9709      645F6361 
 9710              	.LASF140:
 9711 059c 72657370 		.ascii	"resp_AddFlags\000"
 9711      5F416464 
 9711      466C6167 
 9711      7300
 9712              	.LASF59:
 9713 05aa 61746F6D 		.ascii	"atom_modes_t\000"
 9713      5F6D6F64 
 9713      65735F74 
 9713      00
 9714              	.LASF177:
 9715 05b7 72657370 		.ascii	"resp_GenDestSrcOrder\000"
 9715      5F47656E 
ARM GAS  C:\Users\SDEVAS~1\AppData\Local\Temp\cc8KFjZb.s 			page 194


 9715      44657374 
 9715      5372634F 
 9715      72646572 
 9716              	.LASF124:
 9717 05cc 7061796C 		.ascii	"payload\000"
 9717      6F616400 
 9718              	.LASF132:
 9719 05d4 74797065 		.ascii	"typeLen\000"
 9719      4C656E00 
 9720              	.LASF88:
 9721 05dc 41544F4D 		.ascii	"ATOM_VARIABLE_notAfter\000"
 9721      5F564152 
 9721      4941424C 
 9721      455F6E6F 
 9721      74416674 
 9722              	.LASF25:
 9723 05f3 73697A65 		.ascii	"size\000"
 9723      00
 9724              	.LASF12:
 9725 05f8 75696E74 		.ascii	"uint32\000"
 9725      333200
 9726              	.LASF97:
 9727 05ff 494E5641 		.ascii	"INVALID_ATOM_VARIABLE\000"
 9727      4C49445F 
 9727      41544F4D 
 9727      5F564152 
 9727      4941424C 
 9728              	.LASF94:
 9729 0615 41544F4D 		.ascii	"ATOM_VARIABLE_lPerSqMeterPerDay\000"
 9729      5F564152 
 9729      4941424C 
 9729      455F6C50 
 9729      65725371 
 9730              	.LASF21:
 9731 0635 4A534D4E 		.ascii	"JSMN_STRING\000"
 9731      5F535452 
 9731      494E4700 
 9732              	.LASF60:
 9733 0641 41544F4D 		.ascii	"ATOM_VARIABLE_sleepPeriod\000"
 9733      5F564152 
 9733      4941424C 
 9733      455F736C 
 9733      65657050 
 9734              	.LASF27:
 9735 065b 746F6B6E 		.ascii	"toknext\000"
 9735      65787400 
 9736              	.LASF172:
 9737 0663 6D736744 		.ascii	"msgDestinationHolderAtomType\000"
 9737      65737469 
 9737      6E617469 
 9737      6F6E486F 
 9737      6C646572 
 9738              	.LASF93:
 9739 0680 41544F4D 		.ascii	"ATOM_VARIABLE_squareMeters\000"
 9739      5F564152 
 9739      4941424C 
 9739      455F7371 
ARM GAS  C:\Users\SDEVAS~1\AppData\Local\Temp\cc8KFjZb.s 			page 195


 9739      75617265 
 9740              	.LASF51:
 9741 069b 434F4D4D 		.ascii	"COMM_FLAG_PUSH\000"
 9741      5F464C41 
 9741      475F5055 
 9741      534800
 9742              	.LASF174:
 9743 06aa 474E5520 		.ascii	"GNU C 4.8.4 20140526 (release) [ARM/embedded-4_8-br"
 9743      4320342E 
 9743      382E3420 
 9743      32303134 
 9743      30353236 
 9744 06dd 616E6368 		.ascii	"anch revision 211358] -mcpu=cortex-m0 -mthumb -g -O"
 9744      20726576 
 9744      6973696F 
 9744      6E203231 
 9744      31333538 
 9745 0710 30202D66 		.ascii	"0 -ffunction-sections\000"
 9745      66756E63 
 9745      74696F6E 
 9745      2D736563 
 9745      74696F6E 
 9746              	.LASF65:
 9747 0726 41544F4D 		.ascii	"ATOM_VARIABLE_currentFlow\000"
 9747      5F564152 
 9747      4941424C 
 9747      455F6375 
 9747      7272656E 
 9748              	.LASF63:
 9749 0740 41544F4D 		.ascii	"ATOM_VARIABLE_innerPressure\000"
 9749      5F564152 
 9749      4941424C 
 9749      455F696E 
 9749      6E657250 
 9750              	.LASF70:
 9751 075c 41544F4D 		.ascii	"ATOM_VARIABLE_lastStartFlow\000"
 9751      5F564152 
 9751      4941424C 
 9751      455F6C61 
 9751      73745374 
 9752              	.LASF153:
 9753 0778 636F6D6D 		.ascii	"comm_ScheduleMessage\000"
 9753      5F536368 
 9753      6564756C 
 9753      654D6573 
 9753      73616765 
 9754              	.LASF73:
 9755 078d 41544F4D 		.ascii	"ATOM_VARIABLE_numStarts\000"
 9755      5F564152 
 9755      4941424C 
 9755      455F6E75 
 9755      6D537461 
 9756              	.LASF77:
 9757 07a5 41544F4D 		.ascii	"ATOM_VARIABLE_fertigationTable0\000"
 9757      5F564152 
 9757      4941424C 
 9757      455F6665 
ARM GAS  C:\Users\SDEVAS~1\AppData\Local\Temp\cc8KFjZb.s 			page 196


 9757      72746967 
 9758              	.LASF78:
 9759 07c5 41544F4D 		.ascii	"ATOM_VARIABLE_fertigationTable1\000"
 9759      5F564152 
 9759      4941424C 
 9759      455F6665 
 9759      72746967 
 9760              	.LASF79:
 9761 07e5 41544F4D 		.ascii	"ATOM_VARIABLE_fertigationTable2\000"
 9761      5F564152 
 9761      4941424C 
 9761      455F6665 
 9761      72746967 
 9762              	.LASF80:
 9763 0805 41544F4D 		.ascii	"ATOM_VARIABLE_fertigationTable3\000"
 9763      5F564152 
 9763      4941424C 
 9763      455F6665 
 9763      72746967 
 9764              	.LASF81:
 9765 0825 41544F4D 		.ascii	"ATOM_VARIABLE_fertigationTable4\000"
 9765      5F564152 
 9765      4941424C 
 9765      455F6665 
 9765      72746967 
 9766              	.LASF82:
 9767 0845 41544F4D 		.ascii	"ATOM_VARIABLE_fertigationTable5\000"
 9767      5F564152 
 9767      4941424C 
 9767      455F6665 
 9767      72746967 
 9768              	.LASF83:
 9769 0865 41544F4D 		.ascii	"ATOM_VARIABLE_fertigationTable6\000"
 9769      5F564152 
 9769      4941424C 
 9769      455F6665 
 9769      72746967 
 9770              	.LASF84:
 9771 0885 41544F4D 		.ascii	"ATOM_VARIABLE_fertigationTable7\000"
 9771      5F564152 
 9771      4941424C 
 9771      455F6665 
 9771      72746967 
 9772              	.LASF85:
 9773 08a5 41544F4D 		.ascii	"ATOM_VARIABLE_fertigationTable8\000"
 9773      5F564152 
 9773      4941424C 
 9773      455F6665 
 9773      72746967 
 9774              	.LASF86:
 9775 08c5 41544F4D 		.ascii	"ATOM_VARIABLE_fertigationTable9\000"
 9775      5F564152 
 9775      4941424C 
 9775      455F6665 
 9775      72746967 
 9776              	.LASF2:
 9777 08e5 73686F72 		.ascii	"short int\000"
ARM GAS  C:\Users\SDEVAS~1\AppData\Local\Temp\cc8KFjZb.s 			page 197


 9777      7420696E 
 9777      7400
 9778              	.LASF4:
 9779 08ef 6C6F6E67 		.ascii	"long int\000"
 9779      20696E74 
 9779      00
 9780              	.LASF125:
 9781 08f8 7061796C 		.ascii	"payloadLen\000"
 9781      6F61644C 
 9781      656E00
 9782              	.LASF157:
 9783 0903 74696D65 		.ascii	"timeout_counter\000"
 9783      6F75745F 
 9783      636F756E 
 9783      74657200 
 9784              	.LASF106:
 9785 0913 666C6167 		.ascii	"flag2str\000"
 9785      32737472 
 9785      00
 9786              	.LASF107:
 9787 091c 666C6167 		.ascii	"flag\000"
 9787      00
 9788              	.LASF30:
 9789 0921 52454356 		.ascii	"RECV\000"
 9789      00
 9790              	.LASF111:
 9791 0926 6A736F6E 		.ascii	"json\000"
 9791      00
 9792              	.LASF24:
 9793 092b 73746172 		.ascii	"start\000"
 9793      7400
 9794              	.LASF146:
 9795 0931 69735761 		.ascii	"isWake\000"
 9795      6B6500
 9796              	.LASF137:
 9797 0938 6A736F6E 		.ascii	"jsonAddressToRS\000"
 9797      41646472 
 9797      65737354 
 9797      6F525300 
 9798              	.LASF139:
 9799 0948 61746F6D 		.ascii	"atomID\000"
 9799      494400
 9800              	.LASF16:
 9801 094f 73697A65 		.ascii	"sizetype\000"
 9801      74797065 
 9801      00
 9802              	.LASF87:
 9803 0958 41544F4D 		.ascii	"ATOM_VARIABLE_notBefore\000"
 9803      5F564152 
 9803      4941424C 
 9803      455F6E6F 
 9803      74426566 
 9804              	.LASF5:
 9805 0970 6C6F6E67 		.ascii	"long unsigned int\000"
 9805      20756E73 
 9805      69676E65 
 9805      6420696E 
ARM GAS  C:\Users\SDEVAS~1\AppData\Local\Temp\cc8KFjZb.s 			page 198


 9805      7400
 9806              	.LASF109:
 9807 0982 6765745F 		.ascii	"get_atom_mode_from_string\000"
 9807      61746F6D 
 9807      5F6D6F64 
 9807      655F6672 
 9807      6F6D5F73 
 9808              	.LASF28:
 9809 099c 746F6B73 		.ascii	"toksuper\000"
 9809      75706572 
 9809      00
 9810              	.LASF43:
 9811 09a5 73636865 		.ascii	"schedOrderLen\000"
 9811      644F7264 
 9811      65724C65 
 9811      6E00
 9812              	.LASF69:
 9813 09b3 41544F4D 		.ascii	"ATOM_VARIABLE_lastStartVolume\000"
 9813      5F564152 
 9813      4941424C 
 9813      455F6C61 
 9813      73745374 
 9814              	.LASF171:
 9815 09d1 6D736744 		.ascii	"msgDestinationHolder\000"
 9815      65737469 
 9815      6E617469 
 9815      6F6E486F 
 9815      6C646572 
 9816              	.LASF36:
 9817 09e6 434F4D4D 		.ascii	"COMM_STATE_SLAVE_SELECTED\000"
 9817      5F535441 
 9817      54455F53 
 9817      4C415645 
 9817      5F53454C 
 9818              	.LASF23:
 9819 0a00 74797065 		.ascii	"type\000"
 9819      00
 9820              	.LASF1:
 9821 0a05 756E7369 		.ascii	"unsigned char\000"
 9821      676E6564 
 9821      20636861 
 9821      7200
 9822              	.LASF9:
 9823 0a13 5F5F7569 		.ascii	"__uint32_t\000"
 9823      6E743332 
 9823      5F7400
 9824              	.LASF102:
 9825 0a1e 4A534F4E 		.ascii	"JSON_MSG_INVALID_FIELDS\000"
 9825      5F4D5347 
 9825      5F494E56 
 9825      414C4944 
 9825      5F464945 
 9826              	.LASF53:
 9827 0a36 41544F4D 		.ascii	"ATOM_MODE_Start\000"
 9827      5F4D4F44 
 9827      455F5374 
 9827      61727400 
ARM GAS  C:\Users\SDEVAS~1\AppData\Local\Temp\cc8KFjZb.s 			page 199


 9828              	.LASF156:
 9829 0a46 6572726F 		.ascii	"error_counter\000"
 9829      725F636F 
 9829      756E7465 
 9829      7200
 9830              	.LASF18:
 9831 0a54 4A534D4E 		.ascii	"JSMN_PRIMITIVE\000"
 9831      5F505249 
 9831      4D495449 
 9831      564500
 9832              	.LASF41:
 9833 0a63 73746174 		.ascii	"state\000"
 9833      6500
 9834              	.LASF175:
 9835 0a69 2E5C4765 		.ascii	".\\Generated_Source\\PSoC4\\comm.c\000"
 9835      6E657261 
 9835      7465645F 
 9835      536F7572 
 9835      63655C50 
 9836              	.LASF147:
 9837 0a89 72733438 		.ascii	"rs485_released_as_slave_callback\000"
 9837      355F7265 
 9837      6C656173 
 9837      65645F61 
 9837      735F736C 
 9838              	.LASF158:
 9839 0aaa 72657466 		.ascii	"retflag\000"
 9839      6C616700 
 9840              	.LASF55:
 9841 0ab2 41544F4D 		.ascii	"ATOM_MODE_Idle\000"
 9841      5F4D4F44 
 9841      455F4964 
 9841      6C6500
 9842              	.LASF47:
 9843 0ac1 434F4D4D 		.ascii	"COMM_FLAG_REQ\000"
 9843      5F464C41 
 9843      475F5245 
 9843      5100
 9844              	.LASF160:
 9845 0acf 61746F6D 		.ascii	"atom_modes_strings\000"
 9845      5F6D6F64 
 9845      65735F73 
 9845      7472696E 
 9845      677300
 9846              	.LASF37:
 9847 0ae2 434F4D4D 		.ascii	"COMM_STATE_SLAVE_RELEASED\000"
 9847      5F535441 
 9847      54455F53 
 9847      4C415645 
 9847      5F52454C 
 9848              	.LASF123:
 9849 0afc 636F6D6D 		.ascii	"comm_handle_Get\000"
 9849      5F68616E 
 9849      646C655F 
 9849      47657400 
 9850              	.LASF0:
 9851 0b0c 7369676E 		.ascii	"signed char\000"
ARM GAS  C:\Users\SDEVAS~1\AppData\Local\Temp\cc8KFjZb.s 			page 200


 9851      65642063 
 9851      68617200 
 9852              	.LASF154:
 9853 0b18 72733438 		.ascii	"rs485_frame_sent_callback\000"
 9853      355F6672 
 9853      616D655F 
 9853      73656E74 
 9853      5F63616C 
 9854              	.LASF141:
 9855 0b32 72733438 		.ascii	"rs485_selected_as_slave_callback\000"
 9855      355F7365 
 9855      6C656374 
 9855      65645F61 
 9855      735F736C 
 9856              	.LASF3:
 9857 0b53 73686F72 		.ascii	"short unsigned int\000"
 9857      7420756E 
 9857      7369676E 
 9857      65642069 
 9857      6E7400
 9858              	.LASF163:
 9859 0b66 6D736744 		.ascii	"msgDest\000"
 9859      65737400 
 9860              	.LASF114:
 9861 0b6e 63757272 		.ascii	"current\000"
 9861      656E7400 
 9862              	.LASF76:
 9863 0b76 41544F4D 		.ascii	"ATOM_VARIABLE_minVol\000"
 9863      5F564152 
 9863      4941424C 
 9863      455F6D69 
 9863      6E566F6C 
 9864              	.LASF64:
 9865 0b8b 41544F4D 		.ascii	"ATOM_VARIABLE_outerPressure\000"
 9865      5F564152 
 9865      4941424C 
 9865      455F6F75 
 9865      74657250 
 9866              	.LASF11:
 9867 0ba7 75696E74 		.ascii	"uint8\000"
 9867      3800
 9868              	.LASF14:
 9869 0bad 646F7562 		.ascii	"double\000"
 9869      6C6500
 9870              	.LASF162:
 9871 0bb4 6D736753 		.ascii	"msgSourceLen\000"
 9871      6F757263 
 9871      654C656E 
 9871      00
 9872              	.LASF129:
 9873 0bc1 6572726F 		.ascii	"error_exit\000"
 9873      725F6578 
 9873      697400
 9874              	.LASF89:
 9875 0bcc 41544F4D 		.ascii	"ATOM_VARIABLE_dilutionFactorA\000"
 9875      5F564152 
 9875      4941424C 
ARM GAS  C:\Users\SDEVAS~1\AppData\Local\Temp\cc8KFjZb.s 			page 201


 9875      455F6469 
 9875      6C757469 
 9876              	.LASF90:
 9877 0bea 41544F4D 		.ascii	"ATOM_VARIABLE_dilutionFactorB\000"
 9877      5F564152 
 9877      4941424C 
 9877      455F6469 
 9877      6C757469 
 9878              	.LASF91:
 9879 0c08 41544F4D 		.ascii	"ATOM_VARIABLE_venturiSuctionA\000"
 9879      5F564152 
 9879      4941424C 
 9879      455F7665 
 9879      6E747572 
 9880              	.LASF92:
 9881 0c26 41544F4D 		.ascii	"ATOM_VARIABLE_venturiSuctionB\000"
 9881      5F564152 
 9881      4941424C 
 9881      455F7665 
 9881      6E747572 
 9882              	.LASF168:
 9883 0c44 72657370 		.ascii	"respBuff\000"
 9883      42756666 
 9883      00
 9884              	.LASF150:
 9885 0c4d 72733438 		.ascii	"rs485_slave_released_callback\000"
 9885      355F736C 
 9885      6176655F 
 9885      72656C65 
 9885      61736564 
 9886              	.LASF115:
 9887 0c6b 64657374 		.ascii	"dest\000"
 9887      00
 9888              		.ident	"GCC: (GNU Tools for ARM Embedded Processors) 4.8.4 20140526 (release) [ARM/embedded-4_8-br
