ARM GAS  C:\Users\SDEVAS~1\AppData\Local\Temp\ccigAyFK.s 			page 1


   1              		.cpu cortex-m0
   2              		.fpu softvfp
   3              		.eabi_attribute 20, 1
   4              		.eabi_attribute 21, 1
   5              		.eabi_attribute 23, 3
   6              		.eabi_attribute 24, 1
   7              		.eabi_attribute 25, 1
   8              		.eabi_attribute 26, 1
   9              		.eabi_attribute 30, 6
  10              		.eabi_attribute 34, 0
  11              		.eabi_attribute 18, 4
  12              		.code	16
  13              		.file	"Fsm.c"
  14              		.text
  15              	.Ltext0:
  16              		.cfi_sections	.debug_frame
  17              		.section	.text.fsm_init,"ax",%progbits
  18              		.align	2
  19              		.global	fsm_init
  20              		.code	16
  21              		.thumb_func
  22              		.type	fsm_init, %function
  23              	fsm_init:
  24              	.LFB0:
  25              		.file 1 ".\\src-fsm\\Fsm.c"
   1:.\src-fsm/Fsm.c **** 
   2:.\src-fsm/Fsm.c **** #include <stdlib.h>
   3:.\src-fsm/Fsm.c **** #include <string.h>
   4:.\src-fsm/Fsm.c **** #include "sc_types.h"
   5:.\src-fsm/Fsm.c **** #include "Fsm.h"
   6:.\src-fsm/Fsm.c **** #include "FsmRequired.h"
   7:.\src-fsm/Fsm.c **** /*! \file Implementation of the state machine 'fsm'
   8:.\src-fsm/Fsm.c **** */
   9:.\src-fsm/Fsm.c **** 
  10:.\src-fsm/Fsm.c **** // prototypes of all internal functions
  11:.\src-fsm/Fsm.c **** 
  12:.\src-fsm/Fsm.c **** static void fsm_enact_SequenceImpl(Fsm* handle);
  13:.\src-fsm/Fsm.c **** static void fsm_exact_SequenceImpl(Fsm* handle);
  14:.\src-fsm/Fsm.c **** static void fsm_react_main_region_Sleep(Fsm* handle);
  15:.\src-fsm/Fsm.c **** static void fsm_react_main_region_Operation_op_Decide(Fsm* handle);
  16:.\src-fsm/Fsm.c **** static void fsm_react_main_region_Operation_op_ValveOn(Fsm* handle);
  17:.\src-fsm/Fsm.c **** static void fsm_react_main_region_Operation_op_ValveOff(Fsm* handle);
  18:.\src-fsm/Fsm.c **** static void fsm_react_main_region_Operation_op_VolumeCheck(Fsm* handle);
  19:.\src-fsm/Fsm.c **** static void fsm_react_main_region_Operation_op_SendStats(Fsm* handle);
  20:.\src-fsm/Fsm.c **** static void fsm_react_main_region_TestState_test__final_(Fsm* handle);
  21:.\src-fsm/Fsm.c **** static void fsm_react_main_region_Idle(Fsm* handle);
  22:.\src-fsm/Fsm.c **** static void fsm_clearInEvents(Fsm* handle);
  23:.\src-fsm/Fsm.c **** static void fsm_clearOutEvents(Fsm* handle);
  24:.\src-fsm/Fsm.c **** 
  25:.\src-fsm/Fsm.c **** 
  26:.\src-fsm/Fsm.c **** void fsm_init(Fsm* handle)
  27:.\src-fsm/Fsm.c **** {
  26              		.loc 1 27 0
  27              		.cfi_startproc
  28 0000 80B5     		push	{r7, lr}
  29              		.cfi_def_cfa_offset 8
  30              		.cfi_offset 7, -8
ARM GAS  C:\Users\SDEVAS~1\AppData\Local\Temp\ccigAyFK.s 			page 2


  31              		.cfi_offset 14, -4
  32 0002 84B0     		sub	sp, sp, #16
  33              		.cfi_def_cfa_offset 24
  34 0004 00AF     		add	r7, sp, #0
  35              		.cfi_def_cfa_register 7
  36 0006 7860     		str	r0, [r7, #4]
  28:.\src-fsm/Fsm.c **** 	int i;
  29:.\src-fsm/Fsm.c **** 
  30:.\src-fsm/Fsm.c **** 	for (i = 0; i < FSM_MAX_ORTHOGONAL_STATES; ++i)
  37              		.loc 1 30 0
  38 0008 0023     		mov	r3, #0
  39 000a FB60     		str	r3, [r7, #12]
  40 000c 07E0     		b	.L2
  41              	.L3:
  31:.\src-fsm/Fsm.c **** 		handle->stateConfVector[i] = Fsm_last_state;
  42              		.loc 1 31 0 discriminator 2
  43 000e 7A68     		ldr	r2, [r7, #4]
  44 0010 FB68     		ldr	r3, [r7, #12]
  45 0012 D318     		add	r3, r2, r3
  46 0014 0A22     		mov	r2, #10
  47 0016 1A70     		strb	r2, [r3]
  30:.\src-fsm/Fsm.c **** 	for (i = 0; i < FSM_MAX_ORTHOGONAL_STATES; ++i)
  48              		.loc 1 30 0 discriminator 2
  49 0018 FB68     		ldr	r3, [r7, #12]
  50 001a 0133     		add	r3, r3, #1
  51 001c FB60     		str	r3, [r7, #12]
  52              	.L2:
  30:.\src-fsm/Fsm.c **** 	for (i = 0; i < FSM_MAX_ORTHOGONAL_STATES; ++i)
  53              		.loc 1 30 0 is_stmt 0 discriminator 1
  54 001e FB68     		ldr	r3, [r7, #12]
  55 0020 002B     		cmp	r3, #0
  56 0022 F4DD     		ble	.L3
  32:.\src-fsm/Fsm.c **** 	
  33:.\src-fsm/Fsm.c **** 	
  34:.\src-fsm/Fsm.c **** 	handle->stateConfVectorPosition = 0;
  57              		.loc 1 34 0 is_stmt 1
  58 0024 7B68     		ldr	r3, [r7, #4]
  59 0026 0022     		mov	r2, #0
  60 0028 5A60     		str	r2, [r3, #4]
  35:.\src-fsm/Fsm.c **** 
  36:.\src-fsm/Fsm.c **** 	fsm_clearInEvents(handle);
  61              		.loc 1 36 0
  62 002a 7B68     		ldr	r3, [r7, #4]
  63 002c 181C     		mov	r0, r3
  64 002e FFF7FEFF 		bl	fsm_clearInEvents
  37:.\src-fsm/Fsm.c **** 	fsm_clearOutEvents(handle);
  65              		.loc 1 37 0
  66 0032 7B68     		ldr	r3, [r7, #4]
  67 0034 181C     		mov	r0, r3
  68 0036 FFF7FEFF 		bl	fsm_clearOutEvents
  38:.\src-fsm/Fsm.c **** 
  39:.\src-fsm/Fsm.c **** 	/* Default init sequence for statechart fsm */
  40:.\src-fsm/Fsm.c **** 	handle->ifaceWaterControl.maxVolume = 0;
  69              		.loc 1 40 0
  70 003a 7B68     		ldr	r3, [r7, #4]
  71 003c 0022     		mov	r2, #0
  72 003e DA60     		str	r2, [r3, #12]
ARM GAS  C:\Users\SDEVAS~1\AppData\Local\Temp\ccigAyFK.s 			page 3


  41:.\src-fsm/Fsm.c **** 	handle->ifaceWaterControl.currentVolume = 0;
  73              		.loc 1 41 0
  74 0040 7B68     		ldr	r3, [r7, #4]
  75 0042 0022     		mov	r2, #0
  76 0044 1A61     		str	r2, [r3, #16]
  42:.\src-fsm/Fsm.c **** 	handle->ifaceWaterControl.opMode = 0;
  77              		.loc 1 42 0
  78 0046 7B68     		ldr	r3, [r7, #4]
  79 0048 0022     		mov	r2, #0
  80 004a 5A61     		str	r2, [r3, #20]
  43:.\src-fsm/Fsm.c **** 
  44:.\src-fsm/Fsm.c **** }
  81              		.loc 1 44 0
  82 004c BD46     		mov	sp, r7
  83 004e 04B0     		add	sp, sp, #16
  84              		@ sp needed
  85 0050 80BD     		pop	{r7, pc}
  86              		.cfi_endproc
  87              	.LFE0:
  88              		.size	fsm_init, .-fsm_init
  89 0052 C046     		.section	.text.fsm_enter,"ax",%progbits
  90              		.align	2
  91              		.global	fsm_enter
  92              		.code	16
  93              		.thumb_func
  94              		.type	fsm_enter, %function
  95              	fsm_enter:
  96              	.LFB1:
  45:.\src-fsm/Fsm.c **** 
  46:.\src-fsm/Fsm.c **** void fsm_enter(Fsm* handle)
  47:.\src-fsm/Fsm.c **** {
  97              		.loc 1 47 0
  98              		.cfi_startproc
  99 0000 80B5     		push	{r7, lr}
 100              		.cfi_def_cfa_offset 8
 101              		.cfi_offset 7, -8
 102              		.cfi_offset 14, -4
 103 0002 82B0     		sub	sp, sp, #8
 104              		.cfi_def_cfa_offset 16
 105 0004 00AF     		add	r7, sp, #0
 106              		.cfi_def_cfa_register 7
 107 0006 7860     		str	r0, [r7, #4]
  48:.\src-fsm/Fsm.c **** 	/* Default enter sequence for statechart fsm */
  49:.\src-fsm/Fsm.c **** 	fsm_enact_SequenceImpl(handle);
 108              		.loc 1 49 0
 109 0008 7B68     		ldr	r3, [r7, #4]
 110 000a 181C     		mov	r0, r3
 111 000c FFF7FEFF 		bl	fsm_enact_SequenceImpl
  50:.\src-fsm/Fsm.c **** 	/* 'default' enter sequence for region main region */
  51:.\src-fsm/Fsm.c **** 	/* Default react sequence for initial entry  */
  52:.\src-fsm/Fsm.c **** 	/* 'default' enter sequence for state Idle */
  53:.\src-fsm/Fsm.c **** 	handle->stateConfVector[0] = Fsm_main_region_Idle;
 112              		.loc 1 53 0
 113 0010 7B68     		ldr	r3, [r7, #4]
 114 0012 0922     		mov	r2, #9
 115 0014 1A70     		strb	r2, [r3]
  54:.\src-fsm/Fsm.c **** 	handle->stateConfVectorPosition = 0;
ARM GAS  C:\Users\SDEVAS~1\AppData\Local\Temp\ccigAyFK.s 			page 4


 116              		.loc 1 54 0
 117 0016 7B68     		ldr	r3, [r7, #4]
 118 0018 0022     		mov	r2, #0
 119 001a 5A60     		str	r2, [r3, #4]
  55:.\src-fsm/Fsm.c **** }
 120              		.loc 1 55 0
 121 001c BD46     		mov	sp, r7
 122 001e 02B0     		add	sp, sp, #8
 123              		@ sp needed
 124 0020 80BD     		pop	{r7, pc}
 125              		.cfi_endproc
 126              	.LFE1:
 127              		.size	fsm_enter, .-fsm_enter
 128 0022 C046     		.section	.text.fsm_exit,"ax",%progbits
 129              		.align	2
 130              		.global	fsm_exit
 131              		.code	16
 132              		.thumb_func
 133              		.type	fsm_exit, %function
 134              	fsm_exit:
 135              	.LFB2:
  56:.\src-fsm/Fsm.c **** 
  57:.\src-fsm/Fsm.c **** void fsm_exit(Fsm* handle)
  58:.\src-fsm/Fsm.c **** {
 136              		.loc 1 58 0
 137              		.cfi_startproc
 138 0000 80B5     		push	{r7, lr}
 139              		.cfi_def_cfa_offset 8
 140              		.cfi_offset 7, -8
 141              		.cfi_offset 14, -4
 142 0002 82B0     		sub	sp, sp, #8
 143              		.cfi_def_cfa_offset 16
 144 0004 00AF     		add	r7, sp, #0
 145              		.cfi_def_cfa_register 7
 146 0006 7860     		str	r0, [r7, #4]
  59:.\src-fsm/Fsm.c **** 	/* Default exit sequence for statechart fsm */
  60:.\src-fsm/Fsm.c **** 	/* Default exit sequence for region main region */
  61:.\src-fsm/Fsm.c **** 	/* Handle exit of all possible states (of main region) at position 0... */
  62:.\src-fsm/Fsm.c **** 	switch(handle->stateConfVector[ 0 ]) {
 147              		.loc 1 62 0
 148 0008 7B68     		ldr	r3, [r7, #4]
 149 000a 1B78     		ldrb	r3, [r3]
 150 000c 092B     		cmp	r3, #9
 151 000e 45D8     		bhi	.L17
 152 0010 9A00     		lsl	r2, r3, #2
 153 0012 264B     		ldr	r3, .L18
 154 0014 D318     		add	r3, r2, r3
 155 0016 1B68     		ldr	r3, [r3]
 156 0018 9F46     		mov	pc, r3
 157              		.section	.rodata
 158              		.align	2
 159              	.L8:
 160 0000 1A000000 		.word	.L7
 161 0004 9C000000 		.word	.L17
 162 0008 2C000000 		.word	.L9
 163 000c 3A000000 		.word	.L10
 164 0010 48000000 		.word	.L11
ARM GAS  C:\Users\SDEVAS~1\AppData\Local\Temp\ccigAyFK.s 			page 5


 165 0014 56000000 		.word	.L12
 166 0018 64000000 		.word	.L13
 167 001c 9C000000 		.word	.L17
 168 0020 80000000 		.word	.L14
 169 0024 8E000000 		.word	.L15
 170              		.section	.text.fsm_exit
 171              	.L7:
  63:.\src-fsm/Fsm.c **** 		case Fsm_main_region_Sleep : {
  64:.\src-fsm/Fsm.c **** 			/* Default exit sequence for state Sleep */
  65:.\src-fsm/Fsm.c **** 			handle->stateConfVector[0] = Fsm_last_state;
 172              		.loc 1 65 0
 173 001a 7B68     		ldr	r3, [r7, #4]
 174 001c 0A22     		mov	r2, #10
 175 001e 1A70     		strb	r2, [r3]
  66:.\src-fsm/Fsm.c **** 			handle->stateConfVectorPosition = 0;
 176              		.loc 1 66 0
 177 0020 7B68     		ldr	r3, [r7, #4]
 178 0022 0022     		mov	r2, #0
 179 0024 5A60     		str	r2, [r3, #4]
  67:.\src-fsm/Fsm.c **** 			/* Exit action for state 'Sleep'. */
  68:.\src-fsm/Fsm.c **** 			fsmIfacePlatform_resume();
 180              		.loc 1 68 0
 181 0026 FFF7FEFF 		bl	fsmIfacePlatform_resume
  69:.\src-fsm/Fsm.c **** 			break;
 182              		.loc 1 69 0
 183 002a 38E0     		b	.L16
 184              	.L9:
  70:.\src-fsm/Fsm.c **** 		}
  71:.\src-fsm/Fsm.c **** 		case Fsm_main_region_Operation_op_Decide : {
  72:.\src-fsm/Fsm.c **** 			/* Default exit sequence for state Decide */
  73:.\src-fsm/Fsm.c **** 			handle->stateConfVector[0] = Fsm_last_state;
 185              		.loc 1 73 0
 186 002c 7B68     		ldr	r3, [r7, #4]
 187 002e 0A22     		mov	r2, #10
 188 0030 1A70     		strb	r2, [r3]
  74:.\src-fsm/Fsm.c **** 			handle->stateConfVectorPosition = 0;
 189              		.loc 1 74 0
 190 0032 7B68     		ldr	r3, [r7, #4]
 191 0034 0022     		mov	r2, #0
 192 0036 5A60     		str	r2, [r3, #4]
  75:.\src-fsm/Fsm.c **** 			break;
 193              		.loc 1 75 0
 194 0038 31E0     		b	.L16
 195              	.L10:
  76:.\src-fsm/Fsm.c **** 		}
  77:.\src-fsm/Fsm.c **** 		case Fsm_main_region_Operation_op_ValveOn : {
  78:.\src-fsm/Fsm.c **** 			/* Default exit sequence for state ValveOn */
  79:.\src-fsm/Fsm.c **** 			handle->stateConfVector[0] = Fsm_last_state;
 196              		.loc 1 79 0
 197 003a 7B68     		ldr	r3, [r7, #4]
 198 003c 0A22     		mov	r2, #10
 199 003e 1A70     		strb	r2, [r3]
  80:.\src-fsm/Fsm.c **** 			handle->stateConfVectorPosition = 0;
 200              		.loc 1 80 0
 201 0040 7B68     		ldr	r3, [r7, #4]
 202 0042 0022     		mov	r2, #0
 203 0044 5A60     		str	r2, [r3, #4]
ARM GAS  C:\Users\SDEVAS~1\AppData\Local\Temp\ccigAyFK.s 			page 6


  81:.\src-fsm/Fsm.c **** 			break;
 204              		.loc 1 81 0
 205 0046 2AE0     		b	.L16
 206              	.L11:
  82:.\src-fsm/Fsm.c **** 		}
  83:.\src-fsm/Fsm.c **** 		case Fsm_main_region_Operation_op_ValveOff : {
  84:.\src-fsm/Fsm.c **** 			/* Default exit sequence for state ValveOff */
  85:.\src-fsm/Fsm.c **** 			handle->stateConfVector[0] = Fsm_last_state;
 207              		.loc 1 85 0
 208 0048 7B68     		ldr	r3, [r7, #4]
 209 004a 0A22     		mov	r2, #10
 210 004c 1A70     		strb	r2, [r3]
  86:.\src-fsm/Fsm.c **** 			handle->stateConfVectorPosition = 0;
 211              		.loc 1 86 0
 212 004e 7B68     		ldr	r3, [r7, #4]
 213 0050 0022     		mov	r2, #0
 214 0052 5A60     		str	r2, [r3, #4]
  87:.\src-fsm/Fsm.c **** 			break;
 215              		.loc 1 87 0
 216 0054 23E0     		b	.L16
 217              	.L12:
  88:.\src-fsm/Fsm.c **** 		}
  89:.\src-fsm/Fsm.c **** 		case Fsm_main_region_Operation_op_VolumeCheck : {
  90:.\src-fsm/Fsm.c **** 			/* Default exit sequence for state VolumeCheck */
  91:.\src-fsm/Fsm.c **** 			handle->stateConfVector[0] = Fsm_last_state;
 218              		.loc 1 91 0
 219 0056 7B68     		ldr	r3, [r7, #4]
 220 0058 0A22     		mov	r2, #10
 221 005a 1A70     		strb	r2, [r3]
  92:.\src-fsm/Fsm.c **** 			handle->stateConfVectorPosition = 0;
 222              		.loc 1 92 0
 223 005c 7B68     		ldr	r3, [r7, #4]
 224 005e 0022     		mov	r2, #0
 225 0060 5A60     		str	r2, [r3, #4]
  93:.\src-fsm/Fsm.c **** 			break;
 226              		.loc 1 93 0
 227 0062 1CE0     		b	.L16
 228              	.L13:
  94:.\src-fsm/Fsm.c **** 		}
  95:.\src-fsm/Fsm.c **** 		case Fsm_main_region_Operation_op_SendStats : {
  96:.\src-fsm/Fsm.c **** 			/* Default exit sequence for state SendStats */
  97:.\src-fsm/Fsm.c **** 			handle->stateConfVector[0] = Fsm_last_state;
 229              		.loc 1 97 0
 230 0064 7B68     		ldr	r3, [r7, #4]
 231 0066 0A22     		mov	r2, #10
 232 0068 1A70     		strb	r2, [r3]
  98:.\src-fsm/Fsm.c **** 			handle->stateConfVectorPosition = 0;
 233              		.loc 1 98 0
 234 006a 7B68     		ldr	r3, [r7, #4]
 235 006c 0022     		mov	r2, #0
 236 006e 5A60     		str	r2, [r3, #4]
  99:.\src-fsm/Fsm.c **** 			/* Exit action for state 'SendStats'. */
 100:.\src-fsm/Fsm.c **** 			fsm_unsetTimer(handle, (sc_eventid) &(handle->timeEvents.fsm_main_region_Operation_op_SendStats_
 237              		.loc 1 100 0
 238 0070 7B68     		ldr	r3, [r7, #4]
 239 0072 1833     		add	r3, r3, #24
 240 0074 7A68     		ldr	r2, [r7, #4]
ARM GAS  C:\Users\SDEVAS~1\AppData\Local\Temp\ccigAyFK.s 			page 7


 241 0076 101C     		mov	r0, r2
 242 0078 191C     		mov	r1, r3
 243 007a FFF7FEFF 		bl	fsm_unsetTimer
 101:.\src-fsm/Fsm.c **** 			break;
 244              		.loc 1 101 0
 245 007e 0EE0     		b	.L16
 246              	.L14:
 102:.\src-fsm/Fsm.c **** 		}
 103:.\src-fsm/Fsm.c **** 		case Fsm_main_region_TestState_test__final_ : {
 104:.\src-fsm/Fsm.c **** 			/* Default exit sequence for final state. */
 105:.\src-fsm/Fsm.c **** 			handle->stateConfVector[0] = Fsm_last_state;
 247              		.loc 1 105 0
 248 0080 7B68     		ldr	r3, [r7, #4]
 249 0082 0A22     		mov	r2, #10
 250 0084 1A70     		strb	r2, [r3]
 106:.\src-fsm/Fsm.c **** 			handle->stateConfVectorPosition = 0;
 251              		.loc 1 106 0
 252 0086 7B68     		ldr	r3, [r7, #4]
 253 0088 0022     		mov	r2, #0
 254 008a 5A60     		str	r2, [r3, #4]
 107:.\src-fsm/Fsm.c **** 			break;
 255              		.loc 1 107 0
 256 008c 07E0     		b	.L16
 257              	.L15:
 108:.\src-fsm/Fsm.c **** 		}
 109:.\src-fsm/Fsm.c **** 		case Fsm_main_region_Idle : {
 110:.\src-fsm/Fsm.c **** 			/* Default exit sequence for state Idle */
 111:.\src-fsm/Fsm.c **** 			handle->stateConfVector[0] = Fsm_last_state;
 258              		.loc 1 111 0
 259 008e 7B68     		ldr	r3, [r7, #4]
 260 0090 0A22     		mov	r2, #10
 261 0092 1A70     		strb	r2, [r3]
 112:.\src-fsm/Fsm.c **** 			handle->stateConfVectorPosition = 0;
 262              		.loc 1 112 0
 263 0094 7B68     		ldr	r3, [r7, #4]
 264 0096 0022     		mov	r2, #0
 265 0098 5A60     		str	r2, [r3, #4]
 113:.\src-fsm/Fsm.c **** 			break;
 266              		.loc 1 113 0
 267 009a 00E0     		b	.L16
 268              	.L17:
 114:.\src-fsm/Fsm.c **** 		}
 115:.\src-fsm/Fsm.c **** 		default: break;
 269              		.loc 1 115 0
 270 009c C046     		mov	r8, r8
 271              	.L16:
 116:.\src-fsm/Fsm.c **** 	}
 117:.\src-fsm/Fsm.c **** 	fsm_exact_SequenceImpl(handle);
 272              		.loc 1 117 0
 273 009e 7B68     		ldr	r3, [r7, #4]
 274 00a0 181C     		mov	r0, r3
 275 00a2 FFF7FEFF 		bl	fsm_exact_SequenceImpl
 118:.\src-fsm/Fsm.c **** }
 276              		.loc 1 118 0
 277 00a6 BD46     		mov	sp, r7
 278 00a8 02B0     		add	sp, sp, #8
 279              		@ sp needed
ARM GAS  C:\Users\SDEVAS~1\AppData\Local\Temp\ccigAyFK.s 			page 8


 280 00aa 80BD     		pop	{r7, pc}
 281              	.L19:
 282              		.align	2
 283              	.L18:
 284 00ac 00000000 		.word	.L8
 285              		.cfi_endproc
 286              	.LFE2:
 287              		.size	fsm_exit, .-fsm_exit
 288              		.section	.text.fsm_clearInEvents,"ax",%progbits
 289              		.align	2
 290              		.code	16
 291              		.thumb_func
 292              		.type	fsm_clearInEvents, %function
 293              	fsm_clearInEvents:
 294              	.LFB3:
 119:.\src-fsm/Fsm.c **** 
 120:.\src-fsm/Fsm.c **** static void fsm_clearInEvents(Fsm* handle) {
 295              		.loc 1 120 0
 296              		.cfi_startproc
 297 0000 80B5     		push	{r7, lr}
 298              		.cfi_def_cfa_offset 8
 299              		.cfi_offset 7, -8
 300              		.cfi_offset 14, -4
 301 0002 82B0     		sub	sp, sp, #8
 302              		.cfi_def_cfa_offset 16
 303 0004 00AF     		add	r7, sp, #0
 304              		.cfi_def_cfa_register 7
 305 0006 7860     		str	r0, [r7, #4]
 121:.\src-fsm/Fsm.c **** 	handle->ifacePlatform.start_raised = bool_false;
 306              		.loc 1 121 0
 307 0008 7B68     		ldr	r3, [r7, #4]
 308 000a 0022     		mov	r2, #0
 309 000c 1A72     		strb	r2, [r3, #8]
 122:.\src-fsm/Fsm.c **** 	handle->ifacePlatform.test_raised = bool_false;
 310              		.loc 1 122 0
 311 000e 7B68     		ldr	r3, [r7, #4]
 312 0010 0022     		mov	r2, #0
 313 0012 5A72     		strb	r2, [r3, #9]
 123:.\src-fsm/Fsm.c **** 	handle->ifacePlatform.idle_raised = bool_false;
 314              		.loc 1 123 0
 315 0014 7B68     		ldr	r3, [r7, #4]
 316 0016 0022     		mov	r2, #0
 317 0018 9A72     		strb	r2, [r3, #10]
 124:.\src-fsm/Fsm.c **** 	handle->ifacePlatform.timer_raised = bool_false;
 318              		.loc 1 124 0
 319 001a 7B68     		ldr	r3, [r7, #4]
 320 001c 0022     		mov	r2, #0
 321 001e DA72     		strb	r2, [r3, #11]
 125:.\src-fsm/Fsm.c **** 	handle->timeEvents.fsm_main_region_Operation_op_SendStats_tev0_raised = bool_false; 
 322              		.loc 1 125 0
 323 0020 7B68     		ldr	r3, [r7, #4]
 324 0022 0022     		mov	r2, #0
 325 0024 1A76     		strb	r2, [r3, #24]
 126:.\src-fsm/Fsm.c **** }
 326              		.loc 1 126 0
 327 0026 BD46     		mov	sp, r7
 328 0028 02B0     		add	sp, sp, #8
ARM GAS  C:\Users\SDEVAS~1\AppData\Local\Temp\ccigAyFK.s 			page 9


 329              		@ sp needed
 330 002a 80BD     		pop	{r7, pc}
 331              		.cfi_endproc
 332              	.LFE3:
 333              		.size	fsm_clearInEvents, .-fsm_clearInEvents
 334              		.section	.text.fsm_clearOutEvents,"ax",%progbits
 335              		.align	2
 336              		.code	16
 337              		.thumb_func
 338              		.type	fsm_clearOutEvents, %function
 339              	fsm_clearOutEvents:
 340              	.LFB4:
 127:.\src-fsm/Fsm.c **** 
 128:.\src-fsm/Fsm.c **** static void fsm_clearOutEvents(Fsm* handle) {
 341              		.loc 1 128 0
 342              		.cfi_startproc
 343 0000 80B5     		push	{r7, lr}
 344              		.cfi_def_cfa_offset 8
 345              		.cfi_offset 7, -8
 346              		.cfi_offset 14, -4
 347 0002 82B0     		sub	sp, sp, #8
 348              		.cfi_def_cfa_offset 16
 349 0004 00AF     		add	r7, sp, #0
 350              		.cfi_def_cfa_register 7
 351 0006 7860     		str	r0, [r7, #4]
 129:.\src-fsm/Fsm.c **** }
 352              		.loc 1 129 0
 353 0008 BD46     		mov	sp, r7
 354 000a 02B0     		add	sp, sp, #8
 355              		@ sp needed
 356 000c 80BD     		pop	{r7, pc}
 357              		.cfi_endproc
 358              	.LFE4:
 359              		.size	fsm_clearOutEvents, .-fsm_clearOutEvents
 360              		.section	.text.fsm_runCycle,"ax",%progbits
 361              		.align	2
 362              		.global	fsm_runCycle
 363              		.code	16
 364              		.thumb_func
 365              		.type	fsm_runCycle, %function
 366              	fsm_runCycle:
 367              	.LFB5:
 130:.\src-fsm/Fsm.c **** 
 131:.\src-fsm/Fsm.c **** void fsm_runCycle(Fsm* handle) {
 368              		.loc 1 131 0
 369              		.cfi_startproc
 370 0000 80B5     		push	{r7, lr}
 371              		.cfi_def_cfa_offset 8
 372              		.cfi_offset 7, -8
 373              		.cfi_offset 14, -4
 374 0002 82B0     		sub	sp, sp, #8
 375              		.cfi_def_cfa_offset 16
 376 0004 00AF     		add	r7, sp, #0
 377              		.cfi_def_cfa_register 7
 378 0006 7860     		str	r0, [r7, #4]
 132:.\src-fsm/Fsm.c **** 	
 133:.\src-fsm/Fsm.c **** 	fsm_clearOutEvents(handle);
ARM GAS  C:\Users\SDEVAS~1\AppData\Local\Temp\ccigAyFK.s 			page 10


 379              		.loc 1 133 0
 380 0008 7B68     		ldr	r3, [r7, #4]
 381 000a 181C     		mov	r0, r3
 382 000c FFF7FEFF 		bl	fsm_clearOutEvents
 134:.\src-fsm/Fsm.c **** 	
 135:.\src-fsm/Fsm.c **** 	for (handle->stateConfVectorPosition = 0;
 383              		.loc 1 135 0
 384 0010 7B68     		ldr	r3, [r7, #4]
 385 0012 0022     		mov	r2, #0
 386 0014 5A60     		str	r2, [r3, #4]
 387 0016 38E0     		b	.L23
 388              	.L35:
 136:.\src-fsm/Fsm.c **** 		handle->stateConfVectorPosition < FSM_MAX_ORTHOGONAL_STATES;
 137:.\src-fsm/Fsm.c **** 		handle->stateConfVectorPosition++) {
 138:.\src-fsm/Fsm.c **** 			
 139:.\src-fsm/Fsm.c **** 		switch (handle->stateConfVector[handle->stateConfVectorPosition]) {
 389              		.loc 1 139 0
 390 0018 7B68     		ldr	r3, [r7, #4]
 391 001a 5B68     		ldr	r3, [r3, #4]
 392 001c 7A68     		ldr	r2, [r7, #4]
 393 001e D35C     		ldrb	r3, [r2, r3]
 394 0020 092B     		cmp	r3, #9
 395 0022 2CD8     		bhi	.L36
 396 0024 9A00     		lsl	r2, r3, #2
 397 0026 1E4B     		ldr	r3, .L37
 398 0028 D318     		add	r3, r2, r3
 399 002a 1B68     		ldr	r3, [r3]
 400 002c 9F46     		mov	pc, r3
 401              		.section	.rodata
 402              		.align	2
 403              	.L26:
 404 0028 2E000000 		.word	.L25
 405 002c 7E000000 		.word	.L36
 406 0030 38000000 		.word	.L27
 407 0034 42000000 		.word	.L28
 408 0038 4C000000 		.word	.L29
 409 003c 56000000 		.word	.L30
 410 0040 60000000 		.word	.L31
 411 0044 7E000000 		.word	.L36
 412 0048 6A000000 		.word	.L32
 413 004c 74000000 		.word	.L33
 414              		.section	.text.fsm_runCycle
 415              	.L25:
 140:.\src-fsm/Fsm.c **** 		case Fsm_main_region_Sleep : {
 141:.\src-fsm/Fsm.c **** 			fsm_react_main_region_Sleep(handle);
 416              		.loc 1 141 0
 417 002e 7B68     		ldr	r3, [r7, #4]
 418 0030 181C     		mov	r0, r3
 419 0032 FFF7FEFF 		bl	fsm_react_main_region_Sleep
 142:.\src-fsm/Fsm.c **** 			break;
 420              		.loc 1 142 0
 421 0036 23E0     		b	.L34
 422              	.L27:
 143:.\src-fsm/Fsm.c **** 		}
 144:.\src-fsm/Fsm.c **** 		case Fsm_main_region_Operation_op_Decide : {
 145:.\src-fsm/Fsm.c **** 			fsm_react_main_region_Operation_op_Decide(handle);
 423              		.loc 1 145 0
ARM GAS  C:\Users\SDEVAS~1\AppData\Local\Temp\ccigAyFK.s 			page 11


 424 0038 7B68     		ldr	r3, [r7, #4]
 425 003a 181C     		mov	r0, r3
 426 003c FFF7FEFF 		bl	fsm_react_main_region_Operation_op_Decide
 146:.\src-fsm/Fsm.c **** 			break;
 427              		.loc 1 146 0
 428 0040 1EE0     		b	.L34
 429              	.L28:
 147:.\src-fsm/Fsm.c **** 		}
 148:.\src-fsm/Fsm.c **** 		case Fsm_main_region_Operation_op_ValveOn : {
 149:.\src-fsm/Fsm.c **** 			fsm_react_main_region_Operation_op_ValveOn(handle);
 430              		.loc 1 149 0
 431 0042 7B68     		ldr	r3, [r7, #4]
 432 0044 181C     		mov	r0, r3
 433 0046 FFF7FEFF 		bl	fsm_react_main_region_Operation_op_ValveOn
 150:.\src-fsm/Fsm.c **** 			break;
 434              		.loc 1 150 0
 435 004a 19E0     		b	.L34
 436              	.L29:
 151:.\src-fsm/Fsm.c **** 		}
 152:.\src-fsm/Fsm.c **** 		case Fsm_main_region_Operation_op_ValveOff : {
 153:.\src-fsm/Fsm.c **** 			fsm_react_main_region_Operation_op_ValveOff(handle);
 437              		.loc 1 153 0
 438 004c 7B68     		ldr	r3, [r7, #4]
 439 004e 181C     		mov	r0, r3
 440 0050 FFF7FEFF 		bl	fsm_react_main_region_Operation_op_ValveOff
 154:.\src-fsm/Fsm.c **** 			break;
 441              		.loc 1 154 0
 442 0054 14E0     		b	.L34
 443              	.L30:
 155:.\src-fsm/Fsm.c **** 		}
 156:.\src-fsm/Fsm.c **** 		case Fsm_main_region_Operation_op_VolumeCheck : {
 157:.\src-fsm/Fsm.c **** 			fsm_react_main_region_Operation_op_VolumeCheck(handle);
 444              		.loc 1 157 0
 445 0056 7B68     		ldr	r3, [r7, #4]
 446 0058 181C     		mov	r0, r3
 447 005a FFF7FEFF 		bl	fsm_react_main_region_Operation_op_VolumeCheck
 158:.\src-fsm/Fsm.c **** 			break;
 448              		.loc 1 158 0
 449 005e 0FE0     		b	.L34
 450              	.L31:
 159:.\src-fsm/Fsm.c **** 		}
 160:.\src-fsm/Fsm.c **** 		case Fsm_main_region_Operation_op_SendStats : {
 161:.\src-fsm/Fsm.c **** 			fsm_react_main_region_Operation_op_SendStats(handle);
 451              		.loc 1 161 0
 452 0060 7B68     		ldr	r3, [r7, #4]
 453 0062 181C     		mov	r0, r3
 454 0064 FFF7FEFF 		bl	fsm_react_main_region_Operation_op_SendStats
 162:.\src-fsm/Fsm.c **** 			break;
 455              		.loc 1 162 0
 456 0068 0AE0     		b	.L34
 457              	.L32:
 163:.\src-fsm/Fsm.c **** 		}
 164:.\src-fsm/Fsm.c **** 		case Fsm_main_region_TestState_test__final_ : {
 165:.\src-fsm/Fsm.c **** 			fsm_react_main_region_TestState_test__final_(handle);
 458              		.loc 1 165 0
 459 006a 7B68     		ldr	r3, [r7, #4]
 460 006c 181C     		mov	r0, r3
ARM GAS  C:\Users\SDEVAS~1\AppData\Local\Temp\ccigAyFK.s 			page 12


 461 006e FFF7FEFF 		bl	fsm_react_main_region_TestState_test__final_
 166:.\src-fsm/Fsm.c **** 			break;
 462              		.loc 1 166 0
 463 0072 05E0     		b	.L34
 464              	.L33:
 167:.\src-fsm/Fsm.c **** 		}
 168:.\src-fsm/Fsm.c **** 		case Fsm_main_region_Idle : {
 169:.\src-fsm/Fsm.c **** 			fsm_react_main_region_Idle(handle);
 465              		.loc 1 169 0
 466 0074 7B68     		ldr	r3, [r7, #4]
 467 0076 181C     		mov	r0, r3
 468 0078 FFF7FEFF 		bl	fsm_react_main_region_Idle
 170:.\src-fsm/Fsm.c **** 			break;
 469              		.loc 1 170 0
 470 007c 00E0     		b	.L34
 471              	.L36:
 171:.\src-fsm/Fsm.c **** 		}
 172:.\src-fsm/Fsm.c **** 		default:
 173:.\src-fsm/Fsm.c **** 			break;
 472              		.loc 1 173 0
 473 007e C046     		mov	r8, r8
 474              	.L34:
 137:.\src-fsm/Fsm.c **** 		handle->stateConfVectorPosition++) {
 475              		.loc 1 137 0
 476 0080 7B68     		ldr	r3, [r7, #4]
 477 0082 5B68     		ldr	r3, [r3, #4]
 478 0084 5A1C     		add	r2, r3, #1
 479 0086 7B68     		ldr	r3, [r7, #4]
 480 0088 5A60     		str	r2, [r3, #4]
 481              	.L23:
 136:.\src-fsm/Fsm.c **** 		handle->stateConfVectorPosition < FSM_MAX_ORTHOGONAL_STATES;
 482              		.loc 1 136 0 discriminator 1
 483 008a 7B68     		ldr	r3, [r7, #4]
 484 008c 5B68     		ldr	r3, [r3, #4]
 135:.\src-fsm/Fsm.c **** 	for (handle->stateConfVectorPosition = 0;
 485              		.loc 1 135 0 discriminator 1
 486 008e 002B     		cmp	r3, #0
 487 0090 C2D0     		beq	.L35
 174:.\src-fsm/Fsm.c **** 		}
 175:.\src-fsm/Fsm.c **** 	}
 176:.\src-fsm/Fsm.c **** 	
 177:.\src-fsm/Fsm.c **** 	fsm_clearInEvents(handle);
 488              		.loc 1 177 0
 489 0092 7B68     		ldr	r3, [r7, #4]
 490 0094 181C     		mov	r0, r3
 491 0096 FFF7FEFF 		bl	fsm_clearInEvents
 178:.\src-fsm/Fsm.c **** }
 492              		.loc 1 178 0
 493 009a BD46     		mov	sp, r7
 494 009c 02B0     		add	sp, sp, #8
 495              		@ sp needed
 496 009e 80BD     		pop	{r7, pc}
 497              	.L38:
 498              		.align	2
 499              	.L37:
 500 00a0 28000000 		.word	.L26
 501              		.cfi_endproc
ARM GAS  C:\Users\SDEVAS~1\AppData\Local\Temp\ccigAyFK.s 			page 13


 502              	.LFE5:
 503              		.size	fsm_runCycle, .-fsm_runCycle
 504              		.section	.text.fsm_raiseTimeEvent,"ax",%progbits
 505              		.align	2
 506              		.global	fsm_raiseTimeEvent
 507              		.code	16
 508              		.thumb_func
 509              		.type	fsm_raiseTimeEvent, %function
 510              	fsm_raiseTimeEvent:
 511              	.LFB6:
 179:.\src-fsm/Fsm.c **** 
 180:.\src-fsm/Fsm.c **** void fsm_raiseTimeEvent(Fsm* handle, sc_eventid evid) {
 512              		.loc 1 180 0
 513              		.cfi_startproc
 514 0000 80B5     		push	{r7, lr}
 515              		.cfi_def_cfa_offset 8
 516              		.cfi_offset 7, -8
 517              		.cfi_offset 14, -4
 518 0002 82B0     		sub	sp, sp, #8
 519              		.cfi_def_cfa_offset 16
 520 0004 00AF     		add	r7, sp, #0
 521              		.cfi_def_cfa_register 7
 522 0006 7860     		str	r0, [r7, #4]
 523 0008 3960     		str	r1, [r7]
 181:.\src-fsm/Fsm.c **** 	if ( ((intptr_t)evid) >= ((intptr_t)&(handle->timeEvents))
 524              		.loc 1 181 0
 525 000a 3A68     		ldr	r2, [r7]
 526 000c 7B68     		ldr	r3, [r7, #4]
 527 000e 1833     		add	r3, r3, #24
 528 0010 9A42     		cmp	r2, r3
 529 0012 08DB     		blt	.L39
 182:.\src-fsm/Fsm.c **** 		&&  ((intptr_t)evid) < ((intptr_t)&(handle->timeEvents)) + sizeof(FsmTimeEvents)) {
 530              		.loc 1 182 0
 531 0014 3A68     		ldr	r2, [r7]
 532 0016 7B68     		ldr	r3, [r7, #4]
 533 0018 1833     		add	r3, r3, #24
 534 001a 0133     		add	r3, r3, #1
 535 001c 9A42     		cmp	r2, r3
 536 001e 02D2     		bcs	.L39
 183:.\src-fsm/Fsm.c **** 		*(sc_boolean*)evid = bool_true;
 537              		.loc 1 183 0
 538 0020 3B68     		ldr	r3, [r7]
 539 0022 0122     		mov	r2, #1
 540 0024 1A70     		strb	r2, [r3]
 541              	.L39:
 184:.\src-fsm/Fsm.c **** 	}		
 185:.\src-fsm/Fsm.c **** }
 542              		.loc 1 185 0
 543 0026 BD46     		mov	sp, r7
 544 0028 02B0     		add	sp, sp, #8
 545              		@ sp needed
 546 002a 80BD     		pop	{r7, pc}
 547              		.cfi_endproc
 548              	.LFE6:
 549              		.size	fsm_raiseTimeEvent, .-fsm_raiseTimeEvent
 550              		.section	.text.fsm_isActive,"ax",%progbits
 551              		.align	2
ARM GAS  C:\Users\SDEVAS~1\AppData\Local\Temp\ccigAyFK.s 			page 14


 552              		.global	fsm_isActive
 553              		.code	16
 554              		.thumb_func
 555              		.type	fsm_isActive, %function
 556              	fsm_isActive:
 557              	.LFB7:
 186:.\src-fsm/Fsm.c **** 
 187:.\src-fsm/Fsm.c **** sc_boolean fsm_isActive(Fsm* handle, FsmStates state) {
 558              		.loc 1 187 0
 559              		.cfi_startproc
 560 0000 80B5     		push	{r7, lr}
 561              		.cfi_def_cfa_offset 8
 562              		.cfi_offset 7, -8
 563              		.cfi_offset 14, -4
 564 0002 82B0     		sub	sp, sp, #8
 565              		.cfi_def_cfa_offset 16
 566 0004 00AF     		add	r7, sp, #0
 567              		.cfi_def_cfa_register 7
 568 0006 7860     		str	r0, [r7, #4]
 569 0008 0A1C     		mov	r2, r1
 570 000a FB1C     		add	r3, r7, #3
 571 000c 1A70     		strb	r2, [r3]
 188:.\src-fsm/Fsm.c **** 	switch (state) {
 572              		.loc 1 188 0
 573 000e FB1C     		add	r3, r7, #3
 574 0010 1B78     		ldrb	r3, [r3]
 575 0012 092B     		cmp	r3, #9
 576 0014 5BD8     		bhi	.L42
 577 0016 9A00     		lsl	r2, r3, #2
 578 0018 2F4B     		ldr	r3, .L59
 579 001a D318     		add	r3, r2, r3
 580 001c 1B68     		ldr	r3, [r3]
 581 001e 9F46     		mov	pc, r3
 582              		.section	.rodata
 583              		.align	2
 584              	.L44:
 585 0050 20000000 		.word	.L43
 586 0054 2C000000 		.word	.L45
 587 0058 4C000000 		.word	.L46
 588 005c 5A000000 		.word	.L47
 589 0060 68000000 		.word	.L48
 590 0064 76000000 		.word	.L49
 591 0068 84000000 		.word	.L50
 592 006c 92000000 		.word	.L51
 593 0070 B2000000 		.word	.L52
 594 0074 C0000000 		.word	.L53
 595              		.section	.text.fsm_isActive
 596              	.L43:
 189:.\src-fsm/Fsm.c **** 		case Fsm_main_region_Sleep : 
 190:.\src-fsm/Fsm.c **** 			return (sc_boolean) (handle->stateConfVector[0] == Fsm_main_region_Sleep
 597              		.loc 1 190 0
 598 0020 7B68     		ldr	r3, [r7, #4]
 599 0022 1B78     		ldrb	r3, [r3]
 600 0024 5A42     		neg	r2, r3
 601 0026 5341     		adc	r3, r3, r2
 602 0028 DBB2     		uxtb	r3, r3
 603 002a 51E0     		b	.L54
ARM GAS  C:\Users\SDEVAS~1\AppData\Local\Temp\ccigAyFK.s 			page 15


 604              	.L45:
 191:.\src-fsm/Fsm.c **** 			);
 192:.\src-fsm/Fsm.c **** 		case Fsm_main_region_Operation : 
 193:.\src-fsm/Fsm.c **** 			return (sc_boolean) (handle->stateConfVector[0] >= Fsm_main_region_Operation
 605              		.loc 1 193 0
 606 002c 7B68     		ldr	r3, [r7, #4]
 607 002e 1B78     		ldrb	r3, [r3]
 194:.\src-fsm/Fsm.c **** 				&& handle->stateConfVector[0] <= Fsm_main_region_Operation_op_SendStats);
 608              		.loc 1 194 0
 609 0030 002B     		cmp	r3, #0
 610 0032 05D0     		beq	.L55
 611              		.loc 1 194 0 is_stmt 0 discriminator 1
 612 0034 7B68     		ldr	r3, [r7, #4]
 613 0036 1B78     		ldrb	r3, [r3]
 614 0038 062B     		cmp	r3, #6
 615 003a 01D8     		bhi	.L55
 616              		.loc 1 194 0 discriminator 3
 617 003c 0123     		mov	r3, #1
 618 003e 00E0     		b	.L56
 619              	.L55:
 620              		.loc 1 194 0 discriminator 2
 621 0040 0023     		mov	r3, #0
 622              	.L56:
 193:.\src-fsm/Fsm.c **** 			return (sc_boolean) (handle->stateConfVector[0] >= Fsm_main_region_Operation
 623              		.loc 1 193 0 is_stmt 1
 624 0042 1A1C     		add	r2, r3, #0
 625 0044 0123     		mov	r3, #1
 626 0046 1340     		and	r3, r2
 627 0048 DBB2     		uxtb	r3, r3
 628 004a 41E0     		b	.L54
 629              	.L46:
 195:.\src-fsm/Fsm.c **** 		case Fsm_main_region_Operation_op_Decide : 
 196:.\src-fsm/Fsm.c **** 			return (sc_boolean) (handle->stateConfVector[0] == Fsm_main_region_Operation_op_Decide
 630              		.loc 1 196 0
 631 004c 7B68     		ldr	r3, [r7, #4]
 632 004e 1B78     		ldrb	r3, [r3]
 633 0050 023B     		sub	r3, r3, #2
 634 0052 5A42     		neg	r2, r3
 635 0054 5341     		adc	r3, r3, r2
 636 0056 DBB2     		uxtb	r3, r3
 637 0058 3AE0     		b	.L54
 638              	.L47:
 197:.\src-fsm/Fsm.c **** 			);
 198:.\src-fsm/Fsm.c **** 		case Fsm_main_region_Operation_op_ValveOn : 
 199:.\src-fsm/Fsm.c **** 			return (sc_boolean) (handle->stateConfVector[0] == Fsm_main_region_Operation_op_ValveOn
 639              		.loc 1 199 0
 640 005a 7B68     		ldr	r3, [r7, #4]
 641 005c 1B78     		ldrb	r3, [r3]
 642 005e 033B     		sub	r3, r3, #3
 643 0060 5A42     		neg	r2, r3
 644 0062 5341     		adc	r3, r3, r2
 645 0064 DBB2     		uxtb	r3, r3
 646 0066 33E0     		b	.L54
 647              	.L48:
 200:.\src-fsm/Fsm.c **** 			);
 201:.\src-fsm/Fsm.c **** 		case Fsm_main_region_Operation_op_ValveOff : 
 202:.\src-fsm/Fsm.c **** 			return (sc_boolean) (handle->stateConfVector[0] == Fsm_main_region_Operation_op_ValveOff
ARM GAS  C:\Users\SDEVAS~1\AppData\Local\Temp\ccigAyFK.s 			page 16


 648              		.loc 1 202 0
 649 0068 7B68     		ldr	r3, [r7, #4]
 650 006a 1B78     		ldrb	r3, [r3]
 651 006c 043B     		sub	r3, r3, #4
 652 006e 5A42     		neg	r2, r3
 653 0070 5341     		adc	r3, r3, r2
 654 0072 DBB2     		uxtb	r3, r3
 655 0074 2CE0     		b	.L54
 656              	.L49:
 203:.\src-fsm/Fsm.c **** 			);
 204:.\src-fsm/Fsm.c **** 		case Fsm_main_region_Operation_op_VolumeCheck : 
 205:.\src-fsm/Fsm.c **** 			return (sc_boolean) (handle->stateConfVector[0] == Fsm_main_region_Operation_op_VolumeCheck
 657              		.loc 1 205 0
 658 0076 7B68     		ldr	r3, [r7, #4]
 659 0078 1B78     		ldrb	r3, [r3]
 660 007a 053B     		sub	r3, r3, #5
 661 007c 5A42     		neg	r2, r3
 662 007e 5341     		adc	r3, r3, r2
 663 0080 DBB2     		uxtb	r3, r3
 664 0082 25E0     		b	.L54
 665              	.L50:
 206:.\src-fsm/Fsm.c **** 			);
 207:.\src-fsm/Fsm.c **** 		case Fsm_main_region_Operation_op_SendStats : 
 208:.\src-fsm/Fsm.c **** 			return (sc_boolean) (handle->stateConfVector[0] == Fsm_main_region_Operation_op_SendStats
 666              		.loc 1 208 0
 667 0084 7B68     		ldr	r3, [r7, #4]
 668 0086 1B78     		ldrb	r3, [r3]
 669 0088 063B     		sub	r3, r3, #6
 670 008a 5A42     		neg	r2, r3
 671 008c 5341     		adc	r3, r3, r2
 672 008e DBB2     		uxtb	r3, r3
 673 0090 1EE0     		b	.L54
 674              	.L51:
 209:.\src-fsm/Fsm.c **** 			);
 210:.\src-fsm/Fsm.c **** 		case Fsm_main_region_TestState : 
 211:.\src-fsm/Fsm.c **** 			return (sc_boolean) (handle->stateConfVector[0] >= Fsm_main_region_TestState
 675              		.loc 1 211 0
 676 0092 7B68     		ldr	r3, [r7, #4]
 677 0094 1B78     		ldrb	r3, [r3]
 212:.\src-fsm/Fsm.c **** 				&& handle->stateConfVector[0] <= Fsm_main_region_TestState_test__final_);
 678              		.loc 1 212 0
 679 0096 062B     		cmp	r3, #6
 680 0098 05D9     		bls	.L57
 681              		.loc 1 212 0 is_stmt 0 discriminator 1
 682 009a 7B68     		ldr	r3, [r7, #4]
 683 009c 1B78     		ldrb	r3, [r3]
 684 009e 082B     		cmp	r3, #8
 685 00a0 01D8     		bhi	.L57
 686              		.loc 1 212 0 discriminator 3
 687 00a2 0123     		mov	r3, #1
 688 00a4 00E0     		b	.L58
 689              	.L57:
 690              		.loc 1 212 0 discriminator 2
 691 00a6 0023     		mov	r3, #0
 692              	.L58:
 211:.\src-fsm/Fsm.c **** 			return (sc_boolean) (handle->stateConfVector[0] >= Fsm_main_region_TestState
 693              		.loc 1 211 0 is_stmt 1
ARM GAS  C:\Users\SDEVAS~1\AppData\Local\Temp\ccigAyFK.s 			page 17


 694 00a8 1A1C     		add	r2, r3, #0
 695 00aa 0123     		mov	r3, #1
 696 00ac 1340     		and	r3, r2
 697 00ae DBB2     		uxtb	r3, r3
 698 00b0 0EE0     		b	.L54
 699              	.L52:
 213:.\src-fsm/Fsm.c **** 		case Fsm_main_region_TestState_test__final_ : 
 214:.\src-fsm/Fsm.c **** 			return (sc_boolean) (handle->stateConfVector[0] == Fsm_main_region_TestState_test__final_
 700              		.loc 1 214 0
 701 00b2 7B68     		ldr	r3, [r7, #4]
 702 00b4 1B78     		ldrb	r3, [r3]
 703 00b6 083B     		sub	r3, r3, #8
 704 00b8 5A42     		neg	r2, r3
 705 00ba 5341     		adc	r3, r3, r2
 706 00bc DBB2     		uxtb	r3, r3
 707 00be 07E0     		b	.L54
 708              	.L53:
 215:.\src-fsm/Fsm.c **** 			);
 216:.\src-fsm/Fsm.c **** 		case Fsm_main_region_Idle : 
 217:.\src-fsm/Fsm.c **** 			return (sc_boolean) (handle->stateConfVector[0] == Fsm_main_region_Idle
 709              		.loc 1 217 0
 710 00c0 7B68     		ldr	r3, [r7, #4]
 711 00c2 1B78     		ldrb	r3, [r3]
 712 00c4 093B     		sub	r3, r3, #9
 713 00c6 5A42     		neg	r2, r3
 714 00c8 5341     		adc	r3, r3, r2
 715 00ca DBB2     		uxtb	r3, r3
 716 00cc 00E0     		b	.L54
 717              	.L42:
 218:.\src-fsm/Fsm.c **** 			);
 219:.\src-fsm/Fsm.c **** 		default: return bool_false;
 718              		.loc 1 219 0
 719 00ce 0023     		mov	r3, #0
 720              	.L54:
 220:.\src-fsm/Fsm.c **** 	}
 221:.\src-fsm/Fsm.c **** }
 721              		.loc 1 221 0
 722 00d0 181C     		mov	r0, r3
 723 00d2 BD46     		mov	sp, r7
 724 00d4 02B0     		add	sp, sp, #8
 725              		@ sp needed
 726 00d6 80BD     		pop	{r7, pc}
 727              	.L60:
 728              		.align	2
 729              	.L59:
 730 00d8 50000000 		.word	.L44
 731              		.cfi_endproc
 732              	.LFE7:
 733              		.size	fsm_isActive, .-fsm_isActive
 734              		.section	.text.fsmIfacePlatform_raise_start,"ax",%progbits
 735              		.align	2
 736              		.global	fsmIfacePlatform_raise_start
 737              		.code	16
 738              		.thumb_func
 739              		.type	fsmIfacePlatform_raise_start, %function
 740              	fsmIfacePlatform_raise_start:
 741              	.LFB8:
ARM GAS  C:\Users\SDEVAS~1\AppData\Local\Temp\ccigAyFK.s 			page 18


 222:.\src-fsm/Fsm.c **** 
 223:.\src-fsm/Fsm.c **** void fsmIfacePlatform_raise_start(Fsm* handle) {
 742              		.loc 1 223 0
 743              		.cfi_startproc
 744 0000 80B5     		push	{r7, lr}
 745              		.cfi_def_cfa_offset 8
 746              		.cfi_offset 7, -8
 747              		.cfi_offset 14, -4
 748 0002 82B0     		sub	sp, sp, #8
 749              		.cfi_def_cfa_offset 16
 750 0004 00AF     		add	r7, sp, #0
 751              		.cfi_def_cfa_register 7
 752 0006 7860     		str	r0, [r7, #4]
 224:.\src-fsm/Fsm.c **** 	handle->ifacePlatform.start_raised = bool_true;
 753              		.loc 1 224 0
 754 0008 7B68     		ldr	r3, [r7, #4]
 755 000a 0122     		mov	r2, #1
 756 000c 1A72     		strb	r2, [r3, #8]
 225:.\src-fsm/Fsm.c **** }
 757              		.loc 1 225 0
 758 000e BD46     		mov	sp, r7
 759 0010 02B0     		add	sp, sp, #8
 760              		@ sp needed
 761 0012 80BD     		pop	{r7, pc}
 762              		.cfi_endproc
 763              	.LFE8:
 764              		.size	fsmIfacePlatform_raise_start, .-fsmIfacePlatform_raise_start
 765              		.section	.text.fsmIfacePlatform_raise_test,"ax",%progbits
 766              		.align	2
 767              		.global	fsmIfacePlatform_raise_test
 768              		.code	16
 769              		.thumb_func
 770              		.type	fsmIfacePlatform_raise_test, %function
 771              	fsmIfacePlatform_raise_test:
 772              	.LFB9:
 226:.\src-fsm/Fsm.c **** void fsmIfacePlatform_raise_test(Fsm* handle) {
 773              		.loc 1 226 0
 774              		.cfi_startproc
 775 0000 80B5     		push	{r7, lr}
 776              		.cfi_def_cfa_offset 8
 777              		.cfi_offset 7, -8
 778              		.cfi_offset 14, -4
 779 0002 82B0     		sub	sp, sp, #8
 780              		.cfi_def_cfa_offset 16
 781 0004 00AF     		add	r7, sp, #0
 782              		.cfi_def_cfa_register 7
 783 0006 7860     		str	r0, [r7, #4]
 227:.\src-fsm/Fsm.c **** 	handle->ifacePlatform.test_raised = bool_true;
 784              		.loc 1 227 0
 785 0008 7B68     		ldr	r3, [r7, #4]
 786 000a 0122     		mov	r2, #1
 787 000c 5A72     		strb	r2, [r3, #9]
 228:.\src-fsm/Fsm.c **** }
 788              		.loc 1 228 0
 789 000e BD46     		mov	sp, r7
 790 0010 02B0     		add	sp, sp, #8
 791              		@ sp needed
ARM GAS  C:\Users\SDEVAS~1\AppData\Local\Temp\ccigAyFK.s 			page 19


 792 0012 80BD     		pop	{r7, pc}
 793              		.cfi_endproc
 794              	.LFE9:
 795              		.size	fsmIfacePlatform_raise_test, .-fsmIfacePlatform_raise_test
 796              		.section	.text.fsmIfacePlatform_raise_idle,"ax",%progbits
 797              		.align	2
 798              		.global	fsmIfacePlatform_raise_idle
 799              		.code	16
 800              		.thumb_func
 801              		.type	fsmIfacePlatform_raise_idle, %function
 802              	fsmIfacePlatform_raise_idle:
 803              	.LFB10:
 229:.\src-fsm/Fsm.c **** void fsmIfacePlatform_raise_idle(Fsm* handle) {
 804              		.loc 1 229 0
 805              		.cfi_startproc
 806 0000 80B5     		push	{r7, lr}
 807              		.cfi_def_cfa_offset 8
 808              		.cfi_offset 7, -8
 809              		.cfi_offset 14, -4
 810 0002 82B0     		sub	sp, sp, #8
 811              		.cfi_def_cfa_offset 16
 812 0004 00AF     		add	r7, sp, #0
 813              		.cfi_def_cfa_register 7
 814 0006 7860     		str	r0, [r7, #4]
 230:.\src-fsm/Fsm.c **** 	handle->ifacePlatform.idle_raised = bool_true;
 815              		.loc 1 230 0
 816 0008 7B68     		ldr	r3, [r7, #4]
 817 000a 0122     		mov	r2, #1
 818 000c 9A72     		strb	r2, [r3, #10]
 231:.\src-fsm/Fsm.c **** }
 819              		.loc 1 231 0
 820 000e BD46     		mov	sp, r7
 821 0010 02B0     		add	sp, sp, #8
 822              		@ sp needed
 823 0012 80BD     		pop	{r7, pc}
 824              		.cfi_endproc
 825              	.LFE10:
 826              		.size	fsmIfacePlatform_raise_idle, .-fsmIfacePlatform_raise_idle
 827              		.section	.text.fsmIfacePlatform_raise_timer,"ax",%progbits
 828              		.align	2
 829              		.global	fsmIfacePlatform_raise_timer
 830              		.code	16
 831              		.thumb_func
 832              		.type	fsmIfacePlatform_raise_timer, %function
 833              	fsmIfacePlatform_raise_timer:
 834              	.LFB11:
 232:.\src-fsm/Fsm.c **** void fsmIfacePlatform_raise_timer(Fsm* handle) {
 835              		.loc 1 232 0
 836              		.cfi_startproc
 837 0000 80B5     		push	{r7, lr}
 838              		.cfi_def_cfa_offset 8
 839              		.cfi_offset 7, -8
 840              		.cfi_offset 14, -4
 841 0002 82B0     		sub	sp, sp, #8
 842              		.cfi_def_cfa_offset 16
 843 0004 00AF     		add	r7, sp, #0
 844              		.cfi_def_cfa_register 7
ARM GAS  C:\Users\SDEVAS~1\AppData\Local\Temp\ccigAyFK.s 			page 20


 845 0006 7860     		str	r0, [r7, #4]
 233:.\src-fsm/Fsm.c **** 	handle->ifacePlatform.timer_raised = bool_true;
 846              		.loc 1 233 0
 847 0008 7B68     		ldr	r3, [r7, #4]
 848 000a 0122     		mov	r2, #1
 849 000c DA72     		strb	r2, [r3, #11]
 234:.\src-fsm/Fsm.c **** }
 850              		.loc 1 234 0
 851 000e BD46     		mov	sp, r7
 852 0010 02B0     		add	sp, sp, #8
 853              		@ sp needed
 854 0012 80BD     		pop	{r7, pc}
 855              		.cfi_endproc
 856              	.LFE11:
 857              		.size	fsmIfacePlatform_raise_timer, .-fsmIfacePlatform_raise_timer
 858              		.section	.text.fsmIfaceWaterControl_get_maxVolume,"ax",%progbits
 859              		.align	2
 860              		.global	fsmIfaceWaterControl_get_maxVolume
 861              		.code	16
 862              		.thumb_func
 863              		.type	fsmIfaceWaterControl_get_maxVolume, %function
 864              	fsmIfaceWaterControl_get_maxVolume:
 865              	.LFB12:
 235:.\src-fsm/Fsm.c **** 
 236:.\src-fsm/Fsm.c **** 
 237:.\src-fsm/Fsm.c **** 
 238:.\src-fsm/Fsm.c **** 
 239:.\src-fsm/Fsm.c **** 
 240:.\src-fsm/Fsm.c **** 
 241:.\src-fsm/Fsm.c **** sc_integer fsmIfaceWaterControl_get_maxVolume(Fsm* handle) {
 866              		.loc 1 241 0
 867              		.cfi_startproc
 868 0000 80B5     		push	{r7, lr}
 869              		.cfi_def_cfa_offset 8
 870              		.cfi_offset 7, -8
 871              		.cfi_offset 14, -4
 872 0002 82B0     		sub	sp, sp, #8
 873              		.cfi_def_cfa_offset 16
 874 0004 00AF     		add	r7, sp, #0
 875              		.cfi_def_cfa_register 7
 876 0006 7860     		str	r0, [r7, #4]
 242:.\src-fsm/Fsm.c **** 	return handle->ifaceWaterControl.maxVolume;
 877              		.loc 1 242 0
 878 0008 7B68     		ldr	r3, [r7, #4]
 879 000a DB68     		ldr	r3, [r3, #12]
 243:.\src-fsm/Fsm.c **** }
 880              		.loc 1 243 0
 881 000c 181C     		mov	r0, r3
 882 000e BD46     		mov	sp, r7
 883 0010 02B0     		add	sp, sp, #8
 884              		@ sp needed
 885 0012 80BD     		pop	{r7, pc}
 886              		.cfi_endproc
 887              	.LFE12:
 888              		.size	fsmIfaceWaterControl_get_maxVolume, .-fsmIfaceWaterControl_get_maxVolume
 889              		.section	.text.fsmIfaceWaterControl_set_maxVolume,"ax",%progbits
 890              		.align	2
ARM GAS  C:\Users\SDEVAS~1\AppData\Local\Temp\ccigAyFK.s 			page 21


 891              		.global	fsmIfaceWaterControl_set_maxVolume
 892              		.code	16
 893              		.thumb_func
 894              		.type	fsmIfaceWaterControl_set_maxVolume, %function
 895              	fsmIfaceWaterControl_set_maxVolume:
 896              	.LFB13:
 244:.\src-fsm/Fsm.c **** void fsmIfaceWaterControl_set_maxVolume(Fsm* handle, sc_integer value) {
 897              		.loc 1 244 0
 898              		.cfi_startproc
 899 0000 80B5     		push	{r7, lr}
 900              		.cfi_def_cfa_offset 8
 901              		.cfi_offset 7, -8
 902              		.cfi_offset 14, -4
 903 0002 82B0     		sub	sp, sp, #8
 904              		.cfi_def_cfa_offset 16
 905 0004 00AF     		add	r7, sp, #0
 906              		.cfi_def_cfa_register 7
 907 0006 7860     		str	r0, [r7, #4]
 908 0008 3960     		str	r1, [r7]
 245:.\src-fsm/Fsm.c **** 	handle->ifaceWaterControl.maxVolume = value;
 909              		.loc 1 245 0
 910 000a 7B68     		ldr	r3, [r7, #4]
 911 000c 3A68     		ldr	r2, [r7]
 912 000e DA60     		str	r2, [r3, #12]
 246:.\src-fsm/Fsm.c **** }
 913              		.loc 1 246 0
 914 0010 BD46     		mov	sp, r7
 915 0012 02B0     		add	sp, sp, #8
 916              		@ sp needed
 917 0014 80BD     		pop	{r7, pc}
 918              		.cfi_endproc
 919              	.LFE13:
 920              		.size	fsmIfaceWaterControl_set_maxVolume, .-fsmIfaceWaterControl_set_maxVolume
 921 0016 C046     		.section	.text.fsmIfaceWaterControl_get_currentVolume,"ax",%progbits
 922              		.align	2
 923              		.global	fsmIfaceWaterControl_get_currentVolume
 924              		.code	16
 925              		.thumb_func
 926              		.type	fsmIfaceWaterControl_get_currentVolume, %function
 927              	fsmIfaceWaterControl_get_currentVolume:
 928              	.LFB14:
 247:.\src-fsm/Fsm.c **** sc_integer fsmIfaceWaterControl_get_currentVolume(Fsm* handle) {
 929              		.loc 1 247 0
 930              		.cfi_startproc
 931 0000 80B5     		push	{r7, lr}
 932              		.cfi_def_cfa_offset 8
 933              		.cfi_offset 7, -8
 934              		.cfi_offset 14, -4
 935 0002 82B0     		sub	sp, sp, #8
 936              		.cfi_def_cfa_offset 16
 937 0004 00AF     		add	r7, sp, #0
 938              		.cfi_def_cfa_register 7
 939 0006 7860     		str	r0, [r7, #4]
 248:.\src-fsm/Fsm.c **** 	return handle->ifaceWaterControl.currentVolume;
 940              		.loc 1 248 0
 941 0008 7B68     		ldr	r3, [r7, #4]
 942 000a 1B69     		ldr	r3, [r3, #16]
ARM GAS  C:\Users\SDEVAS~1\AppData\Local\Temp\ccigAyFK.s 			page 22


 249:.\src-fsm/Fsm.c **** }
 943              		.loc 1 249 0
 944 000c 181C     		mov	r0, r3
 945 000e BD46     		mov	sp, r7
 946 0010 02B0     		add	sp, sp, #8
 947              		@ sp needed
 948 0012 80BD     		pop	{r7, pc}
 949              		.cfi_endproc
 950              	.LFE14:
 951              		.size	fsmIfaceWaterControl_get_currentVolume, .-fsmIfaceWaterControl_get_currentVolume
 952              		.section	.text.fsmIfaceWaterControl_set_currentVolume,"ax",%progbits
 953              		.align	2
 954              		.global	fsmIfaceWaterControl_set_currentVolume
 955              		.code	16
 956              		.thumb_func
 957              		.type	fsmIfaceWaterControl_set_currentVolume, %function
 958              	fsmIfaceWaterControl_set_currentVolume:
 959              	.LFB15:
 250:.\src-fsm/Fsm.c **** void fsmIfaceWaterControl_set_currentVolume(Fsm* handle, sc_integer value) {
 960              		.loc 1 250 0
 961              		.cfi_startproc
 962 0000 80B5     		push	{r7, lr}
 963              		.cfi_def_cfa_offset 8
 964              		.cfi_offset 7, -8
 965              		.cfi_offset 14, -4
 966 0002 82B0     		sub	sp, sp, #8
 967              		.cfi_def_cfa_offset 16
 968 0004 00AF     		add	r7, sp, #0
 969              		.cfi_def_cfa_register 7
 970 0006 7860     		str	r0, [r7, #4]
 971 0008 3960     		str	r1, [r7]
 251:.\src-fsm/Fsm.c **** 	handle->ifaceWaterControl.currentVolume = value;
 972              		.loc 1 251 0
 973 000a 7B68     		ldr	r3, [r7, #4]
 974 000c 3A68     		ldr	r2, [r7]
 975 000e 1A61     		str	r2, [r3, #16]
 252:.\src-fsm/Fsm.c **** }
 976              		.loc 1 252 0
 977 0010 BD46     		mov	sp, r7
 978 0012 02B0     		add	sp, sp, #8
 979              		@ sp needed
 980 0014 80BD     		pop	{r7, pc}
 981              		.cfi_endproc
 982              	.LFE15:
 983              		.size	fsmIfaceWaterControl_set_currentVolume, .-fsmIfaceWaterControl_set_currentVolume
 984 0016 C046     		.section	.text.fsmIfaceWaterControl_get_opMode,"ax",%progbits
 985              		.align	2
 986              		.global	fsmIfaceWaterControl_get_opMode
 987              		.code	16
 988              		.thumb_func
 989              		.type	fsmIfaceWaterControl_get_opMode, %function
 990              	fsmIfaceWaterControl_get_opMode:
 991              	.LFB16:
 253:.\src-fsm/Fsm.c **** sc_integer fsmIfaceWaterControl_get_opMode(Fsm* handle) {
 992              		.loc 1 253 0
 993              		.cfi_startproc
 994 0000 80B5     		push	{r7, lr}
ARM GAS  C:\Users\SDEVAS~1\AppData\Local\Temp\ccigAyFK.s 			page 23


 995              		.cfi_def_cfa_offset 8
 996              		.cfi_offset 7, -8
 997              		.cfi_offset 14, -4
 998 0002 82B0     		sub	sp, sp, #8
 999              		.cfi_def_cfa_offset 16
 1000 0004 00AF     		add	r7, sp, #0
 1001              		.cfi_def_cfa_register 7
 1002 0006 7860     		str	r0, [r7, #4]
 254:.\src-fsm/Fsm.c **** 	return handle->ifaceWaterControl.opMode;
 1003              		.loc 1 254 0
 1004 0008 7B68     		ldr	r3, [r7, #4]
 1005 000a 5B69     		ldr	r3, [r3, #20]
 255:.\src-fsm/Fsm.c **** }
 1006              		.loc 1 255 0
 1007 000c 181C     		mov	r0, r3
 1008 000e BD46     		mov	sp, r7
 1009 0010 02B0     		add	sp, sp, #8
 1010              		@ sp needed
 1011 0012 80BD     		pop	{r7, pc}
 1012              		.cfi_endproc
 1013              	.LFE16:
 1014              		.size	fsmIfaceWaterControl_get_opMode, .-fsmIfaceWaterControl_get_opMode
 1015              		.section	.text.fsmIfaceWaterControl_set_opMode,"ax",%progbits
 1016              		.align	2
 1017              		.global	fsmIfaceWaterControl_set_opMode
 1018              		.code	16
 1019              		.thumb_func
 1020              		.type	fsmIfaceWaterControl_set_opMode, %function
 1021              	fsmIfaceWaterControl_set_opMode:
 1022              	.LFB17:
 256:.\src-fsm/Fsm.c **** void fsmIfaceWaterControl_set_opMode(Fsm* handle, sc_integer value) {
 1023              		.loc 1 256 0
 1024              		.cfi_startproc
 1025 0000 80B5     		push	{r7, lr}
 1026              		.cfi_def_cfa_offset 8
 1027              		.cfi_offset 7, -8
 1028              		.cfi_offset 14, -4
 1029 0002 82B0     		sub	sp, sp, #8
 1030              		.cfi_def_cfa_offset 16
 1031 0004 00AF     		add	r7, sp, #0
 1032              		.cfi_def_cfa_register 7
 1033 0006 7860     		str	r0, [r7, #4]
 1034 0008 3960     		str	r1, [r7]
 257:.\src-fsm/Fsm.c **** 	handle->ifaceWaterControl.opMode = value;
 1035              		.loc 1 257 0
 1036 000a 7B68     		ldr	r3, [r7, #4]
 1037 000c 3A68     		ldr	r2, [r7]
 1038 000e 5A61     		str	r2, [r3, #20]
 258:.\src-fsm/Fsm.c **** }
 1039              		.loc 1 258 0
 1040 0010 BD46     		mov	sp, r7
 1041 0012 02B0     		add	sp, sp, #8
 1042              		@ sp needed
 1043 0014 80BD     		pop	{r7, pc}
 1044              		.cfi_endproc
 1045              	.LFE17:
 1046              		.size	fsmIfaceWaterControl_set_opMode, .-fsmIfaceWaterControl_set_opMode
ARM GAS  C:\Users\SDEVAS~1\AppData\Local\Temp\ccigAyFK.s 			page 24


 1047 0016 C046     		.section	.text.fsm_enact_SequenceImpl,"ax",%progbits
 1048              		.align	2
 1049              		.code	16
 1050              		.thumb_func
 1051              		.type	fsm_enact_SequenceImpl, %function
 1052              	fsm_enact_SequenceImpl:
 1053              	.LFB18:
 259:.\src-fsm/Fsm.c **** 
 260:.\src-fsm/Fsm.c **** // implementations of all internal functions
 261:.\src-fsm/Fsm.c **** 
 262:.\src-fsm/Fsm.c **** /* Entry action for statechart 'fsm'. */
 263:.\src-fsm/Fsm.c **** static void fsm_enact_SequenceImpl(Fsm* handle) {
 1054              		.loc 1 263 0
 1055              		.cfi_startproc
 1056 0000 80B5     		push	{r7, lr}
 1057              		.cfi_def_cfa_offset 8
 1058              		.cfi_offset 7, -8
 1059              		.cfi_offset 14, -4
 1060 0002 82B0     		sub	sp, sp, #8
 1061              		.cfi_def_cfa_offset 16
 1062 0004 00AF     		add	r7, sp, #0
 1063              		.cfi_def_cfa_register 7
 1064 0006 7860     		str	r0, [r7, #4]
 264:.\src-fsm/Fsm.c **** }
 1065              		.loc 1 264 0
 1066 0008 BD46     		mov	sp, r7
 1067 000a 02B0     		add	sp, sp, #8
 1068              		@ sp needed
 1069 000c 80BD     		pop	{r7, pc}
 1070              		.cfi_endproc
 1071              	.LFE18:
 1072              		.size	fsm_enact_SequenceImpl, .-fsm_enact_SequenceImpl
 1073              		.section	.text.fsm_exact_SequenceImpl,"ax",%progbits
 1074              		.align	2
 1075              		.code	16
 1076              		.thumb_func
 1077              		.type	fsm_exact_SequenceImpl, %function
 1078              	fsm_exact_SequenceImpl:
 1079              	.LFB19:
 265:.\src-fsm/Fsm.c **** 
 266:.\src-fsm/Fsm.c **** /* Exit action for state 'fsm'. */
 267:.\src-fsm/Fsm.c **** static void fsm_exact_SequenceImpl(Fsm* handle) {
 1080              		.loc 1 267 0
 1081              		.cfi_startproc
 1082 0000 80B5     		push	{r7, lr}
 1083              		.cfi_def_cfa_offset 8
 1084              		.cfi_offset 7, -8
 1085              		.cfi_offset 14, -4
 1086 0002 82B0     		sub	sp, sp, #8
 1087              		.cfi_def_cfa_offset 16
 1088 0004 00AF     		add	r7, sp, #0
 1089              		.cfi_def_cfa_register 7
 1090 0006 7860     		str	r0, [r7, #4]
 268:.\src-fsm/Fsm.c **** }
 1091              		.loc 1 268 0
 1092 0008 BD46     		mov	sp, r7
 1093 000a 02B0     		add	sp, sp, #8
ARM GAS  C:\Users\SDEVAS~1\AppData\Local\Temp\ccigAyFK.s 			page 25


 1094              		@ sp needed
 1095 000c 80BD     		pop	{r7, pc}
 1096              		.cfi_endproc
 1097              	.LFE19:
 1098              		.size	fsm_exact_SequenceImpl, .-fsm_exact_SequenceImpl
 1099              		.section	.text.fsm_react_main_region_Sleep,"ax",%progbits
 1100              		.align	2
 1101              		.code	16
 1102              		.thumb_func
 1103              		.type	fsm_react_main_region_Sleep, %function
 1104              	fsm_react_main_region_Sleep:
 1105              	.LFB20:
 269:.\src-fsm/Fsm.c **** 
 270:.\src-fsm/Fsm.c **** /* The reactions of state Sleep. */
 271:.\src-fsm/Fsm.c **** static void fsm_react_main_region_Sleep(Fsm* handle) {
 1106              		.loc 1 271 0
 1107              		.cfi_startproc
 1108 0000 80B5     		push	{r7, lr}
 1109              		.cfi_def_cfa_offset 8
 1110              		.cfi_offset 7, -8
 1111              		.cfi_offset 14, -4
 1112 0002 82B0     		sub	sp, sp, #8
 1113              		.cfi_def_cfa_offset 16
 1114 0004 00AF     		add	r7, sp, #0
 1115              		.cfi_def_cfa_register 7
 1116 0006 7860     		str	r0, [r7, #4]
 272:.\src-fsm/Fsm.c **** 	/* The reactions of state Sleep. */
 273:.\src-fsm/Fsm.c **** 	if (handle->ifacePlatform.timer_raised) { 
 1117              		.loc 1 273 0
 1118 0008 7B68     		ldr	r3, [r7, #4]
 1119 000a DB7A     		ldrb	r3, [r3, #11]
 1120 000c 002B     		cmp	r3, #0
 1121 000e 15D0     		beq	.L77
 274:.\src-fsm/Fsm.c **** 		/* Default exit sequence for state Sleep */
 275:.\src-fsm/Fsm.c **** 		handle->stateConfVector[0] = Fsm_last_state;
 1122              		.loc 1 275 0
 1123 0010 7B68     		ldr	r3, [r7, #4]
 1124 0012 0A22     		mov	r2, #10
 1125 0014 1A70     		strb	r2, [r3]
 276:.\src-fsm/Fsm.c **** 		handle->stateConfVectorPosition = 0;
 1126              		.loc 1 276 0
 1127 0016 7B68     		ldr	r3, [r7, #4]
 1128 0018 0022     		mov	r2, #0
 1129 001a 5A60     		str	r2, [r3, #4]
 277:.\src-fsm/Fsm.c **** 		/* Exit action for state 'Sleep'. */
 278:.\src-fsm/Fsm.c **** 		fsmIfacePlatform_resume();
 1130              		.loc 1 278 0
 1131 001c FFF7FEFF 		bl	fsmIfacePlatform_resume
 279:.\src-fsm/Fsm.c **** 		/* 'default' enter sequence for state Operation */
 280:.\src-fsm/Fsm.c **** 		/* Entry action for state 'Operation'. */
 281:.\src-fsm/Fsm.c **** 		fsmIfaceWaterControl_setExpTime();
 1132              		.loc 1 281 0
 1133 0020 FFF7FEFF 		bl	fsmIfaceWaterControl_setExpTime
 282:.\src-fsm/Fsm.c **** 		/* 'default' enter sequence for region op */
 283:.\src-fsm/Fsm.c **** 		/* Default react sequence for initial entry  */
 284:.\src-fsm/Fsm.c **** 		/* 'default' enter sequence for state Decide */
 285:.\src-fsm/Fsm.c **** 		/* Entry action for state 'Decide'. */
ARM GAS  C:\Users\SDEVAS~1\AppData\Local\Temp\ccigAyFK.s 			page 26


 286:.\src-fsm/Fsm.c **** 		handle->ifaceWaterControl.opMode = fsmIfaceWaterControl_getOpMode();
 1134              		.loc 1 286 0
 1135 0024 FFF7FEFF 		bl	fsmIfaceWaterControl_getOpMode
 1136 0028 021C     		mov	r2, r0
 1137 002a 7B68     		ldr	r3, [r7, #4]
 1138 002c 5A61     		str	r2, [r3, #20]
 287:.\src-fsm/Fsm.c **** 		handle->stateConfVector[0] = Fsm_main_region_Operation_op_Decide;
 1139              		.loc 1 287 0
 1140 002e 7B68     		ldr	r3, [r7, #4]
 1141 0030 0222     		mov	r2, #2
 1142 0032 1A70     		strb	r2, [r3]
 288:.\src-fsm/Fsm.c **** 		handle->stateConfVectorPosition = 0;
 1143              		.loc 1 288 0
 1144 0034 7B68     		ldr	r3, [r7, #4]
 1145 0036 0022     		mov	r2, #0
 1146 0038 5A60     		str	r2, [r3, #4]
 1147 003a 11E0     		b	.L76
 1148              	.L77:
 289:.\src-fsm/Fsm.c **** 	}  else {
 290:.\src-fsm/Fsm.c **** 		if (handle->ifacePlatform.idle_raised) { 
 1149              		.loc 1 290 0
 1150 003c 7B68     		ldr	r3, [r7, #4]
 1151 003e 9B7A     		ldrb	r3, [r3, #10]
 1152 0040 002B     		cmp	r3, #0
 1153 0042 0DD0     		beq	.L76
 291:.\src-fsm/Fsm.c **** 			/* Default exit sequence for state Sleep */
 292:.\src-fsm/Fsm.c **** 			handle->stateConfVector[0] = Fsm_last_state;
 1154              		.loc 1 292 0
 1155 0044 7B68     		ldr	r3, [r7, #4]
 1156 0046 0A22     		mov	r2, #10
 1157 0048 1A70     		strb	r2, [r3]
 293:.\src-fsm/Fsm.c **** 			handle->stateConfVectorPosition = 0;
 1158              		.loc 1 293 0
 1159 004a 7B68     		ldr	r3, [r7, #4]
 1160 004c 0022     		mov	r2, #0
 1161 004e 5A60     		str	r2, [r3, #4]
 294:.\src-fsm/Fsm.c **** 			/* Exit action for state 'Sleep'. */
 295:.\src-fsm/Fsm.c **** 			fsmIfacePlatform_resume();
 1162              		.loc 1 295 0
 1163 0050 FFF7FEFF 		bl	fsmIfacePlatform_resume
 296:.\src-fsm/Fsm.c **** 			/* 'default' enter sequence for state Idle */
 297:.\src-fsm/Fsm.c **** 			handle->stateConfVector[0] = Fsm_main_region_Idle;
 1164              		.loc 1 297 0
 1165 0054 7B68     		ldr	r3, [r7, #4]
 1166 0056 0922     		mov	r2, #9
 1167 0058 1A70     		strb	r2, [r3]
 298:.\src-fsm/Fsm.c **** 			handle->stateConfVectorPosition = 0;
 1168              		.loc 1 298 0
 1169 005a 7B68     		ldr	r3, [r7, #4]
 1170 005c 0022     		mov	r2, #0
 1171 005e 5A60     		str	r2, [r3, #4]
 1172              	.L76:
 299:.\src-fsm/Fsm.c **** 		} 
 300:.\src-fsm/Fsm.c **** 	}
 301:.\src-fsm/Fsm.c **** }
 1173              		.loc 1 301 0
 1174 0060 BD46     		mov	sp, r7
ARM GAS  C:\Users\SDEVAS~1\AppData\Local\Temp\ccigAyFK.s 			page 27


 1175 0062 02B0     		add	sp, sp, #8
 1176              		@ sp needed
 1177 0064 80BD     		pop	{r7, pc}
 1178              		.cfi_endproc
 1179              	.LFE20:
 1180              		.size	fsm_react_main_region_Sleep, .-fsm_react_main_region_Sleep
 1181 0066 C046     		.section	.text.fsm_react_main_region_Operation_op_Decide,"ax",%progbits
 1182              		.align	2
 1183              		.code	16
 1184              		.thumb_func
 1185              		.type	fsm_react_main_region_Operation_op_Decide, %function
 1186              	fsm_react_main_region_Operation_op_Decide:
 1187              	.LFB21:
 302:.\src-fsm/Fsm.c **** 
 303:.\src-fsm/Fsm.c **** /* The reactions of state Decide. */
 304:.\src-fsm/Fsm.c **** static void fsm_react_main_region_Operation_op_Decide(Fsm* handle) {
 1188              		.loc 1 304 0
 1189              		.cfi_startproc
 1190 0000 80B5     		push	{r7, lr}
 1191              		.cfi_def_cfa_offset 8
 1192              		.cfi_offset 7, -8
 1193              		.cfi_offset 14, -4
 1194 0002 82B0     		sub	sp, sp, #8
 1195              		.cfi_def_cfa_offset 16
 1196 0004 00AF     		add	r7, sp, #0
 1197              		.cfi_def_cfa_register 7
 1198 0006 7860     		str	r0, [r7, #4]
 305:.\src-fsm/Fsm.c **** 	/* The reactions of state Decide. */
 306:.\src-fsm/Fsm.c **** 	if (handle->ifacePlatform.idle_raised) { 
 1199              		.loc 1 306 0
 1200 0008 7B68     		ldr	r3, [r7, #4]
 1201 000a 9B7A     		ldrb	r3, [r3, #10]
 1202 000c 002B     		cmp	r3, #0
 1203 000e 3AD0     		beq	.L80
 307:.\src-fsm/Fsm.c **** 		/* Default exit sequence for state Operation */
 308:.\src-fsm/Fsm.c **** 		/* Default exit sequence for region op */
 309:.\src-fsm/Fsm.c **** 		/* Handle exit of all possible states (of op) at position 0... */
 310:.\src-fsm/Fsm.c **** 		switch(handle->stateConfVector[ 0 ]) {
 1204              		.loc 1 310 0
 1205 0010 7B68     		ldr	r3, [r7, #4]
 1206 0012 1B78     		ldrb	r3, [r3]
 1207 0014 062B     		cmp	r3, #6
 1208 0016 2ED8     		bhi	.L100
 1209 0018 9A00     		lsl	r2, r3, #2
 1210 001a 4E4B     		ldr	r3, .L102
 1211 001c D318     		add	r3, r2, r3
 1212 001e 1B68     		ldr	r3, [r3]
 1213 0020 9F46     		mov	pc, r3
 1214              		.section	.rodata
 1215              		.align	2
 1216              	.L83:
 1217 0078 76000000 		.word	.L100
 1218 007c 76000000 		.word	.L100
 1219 0080 22000000 		.word	.L82
 1220 0084 30000000 		.word	.L84
 1221 0088 3E000000 		.word	.L85
 1222 008c 4C000000 		.word	.L86
ARM GAS  C:\Users\SDEVAS~1\AppData\Local\Temp\ccigAyFK.s 			page 28


 1223 0090 5A000000 		.word	.L87
 1224              		.section	.text.fsm_react_main_region_Operation_op_Decide
 1225              	.L82:
 311:.\src-fsm/Fsm.c **** 			case Fsm_main_region_Operation_op_Decide : {
 312:.\src-fsm/Fsm.c **** 				/* Default exit sequence for state Decide */
 313:.\src-fsm/Fsm.c **** 				handle->stateConfVector[0] = Fsm_last_state;
 1226              		.loc 1 313 0
 1227 0022 7B68     		ldr	r3, [r7, #4]
 1228 0024 0A22     		mov	r2, #10
 1229 0026 1A70     		strb	r2, [r3]
 314:.\src-fsm/Fsm.c **** 				handle->stateConfVectorPosition = 0;
 1230              		.loc 1 314 0
 1231 0028 7B68     		ldr	r3, [r7, #4]
 1232 002a 0022     		mov	r2, #0
 1233 002c 5A60     		str	r2, [r3, #4]
 315:.\src-fsm/Fsm.c **** 				break;
 1234              		.loc 1 315 0
 1235 002e 23E0     		b	.L88
 1236              	.L84:
 316:.\src-fsm/Fsm.c **** 			}
 317:.\src-fsm/Fsm.c **** 			case Fsm_main_region_Operation_op_ValveOn : {
 318:.\src-fsm/Fsm.c **** 				/* Default exit sequence for state ValveOn */
 319:.\src-fsm/Fsm.c **** 				handle->stateConfVector[0] = Fsm_last_state;
 1237              		.loc 1 319 0
 1238 0030 7B68     		ldr	r3, [r7, #4]
 1239 0032 0A22     		mov	r2, #10
 1240 0034 1A70     		strb	r2, [r3]
 320:.\src-fsm/Fsm.c **** 				handle->stateConfVectorPosition = 0;
 1241              		.loc 1 320 0
 1242 0036 7B68     		ldr	r3, [r7, #4]
 1243 0038 0022     		mov	r2, #0
 1244 003a 5A60     		str	r2, [r3, #4]
 321:.\src-fsm/Fsm.c **** 				break;
 1245              		.loc 1 321 0
 1246 003c 1CE0     		b	.L88
 1247              	.L85:
 322:.\src-fsm/Fsm.c **** 			}
 323:.\src-fsm/Fsm.c **** 			case Fsm_main_region_Operation_op_ValveOff : {
 324:.\src-fsm/Fsm.c **** 				/* Default exit sequence for state ValveOff */
 325:.\src-fsm/Fsm.c **** 				handle->stateConfVector[0] = Fsm_last_state;
 1248              		.loc 1 325 0
 1249 003e 7B68     		ldr	r3, [r7, #4]
 1250 0040 0A22     		mov	r2, #10
 1251 0042 1A70     		strb	r2, [r3]
 326:.\src-fsm/Fsm.c **** 				handle->stateConfVectorPosition = 0;
 1252              		.loc 1 326 0
 1253 0044 7B68     		ldr	r3, [r7, #4]
 1254 0046 0022     		mov	r2, #0
 1255 0048 5A60     		str	r2, [r3, #4]
 327:.\src-fsm/Fsm.c **** 				break;
 1256              		.loc 1 327 0
 1257 004a 15E0     		b	.L88
 1258              	.L86:
 328:.\src-fsm/Fsm.c **** 			}
 329:.\src-fsm/Fsm.c **** 			case Fsm_main_region_Operation_op_VolumeCheck : {
 330:.\src-fsm/Fsm.c **** 				/* Default exit sequence for state VolumeCheck */
 331:.\src-fsm/Fsm.c **** 				handle->stateConfVector[0] = Fsm_last_state;
ARM GAS  C:\Users\SDEVAS~1\AppData\Local\Temp\ccigAyFK.s 			page 29


 1259              		.loc 1 331 0
 1260 004c 7B68     		ldr	r3, [r7, #4]
 1261 004e 0A22     		mov	r2, #10
 1262 0050 1A70     		strb	r2, [r3]
 332:.\src-fsm/Fsm.c **** 				handle->stateConfVectorPosition = 0;
 1263              		.loc 1 332 0
 1264 0052 7B68     		ldr	r3, [r7, #4]
 1265 0054 0022     		mov	r2, #0
 1266 0056 5A60     		str	r2, [r3, #4]
 333:.\src-fsm/Fsm.c **** 				break;
 1267              		.loc 1 333 0
 1268 0058 0EE0     		b	.L88
 1269              	.L87:
 334:.\src-fsm/Fsm.c **** 			}
 335:.\src-fsm/Fsm.c **** 			case Fsm_main_region_Operation_op_SendStats : {
 336:.\src-fsm/Fsm.c **** 				/* Default exit sequence for state SendStats */
 337:.\src-fsm/Fsm.c **** 				handle->stateConfVector[0] = Fsm_last_state;
 1270              		.loc 1 337 0
 1271 005a 7B68     		ldr	r3, [r7, #4]
 1272 005c 0A22     		mov	r2, #10
 1273 005e 1A70     		strb	r2, [r3]
 338:.\src-fsm/Fsm.c **** 				handle->stateConfVectorPosition = 0;
 1274              		.loc 1 338 0
 1275 0060 7B68     		ldr	r3, [r7, #4]
 1276 0062 0022     		mov	r2, #0
 1277 0064 5A60     		str	r2, [r3, #4]
 339:.\src-fsm/Fsm.c **** 				/* Exit action for state 'SendStats'. */
 340:.\src-fsm/Fsm.c **** 				fsm_unsetTimer(handle, (sc_eventid) &(handle->timeEvents.fsm_main_region_Operation_op_SendStats
 1278              		.loc 1 340 0
 1279 0066 7B68     		ldr	r3, [r7, #4]
 1280 0068 1833     		add	r3, r3, #24
 1281 006a 7A68     		ldr	r2, [r7, #4]
 1282 006c 101C     		mov	r0, r2
 1283 006e 191C     		mov	r1, r3
 1284 0070 FFF7FEFF 		bl	fsm_unsetTimer
 341:.\src-fsm/Fsm.c **** 				break;
 1285              		.loc 1 341 0
 1286 0074 00E0     		b	.L88
 1287              	.L100:
 342:.\src-fsm/Fsm.c **** 			}
 343:.\src-fsm/Fsm.c **** 			default: break;
 1288              		.loc 1 343 0
 1289 0076 C046     		mov	r8, r8
 1290              	.L88:
 344:.\src-fsm/Fsm.c **** 		}
 345:.\src-fsm/Fsm.c **** 		/* 'default' enter sequence for state Idle */
 346:.\src-fsm/Fsm.c **** 		handle->stateConfVector[0] = Fsm_main_region_Idle;
 1291              		.loc 1 346 0
 1292 0078 7B68     		ldr	r3, [r7, #4]
 1293 007a 0922     		mov	r2, #9
 1294 007c 1A70     		strb	r2, [r3]
 347:.\src-fsm/Fsm.c **** 		handle->stateConfVectorPosition = 0;
 1295              		.loc 1 347 0
 1296 007e 7B68     		ldr	r3, [r7, #4]
 1297 0080 0022     		mov	r2, #0
 1298 0082 5A60     		str	r2, [r3, #4]
 1299 0084 63E0     		b	.L79
ARM GAS  C:\Users\SDEVAS~1\AppData\Local\Temp\ccigAyFK.s 			page 30


 1300              	.L80:
 348:.\src-fsm/Fsm.c **** 	}  else {
 349:.\src-fsm/Fsm.c **** 		/* Default exit sequence for state Decide */
 350:.\src-fsm/Fsm.c **** 		handle->stateConfVector[0] = Fsm_last_state;
 1301              		.loc 1 350 0
 1302 0086 7B68     		ldr	r3, [r7, #4]
 1303 0088 0A22     		mov	r2, #10
 1304 008a 1A70     		strb	r2, [r3]
 351:.\src-fsm/Fsm.c **** 		handle->stateConfVectorPosition = 0;
 1305              		.loc 1 351 0
 1306 008c 7B68     		ldr	r3, [r7, #4]
 1307 008e 0022     		mov	r2, #0
 1308 0090 5A60     		str	r2, [r3, #4]
 352:.\src-fsm/Fsm.c **** 		/* The reactions of state null. */
 353:.\src-fsm/Fsm.c **** 		if (handle->ifaceWaterControl.opMode > 0) { 
 1309              		.loc 1 353 0
 1310 0092 7B68     		ldr	r3, [r7, #4]
 1311 0094 5B69     		ldr	r3, [r3, #20]
 1312 0096 002B     		cmp	r3, #0
 1313 0098 10DD     		ble	.L90
 354:.\src-fsm/Fsm.c **** 			/* 'default' enter sequence for state VolumeCheck */
 355:.\src-fsm/Fsm.c **** 			/* Entry action for state 'VolumeCheck'. */
 356:.\src-fsm/Fsm.c **** 			handle->ifaceWaterControl.maxVolume = fsmIfaceWaterControl_getMaxVolume();
 1314              		.loc 1 356 0
 1315 009a FFF7FEFF 		bl	fsmIfaceWaterControl_getMaxVolume
 1316 009e 021C     		mov	r2, r0
 1317 00a0 7B68     		ldr	r3, [r7, #4]
 1318 00a2 DA60     		str	r2, [r3, #12]
 357:.\src-fsm/Fsm.c **** 			handle->ifaceWaterControl.currentVolume = fsmIfaceWaterControl_getCurrentVolume();
 1319              		.loc 1 357 0
 1320 00a4 FFF7FEFF 		bl	fsmIfaceWaterControl_getCurrentVolume
 1321 00a8 021C     		mov	r2, r0
 1322 00aa 7B68     		ldr	r3, [r7, #4]
 1323 00ac 1A61     		str	r2, [r3, #16]
 358:.\src-fsm/Fsm.c **** 			handle->stateConfVector[0] = Fsm_main_region_Operation_op_VolumeCheck;
 1324              		.loc 1 358 0
 1325 00ae 7B68     		ldr	r3, [r7, #4]
 1326 00b0 0522     		mov	r2, #5
 1327 00b2 1A70     		strb	r2, [r3]
 359:.\src-fsm/Fsm.c **** 			handle->stateConfVectorPosition = 0;
 1328              		.loc 1 359 0
 1329 00b4 7B68     		ldr	r3, [r7, #4]
 1330 00b6 0022     		mov	r2, #0
 1331 00b8 5A60     		str	r2, [r3, #4]
 1332 00ba 48E0     		b	.L79
 1333              	.L90:
 360:.\src-fsm/Fsm.c **** 		}  else {
 361:.\src-fsm/Fsm.c **** 			if (handle->ifaceWaterControl.opMode == 0) { 
 1334              		.loc 1 361 0
 1335 00bc 7B68     		ldr	r3, [r7, #4]
 1336 00be 5B69     		ldr	r3, [r3, #20]
 1337 00c0 002B     		cmp	r3, #0
 1338 00c2 08D1     		bne	.L91
 362:.\src-fsm/Fsm.c **** 				/* 'default' enter sequence for state ValveOff */
 363:.\src-fsm/Fsm.c **** 				/* Entry action for state 'ValveOff'. */
 364:.\src-fsm/Fsm.c **** 				fsmIfaceWaterControl_valveOff();
 1339              		.loc 1 364 0
ARM GAS  C:\Users\SDEVAS~1\AppData\Local\Temp\ccigAyFK.s 			page 31


 1340 00c4 FFF7FEFF 		bl	fsmIfaceWaterControl_valveOff
 365:.\src-fsm/Fsm.c **** 				handle->stateConfVector[0] = Fsm_main_region_Operation_op_ValveOff;
 1341              		.loc 1 365 0
 1342 00c8 7B68     		ldr	r3, [r7, #4]
 1343 00ca 0422     		mov	r2, #4
 1344 00cc 1A70     		strb	r2, [r3]
 366:.\src-fsm/Fsm.c **** 				handle->stateConfVectorPosition = 0;
 1345              		.loc 1 366 0
 1346 00ce 7B68     		ldr	r3, [r7, #4]
 1347 00d0 0022     		mov	r2, #0
 1348 00d2 5A60     		str	r2, [r3, #4]
 1349 00d4 3BE0     		b	.L79
 1350              	.L91:
 367:.\src-fsm/Fsm.c **** 			}  else {
 368:.\src-fsm/Fsm.c **** 				/* Default exit sequence for state Operation */
 369:.\src-fsm/Fsm.c **** 				/* Default exit sequence for region op */
 370:.\src-fsm/Fsm.c **** 				/* Handle exit of all possible states (of op) at position 0... */
 371:.\src-fsm/Fsm.c **** 				switch(handle->stateConfVector[ 0 ]) {
 1351              		.loc 1 371 0
 1352 00d6 7B68     		ldr	r3, [r7, #4]
 1353 00d8 1B78     		ldrb	r3, [r3]
 1354 00da 062B     		cmp	r3, #6
 1355 00dc 2ED8     		bhi	.L101
 1356 00de 9A00     		lsl	r2, r3, #2
 1357 00e0 1D4B     		ldr	r3, .L102+4
 1358 00e2 D318     		add	r3, r2, r3
 1359 00e4 1B68     		ldr	r3, [r3]
 1360 00e6 9F46     		mov	pc, r3
 1361              		.section	.rodata
 1362              		.align	2
 1363              	.L94:
 1364 0094 3C010000 		.word	.L101
 1365 0098 3C010000 		.word	.L101
 1366 009c E8000000 		.word	.L93
 1367 00a0 F6000000 		.word	.L95
 1368 00a4 04010000 		.word	.L96
 1369 00a8 12010000 		.word	.L97
 1370 00ac 20010000 		.word	.L98
 1371              		.section	.text.fsm_react_main_region_Operation_op_Decide
 1372              	.L93:
 372:.\src-fsm/Fsm.c **** 					case Fsm_main_region_Operation_op_Decide : {
 373:.\src-fsm/Fsm.c **** 						/* Default exit sequence for state Decide */
 374:.\src-fsm/Fsm.c **** 						handle->stateConfVector[0] = Fsm_last_state;
 1373              		.loc 1 374 0
 1374 00e8 7B68     		ldr	r3, [r7, #4]
 1375 00ea 0A22     		mov	r2, #10
 1376 00ec 1A70     		strb	r2, [r3]
 375:.\src-fsm/Fsm.c **** 						handle->stateConfVectorPosition = 0;
 1377              		.loc 1 375 0
 1378 00ee 7B68     		ldr	r3, [r7, #4]
 1379 00f0 0022     		mov	r2, #0
 1380 00f2 5A60     		str	r2, [r3, #4]
 376:.\src-fsm/Fsm.c **** 						break;
 1381              		.loc 1 376 0
 1382 00f4 23E0     		b	.L99
 1383              	.L95:
 377:.\src-fsm/Fsm.c **** 					}
ARM GAS  C:\Users\SDEVAS~1\AppData\Local\Temp\ccigAyFK.s 			page 32


 378:.\src-fsm/Fsm.c **** 					case Fsm_main_region_Operation_op_ValveOn : {
 379:.\src-fsm/Fsm.c **** 						/* Default exit sequence for state ValveOn */
 380:.\src-fsm/Fsm.c **** 						handle->stateConfVector[0] = Fsm_last_state;
 1384              		.loc 1 380 0
 1385 00f6 7B68     		ldr	r3, [r7, #4]
 1386 00f8 0A22     		mov	r2, #10
 1387 00fa 1A70     		strb	r2, [r3]
 381:.\src-fsm/Fsm.c **** 						handle->stateConfVectorPosition = 0;
 1388              		.loc 1 381 0
 1389 00fc 7B68     		ldr	r3, [r7, #4]
 1390 00fe 0022     		mov	r2, #0
 1391 0100 5A60     		str	r2, [r3, #4]
 382:.\src-fsm/Fsm.c **** 						break;
 1392              		.loc 1 382 0
 1393 0102 1CE0     		b	.L99
 1394              	.L96:
 383:.\src-fsm/Fsm.c **** 					}
 384:.\src-fsm/Fsm.c **** 					case Fsm_main_region_Operation_op_ValveOff : {
 385:.\src-fsm/Fsm.c **** 						/* Default exit sequence for state ValveOff */
 386:.\src-fsm/Fsm.c **** 						handle->stateConfVector[0] = Fsm_last_state;
 1395              		.loc 1 386 0
 1396 0104 7B68     		ldr	r3, [r7, #4]
 1397 0106 0A22     		mov	r2, #10
 1398 0108 1A70     		strb	r2, [r3]
 387:.\src-fsm/Fsm.c **** 						handle->stateConfVectorPosition = 0;
 1399              		.loc 1 387 0
 1400 010a 7B68     		ldr	r3, [r7, #4]
 1401 010c 0022     		mov	r2, #0
 1402 010e 5A60     		str	r2, [r3, #4]
 388:.\src-fsm/Fsm.c **** 						break;
 1403              		.loc 1 388 0
 1404 0110 15E0     		b	.L99
 1405              	.L97:
 389:.\src-fsm/Fsm.c **** 					}
 390:.\src-fsm/Fsm.c **** 					case Fsm_main_region_Operation_op_VolumeCheck : {
 391:.\src-fsm/Fsm.c **** 						/* Default exit sequence for state VolumeCheck */
 392:.\src-fsm/Fsm.c **** 						handle->stateConfVector[0] = Fsm_last_state;
 1406              		.loc 1 392 0
 1407 0112 7B68     		ldr	r3, [r7, #4]
 1408 0114 0A22     		mov	r2, #10
 1409 0116 1A70     		strb	r2, [r3]
 393:.\src-fsm/Fsm.c **** 						handle->stateConfVectorPosition = 0;
 1410              		.loc 1 393 0
 1411 0118 7B68     		ldr	r3, [r7, #4]
 1412 011a 0022     		mov	r2, #0
 1413 011c 5A60     		str	r2, [r3, #4]
 394:.\src-fsm/Fsm.c **** 						break;
 1414              		.loc 1 394 0
 1415 011e 0EE0     		b	.L99
 1416              	.L98:
 395:.\src-fsm/Fsm.c **** 					}
 396:.\src-fsm/Fsm.c **** 					case Fsm_main_region_Operation_op_SendStats : {
 397:.\src-fsm/Fsm.c **** 						/* Default exit sequence for state SendStats */
 398:.\src-fsm/Fsm.c **** 						handle->stateConfVector[0] = Fsm_last_state;
 1417              		.loc 1 398 0
 1418 0120 7B68     		ldr	r3, [r7, #4]
 1419 0122 0A22     		mov	r2, #10
ARM GAS  C:\Users\SDEVAS~1\AppData\Local\Temp\ccigAyFK.s 			page 33


 1420 0124 1A70     		strb	r2, [r3]
 399:.\src-fsm/Fsm.c **** 						handle->stateConfVectorPosition = 0;
 1421              		.loc 1 399 0
 1422 0126 7B68     		ldr	r3, [r7, #4]
 1423 0128 0022     		mov	r2, #0
 1424 012a 5A60     		str	r2, [r3, #4]
 400:.\src-fsm/Fsm.c **** 						/* Exit action for state 'SendStats'. */
 401:.\src-fsm/Fsm.c **** 						fsm_unsetTimer(handle, (sc_eventid) &(handle->timeEvents.fsm_main_region_Operation_op_SendSta
 1425              		.loc 1 401 0
 1426 012c 7B68     		ldr	r3, [r7, #4]
 1427 012e 1833     		add	r3, r3, #24
 1428 0130 7A68     		ldr	r2, [r7, #4]
 1429 0132 101C     		mov	r0, r2
 1430 0134 191C     		mov	r1, r3
 1431 0136 FFF7FEFF 		bl	fsm_unsetTimer
 402:.\src-fsm/Fsm.c **** 						break;
 1432              		.loc 1 402 0
 1433 013a 00E0     		b	.L99
 1434              	.L101:
 403:.\src-fsm/Fsm.c **** 					}
 404:.\src-fsm/Fsm.c **** 					default: break;
 1435              		.loc 1 404 0
 1436 013c C046     		mov	r8, r8
 1437              	.L99:
 405:.\src-fsm/Fsm.c **** 				}
 406:.\src-fsm/Fsm.c **** 				/* 'default' enter sequence for state Sleep */
 407:.\src-fsm/Fsm.c **** 				/* Entry action for state 'Sleep'. */
 408:.\src-fsm/Fsm.c **** 				fsmIfacePlatform_sleep();
 1438              		.loc 1 408 0
 1439 013e FFF7FEFF 		bl	fsmIfacePlatform_sleep
 409:.\src-fsm/Fsm.c **** 				handle->stateConfVector[0] = Fsm_main_region_Sleep;
 1440              		.loc 1 409 0
 1441 0142 7B68     		ldr	r3, [r7, #4]
 1442 0144 0022     		mov	r2, #0
 1443 0146 1A70     		strb	r2, [r3]
 410:.\src-fsm/Fsm.c **** 				handle->stateConfVectorPosition = 0;
 1444              		.loc 1 410 0
 1445 0148 7B68     		ldr	r3, [r7, #4]
 1446 014a 0022     		mov	r2, #0
 1447 014c 5A60     		str	r2, [r3, #4]
 1448              	.L79:
 411:.\src-fsm/Fsm.c **** 			}
 412:.\src-fsm/Fsm.c **** 		}
 413:.\src-fsm/Fsm.c **** 	}
 414:.\src-fsm/Fsm.c **** }
 1449              		.loc 1 414 0
 1450 014e BD46     		mov	sp, r7
 1451 0150 02B0     		add	sp, sp, #8
 1452              		@ sp needed
 1453 0152 80BD     		pop	{r7, pc}
 1454              	.L103:
 1455              		.align	2
 1456              	.L102:
 1457 0154 78000000 		.word	.L83
 1458 0158 94000000 		.word	.L94
 1459              		.cfi_endproc
 1460              	.LFE21:
ARM GAS  C:\Users\SDEVAS~1\AppData\Local\Temp\ccigAyFK.s 			page 34


 1461              		.size	fsm_react_main_region_Operation_op_Decide, .-fsm_react_main_region_Operation_op_Decide
 1462              		.section	.text.fsm_react_main_region_Operation_op_ValveOn,"ax",%progbits
 1463              		.align	2
 1464              		.code	16
 1465              		.thumb_func
 1466              		.type	fsm_react_main_region_Operation_op_ValveOn, %function
 1467              	fsm_react_main_region_Operation_op_ValveOn:
 1468              	.LFB22:
 415:.\src-fsm/Fsm.c **** 
 416:.\src-fsm/Fsm.c **** /* The reactions of state ValveOn. */
 417:.\src-fsm/Fsm.c **** static void fsm_react_main_region_Operation_op_ValveOn(Fsm* handle) {
 1469              		.loc 1 417 0
 1470              		.cfi_startproc
 1471 0000 80B5     		push	{r7, lr}
 1472              		.cfi_def_cfa_offset 8
 1473              		.cfi_offset 7, -8
 1474              		.cfi_offset 14, -4
 1475 0002 82B0     		sub	sp, sp, #8
 1476              		.cfi_def_cfa_offset 16
 1477 0004 00AF     		add	r7, sp, #0
 1478              		.cfi_def_cfa_register 7
 1479 0006 7860     		str	r0, [r7, #4]
 418:.\src-fsm/Fsm.c **** 	/* The reactions of state ValveOn. */
 419:.\src-fsm/Fsm.c **** 	if (handle->ifacePlatform.idle_raised) { 
 1480              		.loc 1 419 0
 1481 0008 7B68     		ldr	r3, [r7, #4]
 1482 000a 9B7A     		ldrb	r3, [r3, #10]
 1483 000c 002B     		cmp	r3, #0
 1484 000e 3AD0     		beq	.L105
 420:.\src-fsm/Fsm.c **** 		/* Default exit sequence for state Operation */
 421:.\src-fsm/Fsm.c **** 		/* Default exit sequence for region op */
 422:.\src-fsm/Fsm.c **** 		/* Handle exit of all possible states (of op) at position 0... */
 423:.\src-fsm/Fsm.c **** 		switch(handle->stateConfVector[ 0 ]) {
 1485              		.loc 1 423 0
 1486 0010 7B68     		ldr	r3, [r7, #4]
 1487 0012 1B78     		ldrb	r3, [r3]
 1488 0014 062B     		cmp	r3, #6
 1489 0016 2ED8     		bhi	.L115
 1490 0018 9A00     		lsl	r2, r3, #2
 1491 001a 294B     		ldr	r3, .L116
 1492 001c D318     		add	r3, r2, r3
 1493 001e 1B68     		ldr	r3, [r3]
 1494 0020 9F46     		mov	pc, r3
 1495              		.section	.rodata
 1496              		.align	2
 1497              	.L108:
 1498 00b0 76000000 		.word	.L115
 1499 00b4 76000000 		.word	.L115
 1500 00b8 22000000 		.word	.L107
 1501 00bc 30000000 		.word	.L109
 1502 00c0 3E000000 		.word	.L110
 1503 00c4 4C000000 		.word	.L111
 1504 00c8 5A000000 		.word	.L112
 1505              		.section	.text.fsm_react_main_region_Operation_op_ValveOn
 1506              	.L107:
 424:.\src-fsm/Fsm.c **** 			case Fsm_main_region_Operation_op_Decide : {
 425:.\src-fsm/Fsm.c **** 				/* Default exit sequence for state Decide */
ARM GAS  C:\Users\SDEVAS~1\AppData\Local\Temp\ccigAyFK.s 			page 35


 426:.\src-fsm/Fsm.c **** 				handle->stateConfVector[0] = Fsm_last_state;
 1507              		.loc 1 426 0
 1508 0022 7B68     		ldr	r3, [r7, #4]
 1509 0024 0A22     		mov	r2, #10
 1510 0026 1A70     		strb	r2, [r3]
 427:.\src-fsm/Fsm.c **** 				handle->stateConfVectorPosition = 0;
 1511              		.loc 1 427 0
 1512 0028 7B68     		ldr	r3, [r7, #4]
 1513 002a 0022     		mov	r2, #0
 1514 002c 5A60     		str	r2, [r3, #4]
 428:.\src-fsm/Fsm.c **** 				break;
 1515              		.loc 1 428 0
 1516 002e 23E0     		b	.L113
 1517              	.L109:
 429:.\src-fsm/Fsm.c **** 			}
 430:.\src-fsm/Fsm.c **** 			case Fsm_main_region_Operation_op_ValveOn : {
 431:.\src-fsm/Fsm.c **** 				/* Default exit sequence for state ValveOn */
 432:.\src-fsm/Fsm.c **** 				handle->stateConfVector[0] = Fsm_last_state;
 1518              		.loc 1 432 0
 1519 0030 7B68     		ldr	r3, [r7, #4]
 1520 0032 0A22     		mov	r2, #10
 1521 0034 1A70     		strb	r2, [r3]
 433:.\src-fsm/Fsm.c **** 				handle->stateConfVectorPosition = 0;
 1522              		.loc 1 433 0
 1523 0036 7B68     		ldr	r3, [r7, #4]
 1524 0038 0022     		mov	r2, #0
 1525 003a 5A60     		str	r2, [r3, #4]
 434:.\src-fsm/Fsm.c **** 				break;
 1526              		.loc 1 434 0
 1527 003c 1CE0     		b	.L113
 1528              	.L110:
 435:.\src-fsm/Fsm.c **** 			}
 436:.\src-fsm/Fsm.c **** 			case Fsm_main_region_Operation_op_ValveOff : {
 437:.\src-fsm/Fsm.c **** 				/* Default exit sequence for state ValveOff */
 438:.\src-fsm/Fsm.c **** 				handle->stateConfVector[0] = Fsm_last_state;
 1529              		.loc 1 438 0
 1530 003e 7B68     		ldr	r3, [r7, #4]
 1531 0040 0A22     		mov	r2, #10
 1532 0042 1A70     		strb	r2, [r3]
 439:.\src-fsm/Fsm.c **** 				handle->stateConfVectorPosition = 0;
 1533              		.loc 1 439 0
 1534 0044 7B68     		ldr	r3, [r7, #4]
 1535 0046 0022     		mov	r2, #0
 1536 0048 5A60     		str	r2, [r3, #4]
 440:.\src-fsm/Fsm.c **** 				break;
 1537              		.loc 1 440 0
 1538 004a 15E0     		b	.L113
 1539              	.L111:
 441:.\src-fsm/Fsm.c **** 			}
 442:.\src-fsm/Fsm.c **** 			case Fsm_main_region_Operation_op_VolumeCheck : {
 443:.\src-fsm/Fsm.c **** 				/* Default exit sequence for state VolumeCheck */
 444:.\src-fsm/Fsm.c **** 				handle->stateConfVector[0] = Fsm_last_state;
 1540              		.loc 1 444 0
 1541 004c 7B68     		ldr	r3, [r7, #4]
 1542 004e 0A22     		mov	r2, #10
 1543 0050 1A70     		strb	r2, [r3]
 445:.\src-fsm/Fsm.c **** 				handle->stateConfVectorPosition = 0;
ARM GAS  C:\Users\SDEVAS~1\AppData\Local\Temp\ccigAyFK.s 			page 36


 1544              		.loc 1 445 0
 1545 0052 7B68     		ldr	r3, [r7, #4]
 1546 0054 0022     		mov	r2, #0
 1547 0056 5A60     		str	r2, [r3, #4]
 446:.\src-fsm/Fsm.c **** 				break;
 1548              		.loc 1 446 0
 1549 0058 0EE0     		b	.L113
 1550              	.L112:
 447:.\src-fsm/Fsm.c **** 			}
 448:.\src-fsm/Fsm.c **** 			case Fsm_main_region_Operation_op_SendStats : {
 449:.\src-fsm/Fsm.c **** 				/* Default exit sequence for state SendStats */
 450:.\src-fsm/Fsm.c **** 				handle->stateConfVector[0] = Fsm_last_state;
 1551              		.loc 1 450 0
 1552 005a 7B68     		ldr	r3, [r7, #4]
 1553 005c 0A22     		mov	r2, #10
 1554 005e 1A70     		strb	r2, [r3]
 451:.\src-fsm/Fsm.c **** 				handle->stateConfVectorPosition = 0;
 1555              		.loc 1 451 0
 1556 0060 7B68     		ldr	r3, [r7, #4]
 1557 0062 0022     		mov	r2, #0
 1558 0064 5A60     		str	r2, [r3, #4]
 452:.\src-fsm/Fsm.c **** 				/* Exit action for state 'SendStats'. */
 453:.\src-fsm/Fsm.c **** 				fsm_unsetTimer(handle, (sc_eventid) &(handle->timeEvents.fsm_main_region_Operation_op_SendStats
 1559              		.loc 1 453 0
 1560 0066 7B68     		ldr	r3, [r7, #4]
 1561 0068 1833     		add	r3, r3, #24
 1562 006a 7A68     		ldr	r2, [r7, #4]
 1563 006c 101C     		mov	r0, r2
 1564 006e 191C     		mov	r1, r3
 1565 0070 FFF7FEFF 		bl	fsm_unsetTimer
 454:.\src-fsm/Fsm.c **** 				break;
 1566              		.loc 1 454 0
 1567 0074 00E0     		b	.L113
 1568              	.L115:
 455:.\src-fsm/Fsm.c **** 			}
 456:.\src-fsm/Fsm.c **** 			default: break;
 1569              		.loc 1 456 0
 1570 0076 C046     		mov	r8, r8
 1571              	.L113:
 457:.\src-fsm/Fsm.c **** 		}
 458:.\src-fsm/Fsm.c **** 		/* 'default' enter sequence for state Idle */
 459:.\src-fsm/Fsm.c **** 		handle->stateConfVector[0] = Fsm_main_region_Idle;
 1572              		.loc 1 459 0
 1573 0078 7B68     		ldr	r3, [r7, #4]
 1574 007a 0922     		mov	r2, #9
 1575 007c 1A70     		strb	r2, [r3]
 460:.\src-fsm/Fsm.c **** 		handle->stateConfVectorPosition = 0;
 1576              		.loc 1 460 0
 1577 007e 7B68     		ldr	r3, [r7, #4]
 1578 0080 0022     		mov	r2, #0
 1579 0082 5A60     		str	r2, [r3, #4]
 1580 0084 19E0     		b	.L104
 1581              	.L105:
 461:.\src-fsm/Fsm.c **** 	}  else {
 462:.\src-fsm/Fsm.c **** 		/* Default exit sequence for state ValveOn */
 463:.\src-fsm/Fsm.c **** 		handle->stateConfVector[0] = Fsm_last_state;
 1582              		.loc 1 463 0
ARM GAS  C:\Users\SDEVAS~1\AppData\Local\Temp\ccigAyFK.s 			page 37


 1583 0086 7B68     		ldr	r3, [r7, #4]
 1584 0088 0A22     		mov	r2, #10
 1585 008a 1A70     		strb	r2, [r3]
 464:.\src-fsm/Fsm.c **** 		handle->stateConfVectorPosition = 0;
 1586              		.loc 1 464 0
 1587 008c 7B68     		ldr	r3, [r7, #4]
 1588 008e 0022     		mov	r2, #0
 1589 0090 5A60     		str	r2, [r3, #4]
 465:.\src-fsm/Fsm.c **** 		/* 'default' enter sequence for state SendStats */
 466:.\src-fsm/Fsm.c **** 		/* Entry action for state 'SendStats'. */
 467:.\src-fsm/Fsm.c **** 		fsm_setTimer(handle, (sc_eventid) &(handle->timeEvents.fsm_main_region_Operation_op_SendStats_tev
 1590              		.loc 1 467 0
 1591 0092 7B68     		ldr	r3, [r7, #4]
 1592 0094 1A1C     		mov	r2, r3
 1593 0096 1832     		add	r2, r2, #24
 1594 0098 7968     		ldr	r1, [r7, #4]
 1595 009a FA23     		mov	r3, #250
 1596 009c 9B00     		lsl	r3, r3, #2
 1597 009e 081C     		mov	r0, r1
 1598 00a0 111C     		mov	r1, r2
 1599 00a2 1A1C     		mov	r2, r3
 1600 00a4 0023     		mov	r3, #0
 1601 00a6 FFF7FEFF 		bl	fsm_setTimer
 468:.\src-fsm/Fsm.c **** 		fsmIfaceWaterControl_sendStats();
 1602              		.loc 1 468 0
 1603 00aa FFF7FEFF 		bl	fsmIfaceWaterControl_sendStats
 469:.\src-fsm/Fsm.c **** 		handle->stateConfVector[0] = Fsm_main_region_Operation_op_SendStats;
 1604              		.loc 1 469 0
 1605 00ae 7B68     		ldr	r3, [r7, #4]
 1606 00b0 0622     		mov	r2, #6
 1607 00b2 1A70     		strb	r2, [r3]
 470:.\src-fsm/Fsm.c **** 		handle->stateConfVectorPosition = 0;
 1608              		.loc 1 470 0
 1609 00b4 7B68     		ldr	r3, [r7, #4]
 1610 00b6 0022     		mov	r2, #0
 1611 00b8 5A60     		str	r2, [r3, #4]
 1612              	.L104:
 471:.\src-fsm/Fsm.c **** 	}
 472:.\src-fsm/Fsm.c **** }
 1613              		.loc 1 472 0
 1614 00ba BD46     		mov	sp, r7
 1615 00bc 02B0     		add	sp, sp, #8
 1616              		@ sp needed
 1617 00be 80BD     		pop	{r7, pc}
 1618              	.L117:
 1619              		.align	2
 1620              	.L116:
 1621 00c0 B0000000 		.word	.L108
 1622              		.cfi_endproc
 1623              	.LFE22:
 1624              		.size	fsm_react_main_region_Operation_op_ValveOn, .-fsm_react_main_region_Operation_op_ValveOn
 1625              		.section	.text.fsm_react_main_region_Operation_op_ValveOff,"ax",%progbits
 1626              		.align	2
 1627              		.code	16
 1628              		.thumb_func
 1629              		.type	fsm_react_main_region_Operation_op_ValveOff, %function
 1630              	fsm_react_main_region_Operation_op_ValveOff:
ARM GAS  C:\Users\SDEVAS~1\AppData\Local\Temp\ccigAyFK.s 			page 38


 1631              	.LFB23:
 473:.\src-fsm/Fsm.c **** 
 474:.\src-fsm/Fsm.c **** /* The reactions of state ValveOff. */
 475:.\src-fsm/Fsm.c **** static void fsm_react_main_region_Operation_op_ValveOff(Fsm* handle) {
 1632              		.loc 1 475 0
 1633              		.cfi_startproc
 1634 0000 80B5     		push	{r7, lr}
 1635              		.cfi_def_cfa_offset 8
 1636              		.cfi_offset 7, -8
 1637              		.cfi_offset 14, -4
 1638 0002 82B0     		sub	sp, sp, #8
 1639              		.cfi_def_cfa_offset 16
 1640 0004 00AF     		add	r7, sp, #0
 1641              		.cfi_def_cfa_register 7
 1642 0006 7860     		str	r0, [r7, #4]
 476:.\src-fsm/Fsm.c **** 	/* The reactions of state ValveOff. */
 477:.\src-fsm/Fsm.c **** 	if (handle->ifacePlatform.idle_raised) { 
 1643              		.loc 1 477 0
 1644 0008 7B68     		ldr	r3, [r7, #4]
 1645 000a 9B7A     		ldrb	r3, [r3, #10]
 1646 000c 002B     		cmp	r3, #0
 1647 000e 3AD0     		beq	.L119
 478:.\src-fsm/Fsm.c **** 		/* Default exit sequence for state Operation */
 479:.\src-fsm/Fsm.c **** 		/* Default exit sequence for region op */
 480:.\src-fsm/Fsm.c **** 		/* Handle exit of all possible states (of op) at position 0... */
 481:.\src-fsm/Fsm.c **** 		switch(handle->stateConfVector[ 0 ]) {
 1648              		.loc 1 481 0
 1649 0010 7B68     		ldr	r3, [r7, #4]
 1650 0012 1B78     		ldrb	r3, [r3]
 1651 0014 062B     		cmp	r3, #6
 1652 0016 2ED8     		bhi	.L137
 1653 0018 9A00     		lsl	r2, r3, #2
 1654 001a 3A4B     		ldr	r3, .L139
 1655 001c D318     		add	r3, r2, r3
 1656 001e 1B68     		ldr	r3, [r3]
 1657 0020 9F46     		mov	pc, r3
 1658              		.section	.rodata
 1659              		.align	2
 1660              	.L122:
 1661 00cc 76000000 		.word	.L137
 1662 00d0 76000000 		.word	.L137
 1663 00d4 22000000 		.word	.L121
 1664 00d8 30000000 		.word	.L123
 1665 00dc 3E000000 		.word	.L124
 1666 00e0 4C000000 		.word	.L125
 1667 00e4 5A000000 		.word	.L126
 1668              		.section	.text.fsm_react_main_region_Operation_op_ValveOff
 1669              	.L121:
 482:.\src-fsm/Fsm.c **** 			case Fsm_main_region_Operation_op_Decide : {
 483:.\src-fsm/Fsm.c **** 				/* Default exit sequence for state Decide */
 484:.\src-fsm/Fsm.c **** 				handle->stateConfVector[0] = Fsm_last_state;
 1670              		.loc 1 484 0
 1671 0022 7B68     		ldr	r3, [r7, #4]
 1672 0024 0A22     		mov	r2, #10
 1673 0026 1A70     		strb	r2, [r3]
 485:.\src-fsm/Fsm.c **** 				handle->stateConfVectorPosition = 0;
 1674              		.loc 1 485 0
ARM GAS  C:\Users\SDEVAS~1\AppData\Local\Temp\ccigAyFK.s 			page 39


 1675 0028 7B68     		ldr	r3, [r7, #4]
 1676 002a 0022     		mov	r2, #0
 1677 002c 5A60     		str	r2, [r3, #4]
 486:.\src-fsm/Fsm.c **** 				break;
 1678              		.loc 1 486 0
 1679 002e 23E0     		b	.L127
 1680              	.L123:
 487:.\src-fsm/Fsm.c **** 			}
 488:.\src-fsm/Fsm.c **** 			case Fsm_main_region_Operation_op_ValveOn : {
 489:.\src-fsm/Fsm.c **** 				/* Default exit sequence for state ValveOn */
 490:.\src-fsm/Fsm.c **** 				handle->stateConfVector[0] = Fsm_last_state;
 1681              		.loc 1 490 0
 1682 0030 7B68     		ldr	r3, [r7, #4]
 1683 0032 0A22     		mov	r2, #10
 1684 0034 1A70     		strb	r2, [r3]
 491:.\src-fsm/Fsm.c **** 				handle->stateConfVectorPosition = 0;
 1685              		.loc 1 491 0
 1686 0036 7B68     		ldr	r3, [r7, #4]
 1687 0038 0022     		mov	r2, #0
 1688 003a 5A60     		str	r2, [r3, #4]
 492:.\src-fsm/Fsm.c **** 				break;
 1689              		.loc 1 492 0
 1690 003c 1CE0     		b	.L127
 1691              	.L124:
 493:.\src-fsm/Fsm.c **** 			}
 494:.\src-fsm/Fsm.c **** 			case Fsm_main_region_Operation_op_ValveOff : {
 495:.\src-fsm/Fsm.c **** 				/* Default exit sequence for state ValveOff */
 496:.\src-fsm/Fsm.c **** 				handle->stateConfVector[0] = Fsm_last_state;
 1692              		.loc 1 496 0
 1693 003e 7B68     		ldr	r3, [r7, #4]
 1694 0040 0A22     		mov	r2, #10
 1695 0042 1A70     		strb	r2, [r3]
 497:.\src-fsm/Fsm.c **** 				handle->stateConfVectorPosition = 0;
 1696              		.loc 1 497 0
 1697 0044 7B68     		ldr	r3, [r7, #4]
 1698 0046 0022     		mov	r2, #0
 1699 0048 5A60     		str	r2, [r3, #4]
 498:.\src-fsm/Fsm.c **** 				break;
 1700              		.loc 1 498 0
 1701 004a 15E0     		b	.L127
 1702              	.L125:
 499:.\src-fsm/Fsm.c **** 			}
 500:.\src-fsm/Fsm.c **** 			case Fsm_main_region_Operation_op_VolumeCheck : {
 501:.\src-fsm/Fsm.c **** 				/* Default exit sequence for state VolumeCheck */
 502:.\src-fsm/Fsm.c **** 				handle->stateConfVector[0] = Fsm_last_state;
 1703              		.loc 1 502 0
 1704 004c 7B68     		ldr	r3, [r7, #4]
 1705 004e 0A22     		mov	r2, #10
 1706 0050 1A70     		strb	r2, [r3]
 503:.\src-fsm/Fsm.c **** 				handle->stateConfVectorPosition = 0;
 1707              		.loc 1 503 0
 1708 0052 7B68     		ldr	r3, [r7, #4]
 1709 0054 0022     		mov	r2, #0
 1710 0056 5A60     		str	r2, [r3, #4]
 504:.\src-fsm/Fsm.c **** 				break;
 1711              		.loc 1 504 0
 1712 0058 0EE0     		b	.L127
ARM GAS  C:\Users\SDEVAS~1\AppData\Local\Temp\ccigAyFK.s 			page 40


 1713              	.L126:
 505:.\src-fsm/Fsm.c **** 			}
 506:.\src-fsm/Fsm.c **** 			case Fsm_main_region_Operation_op_SendStats : {
 507:.\src-fsm/Fsm.c **** 				/* Default exit sequence for state SendStats */
 508:.\src-fsm/Fsm.c **** 				handle->stateConfVector[0] = Fsm_last_state;
 1714              		.loc 1 508 0
 1715 005a 7B68     		ldr	r3, [r7, #4]
 1716 005c 0A22     		mov	r2, #10
 1717 005e 1A70     		strb	r2, [r3]
 509:.\src-fsm/Fsm.c **** 				handle->stateConfVectorPosition = 0;
 1718              		.loc 1 509 0
 1719 0060 7B68     		ldr	r3, [r7, #4]
 1720 0062 0022     		mov	r2, #0
 1721 0064 5A60     		str	r2, [r3, #4]
 510:.\src-fsm/Fsm.c **** 				/* Exit action for state 'SendStats'. */
 511:.\src-fsm/Fsm.c **** 				fsm_unsetTimer(handle, (sc_eventid) &(handle->timeEvents.fsm_main_region_Operation_op_SendStats
 1722              		.loc 1 511 0
 1723 0066 7B68     		ldr	r3, [r7, #4]
 1724 0068 1833     		add	r3, r3, #24
 1725 006a 7A68     		ldr	r2, [r7, #4]
 1726 006c 101C     		mov	r0, r2
 1727 006e 191C     		mov	r1, r3
 1728 0070 FFF7FEFF 		bl	fsm_unsetTimer
 512:.\src-fsm/Fsm.c **** 				break;
 1729              		.loc 1 512 0
 1730 0074 00E0     		b	.L127
 1731              	.L137:
 513:.\src-fsm/Fsm.c **** 			}
 514:.\src-fsm/Fsm.c **** 			default: break;
 1732              		.loc 1 514 0
 1733 0076 C046     		mov	r8, r8
 1734              	.L127:
 515:.\src-fsm/Fsm.c **** 		}
 516:.\src-fsm/Fsm.c **** 		/* 'default' enter sequence for state Idle */
 517:.\src-fsm/Fsm.c **** 		handle->stateConfVector[0] = Fsm_main_region_Idle;
 1735              		.loc 1 517 0
 1736 0078 7B68     		ldr	r3, [r7, #4]
 1737 007a 0922     		mov	r2, #9
 1738 007c 1A70     		strb	r2, [r3]
 518:.\src-fsm/Fsm.c **** 		handle->stateConfVectorPosition = 0;
 1739              		.loc 1 518 0
 1740 007e 7B68     		ldr	r3, [r7, #4]
 1741 0080 0022     		mov	r2, #0
 1742 0082 5A60     		str	r2, [r3, #4]
 1743 0084 3BE0     		b	.L118
 1744              	.L119:
 519:.\src-fsm/Fsm.c **** 	}  else {
 520:.\src-fsm/Fsm.c **** 		/* Default exit sequence for state Operation */
 521:.\src-fsm/Fsm.c **** 		/* Default exit sequence for region op */
 522:.\src-fsm/Fsm.c **** 		/* Handle exit of all possible states (of op) at position 0... */
 523:.\src-fsm/Fsm.c **** 		switch(handle->stateConfVector[ 0 ]) {
 1745              		.loc 1 523 0
 1746 0086 7B68     		ldr	r3, [r7, #4]
 1747 0088 1B78     		ldrb	r3, [r3]
 1748 008a 062B     		cmp	r3, #6
 1749 008c 2ED8     		bhi	.L138
 1750 008e 9A00     		lsl	r2, r3, #2
ARM GAS  C:\Users\SDEVAS~1\AppData\Local\Temp\ccigAyFK.s 			page 41


 1751 0090 1D4B     		ldr	r3, .L139+4
 1752 0092 D318     		add	r3, r2, r3
 1753 0094 1B68     		ldr	r3, [r3]
 1754 0096 9F46     		mov	pc, r3
 1755              		.section	.rodata
 1756              		.align	2
 1757              	.L131:
 1758 00e8 EC000000 		.word	.L138
 1759 00ec EC000000 		.word	.L138
 1760 00f0 98000000 		.word	.L130
 1761 00f4 A6000000 		.word	.L132
 1762 00f8 B4000000 		.word	.L133
 1763 00fc C2000000 		.word	.L134
 1764 0100 D0000000 		.word	.L135
 1765              		.section	.text.fsm_react_main_region_Operation_op_ValveOff
 1766              	.L130:
 524:.\src-fsm/Fsm.c **** 			case Fsm_main_region_Operation_op_Decide : {
 525:.\src-fsm/Fsm.c **** 				/* Default exit sequence for state Decide */
 526:.\src-fsm/Fsm.c **** 				handle->stateConfVector[0] = Fsm_last_state;
 1767              		.loc 1 526 0
 1768 0098 7B68     		ldr	r3, [r7, #4]
 1769 009a 0A22     		mov	r2, #10
 1770 009c 1A70     		strb	r2, [r3]
 527:.\src-fsm/Fsm.c **** 				handle->stateConfVectorPosition = 0;
 1771              		.loc 1 527 0
 1772 009e 7B68     		ldr	r3, [r7, #4]
 1773 00a0 0022     		mov	r2, #0
 1774 00a2 5A60     		str	r2, [r3, #4]
 528:.\src-fsm/Fsm.c **** 				break;
 1775              		.loc 1 528 0
 1776 00a4 23E0     		b	.L136
 1777              	.L132:
 529:.\src-fsm/Fsm.c **** 			}
 530:.\src-fsm/Fsm.c **** 			case Fsm_main_region_Operation_op_ValveOn : {
 531:.\src-fsm/Fsm.c **** 				/* Default exit sequence for state ValveOn */
 532:.\src-fsm/Fsm.c **** 				handle->stateConfVector[0] = Fsm_last_state;
 1778              		.loc 1 532 0
 1779 00a6 7B68     		ldr	r3, [r7, #4]
 1780 00a8 0A22     		mov	r2, #10
 1781 00aa 1A70     		strb	r2, [r3]
 533:.\src-fsm/Fsm.c **** 				handle->stateConfVectorPosition = 0;
 1782              		.loc 1 533 0
 1783 00ac 7B68     		ldr	r3, [r7, #4]
 1784 00ae 0022     		mov	r2, #0
 1785 00b0 5A60     		str	r2, [r3, #4]
 534:.\src-fsm/Fsm.c **** 				break;
 1786              		.loc 1 534 0
 1787 00b2 1CE0     		b	.L136
 1788              	.L133:
 535:.\src-fsm/Fsm.c **** 			}
 536:.\src-fsm/Fsm.c **** 			case Fsm_main_region_Operation_op_ValveOff : {
 537:.\src-fsm/Fsm.c **** 				/* Default exit sequence for state ValveOff */
 538:.\src-fsm/Fsm.c **** 				handle->stateConfVector[0] = Fsm_last_state;
 1789              		.loc 1 538 0
 1790 00b4 7B68     		ldr	r3, [r7, #4]
 1791 00b6 0A22     		mov	r2, #10
 1792 00b8 1A70     		strb	r2, [r3]
ARM GAS  C:\Users\SDEVAS~1\AppData\Local\Temp\ccigAyFK.s 			page 42


 539:.\src-fsm/Fsm.c **** 				handle->stateConfVectorPosition = 0;
 1793              		.loc 1 539 0
 1794 00ba 7B68     		ldr	r3, [r7, #4]
 1795 00bc 0022     		mov	r2, #0
 1796 00be 5A60     		str	r2, [r3, #4]
 540:.\src-fsm/Fsm.c **** 				break;
 1797              		.loc 1 540 0
 1798 00c0 15E0     		b	.L136
 1799              	.L134:
 541:.\src-fsm/Fsm.c **** 			}
 542:.\src-fsm/Fsm.c **** 			case Fsm_main_region_Operation_op_VolumeCheck : {
 543:.\src-fsm/Fsm.c **** 				/* Default exit sequence for state VolumeCheck */
 544:.\src-fsm/Fsm.c **** 				handle->stateConfVector[0] = Fsm_last_state;
 1800              		.loc 1 544 0
 1801 00c2 7B68     		ldr	r3, [r7, #4]
 1802 00c4 0A22     		mov	r2, #10
 1803 00c6 1A70     		strb	r2, [r3]
 545:.\src-fsm/Fsm.c **** 				handle->stateConfVectorPosition = 0;
 1804              		.loc 1 545 0
 1805 00c8 7B68     		ldr	r3, [r7, #4]
 1806 00ca 0022     		mov	r2, #0
 1807 00cc 5A60     		str	r2, [r3, #4]
 546:.\src-fsm/Fsm.c **** 				break;
 1808              		.loc 1 546 0
 1809 00ce 0EE0     		b	.L136
 1810              	.L135:
 547:.\src-fsm/Fsm.c **** 			}
 548:.\src-fsm/Fsm.c **** 			case Fsm_main_region_Operation_op_SendStats : {
 549:.\src-fsm/Fsm.c **** 				/* Default exit sequence for state SendStats */
 550:.\src-fsm/Fsm.c **** 				handle->stateConfVector[0] = Fsm_last_state;
 1811              		.loc 1 550 0
 1812 00d0 7B68     		ldr	r3, [r7, #4]
 1813 00d2 0A22     		mov	r2, #10
 1814 00d4 1A70     		strb	r2, [r3]
 551:.\src-fsm/Fsm.c **** 				handle->stateConfVectorPosition = 0;
 1815              		.loc 1 551 0
 1816 00d6 7B68     		ldr	r3, [r7, #4]
 1817 00d8 0022     		mov	r2, #0
 1818 00da 5A60     		str	r2, [r3, #4]
 552:.\src-fsm/Fsm.c **** 				/* Exit action for state 'SendStats'. */
 553:.\src-fsm/Fsm.c **** 				fsm_unsetTimer(handle, (sc_eventid) &(handle->timeEvents.fsm_main_region_Operation_op_SendStats
 1819              		.loc 1 553 0
 1820 00dc 7B68     		ldr	r3, [r7, #4]
 1821 00de 1833     		add	r3, r3, #24
 1822 00e0 7A68     		ldr	r2, [r7, #4]
 1823 00e2 101C     		mov	r0, r2
 1824 00e4 191C     		mov	r1, r3
 1825 00e6 FFF7FEFF 		bl	fsm_unsetTimer
 554:.\src-fsm/Fsm.c **** 				break;
 1826              		.loc 1 554 0
 1827 00ea 00E0     		b	.L136
 1828              	.L138:
 555:.\src-fsm/Fsm.c **** 			}
 556:.\src-fsm/Fsm.c **** 			default: break;
 1829              		.loc 1 556 0
 1830 00ec C046     		mov	r8, r8
 1831              	.L136:
ARM GAS  C:\Users\SDEVAS~1\AppData\Local\Temp\ccigAyFK.s 			page 43


 557:.\src-fsm/Fsm.c **** 		}
 558:.\src-fsm/Fsm.c **** 		/* 'default' enter sequence for state Sleep */
 559:.\src-fsm/Fsm.c **** 		/* Entry action for state 'Sleep'. */
 560:.\src-fsm/Fsm.c **** 		fsmIfacePlatform_sleep();
 1832              		.loc 1 560 0
 1833 00ee FFF7FEFF 		bl	fsmIfacePlatform_sleep
 561:.\src-fsm/Fsm.c **** 		handle->stateConfVector[0] = Fsm_main_region_Sleep;
 1834              		.loc 1 561 0
 1835 00f2 7B68     		ldr	r3, [r7, #4]
 1836 00f4 0022     		mov	r2, #0
 1837 00f6 1A70     		strb	r2, [r3]
 562:.\src-fsm/Fsm.c **** 		handle->stateConfVectorPosition = 0;
 1838              		.loc 1 562 0
 1839 00f8 7B68     		ldr	r3, [r7, #4]
 1840 00fa 0022     		mov	r2, #0
 1841 00fc 5A60     		str	r2, [r3, #4]
 1842              	.L118:
 563:.\src-fsm/Fsm.c **** 	}
 564:.\src-fsm/Fsm.c **** }
 1843              		.loc 1 564 0
 1844 00fe BD46     		mov	sp, r7
 1845 0100 02B0     		add	sp, sp, #8
 1846              		@ sp needed
 1847 0102 80BD     		pop	{r7, pc}
 1848              	.L140:
 1849              		.align	2
 1850              	.L139:
 1851 0104 CC000000 		.word	.L122
 1852 0108 E8000000 		.word	.L131
 1853              		.cfi_endproc
 1854              	.LFE23:
 1855              		.size	fsm_react_main_region_Operation_op_ValveOff, .-fsm_react_main_region_Operation_op_ValveOff
 1856              		.section	.text.fsm_react_main_region_Operation_op_VolumeCheck,"ax",%progbits
 1857              		.align	2
 1858              		.code	16
 1859              		.thumb_func
 1860              		.type	fsm_react_main_region_Operation_op_VolumeCheck, %function
 1861              	fsm_react_main_region_Operation_op_VolumeCheck:
 1862              	.LFB24:
 565:.\src-fsm/Fsm.c **** 
 566:.\src-fsm/Fsm.c **** /* The reactions of state VolumeCheck. */
 567:.\src-fsm/Fsm.c **** static void fsm_react_main_region_Operation_op_VolumeCheck(Fsm* handle) {
 1863              		.loc 1 567 0
 1864              		.cfi_startproc
 1865 0000 80B5     		push	{r7, lr}
 1866              		.cfi_def_cfa_offset 8
 1867              		.cfi_offset 7, -8
 1868              		.cfi_offset 14, -4
 1869 0002 82B0     		sub	sp, sp, #8
 1870              		.cfi_def_cfa_offset 16
 1871 0004 00AF     		add	r7, sp, #0
 1872              		.cfi_def_cfa_register 7
 1873 0006 7860     		str	r0, [r7, #4]
 568:.\src-fsm/Fsm.c **** 	/* The reactions of state VolumeCheck. */
 569:.\src-fsm/Fsm.c **** 	if (handle->ifacePlatform.idle_raised) { 
 1874              		.loc 1 569 0
 1875 0008 7B68     		ldr	r3, [r7, #4]
ARM GAS  C:\Users\SDEVAS~1\AppData\Local\Temp\ccigAyFK.s 			page 44


 1876 000a 9B7A     		ldrb	r3, [r3, #10]
 1877 000c 002B     		cmp	r3, #0
 1878 000e 3AD0     		beq	.L142
 570:.\src-fsm/Fsm.c **** 		/* Default exit sequence for state Operation */
 571:.\src-fsm/Fsm.c **** 		/* Default exit sequence for region op */
 572:.\src-fsm/Fsm.c **** 		/* Handle exit of all possible states (of op) at position 0... */
 573:.\src-fsm/Fsm.c **** 		switch(handle->stateConfVector[ 0 ]) {
 1879              		.loc 1 573 0
 1880 0010 7B68     		ldr	r3, [r7, #4]
 1881 0012 1B78     		ldrb	r3, [r3]
 1882 0014 062B     		cmp	r3, #6
 1883 0016 2ED8     		bhi	.L154
 1884 0018 9A00     		lsl	r2, r3, #2
 1885 001a 384B     		ldr	r3, .L155
 1886 001c D318     		add	r3, r2, r3
 1887 001e 1B68     		ldr	r3, [r3]
 1888 0020 9F46     		mov	pc, r3
 1889              		.section	.rodata
 1890              		.align	2
 1891              	.L145:
 1892 0104 76000000 		.word	.L154
 1893 0108 76000000 		.word	.L154
 1894 010c 22000000 		.word	.L144
 1895 0110 30000000 		.word	.L146
 1896 0114 3E000000 		.word	.L147
 1897 0118 4C000000 		.word	.L148
 1898 011c 5A000000 		.word	.L149
 1899              		.section	.text.fsm_react_main_region_Operation_op_VolumeCheck
 1900              	.L144:
 574:.\src-fsm/Fsm.c **** 			case Fsm_main_region_Operation_op_Decide : {
 575:.\src-fsm/Fsm.c **** 				/* Default exit sequence for state Decide */
 576:.\src-fsm/Fsm.c **** 				handle->stateConfVector[0] = Fsm_last_state;
 1901              		.loc 1 576 0
 1902 0022 7B68     		ldr	r3, [r7, #4]
 1903 0024 0A22     		mov	r2, #10
 1904 0026 1A70     		strb	r2, [r3]
 577:.\src-fsm/Fsm.c **** 				handle->stateConfVectorPosition = 0;
 1905              		.loc 1 577 0
 1906 0028 7B68     		ldr	r3, [r7, #4]
 1907 002a 0022     		mov	r2, #0
 1908 002c 5A60     		str	r2, [r3, #4]
 578:.\src-fsm/Fsm.c **** 				break;
 1909              		.loc 1 578 0
 1910 002e 23E0     		b	.L150
 1911              	.L146:
 579:.\src-fsm/Fsm.c **** 			}
 580:.\src-fsm/Fsm.c **** 			case Fsm_main_region_Operation_op_ValveOn : {
 581:.\src-fsm/Fsm.c **** 				/* Default exit sequence for state ValveOn */
 582:.\src-fsm/Fsm.c **** 				handle->stateConfVector[0] = Fsm_last_state;
 1912              		.loc 1 582 0
 1913 0030 7B68     		ldr	r3, [r7, #4]
 1914 0032 0A22     		mov	r2, #10
 1915 0034 1A70     		strb	r2, [r3]
 583:.\src-fsm/Fsm.c **** 				handle->stateConfVectorPosition = 0;
 1916              		.loc 1 583 0
 1917 0036 7B68     		ldr	r3, [r7, #4]
 1918 0038 0022     		mov	r2, #0
ARM GAS  C:\Users\SDEVAS~1\AppData\Local\Temp\ccigAyFK.s 			page 45


 1919 003a 5A60     		str	r2, [r3, #4]
 584:.\src-fsm/Fsm.c **** 				break;
 1920              		.loc 1 584 0
 1921 003c 1CE0     		b	.L150
 1922              	.L147:
 585:.\src-fsm/Fsm.c **** 			}
 586:.\src-fsm/Fsm.c **** 			case Fsm_main_region_Operation_op_ValveOff : {
 587:.\src-fsm/Fsm.c **** 				/* Default exit sequence for state ValveOff */
 588:.\src-fsm/Fsm.c **** 				handle->stateConfVector[0] = Fsm_last_state;
 1923              		.loc 1 588 0
 1924 003e 7B68     		ldr	r3, [r7, #4]
 1925 0040 0A22     		mov	r2, #10
 1926 0042 1A70     		strb	r2, [r3]
 589:.\src-fsm/Fsm.c **** 				handle->stateConfVectorPosition = 0;
 1927              		.loc 1 589 0
 1928 0044 7B68     		ldr	r3, [r7, #4]
 1929 0046 0022     		mov	r2, #0
 1930 0048 5A60     		str	r2, [r3, #4]
 590:.\src-fsm/Fsm.c **** 				break;
 1931              		.loc 1 590 0
 1932 004a 15E0     		b	.L150
 1933              	.L148:
 591:.\src-fsm/Fsm.c **** 			}
 592:.\src-fsm/Fsm.c **** 			case Fsm_main_region_Operation_op_VolumeCheck : {
 593:.\src-fsm/Fsm.c **** 				/* Default exit sequence for state VolumeCheck */
 594:.\src-fsm/Fsm.c **** 				handle->stateConfVector[0] = Fsm_last_state;
 1934              		.loc 1 594 0
 1935 004c 7B68     		ldr	r3, [r7, #4]
 1936 004e 0A22     		mov	r2, #10
 1937 0050 1A70     		strb	r2, [r3]
 595:.\src-fsm/Fsm.c **** 				handle->stateConfVectorPosition = 0;
 1938              		.loc 1 595 0
 1939 0052 7B68     		ldr	r3, [r7, #4]
 1940 0054 0022     		mov	r2, #0
 1941 0056 5A60     		str	r2, [r3, #4]
 596:.\src-fsm/Fsm.c **** 				break;
 1942              		.loc 1 596 0
 1943 0058 0EE0     		b	.L150
 1944              	.L149:
 597:.\src-fsm/Fsm.c **** 			}
 598:.\src-fsm/Fsm.c **** 			case Fsm_main_region_Operation_op_SendStats : {
 599:.\src-fsm/Fsm.c **** 				/* Default exit sequence for state SendStats */
 600:.\src-fsm/Fsm.c **** 				handle->stateConfVector[0] = Fsm_last_state;
 1945              		.loc 1 600 0
 1946 005a 7B68     		ldr	r3, [r7, #4]
 1947 005c 0A22     		mov	r2, #10
 1948 005e 1A70     		strb	r2, [r3]
 601:.\src-fsm/Fsm.c **** 				handle->stateConfVectorPosition = 0;
 1949              		.loc 1 601 0
 1950 0060 7B68     		ldr	r3, [r7, #4]
 1951 0062 0022     		mov	r2, #0
 1952 0064 5A60     		str	r2, [r3, #4]
 602:.\src-fsm/Fsm.c **** 				/* Exit action for state 'SendStats'. */
 603:.\src-fsm/Fsm.c **** 				fsm_unsetTimer(handle, (sc_eventid) &(handle->timeEvents.fsm_main_region_Operation_op_SendStats
 1953              		.loc 1 603 0
 1954 0066 7B68     		ldr	r3, [r7, #4]
 1955 0068 1833     		add	r3, r3, #24
ARM GAS  C:\Users\SDEVAS~1\AppData\Local\Temp\ccigAyFK.s 			page 46


 1956 006a 7A68     		ldr	r2, [r7, #4]
 1957 006c 101C     		mov	r0, r2
 1958 006e 191C     		mov	r1, r3
 1959 0070 FFF7FEFF 		bl	fsm_unsetTimer
 604:.\src-fsm/Fsm.c **** 				break;
 1960              		.loc 1 604 0
 1961 0074 00E0     		b	.L150
 1962              	.L154:
 605:.\src-fsm/Fsm.c **** 			}
 606:.\src-fsm/Fsm.c **** 			default: break;
 1963              		.loc 1 606 0
 1964 0076 C046     		mov	r8, r8
 1965              	.L150:
 607:.\src-fsm/Fsm.c **** 		}
 608:.\src-fsm/Fsm.c **** 		/* 'default' enter sequence for state Idle */
 609:.\src-fsm/Fsm.c **** 		handle->stateConfVector[0] = Fsm_main_region_Idle;
 1966              		.loc 1 609 0
 1967 0078 7B68     		ldr	r3, [r7, #4]
 1968 007a 0922     		mov	r2, #9
 1969 007c 1A70     		strb	r2, [r3]
 610:.\src-fsm/Fsm.c **** 		handle->stateConfVectorPosition = 0;
 1970              		.loc 1 610 0
 1971 007e 7B68     		ldr	r3, [r7, #4]
 1972 0080 0022     		mov	r2, #0
 1973 0082 5A60     		str	r2, [r3, #4]
 1974 0084 37E0     		b	.L141
 1975              	.L142:
 611:.\src-fsm/Fsm.c **** 	}  else {
 612:.\src-fsm/Fsm.c **** 		/* Default exit sequence for state VolumeCheck */
 613:.\src-fsm/Fsm.c **** 		handle->stateConfVector[0] = Fsm_last_state;
 1976              		.loc 1 613 0
 1977 0086 7B68     		ldr	r3, [r7, #4]
 1978 0088 0A22     		mov	r2, #10
 1979 008a 1A70     		strb	r2, [r3]
 614:.\src-fsm/Fsm.c **** 		handle->stateConfVectorPosition = 0;
 1980              		.loc 1 614 0
 1981 008c 7B68     		ldr	r3, [r7, #4]
 1982 008e 0022     		mov	r2, #0
 1983 0090 5A60     		str	r2, [r3, #4]
 615:.\src-fsm/Fsm.c **** 		/* The reactions of state null. */
 616:.\src-fsm/Fsm.c **** 		if (handle->ifaceWaterControl.currentVolume >= handle->ifaceWaterControl.maxVolume) { 
 1984              		.loc 1 616 0
 1985 0092 7B68     		ldr	r3, [r7, #4]
 1986 0094 1A69     		ldr	r2, [r3, #16]
 1987 0096 7B68     		ldr	r3, [r7, #4]
 1988 0098 DB68     		ldr	r3, [r3, #12]
 1989 009a 9A42     		cmp	r2, r3
 1990 009c 08DB     		blt	.L152
 617:.\src-fsm/Fsm.c **** 			/* 'default' enter sequence for state ValveOff */
 618:.\src-fsm/Fsm.c **** 			/* Entry action for state 'ValveOff'. */
 619:.\src-fsm/Fsm.c **** 			fsmIfaceWaterControl_valveOff();
 1991              		.loc 1 619 0
 1992 009e FFF7FEFF 		bl	fsmIfaceWaterControl_valveOff
 620:.\src-fsm/Fsm.c **** 			handle->stateConfVector[0] = Fsm_main_region_Operation_op_ValveOff;
 1993              		.loc 1 620 0
 1994 00a2 7B68     		ldr	r3, [r7, #4]
 1995 00a4 0422     		mov	r2, #4
ARM GAS  C:\Users\SDEVAS~1\AppData\Local\Temp\ccigAyFK.s 			page 47


 1996 00a6 1A70     		strb	r2, [r3]
 621:.\src-fsm/Fsm.c **** 			handle->stateConfVectorPosition = 0;
 1997              		.loc 1 621 0
 1998 00a8 7B68     		ldr	r3, [r7, #4]
 1999 00aa 0022     		mov	r2, #0
 2000 00ac 5A60     		str	r2, [r3, #4]
 2001 00ae 22E0     		b	.L141
 2002              	.L152:
 622:.\src-fsm/Fsm.c **** 		}  else {
 623:.\src-fsm/Fsm.c **** 			if (handle->ifaceWaterControl.currentVolume < handle->ifaceWaterControl.maxVolume) { 
 2003              		.loc 1 623 0
 2004 00b0 7B68     		ldr	r3, [r7, #4]
 2005 00b2 1A69     		ldr	r2, [r3, #16]
 2006 00b4 7B68     		ldr	r3, [r7, #4]
 2007 00b6 DB68     		ldr	r3, [r3, #12]
 2008 00b8 9A42     		cmp	r2, r3
 2009 00ba 08DA     		bge	.L153
 624:.\src-fsm/Fsm.c **** 				/* 'default' enter sequence for state ValveOn */
 625:.\src-fsm/Fsm.c **** 				/* Entry action for state 'ValveOn'. */
 626:.\src-fsm/Fsm.c **** 				fsmIfaceWaterControl_valveOn();
 2010              		.loc 1 626 0
 2011 00bc FFF7FEFF 		bl	fsmIfaceWaterControl_valveOn
 627:.\src-fsm/Fsm.c **** 				handle->stateConfVector[0] = Fsm_main_region_Operation_op_ValveOn;
 2012              		.loc 1 627 0
 2013 00c0 7B68     		ldr	r3, [r7, #4]
 2014 00c2 0322     		mov	r2, #3
 2015 00c4 1A70     		strb	r2, [r3]
 628:.\src-fsm/Fsm.c **** 				handle->stateConfVectorPosition = 0;
 2016              		.loc 1 628 0
 2017 00c6 7B68     		ldr	r3, [r7, #4]
 2018 00c8 0022     		mov	r2, #0
 2019 00ca 5A60     		str	r2, [r3, #4]
 2020 00cc 13E0     		b	.L141
 2021              	.L153:
 629:.\src-fsm/Fsm.c **** 			}  else {
 630:.\src-fsm/Fsm.c **** 				/* 'default' enter sequence for state SendStats */
 631:.\src-fsm/Fsm.c **** 				/* Entry action for state 'SendStats'. */
 632:.\src-fsm/Fsm.c **** 				fsm_setTimer(handle, (sc_eventid) &(handle->timeEvents.fsm_main_region_Operation_op_SendStats_t
 2022              		.loc 1 632 0
 2023 00ce 7B68     		ldr	r3, [r7, #4]
 2024 00d0 1A1C     		mov	r2, r3
 2025 00d2 1832     		add	r2, r2, #24
 2026 00d4 7968     		ldr	r1, [r7, #4]
 2027 00d6 FA23     		mov	r3, #250
 2028 00d8 9B00     		lsl	r3, r3, #2
 2029 00da 081C     		mov	r0, r1
 2030 00dc 111C     		mov	r1, r2
 2031 00de 1A1C     		mov	r2, r3
 2032 00e0 0023     		mov	r3, #0
 2033 00e2 FFF7FEFF 		bl	fsm_setTimer
 633:.\src-fsm/Fsm.c **** 				fsmIfaceWaterControl_sendStats();
 2034              		.loc 1 633 0
 2035 00e6 FFF7FEFF 		bl	fsmIfaceWaterControl_sendStats
 634:.\src-fsm/Fsm.c **** 				handle->stateConfVector[0] = Fsm_main_region_Operation_op_SendStats;
 2036              		.loc 1 634 0
 2037 00ea 7B68     		ldr	r3, [r7, #4]
 2038 00ec 0622     		mov	r2, #6
ARM GAS  C:\Users\SDEVAS~1\AppData\Local\Temp\ccigAyFK.s 			page 48


 2039 00ee 1A70     		strb	r2, [r3]
 635:.\src-fsm/Fsm.c **** 				handle->stateConfVectorPosition = 0;
 2040              		.loc 1 635 0
 2041 00f0 7B68     		ldr	r3, [r7, #4]
 2042 00f2 0022     		mov	r2, #0
 2043 00f4 5A60     		str	r2, [r3, #4]
 2044              	.L141:
 636:.\src-fsm/Fsm.c **** 			}
 637:.\src-fsm/Fsm.c **** 		}
 638:.\src-fsm/Fsm.c **** 	}
 639:.\src-fsm/Fsm.c **** }
 2045              		.loc 1 639 0
 2046 00f6 BD46     		mov	sp, r7
 2047 00f8 02B0     		add	sp, sp, #8
 2048              		@ sp needed
 2049 00fa 80BD     		pop	{r7, pc}
 2050              	.L156:
 2051              		.align	2
 2052              	.L155:
 2053 00fc 04010000 		.word	.L145
 2054              		.cfi_endproc
 2055              	.LFE24:
 2056              		.size	fsm_react_main_region_Operation_op_VolumeCheck, .-fsm_react_main_region_Operation_op_VolumeC
 2057              		.section	.text.fsm_react_main_region_Operation_op_SendStats,"ax",%progbits
 2058              		.align	2
 2059              		.code	16
 2060              		.thumb_func
 2061              		.type	fsm_react_main_region_Operation_op_SendStats, %function
 2062              	fsm_react_main_region_Operation_op_SendStats:
 2063              	.LFB25:
 640:.\src-fsm/Fsm.c **** 
 641:.\src-fsm/Fsm.c **** /* The reactions of state SendStats. */
 642:.\src-fsm/Fsm.c **** static void fsm_react_main_region_Operation_op_SendStats(Fsm* handle) {
 2064              		.loc 1 642 0
 2065              		.cfi_startproc
 2066 0000 80B5     		push	{r7, lr}
 2067              		.cfi_def_cfa_offset 8
 2068              		.cfi_offset 7, -8
 2069              		.cfi_offset 14, -4
 2070 0002 82B0     		sub	sp, sp, #8
 2071              		.cfi_def_cfa_offset 16
 2072 0004 00AF     		add	r7, sp, #0
 2073              		.cfi_def_cfa_register 7
 2074 0006 7860     		str	r0, [r7, #4]
 643:.\src-fsm/Fsm.c **** 	/* The reactions of state SendStats. */
 644:.\src-fsm/Fsm.c **** 	if (handle->ifacePlatform.idle_raised) { 
 2075              		.loc 1 644 0
 2076 0008 7B68     		ldr	r3, [r7, #4]
 2077 000a 9B7A     		ldrb	r3, [r3, #10]
 2078 000c 002B     		cmp	r3, #0
 2079 000e 3AD0     		beq	.L158
 645:.\src-fsm/Fsm.c **** 		/* Default exit sequence for state Operation */
 646:.\src-fsm/Fsm.c **** 		/* Default exit sequence for region op */
 647:.\src-fsm/Fsm.c **** 		/* Handle exit of all possible states (of op) at position 0... */
 648:.\src-fsm/Fsm.c **** 		switch(handle->stateConfVector[ 0 ]) {
 2080              		.loc 1 648 0
 2081 0010 7B68     		ldr	r3, [r7, #4]
ARM GAS  C:\Users\SDEVAS~1\AppData\Local\Temp\ccigAyFK.s 			page 49


 2082 0012 1B78     		ldrb	r3, [r3]
 2083 0014 062B     		cmp	r3, #6
 2084 0016 2ED8     		bhi	.L168
 2085 0018 9A00     		lsl	r2, r3, #2
 2086 001a 2A4B     		ldr	r3, .L169
 2087 001c D318     		add	r3, r2, r3
 2088 001e 1B68     		ldr	r3, [r3]
 2089 0020 9F46     		mov	pc, r3
 2090              		.section	.rodata
 2091              		.align	2
 2092              	.L161:
 2093 0120 76000000 		.word	.L168
 2094 0124 76000000 		.word	.L168
 2095 0128 22000000 		.word	.L160
 2096 012c 30000000 		.word	.L162
 2097 0130 3E000000 		.word	.L163
 2098 0134 4C000000 		.word	.L164
 2099 0138 5A000000 		.word	.L165
 2100              		.section	.text.fsm_react_main_region_Operation_op_SendStats
 2101              	.L160:
 649:.\src-fsm/Fsm.c **** 			case Fsm_main_region_Operation_op_Decide : {
 650:.\src-fsm/Fsm.c **** 				/* Default exit sequence for state Decide */
 651:.\src-fsm/Fsm.c **** 				handle->stateConfVector[0] = Fsm_last_state;
 2102              		.loc 1 651 0
 2103 0022 7B68     		ldr	r3, [r7, #4]
 2104 0024 0A22     		mov	r2, #10
 2105 0026 1A70     		strb	r2, [r3]
 652:.\src-fsm/Fsm.c **** 				handle->stateConfVectorPosition = 0;
 2106              		.loc 1 652 0
 2107 0028 7B68     		ldr	r3, [r7, #4]
 2108 002a 0022     		mov	r2, #0
 2109 002c 5A60     		str	r2, [r3, #4]
 653:.\src-fsm/Fsm.c **** 				break;
 2110              		.loc 1 653 0
 2111 002e 23E0     		b	.L166
 2112              	.L162:
 654:.\src-fsm/Fsm.c **** 			}
 655:.\src-fsm/Fsm.c **** 			case Fsm_main_region_Operation_op_ValveOn : {
 656:.\src-fsm/Fsm.c **** 				/* Default exit sequence for state ValveOn */
 657:.\src-fsm/Fsm.c **** 				handle->stateConfVector[0] = Fsm_last_state;
 2113              		.loc 1 657 0
 2114 0030 7B68     		ldr	r3, [r7, #4]
 2115 0032 0A22     		mov	r2, #10
 2116 0034 1A70     		strb	r2, [r3]
 658:.\src-fsm/Fsm.c **** 				handle->stateConfVectorPosition = 0;
 2117              		.loc 1 658 0
 2118 0036 7B68     		ldr	r3, [r7, #4]
 2119 0038 0022     		mov	r2, #0
 2120 003a 5A60     		str	r2, [r3, #4]
 659:.\src-fsm/Fsm.c **** 				break;
 2121              		.loc 1 659 0
 2122 003c 1CE0     		b	.L166
 2123              	.L163:
 660:.\src-fsm/Fsm.c **** 			}
 661:.\src-fsm/Fsm.c **** 			case Fsm_main_region_Operation_op_ValveOff : {
 662:.\src-fsm/Fsm.c **** 				/* Default exit sequence for state ValveOff */
 663:.\src-fsm/Fsm.c **** 				handle->stateConfVector[0] = Fsm_last_state;
ARM GAS  C:\Users\SDEVAS~1\AppData\Local\Temp\ccigAyFK.s 			page 50


 2124              		.loc 1 663 0
 2125 003e 7B68     		ldr	r3, [r7, #4]
 2126 0040 0A22     		mov	r2, #10
 2127 0042 1A70     		strb	r2, [r3]
 664:.\src-fsm/Fsm.c **** 				handle->stateConfVectorPosition = 0;
 2128              		.loc 1 664 0
 2129 0044 7B68     		ldr	r3, [r7, #4]
 2130 0046 0022     		mov	r2, #0
 2131 0048 5A60     		str	r2, [r3, #4]
 665:.\src-fsm/Fsm.c **** 				break;
 2132              		.loc 1 665 0
 2133 004a 15E0     		b	.L166
 2134              	.L164:
 666:.\src-fsm/Fsm.c **** 			}
 667:.\src-fsm/Fsm.c **** 			case Fsm_main_region_Operation_op_VolumeCheck : {
 668:.\src-fsm/Fsm.c **** 				/* Default exit sequence for state VolumeCheck */
 669:.\src-fsm/Fsm.c **** 				handle->stateConfVector[0] = Fsm_last_state;
 2135              		.loc 1 669 0
 2136 004c 7B68     		ldr	r3, [r7, #4]
 2137 004e 0A22     		mov	r2, #10
 2138 0050 1A70     		strb	r2, [r3]
 670:.\src-fsm/Fsm.c **** 				handle->stateConfVectorPosition = 0;
 2139              		.loc 1 670 0
 2140 0052 7B68     		ldr	r3, [r7, #4]
 2141 0054 0022     		mov	r2, #0
 2142 0056 5A60     		str	r2, [r3, #4]
 671:.\src-fsm/Fsm.c **** 				break;
 2143              		.loc 1 671 0
 2144 0058 0EE0     		b	.L166
 2145              	.L165:
 672:.\src-fsm/Fsm.c **** 			}
 673:.\src-fsm/Fsm.c **** 			case Fsm_main_region_Operation_op_SendStats : {
 674:.\src-fsm/Fsm.c **** 				/* Default exit sequence for state SendStats */
 675:.\src-fsm/Fsm.c **** 				handle->stateConfVector[0] = Fsm_last_state;
 2146              		.loc 1 675 0
 2147 005a 7B68     		ldr	r3, [r7, #4]
 2148 005c 0A22     		mov	r2, #10
 2149 005e 1A70     		strb	r2, [r3]
 676:.\src-fsm/Fsm.c **** 				handle->stateConfVectorPosition = 0;
 2150              		.loc 1 676 0
 2151 0060 7B68     		ldr	r3, [r7, #4]
 2152 0062 0022     		mov	r2, #0
 2153 0064 5A60     		str	r2, [r3, #4]
 677:.\src-fsm/Fsm.c **** 				/* Exit action for state 'SendStats'. */
 678:.\src-fsm/Fsm.c **** 				fsm_unsetTimer(handle, (sc_eventid) &(handle->timeEvents.fsm_main_region_Operation_op_SendStats
 2154              		.loc 1 678 0
 2155 0066 7B68     		ldr	r3, [r7, #4]
 2156 0068 1833     		add	r3, r3, #24
 2157 006a 7A68     		ldr	r2, [r7, #4]
 2158 006c 101C     		mov	r0, r2
 2159 006e 191C     		mov	r1, r3
 2160 0070 FFF7FEFF 		bl	fsm_unsetTimer
 679:.\src-fsm/Fsm.c **** 				break;
 2161              		.loc 1 679 0
 2162 0074 00E0     		b	.L166
 2163              	.L168:
 680:.\src-fsm/Fsm.c **** 			}
ARM GAS  C:\Users\SDEVAS~1\AppData\Local\Temp\ccigAyFK.s 			page 51


 681:.\src-fsm/Fsm.c **** 			default: break;
 2164              		.loc 1 681 0
 2165 0076 C046     		mov	r8, r8
 2166              	.L166:
 682:.\src-fsm/Fsm.c **** 		}
 683:.\src-fsm/Fsm.c **** 		/* 'default' enter sequence for state Idle */
 684:.\src-fsm/Fsm.c **** 		handle->stateConfVector[0] = Fsm_main_region_Idle;
 2167              		.loc 1 684 0
 2168 0078 7B68     		ldr	r3, [r7, #4]
 2169 007a 0922     		mov	r2, #9
 2170 007c 1A70     		strb	r2, [r3]
 685:.\src-fsm/Fsm.c **** 		handle->stateConfVectorPosition = 0;
 2171              		.loc 1 685 0
 2172 007e 7B68     		ldr	r3, [r7, #4]
 2173 0080 0022     		mov	r2, #0
 2174 0082 5A60     		str	r2, [r3, #4]
 2175 0084 1BE0     		b	.L157
 2176              	.L158:
 686:.\src-fsm/Fsm.c **** 	}  else {
 687:.\src-fsm/Fsm.c **** 		if (handle->timeEvents.fsm_main_region_Operation_op_SendStats_tev0_raised) { 
 2177              		.loc 1 687 0
 2178 0086 7B68     		ldr	r3, [r7, #4]
 2179 0088 1B7E     		ldrb	r3, [r3, #24]
 2180 008a 002B     		cmp	r3, #0
 2181 008c 17D0     		beq	.L157
 688:.\src-fsm/Fsm.c **** 			/* Default exit sequence for state SendStats */
 689:.\src-fsm/Fsm.c **** 			handle->stateConfVector[0] = Fsm_last_state;
 2182              		.loc 1 689 0
 2183 008e 7B68     		ldr	r3, [r7, #4]
 2184 0090 0A22     		mov	r2, #10
 2185 0092 1A70     		strb	r2, [r3]
 690:.\src-fsm/Fsm.c **** 			handle->stateConfVectorPosition = 0;
 2186              		.loc 1 690 0
 2187 0094 7B68     		ldr	r3, [r7, #4]
 2188 0096 0022     		mov	r2, #0
 2189 0098 5A60     		str	r2, [r3, #4]
 691:.\src-fsm/Fsm.c **** 			/* Exit action for state 'SendStats'. */
 692:.\src-fsm/Fsm.c **** 			fsm_unsetTimer(handle, (sc_eventid) &(handle->timeEvents.fsm_main_region_Operation_op_SendStats_
 2190              		.loc 1 692 0
 2191 009a 7B68     		ldr	r3, [r7, #4]
 2192 009c 1833     		add	r3, r3, #24
 2193 009e 7A68     		ldr	r2, [r7, #4]
 2194 00a0 101C     		mov	r0, r2
 2195 00a2 191C     		mov	r1, r3
 2196 00a4 FFF7FEFF 		bl	fsm_unsetTimer
 693:.\src-fsm/Fsm.c **** 			/* 'default' enter sequence for state Decide */
 694:.\src-fsm/Fsm.c **** 			/* Entry action for state 'Decide'. */
 695:.\src-fsm/Fsm.c **** 			handle->ifaceWaterControl.opMode = fsmIfaceWaterControl_getOpMode();
 2197              		.loc 1 695 0
 2198 00a8 FFF7FEFF 		bl	fsmIfaceWaterControl_getOpMode
 2199 00ac 021C     		mov	r2, r0
 2200 00ae 7B68     		ldr	r3, [r7, #4]
 2201 00b0 5A61     		str	r2, [r3, #20]
 696:.\src-fsm/Fsm.c **** 			handle->stateConfVector[0] = Fsm_main_region_Operation_op_Decide;
 2202              		.loc 1 696 0
 2203 00b2 7B68     		ldr	r3, [r7, #4]
 2204 00b4 0222     		mov	r2, #2
ARM GAS  C:\Users\SDEVAS~1\AppData\Local\Temp\ccigAyFK.s 			page 52


 2205 00b6 1A70     		strb	r2, [r3]
 697:.\src-fsm/Fsm.c **** 			handle->stateConfVectorPosition = 0;
 2206              		.loc 1 697 0
 2207 00b8 7B68     		ldr	r3, [r7, #4]
 2208 00ba 0022     		mov	r2, #0
 2209 00bc 5A60     		str	r2, [r3, #4]
 2210              	.L157:
 698:.\src-fsm/Fsm.c **** 		} 
 699:.\src-fsm/Fsm.c **** 	}
 700:.\src-fsm/Fsm.c **** }
 2211              		.loc 1 700 0
 2212 00be BD46     		mov	sp, r7
 2213 00c0 02B0     		add	sp, sp, #8
 2214              		@ sp needed
 2215 00c2 80BD     		pop	{r7, pc}
 2216              	.L170:
 2217              		.align	2
 2218              	.L169:
 2219 00c4 20010000 		.word	.L161
 2220              		.cfi_endproc
 2221              	.LFE25:
 2222              		.size	fsm_react_main_region_Operation_op_SendStats, .-fsm_react_main_region_Operation_op_SendStats
 2223              		.section	.text.fsm_react_main_region_TestState_test__final_,"ax",%progbits
 2224              		.align	2
 2225              		.code	16
 2226              		.thumb_func
 2227              		.type	fsm_react_main_region_TestState_test__final_, %function
 2228              	fsm_react_main_region_TestState_test__final_:
 2229              	.LFB26:
 701:.\src-fsm/Fsm.c **** 
 702:.\src-fsm/Fsm.c **** /* The reactions of state null. */
 703:.\src-fsm/Fsm.c **** static void fsm_react_main_region_TestState_test__final_(Fsm* handle) {
 2230              		.loc 1 703 0
 2231              		.cfi_startproc
 2232 0000 80B5     		push	{r7, lr}
 2233              		.cfi_def_cfa_offset 8
 2234              		.cfi_offset 7, -8
 2235              		.cfi_offset 14, -4
 2236 0002 82B0     		sub	sp, sp, #8
 2237              		.cfi_def_cfa_offset 16
 2238 0004 00AF     		add	r7, sp, #0
 2239              		.cfi_def_cfa_register 7
 2240 0006 7860     		str	r0, [r7, #4]
 704:.\src-fsm/Fsm.c **** 	/* The reactions of state null. */
 705:.\src-fsm/Fsm.c **** 	if (handle->ifacePlatform.idle_raised) { 
 2241              		.loc 1 705 0
 2242 0008 7B68     		ldr	r3, [r7, #4]
 2243 000a 9B7A     		ldrb	r3, [r3, #10]
 2244 000c 002B     		cmp	r3, #0
 2245 000e 11D0     		beq	.L171
 706:.\src-fsm/Fsm.c **** 		/* Default exit sequence for state TestState */
 707:.\src-fsm/Fsm.c **** 		/* Default exit sequence for region test */
 708:.\src-fsm/Fsm.c **** 		/* Handle exit of all possible states (of test) at position 0... */
 709:.\src-fsm/Fsm.c **** 		switch(handle->stateConfVector[ 0 ]) {
 2246              		.loc 1 709 0
 2247 0010 7B68     		ldr	r3, [r7, #4]
 2248 0012 1B78     		ldrb	r3, [r3]
ARM GAS  C:\Users\SDEVAS~1\AppData\Local\Temp\ccigAyFK.s 			page 53


 2249 0014 082B     		cmp	r3, #8
 2250 0016 00D0     		beq	.L174
 710:.\src-fsm/Fsm.c **** 			case Fsm_main_region_TestState_test__final_ : {
 711:.\src-fsm/Fsm.c **** 				/* Default exit sequence for final state. */
 712:.\src-fsm/Fsm.c **** 				handle->stateConfVector[0] = Fsm_last_state;
 713:.\src-fsm/Fsm.c **** 				handle->stateConfVectorPosition = 0;
 714:.\src-fsm/Fsm.c **** 				break;
 715:.\src-fsm/Fsm.c **** 			}
 716:.\src-fsm/Fsm.c **** 			default: break;
 2251              		.loc 1 716 0
 2252 0018 06E0     		b	.L175
 2253              	.L174:
 712:.\src-fsm/Fsm.c **** 				handle->stateConfVector[0] = Fsm_last_state;
 2254              		.loc 1 712 0
 2255 001a 7B68     		ldr	r3, [r7, #4]
 2256 001c 0A22     		mov	r2, #10
 2257 001e 1A70     		strb	r2, [r3]
 713:.\src-fsm/Fsm.c **** 				handle->stateConfVectorPosition = 0;
 2258              		.loc 1 713 0
 2259 0020 7B68     		ldr	r3, [r7, #4]
 2260 0022 0022     		mov	r2, #0
 2261 0024 5A60     		str	r2, [r3, #4]
 714:.\src-fsm/Fsm.c **** 				break;
 2262              		.loc 1 714 0
 2263 0026 C046     		mov	r8, r8
 2264              	.L175:
 717:.\src-fsm/Fsm.c **** 		}
 718:.\src-fsm/Fsm.c **** 		/* 'default' enter sequence for state Idle */
 719:.\src-fsm/Fsm.c **** 		handle->stateConfVector[0] = Fsm_main_region_Idle;
 2265              		.loc 1 719 0
 2266 0028 7B68     		ldr	r3, [r7, #4]
 2267 002a 0922     		mov	r2, #9
 2268 002c 1A70     		strb	r2, [r3]
 720:.\src-fsm/Fsm.c **** 		handle->stateConfVectorPosition = 0;
 2269              		.loc 1 720 0
 2270 002e 7B68     		ldr	r3, [r7, #4]
 2271 0030 0022     		mov	r2, #0
 2272 0032 5A60     		str	r2, [r3, #4]
 2273              	.L171:
 721:.\src-fsm/Fsm.c **** 	}  else {
 722:.\src-fsm/Fsm.c **** 	}
 723:.\src-fsm/Fsm.c **** }
 2274              		.loc 1 723 0
 2275 0034 BD46     		mov	sp, r7
 2276 0036 02B0     		add	sp, sp, #8
 2277              		@ sp needed
 2278 0038 80BD     		pop	{r7, pc}
 2279              		.cfi_endproc
 2280              	.LFE26:
 2281              		.size	fsm_react_main_region_TestState_test__final_, .-fsm_react_main_region_TestState_test__final_
 2282 003a C046     		.section	.text.fsm_react_main_region_Idle,"ax",%progbits
 2283              		.align	2
 2284              		.code	16
 2285              		.thumb_func
 2286              		.type	fsm_react_main_region_Idle, %function
 2287              	fsm_react_main_region_Idle:
 2288              	.LFB27:
ARM GAS  C:\Users\SDEVAS~1\AppData\Local\Temp\ccigAyFK.s 			page 54


 724:.\src-fsm/Fsm.c **** 
 725:.\src-fsm/Fsm.c **** /* The reactions of state Idle. */
 726:.\src-fsm/Fsm.c **** static void fsm_react_main_region_Idle(Fsm* handle) {
 2289              		.loc 1 726 0
 2290              		.cfi_startproc
 2291 0000 80B5     		push	{r7, lr}
 2292              		.cfi_def_cfa_offset 8
 2293              		.cfi_offset 7, -8
 2294              		.cfi_offset 14, -4
 2295 0002 82B0     		sub	sp, sp, #8
 2296              		.cfi_def_cfa_offset 16
 2297 0004 00AF     		add	r7, sp, #0
 2298              		.cfi_def_cfa_register 7
 2299 0006 7860     		str	r0, [r7, #4]
 727:.\src-fsm/Fsm.c **** 	/* The reactions of state Idle. */
 728:.\src-fsm/Fsm.c **** 	if (handle->ifacePlatform.test_raised) { 
 2300              		.loc 1 728 0
 2301 0008 7B68     		ldr	r3, [r7, #4]
 2302 000a 5B7A     		ldrb	r3, [r3, #9]
 2303 000c 002B     		cmp	r3, #0
 2304 000e 0CD0     		beq	.L177
 729:.\src-fsm/Fsm.c **** 		/* Default exit sequence for state Idle */
 730:.\src-fsm/Fsm.c **** 		handle->stateConfVector[0] = Fsm_last_state;
 2305              		.loc 1 730 0
 2306 0010 7B68     		ldr	r3, [r7, #4]
 2307 0012 0A22     		mov	r2, #10
 2308 0014 1A70     		strb	r2, [r3]
 731:.\src-fsm/Fsm.c **** 		handle->stateConfVectorPosition = 0;
 2309              		.loc 1 731 0
 2310 0016 7B68     		ldr	r3, [r7, #4]
 2311 0018 0022     		mov	r2, #0
 2312 001a 5A60     		str	r2, [r3, #4]
 732:.\src-fsm/Fsm.c **** 		/* 'default' enter sequence for state TestState */
 733:.\src-fsm/Fsm.c **** 		/* 'default' enter sequence for region test */
 734:.\src-fsm/Fsm.c **** 		/* Default react sequence for initial entry  */
 735:.\src-fsm/Fsm.c **** 		/* Default enter sequence for state null */
 736:.\src-fsm/Fsm.c **** 		handle->stateConfVector[0] = Fsm_main_region_TestState_test__final_;
 2313              		.loc 1 736 0
 2314 001c 7B68     		ldr	r3, [r7, #4]
 2315 001e 0822     		mov	r2, #8
 2316 0020 1A70     		strb	r2, [r3]
 737:.\src-fsm/Fsm.c **** 		handle->stateConfVectorPosition = 0;
 2317              		.loc 1 737 0
 2318 0022 7B68     		ldr	r3, [r7, #4]
 2319 0024 0022     		mov	r2, #0
 2320 0026 5A60     		str	r2, [r3, #4]
 2321 0028 11E0     		b	.L176
 2322              	.L177:
 738:.\src-fsm/Fsm.c **** 	}  else {
 739:.\src-fsm/Fsm.c **** 		if (handle->ifacePlatform.start_raised) { 
 2323              		.loc 1 739 0
 2324 002a 7B68     		ldr	r3, [r7, #4]
 2325 002c 1B7A     		ldrb	r3, [r3, #8]
 2326 002e 002B     		cmp	r3, #0
 2327 0030 0DD0     		beq	.L176
 740:.\src-fsm/Fsm.c **** 			/* Default exit sequence for state Idle */
 741:.\src-fsm/Fsm.c **** 			handle->stateConfVector[0] = Fsm_last_state;
ARM GAS  C:\Users\SDEVAS~1\AppData\Local\Temp\ccigAyFK.s 			page 55


 2328              		.loc 1 741 0
 2329 0032 7B68     		ldr	r3, [r7, #4]
 2330 0034 0A22     		mov	r2, #10
 2331 0036 1A70     		strb	r2, [r3]
 742:.\src-fsm/Fsm.c **** 			handle->stateConfVectorPosition = 0;
 2332              		.loc 1 742 0
 2333 0038 7B68     		ldr	r3, [r7, #4]
 2334 003a 0022     		mov	r2, #0
 2335 003c 5A60     		str	r2, [r3, #4]
 743:.\src-fsm/Fsm.c **** 			/* 'default' enter sequence for state Sleep */
 744:.\src-fsm/Fsm.c **** 			/* Entry action for state 'Sleep'. */
 745:.\src-fsm/Fsm.c **** 			fsmIfacePlatform_sleep();
 2336              		.loc 1 745 0
 2337 003e FFF7FEFF 		bl	fsmIfacePlatform_sleep
 746:.\src-fsm/Fsm.c **** 			handle->stateConfVector[0] = Fsm_main_region_Sleep;
 2338              		.loc 1 746 0
 2339 0042 7B68     		ldr	r3, [r7, #4]
 2340 0044 0022     		mov	r2, #0
 2341 0046 1A70     		strb	r2, [r3]
 747:.\src-fsm/Fsm.c **** 			handle->stateConfVectorPosition = 0;
 2342              		.loc 1 747 0
 2343 0048 7B68     		ldr	r3, [r7, #4]
 2344 004a 0022     		mov	r2, #0
 2345 004c 5A60     		str	r2, [r3, #4]
 2346              	.L176:
 748:.\src-fsm/Fsm.c **** 		} 
 749:.\src-fsm/Fsm.c **** 	}
 750:.\src-fsm/Fsm.c **** }
 2347              		.loc 1 750 0
 2348 004e BD46     		mov	sp, r7
 2349 0050 02B0     		add	sp, sp, #8
 2350              		@ sp needed
 2351 0052 80BD     		pop	{r7, pc}
 2352              		.cfi_endproc
 2353              	.LFE27:
 2354              		.size	fsm_react_main_region_Idle, .-fsm_react_main_region_Idle
 2355              		.text
 2356              	.Letext0:
 2357              		.file 2 "c:\\program files (x86)\\cypress\\psoc creator\\3.2\\psoc creator\\import\\gnu\\arm\\4.8.
 2358              		.file 3 "c:\\program files (x86)\\cypress\\psoc creator\\3.2\\psoc creator\\import\\gnu\\arm\\4.8.
 2359              		.file 4 ".\\src-fsm\\sc_types.h"
 2360              		.file 5 ".\\src-fsm\\Fsm.h"