ARM GAS  C:\Users\SDEVAS~1\AppData\Local\Temp\ccn2niKJ.s 			page 1


   1              		.cpu cortex-m0
   2              		.fpu softvfp
   3              		.eabi_attribute 20, 1
   4              		.eabi_attribute 21, 1
   5              		.eabi_attribute 23, 3
   6              		.eabi_attribute 24, 1
   7              		.eabi_attribute 25, 1
   8              		.eabi_attribute 26, 1
   9              		.eabi_attribute 30, 6
  10              		.eabi_attribute 34, 0
  11              		.eabi_attribute 18, 4
  12              		.code	16
  13              		.file	"main.c"
  14              		.text
  15              	.Ltext0:
  16              		.cfi_sections	.debug_frame
  17              		.global	Flag
  18              		.bss
  19              		.type	Flag, %object
  20              		.size	Flag, 1
  21              	Flag:
  22 0000 00       		.space	1
  23              		.comm	time,5,4
  24              		.global	voltage
  25              		.data
  26              		.align	2
  27              		.type	voltage, %object
  28              		.size	voltage, 4
  29              	voltage:
  30 0000 68100000 		.word	4200
  31              		.global	str_mode
  32              		.align	2
  33              		.type	str_mode, %object
  34              		.size	str_mode, 60
  35              	str_mode:
  36 0004 496E6974 		.ascii	"Init\000"
  36      00
  37 0009 00000000 		.space	10
  37      00000000 
  37      0000
  38 0013 44617900 		.ascii	"Day\000"
  39 0017 00000000 		.space	11
  39      00000000 
  39      000000
  40 0022 4E696768 		.ascii	"Night\000"
  40      7400
  41 0028 00000000 		.space	9
  41      00000000 
  41      00
  42 0031 4C6F7750 		.ascii	"LowPower\000"
  42      6F776572 
  42      00
  43 003a 00000000 		.space	6
  43      0000
  44              		.comm	modelHandle,28,4
  45              		.section	.text.communicationHandler,"ax",%progbits
  46              		.align	2
ARM GAS  C:\Users\SDEVAS~1\AppData\Local\Temp\ccn2niKJ.s 			page 2


  47              		.code	16
  48              		.thumb_func
  49              		.type	communicationHandler, %function
  50              	communicationHandler:
  51              	.LFB33:
  52              		.file 1 ".\\src\\main.c"
   1:.\src/main.c  **** #include <project.h>
   2:.\src/main.c  **** #include "main.h"
   3:.\src/main.c  **** 
   4:.\src/main.c  ****    
   5:.\src/main.c  **** #include "sysTimer.h"
   6:.\src/main.c  **** #include "sleepMgr.h"
   7:.\src/main.c  **** 
   8:.\src/main.c  **** 
   9:.\src/main.c  **** 
  10:.\src/main.c  **** #include "waterControl.h"
  11:.\src/main.c  **** #include "valveControl.h"
  12:.\src/main.c  **** 
  13:.\src/main.c  **** volatile uint8 Flag = 0;
  14:.\src/main.c  **** clock time;
  15:.\src/main.c  **** //int voltage = 0;
  16:.\src/main.c  **** int voltage = 4200;
  17:.\src/main.c  **** 
  18:.\src/main.c  **** char str_mode[4][15]={{"Init"},{"Day"},{"Night"},{"LowPower"}};
  19:.\src/main.c  **** Fsm modelHandle;
  20:.\src/main.c  **** 
  21:.\src/main.c  **** 
  22:.\src/main.c  **** static void communicationHandler(Fsm* handle) {
  53              		.loc 1 22 0
  54              		.cfi_startproc
  55 0000 80B5     		push	{r7, lr}
  56              		.cfi_def_cfa_offset 8
  57              		.cfi_offset 7, -8
  58              		.cfi_offset 14, -4
  59 0002 82B0     		sub	sp, sp, #8
  60              		.cfi_def_cfa_offset 16
  61 0004 00AF     		add	r7, sp, #0
  62              		.cfi_def_cfa_register 7
  63 0006 7860     		str	r0, [r7, #4]
  23:.\src/main.c  **** 	comm_Handler();
  64              		.loc 1 23 0
  65 0008 FFF7FEFF 		bl	comm_Handler
  24:.\src/main.c  **** }
  66              		.loc 1 24 0
  67 000c BD46     		mov	sp, r7
  68 000e 02B0     		add	sp, sp, #8
  69              		@ sp needed
  70 0010 80BD     		pop	{r7, pc}
  71              		.cfi_endproc
  72              	.LFE33:
  73              		.size	communicationHandler, .-communicationHandler
  74 0012 C046     		.section	.text.setvar_updateRate,"ax",%progbits
  75              		.align	2
  76              		.global	setvar_updateRate
  77              		.code	16
  78              		.thumb_func
  79              		.type	setvar_updateRate, %function
ARM GAS  C:\Users\SDEVAS~1\AppData\Local\Temp\ccn2niKJ.s 			page 3


  80              	setvar_updateRate:
  81              	.LFB34:
  25:.\src/main.c  **** 
  26:.\src/main.c  **** 
  27:.\src/main.c  **** void setvar_updateRate(int val) {
  82              		.loc 1 27 0
  83              		.cfi_startproc
  84 0000 80B5     		push	{r7, lr}
  85              		.cfi_def_cfa_offset 8
  86              		.cfi_offset 7, -8
  87              		.cfi_offset 14, -4
  88 0002 82B0     		sub	sp, sp, #8
  89              		.cfi_def_cfa_offset 16
  90 0004 00AF     		add	r7, sp, #0
  91              		.cfi_def_cfa_register 7
  92 0006 7860     		str	r0, [r7, #4]
  28:.\src/main.c  **** 
  29:.\src/main.c  **** }
  93              		.loc 1 29 0
  94 0008 BD46     		mov	sp, r7
  95 000a 02B0     		add	sp, sp, #8
  96              		@ sp needed
  97 000c 80BD     		pop	{r7, pc}
  98              		.cfi_endproc
  99              	.LFE34:
 100              		.size	setvar_updateRate, .-setvar_updateRate
 101 000e C046     		.section	.text.setvar_test,"ax",%progbits
 102              		.align	2
 103              		.global	setvar_test
 104              		.code	16
 105              		.thumb_func
 106              		.type	setvar_test, %function
 107              	setvar_test:
 108              	.LFB35:
  30:.\src/main.c  **** 
  31:.\src/main.c  **** 
  32:.\src/main.c  **** void setvar_test(char * val) {
 109              		.loc 1 32 0
 110              		.cfi_startproc
 111 0000 80B5     		push	{r7, lr}
 112              		.cfi_def_cfa_offset 8
 113              		.cfi_offset 7, -8
 114              		.cfi_offset 14, -4
 115 0002 82B0     		sub	sp, sp, #8
 116              		.cfi_def_cfa_offset 16
 117 0004 00AF     		add	r7, sp, #0
 118              		.cfi_def_cfa_register 7
 119 0006 7860     		str	r0, [r7, #4]
  33:.\src/main.c  ****   LED_Write(*val-0x30);
 120              		.loc 1 33 0
 121 0008 7B68     		ldr	r3, [r7, #4]
 122 000a 1B78     		ldrb	r3, [r3]
 123 000c 303B     		sub	r3, r3, #48
 124 000e DBB2     		uxtb	r3, r3
 125 0010 181C     		mov	r0, r3
 126 0012 FFF7FEFF 		bl	LED_Write
  34:.\src/main.c  **** }
ARM GAS  C:\Users\SDEVAS~1\AppData\Local\Temp\ccn2niKJ.s 			page 4


 127              		.loc 1 34 0
 128 0016 BD46     		mov	sp, r7
 129 0018 02B0     		add	sp, sp, #8
 130              		@ sp needed
 131 001a 80BD     		pop	{r7, pc}
 132              		.cfi_endproc
 133              	.LFE35:
 134              		.size	setvar_test, .-setvar_test
 135              		.section	.rodata
 136              		.align	2
 137              	.LC0:
 138 0000 3000     		.ascii	"0\000"
 139 0002 0000     		.align	2
 140              	.LC2:
 141 0004 3100     		.ascii	"1\000"
 142              		.section	.text.getvar_test,"ax",%progbits
 143              		.align	2
 144              		.global	getvar_test
 145              		.code	16
 146              		.thumb_func
 147              		.type	getvar_test, %function
 148              	getvar_test:
 149              	.LFB36:
  35:.\src/main.c  **** char * getvar_test(void) {
 150              		.loc 1 35 0
 151              		.cfi_startproc
 152 0000 80B5     		push	{r7, lr}
 153              		.cfi_def_cfa_offset 8
 154              		.cfi_offset 7, -8
 155              		.cfi_offset 14, -4
 156 0002 00AF     		add	r7, sp, #0
 157              		.cfi_def_cfa_register 7
  36:.\src/main.c  ****     return LED_Read() ? "0" : "1";
 158              		.loc 1 36 0
 159 0004 FFF7FEFF 		bl	LED_Read
 160 0008 031C     		mov	r3, r0
 161 000a 002B     		cmp	r3, #0
 162 000c 01D0     		beq	.L5
 163              		.loc 1 36 0 is_stmt 0 discriminator 1
 164 000e 034B     		ldr	r3, .L8
 165 0010 00E0     		b	.L6
 166              	.L5:
 167              		.loc 1 36 0 discriminator 2
 168 0012 034B     		ldr	r3, .L8+4
 169              	.L6:
  37:.\src/main.c  **** }
 170              		.loc 1 37 0 is_stmt 1 discriminator 3
 171 0014 181C     		mov	r0, r3
 172 0016 BD46     		mov	sp, r7
 173              		@ sp needed
 174 0018 80BD     		pop	{r7, pc}
 175              	.L9:
 176 001a C046     		.align	2
 177              	.L8:
 178 001c 00000000 		.word	.LC0
 179 0020 04000000 		.word	.LC2
 180              		.cfi_endproc
ARM GAS  C:\Users\SDEVAS~1\AppData\Local\Temp\ccn2niKJ.s 			page 5


 181              	.LFE36:
 182              		.size	getvar_test, .-getvar_test
 183              		.section	.text.getvar_sleepPeriod,"ax",%progbits
 184              		.align	2
 185              		.global	getvar_sleepPeriod
 186              		.code	16
 187              		.thumb_func
 188              		.type	getvar_sleepPeriod, %function
 189              	getvar_sleepPeriod:
 190              	.LFB37:
  38:.\src/main.c  **** 
  39:.\src/main.c  **** int getvar_sleepPeriod(void) {
 191              		.loc 1 39 0
 192              		.cfi_startproc
 193 0000 80B5     		push	{r7, lr}
 194              		.cfi_def_cfa_offset 8
 195              		.cfi_offset 7, -8
 196              		.cfi_offset 14, -4
 197 0002 00AF     		add	r7, sp, #0
 198              		.cfi_def_cfa_register 7
  40:.\src/main.c  **** 	return CySysWdtReadMatch(CY_SYS_WDT_COUNTER1);
 199              		.loc 1 40 0
 200 0004 0120     		mov	r0, #1
 201 0006 FFF7FEFF 		bl	CySysWdtGetMatch
 202 000a 031C     		mov	r3, r0
  41:.\src/main.c  **** }
 203              		.loc 1 41 0
 204 000c 181C     		mov	r0, r3
 205 000e BD46     		mov	sp, r7
 206              		@ sp needed
 207 0010 80BD     		pop	{r7, pc}
 208              		.cfi_endproc
 209              	.LFE37:
 210              		.size	getvar_sleepPeriod, .-getvar_sleepPeriod
 211 0012 C046     		.section	.text.setvar_sleepPeriod,"ax",%progbits
 212              		.align	2
 213              		.global	setvar_sleepPeriod
 214              		.code	16
 215              		.thumb_func
 216              		.type	setvar_sleepPeriod, %function
 217              	setvar_sleepPeriod:
 218              	.LFB38:
  42:.\src/main.c  **** void setvar_sleepPeriod(int val) {
 219              		.loc 1 42 0
 220              		.cfi_startproc
 221 0000 80B5     		push	{r7, lr}
 222              		.cfi_def_cfa_offset 8
 223              		.cfi_offset 7, -8
 224              		.cfi_offset 14, -4
 225 0002 82B0     		sub	sp, sp, #8
 226              		.cfi_def_cfa_offset 16
 227 0004 00AF     		add	r7, sp, #0
 228              		.cfi_def_cfa_register 7
 229 0006 7860     		str	r0, [r7, #4]
  43:.\src/main.c  **** 	CySysWdtDisable(CY_SYS_WDT_COUNTER0_MASK|CY_SYS_WDT_COUNTER1_MASK);
 230              		.loc 1 43 0
 231 0008 0223     		mov	r3, #2
ARM GAS  C:\Users\SDEVAS~1\AppData\Local\Temp\ccn2niKJ.s 			page 6


 232 000a FF33     		add	r3, r3, #255
 233 000c 181C     		mov	r0, r3
 234 000e FFF7FEFF 		bl	CySysWdtDisable
  44:.\src/main.c  **** 	CySysWdtResetCounters(CY_SYS_WDT_COUNTER0_MASK|CY_SYS_WDT_COUNTER1_MASK);
 235              		.loc 1 44 0
 236 0012 0223     		mov	r3, #2
 237 0014 FF33     		add	r3, r3, #255
 238 0016 181C     		mov	r0, r3
 239 0018 FFF7FEFF 		bl	CySysWdtResetCounters
  45:.\src/main.c  **** 	CySysWdtWriteMatch(CY_SYS_WDT_COUNTER1, val);
 240              		.loc 1 45 0
 241 001c 7B68     		ldr	r3, [r7, #4]
 242 001e 0120     		mov	r0, #1
 243 0020 191C     		mov	r1, r3
 244 0022 FFF7FEFF 		bl	CySysWdtSetMatch
  46:.\src/main.c  **** 	CySysWdtEnable(CY_SYS_WDT_COUNTER0_MASK|CY_SYS_WDT_COUNTER1_MASK);
 245              		.loc 1 46 0
 246 0026 0223     		mov	r3, #2
 247 0028 FF33     		add	r3, r3, #255
 248 002a 181C     		mov	r0, r3
 249 002c FFF7FEFF 		bl	CySysWdtEnable
  47:.\src/main.c  **** }
 250              		.loc 1 47 0
 251 0030 BD46     		mov	sp, r7
 252 0032 02B0     		add	sp, sp, #8
 253              		@ sp needed
 254 0034 80BD     		pop	{r7, pc}
 255              		.cfi_endproc
 256              	.LFE38:
 257              		.size	setvar_sleepPeriod, .-setvar_sleepPeriod
 258 0036 C046     		.section	.text.getvar_shutdownTime,"ax",%progbits
 259              		.align	2
 260              		.global	getvar_shutdownTime
 261              		.code	16
 262              		.thumb_func
 263              		.type	getvar_shutdownTime, %function
 264              	getvar_shutdownTime:
 265              	.LFB39:
  48:.\src/main.c  **** 
  49:.\src/main.c  **** int getvar_shutdownTime(void) {
 266              		.loc 1 49 0
 267              		.cfi_startproc
 268 0000 80B5     		push	{r7, lr}
 269              		.cfi_def_cfa_offset 8
 270              		.cfi_offset 7, -8
 271              		.cfi_offset 14, -4
 272 0002 00AF     		add	r7, sp, #0
 273              		.cfi_def_cfa_register 7
  50:.\src/main.c  **** 	return 1;
 274              		.loc 1 50 0
 275 0004 0123     		mov	r3, #1
  51:.\src/main.c  **** }
 276              		.loc 1 51 0
 277 0006 181C     		mov	r0, r3
 278 0008 BD46     		mov	sp, r7
 279              		@ sp needed
 280 000a 80BD     		pop	{r7, pc}
ARM GAS  C:\Users\SDEVAS~1\AppData\Local\Temp\ccn2niKJ.s 			page 7


 281              		.cfi_endproc
 282              	.LFE39:
 283              		.size	getvar_shutdownTime, .-getvar_shutdownTime
 284              		.section	.text.setvar_shutdownTime,"ax",%progbits
 285              		.align	2
 286              		.global	setvar_shutdownTime
 287              		.code	16
 288              		.thumb_func
 289              		.type	setvar_shutdownTime, %function
 290              	setvar_shutdownTime:
 291              	.LFB40:
  52:.\src/main.c  **** void setvar_shutdownTime(int val) {}
 292              		.loc 1 52 0
 293              		.cfi_startproc
 294 0000 80B5     		push	{r7, lr}
 295              		.cfi_def_cfa_offset 8
 296              		.cfi_offset 7, -8
 297              		.cfi_offset 14, -4
 298 0002 82B0     		sub	sp, sp, #8
 299              		.cfi_def_cfa_offset 16
 300 0004 00AF     		add	r7, sp, #0
 301              		.cfi_def_cfa_register 7
 302 0006 7860     		str	r0, [r7, #4]
 303              		.loc 1 52 0
 304 0008 BD46     		mov	sp, r7
 305 000a 02B0     		add	sp, sp, #8
 306              		@ sp needed
 307 000c 80BD     		pop	{r7, pc}
 308              		.cfi_endproc
 309              	.LFE40:
 310              		.size	setvar_shutdownTime, .-setvar_shutdownTime
 311 000e C046     		.section	.text.comm_ModeChange,"ax",%progbits
 312              		.align	2
 313              		.global	comm_ModeChange
 314              		.code	16
 315              		.thumb_func
 316              		.type	comm_ModeChange, %function
 317              	comm_ModeChange:
 318              	.LFB41:
  53:.\src/main.c  **** 
  54:.\src/main.c  **** 
  55:.\src/main.c  **** 
  56:.\src/main.c  **** void comm_ModeChange(atom_modes_t mode) {
 319              		.loc 1 56 0
 320              		.cfi_startproc
 321 0000 80B5     		push	{r7, lr}
 322              		.cfi_def_cfa_offset 8
 323              		.cfi_offset 7, -8
 324              		.cfi_offset 14, -4
 325 0002 82B0     		sub	sp, sp, #8
 326              		.cfi_def_cfa_offset 16
 327 0004 00AF     		add	r7, sp, #0
 328              		.cfi_def_cfa_register 7
 329 0006 021C     		mov	r2, r0
 330 0008 FB1D     		add	r3, r7, #7
 331 000a 1A70     		strb	r2, [r3]
  57:.\src/main.c  **** 	switch(mode) {
ARM GAS  C:\Users\SDEVAS~1\AppData\Local\Temp\ccn2niKJ.s 			page 8


 332              		.loc 1 57 0
 333 000c FB1D     		add	r3, r7, #7
 334 000e 1B78     		ldrb	r3, [r3]
 335 0010 012B     		cmp	r3, #1
 336 0012 12D0     		beq	.L18
 337 0014 02DC     		bgt	.L19
 338 0016 002B     		cmp	r3, #0
 339 0018 0AD0     		beq	.L20
  58:.\src/main.c  **** 	case ATOM_MODE_Idle: 	fsmIfacePlatform_raise_idle(&modelHandle); break;
  59:.\src/main.c  **** 	case ATOM_MODE_Start: 	fsmIfacePlatform_raise_start(&modelHandle); break;
  60:.\src/main.c  **** 	case ATOM_MODE_Test: 	fsmIfacePlatform_raise_test(&modelHandle); break;
  61:.\src/main.c  **** 	case ATOM_MODE_Shutdown: /*TODO do something here!*/ break;
  62:.\src/main.c  **** 	default: break;
 340              		.loc 1 62 0
 341 001a 14E0     		b	.L16
 342              	.L19:
  57:.\src/main.c  **** 	switch(mode) {
 343              		.loc 1 57 0
 344 001c 022B     		cmp	r3, #2
 345 001e 02D0     		beq	.L21
 346 0020 032B     		cmp	r3, #3
 347 0022 0FD0     		beq	.L24
 348              		.loc 1 62 0
 349 0024 0FE0     		b	.L16
 350              	.L21:
  58:.\src/main.c  **** 	case ATOM_MODE_Idle: 	fsmIfacePlatform_raise_idle(&modelHandle); break;
 351              		.loc 1 58 0
 352 0026 094B     		ldr	r3, .L25
 353 0028 181C     		mov	r0, r3
 354 002a FFF7FEFF 		bl	fsmIfacePlatform_raise_idle
 355 002e 0AE0     		b	.L16
 356              	.L20:
  59:.\src/main.c  **** 	case ATOM_MODE_Start: 	fsmIfacePlatform_raise_start(&modelHandle); break;
 357              		.loc 1 59 0
 358 0030 064B     		ldr	r3, .L25
 359 0032 181C     		mov	r0, r3
 360 0034 FFF7FEFF 		bl	fsmIfacePlatform_raise_start
 361 0038 05E0     		b	.L16
 362              	.L18:
  60:.\src/main.c  **** 	case ATOM_MODE_Test: 	fsmIfacePlatform_raise_test(&modelHandle); break;
 363              		.loc 1 60 0
 364 003a 044B     		ldr	r3, .L25
 365 003c 181C     		mov	r0, r3
 366 003e FFF7FEFF 		bl	fsmIfacePlatform_raise_test
 367 0042 00E0     		b	.L16
 368              	.L24:
  61:.\src/main.c  **** 	case ATOM_MODE_Shutdown: /*TODO do something here!*/ break;
 369              		.loc 1 61 0
 370 0044 C046     		mov	r8, r8
 371              	.L16:
  63:.\src/main.c  **** 	}
  64:.\src/main.c  **** }
 372              		.loc 1 64 0
 373 0046 BD46     		mov	sp, r7
 374 0048 02B0     		add	sp, sp, #8
 375              		@ sp needed
 376 004a 80BD     		pop	{r7, pc}
ARM GAS  C:\Users\SDEVAS~1\AppData\Local\Temp\ccn2niKJ.s 			page 9


 377              	.L26:
 378              		.align	2
 379              	.L25:
 380 004c 00000000 		.word	modelHandle
 381              		.cfi_endproc
 382              	.LFE41:
 383              		.size	comm_ModeChange, .-comm_ModeChange
 384              		.section	.text.getTime,"ax",%progbits
 385              		.align	2
 386              		.global	getTime
 387              		.code	16
 388              		.thumb_func
 389              		.type	getTime, %function
 390              	getTime:
 391              	.LFB42:
  65:.\src/main.c  **** 
  66:.\src/main.c  **** /*****************************************************************************************
  67:.\src/main.c  **** * PLATFORM FUNCTIONS
  68:.\src/main.c  **** *****************************************************************************************/
  69:.\src/main.c  **** clock getTime(){
 392              		.loc 1 69 0
 393              		.cfi_startproc
 394 0000 80B5     		push	{r7, lr}
 395              		.cfi_def_cfa_offset 8
 396              		.cfi_offset 7, -8
 397              		.cfi_offset 14, -4
 398 0002 82B0     		sub	sp, sp, #8
 399              		.cfi_def_cfa_offset 16
 400 0004 00AF     		add	r7, sp, #0
 401              		.cfi_def_cfa_register 7
 402 0006 7860     		str	r0, [r7, #4]
  70:.\src/main.c  ****     return time;
 403              		.loc 1 70 0
 404 0008 7A68     		ldr	r2, [r7, #4]
 405 000a 064B     		ldr	r3, .L29
 406 000c 111C     		mov	r1, r2
 407 000e 1A1C     		mov	r2, r3
 408 0010 0523     		mov	r3, #5
 409 0012 081C     		mov	r0, r1
 410 0014 111C     		mov	r1, r2
 411 0016 1A1C     		mov	r2, r3
 412 0018 FFF7FEFF 		bl	memcpy
  71:.\src/main.c  **** }
 413              		.loc 1 71 0
 414 001c 7868     		ldr	r0, [r7, #4]
 415 001e BD46     		mov	sp, r7
 416 0020 02B0     		add	sp, sp, #8
 417              		@ sp needed
 418 0022 80BD     		pop	{r7, pc}
 419              	.L30:
 420              		.align	2
 421              	.L29:
 422 0024 00000000 		.word	time
 423              		.cfi_endproc
 424              	.LFE42:
 425              		.size	getTime, .-getTime
 426              		.section	.text.WDT_ISR_Handler,"ax",%progbits
ARM GAS  C:\Users\SDEVAS~1\AppData\Local\Temp\ccn2niKJ.s 			page 10


 427              		.align	2
 428              		.global	WDT_ISR_Handler
 429              		.code	16
 430              		.thumb_func
 431              		.type	WDT_ISR_Handler, %function
 432              	WDT_ISR_Handler:
 433              	.LFB43:
  72:.\src/main.c  **** 
  73:.\src/main.c  **** CY_ISR(WDT_ISR_Handler){
 434              		.loc 1 73 0
 435              		.cfi_startproc
 436 0000 80B5     		push	{r7, lr}
 437              		.cfi_def_cfa_offset 8
 438              		.cfi_offset 7, -8
 439              		.cfi_offset 14, -4
 440 0002 00AF     		add	r7, sp, #0
 441              		.cfi_def_cfa_register 7
  74:.\src/main.c  **** 	/* Clear the WDT interrupt */
  75:.\src/main.c  ****     CySysWdtClearInterrupt(CY_SYS_WDT_COUNTER1_INT|CY_SYS_WDT_COUNTER0_INT);
 442              		.loc 1 75 0
 443 0004 084B     		ldr	r3, .L32
 444 0006 181C     		mov	r0, r3
 445 0008 FFF7FEFF 		bl	CySysWdtClearInterrupt
  76:.\src/main.c  **** 
  77:.\src/main.c  ****     fsmIfacePlatform_raise_timer(&modelHandle);
 446              		.loc 1 77 0
 447 000c 074B     		ldr	r3, .L32+4
 448 000e 181C     		mov	r0, r3
 449 0010 FFF7FEFF 		bl	fsmIfacePlatform_raise_timer
  78:.\src/main.c  ****     Flag = Flag|DEEP_SLEEP_FLAG; //??
 450              		.loc 1 78 0
 451 0014 064B     		ldr	r3, .L32+8
 452 0016 1B78     		ldrb	r3, [r3]
 453 0018 DBB2     		uxtb	r3, r3
 454 001a 0322     		mov	r2, #3
 455 001c 1343     		orr	r3, r2
 456 001e DAB2     		uxtb	r2, r3
 457 0020 034B     		ldr	r3, .L32+8
 458 0022 1A70     		strb	r2, [r3]
  79:.\src/main.c  **** }
 459              		.loc 1 79 0
 460 0024 BD46     		mov	sp, r7
 461              		@ sp needed
 462 0026 80BD     		pop	{r7, pc}
 463              	.L33:
 464              		.align	2
 465              	.L32:
 466 0028 04040000 		.word	1028
 467 002c 00000000 		.word	modelHandle
 468 0030 00000000 		.word	Flag
 469              		.cfi_endproc
 470              	.LFE43:
 471              		.size	WDT_ISR_Handler, .-WDT_ISR_Handler
 472              		.section	.text.preset,"ax",%progbits
 473              		.align	2
 474              		.global	preset
 475              		.code	16
ARM GAS  C:\Users\SDEVAS~1\AppData\Local\Temp\ccn2niKJ.s 			page 11


 476              		.thumb_func
 477              		.type	preset, %function
 478              	preset:
 479              	.LFB44:
  80:.\src/main.c  **** void preset(void){
 480              		.loc 1 80 0
 481              		.cfi_startproc
 482 0000 80B5     		push	{r7, lr}
 483              		.cfi_def_cfa_offset 8
 484              		.cfi_offset 7, -8
 485              		.cfi_offset 14, -4
 486 0002 00AF     		add	r7, sp, #0
 487              		.cfi_def_cfa_register 7
  81:.\src/main.c  ****    	time.secs = 00;
 488              		.loc 1 81 0
 489 0004 0C4B     		ldr	r3, .L35
 490 0006 0022     		mov	r2, #0
 491 0008 1A70     		strb	r2, [r3]
  82:.\src/main.c  ****    	time.mins = 43;
 492              		.loc 1 82 0
 493 000a 0B4B     		ldr	r3, .L35
 494 000c 2B22     		mov	r2, #43
 495 000e 5A70     		strb	r2, [r3, #1]
  83:.\src/main.c  ****    	time.hours = 10;
 496              		.loc 1 83 0
 497 0010 094B     		ldr	r3, .L35
 498 0012 0A22     		mov	r2, #10
 499 0014 9A70     		strb	r2, [r3, #2]
  84:.\src/main.c  ****    	time.mode = DAY;
 500              		.loc 1 84 0
 501 0016 084B     		ldr	r3, .L35
 502 0018 0122     		mov	r2, #1
 503 001a DA70     		strb	r2, [r3, #3]
  85:.\src/main.c  ****    	time.omode = time.mode;
 504              		.loc 1 85 0
 505 001c 064B     		ldr	r3, .L35
 506 001e DA78     		ldrb	r2, [r3, #3]
 507 0020 054B     		ldr	r3, .L35
 508 0022 1A71     		strb	r2, [r3, #4]
  86:.\src/main.c  ****    	Flag = Flag|POR_FLAG;
 509              		.loc 1 86 0
 510 0024 054B     		ldr	r3, .L35+4
 511 0026 1B78     		ldrb	r3, [r3]
 512 0028 DBB2     		uxtb	r3, r3
 513 002a 0122     		mov	r2, #1
 514 002c 1343     		orr	r3, r2
 515 002e DAB2     		uxtb	r2, r3
 516 0030 024B     		ldr	r3, .L35+4
 517 0032 1A70     		strb	r2, [r3]
  87:.\src/main.c  **** }
 518              		.loc 1 87 0
 519 0034 BD46     		mov	sp, r7
 520              		@ sp needed
 521 0036 80BD     		pop	{r7, pc}
 522              	.L36:
 523              		.align	2
 524              	.L35:
ARM GAS  C:\Users\SDEVAS~1\AppData\Local\Temp\ccn2niKJ.s 			page 12


 525 0038 00000000 		.word	time
 526 003c 00000000 		.word	Flag
 527              		.cfi_endproc
 528              	.LFE44:
 529              		.size	preset, .-preset
 530              		.section	.text.init,"ax",%progbits
 531              		.align	2
 532              		.global	init
 533              		.code	16
 534              		.thumb_func
 535              		.type	init, %function
 536              	init:
 537              	.LFB45:
  88:.\src/main.c  **** void init(void){
 538              		.loc 1 88 0
 539              		.cfi_startproc
 540 0000 80B5     		push	{r7, lr}
 541              		.cfi_def_cfa_offset 8
 542              		.cfi_offset 7, -8
 543              		.cfi_offset 14, -4
 544 0002 00AF     		add	r7, sp, #0
 545              		.cfi_def_cfa_register 7
  89:.\src/main.c  **** 	Flag = Flag & WAKE_MASK;
 546              		.loc 1 89 0
 547 0004 124B     		ldr	r3, .L38
 548 0006 1B78     		ldrb	r3, [r3]
 549 0008 DBB2     		uxtb	r3, r3
 550 000a 0322     		mov	r2, #3
 551 000c 9343     		bic	r3, r2
 552 000e DAB2     		uxtb	r2, r3
 553 0010 0F4B     		ldr	r3, .L38
 554 0012 1A70     		strb	r2, [r3]
  90:.\src/main.c  **** 
  91:.\src/main.c  **** 
  92:.\src/main.c  ****     //UART Initialization
  93:.\src/main.c  ****     UART_Init();
 555              		.loc 1 93 0
 556 0014 FFF7FEFF 		bl	UART_Init
  94:.\src/main.c  ****     UART_Enable();
 557              		.loc 1 94 0
 558 0018 FFF7FEFF 		bl	UART_Enable
  95:.\src/main.c  ****     UART_Start();
 559              		.loc 1 95 0
 560 001c FFF7FEFF 		bl	UART_Start
  96:.\src/main.c  **** 
  97:.\src/main.c  **** 
  98:.\src/main.c  ****     //Communication Initialization
  99:.\src/main.c  ****     comm_Init();
 561              		.loc 1 99 0
 562 0020 FFF7FEFF 		bl	comm_Init
 100:.\src/main.c  **** 
 101:.\src/main.c  ****     SysTimer_Init();
 563              		.loc 1 101 0
 564 0024 FFF7FEFF 		bl	SysTimer_Init
 102:.\src/main.c  ****       
 103:.\src/main.c  ****     /*Watchdog timer initilization*/
 104:.\src/main.c  ****     SetUpWDT(INIT);
ARM GAS  C:\Users\SDEVAS~1\AppData\Local\Temp\ccn2niKJ.s 			page 13


 565              		.loc 1 104 0
 566 0028 0020     		mov	r0, #0
 567 002a FFF7FEFF 		bl	SetUpWDT
 105:.\src/main.c  ****     CySysWdtDisable(CY_SYS_WDT_COUNTER0_MASK|CY_SYS_WDT_COUNTER1_MASK);
 568              		.loc 1 105 0
 569 002e 0223     		mov	r3, #2
 570 0030 FF33     		add	r3, r3, #255
 571 0032 181C     		mov	r0, r3
 572 0034 FFF7FEFF 		bl	CySysWdtDisable
 106:.\src/main.c  ****     isr_WDT_StartEx(WDT_ISR_Handler);
 573              		.loc 1 106 0
 574 0038 064B     		ldr	r3, .L38+4
 575 003a 181C     		mov	r0, r3
 576 003c FFF7FEFF 		bl	isr_WDT_StartEx
 107:.\src/main.c  **** 	CySysWdtEnable(CY_SYS_WDT_COUNTER0_MASK|CY_SYS_WDT_COUNTER1_MASK);
 577              		.loc 1 107 0
 578 0040 0223     		mov	r3, #2
 579 0042 FF33     		add	r3, r3, #255
 580 0044 181C     		mov	r0, r3
 581 0046 FFF7FEFF 		bl	CySysWdtEnable
 108:.\src/main.c  ****     CyGlobalIntEnable;
 582              		.loc 1 108 0
 583              	@ 108 ".\src\main.c" 1
 584 004a 62B6     		CPSIE   i
 585              	@ 0 "" 2
 109:.\src/main.c  **** }
 586              		.loc 1 109 0
 587              		.code	16
 588 004c BD46     		mov	sp, r7
 589              		@ sp needed
 590 004e 80BD     		pop	{r7, pc}
 591              	.L39:
 592              		.align	2
 593              	.L38:
 594 0050 00000000 		.word	Flag
 595 0054 00000000 		.word	WDT_ISR_Handler
 596              		.cfi_endproc
 597              	.LFE45:
 598              		.size	init, .-init
 599              		.section	.text.ResumePeripherals,"ax",%progbits
 600              		.align	2
 601              		.code	16
 602              		.thumb_func
 603              		.type	ResumePeripherals, %function
 604              	ResumePeripherals:
 605              	.LFB46:
 110:.\src/main.c  **** 
 111:.\src/main.c  **** static void ResumePeripherals(void){
 606              		.loc 1 111 0
 607              		.cfi_startproc
 608 0000 80B5     		push	{r7, lr}
 609              		.cfi_def_cfa_offset 8
 610              		.cfi_offset 7, -8
 611              		.cfi_offset 14, -4
 612 0002 00AF     		add	r7, sp, #0
 613              		.cfi_def_cfa_register 7
 112:.\src/main.c  ****     UART_Start();
ARM GAS  C:\Users\SDEVAS~1\AppData\Local\Temp\ccn2niKJ.s 			page 14


 614              		.loc 1 112 0
 615 0004 FFF7FEFF 		bl	UART_Start
 113:.\src/main.c  **** }
 616              		.loc 1 113 0
 617 0008 BD46     		mov	sp, r7
 618              		@ sp needed
 619 000a 80BD     		pop	{r7, pc}
 620              		.cfi_endproc
 621              	.LFE46:
 622              		.size	ResumePeripherals, .-ResumePeripherals
 623              		.section	.text.StorePeripherals,"ax",%progbits
 624              		.align	2
 625              		.code	16
 626              		.thumb_func
 627              		.type	StorePeripherals, %function
 628              	StorePeripherals:
 629              	.LFB47:
 114:.\src/main.c  **** static void StorePeripherals(void){
 630              		.loc 1 114 0
 631              		.cfi_startproc
 632 0000 80B5     		push	{r7, lr}
 633              		.cfi_def_cfa_offset 8
 634              		.cfi_offset 7, -8
 635              		.cfi_offset 14, -4
 636 0002 00AF     		add	r7, sp, #0
 637              		.cfi_def_cfa_register 7
 115:.\src/main.c  ****     UART_Stop();
 638              		.loc 1 115 0
 639 0004 FFF7FEFF 		bl	UART_Stop
 116:.\src/main.c  **** }
 640              		.loc 1 116 0
 641 0008 BD46     		mov	sp, r7
 642              		@ sp needed
 643 000a 80BD     		pop	{r7, pc}
 644              		.cfi_endproc
 645              	.LFE47:
 646              		.size	StorePeripherals, .-StorePeripherals
 647              		.section	.text.CheckTime,"ax",%progbits
 648              		.align	2
 649              		.global	CheckTime
 650              		.code	16
 651              		.thumb_func
 652              		.type	CheckTime, %function
 653              	CheckTime:
 654              	.LFB48:
 117:.\src/main.c  **** 
 118:.\src/main.c  **** 
 119:.\src/main.c  **** void CheckTime(){
 655              		.loc 1 119 0
 656              		.cfi_startproc
 657 0000 80B5     		push	{r7, lr}
 658              		.cfi_def_cfa_offset 8
 659              		.cfi_offset 7, -8
 660              		.cfi_offset 14, -4
 661 0002 00AF     		add	r7, sp, #0
 662              		.cfi_def_cfa_register 7
 120:.\src/main.c  ****     /*Update time*/
ARM GAS  C:\Users\SDEVAS~1\AppData\Local\Temp\ccn2niKJ.s 			page 15


 121:.\src/main.c  ****     if(time.mode == DAY){
 663              		.loc 1 121 0
 664 0004 244B     		ldr	r3, .L49
 665 0006 DB78     		ldrb	r3, [r3, #3]
 666 0008 012B     		cmp	r3, #1
 667 000a 16D1     		bne	.L43
 122:.\src/main.c  **** 		time.secs +=1;
 668              		.loc 1 122 0
 669 000c 224B     		ldr	r3, .L49
 670 000e 1B78     		ldrb	r3, [r3]
 671 0010 0133     		add	r3, r3, #1
 672 0012 DAB2     		uxtb	r2, r3
 673 0014 204B     		ldr	r3, .L49
 674 0016 1A70     		strb	r2, [r3]
 123:.\src/main.c  ****         if(time.secs >= 60){
 675              		.loc 1 123 0
 676 0018 1F4B     		ldr	r3, .L49
 677 001a 1B78     		ldrb	r3, [r3]
 678 001c 3B2B     		cmp	r3, #59
 679 001e 12D9     		bls	.L45
 124:.\src/main.c  **** 			time.mins++;
 680              		.loc 1 124 0
 681 0020 1D4B     		ldr	r3, .L49
 682 0022 5B78     		ldrb	r3, [r3, #1]
 683 0024 0133     		add	r3, r3, #1
 684 0026 DAB2     		uxtb	r2, r3
 685 0028 1B4B     		ldr	r3, .L49
 686 002a 5A70     		strb	r2, [r3, #1]
 125:.\src/main.c  **** 			time.secs -= 60;
 687              		.loc 1 125 0
 688 002c 1A4B     		ldr	r3, .L49
 689 002e 1B78     		ldrb	r3, [r3]
 690 0030 3C3B     		sub	r3, r3, #60
 691 0032 DAB2     		uxtb	r2, r3
 692 0034 184B     		ldr	r3, .L49
 693 0036 1A70     		strb	r2, [r3]
 694 0038 05E0     		b	.L45
 695              	.L43:
 126:.\src/main.c  **** 		}
 127:.\src/main.c  ****     }
 128:.\src/main.c  ****     else{
 129:.\src/main.c  **** 		time.mins++;
 696              		.loc 1 129 0
 697 003a 174B     		ldr	r3, .L49
 698 003c 5B78     		ldrb	r3, [r3, #1]
 699 003e 0133     		add	r3, r3, #1
 700 0040 DAB2     		uxtb	r2, r3
 701 0042 154B     		ldr	r3, .L49
 702 0044 5A70     		strb	r2, [r3, #1]
 703              	.L45:
 130:.\src/main.c  **** 	}
 131:.\src/main.c  ****     if(time.mins >= 60){
 704              		.loc 1 131 0
 705 0046 144B     		ldr	r3, .L49
 706 0048 5B78     		ldrb	r3, [r3, #1]
 707 004a 3B2B     		cmp	r3, #59
 708 004c 12D9     		bls	.L46
ARM GAS  C:\Users\SDEVAS~1\AppData\Local\Temp\ccn2niKJ.s 			page 16


 132:.\src/main.c  ****         time.hours++;
 709              		.loc 1 132 0
 710 004e 124B     		ldr	r3, .L49
 711 0050 9B78     		ldrb	r3, [r3, #2]
 712 0052 0133     		add	r3, r3, #1
 713 0054 DAB2     		uxtb	r2, r3
 714 0056 104B     		ldr	r3, .L49
 715 0058 9A70     		strb	r2, [r3, #2]
 133:.\src/main.c  ****         time.mins -= 60;
 716              		.loc 1 133 0
 717 005a 0F4B     		ldr	r3, .L49
 718 005c 5B78     		ldrb	r3, [r3, #1]
 719 005e 3C3B     		sub	r3, r3, #60
 720 0060 DAB2     		uxtb	r2, r3
 721 0062 0D4B     		ldr	r3, .L49
 722 0064 5A70     		strb	r2, [r3, #1]
 134:.\src/main.c  ****         if(time.hours >= 24){
 723              		.loc 1 134 0
 724 0066 0C4B     		ldr	r3, .L49
 725 0068 9B78     		ldrb	r3, [r3, #2]
 726 006a 172B     		cmp	r3, #23
 727 006c 02D9     		bls	.L46
 135:.\src/main.c  **** 			time.hours = 0; 
 728              		.loc 1 135 0
 729 006e 0A4B     		ldr	r3, .L49
 730 0070 0022     		mov	r2, #0
 731 0072 9A70     		strb	r2, [r3, #2]
 732              	.L46:
 136:.\src/main.c  **** 		}
 137:.\src/main.c  ****     }
 138:.\src/main.c  ****     if(time.hours > 9 && time.hours < 17){
 733              		.loc 1 138 0
 734 0074 084B     		ldr	r3, .L49
 735 0076 9B78     		ldrb	r3, [r3, #2]
 736 0078 092B     		cmp	r3, #9
 737 007a 07D9     		bls	.L47
 738              		.loc 1 138 0 is_stmt 0 discriminator 1
 739 007c 064B     		ldr	r3, .L49
 740 007e 9B78     		ldrb	r3, [r3, #2]
 741 0080 102B     		cmp	r3, #16
 742 0082 03D8     		bhi	.L47
 139:.\src/main.c  **** 		time.mode = DAY;
 743              		.loc 1 139 0 is_stmt 1
 744 0084 044B     		ldr	r3, .L49
 745 0086 0122     		mov	r2, #1
 746 0088 DA70     		strb	r2, [r3, #3]
 747 008a 02E0     		b	.L42
 748              	.L47:
 140:.\src/main.c  **** 	}
 141:.\src/main.c  ****     else{
 142:.\src/main.c  **** 		time.mode = NIGHT;
 749              		.loc 1 142 0
 750 008c 024B     		ldr	r3, .L49
 751 008e 0222     		mov	r2, #2
 752 0090 DA70     		strb	r2, [r3, #3]
 753              	.L42:
 143:.\src/main.c  **** 	}
ARM GAS  C:\Users\SDEVAS~1\AppData\Local\Temp\ccn2niKJ.s 			page 17


 144:.\src/main.c  **** }
 754              		.loc 1 144 0
 755 0092 BD46     		mov	sp, r7
 756              		@ sp needed
 757 0094 80BD     		pop	{r7, pc}
 758              	.L50:
 759 0096 C046     		.align	2
 760              	.L49:
 761 0098 00000000 		.word	time
 762              		.cfi_endproc
 763              	.LFE48:
 764              		.size	CheckTime, .-CheckTime
 765              		.section	.text.check_duty_cycle,"ax",%progbits
 766              		.align	2
 767              		.global	check_duty_cycle
 768              		.code	16
 769              		.thumb_func
 770              		.type	check_duty_cycle, %function
 771              	check_duty_cycle:
 772              	.LFB49:
 145:.\src/main.c  **** void check_duty_cycle(void){
 773              		.loc 1 145 0
 774              		.cfi_startproc
 775 0000 80B5     		push	{r7, lr}
 776              		.cfi_def_cfa_offset 8
 777              		.cfi_offset 7, -8
 778              		.cfi_offset 14, -4
 779 0002 00AF     		add	r7, sp, #0
 780              		.cfi_def_cfa_register 7
 146:.\src/main.c  ****         CheckTime();
 781              		.loc 1 146 0
 782 0004 FFF7FEFF 		bl	CheckTime
 147:.\src/main.c  **** }
 783              		.loc 1 147 0
 784 0008 BD46     		mov	sp, r7
 785              		@ sp needed
 786 000a 80BD     		pop	{r7, pc}
 787              		.cfi_endproc
 788              	.LFE49:
 789              		.size	check_duty_cycle, .-check_duty_cycle
 790              		.section	.text.SetUpWDT,"ax",%progbits
 791              		.align	2
 792              		.global	SetUpWDT
 793              		.code	16
 794              		.thumb_func
 795              		.type	SetUpWDT, %function
 796              	SetUpWDT:
 797              	.LFB50:
 148:.\src/main.c  **** void SetUpWDT(uint8 md){
 798              		.loc 1 148 0
 799              		.cfi_startproc
 800 0000 80B5     		push	{r7, lr}
 801              		.cfi_def_cfa_offset 8
 802              		.cfi_offset 7, -8
 803              		.cfi_offset 14, -4
 804 0002 82B0     		sub	sp, sp, #8
 805              		.cfi_def_cfa_offset 16
ARM GAS  C:\Users\SDEVAS~1\AppData\Local\Temp\ccn2niKJ.s 			page 18


 806 0004 00AF     		add	r7, sp, #0
 807              		.cfi_def_cfa_register 7
 808 0006 021C     		mov	r2, r0
 809 0008 FB1D     		add	r3, r7, #7
 810 000a 1A70     		strb	r2, [r3]
 149:.\src/main.c  ****     CySysWdtDisable(CY_SYS_WDT_COUNTER0_MASK|CY_SYS_WDT_COUNTER1_MASK);
 811              		.loc 1 149 0
 812 000c 0223     		mov	r3, #2
 813 000e FF33     		add	r3, r3, #255
 814 0010 181C     		mov	r0, r3
 815 0012 FFF7FEFF 		bl	CySysWdtDisable
 150:.\src/main.c  ****     switch(md){
 816              		.loc 1 150 0
 817 0016 FB1D     		add	r3, r7, #7
 818 0018 1B78     		ldrb	r3, [r3]
 819 001a 012B     		cmp	r3, #1
 820 001c 25D0     		beq	.L54
 821 001e 02DC     		bgt	.L55
 822 0020 002B     		cmp	r3, #0
 823 0022 05D0     		beq	.L56
 151:.\src/main.c  ****     case INIT:
 152:.\src/main.c  ****         /* Configure for Free Running mode for WDT 0 */
 153:.\src/main.c  ****         CySysWdtWriteMode(CY_SYS_WDT_COUNTER0, CY_SYS_WDT_MODE_NONE);
 154:.\src/main.c  ****         /* Configure for Interrupt mode for WDT 1 */
 155:.\src/main.c  ****         CySysWdtWriteMode(CY_SYS_WDT_COUNTER1, CY_SYS_WDT_MODE_INT);
 156:.\src/main.c  ****         /* Configure for Cascade WDT 0 & 1 */
 157:.\src/main.c  ****         CySysWdtWriteCascade(CY_SYS_WDT_CASCADE_01);
 158:.\src/main.c  ****         /* Let the timers clear when it reaches period */
 159:.\src/main.c  ****         CySysWdtWriteClearOnMatch(CY_SYS_WDT_COUNTER0, 1u);
 160:.\src/main.c  ****         CySysWdtWriteClearOnMatch(CY_SYS_WDT_COUNTER1, 1u);
 161:.\src/main.c  ****         /* Set the period for the WDT0 to 1 second */
 162:.\src/main.c  ****         CySysWdtWriteMatch(CY_SYS_WDT_COUNTER0,WDT_MATCH_VALUE0);
 163:.\src/main.c  ****         CySysWdtWriteMatch(CY_SYS_WDT_COUNTER1, 10);
 164:.\src/main.c  ****         break;
 165:.\src/main.c  ****     /*Set sleep time for modes, add case for new modes*/    
 166:.\src/main.c  ****     case DAY:
 167:.\src/main.c  ****         CySysWdtWriteMatch(CY_SYS_WDT_COUNTER1,WDT_MATCH_VALUE1_DAY);
 168:.\src/main.c  ****         break;
 169:.\src/main.c  ****     case NIGHT:
 170:.\src/main.c  ****         CySysWdtWriteMatch(CY_SYS_WDT_COUNTER1,WDT_MATCH_VALUE1_NIGHT);
 171:.\src/main.c  ****         break;
 172:.\src/main.c  ****     case LOWPWR:
 173:.\src/main.c  ****         CySysWdtWriteMatch(CY_SYS_WDT_COUNTER1,WDT_MATCH_VALUE1_NIGHT);
 174:.\src/main.c  ****         break;
 175:.\src/main.c  ****     default:
 176:.\src/main.c  ****         break;
 824              		.loc 1 176 0
 825 0024 30E0     		b	.L59
 826              	.L55:
 150:.\src/main.c  ****     switch(md){
 827              		.loc 1 150 0
 828 0026 022B     		cmp	r3, #2
 829 0028 24D0     		beq	.L57
 830 002a 032B     		cmp	r3, #3
 831 002c 27D0     		beq	.L58
 832              		.loc 1 176 0
 833 002e 2BE0     		b	.L59
ARM GAS  C:\Users\SDEVAS~1\AppData\Local\Temp\ccn2niKJ.s 			page 19


 834              	.L56:
 153:.\src/main.c  ****         CySysWdtWriteMode(CY_SYS_WDT_COUNTER0, CY_SYS_WDT_MODE_NONE);
 835              		.loc 1 153 0
 836 0030 0020     		mov	r0, #0
 837 0032 0021     		mov	r1, #0
 838 0034 FFF7FEFF 		bl	CySysWdtSetMode
 155:.\src/main.c  ****         CySysWdtWriteMode(CY_SYS_WDT_COUNTER1, CY_SYS_WDT_MODE_INT);
 839              		.loc 1 155 0
 840 0038 0120     		mov	r0, #1
 841 003a 0121     		mov	r1, #1
 842 003c FFF7FEFF 		bl	CySysWdtSetMode
 157:.\src/main.c  ****         CySysWdtWriteCascade(CY_SYS_WDT_CASCADE_01);
 843              		.loc 1 157 0
 844 0040 0820     		mov	r0, #8
 845 0042 FFF7FEFF 		bl	CySysWdtSetCascade
 159:.\src/main.c  ****         CySysWdtWriteClearOnMatch(CY_SYS_WDT_COUNTER0, 1u);
 846              		.loc 1 159 0
 847 0046 0020     		mov	r0, #0
 848 0048 0121     		mov	r1, #1
 849 004a FFF7FEFF 		bl	CySysWdtSetClearOnMatch
 160:.\src/main.c  ****         CySysWdtWriteClearOnMatch(CY_SYS_WDT_COUNTER1, 1u);
 850              		.loc 1 160 0
 851 004e 0120     		mov	r0, #1
 852 0050 0121     		mov	r1, #1
 853 0052 FFF7FEFF 		bl	CySysWdtSetClearOnMatch
 162:.\src/main.c  ****         CySysWdtWriteMatch(CY_SYS_WDT_COUNTER0,WDT_MATCH_VALUE0);
 854              		.loc 1 162 0
 855 0056 104B     		ldr	r3, .L60
 856 0058 0020     		mov	r0, #0
 857 005a 191C     		mov	r1, r3
 858 005c FFF7FEFF 		bl	CySysWdtSetMatch
 163:.\src/main.c  ****         CySysWdtWriteMatch(CY_SYS_WDT_COUNTER1, 10);
 859              		.loc 1 163 0
 860 0060 0120     		mov	r0, #1
 861 0062 0A21     		mov	r1, #10
 862 0064 FFF7FEFF 		bl	CySysWdtSetMatch
 164:.\src/main.c  ****         break;
 863              		.loc 1 164 0
 864 0068 0EE0     		b	.L59
 865              	.L54:
 167:.\src/main.c  ****         CySysWdtWriteMatch(CY_SYS_WDT_COUNTER1,WDT_MATCH_VALUE1_DAY);
 866              		.loc 1 167 0
 867 006a 0120     		mov	r0, #1
 868 006c 0121     		mov	r1, #1
 869 006e FFF7FEFF 		bl	CySysWdtSetMatch
 168:.\src/main.c  ****         break;
 870              		.loc 1 168 0
 871 0072 09E0     		b	.L59
 872              	.L57:
 170:.\src/main.c  ****         CySysWdtWriteMatch(CY_SYS_WDT_COUNTER1,WDT_MATCH_VALUE1_NIGHT);
 873              		.loc 1 170 0
 874 0074 0120     		mov	r0, #1
 875 0076 3C21     		mov	r1, #60
 876 0078 FFF7FEFF 		bl	CySysWdtSetMatch
 171:.\src/main.c  ****         break;
 877              		.loc 1 171 0
 878 007c 04E0     		b	.L59
ARM GAS  C:\Users\SDEVAS~1\AppData\Local\Temp\ccn2niKJ.s 			page 20


 879              	.L58:
 173:.\src/main.c  ****         CySysWdtWriteMatch(CY_SYS_WDT_COUNTER1,WDT_MATCH_VALUE1_NIGHT);
 880              		.loc 1 173 0
 881 007e 0120     		mov	r0, #1
 882 0080 3C21     		mov	r1, #60
 883 0082 FFF7FEFF 		bl	CySysWdtSetMatch
 174:.\src/main.c  ****         break;
 884              		.loc 1 174 0
 885 0086 C046     		mov	r8, r8
 886              	.L59:
 177:.\src/main.c  ****     }
 178:.\src/main.c  ****     CySysWdtEnable(CY_SYS_WDT_COUNTER0_MASK|CY_SYS_WDT_COUNTER1_MASK);
 887              		.loc 1 178 0
 888 0088 0223     		mov	r3, #2
 889 008a FF33     		add	r3, r3, #255
 890 008c 181C     		mov	r0, r3
 891 008e FFF7FEFF 		bl	CySysWdtEnable
 179:.\src/main.c  **** }
 892              		.loc 1 179 0
 893 0092 BD46     		mov	sp, r7
 894 0094 02B0     		add	sp, sp, #8
 895              		@ sp needed
 896 0096 80BD     		pop	{r7, pc}
 897              	.L61:
 898              		.align	2
 899              	.L60:
 900 0098 FF7C0000 		.word	31999
 901              		.cfi_endproc
 902              	.LFE50:
 903              		.size	SetUpWDT, .-SetUpWDT
 904              		.section	.text.fsmIfacePlatform_sleep,"ax",%progbits
 905              		.align	2
 906              		.global	fsmIfacePlatform_sleep
 907              		.code	16
 908              		.thumb_func
 909              		.type	fsmIfacePlatform_sleep, %function
 910              	fsmIfacePlatform_sleep:
 911              	.LFB51:
 180:.\src/main.c  **** 
 181:.\src/main.c  **** /*****************************************************************************************
 182:.\src/main.c  **** * FSM OPERATION FUNCTIONS
 183:.\src/main.c  **** *****************************************************************************************/
 184:.\src/main.c  **** void fsmIfacePlatform_sleep(void){
 912              		.loc 1 184 0
 913              		.cfi_startproc
 914 0000 80B5     		push	{r7, lr}
 915              		.cfi_def_cfa_offset 8
 916              		.cfi_offset 7, -8
 917              		.cfi_offset 14, -4
 918 0002 00AF     		add	r7, sp, #0
 919              		.cfi_def_cfa_register 7
 185:.\src/main.c  **** 	/* 
 186:.\src/main.c  **** 	* This state should decide weather we go on HW sleep or HW DeepSleep and resume accordingly
 187:.\src/main.c  **** 	*/
 188:.\src/main.c  **** 	check_duty_cycle();
 920              		.loc 1 188 0
 921 0004 FFF7FEFF 		bl	check_duty_cycle
ARM GAS  C:\Users\SDEVAS~1\AppData\Local\Temp\ccn2niKJ.s 			page 21


 189:.\src/main.c  **** 	if (time.omode != time.mode){
 922              		.loc 1 189 0
 923 0008 0A4B     		ldr	r3, .L64
 924 000a 1A79     		ldrb	r2, [r3, #4]
 925 000c 094B     		ldr	r3, .L64
 926 000e DB78     		ldrb	r3, [r3, #3]
 927 0010 9A42     		cmp	r2, r3
 928 0012 04D0     		beq	.L63
 190:.\src/main.c  **** 		SetUpWDT(time.mode);
 929              		.loc 1 190 0
 930 0014 074B     		ldr	r3, .L64
 931 0016 DB78     		ldrb	r3, [r3, #3]
 932 0018 181C     		mov	r0, r3
 933 001a FFF7FEFF 		bl	SetUpWDT
 934              	.L63:
 191:.\src/main.c  **** 	}
 192:.\src/main.c  ****     time.omode = time.mode; 
 935              		.loc 1 192 0
 936 001e 054B     		ldr	r3, .L64
 937 0020 DA78     		ldrb	r2, [r3, #3]
 938 0022 044B     		ldr	r3, .L64
 939 0024 1A71     		strb	r2, [r3, #4]
 193:.\src/main.c  ****     StorePeripherals();
 940              		.loc 1 193 0
 941 0026 FFF7FEFF 		bl	StorePeripherals
 194:.\src/main.c  **** 
 195:.\src/main.c  ****     sleepMgr_requestDeepSleep();
 942              		.loc 1 195 0
 943 002a FFF7FEFF 		bl	sleepMgr_requestDeepSleep
 196:.\src/main.c  **** }
 944              		.loc 1 196 0
 945 002e BD46     		mov	sp, r7
 946              		@ sp needed
 947 0030 80BD     		pop	{r7, pc}
 948              	.L65:
 949 0032 C046     		.align	2
 950              	.L64:
 951 0034 00000000 		.word	time
 952              		.cfi_endproc
 953              	.LFE51:
 954              		.size	fsmIfacePlatform_sleep, .-fsmIfacePlatform_sleep
 955              		.section	.text.fsmIfacePlatform_resume,"ax",%progbits
 956              		.align	2
 957              		.global	fsmIfacePlatform_resume
 958              		.code	16
 959              		.thumb_func
 960              		.type	fsmIfacePlatform_resume, %function
 961              	fsmIfacePlatform_resume:
 962              	.LFB52:
 197:.\src/main.c  **** void fsmIfacePlatform_resume(void){
 963              		.loc 1 197 0
 964              		.cfi_startproc
 965 0000 80B5     		push	{r7, lr}
 966              		.cfi_def_cfa_offset 8
 967              		.cfi_offset 7, -8
 968              		.cfi_offset 14, -4
 969 0002 00AF     		add	r7, sp, #0
ARM GAS  C:\Users\SDEVAS~1\AppData\Local\Temp\ccn2niKJ.s 			page 22


 970              		.cfi_def_cfa_register 7
 198:.\src/main.c  **** 	sleepMgr_releaseDeepSleep();
 971              		.loc 1 198 0
 972 0004 FFF7FEFF 		bl	sleepMgr_releaseDeepSleep
 199:.\src/main.c  **** 	/* this function will resume any peripherals */
 200:.\src/main.c  ****     Flag = Flag & WAKE_MASK;
 973              		.loc 1 200 0
 974 0008 054B     		ldr	r3, .L67
 975 000a 1B78     		ldrb	r3, [r3]
 976 000c DBB2     		uxtb	r3, r3
 977 000e 0322     		mov	r2, #3
 978 0010 9343     		bic	r3, r2
 979 0012 DAB2     		uxtb	r2, r3
 980 0014 024B     		ldr	r3, .L67
 981 0016 1A70     		strb	r2, [r3]
 201:.\src/main.c  ****     ResumePeripherals();
 982              		.loc 1 201 0
 983 0018 FFF7FEFF 		bl	ResumePeripherals
 202:.\src/main.c  **** 
 203:.\src/main.c  **** }
 984              		.loc 1 203 0
 985 001c BD46     		mov	sp, r7
 986              		@ sp needed
 987 001e 80BD     		pop	{r7, pc}
 988              	.L68:
 989              		.align	2
 990              	.L67:
 991 0020 00000000 		.word	Flag
 992              		.cfi_endproc
 993              	.LFE52:
 994              		.size	fsmIfacePlatform_resume, .-fsmIfacePlatform_resume
 995              		.section	.rodata
 996 0006 0000     		.align	2
 997              	.LC15:
 998 0008 496E666F 		.ascii	"Info\000"
 998      00
 999 000d 000000   		.section	.text.fsmIfacePlatform_send_msg,"ax",%progbits
 1000              		.align	2
 1001              		.global	fsmIfacePlatform_send_msg
 1002              		.code	16
 1003              		.thumb_func
 1004              		.type	fsmIfacePlatform_send_msg, %function
 1005              	fsmIfacePlatform_send_msg:
 1006              	.LFB53:
 204:.\src/main.c  **** 
 205:.\src/main.c  **** void fsmIfacePlatform_send_msg() {
 1007              		.loc 1 205 0
 1008              		.cfi_startproc
 1009 0000 80B5     		push	{r7, lr}
 1010              		.cfi_def_cfa_offset 8
 1011              		.cfi_offset 7, -8
 1012              		.cfi_offset 14, -4
 1013 0002 00AF     		add	r7, sp, #0
 1014              		.cfi_def_cfa_register 7
 206:.\src/main.c  **** 	comm_ScheduleMessage("Info", 4, 'X', '0');
 1015              		.loc 1 206 0
 1016 0004 044B     		ldr	r3, .L70
ARM GAS  C:\Users\SDEVAS~1\AppData\Local\Temp\ccn2niKJ.s 			page 23


 1017 0006 181C     		mov	r0, r3
 1018 0008 0421     		mov	r1, #4
 1019 000a 5822     		mov	r2, #88
 1020 000c 3023     		mov	r3, #48
 1021 000e FFF7FEFF 		bl	comm_ScheduleMessage
 207:.\src/main.c  **** }
 1022              		.loc 1 207 0
 1023 0012 BD46     		mov	sp, r7
 1024              		@ sp needed
 1025 0014 80BD     		pop	{r7, pc}
 1026              	.L71:
 1027 0016 C046     		.align	2
 1028              	.L70:
 1029 0018 08000000 		.word	.LC15
 1030              		.cfi_endproc
 1031              	.LFE53:
 1032              		.size	fsmIfacePlatform_send_msg, .-fsmIfacePlatform_send_msg
 1033              		.section	.text.main,"ax",%progbits
 1034              		.align	2
 1035              		.global	main
 1036              		.code	16
 1037              		.thumb_func
 1038              		.type	main, %function
 1039              	main:
 1040              	.LFB54:
 208:.\src/main.c  **** 
 209:.\src/main.c  **** /*****************************************************************************************
 210:.\src/main.c  **** * MAIN
 211:.\src/main.c  **** *****************************************************************************************/
 212:.\src/main.c  **** int main(){
 1041              		.loc 1 212 0
 1042              		.cfi_startproc
 1043 0000 80B5     		push	{r7, lr}
 1044              		.cfi_def_cfa_offset 8
 1045              		.cfi_offset 7, -8
 1046              		.cfi_offset 14, -4
 1047 0002 00AF     		add	r7, sp, #0
 1048              		.cfi_def_cfa_register 7
 213:.\src/main.c  **** 	preset();
 1049              		.loc 1 213 0
 1050 0004 FFF7FEFF 		bl	preset
 214:.\src/main.c  **** 	init();
 1051              		.loc 1 214 0
 1052 0008 FFF7FEFF 		bl	init
 215:.\src/main.c  **** 
 216:.\src/main.c  ****     fsm_init(&modelHandle);
 1053              		.loc 1 216 0
 1054 000c 0B4B     		ldr	r3, .L74
 1055 000e 181C     		mov	r0, r3
 1056 0010 FFF7FEFF 		bl	fsm_init
 217:.\src/main.c  ****     fsm_enter(&modelHandle);
 1057              		.loc 1 217 0
 1058 0014 094B     		ldr	r3, .L74
 1059 0016 181C     		mov	r0, r3
 1060 0018 FFF7FEFF 		bl	fsm_enter
 1061              	.L73:
 218:.\src/main.c  **** 
ARM GAS  C:\Users\SDEVAS~1\AppData\Local\Temp\ccn2niKJ.s 			page 24


 219:.\src/main.c  ****     for(;;){
 220:.\src/main.c  ****         SysTimer_FsmHandler(&modelHandle);
 1062              		.loc 1 220 0 discriminator 1
 1063 001c 074B     		ldr	r3, .L74
 1064 001e 181C     		mov	r0, r3
 1065 0020 FFF7FEFF 		bl	SysTimer_FsmHandler
 221:.\src/main.c  ****     	communicationHandler(&modelHandle);
 1066              		.loc 1 221 0 discriminator 1
 1067 0024 054B     		ldr	r3, .L74
 1068 0026 181C     		mov	r0, r3
 1069 0028 FFF7FEFF 		bl	communicationHandler
 222:.\src/main.c  ****         fsm_runCycle(&modelHandle);
 1070              		.loc 1 222 0 discriminator 1
 1071 002c 034B     		ldr	r3, .L74
 1072 002e 181C     		mov	r0, r3
 1073 0030 FFF7FEFF 		bl	fsm_runCycle
 223:.\src/main.c  ****         sleepMgr_sleep();
 1074              		.loc 1 223 0 discriminator 1
 1075 0034 FFF7FEFF 		bl	sleepMgr_sleep
 224:.\src/main.c  ****     }
 1076              		.loc 1 224 0 discriminator 1
 1077 0038 F0E7     		b	.L73
 1078              	.L75:
 1079 003a C046     		.align	2
 1080              	.L74:
 1081 003c 00000000 		.word	modelHandle
 1082              		.cfi_endproc
 1083              	.LFE54:
 1084              		.size	main, .-main
 1085              		.text
 1086              	.Letext0:
 1087              		.file 2 "c:\\program files (x86)\\cypress\\psoc creator\\3.2\\psoc creator\\import\\gnu\\arm\\4.8.
 1088              		.file 3 "c:\\program files (x86)\\cypress\\psoc creator\\3.2\\psoc creator\\import\\gnu\\arm\\4.8.
 1089              		.file 4 "Generated_Source\\PSoC4/cytypes.h"
 1090              		.file 5 "Generated_Source\\PSoC4/comm.h"
 1091              		.file 6 "./src-fsm/sc_types.h"
 1092              		.file 7 "./src-fsm/Fsm.h"
 1093              		.file 8 ".\\src\\main.h"