ARM GAS  C:\Users\SDEVAS~1\AppData\Local\Temp\cc0NCQRn.s 			page 1


   1              		.cpu cortex-m0
   2              		.fpu softvfp
   3              		.eabi_attribute 20, 1
   4              		.eabi_attribute 21, 1
   5              		.eabi_attribute 23, 3
   6              		.eabi_attribute 24, 1
   7              		.eabi_attribute 25, 1
   8              		.eabi_attribute 26, 1
   9              		.eabi_attribute 30, 6
  10              		.eabi_attribute 34, 0
  11              		.eabi_attribute 18, 4
  12              		.code	16
  13              		.file	"valveControl.c"
  14              		.text
  15              	.Ltext0:
  16              		.cfi_sections	.debug_frame
  17              		.section	.text.setValve1ON,"ax",%progbits
  18              		.align	2
  19              		.global	setValve1ON
  20              		.code	16
  21              		.thumb_func
  22              		.type	setValve1ON, %function
  23              	setValve1ON:
  24              	.LFB33:
  25              		.file 1 ".\\src\\valveControl.c"
   1:.\src/valveControl.c **** #include "valveControl.h"
   2:.\src/valveControl.c **** 
   3:.\src/valveControl.c **** 
   4:.\src/valveControl.c **** /*******************************************************************************
   5:.\src/valveControl.c **** * Function Name: setValve1ON
   6:.\src/valveControl.c **** ********************************************************************************
   7:.\src/valveControl.c **** *
   8:.\src/valveControl.c **** * Summary:
   9:.\src/valveControl.c **** *  Turns on valve 1 (connector J9 on Water Control Atom.)
  10:.\src/valveControl.c **** *
  11:.\src/valveControl.c **** * Parameters:
  12:.\src/valveControl.c **** *  direction: The direction in which to turn the valve ON.
  13:.\src/valveControl.c **** *  TRUE		1 to set pin 2 high and pin 1 low
  14:.\src/valveControl.c **** *  FALSE	0 to set pin 1 high and pin 2 low
  15:.\src/valveControl.c **** *
  16:.\src/valveControl.c **** * Return:
  17:.\src/valveControl.c **** *  None.
  18:.\src/valveControl.c **** *
  19:.\src/valveControl.c **** *******************************************************************************/
  20:.\src/valveControl.c **** void setValve1ON(bool direction){
  26              		.loc 1 20 0
  27              		.cfi_startproc
  28 0000 80B5     		push	{r7, lr}
  29              		.cfi_def_cfa_offset 8
  30              		.cfi_offset 7, -8
  31              		.cfi_offset 14, -4
  32 0002 82B0     		sub	sp, sp, #8
  33              		.cfi_def_cfa_offset 16
  34 0004 00AF     		add	r7, sp, #0
  35              		.cfi_def_cfa_register 7
  36 0006 021C     		mov	r2, r0
  37 0008 FB1D     		add	r3, r7, #7
ARM GAS  C:\Users\SDEVAS~1\AppData\Local\Temp\cc0NCQRn.s 			page 2


  38 000a 1A70     		strb	r2, [r3]
  21:.\src/valveControl.c ****     if (direction==true){ //Direction 1
  39              		.loc 1 21 0
  40 000c FB1D     		add	r3, r7, #7
  41 000e 1B78     		ldrb	r3, [r3]
  42 0010 002B     		cmp	r3, #0
  43 0012 06D0     		beq	.L2
  22:.\src/valveControl.c ****          ON1_DIR1_Write(0u);
  44              		.loc 1 22 0
  45 0014 0020     		mov	r0, #0
  46 0016 FFF7FEFF 		bl	ON1_DIR1_Write
  23:.\src/valveControl.c ****          ON2_DIR2_Write(1u);
  47              		.loc 1 23 0
  48 001a 0120     		mov	r0, #1
  49 001c FFF7FEFF 		bl	ON2_DIR2_Write
  50 0020 05E0     		b	.L1
  51              	.L2:
  24:.\src/valveControl.c ****     }
  25:.\src/valveControl.c ****     else{
  26:.\src/valveControl.c ****         ON1_DIR1_Write(1u);
  52              		.loc 1 26 0
  53 0022 0120     		mov	r0, #1
  54 0024 FFF7FEFF 		bl	ON1_DIR1_Write
  27:.\src/valveControl.c ****         ON2_DIR2_Write(0u);
  55              		.loc 1 27 0
  56 0028 0020     		mov	r0, #0
  57 002a FFF7FEFF 		bl	ON2_DIR2_Write
  58              	.L1:
  28:.\src/valveControl.c ****     }
  29:.\src/valveControl.c **** }
  59              		.loc 1 29 0
  60 002e BD46     		mov	sp, r7
  61 0030 02B0     		add	sp, sp, #8
  62              		@ sp needed
  63 0032 80BD     		pop	{r7, pc}
  64              		.cfi_endproc
  65              	.LFE33:
  66              		.size	setValve1ON, .-setValve1ON
  67              		.section	.text.setValve2ON,"ax",%progbits
  68              		.align	2
  69              		.global	setValve2ON
  70              		.code	16
  71              		.thumb_func
  72              		.type	setValve2ON, %function
  73              	setValve2ON:
  74              	.LFB34:
  30:.\src/valveControl.c **** /*******************************************************************************
  31:.\src/valveControl.c **** * Function Name: setValve2ON
  32:.\src/valveControl.c **** ********************************************************************************
  33:.\src/valveControl.c **** *
  34:.\src/valveControl.c **** * Summary:
  35:.\src/valveControl.c **** *  Turns on valve 2 (connector J11 on Water Control Atom.)
  36:.\src/valveControl.c **** *
  37:.\src/valveControl.c **** * Parameters:
  38:.\src/valveControl.c **** *  direction: The direction in which to turn the valve ON.
  39:.\src/valveControl.c **** *  TRUE		1 to set pin 2 high and pin 1 low
  40:.\src/valveControl.c **** *  FALSE	0 to set pin 1 high and pin 2 low
ARM GAS  C:\Users\SDEVAS~1\AppData\Local\Temp\cc0NCQRn.s 			page 3


  41:.\src/valveControl.c **** *
  42:.\src/valveControl.c **** * Return:
  43:.\src/valveControl.c **** *  None.
  44:.\src/valveControl.c **** *
  45:.\src/valveControl.c **** *******************************************************************************/
  46:.\src/valveControl.c **** void setValve2ON(bool direction){
  75              		.loc 1 46 0
  76              		.cfi_startproc
  77 0000 80B5     		push	{r7, lr}
  78              		.cfi_def_cfa_offset 8
  79              		.cfi_offset 7, -8
  80              		.cfi_offset 14, -4
  81 0002 82B0     		sub	sp, sp, #8
  82              		.cfi_def_cfa_offset 16
  83 0004 00AF     		add	r7, sp, #0
  84              		.cfi_def_cfa_register 7
  85 0006 021C     		mov	r2, r0
  86 0008 FB1D     		add	r3, r7, #7
  87 000a 1A70     		strb	r2, [r3]
  47:.\src/valveControl.c ****     if (direction==true){ //Direction 1
  88              		.loc 1 47 0
  89 000c FB1D     		add	r3, r7, #7
  90 000e 1B78     		ldrb	r3, [r3]
  91 0010 002B     		cmp	r3, #0
  92 0012 06D0     		beq	.L5
  48:.\src/valveControl.c ****         ON1_DIR2_Write(0u);
  93              		.loc 1 48 0
  94 0014 0020     		mov	r0, #0
  95 0016 FFF7FEFF 		bl	ON1_DIR2_Write
  49:.\src/valveControl.c ****         ON2_DIR1_Write(1u);
  96              		.loc 1 49 0
  97 001a 0120     		mov	r0, #1
  98 001c FFF7FEFF 		bl	ON2_DIR1_Write
  99 0020 05E0     		b	.L4
 100              	.L5:
  50:.\src/valveControl.c ****     }
  51:.\src/valveControl.c ****     else{
  52:.\src/valveControl.c ****        ON1_DIR2_Write(1u);
 101              		.loc 1 52 0
 102 0022 0120     		mov	r0, #1
 103 0024 FFF7FEFF 		bl	ON1_DIR2_Write
  53:.\src/valveControl.c ****        ON2_DIR1_Write(0u);
 104              		.loc 1 53 0
 105 0028 0020     		mov	r0, #0
 106 002a FFF7FEFF 		bl	ON2_DIR1_Write
 107              	.L4:
  54:.\src/valveControl.c ****     }
  55:.\src/valveControl.c **** }
 108              		.loc 1 55 0
 109 002e BD46     		mov	sp, r7
 110 0030 02B0     		add	sp, sp, #8
 111              		@ sp needed
 112 0032 80BD     		pop	{r7, pc}
 113              		.cfi_endproc
 114              	.LFE34:
 115              		.size	setValve2ON, .-setValve2ON
 116              		.section	.text.setValve3ON,"ax",%progbits
ARM GAS  C:\Users\SDEVAS~1\AppData\Local\Temp\cc0NCQRn.s 			page 4


 117              		.align	2
 118              		.global	setValve3ON
 119              		.code	16
 120              		.thumb_func
 121              		.type	setValve3ON, %function
 122              	setValve3ON:
 123              	.LFB35:
  56:.\src/valveControl.c **** /*******************************************************************************
  57:.\src/valveControl.c **** * Function Name: setValve3ON
  58:.\src/valveControl.c **** ********************************************************************************
  59:.\src/valveControl.c **** *
  60:.\src/valveControl.c **** * Summary:
  61:.\src/valveControl.c **** *  Turns on valve 3 (connector J8 on Water Control Atom.)
  62:.\src/valveControl.c **** *
  63:.\src/valveControl.c **** * Parameters:
  64:.\src/valveControl.c **** *  direction: The direction in which to turn the valve ON.
  65:.\src/valveControl.c **** *  TRUE		1 to set pin 2 high and pin 1 low
  66:.\src/valveControl.c **** *  FALSE	0 to set pin 1 high and pin 2 low
  67:.\src/valveControl.c **** *
  68:.\src/valveControl.c **** * Return:
  69:.\src/valveControl.c **** *  None.
  70:.\src/valveControl.c **** *
  71:.\src/valveControl.c **** *******************************************************************************/
  72:.\src/valveControl.c **** void setValve3ON(bool direction){
 124              		.loc 1 72 0
 125              		.cfi_startproc
 126 0000 80B5     		push	{r7, lr}
 127              		.cfi_def_cfa_offset 8
 128              		.cfi_offset 7, -8
 129              		.cfi_offset 14, -4
 130 0002 82B0     		sub	sp, sp, #8
 131              		.cfi_def_cfa_offset 16
 132 0004 00AF     		add	r7, sp, #0
 133              		.cfi_def_cfa_register 7
 134 0006 021C     		mov	r2, r0
 135 0008 FB1D     		add	r3, r7, #7
 136 000a 1A70     		strb	r2, [r3]
  73:.\src/valveControl.c ****     if (direction==true){ //Direction 1
 137              		.loc 1 73 0
 138 000c FB1D     		add	r3, r7, #7
 139 000e 1B78     		ldrb	r3, [r3]
 140 0010 002B     		cmp	r3, #0
 141 0012 06D0     		beq	.L8
  74:.\src/valveControl.c ****         ON3_DIR1_Write(0u);
 142              		.loc 1 74 0
 143 0014 0020     		mov	r0, #0
 144 0016 FFF7FEFF 		bl	ON3_DIR1_Write
  75:.\src/valveControl.c ****         ON4_DIR2_Write(1u);
 145              		.loc 1 75 0
 146 001a 0120     		mov	r0, #1
 147 001c FFF7FEFF 		bl	ON4_DIR2_Write
 148 0020 05E0     		b	.L7
 149              	.L8:
  76:.\src/valveControl.c ****     }
  77:.\src/valveControl.c ****     else{
  78:.\src/valveControl.c ****         ON3_DIR1_Write(1u);
 150              		.loc 1 78 0
ARM GAS  C:\Users\SDEVAS~1\AppData\Local\Temp\cc0NCQRn.s 			page 5


 151 0022 0120     		mov	r0, #1
 152 0024 FFF7FEFF 		bl	ON3_DIR1_Write
  79:.\src/valveControl.c ****         ON4_DIR2_Write(0u);
 153              		.loc 1 79 0
 154 0028 0020     		mov	r0, #0
 155 002a FFF7FEFF 		bl	ON4_DIR2_Write
 156              	.L7:
  80:.\src/valveControl.c ****     }
  81:.\src/valveControl.c **** }
 157              		.loc 1 81 0
 158 002e BD46     		mov	sp, r7
 159 0030 02B0     		add	sp, sp, #8
 160              		@ sp needed
 161 0032 80BD     		pop	{r7, pc}
 162              		.cfi_endproc
 163              	.LFE35:
 164              		.size	setValve3ON, .-setValve3ON
 165              		.section	.text.setValve4ON,"ax",%progbits
 166              		.align	2
 167              		.global	setValve4ON
 168              		.code	16
 169              		.thumb_func
 170              		.type	setValve4ON, %function
 171              	setValve4ON:
 172              	.LFB36:
  82:.\src/valveControl.c **** /*******************************************************************************
  83:.\src/valveControl.c **** * Function Name: setValve4ON
  84:.\src/valveControl.c **** ********************************************************************************
  85:.\src/valveControl.c **** *
  86:.\src/valveControl.c **** * Summary:
  87:.\src/valveControl.c **** *  Turns on valve 4 (connector J10 on Water Control Atom.)
  88:.\src/valveControl.c **** *
  89:.\src/valveControl.c **** * Parameters:
  90:.\src/valveControl.c **** *  direction: The direction in which to turn the valve ON.
  91:.\src/valveControl.c **** *  TRUE		1 to set pin 2 high and pin 1 low
  92:.\src/valveControl.c **** *  FALSE	0 to set pin 1 high and pin 2 low
  93:.\src/valveControl.c **** *
  94:.\src/valveControl.c **** * Return:
  95:.\src/valveControl.c **** *  None.
  96:.\src/valveControl.c **** *
  97:.\src/valveControl.c **** *******************************************************************************/
  98:.\src/valveControl.c **** void setValve4ON(bool direction){
 173              		.loc 1 98 0
 174              		.cfi_startproc
 175 0000 80B5     		push	{r7, lr}
 176              		.cfi_def_cfa_offset 8
 177              		.cfi_offset 7, -8
 178              		.cfi_offset 14, -4
 179 0002 82B0     		sub	sp, sp, #8
 180              		.cfi_def_cfa_offset 16
 181 0004 00AF     		add	r7, sp, #0
 182              		.cfi_def_cfa_register 7
 183 0006 021C     		mov	r2, r0
 184 0008 FB1D     		add	r3, r7, #7
 185 000a 1A70     		strb	r2, [r3]
  99:.\src/valveControl.c ****     if (direction==true){ //Direction 1
 186              		.loc 1 99 0
ARM GAS  C:\Users\SDEVAS~1\AppData\Local\Temp\cc0NCQRn.s 			page 6


 187 000c FB1D     		add	r3, r7, #7
 188 000e 1B78     		ldrb	r3, [r3]
 189 0010 002B     		cmp	r3, #0
 190 0012 06D0     		beq	.L11
 100:.\src/valveControl.c ****         ON3_DIR2_Write(0u);
 191              		.loc 1 100 0
 192 0014 0020     		mov	r0, #0
 193 0016 FFF7FEFF 		bl	ON3_DIR2_Write
 101:.\src/valveControl.c ****         ON4_DIR1_Write(1u);
 194              		.loc 1 101 0
 195 001a 0120     		mov	r0, #1
 196 001c FFF7FEFF 		bl	ON4_DIR1_Write
 197 0020 05E0     		b	.L10
 198              	.L11:
 102:.\src/valveControl.c ****     }
 103:.\src/valveControl.c ****     else{
 104:.\src/valveControl.c ****         ON3_DIR2_Write(1u);
 199              		.loc 1 104 0
 200 0022 0120     		mov	r0, #1
 201 0024 FFF7FEFF 		bl	ON3_DIR2_Write
 105:.\src/valveControl.c ****         ON4_DIR1_Write(0u);
 202              		.loc 1 105 0
 203 0028 0020     		mov	r0, #0
 204 002a FFF7FEFF 		bl	ON4_DIR1_Write
 205              	.L10:
 106:.\src/valveControl.c ****     }
 107:.\src/valveControl.c **** }
 206              		.loc 1 107 0
 207 002e BD46     		mov	sp, r7
 208 0030 02B0     		add	sp, sp, #8
 209              		@ sp needed
 210 0032 80BD     		pop	{r7, pc}
 211              		.cfi_endproc
 212              	.LFE36:
 213              		.size	setValve4ON, .-setValve4ON
 214              		.section	.text.setValve1OFF,"ax",%progbits
 215              		.align	2
 216              		.global	setValve1OFF
 217              		.code	16
 218              		.thumb_func
 219              		.type	setValve1OFF, %function
 220              	setValve1OFF:
 221              	.LFB37:
 108:.\src/valveControl.c **** /*******************************************************************************
 109:.\src/valveControl.c **** * Function Name: setValve5ON
 110:.\src/valveControl.c **** ********************************************************************************
 111:.\src/valveControl.c **** *
 112:.\src/valveControl.c **** * Summary:
 113:.\src/valveControl.c **** *  Turns on valve 5 (connector J6 on Water Control Atom.)
 114:.\src/valveControl.c **** *
 115:.\src/valveControl.c **** * Parameters:
 116:.\src/valveControl.c **** *  direction: The direction in which to turn the valve ON.
 117:.\src/valveControl.c **** *  TRUE		1 to set pin 2 high and pin 1 low
 118:.\src/valveControl.c **** *  FALSE	0 to set pin 1 high and pin 2 low
 119:.\src/valveControl.c **** *
 120:.\src/valveControl.c **** * Return:
 121:.\src/valveControl.c **** *  None.
ARM GAS  C:\Users\SDEVAS~1\AppData\Local\Temp\cc0NCQRn.s 			page 7


 122:.\src/valveControl.c **** *
 123:.\src/valveControl.c **** *******************************************************************************/
 124:.\src/valveControl.c **** /*void setValve5ON(bool direction){
 125:.\src/valveControl.c ****     if (direction==true){ //Direction 1
 126:.\src/valveControl.c ****         ON5_DIR1_Write(0u);
 127:.\src/valveControl.c ****         ON6_DIR2_Write(1u);
 128:.\src/valveControl.c ****     }
 129:.\src/valveControl.c ****     else{
 130:.\src/valveControl.c ****         ON5_DIR1_Write(1u);
 131:.\src/valveControl.c ****         ON6_DIR2_Write(0u);
 132:.\src/valveControl.c ****     }
 133:.\src/valveControl.c **** }*/
 134:.\src/valveControl.c **** /*******************************************************************************
 135:.\src/valveControl.c **** * Function Name: setValve6ON
 136:.\src/valveControl.c **** ********************************************************************************
 137:.\src/valveControl.c **** *
 138:.\src/valveControl.c **** * Summary:
 139:.\src/valveControl.c **** *  Turns on valve 6 (connector J7 on Water Control Atom.)
 140:.\src/valveControl.c **** *
 141:.\src/valveControl.c **** * Parameters:
 142:.\src/valveControl.c **** *  direction: The direction in which to turn the valve ON.
 143:.\src/valveControl.c **** *  TRUE		1 to set pin 2 high and pin 1 low
 144:.\src/valveControl.c **** *  FALSE	0 to set pin 1 high and pin 2 low
 145:.\src/valveControl.c **** *
 146:.\src/valveControl.c **** * Return:
 147:.\src/valveControl.c **** *  None.
 148:.\src/valveControl.c **** *
 149:.\src/valveControl.c **** *******************************************************************************/
 150:.\src/valveControl.c **** /*void setValve6ON(bool direction){
 151:.\src/valveControl.c ****     if (direction==true){ //Direction 1
 152:.\src/valveControl.c ****          ON5_DIR2_Write(0u);
 153:.\src/valveControl.c ****          ON6_DIR1_Write(1u);
 154:.\src/valveControl.c ****     }
 155:.\src/valveControl.c ****     else{
 156:.\src/valveControl.c ****           ON5_DIR2_Write(1u);
 157:.\src/valveControl.c ****          ON6_DIR1_Write(0u);
 158:.\src/valveControl.c ****     }
 159:.\src/valveControl.c **** }
 160:.\src/valveControl.c **** */
 161:.\src/valveControl.c **** /*******************************************************************************
 162:.\src/valveControl.c **** * Function Name: setValve1OFF
 163:.\src/valveControl.c **** ********************************************************************************
 164:.\src/valveControl.c **** *
 165:.\src/valveControl.c **** * Summary:
 166:.\src/valveControl.c **** *  Turns off valve 1 (connector J9 on Water Control Atom.)
 167:.\src/valveControl.c **** *
 168:.\src/valveControl.c **** * Parameters:
 169:.\src/valveControl.c **** * None
 170:.\src/valveControl.c **** *
 171:.\src/valveControl.c **** * Return:
 172:.\src/valveControl.c **** *  None.
 173:.\src/valveControl.c **** *
 174:.\src/valveControl.c **** *******************************************************************************/
 175:.\src/valveControl.c **** 
 176:.\src/valveControl.c **** void setValve1OFF(void){
 222              		.loc 1 176 0
 223              		.cfi_startproc
ARM GAS  C:\Users\SDEVAS~1\AppData\Local\Temp\cc0NCQRn.s 			page 8


 224 0000 80B5     		push	{r7, lr}
 225              		.cfi_def_cfa_offset 8
 226              		.cfi_offset 7, -8
 227              		.cfi_offset 14, -4
 228 0002 00AF     		add	r7, sp, #0
 229              		.cfi_def_cfa_register 7
 177:.\src/valveControl.c ****     ON1_DIR1_Write(0u);
 230              		.loc 1 177 0
 231 0004 0020     		mov	r0, #0
 232 0006 FFF7FEFF 		bl	ON1_DIR1_Write
 178:.\src/valveControl.c ****     ON2_DIR2_Write(0u);
 233              		.loc 1 178 0
 234 000a 0020     		mov	r0, #0
 235 000c FFF7FEFF 		bl	ON2_DIR2_Write
 179:.\src/valveControl.c **** }
 236              		.loc 1 179 0
 237 0010 BD46     		mov	sp, r7
 238              		@ sp needed
 239 0012 80BD     		pop	{r7, pc}
 240              		.cfi_endproc
 241              	.LFE37:
 242              		.size	setValve1OFF, .-setValve1OFF
 243              		.section	.text.setValve2OFF,"ax",%progbits
 244              		.align	2
 245              		.global	setValve2OFF
 246              		.code	16
 247              		.thumb_func
 248              		.type	setValve2OFF, %function
 249              	setValve2OFF:
 250              	.LFB38:
 180:.\src/valveControl.c **** 
 181:.\src/valveControl.c **** /*******************************************************************************
 182:.\src/valveControl.c **** * Function Name: setValve2OFF
 183:.\src/valveControl.c **** ********************************************************************************
 184:.\src/valveControl.c **** *
 185:.\src/valveControl.c **** * Summary:
 186:.\src/valveControl.c **** *  Turns off valve 2 (connector J10 on Water Control Atom.)
 187:.\src/valveControl.c **** *
 188:.\src/valveControl.c **** * Parameters:
 189:.\src/valveControl.c **** * None
 190:.\src/valveControl.c **** *
 191:.\src/valveControl.c **** * Return:
 192:.\src/valveControl.c **** *  None.
 193:.\src/valveControl.c **** *
 194:.\src/valveControl.c **** *******************************************************************************/
 195:.\src/valveControl.c **** void setValve2OFF(void){
 251              		.loc 1 195 0
 252              		.cfi_startproc
 253 0000 80B5     		push	{r7, lr}
 254              		.cfi_def_cfa_offset 8
 255              		.cfi_offset 7, -8
 256              		.cfi_offset 14, -4
 257 0002 00AF     		add	r7, sp, #0
 258              		.cfi_def_cfa_register 7
 196:.\src/valveControl.c **** 	ON1_DIR2_Write(0u);
 259              		.loc 1 196 0
 260 0004 0020     		mov	r0, #0
ARM GAS  C:\Users\SDEVAS~1\AppData\Local\Temp\cc0NCQRn.s 			page 9


 261 0006 FFF7FEFF 		bl	ON1_DIR2_Write
 197:.\src/valveControl.c **** 	ON2_DIR1_Write(0u);
 262              		.loc 1 197 0
 263 000a 0020     		mov	r0, #0
 264 000c FFF7FEFF 		bl	ON2_DIR1_Write
 198:.\src/valveControl.c **** }
 265              		.loc 1 198 0
 266 0010 BD46     		mov	sp, r7
 267              		@ sp needed
 268 0012 80BD     		pop	{r7, pc}
 269              		.cfi_endproc
 270              	.LFE38:
 271              		.size	setValve2OFF, .-setValve2OFF
 272              		.section	.text.setValve3OFF,"ax",%progbits
 273              		.align	2
 274              		.global	setValve3OFF
 275              		.code	16
 276              		.thumb_func
 277              		.type	setValve3OFF, %function
 278              	setValve3OFF:
 279              	.LFB39:
 199:.\src/valveControl.c **** 
 200:.\src/valveControl.c **** /*******************************************************************************
 201:.\src/valveControl.c **** * Function Name: setValve3OFF
 202:.\src/valveControl.c **** ********************************************************************************
 203:.\src/valveControl.c **** *
 204:.\src/valveControl.c **** * Summary:
 205:.\src/valveControl.c **** *  Turns off valve 3 (connector J8 on Water Control Atom.)
 206:.\src/valveControl.c **** *
 207:.\src/valveControl.c **** * Parameters:
 208:.\src/valveControl.c **** * None
 209:.\src/valveControl.c **** *
 210:.\src/valveControl.c **** * Return:
 211:.\src/valveControl.c **** *  None.
 212:.\src/valveControl.c **** *
 213:.\src/valveControl.c **** *******************************************************************************/
 214:.\src/valveControl.c **** void setValve3OFF(void){
 280              		.loc 1 214 0
 281              		.cfi_startproc
 282 0000 80B5     		push	{r7, lr}
 283              		.cfi_def_cfa_offset 8
 284              		.cfi_offset 7, -8
 285              		.cfi_offset 14, -4
 286 0002 00AF     		add	r7, sp, #0
 287              		.cfi_def_cfa_register 7
 215:.\src/valveControl.c ****     ON3_DIR1_Write(0u);
 288              		.loc 1 215 0
 289 0004 0020     		mov	r0, #0
 290 0006 FFF7FEFF 		bl	ON3_DIR1_Write
 216:.\src/valveControl.c ****     ON4_DIR2_Write(0u);
 291              		.loc 1 216 0
 292 000a 0020     		mov	r0, #0
 293 000c FFF7FEFF 		bl	ON4_DIR2_Write
 217:.\src/valveControl.c **** }
 294              		.loc 1 217 0
 295 0010 BD46     		mov	sp, r7
 296              		@ sp needed
ARM GAS  C:\Users\SDEVAS~1\AppData\Local\Temp\cc0NCQRn.s 			page 10


 297 0012 80BD     		pop	{r7, pc}
 298              		.cfi_endproc
 299              	.LFE39:
 300              		.size	setValve3OFF, .-setValve3OFF
 301              		.section	.text.setValve4OFF,"ax",%progbits
 302              		.align	2
 303              		.global	setValve4OFF
 304              		.code	16
 305              		.thumb_func
 306              		.type	setValve4OFF, %function
 307              	setValve4OFF:
 308              	.LFB40:
 218:.\src/valveControl.c **** /*******************************************************************************
 219:.\src/valveControl.c **** * Function Name: setValve4OFF
 220:.\src/valveControl.c **** ********************************************************************************
 221:.\src/valveControl.c **** *
 222:.\src/valveControl.c **** * Summary:
 223:.\src/valveControl.c **** *  Turns off valve 4 (connector J10 on Water Control Atom.)
 224:.\src/valveControl.c **** *
 225:.\src/valveControl.c **** * Parameters:
 226:.\src/valveControl.c **** * None
 227:.\src/valveControl.c **** *
 228:.\src/valveControl.c **** * Return:
 229:.\src/valveControl.c **** *  None.
 230:.\src/valveControl.c **** *
 231:.\src/valveControl.c **** *******************************************************************************/
 232:.\src/valveControl.c **** void setValve4OFF(void){
 309              		.loc 1 232 0
 310              		.cfi_startproc
 311 0000 80B5     		push	{r7, lr}
 312              		.cfi_def_cfa_offset 8
 313              		.cfi_offset 7, -8
 314              		.cfi_offset 14, -4
 315 0002 00AF     		add	r7, sp, #0
 316              		.cfi_def_cfa_register 7
 233:.\src/valveControl.c ****     ON3_DIR2_Write(0u);
 317              		.loc 1 233 0
 318 0004 0020     		mov	r0, #0
 319 0006 FFF7FEFF 		bl	ON3_DIR2_Write
 234:.\src/valveControl.c ****     ON4_DIR1_Write(0u);
 320              		.loc 1 234 0
 321 000a 0020     		mov	r0, #0
 322 000c FFF7FEFF 		bl	ON4_DIR1_Write
 235:.\src/valveControl.c **** }
 323              		.loc 1 235 0
 324 0010 BD46     		mov	sp, r7
 325              		@ sp needed
 326 0012 80BD     		pop	{r7, pc}
 327              		.cfi_endproc
 328              	.LFE40:
 329              		.size	setValve4OFF, .-setValve4OFF
 330              		.text
 331              	.Letext0: