ARM GAS  C:\Users\SDEVAS~1\AppData\Local\Temp\ccOTp3Ub.s 			page 1


   1              		.cpu cortex-m0
   2              		.fpu softvfp
   3              		.eabi_attribute 20, 1
   4              		.eabi_attribute 21, 1
   5              		.eabi_attribute 23, 3
   6              		.eabi_attribute 24, 1
   7              		.eabi_attribute 25, 1
   8              		.eabi_attribute 26, 1
   9              		.eabi_attribute 30, 6
  10              		.eabi_attribute 34, 0
  11              		.eabi_attribute 18, 4
  12              		.code	16
  13              		.file	"waterControl.c"
  14              		.text
  15              	.Ltext0:
  16              		.cfi_sections	.debug_frame
  17              		.comm	currentTime,5,4
  18              		.comm	expTime,5,4
  19              		.comm	currentVolume,4,4
  20              		.comm	maxVolume,4,4
  21              		.comm	water_data,252,4
  22              		.section	.text.setvar_fertigationTable0,"ax",%progbits
  23              		.align	2
  24              		.global	setvar_fertigationTable0
  25              		.code	16
  26              		.thumb_func
  27              		.type	setvar_fertigationTable0, %function
  28              	setvar_fertigationTable0:
  29              	.LFB33:
  30              		.file 1 ".\\src\\waterControl.c"
   1:.\src/waterControl.c **** #include "waterControl.h"
   2:.\src/waterControl.c **** 
   3:.\src/waterControl.c **** #define OFF 0
   4:.\src/waterControl.c **** #define ON 1
   5:.\src/waterControl.c **** 
   6:.\src/waterControl.c **** clock currentTime;
   7:.\src/waterControl.c **** clock expTime;
   8:.\src/waterControl.c **** 
   9:.\src/waterControl.c **** 
  10:.\src/waterControl.c **** int currentVolume;
  11:.\src/waterControl.c **** int maxVolume;
  12:.\src/waterControl.c **** 
  13:.\src/waterControl.c **** 
  14:.\src/waterControl.c **** //struct source: https://docs.google.com/document/d/1WrIqsW1SgbLmcNN1VXvH0uA1hI1NaXTKU7qD_cBLoLY/ed
  15:.\src/waterControl.c **** struct {
  16:.\src/waterControl.c **** 	int InnerPressure;
  17:.\src/waterControl.c **** 	int OuterPressure;
  18:.\src/waterControl.c **** 	int CurrentFlow;
  19:.\src/waterControl.c **** 	int TotalVolume;
  20:.\src/waterControl.c **** 	int ValveStatus;
  21:.\src/waterControl.c **** 	int LastStartNumber;
  22:.\src/waterControl.c **** 	int LastStartVolume;
  23:.\src/waterControl.c **** 	int LastStartFlow;
  24:.\src/waterControl.c **** 	int StartTime;
  25:.\src/waterControl.c **** 	int StopTime;
  26:.\src/waterControl.c **** 	int NumStarts;
  27:.\src/waterControl.c **** 	int VolPerStart;
ARM GAS  C:\Users\SDEVAS~1\AppData\Local\Temp\ccOTp3Ub.s 			page 2


  28:.\src/waterControl.c **** 	int MaxVol;
  29:.\src/waterControl.c **** 	int MinVol;
  30:.\src/waterControl.c **** 
  31:.\src/waterControl.c **** 	int fertigationTable[10][4];
  32:.\src/waterControl.c **** 
  33:.\src/waterControl.c **** 	int NotBefore;
  34:.\src/waterControl.c **** 	int NotAfter;
  35:.\src/waterControl.c **** 	int DilutionFactorA;
  36:.\src/waterControl.c **** 	int DilutionFactorB;
  37:.\src/waterControl.c **** 	int VenturiSuctionA;
  38:.\src/waterControl.c **** 	int VenturiSuctionB;
  39:.\src/waterControl.c **** 	int SquareMeters;
  40:.\src/waterControl.c **** 	int LperSqMeterPerDay;
  41:.\src/waterControl.c **** 	int CropType;
  42:.\src/waterControl.c **** } water_data;
  43:.\src/waterControl.c **** 
  44:.\src/waterControl.c **** 
  45:.\src/waterControl.c **** void setvar_fertigationTable0(int * val) {
  31              		.loc 1 45 0
  32              		.cfi_startproc
  33 0000 80B5     		push	{r7, lr}
  34              		.cfi_def_cfa_offset 8
  35              		.cfi_offset 7, -8
  36              		.cfi_offset 14, -4
  37 0002 82B0     		sub	sp, sp, #8
  38              		.cfi_def_cfa_offset 16
  39 0004 00AF     		add	r7, sp, #0
  40              		.cfi_def_cfa_register 7
  41 0006 7860     		str	r0, [r7, #4]
  46:.\src/waterControl.c **** 	memcpy(water_data.fertigationTable[0], val, 4 * sizeof(int));
  42              		.loc 1 46 0
  43 0008 044A     		ldr	r2, .L2
  44 000a 7B68     		ldr	r3, [r7, #4]
  45 000c 101C     		mov	r0, r2
  46 000e 191C     		mov	r1, r3
  47 0010 1022     		mov	r2, #16
  48 0012 FFF7FEFF 		bl	memcpy
  47:.\src/waterControl.c **** }
  49              		.loc 1 47 0
  50 0016 BD46     		mov	sp, r7
  51 0018 02B0     		add	sp, sp, #8
  52              		@ sp needed
  53 001a 80BD     		pop	{r7, pc}
  54              	.L3:
  55              		.align	2
  56              	.L2:
  57 001c 38000000 		.word	water_data+56
  58              		.cfi_endproc
  59              	.LFE33:
  60              		.size	setvar_fertigationTable0, .-setvar_fertigationTable0
  61              		.section	.text.setvar_fertigationTable1,"ax",%progbits
  62              		.align	2
  63              		.global	setvar_fertigationTable1
  64              		.code	16
  65              		.thumb_func
  66              		.type	setvar_fertigationTable1, %function
  67              	setvar_fertigationTable1:
ARM GAS  C:\Users\SDEVAS~1\AppData\Local\Temp\ccOTp3Ub.s 			page 3


  68              	.LFB34:
  48:.\src/waterControl.c **** void setvar_fertigationTable1(int * val) {
  69              		.loc 1 48 0
  70              		.cfi_startproc
  71 0000 80B5     		push	{r7, lr}
  72              		.cfi_def_cfa_offset 8
  73              		.cfi_offset 7, -8
  74              		.cfi_offset 14, -4
  75 0002 82B0     		sub	sp, sp, #8
  76              		.cfi_def_cfa_offset 16
  77 0004 00AF     		add	r7, sp, #0
  78              		.cfi_def_cfa_register 7
  79 0006 7860     		str	r0, [r7, #4]
  49:.\src/waterControl.c **** 	memcpy(water_data.fertigationTable[1], val, 4 * sizeof(int));
  80              		.loc 1 49 0
  81 0008 044A     		ldr	r2, .L5
  82 000a 7B68     		ldr	r3, [r7, #4]
  83 000c 101C     		mov	r0, r2
  84 000e 191C     		mov	r1, r3
  85 0010 1022     		mov	r2, #16
  86 0012 FFF7FEFF 		bl	memcpy
  50:.\src/waterControl.c **** }
  87              		.loc 1 50 0
  88 0016 BD46     		mov	sp, r7
  89 0018 02B0     		add	sp, sp, #8
  90              		@ sp needed
  91 001a 80BD     		pop	{r7, pc}
  92              	.L6:
  93              		.align	2
  94              	.L5:
  95 001c 48000000 		.word	water_data+72
  96              		.cfi_endproc
  97              	.LFE34:
  98              		.size	setvar_fertigationTable1, .-setvar_fertigationTable1
  99              		.section	.text.setvar_fertigationTable2,"ax",%progbits
 100              		.align	2
 101              		.global	setvar_fertigationTable2
 102              		.code	16
 103              		.thumb_func
 104              		.type	setvar_fertigationTable2, %function
 105              	setvar_fertigationTable2:
 106              	.LFB35:
  51:.\src/waterControl.c **** void setvar_fertigationTable2(int * val) {
 107              		.loc 1 51 0
 108              		.cfi_startproc
 109 0000 80B5     		push	{r7, lr}
 110              		.cfi_def_cfa_offset 8
 111              		.cfi_offset 7, -8
 112              		.cfi_offset 14, -4
 113 0002 82B0     		sub	sp, sp, #8
 114              		.cfi_def_cfa_offset 16
 115 0004 00AF     		add	r7, sp, #0
 116              		.cfi_def_cfa_register 7
 117 0006 7860     		str	r0, [r7, #4]
  52:.\src/waterControl.c **** 	memcpy(water_data.fertigationTable[2], val, 4 * sizeof(int));
 118              		.loc 1 52 0
 119 0008 044A     		ldr	r2, .L8
ARM GAS  C:\Users\SDEVAS~1\AppData\Local\Temp\ccOTp3Ub.s 			page 4


 120 000a 7B68     		ldr	r3, [r7, #4]
 121 000c 101C     		mov	r0, r2
 122 000e 191C     		mov	r1, r3
 123 0010 1022     		mov	r2, #16
 124 0012 FFF7FEFF 		bl	memcpy
  53:.\src/waterControl.c **** }
 125              		.loc 1 53 0
 126 0016 BD46     		mov	sp, r7
 127 0018 02B0     		add	sp, sp, #8
 128              		@ sp needed
 129 001a 80BD     		pop	{r7, pc}
 130              	.L9:
 131              		.align	2
 132              	.L8:
 133 001c 58000000 		.word	water_data+88
 134              		.cfi_endproc
 135              	.LFE35:
 136              		.size	setvar_fertigationTable2, .-setvar_fertigationTable2
 137              		.section	.text.setvar_fertigationTable3,"ax",%progbits
 138              		.align	2
 139              		.global	setvar_fertigationTable3
 140              		.code	16
 141              		.thumb_func
 142              		.type	setvar_fertigationTable3, %function
 143              	setvar_fertigationTable3:
 144              	.LFB36:
  54:.\src/waterControl.c **** void setvar_fertigationTable3(int * val) {
 145              		.loc 1 54 0
 146              		.cfi_startproc
 147 0000 80B5     		push	{r7, lr}
 148              		.cfi_def_cfa_offset 8
 149              		.cfi_offset 7, -8
 150              		.cfi_offset 14, -4
 151 0002 82B0     		sub	sp, sp, #8
 152              		.cfi_def_cfa_offset 16
 153 0004 00AF     		add	r7, sp, #0
 154              		.cfi_def_cfa_register 7
 155 0006 7860     		str	r0, [r7, #4]
  55:.\src/waterControl.c **** 	memcpy(water_data.fertigationTable[3], val, 4 * sizeof(int));
 156              		.loc 1 55 0
 157 0008 044A     		ldr	r2, .L11
 158 000a 7B68     		ldr	r3, [r7, #4]
 159 000c 101C     		mov	r0, r2
 160 000e 191C     		mov	r1, r3
 161 0010 1022     		mov	r2, #16
 162 0012 FFF7FEFF 		bl	memcpy
  56:.\src/waterControl.c **** }
 163              		.loc 1 56 0
 164 0016 BD46     		mov	sp, r7
 165 0018 02B0     		add	sp, sp, #8
 166              		@ sp needed
 167 001a 80BD     		pop	{r7, pc}
 168              	.L12:
 169              		.align	2
 170              	.L11:
 171 001c 68000000 		.word	water_data+104
 172              		.cfi_endproc
ARM GAS  C:\Users\SDEVAS~1\AppData\Local\Temp\ccOTp3Ub.s 			page 5


 173              	.LFE36:
 174              		.size	setvar_fertigationTable3, .-setvar_fertigationTable3
 175              		.section	.text.setvar_fertigationTable4,"ax",%progbits
 176              		.align	2
 177              		.global	setvar_fertigationTable4
 178              		.code	16
 179              		.thumb_func
 180              		.type	setvar_fertigationTable4, %function
 181              	setvar_fertigationTable4:
 182              	.LFB37:
  57:.\src/waterControl.c **** void setvar_fertigationTable4(int * val) {
 183              		.loc 1 57 0
 184              		.cfi_startproc
 185 0000 80B5     		push	{r7, lr}
 186              		.cfi_def_cfa_offset 8
 187              		.cfi_offset 7, -8
 188              		.cfi_offset 14, -4
 189 0002 82B0     		sub	sp, sp, #8
 190              		.cfi_def_cfa_offset 16
 191 0004 00AF     		add	r7, sp, #0
 192              		.cfi_def_cfa_register 7
 193 0006 7860     		str	r0, [r7, #4]
  58:.\src/waterControl.c **** 	memcpy(water_data.fertigationTable[4], val, 4 * sizeof(int));
 194              		.loc 1 58 0
 195 0008 044A     		ldr	r2, .L14
 196 000a 7B68     		ldr	r3, [r7, #4]
 197 000c 101C     		mov	r0, r2
 198 000e 191C     		mov	r1, r3
 199 0010 1022     		mov	r2, #16
 200 0012 FFF7FEFF 		bl	memcpy
  59:.\src/waterControl.c **** }
 201              		.loc 1 59 0
 202 0016 BD46     		mov	sp, r7
 203 0018 02B0     		add	sp, sp, #8
 204              		@ sp needed
 205 001a 80BD     		pop	{r7, pc}
 206              	.L15:
 207              		.align	2
 208              	.L14:
 209 001c 78000000 		.word	water_data+120
 210              		.cfi_endproc
 211              	.LFE37:
 212              		.size	setvar_fertigationTable4, .-setvar_fertigationTable4
 213              		.section	.text.setvar_fertigationTable5,"ax",%progbits
 214              		.align	2
 215              		.global	setvar_fertigationTable5
 216              		.code	16
 217              		.thumb_func
 218              		.type	setvar_fertigationTable5, %function
 219              	setvar_fertigationTable5:
 220              	.LFB38:
  60:.\src/waterControl.c **** void setvar_fertigationTable5(int * val) {
 221              		.loc 1 60 0
 222              		.cfi_startproc
 223 0000 80B5     		push	{r7, lr}
 224              		.cfi_def_cfa_offset 8
 225              		.cfi_offset 7, -8
ARM GAS  C:\Users\SDEVAS~1\AppData\Local\Temp\ccOTp3Ub.s 			page 6


 226              		.cfi_offset 14, -4
 227 0002 82B0     		sub	sp, sp, #8
 228              		.cfi_def_cfa_offset 16
 229 0004 00AF     		add	r7, sp, #0
 230              		.cfi_def_cfa_register 7
 231 0006 7860     		str	r0, [r7, #4]
  61:.\src/waterControl.c **** 	memcpy(water_data.fertigationTable[5], val, 4 * sizeof(int));
 232              		.loc 1 61 0
 233 0008 044A     		ldr	r2, .L17
 234 000a 7B68     		ldr	r3, [r7, #4]
 235 000c 101C     		mov	r0, r2
 236 000e 191C     		mov	r1, r3
 237 0010 1022     		mov	r2, #16
 238 0012 FFF7FEFF 		bl	memcpy
  62:.\src/waterControl.c **** }
 239              		.loc 1 62 0
 240 0016 BD46     		mov	sp, r7
 241 0018 02B0     		add	sp, sp, #8
 242              		@ sp needed
 243 001a 80BD     		pop	{r7, pc}
 244              	.L18:
 245              		.align	2
 246              	.L17:
 247 001c 88000000 		.word	water_data+136
 248              		.cfi_endproc
 249              	.LFE38:
 250              		.size	setvar_fertigationTable5, .-setvar_fertigationTable5
 251              		.section	.text.setvar_fertigationTable6,"ax",%progbits
 252              		.align	2
 253              		.global	setvar_fertigationTable6
 254              		.code	16
 255              		.thumb_func
 256              		.type	setvar_fertigationTable6, %function
 257              	setvar_fertigationTable6:
 258              	.LFB39:
  63:.\src/waterControl.c **** void setvar_fertigationTable6(int * val) {
 259              		.loc 1 63 0
 260              		.cfi_startproc
 261 0000 80B5     		push	{r7, lr}
 262              		.cfi_def_cfa_offset 8
 263              		.cfi_offset 7, -8
 264              		.cfi_offset 14, -4
 265 0002 82B0     		sub	sp, sp, #8
 266              		.cfi_def_cfa_offset 16
 267 0004 00AF     		add	r7, sp, #0
 268              		.cfi_def_cfa_register 7
 269 0006 7860     		str	r0, [r7, #4]
  64:.\src/waterControl.c **** 	memcpy(water_data.fertigationTable[6], val, 4 * sizeof(int));
 270              		.loc 1 64 0
 271 0008 044A     		ldr	r2, .L20
 272 000a 7B68     		ldr	r3, [r7, #4]
 273 000c 101C     		mov	r0, r2
 274 000e 191C     		mov	r1, r3
 275 0010 1022     		mov	r2, #16
 276 0012 FFF7FEFF 		bl	memcpy
  65:.\src/waterControl.c **** }
 277              		.loc 1 65 0
ARM GAS  C:\Users\SDEVAS~1\AppData\Local\Temp\ccOTp3Ub.s 			page 7


 278 0016 BD46     		mov	sp, r7
 279 0018 02B0     		add	sp, sp, #8
 280              		@ sp needed
 281 001a 80BD     		pop	{r7, pc}
 282              	.L21:
 283              		.align	2
 284              	.L20:
 285 001c 98000000 		.word	water_data+152
 286              		.cfi_endproc
 287              	.LFE39:
 288              		.size	setvar_fertigationTable6, .-setvar_fertigationTable6
 289              		.section	.text.setvar_fertigationTable7,"ax",%progbits
 290              		.align	2
 291              		.global	setvar_fertigationTable7
 292              		.code	16
 293              		.thumb_func
 294              		.type	setvar_fertigationTable7, %function
 295              	setvar_fertigationTable7:
 296              	.LFB40:
  66:.\src/waterControl.c **** void setvar_fertigationTable7(int * val) {
 297              		.loc 1 66 0
 298              		.cfi_startproc
 299 0000 80B5     		push	{r7, lr}
 300              		.cfi_def_cfa_offset 8
 301              		.cfi_offset 7, -8
 302              		.cfi_offset 14, -4
 303 0002 82B0     		sub	sp, sp, #8
 304              		.cfi_def_cfa_offset 16
 305 0004 00AF     		add	r7, sp, #0
 306              		.cfi_def_cfa_register 7
 307 0006 7860     		str	r0, [r7, #4]
  67:.\src/waterControl.c **** 	memcpy(water_data.fertigationTable[7], val, 4 * sizeof(int));
 308              		.loc 1 67 0
 309 0008 044A     		ldr	r2, .L23
 310 000a 7B68     		ldr	r3, [r7, #4]
 311 000c 101C     		mov	r0, r2
 312 000e 191C     		mov	r1, r3
 313 0010 1022     		mov	r2, #16
 314 0012 FFF7FEFF 		bl	memcpy
  68:.\src/waterControl.c **** }
 315              		.loc 1 68 0
 316 0016 BD46     		mov	sp, r7
 317 0018 02B0     		add	sp, sp, #8
 318              		@ sp needed
 319 001a 80BD     		pop	{r7, pc}
 320              	.L24:
 321              		.align	2
 322              	.L23:
 323 001c A8000000 		.word	water_data+168
 324              		.cfi_endproc
 325              	.LFE40:
 326              		.size	setvar_fertigationTable7, .-setvar_fertigationTable7
 327              		.section	.text.setvar_fertigationTable8,"ax",%progbits
 328              		.align	2
 329              		.global	setvar_fertigationTable8
 330              		.code	16
 331              		.thumb_func
ARM GAS  C:\Users\SDEVAS~1\AppData\Local\Temp\ccOTp3Ub.s 			page 8


 332              		.type	setvar_fertigationTable8, %function
 333              	setvar_fertigationTable8:
 334              	.LFB41:
  69:.\src/waterControl.c **** void setvar_fertigationTable8(int * val) {
 335              		.loc 1 69 0
 336              		.cfi_startproc
 337 0000 80B5     		push	{r7, lr}
 338              		.cfi_def_cfa_offset 8
 339              		.cfi_offset 7, -8
 340              		.cfi_offset 14, -4
 341 0002 82B0     		sub	sp, sp, #8
 342              		.cfi_def_cfa_offset 16
 343 0004 00AF     		add	r7, sp, #0
 344              		.cfi_def_cfa_register 7
 345 0006 7860     		str	r0, [r7, #4]
  70:.\src/waterControl.c **** 	memcpy(water_data.fertigationTable[8], val, 4 * sizeof(int));
 346              		.loc 1 70 0
 347 0008 044A     		ldr	r2, .L26
 348 000a 7B68     		ldr	r3, [r7, #4]
 349 000c 101C     		mov	r0, r2
 350 000e 191C     		mov	r1, r3
 351 0010 1022     		mov	r2, #16
 352 0012 FFF7FEFF 		bl	memcpy
  71:.\src/waterControl.c **** }
 353              		.loc 1 71 0
 354 0016 BD46     		mov	sp, r7
 355 0018 02B0     		add	sp, sp, #8
 356              		@ sp needed
 357 001a 80BD     		pop	{r7, pc}
 358              	.L27:
 359              		.align	2
 360              	.L26:
 361 001c B8000000 		.word	water_data+184
 362              		.cfi_endproc
 363              	.LFE41:
 364              		.size	setvar_fertigationTable8, .-setvar_fertigationTable8
 365              		.section	.text.setvar_fertigationTable9,"ax",%progbits
 366              		.align	2
 367              		.global	setvar_fertigationTable9
 368              		.code	16
 369              		.thumb_func
 370              		.type	setvar_fertigationTable9, %function
 371              	setvar_fertigationTable9:
 372              	.LFB42:
  72:.\src/waterControl.c **** void setvar_fertigationTable9(int * val) {
 373              		.loc 1 72 0
 374              		.cfi_startproc
 375 0000 80B5     		push	{r7, lr}
 376              		.cfi_def_cfa_offset 8
 377              		.cfi_offset 7, -8
 378              		.cfi_offset 14, -4
 379 0002 82B0     		sub	sp, sp, #8
 380              		.cfi_def_cfa_offset 16
 381 0004 00AF     		add	r7, sp, #0
 382              		.cfi_def_cfa_register 7
 383 0006 7860     		str	r0, [r7, #4]
  73:.\src/waterControl.c **** 	memcpy(water_data.fertigationTable[9], val, 4 * sizeof(int));
ARM GAS  C:\Users\SDEVAS~1\AppData\Local\Temp\ccOTp3Ub.s 			page 9


 384              		.loc 1 73 0
 385 0008 044A     		ldr	r2, .L29
 386 000a 7B68     		ldr	r3, [r7, #4]
 387 000c 101C     		mov	r0, r2
 388 000e 191C     		mov	r1, r3
 389 0010 1022     		mov	r2, #16
 390 0012 FFF7FEFF 		bl	memcpy
  74:.\src/waterControl.c **** }
 391              		.loc 1 74 0
 392 0016 BD46     		mov	sp, r7
 393 0018 02B0     		add	sp, sp, #8
 394              		@ sp needed
 395 001a 80BD     		pop	{r7, pc}
 396              	.L30:
 397              		.align	2
 398              	.L29:
 399 001c C8000000 		.word	water_data+200
 400              		.cfi_endproc
 401              	.LFE42:
 402              		.size	setvar_fertigationTable9, .-setvar_fertigationTable9
 403              		.section	.text.getvar_fertigationTable0,"ax",%progbits
 404              		.align	2
 405              		.global	getvar_fertigationTable0
 406              		.code	16
 407              		.thumb_func
 408              		.type	getvar_fertigationTable0, %function
 409              	getvar_fertigationTable0:
 410              	.LFB43:
  75:.\src/waterControl.c **** 
  76:.\src/waterControl.c **** int * getvar_fertigationTable0(void) { return water_data.fertigationTable[0]; }
 411              		.loc 1 76 0
 412              		.cfi_startproc
 413 0000 80B5     		push	{r7, lr}
 414              		.cfi_def_cfa_offset 8
 415              		.cfi_offset 7, -8
 416              		.cfi_offset 14, -4
 417 0002 00AF     		add	r7, sp, #0
 418              		.cfi_def_cfa_register 7
 419              		.loc 1 76 0
 420 0004 014B     		ldr	r3, .L33
 421 0006 181C     		mov	r0, r3
 422 0008 BD46     		mov	sp, r7
 423              		@ sp needed
 424 000a 80BD     		pop	{r7, pc}
 425              	.L34:
 426              		.align	2
 427              	.L33:
 428 000c 38000000 		.word	water_data+56
 429              		.cfi_endproc
 430              	.LFE43:
 431              		.size	getvar_fertigationTable0, .-getvar_fertigationTable0
 432              		.section	.text.getvar_fertigationTable1,"ax",%progbits
 433              		.align	2
 434              		.global	getvar_fertigationTable1
 435              		.code	16
 436              		.thumb_func
 437              		.type	getvar_fertigationTable1, %function
ARM GAS  C:\Users\SDEVAS~1\AppData\Local\Temp\ccOTp3Ub.s 			page 10


 438              	getvar_fertigationTable1:
 439              	.LFB44:
  77:.\src/waterControl.c **** int * getvar_fertigationTable1(void) { return water_data.fertigationTable[1]; }
 440              		.loc 1 77 0
 441              		.cfi_startproc
 442 0000 80B5     		push	{r7, lr}
 443              		.cfi_def_cfa_offset 8
 444              		.cfi_offset 7, -8
 445              		.cfi_offset 14, -4
 446 0002 00AF     		add	r7, sp, #0
 447              		.cfi_def_cfa_register 7
 448              		.loc 1 77 0
 449 0004 014B     		ldr	r3, .L37
 450 0006 181C     		mov	r0, r3
 451 0008 BD46     		mov	sp, r7
 452              		@ sp needed
 453 000a 80BD     		pop	{r7, pc}
 454              	.L38:
 455              		.align	2
 456              	.L37:
 457 000c 48000000 		.word	water_data+72
 458              		.cfi_endproc
 459              	.LFE44:
 460              		.size	getvar_fertigationTable1, .-getvar_fertigationTable1
 461              		.section	.text.getvar_fertigationTable2,"ax",%progbits
 462              		.align	2
 463              		.global	getvar_fertigationTable2
 464              		.code	16
 465              		.thumb_func
 466              		.type	getvar_fertigationTable2, %function
 467              	getvar_fertigationTable2:
 468              	.LFB45:
  78:.\src/waterControl.c **** int * getvar_fertigationTable2(void) { return water_data.fertigationTable[2]; }
 469              		.loc 1 78 0
 470              		.cfi_startproc
 471 0000 80B5     		push	{r7, lr}
 472              		.cfi_def_cfa_offset 8
 473              		.cfi_offset 7, -8
 474              		.cfi_offset 14, -4
 475 0002 00AF     		add	r7, sp, #0
 476              		.cfi_def_cfa_register 7
 477              		.loc 1 78 0
 478 0004 014B     		ldr	r3, .L41
 479 0006 181C     		mov	r0, r3
 480 0008 BD46     		mov	sp, r7
 481              		@ sp needed
 482 000a 80BD     		pop	{r7, pc}
 483              	.L42:
 484              		.align	2
 485              	.L41:
 486 000c 58000000 		.word	water_data+88
 487              		.cfi_endproc
 488              	.LFE45:
 489              		.size	getvar_fertigationTable2, .-getvar_fertigationTable2
 490              		.section	.text.getvar_fertigationTable3,"ax",%progbits
 491              		.align	2
 492              		.global	getvar_fertigationTable3
ARM GAS  C:\Users\SDEVAS~1\AppData\Local\Temp\ccOTp3Ub.s 			page 11


 493              		.code	16
 494              		.thumb_func
 495              		.type	getvar_fertigationTable3, %function
 496              	getvar_fertigationTable3:
 497              	.LFB46:
  79:.\src/waterControl.c **** int * getvar_fertigationTable3(void) { return water_data.fertigationTable[3]; }
 498              		.loc 1 79 0
 499              		.cfi_startproc
 500 0000 80B5     		push	{r7, lr}
 501              		.cfi_def_cfa_offset 8
 502              		.cfi_offset 7, -8
 503              		.cfi_offset 14, -4
 504 0002 00AF     		add	r7, sp, #0
 505              		.cfi_def_cfa_register 7
 506              		.loc 1 79 0
 507 0004 014B     		ldr	r3, .L45
 508 0006 181C     		mov	r0, r3
 509 0008 BD46     		mov	sp, r7
 510              		@ sp needed
 511 000a 80BD     		pop	{r7, pc}
 512              	.L46:
 513              		.align	2
 514              	.L45:
 515 000c 68000000 		.word	water_data+104
 516              		.cfi_endproc
 517              	.LFE46:
 518              		.size	getvar_fertigationTable3, .-getvar_fertigationTable3
 519              		.section	.text.getvar_fertigationTable4,"ax",%progbits
 520              		.align	2
 521              		.global	getvar_fertigationTable4
 522              		.code	16
 523              		.thumb_func
 524              		.type	getvar_fertigationTable4, %function
 525              	getvar_fertigationTable4:
 526              	.LFB47:
  80:.\src/waterControl.c **** int * getvar_fertigationTable4(void) { return water_data.fertigationTable[4]; }
 527              		.loc 1 80 0
 528              		.cfi_startproc
 529 0000 80B5     		push	{r7, lr}
 530              		.cfi_def_cfa_offset 8
 531              		.cfi_offset 7, -8
 532              		.cfi_offset 14, -4
 533 0002 00AF     		add	r7, sp, #0
 534              		.cfi_def_cfa_register 7
 535              		.loc 1 80 0
 536 0004 014B     		ldr	r3, .L49
 537 0006 181C     		mov	r0, r3
 538 0008 BD46     		mov	sp, r7
 539              		@ sp needed
 540 000a 80BD     		pop	{r7, pc}
 541              	.L50:
 542              		.align	2
 543              	.L49:
 544 000c 78000000 		.word	water_data+120
 545              		.cfi_endproc
 546              	.LFE47:
 547              		.size	getvar_fertigationTable4, .-getvar_fertigationTable4
ARM GAS  C:\Users\SDEVAS~1\AppData\Local\Temp\ccOTp3Ub.s 			page 12


 548              		.section	.text.getvar_fertigationTable5,"ax",%progbits
 549              		.align	2
 550              		.global	getvar_fertigationTable5
 551              		.code	16
 552              		.thumb_func
 553              		.type	getvar_fertigationTable5, %function
 554              	getvar_fertigationTable5:
 555              	.LFB48:
  81:.\src/waterControl.c **** int * getvar_fertigationTable5(void) { return water_data.fertigationTable[5]; }
 556              		.loc 1 81 0
 557              		.cfi_startproc
 558 0000 80B5     		push	{r7, lr}
 559              		.cfi_def_cfa_offset 8
 560              		.cfi_offset 7, -8
 561              		.cfi_offset 14, -4
 562 0002 00AF     		add	r7, sp, #0
 563              		.cfi_def_cfa_register 7
 564              		.loc 1 81 0
 565 0004 014B     		ldr	r3, .L53
 566 0006 181C     		mov	r0, r3
 567 0008 BD46     		mov	sp, r7
 568              		@ sp needed
 569 000a 80BD     		pop	{r7, pc}
 570              	.L54:
 571              		.align	2
 572              	.L53:
 573 000c 88000000 		.word	water_data+136
 574              		.cfi_endproc
 575              	.LFE48:
 576              		.size	getvar_fertigationTable5, .-getvar_fertigationTable5
 577              		.section	.text.getvar_fertigationTable6,"ax",%progbits
 578              		.align	2
 579              		.global	getvar_fertigationTable6
 580              		.code	16
 581              		.thumb_func
 582              		.type	getvar_fertigationTable6, %function
 583              	getvar_fertigationTable6:
 584              	.LFB49:
  82:.\src/waterControl.c **** int * getvar_fertigationTable6(void) { return water_data.fertigationTable[6]; }
 585              		.loc 1 82 0
 586              		.cfi_startproc
 587 0000 80B5     		push	{r7, lr}
 588              		.cfi_def_cfa_offset 8
 589              		.cfi_offset 7, -8
 590              		.cfi_offset 14, -4
 591 0002 00AF     		add	r7, sp, #0
 592              		.cfi_def_cfa_register 7
 593              		.loc 1 82 0
 594 0004 014B     		ldr	r3, .L57
 595 0006 181C     		mov	r0, r3
 596 0008 BD46     		mov	sp, r7
 597              		@ sp needed
 598 000a 80BD     		pop	{r7, pc}
 599              	.L58:
 600              		.align	2
 601              	.L57:
 602 000c 98000000 		.word	water_data+152
ARM GAS  C:\Users\SDEVAS~1\AppData\Local\Temp\ccOTp3Ub.s 			page 13


 603              		.cfi_endproc
 604              	.LFE49:
 605              		.size	getvar_fertigationTable6, .-getvar_fertigationTable6
 606              		.section	.text.getvar_fertigationTable7,"ax",%progbits
 607              		.align	2
 608              		.global	getvar_fertigationTable7
 609              		.code	16
 610              		.thumb_func
 611              		.type	getvar_fertigationTable7, %function
 612              	getvar_fertigationTable7:
 613              	.LFB50:
  83:.\src/waterControl.c **** int * getvar_fertigationTable7(void) { return water_data.fertigationTable[7]; }
 614              		.loc 1 83 0
 615              		.cfi_startproc
 616 0000 80B5     		push	{r7, lr}
 617              		.cfi_def_cfa_offset 8
 618              		.cfi_offset 7, -8
 619              		.cfi_offset 14, -4
 620 0002 00AF     		add	r7, sp, #0
 621              		.cfi_def_cfa_register 7
 622              		.loc 1 83 0
 623 0004 014B     		ldr	r3, .L61
 624 0006 181C     		mov	r0, r3
 625 0008 BD46     		mov	sp, r7
 626              		@ sp needed
 627 000a 80BD     		pop	{r7, pc}
 628              	.L62:
 629              		.align	2
 630              	.L61:
 631 000c A8000000 		.word	water_data+168
 632              		.cfi_endproc
 633              	.LFE50:
 634              		.size	getvar_fertigationTable7, .-getvar_fertigationTable7
 635              		.section	.text.getvar_fertigationTable8,"ax",%progbits
 636              		.align	2
 637              		.global	getvar_fertigationTable8
 638              		.code	16
 639              		.thumb_func
 640              		.type	getvar_fertigationTable8, %function
 641              	getvar_fertigationTable8:
 642              	.LFB51:
  84:.\src/waterControl.c **** int * getvar_fertigationTable8(void) { return water_data.fertigationTable[8]; }
 643              		.loc 1 84 0
 644              		.cfi_startproc
 645 0000 80B5     		push	{r7, lr}
 646              		.cfi_def_cfa_offset 8
 647              		.cfi_offset 7, -8
 648              		.cfi_offset 14, -4
 649 0002 00AF     		add	r7, sp, #0
 650              		.cfi_def_cfa_register 7
 651              		.loc 1 84 0
 652 0004 014B     		ldr	r3, .L65
 653 0006 181C     		mov	r0, r3
 654 0008 BD46     		mov	sp, r7
 655              		@ sp needed
 656 000a 80BD     		pop	{r7, pc}
 657              	.L66:
ARM GAS  C:\Users\SDEVAS~1\AppData\Local\Temp\ccOTp3Ub.s 			page 14


 658              		.align	2
 659              	.L65:
 660 000c B8000000 		.word	water_data+184
 661              		.cfi_endproc
 662              	.LFE51:
 663              		.size	getvar_fertigationTable8, .-getvar_fertigationTable8
 664              		.section	.text.getvar_fertigationTable9,"ax",%progbits
 665              		.align	2
 666              		.global	getvar_fertigationTable9
 667              		.code	16
 668              		.thumb_func
 669              		.type	getvar_fertigationTable9, %function
 670              	getvar_fertigationTable9:
 671              	.LFB52:
  85:.\src/waterControl.c **** int * getvar_fertigationTable9(void) { return water_data.fertigationTable[9]; }
 672              		.loc 1 85 0
 673              		.cfi_startproc
 674 0000 80B5     		push	{r7, lr}
 675              		.cfi_def_cfa_offset 8
 676              		.cfi_offset 7, -8
 677              		.cfi_offset 14, -4
 678 0002 00AF     		add	r7, sp, #0
 679              		.cfi_def_cfa_register 7
 680              		.loc 1 85 0
 681 0004 014B     		ldr	r3, .L69
 682 0006 181C     		mov	r0, r3
 683 0008 BD46     		mov	sp, r7
 684              		@ sp needed
 685 000a 80BD     		pop	{r7, pc}
 686              	.L70:
 687              		.align	2
 688              	.L69:
 689 000c C8000000 		.word	water_data+200
 690              		.cfi_endproc
 691              	.LFE52:
 692              		.size	getvar_fertigationTable9, .-getvar_fertigationTable9
 693              		.section	.text.conv_ia2str,"ax",%progbits
 694              		.align	2
 695              		.weak	conv_ia2str
 696              		.code	16
 697              		.thumb_func
 698              		.type	conv_ia2str, %function
 699              	conv_ia2str:
 700              	.LFB53:
  86:.\src/waterControl.c **** 
  87:.\src/waterControl.c **** int conv_ia2str(char *str, int len, int * val) {
 701              		.loc 1 87 0
 702              		.cfi_startproc
 703 0000 80B5     		push	{r7, lr}
 704              		.cfi_def_cfa_offset 8
 705              		.cfi_offset 7, -8
 706              		.cfi_offset 14, -4
 707 0002 86B0     		sub	sp, sp, #24
 708              		.cfi_def_cfa_offset 32
 709 0004 00AF     		add	r7, sp, #0
 710              		.cfi_def_cfa_register 7
 711 0006 F860     		str	r0, [r7, #12]
ARM GAS  C:\Users\SDEVAS~1\AppData\Local\Temp\ccOTp3Ub.s 			page 15


 712 0008 B960     		str	r1, [r7, #8]
 713 000a 7A60     		str	r2, [r7, #4]
  88:.\src/waterControl.c **** 	//this function is tailored for fertigation table, so int* size if equal 4!
  89:.\src/waterControl.c **** 	int ret = 0;
 714              		.loc 1 89 0
 715 000c 0023     		mov	r3, #0
 716 000e 7B61     		str	r3, [r7, #20]
  90:.\src/waterControl.c **** 	*str = '['; ret++;
 717              		.loc 1 90 0
 718 0010 FB68     		ldr	r3, [r7, #12]
 719 0012 5B22     		mov	r2, #91
 720 0014 1A70     		strb	r2, [r3]
 721 0016 7B69     		ldr	r3, [r7, #20]
 722 0018 0133     		add	r3, r3, #1
 723 001a 7B61     		str	r3, [r7, #20]
  91:.\src/waterControl.c **** 	int i = 0;
 724              		.loc 1 91 0
 725 001c 0023     		mov	r3, #0
 726 001e 3B61     		str	r3, [r7, #16]
  92:.\src/waterControl.c **** 	for(; i < 4; i++) {
 727              		.loc 1 92 0
 728 0020 29E0     		b	.L72
 729              	.L76:
  93:.\src/waterControl.c **** 		if(len - ret == 0) return ret;
 730              		.loc 1 93 0
 731 0022 BA68     		ldr	r2, [r7, #8]
 732 0024 7B69     		ldr	r3, [r7, #20]
 733 0026 9A42     		cmp	r2, r3
 734 0028 01D1     		bne	.L73
 735              		.loc 1 93 0 is_stmt 0 discriminator 1
 736 002a 7B69     		ldr	r3, [r7, #20]
 737 002c 2DE0     		b	.L74
 738              	.L73:
  94:.\src/waterControl.c **** 		ret += conv_i2str(str + ret, len - ret, val[i]);
 739              		.loc 1 94 0 is_stmt 1
 740 002e 7B69     		ldr	r3, [r7, #20]
 741 0030 FA68     		ldr	r2, [r7, #12]
 742 0032 D118     		add	r1, r2, r3
 743 0034 BA68     		ldr	r2, [r7, #8]
 744 0036 7B69     		ldr	r3, [r7, #20]
 745 0038 D21A     		sub	r2, r2, r3
 746 003a 3B69     		ldr	r3, [r7, #16]
 747 003c 9B00     		lsl	r3, r3, #2
 748 003e 7868     		ldr	r0, [r7, #4]
 749 0040 C318     		add	r3, r0, r3
 750 0042 1B68     		ldr	r3, [r3]
 751 0044 081C     		mov	r0, r1
 752 0046 111C     		mov	r1, r2
 753 0048 1A1C     		mov	r2, r3
 754 004a FFF7FEFF 		bl	conv_i2str
 755 004e 031C     		mov	r3, r0
 756 0050 7A69     		ldr	r2, [r7, #20]
 757 0052 D318     		add	r3, r2, r3
 758 0054 7B61     		str	r3, [r7, #20]
  95:.\src/waterControl.c **** 		if(len - ret == 0) return ret;
 759              		.loc 1 95 0
 760 0056 BA68     		ldr	r2, [r7, #8]
ARM GAS  C:\Users\SDEVAS~1\AppData\Local\Temp\ccOTp3Ub.s 			page 16


 761 0058 7B69     		ldr	r3, [r7, #20]
 762 005a 9A42     		cmp	r2, r3
 763 005c 01D1     		bne	.L75
 764              		.loc 1 95 0 is_stmt 0 discriminator 1
 765 005e 7B69     		ldr	r3, [r7, #20]
 766 0060 13E0     		b	.L74
 767              	.L75:
  96:.\src/waterControl.c **** 		*(str + ret++) = ',';
 768              		.loc 1 96 0 is_stmt 1
 769 0062 7B69     		ldr	r3, [r7, #20]
 770 0064 5A1C     		add	r2, r3, #1
 771 0066 7A61     		str	r2, [r7, #20]
 772 0068 FA68     		ldr	r2, [r7, #12]
 773 006a D318     		add	r3, r2, r3
 774 006c 2C22     		mov	r2, #44
 775 006e 1A70     		strb	r2, [r3]
  92:.\src/waterControl.c **** 	for(; i < 4; i++) {
 776              		.loc 1 92 0
 777 0070 3B69     		ldr	r3, [r7, #16]
 778 0072 0133     		add	r3, r3, #1
 779 0074 3B61     		str	r3, [r7, #16]
 780              	.L72:
  92:.\src/waterControl.c **** 	for(; i < 4; i++) {
 781              		.loc 1 92 0 is_stmt 0 discriminator 1
 782 0076 3B69     		ldr	r3, [r7, #16]
 783 0078 032B     		cmp	r3, #3
 784 007a D2DD     		ble	.L76
  97:.\src/waterControl.c **** 	}
  98:.\src/waterControl.c **** 	*(str + ret - 1) = ']'; //change comma to ]
 785              		.loc 1 98 0 is_stmt 1
 786 007c 7B69     		ldr	r3, [r7, #20]
 787 007e 013B     		sub	r3, r3, #1
 788 0080 FA68     		ldr	r2, [r7, #12]
 789 0082 D318     		add	r3, r2, r3
 790 0084 5D22     		mov	r2, #93
 791 0086 1A70     		strb	r2, [r3]
  99:.\src/waterControl.c **** 	return ret;
 792              		.loc 1 99 0
 793 0088 7B69     		ldr	r3, [r7, #20]
 794              	.L74:
 100:.\src/waterControl.c **** }
 795              		.loc 1 100 0
 796 008a 181C     		mov	r0, r3
 797 008c BD46     		mov	sp, r7
 798 008e 06B0     		add	sp, sp, #24
 799              		@ sp needed
 800 0090 80BD     		pop	{r7, pc}
 801              		.cfi_endproc
 802              	.LFE53:
 803              		.size	conv_ia2str, .-conv_ia2str
 804 0092 C046     		.bss
 805              		.align	2
 806              	fttmparr:
 807 0000 00000000 		.space	16
 807      00000000 
 807      00000000 
 807      00000000 
ARM GAS  C:\Users\SDEVAS~1\AppData\Local\Temp\ccOTp3Ub.s 			page 17


 808              		.section	.text.conv_str2ia,"ax",%progbits
 809              		.align	2
 810              		.weak	conv_str2ia
 811              		.code	16
 812              		.thumb_func
 813              		.type	conv_str2ia, %function
 814              	conv_str2ia:
 815              	.LFB54:
 101:.\src/waterControl.c **** static int fttmparr[4];
 102:.\src/waterControl.c **** int * conv_str2ia(const char *str, int len) {
 816              		.loc 1 102 0
 817              		.cfi_startproc
 818 0000 80B5     		push	{r7, lr}
 819              		.cfi_def_cfa_offset 8
 820              		.cfi_offset 7, -8
 821              		.cfi_offset 14, -4
 822 0002 84B0     		sub	sp, sp, #16
 823              		.cfi_def_cfa_offset 24
 824 0004 00AF     		add	r7, sp, #0
 825              		.cfi_def_cfa_register 7
 826 0006 7860     		str	r0, [r7, #4]
 827 0008 3960     		str	r1, [r7]
 103:.\src/waterControl.c **** 	//this function is tailored for fertigation table, so int* size if equal 4!
 104:.\src/waterControl.c **** 	str++; len -= 2; //skip first and last char (its [ and ]); now we have ints separated by commas
 828              		.loc 1 104 0
 829 000a 7B68     		ldr	r3, [r7, #4]
 830 000c 0133     		add	r3, r3, #1
 831 000e 7B60     		str	r3, [r7, #4]
 832 0010 3B68     		ldr	r3, [r7]
 833 0012 023B     		sub	r3, r3, #2
 834 0014 3B60     		str	r3, [r7]
 105:.\src/waterControl.c **** 	int i = 0;
 835              		.loc 1 105 0
 836 0016 0023     		mov	r3, #0
 837 0018 FB60     		str	r3, [r7, #12]
 106:.\src/waterControl.c **** 	for(; i < 4; i++) {
 838              		.loc 1 106 0
 839 001a 28E0     		b	.L78
 840              	.L82:
 841              	.LBB2:
 107:.\src/waterControl.c **** 		int lentocomma = 0;
 842              		.loc 1 107 0
 843 001c 0023     		mov	r3, #0
 844 001e BB60     		str	r3, [r7, #8]
 108:.\src/waterControl.c **** 		while(str[lentocomma] != ',' && lentocomma != len) {
 845              		.loc 1 108 0
 846 0020 02E0     		b	.L79
 847              	.L81:
 109:.\src/waterControl.c **** 			lentocomma++;
 848              		.loc 1 109 0
 849 0022 BB68     		ldr	r3, [r7, #8]
 850 0024 0133     		add	r3, r3, #1
 851 0026 BB60     		str	r3, [r7, #8]
 852              	.L79:
 108:.\src/waterControl.c **** 		while(str[lentocomma] != ',' && lentocomma != len) {
 853              		.loc 1 108 0 discriminator 1
 854 0028 BB68     		ldr	r3, [r7, #8]
ARM GAS  C:\Users\SDEVAS~1\AppData\Local\Temp\ccOTp3Ub.s 			page 18


 855 002a 7A68     		ldr	r2, [r7, #4]
 856 002c D318     		add	r3, r2, r3
 857 002e 1B78     		ldrb	r3, [r3]
 858 0030 2C2B     		cmp	r3, #44
 859 0032 03D0     		beq	.L80
 108:.\src/waterControl.c **** 		while(str[lentocomma] != ',' && lentocomma != len) {
 860              		.loc 1 108 0 is_stmt 0 discriminator 2
 861 0034 BA68     		ldr	r2, [r7, #8]
 862 0036 3B68     		ldr	r3, [r7]
 863 0038 9A42     		cmp	r2, r3
 864 003a F2D1     		bne	.L81
 865              	.L80:
 110:.\src/waterControl.c **** 		}
 111:.\src/waterControl.c **** 		fttmparr[i] = conv_str2i(str, lentocomma);
 866              		.loc 1 111 0 is_stmt 1
 867 003c 7A68     		ldr	r2, [r7, #4]
 868 003e BB68     		ldr	r3, [r7, #8]
 869 0040 101C     		mov	r0, r2
 870 0042 191C     		mov	r1, r3
 871 0044 FFF7FEFF 		bl	conv_str2i
 872 0048 011C     		mov	r1, r0
 873 004a 0D4B     		ldr	r3, .L84
 874 004c FA68     		ldr	r2, [r7, #12]
 875 004e 9200     		lsl	r2, r2, #2
 876 0050 D150     		str	r1, [r2, r3]
 112:.\src/waterControl.c **** 		lentocomma++;
 877              		.loc 1 112 0
 878 0052 BB68     		ldr	r3, [r7, #8]
 879 0054 0133     		add	r3, r3, #1
 880 0056 BB60     		str	r3, [r7, #8]
 113:.\src/waterControl.c **** 		str += lentocomma;
 881              		.loc 1 113 0
 882 0058 BB68     		ldr	r3, [r7, #8]
 883 005a 7A68     		ldr	r2, [r7, #4]
 884 005c D318     		add	r3, r2, r3
 885 005e 7B60     		str	r3, [r7, #4]
 114:.\src/waterControl.c **** 		len -= lentocomma;
 886              		.loc 1 114 0
 887 0060 3A68     		ldr	r2, [r7]
 888 0062 BB68     		ldr	r3, [r7, #8]
 889 0064 D31A     		sub	r3, r2, r3
 890 0066 3B60     		str	r3, [r7]
 891              	.LBE2:
 106:.\src/waterControl.c **** 	for(; i < 4; i++) {
 892              		.loc 1 106 0
 893 0068 FB68     		ldr	r3, [r7, #12]
 894 006a 0133     		add	r3, r3, #1
 895 006c FB60     		str	r3, [r7, #12]
 896              	.L78:
 106:.\src/waterControl.c **** 	for(; i < 4; i++) {
 897              		.loc 1 106 0 is_stmt 0 discriminator 1
 898 006e FB68     		ldr	r3, [r7, #12]
 899 0070 032B     		cmp	r3, #3
 900 0072 D3DD     		ble	.L82
 115:.\src/waterControl.c **** 	}
 116:.\src/waterControl.c **** 	return fttmparr;
 901              		.loc 1 116 0 is_stmt 1
ARM GAS  C:\Users\SDEVAS~1\AppData\Local\Temp\ccOTp3Ub.s 			page 19


 902 0074 024B     		ldr	r3, .L84
 117:.\src/waterControl.c **** }
 903              		.loc 1 117 0
 904 0076 181C     		mov	r0, r3
 905 0078 BD46     		mov	sp, r7
 906 007a 04B0     		add	sp, sp, #16
 907              		@ sp needed
 908 007c 80BD     		pop	{r7, pc}
 909              	.L85:
 910 007e C046     		.align	2
 911              	.L84:
 912 0080 00000000 		.word	fttmparr
 913              		.cfi_endproc
 914              	.LFE54:
 915              		.size	conv_str2ia, .-conv_str2ia
 916              		.section	.text.setvar_notBefore,"ax",%progbits
 917              		.align	2
 918              		.global	setvar_notBefore
 919              		.code	16
 920              		.thumb_func
 921              		.type	setvar_notBefore, %function
 922              	setvar_notBefore:
 923              	.LFB55:
 118:.\src/waterControl.c **** 
 119:.\src/waterControl.c **** void setvar_notBefore(int val) {
 924              		.loc 1 119 0
 925              		.cfi_startproc
 926 0000 80B5     		push	{r7, lr}
 927              		.cfi_def_cfa_offset 8
 928              		.cfi_offset 7, -8
 929              		.cfi_offset 14, -4
 930 0002 82B0     		sub	sp, sp, #8
 931              		.cfi_def_cfa_offset 16
 932 0004 00AF     		add	r7, sp, #0
 933              		.cfi_def_cfa_register 7
 934 0006 7860     		str	r0, [r7, #4]
 120:.\src/waterControl.c **** 	water_data.NotBefore = val;
 935              		.loc 1 120 0
 936 0008 034A     		ldr	r2, .L87
 937 000a D823     		mov	r3, #216
 938 000c 7968     		ldr	r1, [r7, #4]
 939 000e D150     		str	r1, [r2, r3]
 121:.\src/waterControl.c **** }
 940              		.loc 1 121 0
 941 0010 BD46     		mov	sp, r7
 942 0012 02B0     		add	sp, sp, #8
 943              		@ sp needed
 944 0014 80BD     		pop	{r7, pc}
 945              	.L88:
 946 0016 C046     		.align	2
 947              	.L87:
 948 0018 00000000 		.word	water_data
 949              		.cfi_endproc
 950              	.LFE55:
 951              		.size	setvar_notBefore, .-setvar_notBefore
 952              		.section	.text.setvar_notAfter,"ax",%progbits
 953              		.align	2
ARM GAS  C:\Users\SDEVAS~1\AppData\Local\Temp\ccOTp3Ub.s 			page 20


 954              		.global	setvar_notAfter
 955              		.code	16
 956              		.thumb_func
 957              		.type	setvar_notAfter, %function
 958              	setvar_notAfter:
 959              	.LFB56:
 122:.\src/waterControl.c **** void setvar_notAfter(int val) {
 960              		.loc 1 122 0
 961              		.cfi_startproc
 962 0000 80B5     		push	{r7, lr}
 963              		.cfi_def_cfa_offset 8
 964              		.cfi_offset 7, -8
 965              		.cfi_offset 14, -4
 966 0002 82B0     		sub	sp, sp, #8
 967              		.cfi_def_cfa_offset 16
 968 0004 00AF     		add	r7, sp, #0
 969              		.cfi_def_cfa_register 7
 970 0006 7860     		str	r0, [r7, #4]
 123:.\src/waterControl.c **** 	water_data.NotAfter = val;
 971              		.loc 1 123 0
 972 0008 034A     		ldr	r2, .L90
 973 000a DC23     		mov	r3, #220
 974 000c 7968     		ldr	r1, [r7, #4]
 975 000e D150     		str	r1, [r2, r3]
 124:.\src/waterControl.c **** }
 976              		.loc 1 124 0
 977 0010 BD46     		mov	sp, r7
 978 0012 02B0     		add	sp, sp, #8
 979              		@ sp needed
 980 0014 80BD     		pop	{r7, pc}
 981              	.L91:
 982 0016 C046     		.align	2
 983              	.L90:
 984 0018 00000000 		.word	water_data
 985              		.cfi_endproc
 986              	.LFE56:
 987              		.size	setvar_notAfter, .-setvar_notAfter
 988              		.section	.text.setvar_dilutionFactorA,"ax",%progbits
 989              		.align	2
 990              		.global	setvar_dilutionFactorA
 991              		.code	16
 992              		.thumb_func
 993              		.type	setvar_dilutionFactorA, %function
 994              	setvar_dilutionFactorA:
 995              	.LFB57:
 125:.\src/waterControl.c **** void setvar_dilutionFactorA(int val) {
 996              		.loc 1 125 0
 997              		.cfi_startproc
 998 0000 80B5     		push	{r7, lr}
 999              		.cfi_def_cfa_offset 8
 1000              		.cfi_offset 7, -8
 1001              		.cfi_offset 14, -4
 1002 0002 82B0     		sub	sp, sp, #8
 1003              		.cfi_def_cfa_offset 16
 1004 0004 00AF     		add	r7, sp, #0
 1005              		.cfi_def_cfa_register 7
 1006 0006 7860     		str	r0, [r7, #4]
ARM GAS  C:\Users\SDEVAS~1\AppData\Local\Temp\ccOTp3Ub.s 			page 21


 126:.\src/waterControl.c **** 	water_data.DilutionFactorA = val;
 1007              		.loc 1 126 0
 1008 0008 034A     		ldr	r2, .L93
 1009 000a E023     		mov	r3, #224
 1010 000c 7968     		ldr	r1, [r7, #4]
 1011 000e D150     		str	r1, [r2, r3]
 127:.\src/waterControl.c **** }
 1012              		.loc 1 127 0
 1013 0010 BD46     		mov	sp, r7
 1014 0012 02B0     		add	sp, sp, #8
 1015              		@ sp needed
 1016 0014 80BD     		pop	{r7, pc}
 1017              	.L94:
 1018 0016 C046     		.align	2
 1019              	.L93:
 1020 0018 00000000 		.word	water_data
 1021              		.cfi_endproc
 1022              	.LFE57:
 1023              		.size	setvar_dilutionFactorA, .-setvar_dilutionFactorA
 1024              		.section	.text.setvar_dilutionFactorB,"ax",%progbits
 1025              		.align	2
 1026              		.global	setvar_dilutionFactorB
 1027              		.code	16
 1028              		.thumb_func
 1029              		.type	setvar_dilutionFactorB, %function
 1030              	setvar_dilutionFactorB:
 1031              	.LFB58:
 128:.\src/waterControl.c **** void setvar_dilutionFactorB(int val) {
 1032              		.loc 1 128 0
 1033              		.cfi_startproc
 1034 0000 80B5     		push	{r7, lr}
 1035              		.cfi_def_cfa_offset 8
 1036              		.cfi_offset 7, -8
 1037              		.cfi_offset 14, -4
 1038 0002 82B0     		sub	sp, sp, #8
 1039              		.cfi_def_cfa_offset 16
 1040 0004 00AF     		add	r7, sp, #0
 1041              		.cfi_def_cfa_register 7
 1042 0006 7860     		str	r0, [r7, #4]
 129:.\src/waterControl.c **** 	water_data.DilutionFactorB = val;
 1043              		.loc 1 129 0
 1044 0008 034A     		ldr	r2, .L96
 1045 000a E423     		mov	r3, #228
 1046 000c 7968     		ldr	r1, [r7, #4]
 1047 000e D150     		str	r1, [r2, r3]
 130:.\src/waterControl.c **** }
 1048              		.loc 1 130 0
 1049 0010 BD46     		mov	sp, r7
 1050 0012 02B0     		add	sp, sp, #8
 1051              		@ sp needed
 1052 0014 80BD     		pop	{r7, pc}
 1053              	.L97:
 1054 0016 C046     		.align	2
 1055              	.L96:
 1056 0018 00000000 		.word	water_data
 1057              		.cfi_endproc
 1058              	.LFE58:
ARM GAS  C:\Users\SDEVAS~1\AppData\Local\Temp\ccOTp3Ub.s 			page 22


 1059              		.size	setvar_dilutionFactorB, .-setvar_dilutionFactorB
 1060              		.section	.text.setvar_venturiSuctionA,"ax",%progbits
 1061              		.align	2
 1062              		.global	setvar_venturiSuctionA
 1063              		.code	16
 1064              		.thumb_func
 1065              		.type	setvar_venturiSuctionA, %function
 1066              	setvar_venturiSuctionA:
 1067              	.LFB59:
 131:.\src/waterControl.c **** void setvar_venturiSuctionA(int val) {
 1068              		.loc 1 131 0
 1069              		.cfi_startproc
 1070 0000 80B5     		push	{r7, lr}
 1071              		.cfi_def_cfa_offset 8
 1072              		.cfi_offset 7, -8
 1073              		.cfi_offset 14, -4
 1074 0002 82B0     		sub	sp, sp, #8
 1075              		.cfi_def_cfa_offset 16
 1076 0004 00AF     		add	r7, sp, #0
 1077              		.cfi_def_cfa_register 7
 1078 0006 7860     		str	r0, [r7, #4]
 132:.\src/waterControl.c **** 	water_data.VenturiSuctionA = val;
 1079              		.loc 1 132 0
 1080 0008 034A     		ldr	r2, .L99
 1081 000a E823     		mov	r3, #232
 1082 000c 7968     		ldr	r1, [r7, #4]
 1083 000e D150     		str	r1, [r2, r3]
 133:.\src/waterControl.c **** }
 1084              		.loc 1 133 0
 1085 0010 BD46     		mov	sp, r7
 1086 0012 02B0     		add	sp, sp, #8
 1087              		@ sp needed
 1088 0014 80BD     		pop	{r7, pc}
 1089              	.L100:
 1090 0016 C046     		.align	2
 1091              	.L99:
 1092 0018 00000000 		.word	water_data
 1093              		.cfi_endproc
 1094              	.LFE59:
 1095              		.size	setvar_venturiSuctionA, .-setvar_venturiSuctionA
 1096              		.section	.text.setvar_venturiSuctionB,"ax",%progbits
 1097              		.align	2
 1098              		.global	setvar_venturiSuctionB
 1099              		.code	16
 1100              		.thumb_func
 1101              		.type	setvar_venturiSuctionB, %function
 1102              	setvar_venturiSuctionB:
 1103              	.LFB60:
 134:.\src/waterControl.c **** void setvar_venturiSuctionB(int val) {
 1104              		.loc 1 134 0
 1105              		.cfi_startproc
 1106 0000 80B5     		push	{r7, lr}
 1107              		.cfi_def_cfa_offset 8
 1108              		.cfi_offset 7, -8
 1109              		.cfi_offset 14, -4
 1110 0002 82B0     		sub	sp, sp, #8
 1111              		.cfi_def_cfa_offset 16
ARM GAS  C:\Users\SDEVAS~1\AppData\Local\Temp\ccOTp3Ub.s 			page 23


 1112 0004 00AF     		add	r7, sp, #0
 1113              		.cfi_def_cfa_register 7
 1114 0006 7860     		str	r0, [r7, #4]
 135:.\src/waterControl.c **** 	water_data.VenturiSuctionB = val;
 1115              		.loc 1 135 0
 1116 0008 034A     		ldr	r2, .L102
 1117 000a EC23     		mov	r3, #236
 1118 000c 7968     		ldr	r1, [r7, #4]
 1119 000e D150     		str	r1, [r2, r3]
 136:.\src/waterControl.c **** }
 1120              		.loc 1 136 0
 1121 0010 BD46     		mov	sp, r7
 1122 0012 02B0     		add	sp, sp, #8
 1123              		@ sp needed
 1124 0014 80BD     		pop	{r7, pc}
 1125              	.L103:
 1126 0016 C046     		.align	2
 1127              	.L102:
 1128 0018 00000000 		.word	water_data
 1129              		.cfi_endproc
 1130              	.LFE60:
 1131              		.size	setvar_venturiSuctionB, .-setvar_venturiSuctionB
 1132              		.section	.text.setvar_squareMeters,"ax",%progbits
 1133              		.align	2
 1134              		.global	setvar_squareMeters
 1135              		.code	16
 1136              		.thumb_func
 1137              		.type	setvar_squareMeters, %function
 1138              	setvar_squareMeters:
 1139              	.LFB61:
 137:.\src/waterControl.c **** void setvar_squareMeters(int val) {
 1140              		.loc 1 137 0
 1141              		.cfi_startproc
 1142 0000 80B5     		push	{r7, lr}
 1143              		.cfi_def_cfa_offset 8
 1144              		.cfi_offset 7, -8
 1145              		.cfi_offset 14, -4
 1146 0002 82B0     		sub	sp, sp, #8
 1147              		.cfi_def_cfa_offset 16
 1148 0004 00AF     		add	r7, sp, #0
 1149              		.cfi_def_cfa_register 7
 1150 0006 7860     		str	r0, [r7, #4]
 138:.\src/waterControl.c **** 	water_data.SquareMeters = val;
 1151              		.loc 1 138 0
 1152 0008 034A     		ldr	r2, .L105
 1153 000a F023     		mov	r3, #240
 1154 000c 7968     		ldr	r1, [r7, #4]
 1155 000e D150     		str	r1, [r2, r3]
 139:.\src/waterControl.c **** }
 1156              		.loc 1 139 0
 1157 0010 BD46     		mov	sp, r7
 1158 0012 02B0     		add	sp, sp, #8
 1159              		@ sp needed
 1160 0014 80BD     		pop	{r7, pc}
 1161              	.L106:
 1162 0016 C046     		.align	2
 1163              	.L105:
ARM GAS  C:\Users\SDEVAS~1\AppData\Local\Temp\ccOTp3Ub.s 			page 24


 1164 0018 00000000 		.word	water_data
 1165              		.cfi_endproc
 1166              	.LFE61:
 1167              		.size	setvar_squareMeters, .-setvar_squareMeters
 1168              		.section	.text.setvar_lPerSqMeterPerDay,"ax",%progbits
 1169              		.align	2
 1170              		.global	setvar_lPerSqMeterPerDay
 1171              		.code	16
 1172              		.thumb_func
 1173              		.type	setvar_lPerSqMeterPerDay, %function
 1174              	setvar_lPerSqMeterPerDay:
 1175              	.LFB62:
 140:.\src/waterControl.c **** void setvar_lPerSqMeterPerDay(int val) {
 1176              		.loc 1 140 0
 1177              		.cfi_startproc
 1178 0000 80B5     		push	{r7, lr}
 1179              		.cfi_def_cfa_offset 8
 1180              		.cfi_offset 7, -8
 1181              		.cfi_offset 14, -4
 1182 0002 82B0     		sub	sp, sp, #8
 1183              		.cfi_def_cfa_offset 16
 1184 0004 00AF     		add	r7, sp, #0
 1185              		.cfi_def_cfa_register 7
 1186 0006 7860     		str	r0, [r7, #4]
 141:.\src/waterControl.c **** 	water_data.LperSqMeterPerDay = val;
 1187              		.loc 1 141 0
 1188 0008 034A     		ldr	r2, .L108
 1189 000a F423     		mov	r3, #244
 1190 000c 7968     		ldr	r1, [r7, #4]
 1191 000e D150     		str	r1, [r2, r3]
 142:.\src/waterControl.c **** }
 1192              		.loc 1 142 0
 1193 0010 BD46     		mov	sp, r7
 1194 0012 02B0     		add	sp, sp, #8
 1195              		@ sp needed
 1196 0014 80BD     		pop	{r7, pc}
 1197              	.L109:
 1198 0016 C046     		.align	2
 1199              	.L108:
 1200 0018 00000000 		.word	water_data
 1201              		.cfi_endproc
 1202              	.LFE62:
 1203              		.size	setvar_lPerSqMeterPerDay, .-setvar_lPerSqMeterPerDay
 1204              		.section	.text.setvar_cropType,"ax",%progbits
 1205              		.align	2
 1206              		.global	setvar_cropType
 1207              		.code	16
 1208              		.thumb_func
 1209              		.type	setvar_cropType, %function
 1210              	setvar_cropType:
 1211              	.LFB63:
 143:.\src/waterControl.c **** void setvar_cropType(int val) { /*read only*/ }
 1212              		.loc 1 143 0
 1213              		.cfi_startproc
 1214 0000 80B5     		push	{r7, lr}
 1215              		.cfi_def_cfa_offset 8
 1216              		.cfi_offset 7, -8
ARM GAS  C:\Users\SDEVAS~1\AppData\Local\Temp\ccOTp3Ub.s 			page 25


 1217              		.cfi_offset 14, -4
 1218 0002 82B0     		sub	sp, sp, #8
 1219              		.cfi_def_cfa_offset 16
 1220 0004 00AF     		add	r7, sp, #0
 1221              		.cfi_def_cfa_register 7
 1222 0006 7860     		str	r0, [r7, #4]
 1223              		.loc 1 143 0
 1224 0008 BD46     		mov	sp, r7
 1225 000a 02B0     		add	sp, sp, #8
 1226              		@ sp needed
 1227 000c 80BD     		pop	{r7, pc}
 1228              		.cfi_endproc
 1229              	.LFE63:
 1230              		.size	setvar_cropType, .-setvar_cropType
 1231 000e C046     		.section	.text.setvar_innerPressure,"ax",%progbits
 1232              		.align	2
 1233              		.global	setvar_innerPressure
 1234              		.code	16
 1235              		.thumb_func
 1236              		.type	setvar_innerPressure, %function
 1237              	setvar_innerPressure:
 1238              	.LFB64:
 144:.\src/waterControl.c **** 
 145:.\src/waterControl.c **** void setvar_innerPressure(int val) { /*read only*/ }
 1239              		.loc 1 145 0
 1240              		.cfi_startproc
 1241 0000 80B5     		push	{r7, lr}
 1242              		.cfi_def_cfa_offset 8
 1243              		.cfi_offset 7, -8
 1244              		.cfi_offset 14, -4
 1245 0002 82B0     		sub	sp, sp, #8
 1246              		.cfi_def_cfa_offset 16
 1247 0004 00AF     		add	r7, sp, #0
 1248              		.cfi_def_cfa_register 7
 1249 0006 7860     		str	r0, [r7, #4]
 1250              		.loc 1 145 0
 1251 0008 BD46     		mov	sp, r7
 1252 000a 02B0     		add	sp, sp, #8
 1253              		@ sp needed
 1254 000c 80BD     		pop	{r7, pc}
 1255              		.cfi_endproc
 1256              	.LFE64:
 1257              		.size	setvar_innerPressure, .-setvar_innerPressure
 1258 000e C046     		.section	.text.setvar_outerPressure,"ax",%progbits
 1259              		.align	2
 1260              		.global	setvar_outerPressure
 1261              		.code	16
 1262              		.thumb_func
 1263              		.type	setvar_outerPressure, %function
 1264              	setvar_outerPressure:
 1265              	.LFB65:
 146:.\src/waterControl.c **** void setvar_outerPressure(int val) { /*read only*/ }
 1266              		.loc 1 146 0
 1267              		.cfi_startproc
 1268 0000 80B5     		push	{r7, lr}
 1269              		.cfi_def_cfa_offset 8
 1270              		.cfi_offset 7, -8
ARM GAS  C:\Users\SDEVAS~1\AppData\Local\Temp\ccOTp3Ub.s 			page 26


 1271              		.cfi_offset 14, -4
 1272 0002 82B0     		sub	sp, sp, #8
 1273              		.cfi_def_cfa_offset 16
 1274 0004 00AF     		add	r7, sp, #0
 1275              		.cfi_def_cfa_register 7
 1276 0006 7860     		str	r0, [r7, #4]
 1277              		.loc 1 146 0
 1278 0008 BD46     		mov	sp, r7
 1279 000a 02B0     		add	sp, sp, #8
 1280              		@ sp needed
 1281 000c 80BD     		pop	{r7, pc}
 1282              		.cfi_endproc
 1283              	.LFE65:
 1284              		.size	setvar_outerPressure, .-setvar_outerPressure
 1285 000e C046     		.section	.text.setvar_currentFlow,"ax",%progbits
 1286              		.align	2
 1287              		.global	setvar_currentFlow
 1288              		.code	16
 1289              		.thumb_func
 1290              		.type	setvar_currentFlow, %function
 1291              	setvar_currentFlow:
 1292              	.LFB66:
 147:.\src/waterControl.c **** void setvar_currentFlow(int val) { /*read only*/ }
 1293              		.loc 1 147 0
 1294              		.cfi_startproc
 1295 0000 80B5     		push	{r7, lr}
 1296              		.cfi_def_cfa_offset 8
 1297              		.cfi_offset 7, -8
 1298              		.cfi_offset 14, -4
 1299 0002 82B0     		sub	sp, sp, #8
 1300              		.cfi_def_cfa_offset 16
 1301 0004 00AF     		add	r7, sp, #0
 1302              		.cfi_def_cfa_register 7
 1303 0006 7860     		str	r0, [r7, #4]
 1304              		.loc 1 147 0
 1305 0008 BD46     		mov	sp, r7
 1306 000a 02B0     		add	sp, sp, #8
 1307              		@ sp needed
 1308 000c 80BD     		pop	{r7, pc}
 1309              		.cfi_endproc
 1310              	.LFE66:
 1311              		.size	setvar_currentFlow, .-setvar_currentFlow
 1312 000e C046     		.section	.text.setvar_totalVolume,"ax",%progbits
 1313              		.align	2
 1314              		.global	setvar_totalVolume
 1315              		.code	16
 1316              		.thumb_func
 1317              		.type	setvar_totalVolume, %function
 1318              	setvar_totalVolume:
 1319              	.LFB67:
 148:.\src/waterControl.c **** void setvar_totalVolume(int val) { /*read only*/ }
 1320              		.loc 1 148 0
 1321              		.cfi_startproc
 1322 0000 80B5     		push	{r7, lr}
 1323              		.cfi_def_cfa_offset 8
 1324              		.cfi_offset 7, -8
 1325              		.cfi_offset 14, -4
ARM GAS  C:\Users\SDEVAS~1\AppData\Local\Temp\ccOTp3Ub.s 			page 27


 1326 0002 82B0     		sub	sp, sp, #8
 1327              		.cfi_def_cfa_offset 16
 1328 0004 00AF     		add	r7, sp, #0
 1329              		.cfi_def_cfa_register 7
 1330 0006 7860     		str	r0, [r7, #4]
 1331              		.loc 1 148 0
 1332 0008 BD46     		mov	sp, r7
 1333 000a 02B0     		add	sp, sp, #8
 1334              		@ sp needed
 1335 000c 80BD     		pop	{r7, pc}
 1336              		.cfi_endproc
 1337              	.LFE67:
 1338              		.size	setvar_totalVolume, .-setvar_totalVolume
 1339 000e C046     		.section	.text.setvar_valveStatus,"ax",%progbits
 1340              		.align	2
 1341              		.global	setvar_valveStatus
 1342              		.code	16
 1343              		.thumb_func
 1344              		.type	setvar_valveStatus, %function
 1345              	setvar_valveStatus:
 1346              	.LFB68:
 149:.\src/waterControl.c **** void setvar_valveStatus(int val) { /*read only*/ }
 1347              		.loc 1 149 0
 1348              		.cfi_startproc
 1349 0000 80B5     		push	{r7, lr}
 1350              		.cfi_def_cfa_offset 8
 1351              		.cfi_offset 7, -8
 1352              		.cfi_offset 14, -4
 1353 0002 82B0     		sub	sp, sp, #8
 1354              		.cfi_def_cfa_offset 16
 1355 0004 00AF     		add	r7, sp, #0
 1356              		.cfi_def_cfa_register 7
 1357 0006 7860     		str	r0, [r7, #4]
 1358              		.loc 1 149 0
 1359 0008 BD46     		mov	sp, r7
 1360 000a 02B0     		add	sp, sp, #8
 1361              		@ sp needed
 1362 000c 80BD     		pop	{r7, pc}
 1363              		.cfi_endproc
 1364              	.LFE68:
 1365              		.size	setvar_valveStatus, .-setvar_valveStatus
 1366 000e C046     		.section	.text.setvar_lastStartNumber,"ax",%progbits
 1367              		.align	2
 1368              		.global	setvar_lastStartNumber
 1369              		.code	16
 1370              		.thumb_func
 1371              		.type	setvar_lastStartNumber, %function
 1372              	setvar_lastStartNumber:
 1373              	.LFB69:
 150:.\src/waterControl.c **** void setvar_lastStartNumber(int val) { /*read only*/ }
 1374              		.loc 1 150 0
 1375              		.cfi_startproc
 1376 0000 80B5     		push	{r7, lr}
 1377              		.cfi_def_cfa_offset 8
 1378              		.cfi_offset 7, -8
 1379              		.cfi_offset 14, -4
 1380 0002 82B0     		sub	sp, sp, #8
ARM GAS  C:\Users\SDEVAS~1\AppData\Local\Temp\ccOTp3Ub.s 			page 28


 1381              		.cfi_def_cfa_offset 16
 1382 0004 00AF     		add	r7, sp, #0
 1383              		.cfi_def_cfa_register 7
 1384 0006 7860     		str	r0, [r7, #4]
 1385              		.loc 1 150 0
 1386 0008 BD46     		mov	sp, r7
 1387 000a 02B0     		add	sp, sp, #8
 1388              		@ sp needed
 1389 000c 80BD     		pop	{r7, pc}
 1390              		.cfi_endproc
 1391              	.LFE69:
 1392              		.size	setvar_lastStartNumber, .-setvar_lastStartNumber
 1393 000e C046     		.section	.text.setvar_lastStartVolume,"ax",%progbits
 1394              		.align	2
 1395              		.global	setvar_lastStartVolume
 1396              		.code	16
 1397              		.thumb_func
 1398              		.type	setvar_lastStartVolume, %function
 1399              	setvar_lastStartVolume:
 1400              	.LFB70:
 151:.\src/waterControl.c **** void setvar_lastStartVolume(int val) { /*read only*/ }
 1401              		.loc 1 151 0
 1402              		.cfi_startproc
 1403 0000 80B5     		push	{r7, lr}
 1404              		.cfi_def_cfa_offset 8
 1405              		.cfi_offset 7, -8
 1406              		.cfi_offset 14, -4
 1407 0002 82B0     		sub	sp, sp, #8
 1408              		.cfi_def_cfa_offset 16
 1409 0004 00AF     		add	r7, sp, #0
 1410              		.cfi_def_cfa_register 7
 1411 0006 7860     		str	r0, [r7, #4]
 1412              		.loc 1 151 0
 1413 0008 BD46     		mov	sp, r7
 1414 000a 02B0     		add	sp, sp, #8
 1415              		@ sp needed
 1416 000c 80BD     		pop	{r7, pc}
 1417              		.cfi_endproc
 1418              	.LFE70:
 1419              		.size	setvar_lastStartVolume, .-setvar_lastStartVolume
 1420 000e C046     		.section	.text.setvar_lastStartFlow,"ax",%progbits
 1421              		.align	2
 1422              		.global	setvar_lastStartFlow
 1423              		.code	16
 1424              		.thumb_func
 1425              		.type	setvar_lastStartFlow, %function
 1426              	setvar_lastStartFlow:
 1427              	.LFB71:
 152:.\src/waterControl.c **** void setvar_lastStartFlow(int val) { /*read only*/ }
 1428              		.loc 1 152 0
 1429              		.cfi_startproc
 1430 0000 80B5     		push	{r7, lr}
 1431              		.cfi_def_cfa_offset 8
 1432              		.cfi_offset 7, -8
 1433              		.cfi_offset 14, -4
 1434 0002 82B0     		sub	sp, sp, #8
 1435              		.cfi_def_cfa_offset 16
ARM GAS  C:\Users\SDEVAS~1\AppData\Local\Temp\ccOTp3Ub.s 			page 29


 1436 0004 00AF     		add	r7, sp, #0
 1437              		.cfi_def_cfa_register 7
 1438 0006 7860     		str	r0, [r7, #4]
 1439              		.loc 1 152 0
 1440 0008 BD46     		mov	sp, r7
 1441 000a 02B0     		add	sp, sp, #8
 1442              		@ sp needed
 1443 000c 80BD     		pop	{r7, pc}
 1444              		.cfi_endproc
 1445              	.LFE71:
 1446              		.size	setvar_lastStartFlow, .-setvar_lastStartFlow
 1447 000e C046     		.section	.text.setvar_startTime,"ax",%progbits
 1448              		.align	2
 1449              		.global	setvar_startTime
 1450              		.code	16
 1451              		.thumb_func
 1452              		.type	setvar_startTime, %function
 1453              	setvar_startTime:
 1454              	.LFB72:
 153:.\src/waterControl.c **** void setvar_startTime(int val) {
 1455              		.loc 1 153 0
 1456              		.cfi_startproc
 1457 0000 80B5     		push	{r7, lr}
 1458              		.cfi_def_cfa_offset 8
 1459              		.cfi_offset 7, -8
 1460              		.cfi_offset 14, -4
 1461 0002 82B0     		sub	sp, sp, #8
 1462              		.cfi_def_cfa_offset 16
 1463 0004 00AF     		add	r7, sp, #0
 1464              		.cfi_def_cfa_register 7
 1465 0006 7860     		str	r0, [r7, #4]
 154:.\src/waterControl.c **** 	water_data.StartTime = val;
 1466              		.loc 1 154 0
 1467 0008 024B     		ldr	r3, .L120
 1468 000a 7A68     		ldr	r2, [r7, #4]
 1469 000c 1A62     		str	r2, [r3, #32]
 155:.\src/waterControl.c **** }
 1470              		.loc 1 155 0
 1471 000e BD46     		mov	sp, r7
 1472 0010 02B0     		add	sp, sp, #8
 1473              		@ sp needed
 1474 0012 80BD     		pop	{r7, pc}
 1475              	.L121:
 1476              		.align	2
 1477              	.L120:
 1478 0014 00000000 		.word	water_data
 1479              		.cfi_endproc
 1480              	.LFE72:
 1481              		.size	setvar_startTime, .-setvar_startTime
 1482              		.section	.text.setvar_stopTime,"ax",%progbits
 1483              		.align	2
 1484              		.global	setvar_stopTime
 1485              		.code	16
 1486              		.thumb_func
 1487              		.type	setvar_stopTime, %function
 1488              	setvar_stopTime:
 1489              	.LFB73:
ARM GAS  C:\Users\SDEVAS~1\AppData\Local\Temp\ccOTp3Ub.s 			page 30


 156:.\src/waterControl.c **** void setvar_stopTime(int val) {
 1490              		.loc 1 156 0
 1491              		.cfi_startproc
 1492 0000 80B5     		push	{r7, lr}
 1493              		.cfi_def_cfa_offset 8
 1494              		.cfi_offset 7, -8
 1495              		.cfi_offset 14, -4
 1496 0002 82B0     		sub	sp, sp, #8
 1497              		.cfi_def_cfa_offset 16
 1498 0004 00AF     		add	r7, sp, #0
 1499              		.cfi_def_cfa_register 7
 1500 0006 7860     		str	r0, [r7, #4]
 157:.\src/waterControl.c **** 	water_data.StopTime = val;
 1501              		.loc 1 157 0
 1502 0008 024B     		ldr	r3, .L123
 1503 000a 7A68     		ldr	r2, [r7, #4]
 1504 000c 5A62     		str	r2, [r3, #36]
 158:.\src/waterControl.c **** }
 1505              		.loc 1 158 0
 1506 000e BD46     		mov	sp, r7
 1507 0010 02B0     		add	sp, sp, #8
 1508              		@ sp needed
 1509 0012 80BD     		pop	{r7, pc}
 1510              	.L124:
 1511              		.align	2
 1512              	.L123:
 1513 0014 00000000 		.word	water_data
 1514              		.cfi_endproc
 1515              	.LFE73:
 1516              		.size	setvar_stopTime, .-setvar_stopTime
 1517              		.section	.text.setvar_numStarts,"ax",%progbits
 1518              		.align	2
 1519              		.global	setvar_numStarts
 1520              		.code	16
 1521              		.thumb_func
 1522              		.type	setvar_numStarts, %function
 1523              	setvar_numStarts:
 1524              	.LFB74:
 159:.\src/waterControl.c **** void setvar_numStarts(int val) {
 1525              		.loc 1 159 0
 1526              		.cfi_startproc
 1527 0000 80B5     		push	{r7, lr}
 1528              		.cfi_def_cfa_offset 8
 1529              		.cfi_offset 7, -8
 1530              		.cfi_offset 14, -4
 1531 0002 82B0     		sub	sp, sp, #8
 1532              		.cfi_def_cfa_offset 16
 1533 0004 00AF     		add	r7, sp, #0
 1534              		.cfi_def_cfa_register 7
 1535 0006 7860     		str	r0, [r7, #4]
 160:.\src/waterControl.c **** 	water_data.NumStarts = val;
 1536              		.loc 1 160 0
 1537 0008 024B     		ldr	r3, .L126
 1538 000a 7A68     		ldr	r2, [r7, #4]
 1539 000c 9A62     		str	r2, [r3, #40]
 161:.\src/waterControl.c **** }
 1540              		.loc 1 161 0
ARM GAS  C:\Users\SDEVAS~1\AppData\Local\Temp\ccOTp3Ub.s 			page 31


 1541 000e BD46     		mov	sp, r7
 1542 0010 02B0     		add	sp, sp, #8
 1543              		@ sp needed
 1544 0012 80BD     		pop	{r7, pc}
 1545              	.L127:
 1546              		.align	2
 1547              	.L126:
 1548 0014 00000000 		.word	water_data
 1549              		.cfi_endproc
 1550              	.LFE74:
 1551              		.size	setvar_numStarts, .-setvar_numStarts
 1552              		.section	.text.setvar_volPerStart,"ax",%progbits
 1553              		.align	2
 1554              		.global	setvar_volPerStart
 1555              		.code	16
 1556              		.thumb_func
 1557              		.type	setvar_volPerStart, %function
 1558              	setvar_volPerStart:
 1559              	.LFB75:
 162:.\src/waterControl.c **** void setvar_volPerStart(int val) {
 1560              		.loc 1 162 0
 1561              		.cfi_startproc
 1562 0000 80B5     		push	{r7, lr}
 1563              		.cfi_def_cfa_offset 8
 1564              		.cfi_offset 7, -8
 1565              		.cfi_offset 14, -4
 1566 0002 82B0     		sub	sp, sp, #8
 1567              		.cfi_def_cfa_offset 16
 1568 0004 00AF     		add	r7, sp, #0
 1569              		.cfi_def_cfa_register 7
 1570 0006 7860     		str	r0, [r7, #4]
 163:.\src/waterControl.c **** 	water_data.VolPerStart = val;
 1571              		.loc 1 163 0
 1572 0008 024B     		ldr	r3, .L129
 1573 000a 7A68     		ldr	r2, [r7, #4]
 1574 000c DA62     		str	r2, [r3, #44]
 164:.\src/waterControl.c **** }
 1575              		.loc 1 164 0
 1576 000e BD46     		mov	sp, r7
 1577 0010 02B0     		add	sp, sp, #8
 1578              		@ sp needed
 1579 0012 80BD     		pop	{r7, pc}
 1580              	.L130:
 1581              		.align	2
 1582              	.L129:
 1583 0014 00000000 		.word	water_data
 1584              		.cfi_endproc
 1585              	.LFE75:
 1586              		.size	setvar_volPerStart, .-setvar_volPerStart
 1587              		.section	.text.setvar_maxVol,"ax",%progbits
 1588              		.align	2
 1589              		.global	setvar_maxVol
 1590              		.code	16
 1591              		.thumb_func
 1592              		.type	setvar_maxVol, %function
 1593              	setvar_maxVol:
 1594              	.LFB76:
ARM GAS  C:\Users\SDEVAS~1\AppData\Local\Temp\ccOTp3Ub.s 			page 32


 165:.\src/waterControl.c **** void setvar_maxVol(int val) {
 1595              		.loc 1 165 0
 1596              		.cfi_startproc
 1597 0000 80B5     		push	{r7, lr}
 1598              		.cfi_def_cfa_offset 8
 1599              		.cfi_offset 7, -8
 1600              		.cfi_offset 14, -4
 1601 0002 82B0     		sub	sp, sp, #8
 1602              		.cfi_def_cfa_offset 16
 1603 0004 00AF     		add	r7, sp, #0
 1604              		.cfi_def_cfa_register 7
 1605 0006 7860     		str	r0, [r7, #4]
 166:.\src/waterControl.c **** 	water_data.MaxVol = val;
 1606              		.loc 1 166 0
 1607 0008 024B     		ldr	r3, .L132
 1608 000a 7A68     		ldr	r2, [r7, #4]
 1609 000c 1A63     		str	r2, [r3, #48]
 167:.\src/waterControl.c **** }
 1610              		.loc 1 167 0
 1611 000e BD46     		mov	sp, r7
 1612 0010 02B0     		add	sp, sp, #8
 1613              		@ sp needed
 1614 0012 80BD     		pop	{r7, pc}
 1615              	.L133:
 1616              		.align	2
 1617              	.L132:
 1618 0014 00000000 		.word	water_data
 1619              		.cfi_endproc
 1620              	.LFE76:
 1621              		.size	setvar_maxVol, .-setvar_maxVol
 1622              		.section	.text.setvar_minVol,"ax",%progbits
 1623              		.align	2
 1624              		.global	setvar_minVol
 1625              		.code	16
 1626              		.thumb_func
 1627              		.type	setvar_minVol, %function
 1628              	setvar_minVol:
 1629              	.LFB77:
 168:.\src/waterControl.c **** void setvar_minVol(int val) {
 1630              		.loc 1 168 0
 1631              		.cfi_startproc
 1632 0000 80B5     		push	{r7, lr}
 1633              		.cfi_def_cfa_offset 8
 1634              		.cfi_offset 7, -8
 1635              		.cfi_offset 14, -4
 1636 0002 82B0     		sub	sp, sp, #8
 1637              		.cfi_def_cfa_offset 16
 1638 0004 00AF     		add	r7, sp, #0
 1639              		.cfi_def_cfa_register 7
 1640 0006 7860     		str	r0, [r7, #4]
 169:.\src/waterControl.c **** 	water_data.MinVol = val;
 1641              		.loc 1 169 0
 1642 0008 024B     		ldr	r3, .L135
 1643 000a 7A68     		ldr	r2, [r7, #4]
 1644 000c 5A63     		str	r2, [r3, #52]
 170:.\src/waterControl.c **** }
 1645              		.loc 1 170 0
ARM GAS  C:\Users\SDEVAS~1\AppData\Local\Temp\ccOTp3Ub.s 			page 33


 1646 000e BD46     		mov	sp, r7
 1647 0010 02B0     		add	sp, sp, #8
 1648              		@ sp needed
 1649 0012 80BD     		pop	{r7, pc}
 1650              	.L136:
 1651              		.align	2
 1652              	.L135:
 1653 0014 00000000 		.word	water_data
 1654              		.cfi_endproc
 1655              	.LFE77:
 1656              		.size	setvar_minVol, .-setvar_minVol
 1657              		.section	.text.getvar_notBefore,"ax",%progbits
 1658              		.align	2
 1659              		.global	getvar_notBefore
 1660              		.code	16
 1661              		.thumb_func
 1662              		.type	getvar_notBefore, %function
 1663              	getvar_notBefore:
 1664              	.LFB78:
 171:.\src/waterControl.c **** 
 172:.\src/waterControl.c **** int getvar_notBefore(void) { return water_data.NotBefore; }
 1665              		.loc 1 172 0
 1666              		.cfi_startproc
 1667 0000 80B5     		push	{r7, lr}
 1668              		.cfi_def_cfa_offset 8
 1669              		.cfi_offset 7, -8
 1670              		.cfi_offset 14, -4
 1671 0002 00AF     		add	r7, sp, #0
 1672              		.cfi_def_cfa_register 7
 1673              		.loc 1 172 0
 1674 0004 024A     		ldr	r2, .L139
 1675 0006 D823     		mov	r3, #216
 1676 0008 D358     		ldr	r3, [r2, r3]
 1677 000a 181C     		mov	r0, r3
 1678 000c BD46     		mov	sp, r7
 1679              		@ sp needed
 1680 000e 80BD     		pop	{r7, pc}
 1681              	.L140:
 1682              		.align	2
 1683              	.L139:
 1684 0010 00000000 		.word	water_data
 1685              		.cfi_endproc
 1686              	.LFE78:
 1687              		.size	getvar_notBefore, .-getvar_notBefore
 1688              		.section	.text.getvar_notAfter,"ax",%progbits
 1689              		.align	2
 1690              		.global	getvar_notAfter
 1691              		.code	16
 1692              		.thumb_func
 1693              		.type	getvar_notAfter, %function
 1694              	getvar_notAfter:
 1695              	.LFB79:
 173:.\src/waterControl.c **** int getvar_notAfter(void) { return water_data.NotAfter; }
 1696              		.loc 1 173 0
 1697              		.cfi_startproc
 1698 0000 80B5     		push	{r7, lr}
 1699              		.cfi_def_cfa_offset 8
ARM GAS  C:\Users\SDEVAS~1\AppData\Local\Temp\ccOTp3Ub.s 			page 34


 1700              		.cfi_offset 7, -8
 1701              		.cfi_offset 14, -4
 1702 0002 00AF     		add	r7, sp, #0
 1703              		.cfi_def_cfa_register 7
 1704              		.loc 1 173 0
 1705 0004 024A     		ldr	r2, .L143
 1706 0006 DC23     		mov	r3, #220
 1707 0008 D358     		ldr	r3, [r2, r3]
 1708 000a 181C     		mov	r0, r3
 1709 000c BD46     		mov	sp, r7
 1710              		@ sp needed
 1711 000e 80BD     		pop	{r7, pc}
 1712              	.L144:
 1713              		.align	2
 1714              	.L143:
 1715 0010 00000000 		.word	water_data
 1716              		.cfi_endproc
 1717              	.LFE79:
 1718              		.size	getvar_notAfter, .-getvar_notAfter
 1719              		.section	.text.getvar_dilutionFactorA,"ax",%progbits
 1720              		.align	2
 1721              		.global	getvar_dilutionFactorA
 1722              		.code	16
 1723              		.thumb_func
 1724              		.type	getvar_dilutionFactorA, %function
 1725              	getvar_dilutionFactorA:
 1726              	.LFB80:
 174:.\src/waterControl.c **** int getvar_dilutionFactorA(void) { return water_data.DilutionFactorA; }
 1727              		.loc 1 174 0
 1728              		.cfi_startproc
 1729 0000 80B5     		push	{r7, lr}
 1730              		.cfi_def_cfa_offset 8
 1731              		.cfi_offset 7, -8
 1732              		.cfi_offset 14, -4
 1733 0002 00AF     		add	r7, sp, #0
 1734              		.cfi_def_cfa_register 7
 1735              		.loc 1 174 0
 1736 0004 024A     		ldr	r2, .L147
 1737 0006 E023     		mov	r3, #224
 1738 0008 D358     		ldr	r3, [r2, r3]
 1739 000a 181C     		mov	r0, r3
 1740 000c BD46     		mov	sp, r7
 1741              		@ sp needed
 1742 000e 80BD     		pop	{r7, pc}
 1743              	.L148:
 1744              		.align	2
 1745              	.L147:
 1746 0010 00000000 		.word	water_data
 1747              		.cfi_endproc
 1748              	.LFE80:
 1749              		.size	getvar_dilutionFactorA, .-getvar_dilutionFactorA
 1750              		.section	.text.getvar_dilutionFactorB,"ax",%progbits
 1751              		.align	2
 1752              		.global	getvar_dilutionFactorB
 1753              		.code	16
 1754              		.thumb_func
 1755              		.type	getvar_dilutionFactorB, %function
ARM GAS  C:\Users\SDEVAS~1\AppData\Local\Temp\ccOTp3Ub.s 			page 35


 1756              	getvar_dilutionFactorB:
 1757              	.LFB81:
 175:.\src/waterControl.c **** int getvar_dilutionFactorB(void) { return water_data.DilutionFactorB; }
 1758              		.loc 1 175 0
 1759              		.cfi_startproc
 1760 0000 80B5     		push	{r7, lr}
 1761              		.cfi_def_cfa_offset 8
 1762              		.cfi_offset 7, -8
 1763              		.cfi_offset 14, -4
 1764 0002 00AF     		add	r7, sp, #0
 1765              		.cfi_def_cfa_register 7
 1766              		.loc 1 175 0
 1767 0004 024A     		ldr	r2, .L151
 1768 0006 E423     		mov	r3, #228
 1769 0008 D358     		ldr	r3, [r2, r3]
 1770 000a 181C     		mov	r0, r3
 1771 000c BD46     		mov	sp, r7
 1772              		@ sp needed
 1773 000e 80BD     		pop	{r7, pc}
 1774              	.L152:
 1775              		.align	2
 1776              	.L151:
 1777 0010 00000000 		.word	water_data
 1778              		.cfi_endproc
 1779              	.LFE81:
 1780              		.size	getvar_dilutionFactorB, .-getvar_dilutionFactorB
 1781              		.section	.text.getvar_venturiSuctionA,"ax",%progbits
 1782              		.align	2
 1783              		.global	getvar_venturiSuctionA
 1784              		.code	16
 1785              		.thumb_func
 1786              		.type	getvar_venturiSuctionA, %function
 1787              	getvar_venturiSuctionA:
 1788              	.LFB82:
 176:.\src/waterControl.c **** int getvar_venturiSuctionA(void) { return water_data.VenturiSuctionA; }
 1789              		.loc 1 176 0
 1790              		.cfi_startproc
 1791 0000 80B5     		push	{r7, lr}
 1792              		.cfi_def_cfa_offset 8
 1793              		.cfi_offset 7, -8
 1794              		.cfi_offset 14, -4
 1795 0002 00AF     		add	r7, sp, #0
 1796              		.cfi_def_cfa_register 7
 1797              		.loc 1 176 0
 1798 0004 024A     		ldr	r2, .L155
 1799 0006 E823     		mov	r3, #232
 1800 0008 D358     		ldr	r3, [r2, r3]
 1801 000a 181C     		mov	r0, r3
 1802 000c BD46     		mov	sp, r7
 1803              		@ sp needed
 1804 000e 80BD     		pop	{r7, pc}
 1805              	.L156:
 1806              		.align	2
 1807              	.L155:
 1808 0010 00000000 		.word	water_data
 1809              		.cfi_endproc
 1810              	.LFE82:
ARM GAS  C:\Users\SDEVAS~1\AppData\Local\Temp\ccOTp3Ub.s 			page 36


 1811              		.size	getvar_venturiSuctionA, .-getvar_venturiSuctionA
 1812              		.section	.text.getvar_venturiSuctionB,"ax",%progbits
 1813              		.align	2
 1814              		.global	getvar_venturiSuctionB
 1815              		.code	16
 1816              		.thumb_func
 1817              		.type	getvar_venturiSuctionB, %function
 1818              	getvar_venturiSuctionB:
 1819              	.LFB83:
 177:.\src/waterControl.c **** int getvar_venturiSuctionB(void) { return water_data.VenturiSuctionB; }
 1820              		.loc 1 177 0
 1821              		.cfi_startproc
 1822 0000 80B5     		push	{r7, lr}
 1823              		.cfi_def_cfa_offset 8
 1824              		.cfi_offset 7, -8
 1825              		.cfi_offset 14, -4
 1826 0002 00AF     		add	r7, sp, #0
 1827              		.cfi_def_cfa_register 7
 1828              		.loc 1 177 0
 1829 0004 024A     		ldr	r2, .L159
 1830 0006 EC23     		mov	r3, #236
 1831 0008 D358     		ldr	r3, [r2, r3]
 1832 000a 181C     		mov	r0, r3
 1833 000c BD46     		mov	sp, r7
 1834              		@ sp needed
 1835 000e 80BD     		pop	{r7, pc}
 1836              	.L160:
 1837              		.align	2
 1838              	.L159:
 1839 0010 00000000 		.word	water_data
 1840              		.cfi_endproc
 1841              	.LFE83:
 1842              		.size	getvar_venturiSuctionB, .-getvar_venturiSuctionB
 1843              		.section	.text.getvar_squareMeters,"ax",%progbits
 1844              		.align	2
 1845              		.global	getvar_squareMeters
 1846              		.code	16
 1847              		.thumb_func
 1848              		.type	getvar_squareMeters, %function
 1849              	getvar_squareMeters:
 1850              	.LFB84:
 178:.\src/waterControl.c **** int getvar_squareMeters(void) { return water_data.SquareMeters; }
 1851              		.loc 1 178 0
 1852              		.cfi_startproc
 1853 0000 80B5     		push	{r7, lr}
 1854              		.cfi_def_cfa_offset 8
 1855              		.cfi_offset 7, -8
 1856              		.cfi_offset 14, -4
 1857 0002 00AF     		add	r7, sp, #0
 1858              		.cfi_def_cfa_register 7
 1859              		.loc 1 178 0
 1860 0004 024A     		ldr	r2, .L163
 1861 0006 F023     		mov	r3, #240
 1862 0008 D358     		ldr	r3, [r2, r3]
 1863 000a 181C     		mov	r0, r3
 1864 000c BD46     		mov	sp, r7
 1865              		@ sp needed
ARM GAS  C:\Users\SDEVAS~1\AppData\Local\Temp\ccOTp3Ub.s 			page 37


 1866 000e 80BD     		pop	{r7, pc}
 1867              	.L164:
 1868              		.align	2
 1869              	.L163:
 1870 0010 00000000 		.word	water_data
 1871              		.cfi_endproc
 1872              	.LFE84:
 1873              		.size	getvar_squareMeters, .-getvar_squareMeters
 1874              		.section	.text.getvar_lPerSqMeterPerDay,"ax",%progbits
 1875              		.align	2
 1876              		.global	getvar_lPerSqMeterPerDay
 1877              		.code	16
 1878              		.thumb_func
 1879              		.type	getvar_lPerSqMeterPerDay, %function
 1880              	getvar_lPerSqMeterPerDay:
 1881              	.LFB85:
 179:.\src/waterControl.c **** int getvar_lPerSqMeterPerDay(void) { return water_data.LperSqMeterPerDay; }
 1882              		.loc 1 179 0
 1883              		.cfi_startproc
 1884 0000 80B5     		push	{r7, lr}
 1885              		.cfi_def_cfa_offset 8
 1886              		.cfi_offset 7, -8
 1887              		.cfi_offset 14, -4
 1888 0002 00AF     		add	r7, sp, #0
 1889              		.cfi_def_cfa_register 7
 1890              		.loc 1 179 0
 1891 0004 024A     		ldr	r2, .L167
 1892 0006 F423     		mov	r3, #244
 1893 0008 D358     		ldr	r3, [r2, r3]
 1894 000a 181C     		mov	r0, r3
 1895 000c BD46     		mov	sp, r7
 1896              		@ sp needed
 1897 000e 80BD     		pop	{r7, pc}
 1898              	.L168:
 1899              		.align	2
 1900              	.L167:
 1901 0010 00000000 		.word	water_data
 1902              		.cfi_endproc
 1903              	.LFE85:
 1904              		.size	getvar_lPerSqMeterPerDay, .-getvar_lPerSqMeterPerDay
 1905              		.section	.text.getvar_cropType,"ax",%progbits
 1906              		.align	2
 1907              		.global	getvar_cropType
 1908              		.code	16
 1909              		.thumb_func
 1910              		.type	getvar_cropType, %function
 1911              	getvar_cropType:
 1912              	.LFB86:
 180:.\src/waterControl.c **** int getvar_cropType(void) { return water_data.CropType; }
 1913              		.loc 1 180 0
 1914              		.cfi_startproc
 1915 0000 80B5     		push	{r7, lr}
 1916              		.cfi_def_cfa_offset 8
 1917              		.cfi_offset 7, -8
 1918              		.cfi_offset 14, -4
 1919 0002 00AF     		add	r7, sp, #0
 1920              		.cfi_def_cfa_register 7
ARM GAS  C:\Users\SDEVAS~1\AppData\Local\Temp\ccOTp3Ub.s 			page 38


 1921              		.loc 1 180 0
 1922 0004 024A     		ldr	r2, .L171
 1923 0006 F823     		mov	r3, #248
 1924 0008 D358     		ldr	r3, [r2, r3]
 1925 000a 181C     		mov	r0, r3
 1926 000c BD46     		mov	sp, r7
 1927              		@ sp needed
 1928 000e 80BD     		pop	{r7, pc}
 1929              	.L172:
 1930              		.align	2
 1931              	.L171:
 1932 0010 00000000 		.word	water_data
 1933              		.cfi_endproc
 1934              	.LFE86:
 1935              		.size	getvar_cropType, .-getvar_cropType
 1936              		.section	.text.getvar_innerPressure,"ax",%progbits
 1937              		.align	2
 1938              		.global	getvar_innerPressure
 1939              		.code	16
 1940              		.thumb_func
 1941              		.type	getvar_innerPressure, %function
 1942              	getvar_innerPressure:
 1943              	.LFB87:
 181:.\src/waterControl.c **** 
 182:.\src/waterControl.c **** int getvar_innerPressure(void) { return water_data.InnerPressure; }
 1944              		.loc 1 182 0
 1945              		.cfi_startproc
 1946 0000 80B5     		push	{r7, lr}
 1947              		.cfi_def_cfa_offset 8
 1948              		.cfi_offset 7, -8
 1949              		.cfi_offset 14, -4
 1950 0002 00AF     		add	r7, sp, #0
 1951              		.cfi_def_cfa_register 7
 1952              		.loc 1 182 0
 1953 0004 024B     		ldr	r3, .L175
 1954 0006 1B68     		ldr	r3, [r3]
 1955 0008 181C     		mov	r0, r3
 1956 000a BD46     		mov	sp, r7
 1957              		@ sp needed
 1958 000c 80BD     		pop	{r7, pc}
 1959              	.L176:
 1960 000e C046     		.align	2
 1961              	.L175:
 1962 0010 00000000 		.word	water_data
 1963              		.cfi_endproc
 1964              	.LFE87:
 1965              		.size	getvar_innerPressure, .-getvar_innerPressure
 1966              		.section	.text.getvar_outerPressure,"ax",%progbits
 1967              		.align	2
 1968              		.global	getvar_outerPressure
 1969              		.code	16
 1970              		.thumb_func
 1971              		.type	getvar_outerPressure, %function
 1972              	getvar_outerPressure:
 1973              	.LFB88:
 183:.\src/waterControl.c **** int getvar_outerPressure(void) { return water_data.OuterPressure; }
 1974              		.loc 1 183 0
ARM GAS  C:\Users\SDEVAS~1\AppData\Local\Temp\ccOTp3Ub.s 			page 39


 1975              		.cfi_startproc
 1976 0000 80B5     		push	{r7, lr}
 1977              		.cfi_def_cfa_offset 8
 1978              		.cfi_offset 7, -8
 1979              		.cfi_offset 14, -4
 1980 0002 00AF     		add	r7, sp, #0
 1981              		.cfi_def_cfa_register 7
 1982              		.loc 1 183 0
 1983 0004 024B     		ldr	r3, .L179
 1984 0006 5B68     		ldr	r3, [r3, #4]
 1985 0008 181C     		mov	r0, r3
 1986 000a BD46     		mov	sp, r7
 1987              		@ sp needed
 1988 000c 80BD     		pop	{r7, pc}
 1989              	.L180:
 1990 000e C046     		.align	2
 1991              	.L179:
 1992 0010 00000000 		.word	water_data
 1993              		.cfi_endproc
 1994              	.LFE88:
 1995              		.size	getvar_outerPressure, .-getvar_outerPressure
 1996              		.section	.text.getvar_currentFlow,"ax",%progbits
 1997              		.align	2
 1998              		.global	getvar_currentFlow
 1999              		.code	16
 2000              		.thumb_func
 2001              		.type	getvar_currentFlow, %function
 2002              	getvar_currentFlow:
 2003              	.LFB89:
 184:.\src/waterControl.c **** int getvar_currentFlow(void) { return water_data.CurrentFlow; }
 2004              		.loc 1 184 0
 2005              		.cfi_startproc
 2006 0000 80B5     		push	{r7, lr}
 2007              		.cfi_def_cfa_offset 8
 2008              		.cfi_offset 7, -8
 2009              		.cfi_offset 14, -4
 2010 0002 00AF     		add	r7, sp, #0
 2011              		.cfi_def_cfa_register 7
 2012              		.loc 1 184 0
 2013 0004 024B     		ldr	r3, .L183
 2014 0006 9B68     		ldr	r3, [r3, #8]
 2015 0008 181C     		mov	r0, r3
 2016 000a BD46     		mov	sp, r7
 2017              		@ sp needed
 2018 000c 80BD     		pop	{r7, pc}
 2019              	.L184:
 2020 000e C046     		.align	2
 2021              	.L183:
 2022 0010 00000000 		.word	water_data
 2023              		.cfi_endproc
 2024              	.LFE89:
 2025              		.size	getvar_currentFlow, .-getvar_currentFlow
 2026              		.section	.text.getvar_totalVolume,"ax",%progbits
 2027              		.align	2
 2028              		.global	getvar_totalVolume
 2029              		.code	16
 2030              		.thumb_func
ARM GAS  C:\Users\SDEVAS~1\AppData\Local\Temp\ccOTp3Ub.s 			page 40


 2031              		.type	getvar_totalVolume, %function
 2032              	getvar_totalVolume:
 2033              	.LFB90:
 185:.\src/waterControl.c **** int getvar_totalVolume(void) { return water_data.TotalVolume; }
 2034              		.loc 1 185 0
 2035              		.cfi_startproc
 2036 0000 80B5     		push	{r7, lr}
 2037              		.cfi_def_cfa_offset 8
 2038              		.cfi_offset 7, -8
 2039              		.cfi_offset 14, -4
 2040 0002 00AF     		add	r7, sp, #0
 2041              		.cfi_def_cfa_register 7
 2042              		.loc 1 185 0
 2043 0004 024B     		ldr	r3, .L187
 2044 0006 DB68     		ldr	r3, [r3, #12]
 2045 0008 181C     		mov	r0, r3
 2046 000a BD46     		mov	sp, r7
 2047              		@ sp needed
 2048 000c 80BD     		pop	{r7, pc}
 2049              	.L188:
 2050 000e C046     		.align	2
 2051              	.L187:
 2052 0010 00000000 		.word	water_data
 2053              		.cfi_endproc
 2054              	.LFE90:
 2055              		.size	getvar_totalVolume, .-getvar_totalVolume
 2056              		.section	.text.getvar_valveStatus,"ax",%progbits
 2057              		.align	2
 2058              		.global	getvar_valveStatus
 2059              		.code	16
 2060              		.thumb_func
 2061              		.type	getvar_valveStatus, %function
 2062              	getvar_valveStatus:
 2063              	.LFB91:
 186:.\src/waterControl.c **** int getvar_valveStatus(void) { return water_data.ValveStatus; }
 2064              		.loc 1 186 0
 2065              		.cfi_startproc
 2066 0000 80B5     		push	{r7, lr}
 2067              		.cfi_def_cfa_offset 8
 2068              		.cfi_offset 7, -8
 2069              		.cfi_offset 14, -4
 2070 0002 00AF     		add	r7, sp, #0
 2071              		.cfi_def_cfa_register 7
 2072              		.loc 1 186 0
 2073 0004 024B     		ldr	r3, .L191
 2074 0006 1B69     		ldr	r3, [r3, #16]
 2075 0008 181C     		mov	r0, r3
 2076 000a BD46     		mov	sp, r7
 2077              		@ sp needed
 2078 000c 80BD     		pop	{r7, pc}
 2079              	.L192:
 2080 000e C046     		.align	2
 2081              	.L191:
 2082 0010 00000000 		.word	water_data
 2083              		.cfi_endproc
 2084              	.LFE91:
 2085              		.size	getvar_valveStatus, .-getvar_valveStatus
ARM GAS  C:\Users\SDEVAS~1\AppData\Local\Temp\ccOTp3Ub.s 			page 41


 2086              		.section	.text.getvar_lastStartNumber,"ax",%progbits
 2087              		.align	2
 2088              		.global	getvar_lastStartNumber
 2089              		.code	16
 2090              		.thumb_func
 2091              		.type	getvar_lastStartNumber, %function
 2092              	getvar_lastStartNumber:
 2093              	.LFB92:
 187:.\src/waterControl.c **** int getvar_lastStartNumber(void) { return water_data.LastStartNumber; }
 2094              		.loc 1 187 0
 2095              		.cfi_startproc
 2096 0000 80B5     		push	{r7, lr}
 2097              		.cfi_def_cfa_offset 8
 2098              		.cfi_offset 7, -8
 2099              		.cfi_offset 14, -4
 2100 0002 00AF     		add	r7, sp, #0
 2101              		.cfi_def_cfa_register 7
 2102              		.loc 1 187 0
 2103 0004 024B     		ldr	r3, .L195
 2104 0006 5B69     		ldr	r3, [r3, #20]
 2105 0008 181C     		mov	r0, r3
 2106 000a BD46     		mov	sp, r7
 2107              		@ sp needed
 2108 000c 80BD     		pop	{r7, pc}
 2109              	.L196:
 2110 000e C046     		.align	2
 2111              	.L195:
 2112 0010 00000000 		.word	water_data
 2113              		.cfi_endproc
 2114              	.LFE92:
 2115              		.size	getvar_lastStartNumber, .-getvar_lastStartNumber
 2116              		.section	.text.getvar_lastStartVolume,"ax",%progbits
 2117              		.align	2
 2118              		.global	getvar_lastStartVolume
 2119              		.code	16
 2120              		.thumb_func
 2121              		.type	getvar_lastStartVolume, %function
 2122              	getvar_lastStartVolume:
 2123              	.LFB93:
 188:.\src/waterControl.c **** int getvar_lastStartVolume(void) { return water_data.LastStartVolume; }
 2124              		.loc 1 188 0
 2125              		.cfi_startproc
 2126 0000 80B5     		push	{r7, lr}
 2127              		.cfi_def_cfa_offset 8
 2128              		.cfi_offset 7, -8
 2129              		.cfi_offset 14, -4
 2130 0002 00AF     		add	r7, sp, #0
 2131              		.cfi_def_cfa_register 7
 2132              		.loc 1 188 0
 2133 0004 024B     		ldr	r3, .L199
 2134 0006 9B69     		ldr	r3, [r3, #24]
 2135 0008 181C     		mov	r0, r3
 2136 000a BD46     		mov	sp, r7
 2137              		@ sp needed
 2138 000c 80BD     		pop	{r7, pc}
 2139              	.L200:
 2140 000e C046     		.align	2
ARM GAS  C:\Users\SDEVAS~1\AppData\Local\Temp\ccOTp3Ub.s 			page 42


 2141              	.L199:
 2142 0010 00000000 		.word	water_data
 2143              		.cfi_endproc
 2144              	.LFE93:
 2145              		.size	getvar_lastStartVolume, .-getvar_lastStartVolume
 2146              		.section	.text.getvar_lastStartFlow,"ax",%progbits
 2147              		.align	2
 2148              		.global	getvar_lastStartFlow
 2149              		.code	16
 2150              		.thumb_func
 2151              		.type	getvar_lastStartFlow, %function
 2152              	getvar_lastStartFlow:
 2153              	.LFB94:
 189:.\src/waterControl.c **** int getvar_lastStartFlow(void) { return water_data.LastStartFlow; }
 2154              		.loc 1 189 0
 2155              		.cfi_startproc
 2156 0000 80B5     		push	{r7, lr}
 2157              		.cfi_def_cfa_offset 8
 2158              		.cfi_offset 7, -8
 2159              		.cfi_offset 14, -4
 2160 0002 00AF     		add	r7, sp, #0
 2161              		.cfi_def_cfa_register 7
 2162              		.loc 1 189 0
 2163 0004 024B     		ldr	r3, .L203
 2164 0006 DB69     		ldr	r3, [r3, #28]
 2165 0008 181C     		mov	r0, r3
 2166 000a BD46     		mov	sp, r7
 2167              		@ sp needed
 2168 000c 80BD     		pop	{r7, pc}
 2169              	.L204:
 2170 000e C046     		.align	2
 2171              	.L203:
 2172 0010 00000000 		.word	water_data
 2173              		.cfi_endproc
 2174              	.LFE94:
 2175              		.size	getvar_lastStartFlow, .-getvar_lastStartFlow
 2176              		.section	.text.getvar_startTime,"ax",%progbits
 2177              		.align	2
 2178              		.global	getvar_startTime
 2179              		.code	16
 2180              		.thumb_func
 2181              		.type	getvar_startTime, %function
 2182              	getvar_startTime:
 2183              	.LFB95:
 190:.\src/waterControl.c **** int getvar_startTime(void) { return water_data.StartTime; }
 2184              		.loc 1 190 0
 2185              		.cfi_startproc
 2186 0000 80B5     		push	{r7, lr}
 2187              		.cfi_def_cfa_offset 8
 2188              		.cfi_offset 7, -8
 2189              		.cfi_offset 14, -4
 2190 0002 00AF     		add	r7, sp, #0
 2191              		.cfi_def_cfa_register 7
 2192              		.loc 1 190 0
 2193 0004 024B     		ldr	r3, .L207
 2194 0006 1B6A     		ldr	r3, [r3, #32]
 2195 0008 181C     		mov	r0, r3
ARM GAS  C:\Users\SDEVAS~1\AppData\Local\Temp\ccOTp3Ub.s 			page 43


 2196 000a BD46     		mov	sp, r7
 2197              		@ sp needed
 2198 000c 80BD     		pop	{r7, pc}
 2199              	.L208:
 2200 000e C046     		.align	2
 2201              	.L207:
 2202 0010 00000000 		.word	water_data
 2203              		.cfi_endproc
 2204              	.LFE95:
 2205              		.size	getvar_startTime, .-getvar_startTime
 2206              		.section	.text.getvar_stopTime,"ax",%progbits
 2207              		.align	2
 2208              		.global	getvar_stopTime
 2209              		.code	16
 2210              		.thumb_func
 2211              		.type	getvar_stopTime, %function
 2212              	getvar_stopTime:
 2213              	.LFB96:
 191:.\src/waterControl.c **** int getvar_stopTime(void) { return water_data.StopTime; }
 2214              		.loc 1 191 0
 2215              		.cfi_startproc
 2216 0000 80B5     		push	{r7, lr}
 2217              		.cfi_def_cfa_offset 8
 2218              		.cfi_offset 7, -8
 2219              		.cfi_offset 14, -4
 2220 0002 00AF     		add	r7, sp, #0
 2221              		.cfi_def_cfa_register 7
 2222              		.loc 1 191 0
 2223 0004 024B     		ldr	r3, .L211
 2224 0006 5B6A     		ldr	r3, [r3, #36]
 2225 0008 181C     		mov	r0, r3
 2226 000a BD46     		mov	sp, r7
 2227              		@ sp needed
 2228 000c 80BD     		pop	{r7, pc}
 2229              	.L212:
 2230 000e C046     		.align	2
 2231              	.L211:
 2232 0010 00000000 		.word	water_data
 2233              		.cfi_endproc
 2234              	.LFE96:
 2235              		.size	getvar_stopTime, .-getvar_stopTime
 2236              		.section	.text.getvar_numStarts,"ax",%progbits
 2237              		.align	2
 2238              		.global	getvar_numStarts
 2239              		.code	16
 2240              		.thumb_func
 2241              		.type	getvar_numStarts, %function
 2242              	getvar_numStarts:
 2243              	.LFB97:
 192:.\src/waterControl.c **** int getvar_numStarts(void) { return water_data.NumStarts; }
 2244              		.loc 1 192 0
 2245              		.cfi_startproc
 2246 0000 80B5     		push	{r7, lr}
 2247              		.cfi_def_cfa_offset 8
 2248              		.cfi_offset 7, -8
 2249              		.cfi_offset 14, -4
 2250 0002 00AF     		add	r7, sp, #0
ARM GAS  C:\Users\SDEVAS~1\AppData\Local\Temp\ccOTp3Ub.s 			page 44


 2251              		.cfi_def_cfa_register 7
 2252              		.loc 1 192 0
 2253 0004 024B     		ldr	r3, .L215
 2254 0006 9B6A     		ldr	r3, [r3, #40]
 2255 0008 181C     		mov	r0, r3
 2256 000a BD46     		mov	sp, r7
 2257              		@ sp needed
 2258 000c 80BD     		pop	{r7, pc}
 2259              	.L216:
 2260 000e C046     		.align	2
 2261              	.L215:
 2262 0010 00000000 		.word	water_data
 2263              		.cfi_endproc
 2264              	.LFE97:
 2265              		.size	getvar_numStarts, .-getvar_numStarts
 2266              		.section	.text.getvar_volPerStart,"ax",%progbits
 2267              		.align	2
 2268              		.global	getvar_volPerStart
 2269              		.code	16
 2270              		.thumb_func
 2271              		.type	getvar_volPerStart, %function
 2272              	getvar_volPerStart:
 2273              	.LFB98:
 193:.\src/waterControl.c **** int getvar_volPerStart(void) { return water_data.VolPerStart; }
 2274              		.loc 1 193 0
 2275              		.cfi_startproc
 2276 0000 80B5     		push	{r7, lr}
 2277              		.cfi_def_cfa_offset 8
 2278              		.cfi_offset 7, -8
 2279              		.cfi_offset 14, -4
 2280 0002 00AF     		add	r7, sp, #0
 2281              		.cfi_def_cfa_register 7
 2282              		.loc 1 193 0
 2283 0004 024B     		ldr	r3, .L219
 2284 0006 DB6A     		ldr	r3, [r3, #44]
 2285 0008 181C     		mov	r0, r3
 2286 000a BD46     		mov	sp, r7
 2287              		@ sp needed
 2288 000c 80BD     		pop	{r7, pc}
 2289              	.L220:
 2290 000e C046     		.align	2
 2291              	.L219:
 2292 0010 00000000 		.word	water_data
 2293              		.cfi_endproc
 2294              	.LFE98:
 2295              		.size	getvar_volPerStart, .-getvar_volPerStart
 2296              		.section	.text.getvar_maxVol,"ax",%progbits
 2297              		.align	2
 2298              		.global	getvar_maxVol
 2299              		.code	16
 2300              		.thumb_func
 2301              		.type	getvar_maxVol, %function
 2302              	getvar_maxVol:
 2303              	.LFB99:
 194:.\src/waterControl.c **** int getvar_maxVol(void) { return water_data.MaxVol; }
 2304              		.loc 1 194 0
 2305              		.cfi_startproc
ARM GAS  C:\Users\SDEVAS~1\AppData\Local\Temp\ccOTp3Ub.s 			page 45


 2306 0000 80B5     		push	{r7, lr}
 2307              		.cfi_def_cfa_offset 8
 2308              		.cfi_offset 7, -8
 2309              		.cfi_offset 14, -4
 2310 0002 00AF     		add	r7, sp, #0
 2311              		.cfi_def_cfa_register 7
 2312              		.loc 1 194 0
 2313 0004 024B     		ldr	r3, .L223
 2314 0006 1B6B     		ldr	r3, [r3, #48]
 2315 0008 181C     		mov	r0, r3
 2316 000a BD46     		mov	sp, r7
 2317              		@ sp needed
 2318 000c 80BD     		pop	{r7, pc}
 2319              	.L224:
 2320 000e C046     		.align	2
 2321              	.L223:
 2322 0010 00000000 		.word	water_data
 2323              		.cfi_endproc
 2324              	.LFE99:
 2325              		.size	getvar_maxVol, .-getvar_maxVol
 2326              		.section	.text.getvar_minVol,"ax",%progbits
 2327              		.align	2
 2328              		.global	getvar_minVol
 2329              		.code	16
 2330              		.thumb_func
 2331              		.type	getvar_minVol, %function
 2332              	getvar_minVol:
 2333              	.LFB100:
 195:.\src/waterControl.c **** int getvar_minVol(void) { return water_data.MinVol; }
 2334              		.loc 1 195 0
 2335              		.cfi_startproc
 2336 0000 80B5     		push	{r7, lr}
 2337              		.cfi_def_cfa_offset 8
 2338              		.cfi_offset 7, -8
 2339              		.cfi_offset 14, -4
 2340 0002 00AF     		add	r7, sp, #0
 2341              		.cfi_def_cfa_register 7
 2342              		.loc 1 195 0
 2343 0004 024B     		ldr	r3, .L227
 2344 0006 5B6B     		ldr	r3, [r3, #52]
 2345 0008 181C     		mov	r0, r3
 2346 000a BD46     		mov	sp, r7
 2347              		@ sp needed
 2348 000c 80BD     		pop	{r7, pc}
 2349              	.L228:
 2350 000e C046     		.align	2
 2351              	.L227:
 2352 0010 00000000 		.word	water_data
 2353              		.cfi_endproc
 2354              	.LFE100:
 2355              		.size	getvar_minVol, .-getvar_minVol
 2356              		.section	.rodata
 2357              		.align	2
 2358              	.LC59:
 2359 0000 7B226E22 		.ascii	"{\"n\":\"InnerPressure\",\"t\":\"i\",\"v\":\000"
 2359      3A22496E 
 2359      6E657250 
ARM GAS  C:\Users\SDEVAS~1\AppData\Local\Temp\ccOTp3Ub.s 			page 46


 2359      72657373 
 2359      75726522 
 2360 0022 0000     		.align	2
 2361              	.LC63:
 2362 0024 2C7B226E 		.ascii	",{\"n\":\"OuterPressure\",\"t\":\"i\",\"v\":\000"
 2362      223A224F 
 2362      75746572 
 2362      50726573 
 2362      73757265 
 2363 0047 00       		.align	2
 2364              	.LC65:
 2365 0048 2C7B226E 		.ascii	",{\"n\":\"CurrentFlow\",\"t\":\"i\",\"v\":\000"
 2365      223A2243 
 2365      75727265 
 2365      6E74466C 
 2365      6F77222C 
 2366 0069 000000   		.align	2
 2367              	.LC67:
 2368 006c 2C7B226E 		.ascii	",{\"n\":\"TotalVolume\",\"t\":\"i\",\"v\":\000"
 2368      223A2254 
 2368      6F74616C 
 2368      566F6C75 
 2368      6D65222C 
 2369 008d 000000   		.align	2
 2370              	.LC69:
 2371 0090 2C7B226E 		.ascii	",{\"n\":\"ValveStatus\",\"t\":\"i\",\"v\":\000"
 2371      223A2256 
 2371      616C7665 
 2371      53746174 
 2371      7573222C 
 2372 00b1 000000   		.align	2
 2373              	.LC71:
 2374 00b4 2C7B226E 		.ascii	",{\"n\":\"LastStartNumber\",\"t\":\"i\",\"v\":\000"
 2374      223A224C 
 2374      61737453 
 2374      74617274 
 2374      4E756D62 
 2375 00d9 000000   		.align	2
 2376              	.LC73:
 2377 00dc 2C7B226E 		.ascii	",{\"n\":\"LastStartVolume\",\"t\":\"i\",\"v\":\000"
 2377      223A224C 
 2377      61737453 
 2377      74617274 
 2377      566F6C75 
 2378 0101 000000   		.align	2
 2379              	.LC75:
 2380 0104 2C7B226E 		.ascii	",{\"n\":\"LastStartFlow\",\"t\":\"i\",\"v\":\000"
 2380      223A224C 
 2380      61737453 
 2380      74617274 
 2380      466C6F77 
 2381              		.section	.text.comm_GenerateInfo,"ax",%progbits
 2382              		.align	2
 2383              		.global	comm_GenerateInfo
 2384              		.code	16
 2385              		.thumb_func
 2386              		.type	comm_GenerateInfo, %function
ARM GAS  C:\Users\SDEVAS~1\AppData\Local\Temp\ccOTp3Ub.s 			page 47


 2387              	comm_GenerateInfo:
 2388              	.LFB101:
 196:.\src/waterControl.c **** 
 197:.\src/waterControl.c **** void comm_GenerateInfo(void) {
 2389              		.loc 1 197 0
 2390              		.cfi_startproc
 2391 0000 80B5     		push	{r7, lr}
 2392              		.cfi_def_cfa_offset 8
 2393              		.cfi_offset 7, -8
 2394              		.cfi_offset 14, -4
 2395 0002 82B0     		sub	sp, sp, #8
 2396              		.cfi_def_cfa_offset 16
 2397 0004 00AF     		add	r7, sp, #0
 2398              		.cfi_def_cfa_register 7
 198:.\src/waterControl.c **** 	int tmp;
 199:.\src/waterControl.c **** 
 200:.\src/waterControl.c **** 	ADD_STATIC_STRING_TO_RESP("{\"n\":\"InnerPressure\",\"t\":\"i\",\"v\":");
 2399              		.loc 1 200 0
 2400 0006 E54B     		ldr	r3, .L230
 2401 0008 1A68     		ldr	r2, [r3]
 2402 000a E54B     		ldr	r3, .L230+4
 2403 000c 101C     		mov	r0, r2
 2404 000e 191C     		mov	r1, r3
 2405 0010 2222     		mov	r2, #34
 2406 0012 FFF7FEFF 		bl	memcpy
 2407 0016 E14B     		ldr	r3, .L230
 2408 0018 1B68     		ldr	r3, [r3]
 2409 001a 1A1C     		mov	r2, r3
 2410 001c 2132     		add	r2, r2, #33
 2411 001e DF4B     		ldr	r3, .L230
 2412 0020 1A60     		str	r2, [r3]
 2413 0022 E04B     		ldr	r3, .L230+8
 2414 0024 1B68     		ldr	r3, [r3]
 2415 0026 213B     		sub	r3, r3, #33
 2416 0028 1A1C     		mov	r2, r3
 2417 002a DE4B     		ldr	r3, .L230+8
 2418 002c 1A60     		str	r2, [r3]
 201:.\src/waterControl.c **** 	tmp = conv_i2str(respEnd, respFreeSpace, water_data.InnerPressure);
 2419              		.loc 1 201 0
 2420 002e DB4B     		ldr	r3, .L230
 2421 0030 1968     		ldr	r1, [r3]
 2422 0032 DC4B     		ldr	r3, .L230+8
 2423 0034 1A68     		ldr	r2, [r3]
 2424 0036 DC4B     		ldr	r3, .L230+12
 2425 0038 1B68     		ldr	r3, [r3]
 2426 003a 081C     		mov	r0, r1
 2427 003c 111C     		mov	r1, r2
 2428 003e 1A1C     		mov	r2, r3
 2429 0040 FFF7FEFF 		bl	conv_i2str
 2430 0044 031C     		mov	r3, r0
 2431 0046 7B60     		str	r3, [r7, #4]
 202:.\src/waterControl.c **** 	respEnd += tmp;
 2432              		.loc 1 202 0
 2433 0048 D44B     		ldr	r3, .L230
 2434 004a 1A68     		ldr	r2, [r3]
 2435 004c 7B68     		ldr	r3, [r7, #4]
 2436 004e D218     		add	r2, r2, r3
ARM GAS  C:\Users\SDEVAS~1\AppData\Local\Temp\ccOTp3Ub.s 			page 48


 2437 0050 D24B     		ldr	r3, .L230
 2438 0052 1A60     		str	r2, [r3]
 203:.\src/waterControl.c **** 	respFreeSpace -= tmp;
 2439              		.loc 1 203 0
 2440 0054 D34B     		ldr	r3, .L230+8
 2441 0056 1A68     		ldr	r2, [r3]
 2442 0058 7B68     		ldr	r3, [r7, #4]
 2443 005a D21A     		sub	r2, r2, r3
 2444 005c D14B     		ldr	r3, .L230+8
 2445 005e 1A60     		str	r2, [r3]
 204:.\src/waterControl.c **** 	ADD_CHAR_TO_RESP('}');
 2446              		.loc 1 204 0
 2447 0060 CE4B     		ldr	r3, .L230
 2448 0062 1B68     		ldr	r3, [r3]
 2449 0064 591C     		add	r1, r3, #1
 2450 0066 CD4A     		ldr	r2, .L230
 2451 0068 1160     		str	r1, [r2]
 2452 006a 7D22     		mov	r2, #125
 2453 006c 1A70     		strb	r2, [r3]
 2454 006e CD4B     		ldr	r3, .L230+8
 2455 0070 1B68     		ldr	r3, [r3]
 2456 0072 5A1E     		sub	r2, r3, #1
 2457 0074 CB4B     		ldr	r3, .L230+8
 2458 0076 1A60     		str	r2, [r3]
 205:.\src/waterControl.c **** 
 206:.\src/waterControl.c **** 	ADD_STATIC_STRING_TO_RESP(",{\"n\":\"OuterPressure\",\"t\":\"i\",\"v\":");
 2459              		.loc 1 206 0
 2460 0078 C84B     		ldr	r3, .L230
 2461 007a 1A68     		ldr	r2, [r3]
 2462 007c CB4B     		ldr	r3, .L230+16
 2463 007e 101C     		mov	r0, r2
 2464 0080 191C     		mov	r1, r3
 2465 0082 2322     		mov	r2, #35
 2466 0084 FFF7FEFF 		bl	memcpy
 2467 0088 C44B     		ldr	r3, .L230
 2468 008a 1B68     		ldr	r3, [r3]
 2469 008c 1A1C     		mov	r2, r3
 2470 008e 2232     		add	r2, r2, #34
 2471 0090 C24B     		ldr	r3, .L230
 2472 0092 1A60     		str	r2, [r3]
 2473 0094 C34B     		ldr	r3, .L230+8
 2474 0096 1B68     		ldr	r3, [r3]
 2475 0098 223B     		sub	r3, r3, #34
 2476 009a 1A1C     		mov	r2, r3
 2477 009c C14B     		ldr	r3, .L230+8
 2478 009e 1A60     		str	r2, [r3]
 207:.\src/waterControl.c **** 	tmp = conv_i2str(respEnd, respFreeSpace, water_data.OuterPressure);
 2479              		.loc 1 207 0
 2480 00a0 BE4B     		ldr	r3, .L230
 2481 00a2 1968     		ldr	r1, [r3]
 2482 00a4 BF4B     		ldr	r3, .L230+8
 2483 00a6 1A68     		ldr	r2, [r3]
 2484 00a8 BF4B     		ldr	r3, .L230+12
 2485 00aa 5B68     		ldr	r3, [r3, #4]
 2486 00ac 081C     		mov	r0, r1
 2487 00ae 111C     		mov	r1, r2
 2488 00b0 1A1C     		mov	r2, r3
ARM GAS  C:\Users\SDEVAS~1\AppData\Local\Temp\ccOTp3Ub.s 			page 49


 2489 00b2 FFF7FEFF 		bl	conv_i2str
 2490 00b6 031C     		mov	r3, r0
 2491 00b8 7B60     		str	r3, [r7, #4]
 208:.\src/waterControl.c **** 	respEnd += tmp;
 2492              		.loc 1 208 0
 2493 00ba B84B     		ldr	r3, .L230
 2494 00bc 1A68     		ldr	r2, [r3]
 2495 00be 7B68     		ldr	r3, [r7, #4]
 2496 00c0 D218     		add	r2, r2, r3
 2497 00c2 B64B     		ldr	r3, .L230
 2498 00c4 1A60     		str	r2, [r3]
 209:.\src/waterControl.c **** 	respFreeSpace -= tmp;
 2499              		.loc 1 209 0
 2500 00c6 B74B     		ldr	r3, .L230+8
 2501 00c8 1A68     		ldr	r2, [r3]
 2502 00ca 7B68     		ldr	r3, [r7, #4]
 2503 00cc D21A     		sub	r2, r2, r3
 2504 00ce B54B     		ldr	r3, .L230+8
 2505 00d0 1A60     		str	r2, [r3]
 210:.\src/waterControl.c **** 	ADD_CHAR_TO_RESP('}');
 2506              		.loc 1 210 0
 2507 00d2 B24B     		ldr	r3, .L230
 2508 00d4 1B68     		ldr	r3, [r3]
 2509 00d6 591C     		add	r1, r3, #1
 2510 00d8 B04A     		ldr	r2, .L230
 2511 00da 1160     		str	r1, [r2]
 2512 00dc 7D22     		mov	r2, #125
 2513 00de 1A70     		strb	r2, [r3]
 2514 00e0 B04B     		ldr	r3, .L230+8
 2515 00e2 1B68     		ldr	r3, [r3]
 2516 00e4 5A1E     		sub	r2, r3, #1
 2517 00e6 AF4B     		ldr	r3, .L230+8
 2518 00e8 1A60     		str	r2, [r3]
 211:.\src/waterControl.c **** 
 212:.\src/waterControl.c **** 	ADD_STATIC_STRING_TO_RESP(",{\"n\":\"CurrentFlow\",\"t\":\"i\",\"v\":");
 2519              		.loc 1 212 0
 2520 00ea AC4B     		ldr	r3, .L230
 2521 00ec 1A68     		ldr	r2, [r3]
 2522 00ee B04B     		ldr	r3, .L230+20
 2523 00f0 101C     		mov	r0, r2
 2524 00f2 191C     		mov	r1, r3
 2525 00f4 2122     		mov	r2, #33
 2526 00f6 FFF7FEFF 		bl	memcpy
 2527 00fa A84B     		ldr	r3, .L230
 2528 00fc 1B68     		ldr	r3, [r3]
 2529 00fe 1A1C     		mov	r2, r3
 2530 0100 2032     		add	r2, r2, #32
 2531 0102 A64B     		ldr	r3, .L230
 2532 0104 1A60     		str	r2, [r3]
 2533 0106 A74B     		ldr	r3, .L230+8
 2534 0108 1B68     		ldr	r3, [r3]
 2535 010a 203B     		sub	r3, r3, #32
 2536 010c 1A1C     		mov	r2, r3
 2537 010e A54B     		ldr	r3, .L230+8
 2538 0110 1A60     		str	r2, [r3]
 213:.\src/waterControl.c **** 	tmp = conv_i2str(respEnd, respFreeSpace, water_data.CurrentFlow);
 2539              		.loc 1 213 0
ARM GAS  C:\Users\SDEVAS~1\AppData\Local\Temp\ccOTp3Ub.s 			page 50


 2540 0112 A24B     		ldr	r3, .L230
 2541 0114 1968     		ldr	r1, [r3]
 2542 0116 A34B     		ldr	r3, .L230+8
 2543 0118 1A68     		ldr	r2, [r3]
 2544 011a A34B     		ldr	r3, .L230+12
 2545 011c 9B68     		ldr	r3, [r3, #8]
 2546 011e 081C     		mov	r0, r1
 2547 0120 111C     		mov	r1, r2
 2548 0122 1A1C     		mov	r2, r3
 2549 0124 FFF7FEFF 		bl	conv_i2str
 2550 0128 031C     		mov	r3, r0
 2551 012a 7B60     		str	r3, [r7, #4]
 214:.\src/waterControl.c **** 	respEnd += tmp;
 2552              		.loc 1 214 0
 2553 012c 9B4B     		ldr	r3, .L230
 2554 012e 1A68     		ldr	r2, [r3]
 2555 0130 7B68     		ldr	r3, [r7, #4]
 2556 0132 D218     		add	r2, r2, r3
 2557 0134 994B     		ldr	r3, .L230
 2558 0136 1A60     		str	r2, [r3]
 215:.\src/waterControl.c **** 	respFreeSpace -= tmp;
 2559              		.loc 1 215 0
 2560 0138 9A4B     		ldr	r3, .L230+8
 2561 013a 1A68     		ldr	r2, [r3]
 2562 013c 7B68     		ldr	r3, [r7, #4]
 2563 013e D21A     		sub	r2, r2, r3
 2564 0140 984B     		ldr	r3, .L230+8
 2565 0142 1A60     		str	r2, [r3]
 216:.\src/waterControl.c **** 	ADD_CHAR_TO_RESP('}');
 2566              		.loc 1 216 0
 2567 0144 954B     		ldr	r3, .L230
 2568 0146 1B68     		ldr	r3, [r3]
 2569 0148 591C     		add	r1, r3, #1
 2570 014a 944A     		ldr	r2, .L230
 2571 014c 1160     		str	r1, [r2]
 2572 014e 7D22     		mov	r2, #125
 2573 0150 1A70     		strb	r2, [r3]
 2574 0152 944B     		ldr	r3, .L230+8
 2575 0154 1B68     		ldr	r3, [r3]
 2576 0156 5A1E     		sub	r2, r3, #1
 2577 0158 924B     		ldr	r3, .L230+8
 2578 015a 1A60     		str	r2, [r3]
 217:.\src/waterControl.c **** 
 218:.\src/waterControl.c **** 	ADD_STATIC_STRING_TO_RESP(",{\"n\":\"TotalVolume\",\"t\":\"i\",\"v\":");
 2579              		.loc 1 218 0
 2580 015c 8F4B     		ldr	r3, .L230
 2581 015e 1A68     		ldr	r2, [r3]
 2582 0160 944B     		ldr	r3, .L230+24
 2583 0162 101C     		mov	r0, r2
 2584 0164 191C     		mov	r1, r3
 2585 0166 2122     		mov	r2, #33
 2586 0168 FFF7FEFF 		bl	memcpy
 2587 016c 8B4B     		ldr	r3, .L230
 2588 016e 1B68     		ldr	r3, [r3]
 2589 0170 1A1C     		mov	r2, r3
 2590 0172 2032     		add	r2, r2, #32
 2591 0174 894B     		ldr	r3, .L230
ARM GAS  C:\Users\SDEVAS~1\AppData\Local\Temp\ccOTp3Ub.s 			page 51


 2592 0176 1A60     		str	r2, [r3]
 2593 0178 8A4B     		ldr	r3, .L230+8
 2594 017a 1B68     		ldr	r3, [r3]
 2595 017c 203B     		sub	r3, r3, #32
 2596 017e 1A1C     		mov	r2, r3
 2597 0180 884B     		ldr	r3, .L230+8
 2598 0182 1A60     		str	r2, [r3]
 219:.\src/waterControl.c **** 	tmp = conv_i2str(respEnd, respFreeSpace, water_data.TotalVolume);
 2599              		.loc 1 219 0
 2600 0184 854B     		ldr	r3, .L230
 2601 0186 1968     		ldr	r1, [r3]
 2602 0188 864B     		ldr	r3, .L230+8
 2603 018a 1A68     		ldr	r2, [r3]
 2604 018c 864B     		ldr	r3, .L230+12
 2605 018e DB68     		ldr	r3, [r3, #12]
 2606 0190 081C     		mov	r0, r1
 2607 0192 111C     		mov	r1, r2
 2608 0194 1A1C     		mov	r2, r3
 2609 0196 FFF7FEFF 		bl	conv_i2str
 2610 019a 031C     		mov	r3, r0
 2611 019c 7B60     		str	r3, [r7, #4]
 220:.\src/waterControl.c **** 	respEnd += tmp;
 2612              		.loc 1 220 0
 2613 019e 7F4B     		ldr	r3, .L230
 2614 01a0 1A68     		ldr	r2, [r3]
 2615 01a2 7B68     		ldr	r3, [r7, #4]
 2616 01a4 D218     		add	r2, r2, r3
 2617 01a6 7D4B     		ldr	r3, .L230
 2618 01a8 1A60     		str	r2, [r3]
 221:.\src/waterControl.c **** 	respFreeSpace -= tmp;
 2619              		.loc 1 221 0
 2620 01aa 7E4B     		ldr	r3, .L230+8
 2621 01ac 1A68     		ldr	r2, [r3]
 2622 01ae 7B68     		ldr	r3, [r7, #4]
 2623 01b0 D21A     		sub	r2, r2, r3
 2624 01b2 7C4B     		ldr	r3, .L230+8
 2625 01b4 1A60     		str	r2, [r3]
 222:.\src/waterControl.c **** 	ADD_CHAR_TO_RESP('}');
 2626              		.loc 1 222 0
 2627 01b6 794B     		ldr	r3, .L230
 2628 01b8 1B68     		ldr	r3, [r3]
 2629 01ba 591C     		add	r1, r3, #1
 2630 01bc 774A     		ldr	r2, .L230
 2631 01be 1160     		str	r1, [r2]
 2632 01c0 7D22     		mov	r2, #125
 2633 01c2 1A70     		strb	r2, [r3]
 2634 01c4 774B     		ldr	r3, .L230+8
 2635 01c6 1B68     		ldr	r3, [r3]
 2636 01c8 5A1E     		sub	r2, r3, #1
 2637 01ca 764B     		ldr	r3, .L230+8
 2638 01cc 1A60     		str	r2, [r3]
 223:.\src/waterControl.c **** 
 224:.\src/waterControl.c **** 	ADD_STATIC_STRING_TO_RESP(",{\"n\":\"ValveStatus\",\"t\":\"i\",\"v\":");
 2639              		.loc 1 224 0
 2640 01ce 734B     		ldr	r3, .L230
 2641 01d0 1A68     		ldr	r2, [r3]
 2642 01d2 794B     		ldr	r3, .L230+28
ARM GAS  C:\Users\SDEVAS~1\AppData\Local\Temp\ccOTp3Ub.s 			page 52


 2643 01d4 101C     		mov	r0, r2
 2644 01d6 191C     		mov	r1, r3
 2645 01d8 2122     		mov	r2, #33
 2646 01da FFF7FEFF 		bl	memcpy
 2647 01de 6F4B     		ldr	r3, .L230
 2648 01e0 1B68     		ldr	r3, [r3]
 2649 01e2 1A1C     		mov	r2, r3
 2650 01e4 2032     		add	r2, r2, #32
 2651 01e6 6D4B     		ldr	r3, .L230
 2652 01e8 1A60     		str	r2, [r3]
 2653 01ea 6E4B     		ldr	r3, .L230+8
 2654 01ec 1B68     		ldr	r3, [r3]
 2655 01ee 203B     		sub	r3, r3, #32
 2656 01f0 1A1C     		mov	r2, r3
 2657 01f2 6C4B     		ldr	r3, .L230+8
 2658 01f4 1A60     		str	r2, [r3]
 225:.\src/waterControl.c **** 	tmp = conv_i2str(respEnd, respFreeSpace, water_data.ValveStatus);
 2659              		.loc 1 225 0
 2660 01f6 694B     		ldr	r3, .L230
 2661 01f8 1968     		ldr	r1, [r3]
 2662 01fa 6A4B     		ldr	r3, .L230+8
 2663 01fc 1A68     		ldr	r2, [r3]
 2664 01fe 6A4B     		ldr	r3, .L230+12
 2665 0200 1B69     		ldr	r3, [r3, #16]
 2666 0202 081C     		mov	r0, r1
 2667 0204 111C     		mov	r1, r2
 2668 0206 1A1C     		mov	r2, r3
 2669 0208 FFF7FEFF 		bl	conv_i2str
 2670 020c 031C     		mov	r3, r0
 2671 020e 7B60     		str	r3, [r7, #4]
 226:.\src/waterControl.c **** 	respEnd += tmp;
 2672              		.loc 1 226 0
 2673 0210 624B     		ldr	r3, .L230
 2674 0212 1A68     		ldr	r2, [r3]
 2675 0214 7B68     		ldr	r3, [r7, #4]
 2676 0216 D218     		add	r2, r2, r3
 2677 0218 604B     		ldr	r3, .L230
 2678 021a 1A60     		str	r2, [r3]
 227:.\src/waterControl.c **** 	respFreeSpace -= tmp;
 2679              		.loc 1 227 0
 2680 021c 614B     		ldr	r3, .L230+8
 2681 021e 1A68     		ldr	r2, [r3]
 2682 0220 7B68     		ldr	r3, [r7, #4]
 2683 0222 D21A     		sub	r2, r2, r3
 2684 0224 5F4B     		ldr	r3, .L230+8
 2685 0226 1A60     		str	r2, [r3]
 228:.\src/waterControl.c **** 	ADD_CHAR_TO_RESP('}');
 2686              		.loc 1 228 0
 2687 0228 5C4B     		ldr	r3, .L230
 2688 022a 1B68     		ldr	r3, [r3]
 2689 022c 591C     		add	r1, r3, #1
 2690 022e 5B4A     		ldr	r2, .L230
 2691 0230 1160     		str	r1, [r2]
 2692 0232 7D22     		mov	r2, #125
 2693 0234 1A70     		strb	r2, [r3]
 2694 0236 5B4B     		ldr	r3, .L230+8
 2695 0238 1B68     		ldr	r3, [r3]
ARM GAS  C:\Users\SDEVAS~1\AppData\Local\Temp\ccOTp3Ub.s 			page 53


 2696 023a 5A1E     		sub	r2, r3, #1
 2697 023c 594B     		ldr	r3, .L230+8
 2698 023e 1A60     		str	r2, [r3]
 229:.\src/waterControl.c **** 
 230:.\src/waterControl.c **** 	ADD_STATIC_STRING_TO_RESP(",{\"n\":\"LastStartNumber\",\"t\":\"i\",\"v\":");
 2699              		.loc 1 230 0
 2700 0240 564B     		ldr	r3, .L230
 2701 0242 1A68     		ldr	r2, [r3]
 2702 0244 5D4B     		ldr	r3, .L230+32
 2703 0246 101C     		mov	r0, r2
 2704 0248 191C     		mov	r1, r3
 2705 024a 2522     		mov	r2, #37
 2706 024c FFF7FEFF 		bl	memcpy
 2707 0250 524B     		ldr	r3, .L230
 2708 0252 1B68     		ldr	r3, [r3]
 2709 0254 1A1C     		mov	r2, r3
 2710 0256 2432     		add	r2, r2, #36
 2711 0258 504B     		ldr	r3, .L230
 2712 025a 1A60     		str	r2, [r3]
 2713 025c 514B     		ldr	r3, .L230+8
 2714 025e 1B68     		ldr	r3, [r3]
 2715 0260 243B     		sub	r3, r3, #36
 2716 0262 1A1C     		mov	r2, r3
 2717 0264 4F4B     		ldr	r3, .L230+8
 2718 0266 1A60     		str	r2, [r3]
 231:.\src/waterControl.c **** 	tmp = conv_i2str(respEnd, respFreeSpace, water_data.LastStartNumber);
 2719              		.loc 1 231 0
 2720 0268 4C4B     		ldr	r3, .L230
 2721 026a 1968     		ldr	r1, [r3]
 2722 026c 4D4B     		ldr	r3, .L230+8
 2723 026e 1A68     		ldr	r2, [r3]
 2724 0270 4D4B     		ldr	r3, .L230+12
 2725 0272 5B69     		ldr	r3, [r3, #20]
 2726 0274 081C     		mov	r0, r1
 2727 0276 111C     		mov	r1, r2
 2728 0278 1A1C     		mov	r2, r3
 2729 027a FFF7FEFF 		bl	conv_i2str
 2730 027e 031C     		mov	r3, r0
 2731 0280 7B60     		str	r3, [r7, #4]
 232:.\src/waterControl.c **** 	respEnd += tmp;
 2732              		.loc 1 232 0
 2733 0282 464B     		ldr	r3, .L230
 2734 0284 1A68     		ldr	r2, [r3]
 2735 0286 7B68     		ldr	r3, [r7, #4]
 2736 0288 D218     		add	r2, r2, r3
 2737 028a 444B     		ldr	r3, .L230
 2738 028c 1A60     		str	r2, [r3]
 233:.\src/waterControl.c **** 	respFreeSpace -= tmp;
 2739              		.loc 1 233 0
 2740 028e 454B     		ldr	r3, .L230+8
 2741 0290 1A68     		ldr	r2, [r3]
 2742 0292 7B68     		ldr	r3, [r7, #4]
 2743 0294 D21A     		sub	r2, r2, r3
 2744 0296 434B     		ldr	r3, .L230+8
 2745 0298 1A60     		str	r2, [r3]
 234:.\src/waterControl.c **** 	ADD_CHAR_TO_RESP('}');
 2746              		.loc 1 234 0
ARM GAS  C:\Users\SDEVAS~1\AppData\Local\Temp\ccOTp3Ub.s 			page 54


 2747 029a 404B     		ldr	r3, .L230
 2748 029c 1B68     		ldr	r3, [r3]
 2749 029e 591C     		add	r1, r3, #1
 2750 02a0 3E4A     		ldr	r2, .L230
 2751 02a2 1160     		str	r1, [r2]
 2752 02a4 7D22     		mov	r2, #125
 2753 02a6 1A70     		strb	r2, [r3]
 2754 02a8 3E4B     		ldr	r3, .L230+8
 2755 02aa 1B68     		ldr	r3, [r3]
 2756 02ac 5A1E     		sub	r2, r3, #1
 2757 02ae 3D4B     		ldr	r3, .L230+8
 2758 02b0 1A60     		str	r2, [r3]
 235:.\src/waterControl.c **** 
 236:.\src/waterControl.c **** 	ADD_STATIC_STRING_TO_RESP(",{\"n\":\"LastStartVolume\",\"t\":\"i\",\"v\":");
 2759              		.loc 1 236 0
 2760 02b2 3A4B     		ldr	r3, .L230
 2761 02b4 1A68     		ldr	r2, [r3]
 2762 02b6 424B     		ldr	r3, .L230+36
 2763 02b8 101C     		mov	r0, r2
 2764 02ba 191C     		mov	r1, r3
 2765 02bc 2522     		mov	r2, #37
 2766 02be FFF7FEFF 		bl	memcpy
 2767 02c2 364B     		ldr	r3, .L230
 2768 02c4 1B68     		ldr	r3, [r3]
 2769 02c6 1A1C     		mov	r2, r3
 2770 02c8 2432     		add	r2, r2, #36
 2771 02ca 344B     		ldr	r3, .L230
 2772 02cc 1A60     		str	r2, [r3]
 2773 02ce 354B     		ldr	r3, .L230+8
 2774 02d0 1B68     		ldr	r3, [r3]
 2775 02d2 243B     		sub	r3, r3, #36
 2776 02d4 1A1C     		mov	r2, r3
 2777 02d6 334B     		ldr	r3, .L230+8
 2778 02d8 1A60     		str	r2, [r3]
 237:.\src/waterControl.c **** 	tmp = conv_i2str(respEnd, respFreeSpace, water_data.LastStartVolume);
 2779              		.loc 1 237 0
 2780 02da 304B     		ldr	r3, .L230
 2781 02dc 1968     		ldr	r1, [r3]
 2782 02de 314B     		ldr	r3, .L230+8
 2783 02e0 1A68     		ldr	r2, [r3]
 2784 02e2 314B     		ldr	r3, .L230+12
 2785 02e4 9B69     		ldr	r3, [r3, #24]
 2786 02e6 081C     		mov	r0, r1
 2787 02e8 111C     		mov	r1, r2
 2788 02ea 1A1C     		mov	r2, r3
 2789 02ec FFF7FEFF 		bl	conv_i2str
 2790 02f0 031C     		mov	r3, r0
 2791 02f2 7B60     		str	r3, [r7, #4]
 238:.\src/waterControl.c **** 	respEnd += tmp;
 2792              		.loc 1 238 0
 2793 02f4 294B     		ldr	r3, .L230
 2794 02f6 1A68     		ldr	r2, [r3]
 2795 02f8 7B68     		ldr	r3, [r7, #4]
 2796 02fa D218     		add	r2, r2, r3
 2797 02fc 274B     		ldr	r3, .L230
 2798 02fe 1A60     		str	r2, [r3]
 239:.\src/waterControl.c **** 	respFreeSpace -= tmp;
ARM GAS  C:\Users\SDEVAS~1\AppData\Local\Temp\ccOTp3Ub.s 			page 55


 2799              		.loc 1 239 0
 2800 0300 284B     		ldr	r3, .L230+8
 2801 0302 1A68     		ldr	r2, [r3]
 2802 0304 7B68     		ldr	r3, [r7, #4]
 2803 0306 D21A     		sub	r2, r2, r3
 2804 0308 264B     		ldr	r3, .L230+8
 2805 030a 1A60     		str	r2, [r3]
 240:.\src/waterControl.c **** 	ADD_CHAR_TO_RESP('}');
 2806              		.loc 1 240 0
 2807 030c 234B     		ldr	r3, .L230
 2808 030e 1B68     		ldr	r3, [r3]
 2809 0310 591C     		add	r1, r3, #1
 2810 0312 224A     		ldr	r2, .L230
 2811 0314 1160     		str	r1, [r2]
 2812 0316 7D22     		mov	r2, #125
 2813 0318 1A70     		strb	r2, [r3]
 2814 031a 224B     		ldr	r3, .L230+8
 2815 031c 1B68     		ldr	r3, [r3]
 2816 031e 5A1E     		sub	r2, r3, #1
 2817 0320 204B     		ldr	r3, .L230+8
 2818 0322 1A60     		str	r2, [r3]
 241:.\src/waterControl.c **** 
 242:.\src/waterControl.c **** 	ADD_STATIC_STRING_TO_RESP(",{\"n\":\"LastStartFlow\",\"t\":\"i\",\"v\":");
 2819              		.loc 1 242 0
 2820 0324 1D4B     		ldr	r3, .L230
 2821 0326 1A68     		ldr	r2, [r3]
 2822 0328 264B     		ldr	r3, .L230+40
 2823 032a 101C     		mov	r0, r2
 2824 032c 191C     		mov	r1, r3
 2825 032e 2322     		mov	r2, #35
 2826 0330 FFF7FEFF 		bl	memcpy
 2827 0334 194B     		ldr	r3, .L230
 2828 0336 1B68     		ldr	r3, [r3]
 2829 0338 1A1C     		mov	r2, r3
 2830 033a 2232     		add	r2, r2, #34
 2831 033c 174B     		ldr	r3, .L230
 2832 033e 1A60     		str	r2, [r3]
 2833 0340 184B     		ldr	r3, .L230+8
 2834 0342 1B68     		ldr	r3, [r3]
 2835 0344 223B     		sub	r3, r3, #34
 2836 0346 1A1C     		mov	r2, r3
 2837 0348 164B     		ldr	r3, .L230+8
 2838 034a 1A60     		str	r2, [r3]
 243:.\src/waterControl.c **** 	tmp = conv_i2str(respEnd, respFreeSpace, water_data.LastStartFlow);
 2839              		.loc 1 243 0
 2840 034c 134B     		ldr	r3, .L230
 2841 034e 1968     		ldr	r1, [r3]
 2842 0350 144B     		ldr	r3, .L230+8
 2843 0352 1A68     		ldr	r2, [r3]
 2844 0354 144B     		ldr	r3, .L230+12
 2845 0356 DB69     		ldr	r3, [r3, #28]
 2846 0358 081C     		mov	r0, r1
 2847 035a 111C     		mov	r1, r2
 2848 035c 1A1C     		mov	r2, r3
 2849 035e FFF7FEFF 		bl	conv_i2str
 2850 0362 031C     		mov	r3, r0
 2851 0364 7B60     		str	r3, [r7, #4]
ARM GAS  C:\Users\SDEVAS~1\AppData\Local\Temp\ccOTp3Ub.s 			page 56


 244:.\src/waterControl.c **** 	respEnd += tmp;
 2852              		.loc 1 244 0
 2853 0366 0D4B     		ldr	r3, .L230
 2854 0368 1A68     		ldr	r2, [r3]
 2855 036a 7B68     		ldr	r3, [r7, #4]
 2856 036c D218     		add	r2, r2, r3
 2857 036e 0B4B     		ldr	r3, .L230
 2858 0370 1A60     		str	r2, [r3]
 245:.\src/waterControl.c **** 	respFreeSpace -= tmp;
 2859              		.loc 1 245 0
 2860 0372 0C4B     		ldr	r3, .L230+8
 2861 0374 1A68     		ldr	r2, [r3]
 2862 0376 7B68     		ldr	r3, [r7, #4]
 2863 0378 D21A     		sub	r2, r2, r3
 2864 037a 0A4B     		ldr	r3, .L230+8
 2865 037c 1A60     		str	r2, [r3]
 246:.\src/waterControl.c **** 	ADD_CHAR_TO_RESP('}');
 2866              		.loc 1 246 0
 2867 037e 074B     		ldr	r3, .L230
 2868 0380 1B68     		ldr	r3, [r3]
 2869 0382 591C     		add	r1, r3, #1
 2870 0384 054A     		ldr	r2, .L230
 2871 0386 1160     		str	r1, [r2]
 2872 0388 7D22     		mov	r2, #125
 2873 038a 1A70     		strb	r2, [r3]
 2874 038c 054B     		ldr	r3, .L230+8
 2875 038e 1B68     		ldr	r3, [r3]
 2876 0390 5A1E     		sub	r2, r3, #1
 2877 0392 044B     		ldr	r3, .L230+8
 2878 0394 1A60     		str	r2, [r3]
 247:.\src/waterControl.c **** }
 2879              		.loc 1 247 0
 2880 0396 BD46     		mov	sp, r7
 2881 0398 02B0     		add	sp, sp, #8
 2882              		@ sp needed
 2883 039a 80BD     		pop	{r7, pc}
 2884              	.L231:
 2885              		.align	2
 2886              	.L230:
 2887 039c 00000000 		.word	respEnd
 2888 03a0 00000000 		.word	.LC59
 2889 03a4 00000000 		.word	respFreeSpace
 2890 03a8 00000000 		.word	water_data
 2891 03ac 24000000 		.word	.LC63
 2892 03b0 48000000 		.word	.LC65
 2893 03b4 6C000000 		.word	.LC67
 2894 03b8 90000000 		.word	.LC69
 2895 03bc B4000000 		.word	.LC71
 2896 03c0 DC000000 		.word	.LC73
 2897 03c4 04010000 		.word	.LC75
 2898              		.cfi_endproc
 2899              	.LFE101:
 2900              		.size	comm_GenerateInfo, .-comm_GenerateInfo
 2901              		.global	opVals
 2902              		.data
 2903              		.align	2
 2904              		.type	opVals, %object
ARM GAS  C:\Users\SDEVAS~1\AppData\Local\Temp\ccOTp3Ub.s 			page 57


 2905              		.size	opVals, 384
 2906              	opVals:
 2907 0000 00000000 		.word	0
 2908 0004 00000000 		.word	0
 2909 0008 00000000 		.word	0
 2910 000c 00000000 		.word	0
 2911 0010 01000000 		.word	1
 2912 0014 00000000 		.word	0
 2913 0018 00000000 		.word	0
 2914 001c 00000000 		.word	0
 2915 0020 02000000 		.word	2
 2916 0024 00000000 		.word	0
 2917 0028 00000000 		.word	0
 2918 002c 00000000 		.word	0
 2919 0030 03000000 		.word	3
 2920 0034 00000000 		.word	0
 2921 0038 00000000 		.word	0
 2922 003c 00000000 		.word	0
 2923 0040 04000000 		.word	4
 2924 0044 00000000 		.word	0
 2925 0048 00000000 		.word	0
 2926 004c 00000000 		.word	0
 2927 0050 05000000 		.word	5
 2928 0054 00000000 		.word	0
 2929 0058 00000000 		.word	0
 2930 005c 00000000 		.word	0
 2931 0060 06000000 		.word	6
 2932 0064 00000000 		.word	0
 2933 0068 00000000 		.word	0
 2934 006c 00000000 		.word	0
 2935 0070 07000000 		.word	7
 2936 0074 00000000 		.word	0
 2937 0078 00000000 		.word	0
 2938 007c 00000000 		.word	0
 2939 0080 08000000 		.word	8
 2940 0084 01000000 		.word	1
 2941 0088 05000000 		.word	5
 2942 008c 05000000 		.word	5
 2943 0090 09000000 		.word	9
 2944 0094 01000000 		.word	1
 2945 0098 06000000 		.word	6
 2946 009c 0B000000 		.word	11
 2947 00a0 0A000000 		.word	10
 2948 00a4 01000000 		.word	1
 2949 00a8 07000000 		.word	7
 2950 00ac 12000000 		.word	18
 2951 00b0 0B000000 		.word	11
 2952 00b4 01000000 		.word	1
 2953 00b8 08000000 		.word	8
 2954 00bc 1A000000 		.word	26
 2955 00c0 0C000000 		.word	12
 2956 00c4 01000000 		.word	1
 2957 00c8 09000000 		.word	9
 2958 00cc 23000000 		.word	35
 2959 00d0 0D000000 		.word	13
 2960 00d4 01000000 		.word	1
 2961 00d8 0A000000 		.word	10
ARM GAS  C:\Users\SDEVAS~1\AppData\Local\Temp\ccOTp3Ub.s 			page 58


 2962 00dc 2D000000 		.word	45
 2963 00e0 0E000000 		.word	14
 2964 00e4 01000000 		.word	1
 2965 00e8 09000000 		.word	9
 2966 00ec 36000000 		.word	54
 2967 00f0 0F000000 		.word	15
 2968 00f4 01000000 		.word	1
 2969 00f8 08000000 		.word	8
 2970 00fc 3E000000 		.word	62
 2971 0100 10000000 		.word	16
 2972 0104 01000000 		.word	1
 2973 0108 07000000 		.word	7
 2974 010c 45000000 		.word	69
 2975 0110 11000000 		.word	17
 2976 0114 01000000 		.word	1
 2977 0118 06000000 		.word	6
 2978 011c 4B000000 		.word	75
 2979 0120 12000000 		.word	18
 2980 0124 00000000 		.word	0
 2981 0128 00000000 		.word	0
 2982 012c 4B000000 		.word	75
 2983 0130 13000000 		.word	19
 2984 0134 00000000 		.word	0
 2985 0138 00000000 		.word	0
 2986 013c 4B000000 		.word	75
 2987 0140 14000000 		.word	20
 2988 0144 00000000 		.word	0
 2989 0148 00000000 		.word	0
 2990 014c 4B000000 		.word	75
 2991 0150 15000000 		.word	21
 2992 0154 00000000 		.word	0
 2993 0158 00000000 		.word	0
 2994 015c 4B000000 		.word	75
 2995 0160 16000000 		.word	22
 2996 0164 00000000 		.word	0
 2997 0168 00000000 		.word	0
 2998 016c 4B000000 		.word	75
 2999 0170 17000000 		.word	23
 3000 0174 00000000 		.word	0
 3001 0178 00000000 		.word	0
 3002 017c 4B000000 		.word	75
 3003              		.section	.rodata
 3004 0127 00       		.align	2
 3005              	.LC77:
 3006 0128 75706461 		.ascii	"updateOpVals\012\015\000"
 3006      74654F70 
 3006      56616C73 
 3006      0A0D00
 3007              		.section	.text.fsmIfaceWaterControl_updateOpVals,"ax",%progbits
 3008              		.align	2
 3009              		.global	fsmIfaceWaterControl_updateOpVals
 3010              		.code	16
 3011              		.thumb_func
 3012              		.type	fsmIfaceWaterControl_updateOpVals, %function
 3013              	fsmIfaceWaterControl_updateOpVals:
 3014              	.LFB102:
 248:.\src/waterControl.c **** 
ARM GAS  C:\Users\SDEVAS~1\AppData\Local\Temp\ccOTp3Ub.s 			page 59


 249:.\src/waterControl.c **** 
 250:.\src/waterControl.c **** int opVals[24][4]=
 251:.\src/waterControl.c **** {
 252:.\src/waterControl.c ****     //At startup everything should be set to zero until vals are downloaded
 253:.\src/waterControl.c ****     //{Time of day, valve mode, minutes on, total max vol}
 254:.\src/waterControl.c ****     {0,OFF,0,0},
 255:.\src/waterControl.c ****     {1,OFF,0,0},
 256:.\src/waterControl.c ****     {2,OFF,0,0},
 257:.\src/waterControl.c ****     {3,OFF,0,0},
 258:.\src/waterControl.c ****     {4,OFF,0,0},
 259:.\src/waterControl.c ****     {5,OFF,0,0},
 260:.\src/waterControl.c ****     {6,OFF,0,0},
 261:.\src/waterControl.c ****     {7,OFF,0,0},
 262:.\src/waterControl.c ****     {8,ON,5,5},
 263:.\src/waterControl.c ****     {9,ON,6,11},
 264:.\src/waterControl.c ****     {10,ON,7,18},
 265:.\src/waterControl.c ****     {11,ON,8,26},
 266:.\src/waterControl.c ****     {12,ON,9,35},
 267:.\src/waterControl.c ****     {13,ON,10,45},
 268:.\src/waterControl.c ****     {14,ON,9,54},
 269:.\src/waterControl.c ****     {15,ON,8,62},
 270:.\src/waterControl.c ****     {16,ON,7,69},
 271:.\src/waterControl.c ****     {17,ON,6,75},
 272:.\src/waterControl.c ****     {18,OFF,0,75},
 273:.\src/waterControl.c ****     {19,OFF,0,75},
 274:.\src/waterControl.c ****     {20,OFF,0,75},
 275:.\src/waterControl.c ****     {21,OFF,0,75},
 276:.\src/waterControl.c ****     {22,OFF,0,75},
 277:.\src/waterControl.c ****     {23,OFF,0,75}
 278:.\src/waterControl.c **** };
 279:.\src/waterControl.c **** 
 280:.\src/waterControl.c **** void fsmIfaceWaterControl_updateOpVals(){
 3015              		.loc 1 280 0
 3016              		.cfi_startproc
 3017 0000 80B5     		push	{r7, lr}
 3018              		.cfi_def_cfa_offset 8
 3019              		.cfi_offset 7, -8
 3020              		.cfi_offset 14, -4
 3021 0002 00AF     		add	r7, sp, #0
 3022              		.cfi_def_cfa_register 7
 281:.\src/waterControl.c ****     //TODO
 282:.\src/waterControl.c ****     //Update the operation vals based on Info coming from mc200
 283:.\src/waterControl.c ****     UART_UartPutString("updateOpVals\n\r");
 3023              		.loc 1 283 0
 3024 0004 024B     		ldr	r3, .L233
 3025 0006 181C     		mov	r0, r3
 3026 0008 FFF7FEFF 		bl	UART_UartPutString
 284:.\src/waterControl.c **** }
 3027              		.loc 1 284 0
 3028 000c BD46     		mov	sp, r7
 3029              		@ sp needed
 3030 000e 80BD     		pop	{r7, pc}
 3031              	.L234:
 3032              		.align	2
 3033              	.L233:
 3034 0010 28010000 		.word	.LC77
 3035              		.cfi_endproc
ARM GAS  C:\Users\SDEVAS~1\AppData\Local\Temp\ccOTp3Ub.s 			page 60


 3036              	.LFE102:
 3037              		.size	fsmIfaceWaterControl_updateOpVals, .-fsmIfaceWaterControl_updateOpVals
 3038              		.section	.text.fsmIfaceWaterControl_setExpTime,"ax",%progbits
 3039              		.align	2
 3040              		.global	fsmIfaceWaterControl_setExpTime
 3041              		.code	16
 3042              		.thumb_func
 3043              		.type	fsmIfaceWaterControl_setExpTime, %function
 3044              	fsmIfaceWaterControl_setExpTime:
 3045              	.LFB103:
 285:.\src/waterControl.c **** 
 286:.\src/waterControl.c **** void fsmIfaceWaterControl_setExpTime(){
 3046              		.loc 1 286 0
 3047              		.cfi_startproc
 3048 0000 90B5     		push	{r4, r7, lr}
 3049              		.cfi_def_cfa_offset 12
 3050              		.cfi_offset 4, -12
 3051              		.cfi_offset 7, -8
 3052              		.cfi_offset 14, -4
 3053 0002 85B0     		sub	sp, sp, #20
 3054              		.cfi_def_cfa_offset 32
 3055 0004 00AF     		add	r7, sp, #0
 3056              		.cfi_def_cfa_register 7
 287:.\src/waterControl.c ****     currentTime = getTime();
 3057              		.loc 1 287 0
 3058 0006 1B4C     		ldr	r4, .L237
 3059 0008 3B1C     		mov	r3, r7
 3060 000a 181C     		mov	r0, r3
 3061 000c FFF7FEFF 		bl	getTime
 3062 0010 3B1C     		mov	r3, r7
 3063 0012 211C     		mov	r1, r4
 3064 0014 1A1C     		mov	r2, r3
 3065 0016 0523     		mov	r3, #5
 3066 0018 081C     		mov	r0, r1
 3067 001a 111C     		mov	r1, r2
 3068 001c 1A1C     		mov	r2, r3
 3069 001e FFF7FEFF 		bl	memcpy
 288:.\src/waterControl.c ****     expTime = currentTime;
 3070              		.loc 1 288 0
 3071 0022 154B     		ldr	r3, .L237+4
 3072 0024 134A     		ldr	r2, .L237
 3073 0026 1168     		ldr	r1, [r2]
 3074 0028 1960     		str	r1, [r3]
 3075 002a 1279     		ldrb	r2, [r2, #4]
 3076 002c 1A71     		strb	r2, [r3, #4]
 289:.\src/waterControl.c ****     int operationMins = opVals[currentTime.hours][1];
 3077              		.loc 1 289 0
 3078 002e 114B     		ldr	r3, .L237
 3079 0030 9B78     		ldrb	r3, [r3, #2]
 3080 0032 124A     		ldr	r2, .L237+8
 3081 0034 1B01     		lsl	r3, r3, #4
 3082 0036 D318     		add	r3, r2, r3
 3083 0038 0433     		add	r3, r3, #4
 3084 003a 1B68     		ldr	r3, [r3]
 3085 003c FB60     		str	r3, [r7, #12]
 290:.\src/waterControl.c ****        
 291:.\src/waterControl.c ****     expTime.mins += operationMins;
ARM GAS  C:\Users\SDEVAS~1\AppData\Local\Temp\ccOTp3Ub.s 			page 61


 3086              		.loc 1 291 0
 3087 003e 0E4B     		ldr	r3, .L237+4
 3088 0040 5A78     		ldrb	r2, [r3, #1]
 3089 0042 FB68     		ldr	r3, [r7, #12]
 3090 0044 DBB2     		uxtb	r3, r3
 3091 0046 D318     		add	r3, r2, r3
 3092 0048 DAB2     		uxtb	r2, r3
 3093 004a 0B4B     		ldr	r3, .L237+4
 3094 004c 5A70     		strb	r2, [r3, #1]
 292:.\src/waterControl.c ****     if(expTime.mins >= 60){
 3095              		.loc 1 292 0
 3096 004e 0A4B     		ldr	r3, .L237+4
 3097 0050 5B78     		ldrb	r3, [r3, #1]
 3098 0052 3B2B     		cmp	r3, #59
 3099 0054 0BD9     		bls	.L235
 293:.\src/waterControl.c ****         expTime.hours+=1;
 3100              		.loc 1 293 0
 3101 0056 084B     		ldr	r3, .L237+4
 3102 0058 9B78     		ldrb	r3, [r3, #2]
 3103 005a 0133     		add	r3, r3, #1
 3104 005c DAB2     		uxtb	r2, r3
 3105 005e 064B     		ldr	r3, .L237+4
 3106 0060 9A70     		strb	r2, [r3, #2]
 294:.\src/waterControl.c ****         expTime.mins-=60;
 3107              		.loc 1 294 0
 3108 0062 054B     		ldr	r3, .L237+4
 3109 0064 5B78     		ldrb	r3, [r3, #1]
 3110 0066 3C3B     		sub	r3, r3, #60
 3111 0068 DAB2     		uxtb	r2, r3
 3112 006a 034B     		ldr	r3, .L237+4
 3113 006c 5A70     		strb	r2, [r3, #1]
 3114              	.L235:
 295:.\src/waterControl.c ****     }
 296:.\src/waterControl.c **** }
 3115              		.loc 1 296 0
 3116 006e BD46     		mov	sp, r7
 3117 0070 05B0     		add	sp, sp, #20
 3118              		@ sp needed
 3119 0072 90BD     		pop	{r4, r7, pc}
 3120              	.L238:
 3121              		.align	2
 3122              	.L237:
 3123 0074 00000000 		.word	currentTime
 3124 0078 00000000 		.word	expTime
 3125 007c 00000000 		.word	opVals
 3126              		.cfi_endproc
 3127              	.LFE103:
 3128              		.size	fsmIfaceWaterControl_setExpTime, .-fsmIfaceWaterControl_setExpTime
 3129              		.section	.rodata
 3130 0137 00       		.align	2
 3131              	.LC85:
 3132 0138 63686563 		.ascii	"checkOpMode  : \000"
 3132      6B4F704D 
 3132      6F646520 
 3132      203A2000 
 3133              		.align	2
 3134              	.LC87:
ARM GAS  C:\Users\SDEVAS~1\AppData\Local\Temp\ccOTp3Ub.s 			page 62


 3135 0148 0D0A00   		.ascii	"\015\012\000"
 3136              		.section	.text.fsmIfaceWaterControl_getOpMode,"ax",%progbits
 3137              		.align	2
 3138              		.global	fsmIfaceWaterControl_getOpMode
 3139              		.code	16
 3140              		.thumb_func
 3141              		.type	fsmIfaceWaterControl_getOpMode, %function
 3142              	fsmIfaceWaterControl_getOpMode:
 3143              	.LFB104:
 297:.\src/waterControl.c **** 
 298:.\src/waterControl.c **** sc_integer fsmIfaceWaterControl_getOpMode(){
 3144              		.loc 1 298 0
 3145              		.cfi_startproc
 3146 0000 90B5     		push	{r4, r7, lr}
 3147              		.cfi_def_cfa_offset 12
 3148              		.cfi_offset 4, -12
 3149              		.cfi_offset 7, -8
 3150              		.cfi_offset 14, -4
 3151 0002 85B0     		sub	sp, sp, #20
 3152              		.cfi_def_cfa_offset 32
 3153 0004 00AF     		add	r7, sp, #0
 3154              		.cfi_def_cfa_register 7
 299:.\src/waterControl.c ****     currentTime = getTime();
 3155              		.loc 1 299 0
 3156 0006 1E4C     		ldr	r4, .L243
 3157 0008 3B1C     		mov	r3, r7
 3158 000a 181C     		mov	r0, r3
 3159 000c FFF7FEFF 		bl	getTime
 3160 0010 3B1C     		mov	r3, r7
 3161 0012 211C     		mov	r1, r4
 3162 0014 1A1C     		mov	r2, r3
 3163 0016 0523     		mov	r3, #5
 3164 0018 081C     		mov	r0, r1
 3165 001a 111C     		mov	r1, r2
 3166 001c 1A1C     		mov	r2, r3
 3167 001e FFF7FEFF 		bl	memcpy
 300:.\src/waterControl.c ****     int mode = opVals[currentTime.hours][1];
 3168              		.loc 1 300 0
 3169 0022 174B     		ldr	r3, .L243
 3170 0024 9B78     		ldrb	r3, [r3, #2]
 3171 0026 174A     		ldr	r2, .L243+4
 3172 0028 1B01     		lsl	r3, r3, #4
 3173 002a D318     		add	r3, r2, r3
 3174 002c 0433     		add	r3, r3, #4
 3175 002e 1B68     		ldr	r3, [r3]
 3176 0030 FB60     		str	r3, [r7, #12]
 301:.\src/waterControl.c ****     
 302:.\src/waterControl.c ****     if(currentTime.hours > expTime.hours){
 3177              		.loc 1 302 0
 3178 0032 134B     		ldr	r3, .L243
 3179 0034 9A78     		ldrb	r2, [r3, #2]
 3180 0036 144B     		ldr	r3, .L243+8
 3181 0038 9B78     		ldrb	r3, [r3, #2]
 3182 003a 9A42     		cmp	r2, r3
 3183 003c 01D9     		bls	.L240
 303:.\src/waterControl.c ****         mode=OFF;
 3184              		.loc 1 303 0
ARM GAS  C:\Users\SDEVAS~1\AppData\Local\Temp\ccOTp3Ub.s 			page 63


 3185 003e 0023     		mov	r3, #0
 3186 0040 FB60     		str	r3, [r7, #12]
 3187              	.L240:
 304:.\src/waterControl.c ****     }
 305:.\src/waterControl.c ****     if(currentTime.hours == expTime.hours && currentTime.mins >= expTime.mins){
 3188              		.loc 1 305 0
 3189 0042 0F4B     		ldr	r3, .L243
 3190 0044 9A78     		ldrb	r2, [r3, #2]
 3191 0046 104B     		ldr	r3, .L243+8
 3192 0048 9B78     		ldrb	r3, [r3, #2]
 3193 004a 9A42     		cmp	r2, r3
 3194 004c 07D1     		bne	.L241
 3195              		.loc 1 305 0 is_stmt 0 discriminator 1
 3196 004e 0C4B     		ldr	r3, .L243
 3197 0050 5A78     		ldrb	r2, [r3, #1]
 3198 0052 0D4B     		ldr	r3, .L243+8
 3199 0054 5B78     		ldrb	r3, [r3, #1]
 3200 0056 9A42     		cmp	r2, r3
 3201 0058 01D3     		bcc	.L241
 306:.\src/waterControl.c ****         mode=OFF;
 3202              		.loc 1 306 0 is_stmt 1
 3203 005a 0023     		mov	r3, #0
 3204 005c FB60     		str	r3, [r7, #12]
 3205              	.L241:
 307:.\src/waterControl.c ****     }
 308:.\src/waterControl.c ****         
 309:.\src/waterControl.c ****     UART_UartPutString("checkOpMode  : ");
 3206              		.loc 1 309 0
 3207 005e 0B4B     		ldr	r3, .L243+12
 3208 0060 181C     		mov	r0, r3
 3209 0062 FFF7FEFF 		bl	UART_UartPutString
 310:.\src/waterControl.c ****     UART_UartPutChar(mode);
 3210              		.loc 1 310 0
 3211 0066 FB68     		ldr	r3, [r7, #12]
 3212 0068 181C     		mov	r0, r3
 3213 006a FFF7FEFF 		bl	UART_SpiUartWriteTxData
 311:.\src/waterControl.c ****     UART_UartPutString("\r\n");
 3214              		.loc 1 311 0
 3215 006e 084B     		ldr	r3, .L243+16
 3216 0070 181C     		mov	r0, r3
 3217 0072 FFF7FEFF 		bl	UART_UartPutString
 312:.\src/waterControl.c ****     
 313:.\src/waterControl.c ****     //return mode;
 314:.\src/waterControl.c ****     return 1;
 3218              		.loc 1 314 0
 3219 0076 0123     		mov	r3, #1
 315:.\src/waterControl.c **** }
 3220              		.loc 1 315 0
 3221 0078 181C     		mov	r0, r3
 3222 007a BD46     		mov	sp, r7
 3223 007c 05B0     		add	sp, sp, #20
 3224              		@ sp needed
 3225 007e 90BD     		pop	{r4, r7, pc}
 3226              	.L244:
 3227              		.align	2
 3228              	.L243:
 3229 0080 00000000 		.word	currentTime
ARM GAS  C:\Users\SDEVAS~1\AppData\Local\Temp\ccOTp3Ub.s 			page 64


 3230 0084 00000000 		.word	opVals
 3231 0088 00000000 		.word	expTime
 3232 008c 38010000 		.word	.LC85
 3233 0090 48010000 		.word	.LC87
 3234              		.cfi_endproc
 3235              	.LFE104:
 3236              		.size	fsmIfaceWaterControl_getOpMode, .-fsmIfaceWaterControl_getOpMode
 3237              		.section	.rodata
 3238 014b 00       		.align	2
 3239              	.LC89:
 3240 014c 63686563 		.ascii	"checkVolume\012\015\000"
 3240      6B566F6C 
 3240      756D650A 
 3240      0D00
 3241              		.section	.text.fsmIfaceWaterControl_getCurrentVolume,"ax",%progbits
 3242              		.align	2
 3243              		.global	fsmIfaceWaterControl_getCurrentVolume
 3244              		.code	16
 3245              		.thumb_func
 3246              		.type	fsmIfaceWaterControl_getCurrentVolume, %function
 3247              	fsmIfaceWaterControl_getCurrentVolume:
 3248              	.LFB105:
 316:.\src/waterControl.c **** 
 317:.\src/waterControl.c **** sc_integer fsmIfaceWaterControl_getCurrentVolume(){
 3249              		.loc 1 317 0
 3250              		.cfi_startproc
 3251 0000 80B5     		push	{r7, lr}
 3252              		.cfi_def_cfa_offset 8
 3253              		.cfi_offset 7, -8
 3254              		.cfi_offset 14, -4
 3255 0002 00AF     		add	r7, sp, #0
 3256              		.cfi_def_cfa_register 7
 318:.\src/waterControl.c ****     //TODO
 319:.\src/waterControl.c ****     //make sure that we are not exeeding the maximum volume
 320:.\src/waterControl.c ****     
 321:.\src/waterControl.c ****     UART_UartPutString("checkVolume\n\r");
 3257              		.loc 1 321 0
 3258 0004 034B     		ldr	r3, .L247
 3259 0006 181C     		mov	r0, r3
 3260 0008 FFF7FEFF 		bl	UART_UartPutString
 322:.\src/waterControl.c ****     return 1;
 3261              		.loc 1 322 0
 3262 000c 0123     		mov	r3, #1
 323:.\src/waterControl.c **** }
 3263              		.loc 1 323 0
 3264 000e 181C     		mov	r0, r3
 3265 0010 BD46     		mov	sp, r7
 3266              		@ sp needed
 3267 0012 80BD     		pop	{r7, pc}
 3268              	.L248:
 3269              		.align	2
 3270              	.L247:
 3271 0014 4C010000 		.word	.LC89
 3272              		.cfi_endproc
 3273              	.LFE105:
 3274              		.size	fsmIfaceWaterControl_getCurrentVolume, .-fsmIfaceWaterControl_getCurrentVolume
 3275              		.section	.text.fsmIfaceWaterControl_getMaxVolume,"ax",%progbits
ARM GAS  C:\Users\SDEVAS~1\AppData\Local\Temp\ccOTp3Ub.s 			page 65


 3276              		.align	2
 3277              		.global	fsmIfaceWaterControl_getMaxVolume
 3278              		.code	16
 3279              		.thumb_func
 3280              		.type	fsmIfaceWaterControl_getMaxVolume, %function
 3281              	fsmIfaceWaterControl_getMaxVolume:
 3282              	.LFB106:
 324:.\src/waterControl.c **** 
 325:.\src/waterControl.c **** sc_integer fsmIfaceWaterControl_getMaxVolume(){
 3283              		.loc 1 325 0
 3284              		.cfi_startproc
 3285 0000 80B5     		push	{r7, lr}
 3286              		.cfi_def_cfa_offset 8
 3287              		.cfi_offset 7, -8
 3288              		.cfi_offset 14, -4
 3289 0002 00AF     		add	r7, sp, #0
 3290              		.cfi_def_cfa_register 7
 326:.\src/waterControl.c ****     //return opVals[getTime().hours][3];
 327:.\src/waterControl.c ****     return 1000;
 3291              		.loc 1 327 0
 3292 0004 FA23     		mov	r3, #250
 3293 0006 9B00     		lsl	r3, r3, #2
 328:.\src/waterControl.c **** }    
 3294              		.loc 1 328 0
 3295 0008 181C     		mov	r0, r3
 3296 000a BD46     		mov	sp, r7
 3297              		@ sp needed
 3298 000c 80BD     		pop	{r7, pc}
 3299              		.cfi_endproc
 3300              	.LFE106:
 3301              		.size	fsmIfaceWaterControl_getMaxVolume, .-fsmIfaceWaterControl_getMaxVolume
 3302 000e C046     		.section	.rodata
 3303 015a 0000     		.align	2
 3304              	.LC91:
 3305 015c 76616C76 		.ascii	"valveOn\015\012\000"
 3305      654F6E0D 
 3305      0A00
 3306              		.section	.text.fsmIfaceWaterControl_valveOn,"ax",%progbits
 3307              		.align	2
 3308              		.global	fsmIfaceWaterControl_valveOn
 3309              		.code	16
 3310              		.thumb_func
 3311              		.type	fsmIfaceWaterControl_valveOn, %function
 3312              	fsmIfaceWaterControl_valveOn:
 3313              	.LFB107:
 329:.\src/waterControl.c **** void fsmIfaceWaterControl_valveOn(){
 3314              		.loc 1 329 0
 3315              		.cfi_startproc
 3316 0000 80B5     		push	{r7, lr}
 3317              		.cfi_def_cfa_offset 8
 3318              		.cfi_offset 7, -8
 3319              		.cfi_offset 14, -4
 3320 0002 00AF     		add	r7, sp, #0
 3321              		.cfi_def_cfa_register 7
 330:.\src/waterControl.c ****     //TODO
 331:.\src/waterControl.c ****     //switch valve on
 332:.\src/waterControl.c **** 	UART_UartPutString("valveOn\r\n");
ARM GAS  C:\Users\SDEVAS~1\AppData\Local\Temp\ccOTp3Ub.s 			page 66


 3322              		.loc 1 332 0
 3323 0004 024B     		ldr	r3, .L252
 3324 0006 181C     		mov	r0, r3
 3325 0008 FFF7FEFF 		bl	UART_UartPutString
 333:.\src/waterControl.c **** }
 3326              		.loc 1 333 0
 3327 000c BD46     		mov	sp, r7
 3328              		@ sp needed
 3329 000e 80BD     		pop	{r7, pc}
 3330              	.L253:
 3331              		.align	2
 3332              	.L252:
 3333 0010 5C010000 		.word	.LC91
 3334              		.cfi_endproc
 3335              	.LFE107:
 3336              		.size	fsmIfaceWaterControl_valveOn, .-fsmIfaceWaterControl_valveOn
 3337              		.section	.rodata
 3338 0166 0000     		.align	2
 3339              	.LC93:
 3340 0168 76616C76 		.ascii	"valveOff\015\012\000"
 3340      654F6666 
 3340      0D0A00
 3341              		.section	.text.fsmIfaceWaterControl_valveOff,"ax",%progbits
 3342              		.align	2
 3343              		.global	fsmIfaceWaterControl_valveOff
 3344              		.code	16
 3345              		.thumb_func
 3346              		.type	fsmIfaceWaterControl_valveOff, %function
 3347              	fsmIfaceWaterControl_valveOff:
 3348              	.LFB108:
 334:.\src/waterControl.c **** 
 335:.\src/waterControl.c **** void fsmIfaceWaterControl_valveOff(){
 3349              		.loc 1 335 0
 3350              		.cfi_startproc
 3351 0000 80B5     		push	{r7, lr}
 3352              		.cfi_def_cfa_offset 8
 3353              		.cfi_offset 7, -8
 3354              		.cfi_offset 14, -4
 3355 0002 00AF     		add	r7, sp, #0
 3356              		.cfi_def_cfa_register 7
 336:.\src/waterControl.c ****     //TODO
 337:.\src/waterControl.c ****     //switch valve off
 338:.\src/waterControl.c ****     UART_UartPutString("valveOff\r\n");
 3357              		.loc 1 338 0
 3358 0004 044B     		ldr	r3, .L255
 3359 0006 181C     		mov	r0, r3
 3360 0008 FFF7FEFF 		bl	UART_UartPutString
 339:.\src/waterControl.c **** 	LED_Write(0u);
 3361              		.loc 1 339 0
 3362 000c 0020     		mov	r0, #0
 3363 000e FFF7FEFF 		bl	LED_Write
 340:.\src/waterControl.c **** }
 3364              		.loc 1 340 0
 3365 0012 BD46     		mov	sp, r7
 3366              		@ sp needed
 3367 0014 80BD     		pop	{r7, pc}
 3368              	.L256:
ARM GAS  C:\Users\SDEVAS~1\AppData\Local\Temp\ccOTp3Ub.s 			page 67


 3369 0016 C046     		.align	2
 3370              	.L255:
 3371 0018 68010000 		.word	.LC93
 3372              		.cfi_endproc
 3373              	.LFE108:
 3374              		.size	fsmIfaceWaterControl_valveOff, .-fsmIfaceWaterControl_valveOff
 3375              		.section	.rodata
 3376 0173 00       		.align	2
 3377              	.LC95:
 3378 0174 496E666F 		.ascii	"Info\000"
 3378      00
 3379 0179 000000   		.section	.text.fsmIfaceWaterControl_sendStats,"ax",%progbits
 3380              		.align	2
 3381              		.global	fsmIfaceWaterControl_sendStats
 3382              		.code	16
 3383              		.thumb_func
 3384              		.type	fsmIfaceWaterControl_sendStats, %function
 3385              	fsmIfaceWaterControl_sendStats:
 3386              	.LFB109:
 341:.\src/waterControl.c **** 
 342:.\src/waterControl.c **** void fsmIfaceWaterControl_sendStats(){
 3387              		.loc 1 342 0
 3388              		.cfi_startproc
 3389 0000 80B5     		push	{r7, lr}
 3390              		.cfi_def_cfa_offset 8
 3391              		.cfi_offset 7, -8
 3392              		.cfi_offset 14, -4
 3393 0002 00AF     		add	r7, sp, #0
 3394              		.cfi_def_cfa_register 7
 343:.\src/waterControl.c **** 	comm_ScheduleMessage("Info", 4, 'X', '0');
 3395              		.loc 1 343 0
 3396 0004 044B     		ldr	r3, .L258
 3397 0006 181C     		mov	r0, r3
 3398 0008 0421     		mov	r1, #4
 3399 000a 5822     		mov	r2, #88
 3400 000c 3023     		mov	r3, #48
 3401 000e FFF7FEFF 		bl	comm_ScheduleMessage
 344:.\src/waterControl.c **** }
 3402              		.loc 1 344 0
 3403 0012 BD46     		mov	sp, r7
 3404              		@ sp needed
 3405 0014 80BD     		pop	{r7, pc}
 3406              	.L259:
 3407 0016 C046     		.align	2
 3408              	.L258:
 3409 0018 74010000 		.word	.LC95
 3410              		.cfi_endproc
 3411              	.LFE109:
 3412              		.size	fsmIfaceWaterControl_sendStats, .-fsmIfaceWaterControl_sendStats
 3413              		.text
 3414              	.Letext0:
 3415              		.file 2 "c:\\program files (x86)\\cypress\\psoc creator\\3.2\\psoc creator\\import\\gnu\\arm\\4.8.
 3416              		.file 3 "c:\\program files (x86)\\cypress\\psoc creator\\3.2\\psoc creator\\import\\gnu\\arm\\4.8.
 3417              		.file 4 "Generated_Source\\PSoC4/cytypes.h"
 3418              		.file 5 "./src-fsm/sc_types.h"
 3419              		.file 6 ".\\src\\main.h"
 3420              		.file 7 "Generated_Source\\PSoC4/comm.h"
ARM GAS  C:\Users\SDEVAS~1\AppData\Local\Temp\ccOTp3Ub.s 			page 68


 3421              		.section	.debug_info,"",%progbits
 3422              	.Ldebug_info0:
 3423 0000 180C0000 		.4byte	0xc18
 3424 0004 0400     		.2byte	0x4
 3425 0006 00000000 		.4byte	.Ldebug_abbrev0
 3426 000a 04       		.byte	0x4
 3427 000b 01       		.uleb128 0x1
 3428 000c 73050000 		.4byte	.LASF136
 3429 0010 01       		.byte	0x1
 3430 0011 76070000 		.4byte	.LASF137
 3431 0015 CE010000 		.4byte	.LASF138
 3432 0019 00000000 		.4byte	.Ldebug_ranges0+0
 3433 001d 00000000 		.4byte	0
 3434 0021 00000000 		.4byte	.Ldebug_line0
 3435 0025 02       		.uleb128 0x2
 3436 0026 01       		.byte	0x1
 3437 0027 06       		.byte	0x6
 3438 0028 1B090000 		.4byte	.LASF0
 3439 002c 02       		.uleb128 0x2
 3440 002d 01       		.byte	0x1
 3441 002e 08       		.byte	0x8
 3442 002f B1070000 		.4byte	.LASF1
 3443 0033 02       		.uleb128 0x2
 3444 0034 02       		.byte	0x2
 3445 0035 05       		.byte	0x5
 3446 0036 54060000 		.4byte	.LASF2
 3447 003a 02       		.uleb128 0x2
 3448 003b 02       		.byte	0x2
 3449 003c 07       		.byte	0x7
 3450 003d 27090000 		.4byte	.LASF3
 3451 0041 03       		.uleb128 0x3
 3452 0042 C8000000 		.4byte	.LASF9
 3453 0046 02       		.byte	0x2
 3454 0047 37       		.byte	0x37
 3455 0048 4C000000 		.4byte	0x4c
 3456 004c 02       		.uleb128 0x2
 3457 004d 04       		.byte	0x4
 3458 004e 05       		.byte	0x5
 3459 004f 69060000 		.4byte	.LASF4
 3460 0053 02       		.uleb128 0x2
 3461 0054 04       		.byte	0x4
 3462 0055 07       		.byte	0x7
 3463 0056 53070000 		.4byte	.LASF5
 3464 005a 02       		.uleb128 0x2
 3465 005b 08       		.byte	0x8
 3466 005c 05       		.byte	0x5
 3467 005d FB030000 		.4byte	.LASF6
 3468 0061 02       		.uleb128 0x2
 3469 0062 08       		.byte	0x8
 3470 0063 07       		.byte	0x7
 3471 0064 A3010000 		.4byte	.LASF7
 3472 0068 04       		.uleb128 0x4
 3473 0069 04       		.byte	0x4
 3474 006a 05       		.byte	0x5
 3475 006b 696E7400 		.ascii	"int\000"
 3476 006f 02       		.uleb128 0x2
 3477 0070 04       		.byte	0x4
ARM GAS  C:\Users\SDEVAS~1\AppData\Local\Temp\ccOTp3Ub.s 			page 69


 3478 0071 07       		.byte	0x7
 3479 0072 BB000000 		.4byte	.LASF8
 3480 0076 03       		.uleb128 0x3
 3481 0077 8B070000 		.4byte	.LASF10
 3482 007b 03       		.byte	0x3
 3483 007c 41       		.byte	0x41
 3484 007d 41000000 		.4byte	0x41
 3485 0081 03       		.uleb128 0x3
 3486 0082 97090000 		.4byte	.LASF11
 3487 0086 04       		.byte	0x4
 3488 0087 B3       		.byte	0xb3
 3489 0088 2C000000 		.4byte	0x2c
 3490 008c 03       		.uleb128 0x3
 3491 008d D0040000 		.4byte	.LASF12
 3492 0091 04       		.byte	0x4
 3493 0092 B5       		.byte	0xb5
 3494 0093 53000000 		.4byte	0x53
 3495 0097 02       		.uleb128 0x2
 3496 0098 04       		.byte	0x4
 3497 0099 04       		.byte	0x4
 3498 009a 69010000 		.4byte	.LASF13
 3499 009e 02       		.uleb128 0x2
 3500 009f 08       		.byte	0x8
 3501 00a0 04       		.byte	0x4
 3502 00a1 9D090000 		.4byte	.LASF14
 3503 00a5 02       		.uleb128 0x2
 3504 00a6 01       		.byte	0x1
 3505 00a7 08       		.byte	0x8
 3506 00a8 A3020000 		.4byte	.LASF15
 3507 00ac 02       		.uleb128 0x2
 3508 00ad 04       		.byte	0x4
 3509 00ae 07       		.byte	0x7
 3510 00af 4A070000 		.4byte	.LASF16
 3511 00b3 05       		.uleb128 0x5
 3512 00b4 04       		.byte	0x4
 3513 00b5 A5000000 		.4byte	0xa5
 3514 00b9 05       		.uleb128 0x5
 3515 00ba 04       		.byte	0x4
 3516 00bb BF000000 		.4byte	0xbf
 3517 00bf 06       		.uleb128 0x6
 3518 00c0 A5000000 		.4byte	0xa5
 3519 00c4 03       		.uleb128 0x3
 3520 00c5 A4090000 		.4byte	.LASF17
 3521 00c9 05       		.byte	0x5
 3522 00ca 0E       		.byte	0xe
 3523 00cb 76000000 		.4byte	0x76
 3524 00cf 02       		.uleb128 0x2
 3525 00d0 01       		.byte	0x1
 3526 00d1 02       		.byte	0x2
 3527 00d2 27020000 		.4byte	.LASF18
 3528 00d6 07       		.uleb128 0x7
 3529 00d7 69020000 		.4byte	.LASF24
 3530 00db 05       		.byte	0x5
 3531 00dc 06       		.byte	0x6
 3532 00dd 4C       		.byte	0x4c
 3533 00de 1F010000 		.4byte	0x11f
 3534 00e2 08       		.uleb128 0x8
ARM GAS  C:\Users\SDEVAS~1\AppData\Local\Temp\ccOTp3Ub.s 			page 70


 3535 00e3 DB030000 		.4byte	.LASF19
 3536 00e7 06       		.byte	0x6
 3537 00e8 4D       		.byte	0x4d
 3538 00e9 81000000 		.4byte	0x81
 3539 00ed 00       		.byte	0
 3540 00ee 08       		.uleb128 0x8
 3541 00ef B2020000 		.4byte	.LASF20
 3542 00f3 06       		.byte	0x6
 3543 00f4 4E       		.byte	0x4e
 3544 00f5 81000000 		.4byte	0x81
 3545 00f9 01       		.byte	0x1
 3546 00fa 08       		.uleb128 0x8
 3547 00fb E9060000 		.4byte	.LASF21
 3548 00ff 06       		.byte	0x6
 3549 0100 4F       		.byte	0x4f
 3550 0101 81000000 		.4byte	0x81
 3551 0105 02       		.byte	0x2
 3552 0106 08       		.uleb128 0x8
 3553 0107 E4000000 		.4byte	.LASF22
 3554 010b 06       		.byte	0x6
 3555 010c 50       		.byte	0x50
 3556 010d 81000000 		.4byte	0x81
 3557 0111 03       		.byte	0x3
 3558 0112 08       		.uleb128 0x8
 3559 0113 D8070000 		.4byte	.LASF23
 3560 0117 06       		.byte	0x6
 3561 0118 51       		.byte	0x51
 3562 0119 81000000 		.4byte	0x81
 3563 011d 04       		.byte	0x4
 3564 011e 00       		.byte	0
 3565 011f 03       		.uleb128 0x3
 3566 0120 69020000 		.4byte	.LASF24
 3567 0124 06       		.byte	0x6
 3568 0125 52       		.byte	0x52
 3569 0126 D6000000 		.4byte	0xd6
 3570 012a 09       		.uleb128 0x9
 3571 012b FC       		.byte	0xfc
 3572 012c 01       		.byte	0x1
 3573 012d 0F       		.byte	0xf
 3574 012e 53020000 		.4byte	0x253
 3575 0132 08       		.uleb128 0x8
 3576 0133 EF060000 		.4byte	.LASF25
 3577 0137 01       		.byte	0x1
 3578 0138 10       		.byte	0x10
 3579 0139 68000000 		.4byte	0x68
 3580 013d 00       		.byte	0
 3581 013e 08       		.uleb128 0x8
 3582 013f 9F000000 		.4byte	.LASF26
 3583 0143 01       		.byte	0x1
 3584 0144 11       		.byte	0x11
 3585 0145 68000000 		.4byte	0x68
 3586 0149 04       		.byte	0x4
 3587 014a 08       		.uleb128 0x8
 3588 014b 5D010000 		.4byte	.LASF27
 3589 014f 01       		.byte	0x1
 3590 0150 12       		.byte	0x12
 3591 0151 68000000 		.4byte	0x68
ARM GAS  C:\Users\SDEVAS~1\AppData\Local\Temp\ccOTp3Ub.s 			page 71


 3592 0155 08       		.byte	0x8
 3593 0156 08       		.uleb128 0x8
 3594 0157 9E060000 		.4byte	.LASF28
 3595 015b 01       		.byte	0x1
 3596 015c 13       		.byte	0x13
 3597 015d 68000000 		.4byte	0x68
 3598 0161 0C       		.byte	0xc
 3599 0162 08       		.uleb128 0x8
 3600 0163 48060000 		.4byte	.LASF29
 3601 0167 01       		.byte	0x1
 3602 0168 14       		.byte	0x14
 3603 0169 68000000 		.4byte	0x68
 3604 016d 10       		.byte	0x10
 3605 016e 08       		.uleb128 0x8
 3606 016f 3D010000 		.4byte	.LASF30
 3607 0173 01       		.byte	0x1
 3608 0174 15       		.byte	0x15
 3609 0175 68000000 		.4byte	0x68
 3610 0179 14       		.byte	0x14
 3611 017a 08       		.uleb128 0x8
 3612 017b B2040000 		.4byte	.LASF31
 3613 017f 01       		.byte	0x1
 3614 0180 16       		.byte	0x16
 3615 0181 68000000 		.4byte	0x68
 3616 0185 18       		.byte	0x18
 3617 0186 08       		.uleb128 0x8
 3618 0187 FD060000 		.4byte	.LASF32
 3619 018b 01       		.byte	0x1
 3620 018c 17       		.byte	0x17
 3621 018d 68000000 		.4byte	0x68
 3622 0191 1C       		.byte	0x1c
 3623 0192 08       		.uleb128 0x8
 3624 0193 0E000000 		.4byte	.LASF33
 3625 0197 01       		.byte	0x1
 3626 0198 18       		.byte	0x18
 3627 0199 68000000 		.4byte	0x68
 3628 019d 20       		.byte	0x20
 3629 019e 08       		.uleb128 0x8
 3630 019f 2A080000 		.4byte	.LASF34
 3631 01a3 01       		.byte	0x1
 3632 01a4 19       		.byte	0x19
 3633 01a5 68000000 		.4byte	0x68
 3634 01a9 24       		.byte	0x24
 3635 01aa 08       		.uleb128 0x8
 3636 01ab A8020000 		.4byte	.LASF35
 3637 01af 01       		.byte	0x1
 3638 01b0 1A       		.byte	0x1a
 3639 01b1 68000000 		.4byte	0x68
 3640 01b5 28       		.byte	0x28
 3641 01b6 08       		.uleb128 0x8
 3642 01b7 72060000 		.4byte	.LASF36
 3643 01bb 01       		.byte	0x1
 3644 01bc 1B       		.byte	0x1b
 3645 01bd 68000000 		.4byte	0x68
 3646 01c1 2C       		.byte	0x2c
 3647 01c2 08       		.uleb128 0x8
 3648 01c3 72000000 		.4byte	.LASF37
ARM GAS  C:\Users\SDEVAS~1\AppData\Local\Temp\ccOTp3Ub.s 			page 72


 3649 01c7 01       		.byte	0x1
 3650 01c8 1C       		.byte	0x1c
 3651 01c9 68000000 		.4byte	0x68
 3652 01cd 30       		.byte	0x30
 3653 01ce 08       		.uleb128 0x8
 3654 01cf F4030000 		.4byte	.LASF38
 3655 01d3 01       		.byte	0x1
 3656 01d4 1D       		.byte	0x1d
 3657 01d5 68000000 		.4byte	0x68
 3658 01d9 34       		.byte	0x34
 3659 01da 08       		.uleb128 0x8
 3660 01db 16020000 		.4byte	.LASF39
 3661 01df 01       		.byte	0x1
 3662 01e0 1F       		.byte	0x1f
 3663 01e1 53020000 		.4byte	0x253
 3664 01e5 38       		.byte	0x38
 3665 01e6 08       		.uleb128 0x8
 3666 01e7 E0040000 		.4byte	.LASF40
 3667 01eb 01       		.byte	0x1
 3668 01ec 21       		.byte	0x21
 3669 01ed 68000000 		.4byte	0x68
 3670 01f1 D8       		.byte	0xd8
 3671 01f2 08       		.uleb128 0x8
 3672 01f3 FB080000 		.4byte	.LASF41
 3673 01f7 01       		.byte	0x1
 3674 01f8 22       		.byte	0x22
 3675 01f9 68000000 		.4byte	0x68
 3676 01fd DC       		.byte	0xdc
 3677 01fe 08       		.uleb128 0x8
 3678 01ff 7E060000 		.4byte	.LASF42
 3679 0203 01       		.byte	0x1
 3680 0204 23       		.byte	0x23
 3681 0205 68000000 		.4byte	0x68
 3682 0209 E0       		.byte	0xe0
 3683 020a 08       		.uleb128 0x8
 3684 020b 8E060000 		.4byte	.LASF43
 3685 020f 01       		.byte	0x1
 3686 0210 24       		.byte	0x24
 3687 0211 68000000 		.4byte	0x68
 3688 0215 E4       		.byte	0xe4
 3689 0216 08       		.uleb128 0x8
 3690 0217 AA060000 		.4byte	.LASF44
 3691 021b 01       		.byte	0x1
 3692 021c 25       		.byte	0x25
 3693 021d 68000000 		.4byte	0x68
 3694 0221 E8       		.byte	0xe8
 3695 0222 08       		.uleb128 0x8
 3696 0223 BA060000 		.4byte	.LASF45
 3697 0227 01       		.byte	0x1
 3698 0228 26       		.byte	0x26
 3699 0229 68000000 		.4byte	0x68
 3700 022d EC       		.byte	0xec
 3701 022e 08       		.uleb128 0x8
 3702 022f 3D000000 		.4byte	.LASF46
 3703 0233 01       		.byte	0x1
 3704 0234 27       		.byte	0x27
 3705 0235 68000000 		.4byte	0x68
ARM GAS  C:\Users\SDEVAS~1\AppData\Local\Temp\ccOTp3Ub.s 			page 73


 3706 0239 F0       		.byte	0xf0
 3707 023a 08       		.uleb128 0x8
 3708 023b FF070000 		.4byte	.LASF47
 3709 023f 01       		.byte	0x1
 3710 0240 28       		.byte	0x28
 3711 0241 68000000 		.4byte	0x68
 3712 0245 F4       		.byte	0xf4
 3713 0246 08       		.uleb128 0x8
 3714 0247 EB030000 		.4byte	.LASF48
 3715 024b 01       		.byte	0x1
 3716 024c 29       		.byte	0x29
 3717 024d 68000000 		.4byte	0x68
 3718 0251 F8       		.byte	0xf8
 3719 0252 00       		.byte	0
 3720 0253 0A       		.uleb128 0xa
 3721 0254 68000000 		.4byte	0x68
 3722 0258 69020000 		.4byte	0x269
 3723 025c 0B       		.uleb128 0xb
 3724 025d AC000000 		.4byte	0xac
 3725 0261 09       		.byte	0x9
 3726 0262 0B       		.uleb128 0xb
 3727 0263 AC000000 		.4byte	0xac
 3728 0267 03       		.byte	0x3
 3729 0268 00       		.byte	0
 3730 0269 0C       		.uleb128 0xc
 3731 026a 11080000 		.4byte	.LASF49
 3732 026e 01       		.byte	0x1
 3733 026f 2D       		.byte	0x2d
 3734 0270 00000000 		.4byte	.LFB33
 3735 0274 20000000 		.4byte	.LFE33-.LFB33
 3736 0278 01       		.uleb128 0x1
 3737 0279 9C       		.byte	0x9c
 3738 027a 8D020000 		.4byte	0x28d
 3739 027e 0D       		.uleb128 0xd
 3740 027f 76616C00 		.ascii	"val\000"
 3741 0283 01       		.byte	0x1
 3742 0284 2D       		.byte	0x2d
 3743 0285 8D020000 		.4byte	0x28d
 3744 0289 02       		.uleb128 0x2
 3745 028a 91       		.byte	0x91
 3746 028b 74       		.sleb128 -12
 3747 028c 00       		.byte	0
 3748 028d 05       		.uleb128 0x5
 3749 028e 04       		.byte	0x4
 3750 028f 68000000 		.4byte	0x68
 3751 0293 0C       		.uleb128 0xc
 3752 0294 BF070000 		.4byte	.LASF50
 3753 0298 01       		.byte	0x1
 3754 0299 30       		.byte	0x30
 3755 029a 00000000 		.4byte	.LFB34
 3756 029e 20000000 		.4byte	.LFE34-.LFB34
 3757 02a2 01       		.uleb128 0x1
 3758 02a3 9C       		.byte	0x9c
 3759 02a4 B7020000 		.4byte	0x2b7
 3760 02a8 0D       		.uleb128 0xd
 3761 02a9 76616C00 		.ascii	"val\000"
 3762 02ad 01       		.byte	0x1
ARM GAS  C:\Users\SDEVAS~1\AppData\Local\Temp\ccOTp3Ub.s 			page 74


 3763 02ae 30       		.byte	0x30
 3764 02af 8D020000 		.4byte	0x28d
 3765 02b3 02       		.uleb128 0x2
 3766 02b4 91       		.byte	0x91
 3767 02b5 74       		.sleb128 -12
 3768 02b6 00       		.byte	0
 3769 02b7 0C       		.uleb128 0xc
 3770 02b8 33080000 		.4byte	.LASF51
 3771 02bc 01       		.byte	0x1
 3772 02bd 33       		.byte	0x33
 3773 02be 00000000 		.4byte	.LFB35
 3774 02c2 20000000 		.4byte	.LFE35-.LFB35
 3775 02c6 01       		.uleb128 0x1
 3776 02c7 9C       		.byte	0x9c
 3777 02c8 DB020000 		.4byte	0x2db
 3778 02cc 0D       		.uleb128 0xd
 3779 02cd 76616C00 		.ascii	"val\000"
 3780 02d1 01       		.byte	0x1
 3781 02d2 33       		.byte	0x33
 3782 02d3 8D020000 		.4byte	0x28d
 3783 02d7 02       		.uleb128 0x2
 3784 02d8 91       		.byte	0x91
 3785 02d9 74       		.sleb128 -12
 3786 02da 00       		.byte	0
 3787 02db 0C       		.uleb128 0xc
 3788 02dc 4C080000 		.4byte	.LASF52
 3789 02e0 01       		.byte	0x1
 3790 02e1 36       		.byte	0x36
 3791 02e2 00000000 		.4byte	.LFB36
 3792 02e6 20000000 		.4byte	.LFE36-.LFB36
 3793 02ea 01       		.uleb128 0x1
 3794 02eb 9C       		.byte	0x9c
 3795 02ec FF020000 		.4byte	0x2ff
 3796 02f0 0D       		.uleb128 0xd
 3797 02f1 76616C00 		.ascii	"val\000"
 3798 02f5 01       		.byte	0x1
 3799 02f6 36       		.byte	0x36
 3800 02f7 8D020000 		.4byte	0x28d
 3801 02fb 02       		.uleb128 0x2
 3802 02fc 91       		.byte	0x91
 3803 02fd 74       		.sleb128 -12
 3804 02fe 00       		.byte	0
 3805 02ff 0C       		.uleb128 0xc
 3806 0300 65080000 		.4byte	.LASF53
 3807 0304 01       		.byte	0x1
 3808 0305 39       		.byte	0x39
 3809 0306 00000000 		.4byte	.LFB37
 3810 030a 20000000 		.4byte	.LFE37-.LFB37
 3811 030e 01       		.uleb128 0x1
 3812 030f 9C       		.byte	0x9c
 3813 0310 23030000 		.4byte	0x323
 3814 0314 0D       		.uleb128 0xd
 3815 0315 76616C00 		.ascii	"val\000"
 3816 0319 01       		.byte	0x1
 3817 031a 39       		.byte	0x39
 3818 031b 8D020000 		.4byte	0x28d
 3819 031f 02       		.uleb128 0x2
ARM GAS  C:\Users\SDEVAS~1\AppData\Local\Temp\ccOTp3Ub.s 			page 75


 3820 0320 91       		.byte	0x91
 3821 0321 74       		.sleb128 -12
 3822 0322 00       		.byte	0
 3823 0323 0C       		.uleb128 0xc
 3824 0324 7E080000 		.4byte	.LASF54
 3825 0328 01       		.byte	0x1
 3826 0329 3C       		.byte	0x3c
 3827 032a 00000000 		.4byte	.LFB38
 3828 032e 20000000 		.4byte	.LFE38-.LFB38
 3829 0332 01       		.uleb128 0x1
 3830 0333 9C       		.byte	0x9c
 3831 0334 47030000 		.4byte	0x347
 3832 0338 0D       		.uleb128 0xd
 3833 0339 76616C00 		.ascii	"val\000"
 3834 033d 01       		.byte	0x1
 3835 033e 3C       		.byte	0x3c
 3836 033f 8D020000 		.4byte	0x28d
 3837 0343 02       		.uleb128 0x2
 3838 0344 91       		.byte	0x91
 3839 0345 74       		.sleb128 -12
 3840 0346 00       		.byte	0
 3841 0347 0C       		.uleb128 0xc
 3842 0348 97080000 		.4byte	.LASF55
 3843 034c 01       		.byte	0x1
 3844 034d 3F       		.byte	0x3f
 3845 034e 00000000 		.4byte	.LFB39
 3846 0352 20000000 		.4byte	.LFE39-.LFB39
 3847 0356 01       		.uleb128 0x1
 3848 0357 9C       		.byte	0x9c
 3849 0358 6B030000 		.4byte	0x36b
 3850 035c 0D       		.uleb128 0xd
 3851 035d 76616C00 		.ascii	"val\000"
 3852 0361 01       		.byte	0x1
 3853 0362 3F       		.byte	0x3f
 3854 0363 8D020000 		.4byte	0x28d
 3855 0367 02       		.uleb128 0x2
 3856 0368 91       		.byte	0x91
 3857 0369 74       		.sleb128 -12
 3858 036a 00       		.byte	0
 3859 036b 0C       		.uleb128 0xc
 3860 036c B0080000 		.4byte	.LASF56
 3861 0370 01       		.byte	0x1
 3862 0371 42       		.byte	0x42
 3863 0372 00000000 		.4byte	.LFB40
 3864 0376 20000000 		.4byte	.LFE40-.LFB40
 3865 037a 01       		.uleb128 0x1
 3866 037b 9C       		.byte	0x9c
 3867 037c 8F030000 		.4byte	0x38f
 3868 0380 0D       		.uleb128 0xd
 3869 0381 76616C00 		.ascii	"val\000"
 3870 0385 01       		.byte	0x1
 3871 0386 42       		.byte	0x42
 3872 0387 8D020000 		.4byte	0x28d
 3873 038b 02       		.uleb128 0x2
 3874 038c 91       		.byte	0x91
 3875 038d 74       		.sleb128 -12
 3876 038e 00       		.byte	0
ARM GAS  C:\Users\SDEVAS~1\AppData\Local\Temp\ccOTp3Ub.s 			page 76


 3877 038f 0C       		.uleb128 0xc
 3878 0390 C9080000 		.4byte	.LASF57
 3879 0394 01       		.byte	0x1
 3880 0395 45       		.byte	0x45
 3881 0396 00000000 		.4byte	.LFB41
 3882 039a 20000000 		.4byte	.LFE41-.LFB41
 3883 039e 01       		.uleb128 0x1
 3884 039f 9C       		.byte	0x9c
 3885 03a0 B3030000 		.4byte	0x3b3
 3886 03a4 0D       		.uleb128 0xd
 3887 03a5 76616C00 		.ascii	"val\000"
 3888 03a9 01       		.byte	0x1
 3889 03aa 45       		.byte	0x45
 3890 03ab 8D020000 		.4byte	0x28d
 3891 03af 02       		.uleb128 0x2
 3892 03b0 91       		.byte	0x91
 3893 03b1 74       		.sleb128 -12
 3894 03b2 00       		.byte	0
 3895 03b3 0C       		.uleb128 0xc
 3896 03b4 E2080000 		.4byte	.LASF58
 3897 03b8 01       		.byte	0x1
 3898 03b9 48       		.byte	0x48
 3899 03ba 00000000 		.4byte	.LFB42
 3900 03be 20000000 		.4byte	.LFE42-.LFB42
 3901 03c2 01       		.uleb128 0x1
 3902 03c3 9C       		.byte	0x9c
 3903 03c4 D7030000 		.4byte	0x3d7
 3904 03c8 0D       		.uleb128 0xd
 3905 03c9 76616C00 		.ascii	"val\000"
 3906 03cd 01       		.byte	0x1
 3907 03ce 48       		.byte	0x48
 3908 03cf 8D020000 		.4byte	0x28d
 3909 03d3 02       		.uleb128 0x2
 3910 03d4 91       		.byte	0x91
 3911 03d5 74       		.sleb128 -12
 3912 03d6 00       		.byte	0
 3913 03d7 0E       		.uleb128 0xe
 3914 03d8 CE020000 		.4byte	.LASF59
 3915 03dc 01       		.byte	0x1
 3916 03dd 4C       		.byte	0x4c
 3917 03de 8D020000 		.4byte	0x28d
 3918 03e2 00000000 		.4byte	.LFB43
 3919 03e6 10000000 		.4byte	.LFE43-.LFB43
 3920 03ea 01       		.uleb128 0x1
 3921 03eb 9C       		.byte	0x9c
 3922 03ec 0E       		.uleb128 0xe
 3923 03ed E7020000 		.4byte	.LASF60
 3924 03f1 01       		.byte	0x1
 3925 03f2 4D       		.byte	0x4d
 3926 03f3 8D020000 		.4byte	0x28d
 3927 03f7 00000000 		.4byte	.LFB44
 3928 03fb 10000000 		.4byte	.LFE44-.LFB44
 3929 03ff 01       		.uleb128 0x1
 3930 0400 9C       		.byte	0x9c
 3931 0401 0E       		.uleb128 0xe
 3932 0402 00030000 		.4byte	.LASF61
 3933 0406 01       		.byte	0x1
ARM GAS  C:\Users\SDEVAS~1\AppData\Local\Temp\ccOTp3Ub.s 			page 77


 3934 0407 4E       		.byte	0x4e
 3935 0408 8D020000 		.4byte	0x28d
 3936 040c 00000000 		.4byte	.LFB45
 3937 0410 10000000 		.4byte	.LFE45-.LFB45
 3938 0414 01       		.uleb128 0x1
 3939 0415 9C       		.byte	0x9c
 3940 0416 0E       		.uleb128 0xe
 3941 0417 19030000 		.4byte	.LASF62
 3942 041b 01       		.byte	0x1
 3943 041c 4F       		.byte	0x4f
 3944 041d 8D020000 		.4byte	0x28d
 3945 0421 00000000 		.4byte	.LFB46
 3946 0425 10000000 		.4byte	.LFE46-.LFB46
 3947 0429 01       		.uleb128 0x1
 3948 042a 9C       		.byte	0x9c
 3949 042b 0E       		.uleb128 0xe
 3950 042c 32030000 		.4byte	.LASF63
 3951 0430 01       		.byte	0x1
 3952 0431 50       		.byte	0x50
 3953 0432 8D020000 		.4byte	0x28d
 3954 0436 00000000 		.4byte	.LFB47
 3955 043a 10000000 		.4byte	.LFE47-.LFB47
 3956 043e 01       		.uleb128 0x1
 3957 043f 9C       		.byte	0x9c
 3958 0440 0E       		.uleb128 0xe
 3959 0441 4B030000 		.4byte	.LASF64
 3960 0445 01       		.byte	0x1
 3961 0446 51       		.byte	0x51
 3962 0447 8D020000 		.4byte	0x28d
 3963 044b 00000000 		.4byte	.LFB48
 3964 044f 10000000 		.4byte	.LFE48-.LFB48
 3965 0453 01       		.uleb128 0x1
 3966 0454 9C       		.byte	0x9c
 3967 0455 0E       		.uleb128 0xe
 3968 0456 64030000 		.4byte	.LASF65
 3969 045a 01       		.byte	0x1
 3970 045b 52       		.byte	0x52
 3971 045c 8D020000 		.4byte	0x28d
 3972 0460 00000000 		.4byte	.LFB49
 3973 0464 10000000 		.4byte	.LFE49-.LFB49
 3974 0468 01       		.uleb128 0x1
 3975 0469 9C       		.byte	0x9c
 3976 046a 0E       		.uleb128 0xe
 3977 046b 7D030000 		.4byte	.LASF66
 3978 046f 01       		.byte	0x1
 3979 0470 53       		.byte	0x53
 3980 0471 8D020000 		.4byte	0x28d
 3981 0475 00000000 		.4byte	.LFB50
 3982 0479 10000000 		.4byte	.LFE50-.LFB50
 3983 047d 01       		.uleb128 0x1
 3984 047e 9C       		.byte	0x9c
 3985 047f 0E       		.uleb128 0xe
 3986 0480 96030000 		.4byte	.LASF67
 3987 0484 01       		.byte	0x1
 3988 0485 54       		.byte	0x54
 3989 0486 8D020000 		.4byte	0x28d
 3990 048a 00000000 		.4byte	.LFB51
ARM GAS  C:\Users\SDEVAS~1\AppData\Local\Temp\ccOTp3Ub.s 			page 78


 3991 048e 10000000 		.4byte	.LFE51-.LFB51
 3992 0492 01       		.uleb128 0x1
 3993 0493 9C       		.byte	0x9c
 3994 0494 0E       		.uleb128 0xe
 3995 0495 AF030000 		.4byte	.LASF68
 3996 0499 01       		.byte	0x1
 3997 049a 55       		.byte	0x55
 3998 049b 8D020000 		.4byte	0x28d
 3999 049f 00000000 		.4byte	.LFB52
 4000 04a3 10000000 		.4byte	.LFE52-.LFB52
 4001 04a7 01       		.uleb128 0x1
 4002 04a8 9C       		.byte	0x9c
 4003 04a9 0F       		.uleb128 0xf
 4004 04aa 2D020000 		.4byte	.LASF69
 4005 04ae 01       		.byte	0x1
 4006 04af 57       		.byte	0x57
 4007 04b0 68000000 		.4byte	0x68
 4008 04b4 00000000 		.4byte	.LFB53
 4009 04b8 92000000 		.4byte	.LFE53-.LFB53
 4010 04bc 01       		.uleb128 0x1
 4011 04bd 9C       		.byte	0x9c
 4012 04be 07050000 		.4byte	0x507
 4013 04c2 0D       		.uleb128 0xd
 4014 04c3 73747200 		.ascii	"str\000"
 4015 04c7 01       		.byte	0x1
 4016 04c8 57       		.byte	0x57
 4017 04c9 B3000000 		.4byte	0xb3
 4018 04cd 02       		.uleb128 0x2
 4019 04ce 91       		.byte	0x91
 4020 04cf 6C       		.sleb128 -20
 4021 04d0 0D       		.uleb128 0xd
 4022 04d1 6C656E00 		.ascii	"len\000"
 4023 04d5 01       		.byte	0x1
 4024 04d6 57       		.byte	0x57
 4025 04d7 68000000 		.4byte	0x68
 4026 04db 02       		.uleb128 0x2
 4027 04dc 91       		.byte	0x91
 4028 04dd 68       		.sleb128 -24
 4029 04de 0D       		.uleb128 0xd
 4030 04df 76616C00 		.ascii	"val\000"
 4031 04e3 01       		.byte	0x1
 4032 04e4 57       		.byte	0x57
 4033 04e5 8D020000 		.4byte	0x28d
 4034 04e9 02       		.uleb128 0x2
 4035 04ea 91       		.byte	0x91
 4036 04eb 64       		.sleb128 -28
 4037 04ec 10       		.uleb128 0x10
 4038 04ed 72657400 		.ascii	"ret\000"
 4039 04f1 01       		.byte	0x1
 4040 04f2 59       		.byte	0x59
 4041 04f3 68000000 		.4byte	0x68
 4042 04f7 02       		.uleb128 0x2
 4043 04f8 91       		.byte	0x91
 4044 04f9 74       		.sleb128 -12
 4045 04fa 10       		.uleb128 0x10
 4046 04fb 6900     		.ascii	"i\000"
 4047 04fd 01       		.byte	0x1
ARM GAS  C:\Users\SDEVAS~1\AppData\Local\Temp\ccOTp3Ub.s 			page 79


 4048 04fe 5B       		.byte	0x5b
 4049 04ff 68000000 		.4byte	0x68
 4050 0503 02       		.uleb128 0x2
 4051 0504 91       		.byte	0x91
 4052 0505 70       		.sleb128 -16
 4053 0506 00       		.byte	0
 4054 0507 0F       		.uleb128 0xf
 4055 0508 12010000 		.4byte	.LASF70
 4056 050c 01       		.byte	0x1
 4057 050d 66       		.byte	0x66
 4058 050e 8D020000 		.4byte	0x28d
 4059 0512 00000000 		.4byte	.LFB54
 4060 0516 84000000 		.4byte	.LFE54-.LFB54
 4061 051a 01       		.uleb128 0x1
 4062 051b 9C       		.byte	0x9c
 4063 051c 61050000 		.4byte	0x561
 4064 0520 0D       		.uleb128 0xd
 4065 0521 73747200 		.ascii	"str\000"
 4066 0525 01       		.byte	0x1
 4067 0526 66       		.byte	0x66
 4068 0527 B9000000 		.4byte	0xb9
 4069 052b 02       		.uleb128 0x2
 4070 052c 91       		.byte	0x91
 4071 052d 6C       		.sleb128 -20
 4072 052e 0D       		.uleb128 0xd
 4073 052f 6C656E00 		.ascii	"len\000"
 4074 0533 01       		.byte	0x1
 4075 0534 66       		.byte	0x66
 4076 0535 68000000 		.4byte	0x68
 4077 0539 02       		.uleb128 0x2
 4078 053a 91       		.byte	0x91
 4079 053b 68       		.sleb128 -24
 4080 053c 10       		.uleb128 0x10
 4081 053d 6900     		.ascii	"i\000"
 4082 053f 01       		.byte	0x1
 4083 0540 69       		.byte	0x69
 4084 0541 68000000 		.4byte	0x68
 4085 0545 02       		.uleb128 0x2
 4086 0546 91       		.byte	0x91
 4087 0547 74       		.sleb128 -12
 4088 0548 11       		.uleb128 0x11
 4089 0549 1C000000 		.4byte	.LBB2
 4090 054d 4C000000 		.4byte	.LBE2-.LBB2
 4091 0551 12       		.uleb128 0x12
 4092 0552 5E060000 		.4byte	.LASF71
 4093 0556 01       		.byte	0x1
 4094 0557 6B       		.byte	0x6b
 4095 0558 68000000 		.4byte	0x68
 4096 055c 02       		.uleb128 0x2
 4097 055d 91       		.byte	0x91
 4098 055e 70       		.sleb128 -16
 4099 055f 00       		.byte	0
 4100 0560 00       		.byte	0
 4101 0561 13       		.uleb128 0x13
 4102 0562 05020000 		.4byte	.LASF72
 4103 0566 01       		.byte	0x1
 4104 0567 77       		.byte	0x77
ARM GAS  C:\Users\SDEVAS~1\AppData\Local\Temp\ccOTp3Ub.s 			page 80


 4105 0568 00000000 		.4byte	.LFB55
 4106 056c 1C000000 		.4byte	.LFE55-.LFB55
 4107 0570 01       		.uleb128 0x1
 4108 0571 9C       		.byte	0x9c
 4109 0572 85050000 		.4byte	0x585
 4110 0576 0D       		.uleb128 0xd
 4111 0577 76616C00 		.ascii	"val\000"
 4112 057b 01       		.byte	0x1
 4113 057c 77       		.byte	0x77
 4114 057d 68000000 		.4byte	0x68
 4115 0581 02       		.uleb128 0x2
 4116 0582 91       		.byte	0x91
 4117 0583 74       		.sleb128 -12
 4118 0584 00       		.byte	0
 4119 0585 13       		.uleb128 0x13
 4120 0586 38060000 		.4byte	.LASF73
 4121 058a 01       		.byte	0x1
 4122 058b 7A       		.byte	0x7a
 4123 058c 00000000 		.4byte	.LFB56
 4124 0590 1C000000 		.4byte	.LFE56-.LFB56
 4125 0594 01       		.uleb128 0x1
 4126 0595 9C       		.byte	0x9c
 4127 0596 A9050000 		.4byte	0x5a9
 4128 059a 0D       		.uleb128 0xd
 4129 059b 76616C00 		.ascii	"val\000"
 4130 059f 01       		.byte	0x1
 4131 05a0 7A       		.byte	0x7a
 4132 05a1 68000000 		.4byte	0x68
 4133 05a5 02       		.uleb128 0x2
 4134 05a6 91       		.byte	0x91
 4135 05a7 74       		.sleb128 -12
 4136 05a8 00       		.byte	0
 4137 05a9 13       		.uleb128 0x13
 4138 05aa 09040000 		.4byte	.LASF74
 4139 05ae 01       		.byte	0x1
 4140 05af 7D       		.byte	0x7d
 4141 05b0 00000000 		.4byte	.LFB57
 4142 05b4 1C000000 		.4byte	.LFE57-.LFB57
 4143 05b8 01       		.uleb128 0x1
 4144 05b9 9C       		.byte	0x9c
 4145 05ba CD050000 		.4byte	0x5cd
 4146 05be 0D       		.uleb128 0xd
 4147 05bf 76616C00 		.ascii	"val\000"
 4148 05c3 01       		.byte	0x1
 4149 05c4 7D       		.byte	0x7d
 4150 05c5 68000000 		.4byte	0x68
 4151 05c9 02       		.uleb128 0x2
 4152 05ca 91       		.byte	0x91
 4153 05cb 74       		.sleb128 -12
 4154 05cc 00       		.byte	0
 4155 05cd 13       		.uleb128 0x13
 4156 05ce 20040000 		.4byte	.LASF75
 4157 05d2 01       		.byte	0x1
 4158 05d3 80       		.byte	0x80
 4159 05d4 00000000 		.4byte	.LFB58
 4160 05d8 1C000000 		.4byte	.LFE58-.LFB58
 4161 05dc 01       		.uleb128 0x1
ARM GAS  C:\Users\SDEVAS~1\AppData\Local\Temp\ccOTp3Ub.s 			page 81


 4162 05dd 9C       		.byte	0x9c
 4163 05de F1050000 		.4byte	0x5f1
 4164 05e2 0D       		.uleb128 0xd
 4165 05e3 76616C00 		.ascii	"val\000"
 4166 05e7 01       		.byte	0x1
 4167 05e8 80       		.byte	0x80
 4168 05e9 68000000 		.4byte	0x68
 4169 05ed 02       		.uleb128 0x2
 4170 05ee 91       		.byte	0x91
 4171 05ef 74       		.sleb128 -12
 4172 05f0 00       		.byte	0
 4173 05f1 13       		.uleb128 0x13
 4174 05f2 57040000 		.4byte	.LASF76
 4175 05f6 01       		.byte	0x1
 4176 05f7 83       		.byte	0x83
 4177 05f8 00000000 		.4byte	.LFB59
 4178 05fc 1C000000 		.4byte	.LFE59-.LFB59
 4179 0600 01       		.uleb128 0x1
 4180 0601 9C       		.byte	0x9c
 4181 0602 15060000 		.4byte	0x615
 4182 0606 0D       		.uleb128 0xd
 4183 0607 76616C00 		.ascii	"val\000"
 4184 060b 01       		.byte	0x1
 4185 060c 83       		.byte	0x83
 4186 060d 68000000 		.4byte	0x68
 4187 0611 02       		.uleb128 0x2
 4188 0612 91       		.byte	0x91
 4189 0613 74       		.sleb128 -12
 4190 0614 00       		.byte	0
 4191 0615 13       		.uleb128 0x13
 4192 0616 6E040000 		.4byte	.LASF77
 4193 061a 01       		.byte	0x1
 4194 061b 86       		.byte	0x86
 4195 061c 00000000 		.4byte	.LFB60
 4196 0620 1C000000 		.4byte	.LFE60-.LFB60
 4197 0624 01       		.uleb128 0x1
 4198 0625 9C       		.byte	0x9c
 4199 0626 39060000 		.4byte	0x639
 4200 062a 0D       		.uleb128 0xd
 4201 062b 76616C00 		.ascii	"val\000"
 4202 062f 01       		.byte	0x1
 4203 0630 86       		.byte	0x86
 4204 0631 68000000 		.4byte	0x68
 4205 0635 02       		.uleb128 0x2
 4206 0636 91       		.byte	0x91
 4207 0637 74       		.sleb128 -12
 4208 0638 00       		.byte	0
 4209 0639 13       		.uleb128 0x13
 4210 063a BA010000 		.4byte	.LASF78
 4211 063e 01       		.byte	0x1
 4212 063f 89       		.byte	0x89
 4213 0640 00000000 		.4byte	.LFB61
 4214 0644 1C000000 		.4byte	.LFE61-.LFB61
 4215 0648 01       		.uleb128 0x1
 4216 0649 9C       		.byte	0x9c
 4217 064a 5D060000 		.4byte	0x65d
 4218 064e 0D       		.uleb128 0xd
ARM GAS  C:\Users\SDEVAS~1\AppData\Local\Temp\ccOTp3Ub.s 			page 82


 4219 064f 76616C00 		.ascii	"val\000"
 4220 0653 01       		.byte	0x1
 4221 0654 89       		.byte	0x89
 4222 0655 68000000 		.4byte	0x68
 4223 0659 02       		.uleb128 0x2
 4224 065a 91       		.byte	0x91
 4225 065b 74       		.sleb128 -12
 4226 065c 00       		.byte	0
 4227 065d 13       		.uleb128 0x13
 4228 065e F9000000 		.4byte	.LASF79
 4229 0662 01       		.byte	0x1
 4230 0663 8C       		.byte	0x8c
 4231 0664 00000000 		.4byte	.LFB62
 4232 0668 1C000000 		.4byte	.LFE62-.LFB62
 4233 066c 01       		.uleb128 0x1
 4234 066d 9C       		.byte	0x9c
 4235 066e 81060000 		.4byte	0x681
 4236 0672 0D       		.uleb128 0xd
 4237 0673 76616C00 		.ascii	"val\000"
 4238 0677 01       		.byte	0x1
 4239 0678 8C       		.byte	0x8c
 4240 0679 68000000 		.4byte	0x68
 4241 067d 02       		.uleb128 0x2
 4242 067e 91       		.byte	0x91
 4243 067f 74       		.sleb128 -12
 4244 0680 00       		.byte	0
 4245 0681 13       		.uleb128 0x13
 4246 0682 E9000000 		.4byte	.LASF80
 4247 0686 01       		.byte	0x1
 4248 0687 8F       		.byte	0x8f
 4249 0688 00000000 		.4byte	.LFB63
 4250 068c 0E000000 		.4byte	.LFE63-.LFB63
 4251 0690 01       		.uleb128 0x1
 4252 0691 9C       		.byte	0x9c
 4253 0692 A5060000 		.4byte	0x6a5
 4254 0696 0D       		.uleb128 0xd
 4255 0697 76616C00 		.ascii	"val\000"
 4256 069b 01       		.byte	0x1
 4257 069c 8F       		.byte	0x8f
 4258 069d 68000000 		.4byte	0x68
 4259 06a1 02       		.uleb128 0x2
 4260 06a2 91       		.byte	0x91
 4261 06a3 74       		.sleb128 -12
 4262 06a4 00       		.byte	0
 4263 06a5 13       		.uleb128 0x13
 4264 06a6 3A090000 		.4byte	.LASF81
 4265 06aa 01       		.byte	0x1
 4266 06ab 91       		.byte	0x91
 4267 06ac 00000000 		.4byte	.LFB64
 4268 06b0 0E000000 		.4byte	.LFE64-.LFB64
 4269 06b4 01       		.uleb128 0x1
 4270 06b5 9C       		.byte	0x9c
 4271 06b6 C9060000 		.4byte	0x6c9
 4272 06ba 0D       		.uleb128 0xd
 4273 06bb 76616C00 		.ascii	"val\000"
 4274 06bf 01       		.byte	0x1
 4275 06c0 91       		.byte	0x91
ARM GAS  C:\Users\SDEVAS~1\AppData\Local\Temp\ccOTp3Ub.s 			page 83


 4276 06c1 68000000 		.4byte	0x68
 4277 06c5 02       		.uleb128 0x2
 4278 06c6 91       		.byte	0x91
 4279 06c7 74       		.sleb128 -12
 4280 06c8 00       		.byte	0
 4281 06c9 13       		.uleb128 0x13
 4282 06ca 6F010000 		.4byte	.LASF82
 4283 06ce 01       		.byte	0x1
 4284 06cf 92       		.byte	0x92
 4285 06d0 00000000 		.4byte	.LFB65
 4286 06d4 0E000000 		.4byte	.LFE65-.LFB65
 4287 06d8 01       		.uleb128 0x1
 4288 06d9 9C       		.byte	0x9c
 4289 06da ED060000 		.4byte	0x6ed
 4290 06de 0D       		.uleb128 0xd
 4291 06df 76616C00 		.ascii	"val\000"
 4292 06e3 01       		.byte	0x1
 4293 06e4 92       		.byte	0x92
 4294 06e5 68000000 		.4byte	0x68
 4295 06e9 02       		.uleb128 0x2
 4296 06ea 91       		.byte	0x91
 4297 06eb 74       		.sleb128 -12
 4298 06ec 00       		.byte	0
 4299 06ed 13       		.uleb128 0x13
 4300 06ee 5F000000 		.4byte	.LASF83
 4301 06f2 01       		.byte	0x1
 4302 06f3 93       		.byte	0x93
 4303 06f4 00000000 		.4byte	.LFB66
 4304 06f8 0E000000 		.4byte	.LFE66-.LFB66
 4305 06fc 01       		.uleb128 0x1
 4306 06fd 9C       		.byte	0x9c
 4307 06fe 11070000 		.4byte	0x711
 4308 0702 0D       		.uleb128 0xd
 4309 0703 76616C00 		.ascii	"val\000"
 4310 0707 01       		.byte	0x1
 4311 0708 93       		.byte	0x93
 4312 0709 68000000 		.4byte	0x68
 4313 070d 02       		.uleb128 0x2
 4314 070e 91       		.byte	0x91
 4315 070f 74       		.sleb128 -12
 4316 0710 00       		.byte	0
 4317 0711 13       		.uleb128 0x13
 4318 0712 EF050000 		.4byte	.LASF84
 4319 0716 01       		.byte	0x1
 4320 0717 94       		.byte	0x94
 4321 0718 00000000 		.4byte	.LFB67
 4322 071c 0E000000 		.4byte	.LFE67-.LFB67
 4323 0720 01       		.uleb128 0x1
 4324 0721 9C       		.byte	0x9c
 4325 0722 35070000 		.4byte	0x735
 4326 0726 0D       		.uleb128 0xd
 4327 0727 76616C00 		.ascii	"val\000"
 4328 072b 01       		.byte	0x1
 4329 072c 94       		.byte	0x94
 4330 072d 68000000 		.4byte	0x68
 4331 0731 02       		.uleb128 0x2
 4332 0732 91       		.byte	0x91
ARM GAS  C:\Users\SDEVAS~1\AppData\Local\Temp\ccOTp3Ub.s 			page 84


 4333 0733 74       		.sleb128 -12
 4334 0734 00       		.byte	0
 4335 0735 13       		.uleb128 0x13
 4336 0736 54050000 		.4byte	.LASF85
 4337 073a 01       		.byte	0x1
 4338 073b 95       		.byte	0x95
 4339 073c 00000000 		.4byte	.LFB68
 4340 0740 0E000000 		.4byte	.LFE68-.LFB68
 4341 0744 01       		.uleb128 0x1
 4342 0745 9C       		.byte	0x9c
 4343 0746 59070000 		.4byte	0x759
 4344 074a 0D       		.uleb128 0xd
 4345 074b 76616C00 		.ascii	"val\000"
 4346 074f 01       		.byte	0x1
 4347 0750 95       		.byte	0x95
 4348 0751 68000000 		.4byte	0x68
 4349 0755 02       		.uleb128 0x2
 4350 0756 91       		.byte	0x91
 4351 0757 74       		.sleb128 -12
 4352 0758 00       		.byte	0
 4353 0759 13       		.uleb128 0x13
 4354 075a 04090000 		.4byte	.LASF86
 4355 075e 01       		.byte	0x1
 4356 075f 96       		.byte	0x96
 4357 0760 00000000 		.4byte	.LFB69
 4358 0764 0E000000 		.4byte	.LFE69-.LFB69
 4359 0768 01       		.uleb128 0x1
 4360 0769 9C       		.byte	0x9c
 4361 076a 7D070000 		.4byte	0x77d
 4362 076e 0D       		.uleb128 0xd
 4363 076f 76616C00 		.ascii	"val\000"
 4364 0773 01       		.byte	0x1
 4365 0774 96       		.byte	0x96
 4366 0775 68000000 		.4byte	0x68
 4367 0779 02       		.uleb128 0x2
 4368 077a 91       		.byte	0x91
 4369 077b 74       		.sleb128 -12
 4370 077c 00       		.byte	0
 4371 077d 13       		.uleb128 0x13
 4372 077e 39020000 		.4byte	.LASF87
 4373 0782 01       		.byte	0x1
 4374 0783 97       		.byte	0x97
 4375 0784 00000000 		.4byte	.LFB70
 4376 0788 0E000000 		.4byte	.LFE70-.LFB70
 4377 078c 01       		.uleb128 0x1
 4378 078d 9C       		.byte	0x9c
 4379 078e A1070000 		.4byte	0x7a1
 4380 0792 0D       		.uleb128 0xd
 4381 0793 76616C00 		.ascii	"val\000"
 4382 0797 01       		.byte	0x1
 4383 0798 97       		.byte	0x97
 4384 0799 68000000 		.4byte	0x68
 4385 079d 02       		.uleb128 0x2
 4386 079e 91       		.byte	0x91
 4387 079f 74       		.sleb128 -12
 4388 07a0 00       		.byte	0
 4389 07a1 13       		.uleb128 0x13
ARM GAS  C:\Users\SDEVAS~1\AppData\Local\Temp\ccOTp3Ub.s 			page 85


 4390 07a2 4A000000 		.4byte	.LASF88
 4391 07a6 01       		.byte	0x1
 4392 07a7 98       		.byte	0x98
 4393 07a8 00000000 		.4byte	.LFB71
 4394 07ac 0E000000 		.4byte	.LFE71-.LFB71
 4395 07b0 01       		.uleb128 0x1
 4396 07b1 9C       		.byte	0x9c
 4397 07b2 C5070000 		.4byte	0x7c5
 4398 07b6 0D       		.uleb128 0xd
 4399 07b7 76616C00 		.ascii	"val\000"
 4400 07bb 01       		.byte	0x1
 4401 07bc 98       		.byte	0x98
 4402 07bd 68000000 		.4byte	0x68
 4403 07c1 02       		.uleb128 0x2
 4404 07c2 91       		.byte	0x91
 4405 07c3 74       		.sleb128 -12
 4406 07c4 00       		.byte	0
 4407 07c5 13       		.uleb128 0x13
 4408 07c6 0B070000 		.4byte	.LASF89
 4409 07ca 01       		.byte	0x1
 4410 07cb 99       		.byte	0x99
 4411 07cc 00000000 		.4byte	.LFB72
 4412 07d0 18000000 		.4byte	.LFE72-.LFB72
 4413 07d4 01       		.uleb128 0x1
 4414 07d5 9C       		.byte	0x9c
 4415 07d6 E9070000 		.4byte	0x7e9
 4416 07da 0D       		.uleb128 0xd
 4417 07db 76616C00 		.ascii	"val\000"
 4418 07df 01       		.byte	0x1
 4419 07e0 99       		.byte	0x99
 4420 07e1 68000000 		.4byte	0x68
 4421 07e5 02       		.uleb128 0x2
 4422 07e6 91       		.byte	0x91
 4423 07e7 74       		.sleb128 -12
 4424 07e8 00       		.byte	0
 4425 07e9 13       		.uleb128 0x13
 4426 07ea 85040000 		.4byte	.LASF90
 4427 07ee 01       		.byte	0x1
 4428 07ef 9C       		.byte	0x9c
 4429 07f0 00000000 		.4byte	.LFB73
 4430 07f4 18000000 		.4byte	.LFE73-.LFB73
 4431 07f8 01       		.uleb128 0x1
 4432 07f9 9C       		.byte	0x9c
 4433 07fa 0D080000 		.4byte	0x80d
 4434 07fe 0D       		.uleb128 0xd
 4435 07ff 76616C00 		.ascii	"val\000"
 4436 0803 01       		.byte	0x1
 4437 0804 9C       		.byte	0x9c
 4438 0805 68000000 		.4byte	0x68
 4439 0809 02       		.uleb128 0x2
 4440 080a 91       		.byte	0x91
 4441 080b 74       		.sleb128 -12
 4442 080c 00       		.byte	0
 4443 080d 13       		.uleb128 0x13
 4444 080e 8E000000 		.4byte	.LASF91
 4445 0812 01       		.byte	0x1
 4446 0813 9F       		.byte	0x9f
ARM GAS  C:\Users\SDEVAS~1\AppData\Local\Temp\ccOTp3Ub.s 			page 86


 4447 0814 00000000 		.4byte	.LFB74
 4448 0818 18000000 		.4byte	.LFE74-.LFB74
 4449 081c 01       		.uleb128 0x1
 4450 081d 9C       		.byte	0x9c
 4451 081e 31080000 		.4byte	0x831
 4452 0822 0D       		.uleb128 0xd
 4453 0823 76616C00 		.ascii	"val\000"
 4454 0827 01       		.byte	0x1
 4455 0828 9F       		.byte	0x9f
 4456 0829 68000000 		.4byte	0x68
 4457 082d 02       		.uleb128 0x2
 4458 082e 91       		.byte	0x91
 4459 082f 74       		.sleb128 -12
 4460 0830 00       		.byte	0
 4461 0831 13       		.uleb128 0x13
 4462 0832 25060000 		.4byte	.LASF92
 4463 0836 01       		.byte	0x1
 4464 0837 A2       		.byte	0xa2
 4465 0838 00000000 		.4byte	.LFB75
 4466 083c 18000000 		.4byte	.LFE75-.LFB75
 4467 0840 01       		.uleb128 0x1
 4468 0841 9C       		.byte	0x9c
 4469 0842 55080000 		.4byte	0x855
 4470 0846 0D       		.uleb128 0xd
 4471 0847 76616C00 		.ascii	"val\000"
 4472 084b 01       		.byte	0x1
 4473 084c A2       		.byte	0xa2
 4474 084d 68000000 		.4byte	0x68
 4475 0851 02       		.uleb128 0x2
 4476 0852 91       		.byte	0x91
 4477 0853 74       		.sleb128 -12
 4478 0854 00       		.byte	0
 4479 0855 13       		.uleb128 0x13
 4480 0856 C2040000 		.4byte	.LASF93
 4481 085a 01       		.byte	0x1
 4482 085b A5       		.byte	0xa5
 4483 085c 00000000 		.4byte	.LFB76
 4484 0860 18000000 		.4byte	.LFE76-.LFB76
 4485 0864 01       		.uleb128 0x1
 4486 0865 9C       		.byte	0x9c
 4487 0866 79080000 		.4byte	0x879
 4488 086a 0D       		.uleb128 0xd
 4489 086b 76616C00 		.ascii	"val\000"
 4490 086f 01       		.byte	0x1
 4491 0870 A5       		.byte	0xa5
 4492 0871 68000000 		.4byte	0x68
 4493 0875 02       		.uleb128 0x2
 4494 0876 91       		.byte	0x91
 4495 0877 74       		.sleb128 -12
 4496 0878 00       		.byte	0
 4497 0879 13       		.uleb128 0x13
 4498 087a 00000000 		.4byte	.LASF94
 4499 087e 01       		.byte	0x1
 4500 087f A8       		.byte	0xa8
 4501 0880 00000000 		.4byte	.LFB77
 4502 0884 18000000 		.4byte	.LFE77-.LFB77
 4503 0888 01       		.uleb128 0x1
ARM GAS  C:\Users\SDEVAS~1\AppData\Local\Temp\ccOTp3Ub.s 			page 87


 4504 0889 9C       		.byte	0x9c
 4505 088a 9D080000 		.4byte	0x89d
 4506 088e 0D       		.uleb128 0xd
 4507 088f 76616C00 		.ascii	"val\000"
 4508 0893 01       		.byte	0x1
 4509 0894 A8       		.byte	0xa8
 4510 0895 68000000 		.4byte	0x68
 4511 0899 02       		.uleb128 0x2
 4512 089a 91       		.byte	0x91
 4513 089b 74       		.sleb128 -12
 4514 089c 00       		.byte	0
 4515 089d 0E       		.uleb128 0xe
 4516 089e 2C000000 		.4byte	.LASF95
 4517 08a2 01       		.byte	0x1
 4518 08a3 AC       		.byte	0xac
 4519 08a4 68000000 		.4byte	0x68
 4520 08a8 00000000 		.4byte	.LFB78
 4521 08ac 14000000 		.4byte	.LFE78-.LFB78
 4522 08b0 01       		.uleb128 0x1
 4523 08b1 9C       		.byte	0x9c
 4524 08b2 0E       		.uleb128 0xe
 4525 08b3 EF070000 		.4byte	.LASF96
 4526 08b7 01       		.byte	0x1
 4527 08b8 AD       		.byte	0xad
 4528 08b9 68000000 		.4byte	0x68
 4529 08bd 00000000 		.4byte	.LFB79
 4530 08c1 14000000 		.4byte	.LFE79-.LFB79
 4531 08c5 01       		.uleb128 0x1
 4532 08c6 9C       		.byte	0x9c
 4533 08c7 0E       		.uleb128 0xe
 4534 08c8 F8040000 		.4byte	.LASF97
 4535 08cc 01       		.byte	0x1
 4536 08cd AE       		.byte	0xae
 4537 08ce 68000000 		.4byte	0x68
 4538 08d2 00000000 		.4byte	.LFB80
 4539 08d6 14000000 		.4byte	.LFE80-.LFB80
 4540 08da 01       		.uleb128 0x1
 4541 08db 9C       		.byte	0x9c
 4542 08dc 0E       		.uleb128 0xe
 4543 08dd 0F050000 		.4byte	.LASF98
 4544 08e1 01       		.byte	0x1
 4545 08e2 AF       		.byte	0xaf
 4546 08e3 68000000 		.4byte	0x68
 4547 08e7 00000000 		.4byte	.LFB81
 4548 08eb 14000000 		.4byte	.LFE81-.LFB81
 4549 08ef 01       		.uleb128 0x1
 4550 08f0 9C       		.byte	0x9c
 4551 08f1 0E       		.uleb128 0xe
 4552 08f2 26050000 		.4byte	.LASF99
 4553 08f6 01       		.byte	0x1
 4554 08f7 B0       		.byte	0xb0
 4555 08f8 68000000 		.4byte	0x68
 4556 08fc 00000000 		.4byte	.LFB82
 4557 0900 14000000 		.4byte	.LFE82-.LFB82
 4558 0904 01       		.uleb128 0x1
 4559 0905 9C       		.byte	0x9c
 4560 0906 0E       		.uleb128 0xe
ARM GAS  C:\Users\SDEVAS~1\AppData\Local\Temp\ccOTp3Ub.s 			page 88


 4561 0907 3D050000 		.4byte	.LASF100
 4562 090b 01       		.byte	0x1
 4563 090c B1       		.byte	0xb1
 4564 090d 68000000 		.4byte	0x68
 4565 0911 00000000 		.4byte	.LFB83
 4566 0915 14000000 		.4byte	.LFE83-.LFB83
 4567 0919 01       		.uleb128 0x1
 4568 091a 9C       		.byte	0x9c
 4569 091b 0E       		.uleb128 0xe
 4570 091c 18000000 		.4byte	.LASF101
 4571 0920 01       		.byte	0x1
 4572 0921 B2       		.byte	0xb2
 4573 0922 68000000 		.4byte	0x68
 4574 0926 00000000 		.4byte	.LFB84
 4575 092a 14000000 		.4byte	.LFE84-.LFB84
 4576 092e 01       		.uleb128 0x1
 4577 092f 9C       		.byte	0x9c
 4578 0930 0E       		.uleb128 0xe
 4579 0931 50020000 		.4byte	.LASF102
 4580 0935 01       		.byte	0x1
 4581 0936 B3       		.byte	0xb3
 4582 0937 68000000 		.4byte	0x68
 4583 093b 00000000 		.4byte	.LFB85
 4584 093f 14000000 		.4byte	.LFE85-.LFB85
 4585 0943 01       		.uleb128 0x1
 4586 0944 9C       		.byte	0x9c
 4587 0945 0E       		.uleb128 0xe
 4588 0946 A1070000 		.4byte	.LASF103
 4589 094a 01       		.byte	0x1
 4590 094b B4       		.byte	0xb4
 4591 094c 68000000 		.4byte	0x68
 4592 0950 00000000 		.4byte	.LFB86
 4593 0954 14000000 		.4byte	.LFE86-.LFB86
 4594 0958 01       		.uleb128 0x1
 4595 0959 9C       		.byte	0x9c
 4596 095a 0E       		.uleb128 0xe
 4597 095b 10060000 		.4byte	.LASF104
 4598 095f 01       		.byte	0x1
 4599 0960 B6       		.byte	0xb6
 4600 0961 68000000 		.4byte	0x68
 4601 0965 00000000 		.4byte	.LFB87
 4602 0969 14000000 		.4byte	.LFE87-.LFB87
 4603 096d 01       		.uleb128 0x1
 4604 096e 9C       		.byte	0x9c
 4605 096f 0E       		.uleb128 0xe
 4606 0970 79000000 		.4byte	.LASF105
 4607 0974 01       		.byte	0x1
 4608 0975 B7       		.byte	0xb7
 4609 0976 68000000 		.4byte	0x68
 4610 097a 00000000 		.4byte	.LFB88
 4611 097e 14000000 		.4byte	.LFE88-.LFB88
 4612 0982 01       		.uleb128 0x1
 4613 0983 9C       		.byte	0x9c
 4614 0984 0E       		.uleb128 0xe
 4615 0985 C8030000 		.4byte	.LASF106
 4616 0989 01       		.byte	0x1
 4617 098a B8       		.byte	0xb8
ARM GAS  C:\Users\SDEVAS~1\AppData\Local\Temp\ccOTp3Ub.s 			page 89


 4618 098b 68000000 		.4byte	0x68
 4619 098f 00000000 		.4byte	.LFB89
 4620 0993 14000000 		.4byte	.LFE89-.LFB89
 4621 0997 01       		.uleb128 0x1
 4622 0998 9C       		.byte	0x9c
 4623 0999 0E       		.uleb128 0xe
 4624 099a 84090000 		.4byte	.LASF107
 4625 099e 01       		.byte	0x1
 4626 099f B9       		.byte	0xb9
 4627 09a0 68000000 		.4byte	0x68
 4628 09a4 00000000 		.4byte	.LFB90
 4629 09a8 14000000 		.4byte	.LFE90-.LFB90
 4630 09ac 01       		.uleb128 0x1
 4631 09ad 9C       		.byte	0x9c
 4632 09ae 0E       		.uleb128 0xe
 4633 09af 4F090000 		.4byte	.LASF108
 4634 09b3 01       		.byte	0x1
 4635 09b4 BA       		.byte	0xba
 4636 09b5 68000000 		.4byte	0x68
 4637 09b9 00000000 		.4byte	.LFB91
 4638 09bd 14000000 		.4byte	.LFE91-.LFB91
 4639 09c1 01       		.uleb128 0x1
 4640 09c2 9C       		.byte	0x9c
 4641 09c3 0E       		.uleb128 0xe
 4642 09c4 EB090000 		.4byte	.LASF109
 4643 09c8 01       		.byte	0x1
 4644 09c9 BB       		.byte	0xbb
 4645 09ca 68000000 		.4byte	0x68
 4646 09ce 00000000 		.4byte	.LFB92
 4647 09d2 14000000 		.4byte	.LFE92-.LFB92
 4648 09d6 01       		.uleb128 0x1
 4649 09d7 9C       		.byte	0x9c
 4650 09d8 0E       		.uleb128 0xe
 4651 09d9 B7020000 		.4byte	.LASF110
 4652 09dd 01       		.byte	0x1
 4653 09de BC       		.byte	0xbc
 4654 09df 68000000 		.4byte	0x68
 4655 09e3 00000000 		.4byte	.LFB93
 4656 09e7 14000000 		.4byte	.LFE93-.LFB93
 4657 09eb 01       		.uleb128 0x1
 4658 09ec 9C       		.byte	0x9c
 4659 09ed 0E       		.uleb128 0xe
 4660 09ee D4060000 		.4byte	.LASF111
 4661 09f2 01       		.byte	0x1
 4662 09f3 BD       		.byte	0xbd
 4663 09f4 68000000 		.4byte	0x68
 4664 09f8 00000000 		.4byte	.LFB94
 4665 09fc 14000000 		.4byte	.LFE94-.LFB94
 4666 0a00 01       		.uleb128 0x1
 4667 0a01 9C       		.byte	0x9c
 4668 0a02 0E       		.uleb128 0xe
 4669 0a03 65070000 		.4byte	.LASF112
 4670 0a07 01       		.byte	0x1
 4671 0a08 BE       		.byte	0xbe
 4672 0a09 68000000 		.4byte	0x68
 4673 0a0d 00000000 		.4byte	.LFB95
 4674 0a11 14000000 		.4byte	.LFE95-.LFB95
ARM GAS  C:\Users\SDEVAS~1\AppData\Local\Temp\ccOTp3Ub.s 			page 90


 4675 0a15 01       		.uleb128 0x1
 4676 0a16 9C       		.byte	0x9c
 4677 0a17 0E       		.uleb128 0xe
 4678 0a18 4D010000 		.4byte	.LASF113
 4679 0a1c 01       		.byte	0x1
 4680 0a1d BF       		.byte	0xbf
 4681 0a1e 68000000 		.4byte	0x68
 4682 0a22 00000000 		.4byte	.LFB96
 4683 0a26 14000000 		.4byte	.LFE96-.LFB96
 4684 0a2a 01       		.uleb128 0x1
 4685 0a2b 9C       		.byte	0x9c
 4686 0a2c 0E       		.uleb128 0xe
 4687 0a2d DE070000 		.4byte	.LASF114
 4688 0a31 01       		.byte	0x1
 4689 0a32 C0       		.byte	0xc0
 4690 0a33 68000000 		.4byte	0x68
 4691 0a37 00000000 		.4byte	.LFB97
 4692 0a3b 14000000 		.4byte	.LFE97-.LFB97
 4693 0a3f 01       		.uleb128 0x1
 4694 0a40 9C       		.byte	0x9c
 4695 0a41 0E       		.uleb128 0xe
 4696 0a42 B6090000 		.4byte	.LASF115
 4697 0a46 01       		.byte	0x1
 4698 0a47 C1       		.byte	0xc1
 4699 0a48 68000000 		.4byte	0x68
 4700 0a4c 00000000 		.4byte	.LFB98
 4701 0a50 14000000 		.4byte	.LFE98-.LFB98
 4702 0a54 01       		.uleb128 0x1
 4703 0a55 9C       		.byte	0x9c
 4704 0a56 0E       		.uleb128 0xe
 4705 0a57 02060000 		.4byte	.LASF116
 4706 0a5b 01       		.byte	0x1
 4707 0a5c C2       		.byte	0xc2
 4708 0a5d 68000000 		.4byte	0x68
 4709 0a61 00000000 		.4byte	.LFB99
 4710 0a65 14000000 		.4byte	.LFE99-.LFB99
 4711 0a69 01       		.uleb128 0x1
 4712 0a6a 9C       		.byte	0x9c
 4713 0a6b 0E       		.uleb128 0xe
 4714 0a6c AD000000 		.4byte	.LASF117
 4715 0a70 01       		.byte	0x1
 4716 0a71 C3       		.byte	0xc3
 4717 0a72 68000000 		.4byte	0x68
 4718 0a76 00000000 		.4byte	.LFB100
 4719 0a7a 14000000 		.4byte	.LFE100-.LFB100
 4720 0a7e 01       		.uleb128 0x1
 4721 0a7f 9C       		.byte	0x9c
 4722 0a80 0C       		.uleb128 0xc
 4723 0a81 D2000000 		.4byte	.LASF118
 4724 0a85 01       		.byte	0x1
 4725 0a86 C5       		.byte	0xc5
 4726 0a87 00000000 		.4byte	.LFB101
 4727 0a8b C8030000 		.4byte	.LFE101-.LFB101
 4728 0a8f 01       		.uleb128 0x1
 4729 0a90 9C       		.byte	0x9c
 4730 0a91 A40A0000 		.4byte	0xaa4
 4731 0a95 10       		.uleb128 0x10
ARM GAS  C:\Users\SDEVAS~1\AppData\Local\Temp\ccOTp3Ub.s 			page 91


 4732 0a96 746D7000 		.ascii	"tmp\000"
 4733 0a9a 01       		.byte	0x1
 4734 0a9b C6       		.byte	0xc6
 4735 0a9c 68000000 		.4byte	0x68
 4736 0aa0 02       		.uleb128 0x2
 4737 0aa1 91       		.byte	0x91
 4738 0aa2 74       		.sleb128 -12
 4739 0aa3 00       		.byte	0
 4740 0aa4 14       		.uleb128 0x14
 4741 0aa5 62090000 		.4byte	.LASF123
 4742 0aa9 01       		.byte	0x1
 4743 0aaa 1801     		.2byte	0x118
 4744 0aac 00000000 		.4byte	.LFB102
 4745 0ab0 14000000 		.4byte	.LFE102-.LFB102
 4746 0ab4 01       		.uleb128 0x1
 4747 0ab5 9C       		.byte	0x9c
 4748 0ab6 15       		.uleb128 0x15
 4749 0ab7 37040000 		.4byte	.LASF139
 4750 0abb 01       		.byte	0x1
 4751 0abc 1E01     		.2byte	0x11e
 4752 0abe 00000000 		.4byte	.LFB103
 4753 0ac2 80000000 		.4byte	.LFE103-.LFB103
 4754 0ac6 01       		.uleb128 0x1
 4755 0ac7 9C       		.byte	0x9c
 4756 0ac8 DC0A0000 		.4byte	0xadc
 4757 0acc 16       		.uleb128 0x16
 4758 0acd 93070000 		.4byte	.LASF119
 4759 0ad1 01       		.byte	0x1
 4760 0ad2 2101     		.2byte	0x121
 4761 0ad4 68000000 		.4byte	0x68
 4762 0ad8 02       		.uleb128 0x2
 4763 0ad9 91       		.byte	0x91
 4764 0ada 6C       		.sleb128 -20
 4765 0adb 00       		.byte	0
 4766 0adc 17       		.uleb128 0x17
 4767 0add 84010000 		.4byte	.LASF120
 4768 0ae1 01       		.byte	0x1
 4769 0ae2 2A01     		.2byte	0x12a
 4770 0ae4 C4000000 		.4byte	0xc4
 4771 0ae8 00000000 		.4byte	.LFB104
 4772 0aec 94000000 		.4byte	.LFE104-.LFB104
 4773 0af0 01       		.uleb128 0x1
 4774 0af1 9C       		.byte	0x9c
 4775 0af2 060B0000 		.4byte	0xb06
 4776 0af6 16       		.uleb128 0x16
 4777 0af7 E4000000 		.4byte	.LASF22
 4778 0afb 01       		.byte	0x1
 4779 0afc 2C01     		.2byte	0x12c
 4780 0afe 68000000 		.4byte	0x68
 4781 0b02 02       		.uleb128 0x2
 4782 0b03 91       		.byte	0x91
 4783 0b04 6C       		.sleb128 -20
 4784 0b05 00       		.byte	0
 4785 0b06 18       		.uleb128 0x18
 4786 0b07 24070000 		.4byte	.LASF121
 4787 0b0b 01       		.byte	0x1
 4788 0b0c 3D01     		.2byte	0x13d
ARM GAS  C:\Users\SDEVAS~1\AppData\Local\Temp\ccOTp3Ub.s 			page 92


 4789 0b0e C4000000 		.4byte	0xc4
 4790 0b12 00000000 		.4byte	.LFB105
 4791 0b16 18000000 		.4byte	.LFE105-.LFB105
 4792 0b1a 01       		.uleb128 0x1
 4793 0b1b 9C       		.byte	0x9c
 4794 0b1c 19       		.uleb128 0x19
 4795 0b1d C9090000 		.4byte	.LASF122
 4796 0b21 01       		.byte	0x1
 4797 0b22 4501     		.2byte	0x145
 4798 0b24 C4000000 		.4byte	0xc4
 4799 0b28 00000000 		.4byte	.LFB106
 4800 0b2c 0E000000 		.4byte	.LFE106-.LFB106
 4801 0b30 01       		.uleb128 0x1
 4802 0b31 9C       		.byte	0x9c
 4803 0b32 14       		.uleb128 0x14
 4804 0b33 95040000 		.4byte	.LASF124
 4805 0b37 01       		.byte	0x1
 4806 0b38 4901     		.2byte	0x149
 4807 0b3a 00000000 		.4byte	.LFB107
 4808 0b3e 14000000 		.4byte	.LFE107-.LFB107
 4809 0b42 01       		.uleb128 0x1
 4810 0b43 9C       		.byte	0x9c
 4811 0b44 14       		.uleb128 0x14
 4812 0b45 85020000 		.4byte	.LASF125
 4813 0b49 01       		.byte	0x1
 4814 0b4a 4F01     		.2byte	0x14f
 4815 0b4c 00000000 		.4byte	.LFB108
 4816 0b50 1C000000 		.4byte	.LFE108-.LFB108
 4817 0b54 01       		.uleb128 0x1
 4818 0b55 9C       		.byte	0x9c
 4819 0b56 14       		.uleb128 0x14
 4820 0b57 1E010000 		.4byte	.LASF126
 4821 0b5b 01       		.byte	0x1
 4822 0b5c 5601     		.2byte	0x156
 4823 0b5e 00000000 		.4byte	.LFB109
 4824 0b62 1C000000 		.4byte	.LFE109-.LFB109
 4825 0b66 01       		.uleb128 0x1
 4826 0b67 9C       		.byte	0x9c
 4827 0b68 0A       		.uleb128 0xa
 4828 0b69 68000000 		.4byte	0x68
 4829 0b6d 780B0000 		.4byte	0xb78
 4830 0b71 0B       		.uleb128 0xb
 4831 0b72 AC000000 		.4byte	0xac
 4832 0b76 03       		.byte	0x3
 4833 0b77 00       		.byte	0
 4834 0b78 12       		.uleb128 0x12
 4835 0b79 D7040000 		.4byte	.LASF127
 4836 0b7d 01       		.byte	0x1
 4837 0b7e 65       		.byte	0x65
 4838 0b7f 680B0000 		.4byte	0xb68
 4839 0b83 05       		.uleb128 0x5
 4840 0b84 03       		.byte	0x3
 4841 0b85 00000000 		.4byte	fttmparr
 4842 0b89 1A       		.uleb128 0x1a
 4843 0b8a 7D020000 		.4byte	.LASF128
 4844 0b8e 07       		.byte	0x7
 4845 0b8f 78       		.byte	0x78
ARM GAS  C:\Users\SDEVAS~1\AppData\Local\Temp\ccOTp3Ub.s 			page 93


 4846 0b90 B3000000 		.4byte	0xb3
 4847 0b94 1A       		.uleb128 0x1a
 4848 0b95 6F020000 		.4byte	.LASF129
 4849 0b99 07       		.byte	0x7
 4850 0b9a 79       		.byte	0x79
 4851 0b9b 68000000 		.4byte	0x68
 4852 0b9f 1B       		.uleb128 0x1b
 4853 0ba0 67050000 		.4byte	.LASF130
 4854 0ba4 01       		.byte	0x1
 4855 0ba5 06       		.byte	0x6
 4856 0ba6 1F010000 		.4byte	0x11f
 4857 0baa 05       		.uleb128 0x5
 4858 0bab 03       		.byte	0x3
 4859 0bac 00000000 		.4byte	currentTime
 4860 0bb0 1B       		.uleb128 0x1b
 4861 0bb1 1C070000 		.4byte	.LASF131
 4862 0bb5 01       		.byte	0x1
 4863 0bb6 07       		.byte	0x7
 4864 0bb7 1F010000 		.4byte	0x11f
 4865 0bbb 05       		.uleb128 0x5
 4866 0bbc 03       		.byte	0x3
 4867 0bbd 00000000 		.4byte	expTime
 4868 0bc1 1B       		.uleb128 0x1b
 4869 0bc2 EA040000 		.4byte	.LASF132
 4870 0bc6 01       		.byte	0x1
 4871 0bc7 0A       		.byte	0xa
 4872 0bc8 68000000 		.4byte	0x68
 4873 0bcc 05       		.uleb128 0x5
 4874 0bcd 03       		.byte	0x3
 4875 0bce 00000000 		.4byte	currentVolume
 4876 0bd2 1B       		.uleb128 0x1b
 4877 0bd3 CA060000 		.4byte	.LASF133
 4878 0bd7 01       		.byte	0x1
 4879 0bd8 0B       		.byte	0xb
 4880 0bd9 68000000 		.4byte	0x68
 4881 0bdd 05       		.uleb128 0x5
 4882 0bde 03       		.byte	0x3
 4883 0bdf 00000000 		.4byte	maxVolume
 4884 0be3 1B       		.uleb128 0x1b
 4885 0be4 E0030000 		.4byte	.LASF134
 4886 0be8 01       		.byte	0x1
 4887 0be9 2A       		.byte	0x2a
 4888 0bea 2A010000 		.4byte	0x12a
 4889 0bee 05       		.uleb128 0x5
 4890 0bef 03       		.byte	0x3
 4891 0bf0 00000000 		.4byte	water_data
 4892 0bf4 0A       		.uleb128 0xa
 4893 0bf5 68000000 		.4byte	0x68
 4894 0bf9 0A0C0000 		.4byte	0xc0a
 4895 0bfd 0B       		.uleb128 0xb
 4896 0bfe AC000000 		.4byte	0xac
 4897 0c02 17       		.byte	0x17
 4898 0c03 0B       		.uleb128 0xb
 4899 0c04 AC000000 		.4byte	0xac
 4900 0c08 03       		.byte	0x3
 4901 0c09 00       		.byte	0
 4902 0c0a 1B       		.uleb128 0x1b
ARM GAS  C:\Users\SDEVAS~1\AppData\Local\Temp\ccOTp3Ub.s 			page 94


 4903 0c0b AF090000 		.4byte	.LASF135
 4904 0c0f 01       		.byte	0x1
 4905 0c10 FA       		.byte	0xfa
 4906 0c11 F40B0000 		.4byte	0xbf4
 4907 0c15 05       		.uleb128 0x5
 4908 0c16 03       		.byte	0x3
 4909 0c17 00000000 		.4byte	opVals
 4910 0c1b 00       		.byte	0
 4911              		.section	.debug_abbrev,"",%progbits
 4912              	.Ldebug_abbrev0:
 4913 0000 01       		.uleb128 0x1
 4914 0001 11       		.uleb128 0x11
 4915 0002 01       		.byte	0x1
 4916 0003 25       		.uleb128 0x25
 4917 0004 0E       		.uleb128 0xe
 4918 0005 13       		.uleb128 0x13
 4919 0006 0B       		.uleb128 0xb
 4920 0007 03       		.uleb128 0x3
 4921 0008 0E       		.uleb128 0xe
 4922 0009 1B       		.uleb128 0x1b
 4923 000a 0E       		.uleb128 0xe
 4924 000b 55       		.uleb128 0x55
 4925 000c 17       		.uleb128 0x17
 4926 000d 11       		.uleb128 0x11
 4927 000e 01       		.uleb128 0x1
 4928 000f 10       		.uleb128 0x10
 4929 0010 17       		.uleb128 0x17
 4930 0011 00       		.byte	0
 4931 0012 00       		.byte	0
 4932 0013 02       		.uleb128 0x2
 4933 0014 24       		.uleb128 0x24
 4934 0015 00       		.byte	0
 4935 0016 0B       		.uleb128 0xb
 4936 0017 0B       		.uleb128 0xb
 4937 0018 3E       		.uleb128 0x3e
 4938 0019 0B       		.uleb128 0xb
 4939 001a 03       		.uleb128 0x3
 4940 001b 0E       		.uleb128 0xe
 4941 001c 00       		.byte	0
 4942 001d 00       		.byte	0
 4943 001e 03       		.uleb128 0x3
 4944 001f 16       		.uleb128 0x16
 4945 0020 00       		.byte	0
 4946 0021 03       		.uleb128 0x3
 4947 0022 0E       		.uleb128 0xe
 4948 0023 3A       		.uleb128 0x3a
 4949 0024 0B       		.uleb128 0xb
 4950 0025 3B       		.uleb128 0x3b
 4951 0026 0B       		.uleb128 0xb
 4952 0027 49       		.uleb128 0x49
 4953 0028 13       		.uleb128 0x13
 4954 0029 00       		.byte	0
 4955 002a 00       		.byte	0
 4956 002b 04       		.uleb128 0x4
 4957 002c 24       		.uleb128 0x24
 4958 002d 00       		.byte	0
 4959 002e 0B       		.uleb128 0xb
ARM GAS  C:\Users\SDEVAS~1\AppData\Local\Temp\ccOTp3Ub.s 			page 95


 4960 002f 0B       		.uleb128 0xb
 4961 0030 3E       		.uleb128 0x3e
 4962 0031 0B       		.uleb128 0xb
 4963 0032 03       		.uleb128 0x3
 4964 0033 08       		.uleb128 0x8
 4965 0034 00       		.byte	0
 4966 0035 00       		.byte	0
 4967 0036 05       		.uleb128 0x5
 4968 0037 0F       		.uleb128 0xf
 4969 0038 00       		.byte	0
 4970 0039 0B       		.uleb128 0xb
 4971 003a 0B       		.uleb128 0xb
 4972 003b 49       		.uleb128 0x49
 4973 003c 13       		.uleb128 0x13
 4974 003d 00       		.byte	0
 4975 003e 00       		.byte	0
 4976 003f 06       		.uleb128 0x6
 4977 0040 26       		.uleb128 0x26
 4978 0041 00       		.byte	0
 4979 0042 49       		.uleb128 0x49
 4980 0043 13       		.uleb128 0x13
 4981 0044 00       		.byte	0
 4982 0045 00       		.byte	0
 4983 0046 07       		.uleb128 0x7
 4984 0047 13       		.uleb128 0x13
 4985 0048 01       		.byte	0x1
 4986 0049 03       		.uleb128 0x3
 4987 004a 0E       		.uleb128 0xe
 4988 004b 0B       		.uleb128 0xb
 4989 004c 0B       		.uleb128 0xb
 4990 004d 3A       		.uleb128 0x3a
 4991 004e 0B       		.uleb128 0xb
 4992 004f 3B       		.uleb128 0x3b
 4993 0050 0B       		.uleb128 0xb
 4994 0051 01       		.uleb128 0x1
 4995 0052 13       		.uleb128 0x13
 4996 0053 00       		.byte	0
 4997 0054 00       		.byte	0
 4998 0055 08       		.uleb128 0x8
 4999 0056 0D       		.uleb128 0xd
 5000 0057 00       		.byte	0
 5001 0058 03       		.uleb128 0x3
 5002 0059 0E       		.uleb128 0xe
 5003 005a 3A       		.uleb128 0x3a
 5004 005b 0B       		.uleb128 0xb
 5005 005c 3B       		.uleb128 0x3b
 5006 005d 0B       		.uleb128 0xb
 5007 005e 49       		.uleb128 0x49
 5008 005f 13       		.uleb128 0x13
 5009 0060 38       		.uleb128 0x38
 5010 0061 0B       		.uleb128 0xb
 5011 0062 00       		.byte	0
 5012 0063 00       		.byte	0
 5013 0064 09       		.uleb128 0x9
 5014 0065 13       		.uleb128 0x13
 5015 0066 01       		.byte	0x1
 5016 0067 0B       		.uleb128 0xb
ARM GAS  C:\Users\SDEVAS~1\AppData\Local\Temp\ccOTp3Ub.s 			page 96


 5017 0068 0B       		.uleb128 0xb
 5018 0069 3A       		.uleb128 0x3a
 5019 006a 0B       		.uleb128 0xb
 5020 006b 3B       		.uleb128 0x3b
 5021 006c 0B       		.uleb128 0xb
 5022 006d 01       		.uleb128 0x1
 5023 006e 13       		.uleb128 0x13
 5024 006f 00       		.byte	0
 5025 0070 00       		.byte	0
 5026 0071 0A       		.uleb128 0xa
 5027 0072 01       		.uleb128 0x1
 5028 0073 01       		.byte	0x1
 5029 0074 49       		.uleb128 0x49
 5030 0075 13       		.uleb128 0x13
 5031 0076 01       		.uleb128 0x1
 5032 0077 13       		.uleb128 0x13
 5033 0078 00       		.byte	0
 5034 0079 00       		.byte	0
 5035 007a 0B       		.uleb128 0xb
 5036 007b 21       		.uleb128 0x21
 5037 007c 00       		.byte	0
 5038 007d 49       		.uleb128 0x49
 5039 007e 13       		.uleb128 0x13
 5040 007f 2F       		.uleb128 0x2f
 5041 0080 0B       		.uleb128 0xb
 5042 0081 00       		.byte	0
 5043 0082 00       		.byte	0
 5044 0083 0C       		.uleb128 0xc
 5045 0084 2E       		.uleb128 0x2e
 5046 0085 01       		.byte	0x1
 5047 0086 3F       		.uleb128 0x3f
 5048 0087 19       		.uleb128 0x19
 5049 0088 03       		.uleb128 0x3
 5050 0089 0E       		.uleb128 0xe
 5051 008a 3A       		.uleb128 0x3a
 5052 008b 0B       		.uleb128 0xb
 5053 008c 3B       		.uleb128 0x3b
 5054 008d 0B       		.uleb128 0xb
 5055 008e 27       		.uleb128 0x27
 5056 008f 19       		.uleb128 0x19
 5057 0090 11       		.uleb128 0x11
 5058 0091 01       		.uleb128 0x1
 5059 0092 12       		.uleb128 0x12
 5060 0093 06       		.uleb128 0x6
 5061 0094 40       		.uleb128 0x40
 5062 0095 18       		.uleb128 0x18
 5063 0096 9642     		.uleb128 0x2116
 5064 0098 19       		.uleb128 0x19
 5065 0099 01       		.uleb128 0x1
 5066 009a 13       		.uleb128 0x13
 5067 009b 00       		.byte	0
 5068 009c 00       		.byte	0
 5069 009d 0D       		.uleb128 0xd
 5070 009e 05       		.uleb128 0x5
 5071 009f 00       		.byte	0
 5072 00a0 03       		.uleb128 0x3
 5073 00a1 08       		.uleb128 0x8
ARM GAS  C:\Users\SDEVAS~1\AppData\Local\Temp\ccOTp3Ub.s 			page 97


 5074 00a2 3A       		.uleb128 0x3a
 5075 00a3 0B       		.uleb128 0xb
 5076 00a4 3B       		.uleb128 0x3b
 5077 00a5 0B       		.uleb128 0xb
 5078 00a6 49       		.uleb128 0x49
 5079 00a7 13       		.uleb128 0x13
 5080 00a8 02       		.uleb128 0x2
 5081 00a9 18       		.uleb128 0x18
 5082 00aa 00       		.byte	0
 5083 00ab 00       		.byte	0
 5084 00ac 0E       		.uleb128 0xe
 5085 00ad 2E       		.uleb128 0x2e
 5086 00ae 00       		.byte	0
 5087 00af 3F       		.uleb128 0x3f
 5088 00b0 19       		.uleb128 0x19
 5089 00b1 03       		.uleb128 0x3
 5090 00b2 0E       		.uleb128 0xe
 5091 00b3 3A       		.uleb128 0x3a
 5092 00b4 0B       		.uleb128 0xb
 5093 00b5 3B       		.uleb128 0x3b
 5094 00b6 0B       		.uleb128 0xb
 5095 00b7 27       		.uleb128 0x27
 5096 00b8 19       		.uleb128 0x19
 5097 00b9 49       		.uleb128 0x49
 5098 00ba 13       		.uleb128 0x13
 5099 00bb 11       		.uleb128 0x11
 5100 00bc 01       		.uleb128 0x1
 5101 00bd 12       		.uleb128 0x12
 5102 00be 06       		.uleb128 0x6
 5103 00bf 40       		.uleb128 0x40
 5104 00c0 18       		.uleb128 0x18
 5105 00c1 9742     		.uleb128 0x2117
 5106 00c3 19       		.uleb128 0x19
 5107 00c4 00       		.byte	0
 5108 00c5 00       		.byte	0
 5109 00c6 0F       		.uleb128 0xf
 5110 00c7 2E       		.uleb128 0x2e
 5111 00c8 01       		.byte	0x1
 5112 00c9 3F       		.uleb128 0x3f
 5113 00ca 19       		.uleb128 0x19
 5114 00cb 03       		.uleb128 0x3
 5115 00cc 0E       		.uleb128 0xe
 5116 00cd 3A       		.uleb128 0x3a
 5117 00ce 0B       		.uleb128 0xb
 5118 00cf 3B       		.uleb128 0x3b
 5119 00d0 0B       		.uleb128 0xb
 5120 00d1 27       		.uleb128 0x27
 5121 00d2 19       		.uleb128 0x19
 5122 00d3 49       		.uleb128 0x49
 5123 00d4 13       		.uleb128 0x13
 5124 00d5 11       		.uleb128 0x11
 5125 00d6 01       		.uleb128 0x1
 5126 00d7 12       		.uleb128 0x12
 5127 00d8 06       		.uleb128 0x6
 5128 00d9 40       		.uleb128 0x40
 5129 00da 18       		.uleb128 0x18
 5130 00db 9642     		.uleb128 0x2116
ARM GAS  C:\Users\SDEVAS~1\AppData\Local\Temp\ccOTp3Ub.s 			page 98


 5131 00dd 19       		.uleb128 0x19
 5132 00de 01       		.uleb128 0x1
 5133 00df 13       		.uleb128 0x13
 5134 00e0 00       		.byte	0
 5135 00e1 00       		.byte	0
 5136 00e2 10       		.uleb128 0x10
 5137 00e3 34       		.uleb128 0x34
 5138 00e4 00       		.byte	0
 5139 00e5 03       		.uleb128 0x3
 5140 00e6 08       		.uleb128 0x8
 5141 00e7 3A       		.uleb128 0x3a
 5142 00e8 0B       		.uleb128 0xb
 5143 00e9 3B       		.uleb128 0x3b
 5144 00ea 0B       		.uleb128 0xb
 5145 00eb 49       		.uleb128 0x49
 5146 00ec 13       		.uleb128 0x13
 5147 00ed 02       		.uleb128 0x2
 5148 00ee 18       		.uleb128 0x18
 5149 00ef 00       		.byte	0
 5150 00f0 00       		.byte	0
 5151 00f1 11       		.uleb128 0x11
 5152 00f2 0B       		.uleb128 0xb
 5153 00f3 01       		.byte	0x1
 5154 00f4 11       		.uleb128 0x11
 5155 00f5 01       		.uleb128 0x1
 5156 00f6 12       		.uleb128 0x12
 5157 00f7 06       		.uleb128 0x6
 5158 00f8 00       		.byte	0
 5159 00f9 00       		.byte	0
 5160 00fa 12       		.uleb128 0x12
 5161 00fb 34       		.uleb128 0x34
 5162 00fc 00       		.byte	0
 5163 00fd 03       		.uleb128 0x3
 5164 00fe 0E       		.uleb128 0xe
 5165 00ff 3A       		.uleb128 0x3a
 5166 0100 0B       		.uleb128 0xb
 5167 0101 3B       		.uleb128 0x3b
 5168 0102 0B       		.uleb128 0xb
 5169 0103 49       		.uleb128 0x49
 5170 0104 13       		.uleb128 0x13
 5171 0105 02       		.uleb128 0x2
 5172 0106 18       		.uleb128 0x18
 5173 0107 00       		.byte	0
 5174 0108 00       		.byte	0
 5175 0109 13       		.uleb128 0x13
 5176 010a 2E       		.uleb128 0x2e
 5177 010b 01       		.byte	0x1
 5178 010c 3F       		.uleb128 0x3f
 5179 010d 19       		.uleb128 0x19
 5180 010e 03       		.uleb128 0x3
 5181 010f 0E       		.uleb128 0xe
 5182 0110 3A       		.uleb128 0x3a
 5183 0111 0B       		.uleb128 0xb
 5184 0112 3B       		.uleb128 0x3b
 5185 0113 0B       		.uleb128 0xb
 5186 0114 27       		.uleb128 0x27
 5187 0115 19       		.uleb128 0x19
ARM GAS  C:\Users\SDEVAS~1\AppData\Local\Temp\ccOTp3Ub.s 			page 99


 5188 0116 11       		.uleb128 0x11
 5189 0117 01       		.uleb128 0x1
 5190 0118 12       		.uleb128 0x12
 5191 0119 06       		.uleb128 0x6
 5192 011a 40       		.uleb128 0x40
 5193 011b 18       		.uleb128 0x18
 5194 011c 9742     		.uleb128 0x2117
 5195 011e 19       		.uleb128 0x19
 5196 011f 01       		.uleb128 0x1
 5197 0120 13       		.uleb128 0x13
 5198 0121 00       		.byte	0
 5199 0122 00       		.byte	0
 5200 0123 14       		.uleb128 0x14
 5201 0124 2E       		.uleb128 0x2e
 5202 0125 00       		.byte	0
 5203 0126 3F       		.uleb128 0x3f
 5204 0127 19       		.uleb128 0x19
 5205 0128 03       		.uleb128 0x3
 5206 0129 0E       		.uleb128 0xe
 5207 012a 3A       		.uleb128 0x3a
 5208 012b 0B       		.uleb128 0xb
 5209 012c 3B       		.uleb128 0x3b
 5210 012d 05       		.uleb128 0x5
 5211 012e 11       		.uleb128 0x11
 5212 012f 01       		.uleb128 0x1
 5213 0130 12       		.uleb128 0x12
 5214 0131 06       		.uleb128 0x6
 5215 0132 40       		.uleb128 0x40
 5216 0133 18       		.uleb128 0x18
 5217 0134 9642     		.uleb128 0x2116
 5218 0136 19       		.uleb128 0x19
 5219 0137 00       		.byte	0
 5220 0138 00       		.byte	0
 5221 0139 15       		.uleb128 0x15
 5222 013a 2E       		.uleb128 0x2e
 5223 013b 01       		.byte	0x1
 5224 013c 3F       		.uleb128 0x3f
 5225 013d 19       		.uleb128 0x19
 5226 013e 03       		.uleb128 0x3
 5227 013f 0E       		.uleb128 0xe
 5228 0140 3A       		.uleb128 0x3a
 5229 0141 0B       		.uleb128 0xb
 5230 0142 3B       		.uleb128 0x3b
 5231 0143 05       		.uleb128 0x5
 5232 0144 11       		.uleb128 0x11
 5233 0145 01       		.uleb128 0x1
 5234 0146 12       		.uleb128 0x12
 5235 0147 06       		.uleb128 0x6
 5236 0148 40       		.uleb128 0x40
 5237 0149 18       		.uleb128 0x18
 5238 014a 9642     		.uleb128 0x2116
 5239 014c 19       		.uleb128 0x19
 5240 014d 01       		.uleb128 0x1
 5241 014e 13       		.uleb128 0x13
 5242 014f 00       		.byte	0
 5243 0150 00       		.byte	0
 5244 0151 16       		.uleb128 0x16
ARM GAS  C:\Users\SDEVAS~1\AppData\Local\Temp\ccOTp3Ub.s 			page 100


 5245 0152 34       		.uleb128 0x34
 5246 0153 00       		.byte	0
 5247 0154 03       		.uleb128 0x3
 5248 0155 0E       		.uleb128 0xe
 5249 0156 3A       		.uleb128 0x3a
 5250 0157 0B       		.uleb128 0xb
 5251 0158 3B       		.uleb128 0x3b
 5252 0159 05       		.uleb128 0x5
 5253 015a 49       		.uleb128 0x49
 5254 015b 13       		.uleb128 0x13
 5255 015c 02       		.uleb128 0x2
 5256 015d 18       		.uleb128 0x18
 5257 015e 00       		.byte	0
 5258 015f 00       		.byte	0
 5259 0160 17       		.uleb128 0x17
 5260 0161 2E       		.uleb128 0x2e
 5261 0162 01       		.byte	0x1
 5262 0163 3F       		.uleb128 0x3f
 5263 0164 19       		.uleb128 0x19
 5264 0165 03       		.uleb128 0x3
 5265 0166 0E       		.uleb128 0xe
 5266 0167 3A       		.uleb128 0x3a
 5267 0168 0B       		.uleb128 0xb
 5268 0169 3B       		.uleb128 0x3b
 5269 016a 05       		.uleb128 0x5
 5270 016b 49       		.uleb128 0x49
 5271 016c 13       		.uleb128 0x13
 5272 016d 11       		.uleb128 0x11
 5273 016e 01       		.uleb128 0x1
 5274 016f 12       		.uleb128 0x12
 5275 0170 06       		.uleb128 0x6
 5276 0171 40       		.uleb128 0x40
 5277 0172 18       		.uleb128 0x18
 5278 0173 9642     		.uleb128 0x2116
 5279 0175 19       		.uleb128 0x19
 5280 0176 01       		.uleb128 0x1
 5281 0177 13       		.uleb128 0x13
 5282 0178 00       		.byte	0
 5283 0179 00       		.byte	0
 5284 017a 18       		.uleb128 0x18
 5285 017b 2E       		.uleb128 0x2e
 5286 017c 00       		.byte	0
 5287 017d 3F       		.uleb128 0x3f
 5288 017e 19       		.uleb128 0x19
 5289 017f 03       		.uleb128 0x3
 5290 0180 0E       		.uleb128 0xe
 5291 0181 3A       		.uleb128 0x3a
 5292 0182 0B       		.uleb128 0xb
 5293 0183 3B       		.uleb128 0x3b
 5294 0184 05       		.uleb128 0x5
 5295 0185 49       		.uleb128 0x49
 5296 0186 13       		.uleb128 0x13
 5297 0187 11       		.uleb128 0x11
 5298 0188 01       		.uleb128 0x1
 5299 0189 12       		.uleb128 0x12
 5300 018a 06       		.uleb128 0x6
 5301 018b 40       		.uleb128 0x40
ARM GAS  C:\Users\SDEVAS~1\AppData\Local\Temp\ccOTp3Ub.s 			page 101


 5302 018c 18       		.uleb128 0x18
 5303 018d 9642     		.uleb128 0x2116
 5304 018f 19       		.uleb128 0x19
 5305 0190 00       		.byte	0
 5306 0191 00       		.byte	0
 5307 0192 19       		.uleb128 0x19
 5308 0193 2E       		.uleb128 0x2e
 5309 0194 00       		.byte	0
 5310 0195 3F       		.uleb128 0x3f
 5311 0196 19       		.uleb128 0x19
 5312 0197 03       		.uleb128 0x3
 5313 0198 0E       		.uleb128 0xe
 5314 0199 3A       		.uleb128 0x3a
 5315 019a 0B       		.uleb128 0xb
 5316 019b 3B       		.uleb128 0x3b
 5317 019c 05       		.uleb128 0x5
 5318 019d 49       		.uleb128 0x49
 5319 019e 13       		.uleb128 0x13
 5320 019f 11       		.uleb128 0x11
 5321 01a0 01       		.uleb128 0x1
 5322 01a1 12       		.uleb128 0x12
 5323 01a2 06       		.uleb128 0x6
 5324 01a3 40       		.uleb128 0x40
 5325 01a4 18       		.uleb128 0x18
 5326 01a5 9742     		.uleb128 0x2117
 5327 01a7 19       		.uleb128 0x19
 5328 01a8 00       		.byte	0
 5329 01a9 00       		.byte	0
 5330 01aa 1A       		.uleb128 0x1a
 5331 01ab 34       		.uleb128 0x34
 5332 01ac 00       		.byte	0
 5333 01ad 03       		.uleb128 0x3
 5334 01ae 0E       		.uleb128 0xe
 5335 01af 3A       		.uleb128 0x3a
 5336 01b0 0B       		.uleb128 0xb
 5337 01b1 3B       		.uleb128 0x3b
 5338 01b2 0B       		.uleb128 0xb
 5339 01b3 49       		.uleb128 0x49
 5340 01b4 13       		.uleb128 0x13
 5341 01b5 3F       		.uleb128 0x3f
 5342 01b6 19       		.uleb128 0x19
 5343 01b7 3C       		.uleb128 0x3c
 5344 01b8 19       		.uleb128 0x19
 5345 01b9 00       		.byte	0
 5346 01ba 00       		.byte	0
 5347 01bb 1B       		.uleb128 0x1b
 5348 01bc 34       		.uleb128 0x34
 5349 01bd 00       		.byte	0
 5350 01be 03       		.uleb128 0x3
 5351 01bf 0E       		.uleb128 0xe
 5352 01c0 3A       		.uleb128 0x3a
 5353 01c1 0B       		.uleb128 0xb
 5354 01c2 3B       		.uleb128 0x3b
 5355 01c3 0B       		.uleb128 0xb
 5356 01c4 49       		.uleb128 0x49
 5357 01c5 13       		.uleb128 0x13
 5358 01c6 3F       		.uleb128 0x3f
ARM GAS  C:\Users\SDEVAS~1\AppData\Local\Temp\ccOTp3Ub.s 			page 102


 5359 01c7 19       		.uleb128 0x19
 5360 01c8 02       		.uleb128 0x2
 5361 01c9 18       		.uleb128 0x18
 5362 01ca 00       		.byte	0
 5363 01cb 00       		.byte	0
 5364 01cc 00       		.byte	0
 5365              		.section	.debug_aranges,"",%progbits
 5366 0000 7C020000 		.4byte	0x27c
 5367 0004 0200     		.2byte	0x2
 5368 0006 00000000 		.4byte	.Ldebug_info0
 5369 000a 04       		.byte	0x4
 5370 000b 00       		.byte	0
 5371 000c 0000     		.2byte	0
 5372 000e 0000     		.2byte	0
 5373 0010 00000000 		.4byte	.LFB33
 5374 0014 20000000 		.4byte	.LFE33-.LFB33
 5375 0018 00000000 		.4byte	.LFB34
 5376 001c 20000000 		.4byte	.LFE34-.LFB34
 5377 0020 00000000 		.4byte	.LFB35
 5378 0024 20000000 		.4byte	.LFE35-.LFB35
 5379 0028 00000000 		.4byte	.LFB36
 5380 002c 20000000 		.4byte	.LFE36-.LFB36
 5381 0030 00000000 		.4byte	.LFB37
 5382 0034 20000000 		.4byte	.LFE37-.LFB37
 5383 0038 00000000 		.4byte	.LFB38
 5384 003c 20000000 		.4byte	.LFE38-.LFB38
 5385 0040 00000000 		.4byte	.LFB39
 5386 0044 20000000 		.4byte	.LFE39-.LFB39
 5387 0048 00000000 		.4byte	.LFB40
 5388 004c 20000000 		.4byte	.LFE40-.LFB40
 5389 0050 00000000 		.4byte	.LFB41
 5390 0054 20000000 		.4byte	.LFE41-.LFB41
 5391 0058 00000000 		.4byte	.LFB42
 5392 005c 20000000 		.4byte	.LFE42-.LFB42
 5393 0060 00000000 		.4byte	.LFB43
 5394 0064 10000000 		.4byte	.LFE43-.LFB43
 5395 0068 00000000 		.4byte	.LFB44
 5396 006c 10000000 		.4byte	.LFE44-.LFB44
 5397 0070 00000000 		.4byte	.LFB45
 5398 0074 10000000 		.4byte	.LFE45-.LFB45
 5399 0078 00000000 		.4byte	.LFB46
 5400 007c 10000000 		.4byte	.LFE46-.LFB46
 5401 0080 00000000 		.4byte	.LFB47
 5402 0084 10000000 		.4byte	.LFE47-.LFB47
 5403 0088 00000000 		.4byte	.LFB48
 5404 008c 10000000 		.4byte	.LFE48-.LFB48
 5405 0090 00000000 		.4byte	.LFB49
 5406 0094 10000000 		.4byte	.LFE49-.LFB49
 5407 0098 00000000 		.4byte	.LFB50
 5408 009c 10000000 		.4byte	.LFE50-.LFB50
 5409 00a0 00000000 		.4byte	.LFB51
 5410 00a4 10000000 		.4byte	.LFE51-.LFB51
 5411 00a8 00000000 		.4byte	.LFB52
 5412 00ac 10000000 		.4byte	.LFE52-.LFB52
 5413 00b0 00000000 		.4byte	.LFB53
 5414 00b4 92000000 		.4byte	.LFE53-.LFB53
 5415 00b8 00000000 		.4byte	.LFB54
ARM GAS  C:\Users\SDEVAS~1\AppData\Local\Temp\ccOTp3Ub.s 			page 103


 5416 00bc 84000000 		.4byte	.LFE54-.LFB54
 5417 00c0 00000000 		.4byte	.LFB55
 5418 00c4 1C000000 		.4byte	.LFE55-.LFB55
 5419 00c8 00000000 		.4byte	.LFB56
 5420 00cc 1C000000 		.4byte	.LFE56-.LFB56
 5421 00d0 00000000 		.4byte	.LFB57
 5422 00d4 1C000000 		.4byte	.LFE57-.LFB57
 5423 00d8 00000000 		.4byte	.LFB58
 5424 00dc 1C000000 		.4byte	.LFE58-.LFB58
 5425 00e0 00000000 		.4byte	.LFB59
 5426 00e4 1C000000 		.4byte	.LFE59-.LFB59
 5427 00e8 00000000 		.4byte	.LFB60
 5428 00ec 1C000000 		.4byte	.LFE60-.LFB60
 5429 00f0 00000000 		.4byte	.LFB61
 5430 00f4 1C000000 		.4byte	.LFE61-.LFB61
 5431 00f8 00000000 		.4byte	.LFB62
 5432 00fc 1C000000 		.4byte	.LFE62-.LFB62
 5433 0100 00000000 		.4byte	.LFB63
 5434 0104 0E000000 		.4byte	.LFE63-.LFB63
 5435 0108 00000000 		.4byte	.LFB64
 5436 010c 0E000000 		.4byte	.LFE64-.LFB64
 5437 0110 00000000 		.4byte	.LFB65
 5438 0114 0E000000 		.4byte	.LFE65-.LFB65
 5439 0118 00000000 		.4byte	.LFB66
 5440 011c 0E000000 		.4byte	.LFE66-.LFB66
 5441 0120 00000000 		.4byte	.LFB67
 5442 0124 0E000000 		.4byte	.LFE67-.LFB67
 5443 0128 00000000 		.4byte	.LFB68
 5444 012c 0E000000 		.4byte	.LFE68-.LFB68
 5445 0130 00000000 		.4byte	.LFB69
 5446 0134 0E000000 		.4byte	.LFE69-.LFB69
 5447 0138 00000000 		.4byte	.LFB70
 5448 013c 0E000000 		.4byte	.LFE70-.LFB70
 5449 0140 00000000 		.4byte	.LFB71
 5450 0144 0E000000 		.4byte	.LFE71-.LFB71
 5451 0148 00000000 		.4byte	.LFB72
 5452 014c 18000000 		.4byte	.LFE72-.LFB72
 5453 0150 00000000 		.4byte	.LFB73
 5454 0154 18000000 		.4byte	.LFE73-.LFB73
 5455 0158 00000000 		.4byte	.LFB74
 5456 015c 18000000 		.4byte	.LFE74-.LFB74
 5457 0160 00000000 		.4byte	.LFB75
 5458 0164 18000000 		.4byte	.LFE75-.LFB75
 5459 0168 00000000 		.4byte	.LFB76
 5460 016c 18000000 		.4byte	.LFE76-.LFB76
 5461 0170 00000000 		.4byte	.LFB77
 5462 0174 18000000 		.4byte	.LFE77-.LFB77
 5463 0178 00000000 		.4byte	.LFB78
 5464 017c 14000000 		.4byte	.LFE78-.LFB78
 5465 0180 00000000 		.4byte	.LFB79
 5466 0184 14000000 		.4byte	.LFE79-.LFB79
 5467 0188 00000000 		.4byte	.LFB80
 5468 018c 14000000 		.4byte	.LFE80-.LFB80
 5469 0190 00000000 		.4byte	.LFB81
 5470 0194 14000000 		.4byte	.LFE81-.LFB81
 5471 0198 00000000 		.4byte	.LFB82
 5472 019c 14000000 		.4byte	.LFE82-.LFB82
ARM GAS  C:\Users\SDEVAS~1\AppData\Local\Temp\ccOTp3Ub.s 			page 104


 5473 01a0 00000000 		.4byte	.LFB83
 5474 01a4 14000000 		.4byte	.LFE83-.LFB83
 5475 01a8 00000000 		.4byte	.LFB84
 5476 01ac 14000000 		.4byte	.LFE84-.LFB84
 5477 01b0 00000000 		.4byte	.LFB85
 5478 01b4 14000000 		.4byte	.LFE85-.LFB85
 5479 01b8 00000000 		.4byte	.LFB86
 5480 01bc 14000000 		.4byte	.LFE86-.LFB86
 5481 01c0 00000000 		.4byte	.LFB87
 5482 01c4 14000000 		.4byte	.LFE87-.LFB87
 5483 01c8 00000000 		.4byte	.LFB88
 5484 01cc 14000000 		.4byte	.LFE88-.LFB88
 5485 01d0 00000000 		.4byte	.LFB89
 5486 01d4 14000000 		.4byte	.LFE89-.LFB89
 5487 01d8 00000000 		.4byte	.LFB90
 5488 01dc 14000000 		.4byte	.LFE90-.LFB90
 5489 01e0 00000000 		.4byte	.LFB91
 5490 01e4 14000000 		.4byte	.LFE91-.LFB91
 5491 01e8 00000000 		.4byte	.LFB92
 5492 01ec 14000000 		.4byte	.LFE92-.LFB92
 5493 01f0 00000000 		.4byte	.LFB93
 5494 01f4 14000000 		.4byte	.LFE93-.LFB93
 5495 01f8 00000000 		.4byte	.LFB94
 5496 01fc 14000000 		.4byte	.LFE94-.LFB94
 5497 0200 00000000 		.4byte	.LFB95
 5498 0204 14000000 		.4byte	.LFE95-.LFB95
 5499 0208 00000000 		.4byte	.LFB96
 5500 020c 14000000 		.4byte	.LFE96-.LFB96
 5501 0210 00000000 		.4byte	.LFB97
 5502 0214 14000000 		.4byte	.LFE97-.LFB97
 5503 0218 00000000 		.4byte	.LFB98
 5504 021c 14000000 		.4byte	.LFE98-.LFB98
 5505 0220 00000000 		.4byte	.LFB99
 5506 0224 14000000 		.4byte	.LFE99-.LFB99
 5507 0228 00000000 		.4byte	.LFB100
 5508 022c 14000000 		.4byte	.LFE100-.LFB100
 5509 0230 00000000 		.4byte	.LFB101
 5510 0234 C8030000 		.4byte	.LFE101-.LFB101
 5511 0238 00000000 		.4byte	.LFB102
 5512 023c 14000000 		.4byte	.LFE102-.LFB102
 5513 0240 00000000 		.4byte	.LFB103
 5514 0244 80000000 		.4byte	.LFE103-.LFB103
 5515 0248 00000000 		.4byte	.LFB104
 5516 024c 94000000 		.4byte	.LFE104-.LFB104
 5517 0250 00000000 		.4byte	.LFB105
 5518 0254 18000000 		.4byte	.LFE105-.LFB105
 5519 0258 00000000 		.4byte	.LFB106
 5520 025c 0E000000 		.4byte	.LFE106-.LFB106
 5521 0260 00000000 		.4byte	.LFB107
 5522 0264 14000000 		.4byte	.LFE107-.LFB107
 5523 0268 00000000 		.4byte	.LFB108
 5524 026c 1C000000 		.4byte	.LFE108-.LFB108
 5525 0270 00000000 		.4byte	.LFB109
 5526 0274 1C000000 		.4byte	.LFE109-.LFB109
 5527 0278 00000000 		.4byte	0
 5528 027c 00000000 		.4byte	0
 5529              		.section	.debug_ranges,"",%progbits
ARM GAS  C:\Users\SDEVAS~1\AppData\Local\Temp\ccOTp3Ub.s 			page 105


 5530              	.Ldebug_ranges0:
 5531 0000 00000000 		.4byte	.LFB33
 5532 0004 20000000 		.4byte	.LFE33
 5533 0008 00000000 		.4byte	.LFB34
 5534 000c 20000000 		.4byte	.LFE34
 5535 0010 00000000 		.4byte	.LFB35
 5536 0014 20000000 		.4byte	.LFE35
 5537 0018 00000000 		.4byte	.LFB36
 5538 001c 20000000 		.4byte	.LFE36
 5539 0020 00000000 		.4byte	.LFB37
 5540 0024 20000000 		.4byte	.LFE37
 5541 0028 00000000 		.4byte	.LFB38
 5542 002c 20000000 		.4byte	.LFE38
 5543 0030 00000000 		.4byte	.LFB39
 5544 0034 20000000 		.4byte	.LFE39
 5545 0038 00000000 		.4byte	.LFB40
 5546 003c 20000000 		.4byte	.LFE40
 5547 0040 00000000 		.4byte	.LFB41
 5548 0044 20000000 		.4byte	.LFE41
 5549 0048 00000000 		.4byte	.LFB42
 5550 004c 20000000 		.4byte	.LFE42
 5551 0050 00000000 		.4byte	.LFB43
 5552 0054 10000000 		.4byte	.LFE43
 5553 0058 00000000 		.4byte	.LFB44
 5554 005c 10000000 		.4byte	.LFE44
 5555 0060 00000000 		.4byte	.LFB45
 5556 0064 10000000 		.4byte	.LFE45
 5557 0068 00000000 		.4byte	.LFB46
 5558 006c 10000000 		.4byte	.LFE46
 5559 0070 00000000 		.4byte	.LFB47
 5560 0074 10000000 		.4byte	.LFE47
 5561 0078 00000000 		.4byte	.LFB48
 5562 007c 10000000 		.4byte	.LFE48
 5563 0080 00000000 		.4byte	.LFB49
 5564 0084 10000000 		.4byte	.LFE49
 5565 0088 00000000 		.4byte	.LFB50
 5566 008c 10000000 		.4byte	.LFE50
 5567 0090 00000000 		.4byte	.LFB51
 5568 0094 10000000 		.4byte	.LFE51
 5569 0098 00000000 		.4byte	.LFB52
 5570 009c 10000000 		.4byte	.LFE52
 5571 00a0 00000000 		.4byte	.LFB53
 5572 00a4 92000000 		.4byte	.LFE53
 5573 00a8 00000000 		.4byte	.LFB54
 5574 00ac 84000000 		.4byte	.LFE54
 5575 00b0 00000000 		.4byte	.LFB55
 5576 00b4 1C000000 		.4byte	.LFE55
 5577 00b8 00000000 		.4byte	.LFB56
 5578 00bc 1C000000 		.4byte	.LFE56
 5579 00c0 00000000 		.4byte	.LFB57
 5580 00c4 1C000000 		.4byte	.LFE57
 5581 00c8 00000000 		.4byte	.LFB58
 5582 00cc 1C000000 		.4byte	.LFE58
 5583 00d0 00000000 		.4byte	.LFB59
 5584 00d4 1C000000 		.4byte	.LFE59
 5585 00d8 00000000 		.4byte	.LFB60
 5586 00dc 1C000000 		.4byte	.LFE60
ARM GAS  C:\Users\SDEVAS~1\AppData\Local\Temp\ccOTp3Ub.s 			page 106


 5587 00e0 00000000 		.4byte	.LFB61
 5588 00e4 1C000000 		.4byte	.LFE61
 5589 00e8 00000000 		.4byte	.LFB62
 5590 00ec 1C000000 		.4byte	.LFE62
 5591 00f0 00000000 		.4byte	.LFB63
 5592 00f4 0E000000 		.4byte	.LFE63
 5593 00f8 00000000 		.4byte	.LFB64
 5594 00fc 0E000000 		.4byte	.LFE64
 5595 0100 00000000 		.4byte	.LFB65
 5596 0104 0E000000 		.4byte	.LFE65
 5597 0108 00000000 		.4byte	.LFB66
 5598 010c 0E000000 		.4byte	.LFE66
 5599 0110 00000000 		.4byte	.LFB67
 5600 0114 0E000000 		.4byte	.LFE67
 5601 0118 00000000 		.4byte	.LFB68
 5602 011c 0E000000 		.4byte	.LFE68
 5603 0120 00000000 		.4byte	.LFB69
 5604 0124 0E000000 		.4byte	.LFE69
 5605 0128 00000000 		.4byte	.LFB70
 5606 012c 0E000000 		.4byte	.LFE70
 5607 0130 00000000 		.4byte	.LFB71
 5608 0134 0E000000 		.4byte	.LFE71
 5609 0138 00000000 		.4byte	.LFB72
 5610 013c 18000000 		.4byte	.LFE72
 5611 0140 00000000 		.4byte	.LFB73
 5612 0144 18000000 		.4byte	.LFE73
 5613 0148 00000000 		.4byte	.LFB74
 5614 014c 18000000 		.4byte	.LFE74
 5615 0150 00000000 		.4byte	.LFB75
 5616 0154 18000000 		.4byte	.LFE75
 5617 0158 00000000 		.4byte	.LFB76
 5618 015c 18000000 		.4byte	.LFE76
 5619 0160 00000000 		.4byte	.LFB77
 5620 0164 18000000 		.4byte	.LFE77
 5621 0168 00000000 		.4byte	.LFB78
 5622 016c 14000000 		.4byte	.LFE78
 5623 0170 00000000 		.4byte	.LFB79
 5624 0174 14000000 		.4byte	.LFE79
 5625 0178 00000000 		.4byte	.LFB80
 5626 017c 14000000 		.4byte	.LFE80
 5627 0180 00000000 		.4byte	.LFB81
 5628 0184 14000000 		.4byte	.LFE81
 5629 0188 00000000 		.4byte	.LFB82
 5630 018c 14000000 		.4byte	.LFE82
 5631 0190 00000000 		.4byte	.LFB83
 5632 0194 14000000 		.4byte	.LFE83
 5633 0198 00000000 		.4byte	.LFB84
 5634 019c 14000000 		.4byte	.LFE84
 5635 01a0 00000000 		.4byte	.LFB85
 5636 01a4 14000000 		.4byte	.LFE85
 5637 01a8 00000000 		.4byte	.LFB86
 5638 01ac 14000000 		.4byte	.LFE86
 5639 01b0 00000000 		.4byte	.LFB87
 5640 01b4 14000000 		.4byte	.LFE87
 5641 01b8 00000000 		.4byte	.LFB88
 5642 01bc 14000000 		.4byte	.LFE88
 5643 01c0 00000000 		.4byte	.LFB89
ARM GAS  C:\Users\SDEVAS~1\AppData\Local\Temp\ccOTp3Ub.s 			page 107


 5644 01c4 14000000 		.4byte	.LFE89
 5645 01c8 00000000 		.4byte	.LFB90
 5646 01cc 14000000 		.4byte	.LFE90
 5647 01d0 00000000 		.4byte	.LFB91
 5648 01d4 14000000 		.4byte	.LFE91
 5649 01d8 00000000 		.4byte	.LFB92
 5650 01dc 14000000 		.4byte	.LFE92
 5651 01e0 00000000 		.4byte	.LFB93
 5652 01e4 14000000 		.4byte	.LFE93
 5653 01e8 00000000 		.4byte	.LFB94
 5654 01ec 14000000 		.4byte	.LFE94
 5655 01f0 00000000 		.4byte	.LFB95
 5656 01f4 14000000 		.4byte	.LFE95
 5657 01f8 00000000 		.4byte	.LFB96
 5658 01fc 14000000 		.4byte	.LFE96
 5659 0200 00000000 		.4byte	.LFB97
 5660 0204 14000000 		.4byte	.LFE97
 5661 0208 00000000 		.4byte	.LFB98
 5662 020c 14000000 		.4byte	.LFE98
 5663 0210 00000000 		.4byte	.LFB99
 5664 0214 14000000 		.4byte	.LFE99
 5665 0218 00000000 		.4byte	.LFB100
 5666 021c 14000000 		.4byte	.LFE100
 5667 0220 00000000 		.4byte	.LFB101
 5668 0224 C8030000 		.4byte	.LFE101
 5669 0228 00000000 		.4byte	.LFB102
 5670 022c 14000000 		.4byte	.LFE102
 5671 0230 00000000 		.4byte	.LFB103
 5672 0234 80000000 		.4byte	.LFE103
 5673 0238 00000000 		.4byte	.LFB104
 5674 023c 94000000 		.4byte	.LFE104
 5675 0240 00000000 		.4byte	.LFB105
 5676 0244 18000000 		.4byte	.LFE105
 5677 0248 00000000 		.4byte	.LFB106
 5678 024c 0E000000 		.4byte	.LFE106
 5679 0250 00000000 		.4byte	.LFB107
 5680 0254 14000000 		.4byte	.LFE107
 5681 0258 00000000 		.4byte	.LFB108
 5682 025c 1C000000 		.4byte	.LFE108
 5683 0260 00000000 		.4byte	.LFB109
 5684 0264 1C000000 		.4byte	.LFE109
 5685 0268 00000000 		.4byte	0
 5686 026c 00000000 		.4byte	0
 5687              		.section	.debug_line,"",%progbits
 5688              	.Ldebug_line0:
 5689 0000 3B070000 		.section	.debug_str,"MS",%progbits,1
 5689      02007301 
 5689      00000201 
 5689      FB0E0D00 
 5689      01010101 
 5690              	.LASF94:
 5691 0000 73657476 		.ascii	"setvar_minVol\000"
 5691      61725F6D 
 5691      696E566F 
 5691      6C00
 5692              	.LASF33:
 5693 000e 53746172 		.ascii	"StartTime\000"
ARM GAS  C:\Users\SDEVAS~1\AppData\Local\Temp\ccOTp3Ub.s 			page 108


 5693      7454696D 
 5693      6500
 5694              	.LASF101:
 5695 0018 67657476 		.ascii	"getvar_squareMeters\000"
 5695      61725F73 
 5695      71756172 
 5695      654D6574 
 5695      65727300 
 5696              	.LASF95:
 5697 002c 67657476 		.ascii	"getvar_notBefore\000"
 5697      61725F6E 
 5697      6F744265 
 5697      666F7265 
 5697      00
 5698              	.LASF46:
 5699 003d 53717561 		.ascii	"SquareMeters\000"
 5699      72654D65 
 5699      74657273 
 5699      00
 5700              	.LASF88:
 5701 004a 73657476 		.ascii	"setvar_lastStartFlow\000"
 5701      61725F6C 
 5701      61737453 
 5701      74617274 
 5701      466C6F77 
 5702              	.LASF83:
 5703 005f 73657476 		.ascii	"setvar_currentFlow\000"
 5703      61725F63 
 5703      75727265 
 5703      6E74466C 
 5703      6F7700
 5704              	.LASF37:
 5705 0072 4D617856 		.ascii	"MaxVol\000"
 5705      6F6C00
 5706              	.LASF105:
 5707 0079 67657476 		.ascii	"getvar_outerPressure\000"
 5707      61725F6F 
 5707      75746572 
 5707      50726573 
 5707      73757265 
 5708              	.LASF91:
 5709 008e 73657476 		.ascii	"setvar_numStarts\000"
 5709      61725F6E 
 5709      756D5374 
 5709      61727473 
 5709      00
 5710              	.LASF26:
 5711 009f 4F757465 		.ascii	"OuterPressure\000"
 5711      72507265 
 5711      73737572 
 5711      6500
 5712              	.LASF117:
 5713 00ad 67657476 		.ascii	"getvar_minVol\000"
 5713      61725F6D 
 5713      696E566F 
 5713      6C00
 5714              	.LASF8:
ARM GAS  C:\Users\SDEVAS~1\AppData\Local\Temp\ccOTp3Ub.s 			page 109


 5715 00bb 756E7369 		.ascii	"unsigned int\000"
 5715      676E6564 
 5715      20696E74 
 5715      00
 5716              	.LASF9:
 5717 00c8 5F5F696E 		.ascii	"__int32_t\000"
 5717      7433325F 
 5717      7400
 5718              	.LASF118:
 5719 00d2 636F6D6D 		.ascii	"comm_GenerateInfo\000"
 5719      5F47656E 
 5719      65726174 
 5719      65496E66 
 5719      6F00
 5720              	.LASF22:
 5721 00e4 6D6F6465 		.ascii	"mode\000"
 5721      00
 5722              	.LASF80:
 5723 00e9 73657476 		.ascii	"setvar_cropType\000"
 5723      61725F63 
 5723      726F7054 
 5723      79706500 
 5724              	.LASF79:
 5725 00f9 73657476 		.ascii	"setvar_lPerSqMeterPerDay\000"
 5725      61725F6C 
 5725      50657253 
 5725      714D6574 
 5725      65725065 
 5726              	.LASF70:
 5727 0112 636F6E76 		.ascii	"conv_str2ia\000"
 5727      5F737472 
 5727      32696100 
 5728              	.LASF126:
 5729 011e 66736D49 		.ascii	"fsmIfaceWaterControl_sendStats\000"
 5729      66616365 
 5729      57617465 
 5729      72436F6E 
 5729      74726F6C 
 5730              	.LASF30:
 5731 013d 4C617374 		.ascii	"LastStartNumber\000"
 5731      53746172 
 5731      744E756D 
 5731      62657200 
 5732              	.LASF113:
 5733 014d 67657476 		.ascii	"getvar_stopTime\000"
 5733      61725F73 
 5733      746F7054 
 5733      696D6500 
 5734              	.LASF27:
 5735 015d 43757272 		.ascii	"CurrentFlow\000"
 5735      656E7446 
 5735      6C6F7700 
 5736              	.LASF13:
 5737 0169 666C6F61 		.ascii	"float\000"
 5737      7400
 5738              	.LASF82:
 5739 016f 73657476 		.ascii	"setvar_outerPressure\000"
ARM GAS  C:\Users\SDEVAS~1\AppData\Local\Temp\ccOTp3Ub.s 			page 110


 5739      61725F6F 
 5739      75746572 
 5739      50726573 
 5739      73757265 
 5740              	.LASF120:
 5741 0184 66736D49 		.ascii	"fsmIfaceWaterControl_getOpMode\000"
 5741      66616365 
 5741      57617465 
 5741      72436F6E 
 5741      74726F6C 
 5742              	.LASF7:
 5743 01a3 6C6F6E67 		.ascii	"long long unsigned int\000"
 5743      206C6F6E 
 5743      6720756E 
 5743      7369676E 
 5743      65642069 
 5744              	.LASF78:
 5745 01ba 73657476 		.ascii	"setvar_squareMeters\000"
 5745      61725F73 
 5745      71756172 
 5745      654D6574 
 5745      65727300 
 5746              	.LASF138:
 5747 01ce 443A5C55 		.ascii	"D:\\Users\\sdevasenapathy\\atoms\\AtomWorkspace\\At"
 5747      73657273 
 5747      5C736465 
 5747      76617365 
 5747      6E617061 
 5748 01fc 6F6D2E63 		.ascii	"om.cydsn\000"
 5748      7964736E 
 5748      00
 5749              	.LASF72:
 5750 0205 73657476 		.ascii	"setvar_notBefore\000"
 5750      61725F6E 
 5750      6F744265 
 5750      666F7265 
 5750      00
 5751              	.LASF39:
 5752 0216 66657274 		.ascii	"fertigationTable\000"
 5752      69676174 
 5752      696F6E54 
 5752      61626C65 
 5752      00
 5753              	.LASF18:
 5754 0227 5F426F6F 		.ascii	"_Bool\000"
 5754      6C00
 5755              	.LASF69:
 5756 022d 636F6E76 		.ascii	"conv_ia2str\000"
 5756      5F696132 
 5756      73747200 
 5757              	.LASF87:
 5758 0239 73657476 		.ascii	"setvar_lastStartVolume\000"
 5758      61725F6C 
 5758      61737453 
 5758      74617274 
 5758      566F6C75 
 5759              	.LASF102:
ARM GAS  C:\Users\SDEVAS~1\AppData\Local\Temp\ccOTp3Ub.s 			page 111


 5760 0250 67657476 		.ascii	"getvar_lPerSqMeterPerDay\000"
 5760      61725F6C 
 5760      50657253 
 5760      714D6574 
 5760      65725065 
 5761              	.LASF24:
 5762 0269 636C6F63 		.ascii	"clock\000"
 5762      6B00
 5763              	.LASF129:
 5764 026f 72657370 		.ascii	"respFreeSpace\000"
 5764      46726565 
 5764      53706163 
 5764      6500
 5765              	.LASF128:
 5766 027d 72657370 		.ascii	"respEnd\000"
 5766      456E6400 
 5767              	.LASF125:
 5768 0285 66736D49 		.ascii	"fsmIfaceWaterControl_valveOff\000"
 5768      66616365 
 5768      57617465 
 5768      72436F6E 
 5768      74726F6C 
 5769              	.LASF15:
 5770 02a3 63686172 		.ascii	"char\000"
 5770      00
 5771              	.LASF35:
 5772 02a8 4E756D53 		.ascii	"NumStarts\000"
 5772      74617274 
 5772      7300
 5773              	.LASF20:
 5774 02b2 6D696E73 		.ascii	"mins\000"
 5774      00
 5775              	.LASF110:
 5776 02b7 67657476 		.ascii	"getvar_lastStartVolume\000"
 5776      61725F6C 
 5776      61737453 
 5776      74617274 
 5776      566F6C75 
 5777              	.LASF59:
 5778 02ce 67657476 		.ascii	"getvar_fertigationTable0\000"
 5778      61725F66 
 5778      65727469 
 5778      67617469 
 5778      6F6E5461 
 5779              	.LASF60:
 5780 02e7 67657476 		.ascii	"getvar_fertigationTable1\000"
 5780      61725F66 
 5780      65727469 
 5780      67617469 
 5780      6F6E5461 
 5781              	.LASF61:
 5782 0300 67657476 		.ascii	"getvar_fertigationTable2\000"
 5782      61725F66 
 5782      65727469 
 5782      67617469 
 5782      6F6E5461 
 5783              	.LASF62:
ARM GAS  C:\Users\SDEVAS~1\AppData\Local\Temp\ccOTp3Ub.s 			page 112


 5784 0319 67657476 		.ascii	"getvar_fertigationTable3\000"
 5784      61725F66 
 5784      65727469 
 5784      67617469 
 5784      6F6E5461 
 5785              	.LASF63:
 5786 0332 67657476 		.ascii	"getvar_fertigationTable4\000"
 5786      61725F66 
 5786      65727469 
 5786      67617469 
 5786      6F6E5461 
 5787              	.LASF64:
 5788 034b 67657476 		.ascii	"getvar_fertigationTable5\000"
 5788      61725F66 
 5788      65727469 
 5788      67617469 
 5788      6F6E5461 
 5789              	.LASF65:
 5790 0364 67657476 		.ascii	"getvar_fertigationTable6\000"
 5790      61725F66 
 5790      65727469 
 5790      67617469 
 5790      6F6E5461 
 5791              	.LASF66:
 5792 037d 67657476 		.ascii	"getvar_fertigationTable7\000"
 5792      61725F66 
 5792      65727469 
 5792      67617469 
 5792      6F6E5461 
 5793              	.LASF67:
 5794 0396 67657476 		.ascii	"getvar_fertigationTable8\000"
 5794      61725F66 
 5794      65727469 
 5794      67617469 
 5794      6F6E5461 
 5795              	.LASF68:
 5796 03af 67657476 		.ascii	"getvar_fertigationTable9\000"
 5796      61725F66 
 5796      65727469 
 5796      67617469 
 5796      6F6E5461 
 5797              	.LASF106:
 5798 03c8 67657476 		.ascii	"getvar_currentFlow\000"
 5798      61725F63 
 5798      75727265 
 5798      6E74466C 
 5798      6F7700
 5799              	.LASF19:
 5800 03db 73656373 		.ascii	"secs\000"
 5800      00
 5801              	.LASF134:
 5802 03e0 77617465 		.ascii	"water_data\000"
 5802      725F6461 
 5802      746100
 5803              	.LASF48:
 5804 03eb 43726F70 		.ascii	"CropType\000"
 5804      54797065 
ARM GAS  C:\Users\SDEVAS~1\AppData\Local\Temp\ccOTp3Ub.s 			page 113


 5804      00
 5805              	.LASF38:
 5806 03f4 4D696E56 		.ascii	"MinVol\000"
 5806      6F6C00
 5807              	.LASF6:
 5808 03fb 6C6F6E67 		.ascii	"long long int\000"
 5808      206C6F6E 
 5808      6720696E 
 5808      7400
 5809              	.LASF74:
 5810 0409 73657476 		.ascii	"setvar_dilutionFactorA\000"
 5810      61725F64 
 5810      696C7574 
 5810      696F6E46 
 5810      6163746F 
 5811              	.LASF75:
 5812 0420 73657476 		.ascii	"setvar_dilutionFactorB\000"
 5812      61725F64 
 5812      696C7574 
 5812      696F6E46 
 5812      6163746F 
 5813              	.LASF139:
 5814 0437 66736D49 		.ascii	"fsmIfaceWaterControl_setExpTime\000"
 5814      66616365 
 5814      57617465 
 5814      72436F6E 
 5814      74726F6C 
 5815              	.LASF76:
 5816 0457 73657476 		.ascii	"setvar_venturiSuctionA\000"
 5816      61725F76 
 5816      656E7475 
 5816      72695375 
 5816      6374696F 
 5817              	.LASF77:
 5818 046e 73657476 		.ascii	"setvar_venturiSuctionB\000"
 5818      61725F76 
 5818      656E7475 
 5818      72695375 
 5818      6374696F 
 5819              	.LASF90:
 5820 0485 73657476 		.ascii	"setvar_stopTime\000"
 5820      61725F73 
 5820      746F7054 
 5820      696D6500 
 5821              	.LASF124:
 5822 0495 66736D49 		.ascii	"fsmIfaceWaterControl_valveOn\000"
 5822      66616365 
 5822      57617465 
 5822      72436F6E 
 5822      74726F6C 
 5823              	.LASF31:
 5824 04b2 4C617374 		.ascii	"LastStartVolume\000"
 5824      53746172 
 5824      74566F6C 
 5824      756D6500 
 5825              	.LASF93:
 5826 04c2 73657476 		.ascii	"setvar_maxVol\000"
ARM GAS  C:\Users\SDEVAS~1\AppData\Local\Temp\ccOTp3Ub.s 			page 114


 5826      61725F6D 
 5826      6178566F 
 5826      6C00
 5827              	.LASF12:
 5828 04d0 75696E74 		.ascii	"uint32\000"
 5828      333200
 5829              	.LASF127:
 5830 04d7 6674746D 		.ascii	"fttmparr\000"
 5830      70617272 
 5830      00
 5831              	.LASF40:
 5832 04e0 4E6F7442 		.ascii	"NotBefore\000"
 5832      65666F72 
 5832      6500
 5833              	.LASF132:
 5834 04ea 63757272 		.ascii	"currentVolume\000"
 5834      656E7456 
 5834      6F6C756D 
 5834      6500
 5835              	.LASF97:
 5836 04f8 67657476 		.ascii	"getvar_dilutionFactorA\000"
 5836      61725F64 
 5836      696C7574 
 5836      696F6E46 
 5836      6163746F 
 5837              	.LASF98:
 5838 050f 67657476 		.ascii	"getvar_dilutionFactorB\000"
 5838      61725F64 
 5838      696C7574 
 5838      696F6E46 
 5838      6163746F 
 5839              	.LASF99:
 5840 0526 67657476 		.ascii	"getvar_venturiSuctionA\000"
 5840      61725F76 
 5840      656E7475 
 5840      72695375 
 5840      6374696F 
 5841              	.LASF100:
 5842 053d 67657476 		.ascii	"getvar_venturiSuctionB\000"
 5842      61725F76 
 5842      656E7475 
 5842      72695375 
 5842      6374696F 
 5843              	.LASF85:
 5844 0554 73657476 		.ascii	"setvar_valveStatus\000"
 5844      61725F76 
 5844      616C7665 
 5844      53746174 
 5844      757300
 5845              	.LASF130:
 5846 0567 63757272 		.ascii	"currentTime\000"
 5846      656E7454 
 5846      696D6500 
 5847              	.LASF136:
 5848 0573 474E5520 		.ascii	"GNU C 4.8.4 20140526 (release) [ARM/embedded-4_8-br"
 5848      4320342E 
 5848      382E3420 
ARM GAS  C:\Users\SDEVAS~1\AppData\Local\Temp\ccOTp3Ub.s 			page 115


 5848      32303134 
 5848      30353236 
 5849 05a6 616E6368 		.ascii	"anch revision 211358] -mcpu=cortex-m0 -mthumb -g -O"
 5849      20726576 
 5849      6973696F 
 5849      6E203231 
 5849      31333538 
 5850 05d9 30202D66 		.ascii	"0 -ffunction-sections\000"
 5850      66756E63 
 5850      74696F6E 
 5850      2D736563 
 5850      74696F6E 
 5851              	.LASF84:
 5852 05ef 73657476 		.ascii	"setvar_totalVolume\000"
 5852      61725F74 
 5852      6F74616C 
 5852      566F6C75 
 5852      6D6500
 5853              	.LASF116:
 5854 0602 67657476 		.ascii	"getvar_maxVol\000"
 5854      61725F6D 
 5854      6178566F 
 5854      6C00
 5855              	.LASF104:
 5856 0610 67657476 		.ascii	"getvar_innerPressure\000"
 5856      61725F69 
 5856      6E6E6572 
 5856      50726573 
 5856      73757265 
 5857              	.LASF92:
 5858 0625 73657476 		.ascii	"setvar_volPerStart\000"
 5858      61725F76 
 5858      6F6C5065 
 5858      72537461 
 5858      727400
 5859              	.LASF73:
 5860 0638 73657476 		.ascii	"setvar_notAfter\000"
 5860      61725F6E 
 5860      6F744166 
 5860      74657200 
 5861              	.LASF29:
 5862 0648 56616C76 		.ascii	"ValveStatus\000"
 5862      65537461 
 5862      74757300 
 5863              	.LASF2:
 5864 0654 73686F72 		.ascii	"short int\000"
 5864      7420696E 
 5864      7400
 5865              	.LASF71:
 5866 065e 6C656E74 		.ascii	"lentocomma\000"
 5866      6F636F6D 
 5866      6D6100
 5867              	.LASF4:
 5868 0669 6C6F6E67 		.ascii	"long int\000"
 5868      20696E74 
 5868      00
 5869              	.LASF36:
ARM GAS  C:\Users\SDEVAS~1\AppData\Local\Temp\ccOTp3Ub.s 			page 116


 5870 0672 566F6C50 		.ascii	"VolPerStart\000"
 5870      65725374 
 5870      61727400 
 5871              	.LASF42:
 5872 067e 44696C75 		.ascii	"DilutionFactorA\000"
 5872      74696F6E 
 5872      46616374 
 5872      6F724100 
 5873              	.LASF43:
 5874 068e 44696C75 		.ascii	"DilutionFactorB\000"
 5874      74696F6E 
 5874      46616374 
 5874      6F724200 
 5875              	.LASF28:
 5876 069e 546F7461 		.ascii	"TotalVolume\000"
 5876      6C566F6C 
 5876      756D6500 
 5877              	.LASF44:
 5878 06aa 56656E74 		.ascii	"VenturiSuctionA\000"
 5878      75726953 
 5878      75637469 
 5878      6F6E4100 
 5879              	.LASF45:
 5880 06ba 56656E74 		.ascii	"VenturiSuctionB\000"
 5880      75726953 
 5880      75637469 
 5880      6F6E4200 
 5881              	.LASF133:
 5882 06ca 6D617856 		.ascii	"maxVolume\000"
 5882      6F6C756D 
 5882      6500
 5883              	.LASF111:
 5884 06d4 67657476 		.ascii	"getvar_lastStartFlow\000"
 5884      61725F6C 
 5884      61737453 
 5884      74617274 
 5884      466C6F77 
 5885              	.LASF21:
 5886 06e9 686F7572 		.ascii	"hours\000"
 5886      7300
 5887              	.LASF25:
 5888 06ef 496E6E65 		.ascii	"InnerPressure\000"
 5888      72507265 
 5888      73737572 
 5888      6500
 5889              	.LASF32:
 5890 06fd 4C617374 		.ascii	"LastStartFlow\000"
 5890      53746172 
 5890      74466C6F 
 5890      7700
 5891              	.LASF89:
 5892 070b 73657476 		.ascii	"setvar_startTime\000"
 5892      61725F73 
 5892      74617274 
 5892      54696D65 
 5892      00
 5893              	.LASF131:
ARM GAS  C:\Users\SDEVAS~1\AppData\Local\Temp\ccOTp3Ub.s 			page 117


 5894 071c 65787054 		.ascii	"expTime\000"
 5894      696D6500 
 5895              	.LASF121:
 5896 0724 66736D49 		.ascii	"fsmIfaceWaterControl_getCurrentVolume\000"
 5896      66616365 
 5896      57617465 
 5896      72436F6E 
 5896      74726F6C 
 5897              	.LASF16:
 5898 074a 73697A65 		.ascii	"sizetype\000"
 5898      74797065 
 5898      00
 5899              	.LASF5:
 5900 0753 6C6F6E67 		.ascii	"long unsigned int\000"
 5900      20756E73 
 5900      69676E65 
 5900      6420696E 
 5900      7400
 5901              	.LASF112:
 5902 0765 67657476 		.ascii	"getvar_startTime\000"
 5902      61725F73 
 5902      74617274 
 5902      54696D65 
 5902      00
 5903              	.LASF137:
 5904 0776 2E5C7372 		.ascii	".\\src\\waterControl.c\000"
 5904      635C7761 
 5904      74657243 
 5904      6F6E7472 
 5904      6F6C2E63 
 5905              	.LASF10:
 5906 078b 696E7433 		.ascii	"int32_t\000"
 5906      325F7400 
 5907              	.LASF119:
 5908 0793 6F706572 		.ascii	"operationMins\000"
 5908      6174696F 
 5908      6E4D696E 
 5908      7300
 5909              	.LASF103:
 5910 07a1 67657476 		.ascii	"getvar_cropType\000"
 5910      61725F63 
 5910      726F7054 
 5910      79706500 
 5911              	.LASF1:
 5912 07b1 756E7369 		.ascii	"unsigned char\000"
 5912      676E6564 
 5912      20636861 
 5912      7200
 5913              	.LASF50:
 5914 07bf 73657476 		.ascii	"setvar_fertigationTable1\000"
 5914      61725F66 
 5914      65727469 
 5914      67617469 
 5914      6F6E5461 
 5915              	.LASF23:
 5916 07d8 6F6D6F64 		.ascii	"omode\000"
 5916      6500
ARM GAS  C:\Users\SDEVAS~1\AppData\Local\Temp\ccOTp3Ub.s 			page 118


 5917              	.LASF114:
 5918 07de 67657476 		.ascii	"getvar_numStarts\000"
 5918      61725F6E 
 5918      756D5374 
 5918      61727473 
 5918      00
 5919              	.LASF96:
 5920 07ef 67657476 		.ascii	"getvar_notAfter\000"
 5920      61725F6E 
 5920      6F744166 
 5920      74657200 
 5921              	.LASF47:
 5922 07ff 4C706572 		.ascii	"LperSqMeterPerDay\000"
 5922      53714D65 
 5922      74657250 
 5922      65724461 
 5922      7900
 5923              	.LASF49:
 5924 0811 73657476 		.ascii	"setvar_fertigationTable0\000"
 5924      61725F66 
 5924      65727469 
 5924      67617469 
 5924      6F6E5461 
 5925              	.LASF34:
 5926 082a 53746F70 		.ascii	"StopTime\000"
 5926      54696D65 
 5926      00
 5927              	.LASF51:
 5928 0833 73657476 		.ascii	"setvar_fertigationTable2\000"
 5928      61725F66 
 5928      65727469 
 5928      67617469 
 5928      6F6E5461 
 5929              	.LASF52:
 5930 084c 73657476 		.ascii	"setvar_fertigationTable3\000"
 5930      61725F66 
 5930      65727469 
 5930      67617469 
 5930      6F6E5461 
 5931              	.LASF53:
 5932 0865 73657476 		.ascii	"setvar_fertigationTable4\000"
 5932      61725F66 
 5932      65727469 
 5932      67617469 
 5932      6F6E5461 
 5933              	.LASF54:
 5934 087e 73657476 		.ascii	"setvar_fertigationTable5\000"
 5934      61725F66 
 5934      65727469 
 5934      67617469 
 5934      6F6E5461 
 5935              	.LASF55:
 5936 0897 73657476 		.ascii	"setvar_fertigationTable6\000"
 5936      61725F66 
 5936      65727469 
 5936      67617469 
 5936      6F6E5461 
ARM GAS  C:\Users\SDEVAS~1\AppData\Local\Temp\ccOTp3Ub.s 			page 119


 5937              	.LASF56:
 5938 08b0 73657476 		.ascii	"setvar_fertigationTable7\000"
 5938      61725F66 
 5938      65727469 
 5938      67617469 
 5938      6F6E5461 
 5939              	.LASF57:
 5940 08c9 73657476 		.ascii	"setvar_fertigationTable8\000"
 5940      61725F66 
 5940      65727469 
 5940      67617469 
 5940      6F6E5461 
 5941              	.LASF58:
 5942 08e2 73657476 		.ascii	"setvar_fertigationTable9\000"
 5942      61725F66 
 5942      65727469 
 5942      67617469 
 5942      6F6E5461 
 5943              	.LASF41:
 5944 08fb 4E6F7441 		.ascii	"NotAfter\000"
 5944      66746572 
 5944      00
 5945              	.LASF86:
 5946 0904 73657476 		.ascii	"setvar_lastStartNumber\000"
 5946      61725F6C 
 5946      61737453 
 5946      74617274 
 5946      4E756D62 
 5947              	.LASF0:
 5948 091b 7369676E 		.ascii	"signed char\000"
 5948      65642063 
 5948      68617200 
 5949              	.LASF3:
 5950 0927 73686F72 		.ascii	"short unsigned int\000"
 5950      7420756E 
 5950      7369676E 
 5950      65642069 
 5950      6E7400
 5951              	.LASF81:
 5952 093a 73657476 		.ascii	"setvar_innerPressure\000"
 5952      61725F69 
 5952      6E6E6572 
 5952      50726573 
 5952      73757265 
 5953              	.LASF108:
 5954 094f 67657476 		.ascii	"getvar_valveStatus\000"
 5954      61725F76 
 5954      616C7665 
 5954      53746174 
 5954      757300
 5955              	.LASF123:
 5956 0962 66736D49 		.ascii	"fsmIfaceWaterControl_updateOpVals\000"
 5956      66616365 
 5956      57617465 
 5956      72436F6E 
 5956      74726F6C 
 5957              	.LASF107:
ARM GAS  C:\Users\SDEVAS~1\AppData\Local\Temp\ccOTp3Ub.s 			page 120


 5958 0984 67657476 		.ascii	"getvar_totalVolume\000"
 5958      61725F74 
 5958      6F74616C 
 5958      566F6C75 
 5958      6D6500
 5959              	.LASF11:
 5960 0997 75696E74 		.ascii	"uint8\000"
 5960      3800
 5961              	.LASF14:
 5962 099d 646F7562 		.ascii	"double\000"
 5962      6C6500
 5963              	.LASF17:
 5964 09a4 73635F69 		.ascii	"sc_integer\000"
 5964      6E746567 
 5964      657200
 5965              	.LASF135:
 5966 09af 6F705661 		.ascii	"opVals\000"
 5966      6C7300
 5967              	.LASF115:
 5968 09b6 67657476 		.ascii	"getvar_volPerStart\000"
 5968      61725F76 
 5968      6F6C5065 
 5968      72537461 
 5968      727400
 5969              	.LASF122:
 5970 09c9 66736D49 		.ascii	"fsmIfaceWaterControl_getMaxVolume\000"
 5970      66616365 
 5970      57617465 
 5970      72436F6E 
 5970      74726F6C 
 5971              	.LASF109:
 5972 09eb 67657476 		.ascii	"getvar_lastStartNumber\000"
 5972      61725F6C 
 5972      61737453 
 5972      74617274 
 5972      4E756D62 
 5973              		.ident	"GCC: (GNU Tools for ARM Embedded Processors) 4.8.4 20140526 (release) [ARM/embedded-4_8-br
