ARM GAS  C:\Users\SDEVAS~1\AppData\Local\Temp\ccOTp3Ub.s 			page 1


   1              		.cpu cortex-m0
   2              		.fpu softvfp
   3              		.eabi_attribute 20, 1
   4              		.eabi_attribute 21, 1
   5              		.eabi_attribute 23, 3
   6              		.eabi_attribute 24, 1
   7              		.eabi_attribute 25, 1
   8              		.eabi_attribute 26, 1
   9              		.eabi_attribute 30, 6
  10              		.eabi_attribute 34, 0
  11              		.eabi_attribute 18, 4
  12              		.code	16
  13              		.file	"waterControl.c"
  14              		.text
  15              	.Ltext0:
  16              		.cfi_sections	.debug_frame
  17              		.comm	currentTime,5,4
  18              		.comm	expTime,5,4
  19              		.comm	currentVolume,4,4
  20              		.comm	maxVolume,4,4
  21              		.comm	water_data,252,4
  22              		.section	.text.setvar_fertigationTable0,"ax",%progbits
  23              		.align	2
  24              		.global	setvar_fertigationTable0
  25              		.code	16
  26              		.thumb_func
  27              		.type	setvar_fertigationTable0, %function
  28              	setvar_fertigationTable0:
  29              	.LFB33:
  30              		.file 1 ".\\src\\waterControl.c"
   1:.\src/waterControl.c **** #include "waterControl.h"
   2:.\src/waterControl.c **** 
   3:.\src/waterControl.c **** #define OFF 0
   4:.\src/waterControl.c **** #define ON 1
   5:.\src/waterControl.c **** 
   6:.\src/waterControl.c **** clock currentTime;
   7:.\src/waterControl.c **** clock expTime;
   8:.\src/waterControl.c **** 
   9:.\src/waterControl.c **** 
  10:.\src/waterControl.c **** int currentVolume;
  11:.\src/waterControl.c **** int maxVolume;
  12:.\src/waterControl.c **** 
  13:.\src/waterControl.c **** 
  14:.\src/waterControl.c **** //struct source: https://docs.google.com/document/d/1WrIqsW1SgbLmcNN1VXvH0uA1hI1NaXTKU7qD_cBLoLY/ed
  15:.\src/waterControl.c **** struct {
  16:.\src/waterControl.c **** 	int InnerPressure;
  17:.\src/waterControl.c **** 	int OuterPressure;
  18:.\src/waterControl.c **** 	int CurrentFlow;
  19:.\src/waterControl.c **** 	int TotalVolume;
  20:.\src/waterControl.c **** 	int ValveStatus;
  21:.\src/waterControl.c **** 	int LastStartNumber;
  22:.\src/waterControl.c **** 	int LastStartVolume;
  23:.\src/waterControl.c **** 	int LastStartFlow;
  24:.\src/waterControl.c **** 	int StartTime;
  25:.\src/waterControl.c **** 	int StopTime;
  26:.\src/waterControl.c **** 	int NumStarts;
  27:.\src/waterControl.c **** 	int VolPerStart;
ARM GAS  C:\Users\SDEVAS~1\AppData\Local\Temp\ccOTp3Ub.s 			page 2


  28:.\src/waterControl.c **** 	int MaxVol;
  29:.\src/waterControl.c **** 	int MinVol;
  30:.\src/waterControl.c **** 
  31:.\src/waterControl.c **** 	int fertigationTable[10][4];
  32:.\src/waterControl.c **** 
  33:.\src/waterControl.c **** 	int NotBefore;
  34:.\src/waterControl.c **** 	int NotAfter;
  35:.\src/waterControl.c **** 	int DilutionFactorA;
  36:.\src/waterControl.c **** 	int DilutionFactorB;
  37:.\src/waterControl.c **** 	int VenturiSuctionA;
  38:.\src/waterControl.c **** 	int VenturiSuctionB;
  39:.\src/waterControl.c **** 	int SquareMeters;
  40:.\src/waterControl.c **** 	int LperSqMeterPerDay;
  41:.\src/waterControl.c **** 	int CropType;
  42:.\src/waterControl.c **** } water_data;
  43:.\src/waterControl.c **** 
  44:.\src/waterControl.c **** 
  45:.\src/waterControl.c **** void setvar_fertigationTable0(int * val) {
  31              		.loc 1 45 0
  32              		.cfi_startproc
  33 0000 80B5     		push	{r7, lr}
  34              		.cfi_def_cfa_offset 8
  35              		.cfi_offset 7, -8
  36              		.cfi_offset 14, -4
  37 0002 82B0     		sub	sp, sp, #8
  38              		.cfi_def_cfa_offset 16
  39 0004 00AF     		add	r7, sp, #0
  40              		.cfi_def_cfa_register 7
  41 0006 7860     		str	r0, [r7, #4]
  46:.\src/waterControl.c **** 	memcpy(water_data.fertigationTable[0], val, 4 * sizeof(int));
  42              		.loc 1 46 0
  43 0008 044A     		ldr	r2, .L2
  44 000a 7B68     		ldr	r3, [r7, #4]
  45 000c 101C     		mov	r0, r2
  46 000e 191C     		mov	r1, r3
  47 0010 1022     		mov	r2, #16
  48 0012 FFF7FEFF 		bl	memcpy
  47:.\src/waterControl.c **** }
  49              		.loc 1 47 0
  50 0016 BD46     		mov	sp, r7
  51 0018 02B0     		add	sp, sp, #8
  52              		@ sp needed
  53 001a 80BD     		pop	{r7, pc}
  54              	.L3:
  55              		.align	2
  56              	.L2:
  57 001c 38000000 		.word	water_data+56
  58              		.cfi_endproc
  59              	.LFE33:
  60              		.size	setvar_fertigationTable0, .-setvar_fertigationTable0
  61              		.section	.text.setvar_fertigationTable1,"ax",%progbits
  62              		.align	2
  63              		.global	setvar_fertigationTable1
  64              		.code	16
  65              		.thumb_func
  66              		.type	setvar_fertigationTable1, %function
  67              	setvar_fertigationTable1:
ARM GAS  C:\Users\SDEVAS~1\AppData\Local\Temp\ccOTp3Ub.s 			page 3


  68              	.LFB34:
  48:.\src/waterControl.c **** void setvar_fertigationTable1(int * val) {
  69              		.loc 1 48 0
  70              		.cfi_startproc
  71 0000 80B5     		push	{r7, lr}
  72              		.cfi_def_cfa_offset 8
  73              		.cfi_offset 7, -8
  74              		.cfi_offset 14, -4
  75 0002 82B0     		sub	sp, sp, #8
  76              		.cfi_def_cfa_offset 16
  77 0004 00AF     		add	r7, sp, #0
  78              		.cfi_def_cfa_register 7
  79 0006 7860     		str	r0, [r7, #4]
  49:.\src/waterControl.c **** 	memcpy(water_data.fertigationTable[1], val, 4 * sizeof(int));
  80              		.loc 1 49 0
  81 0008 044A     		ldr	r2, .L5
  82 000a 7B68     		ldr	r3, [r7, #4]
  83 000c 101C     		mov	r0, r2
  84 000e 191C     		mov	r1, r3
  85 0010 1022     		mov	r2, #16
  86 0012 FFF7FEFF 		bl	memcpy
  50:.\src/waterControl.c **** }
  87              		.loc 1 50 0
  88 0016 BD46     		mov	sp, r7
  89 0018 02B0     		add	sp, sp, #8
  90              		@ sp needed
  91 001a 80BD     		pop	{r7, pc}
  92              	.L6:
  93              		.align	2
  94              	.L5:
  95 001c 48000000 		.word	water_data+72
  96              		.cfi_endproc
  97              	.LFE34:
  98              		.size	setvar_fertigationTable1, .-setvar_fertigationTable1
  99              		.section	.text.setvar_fertigationTable2,"ax",%progbits
 100              		.align	2
 101              		.global	setvar_fertigationTable2
 102              		.code	16
 103              		.thumb_func
 104              		.type	setvar_fertigationTable2, %function
 105              	setvar_fertigationTable2:
 106              	.LFB35:
  51:.\src/waterControl.c **** void setvar_fertigationTable2(int * val) {
 107              		.loc 1 51 0
 108              		.cfi_startproc
 109 0000 80B5     		push	{r7, lr}
 110              		.cfi_def_cfa_offset 8
 111              		.cfi_offset 7, -8
 112              		.cfi_offset 14, -4
 113 0002 82B0     		sub	sp, sp, #8
 114              		.cfi_def_cfa_offset 16
 115 0004 00AF     		add	r7, sp, #0
 116              		.cfi_def_cfa_register 7
 117 0006 7860     		str	r0, [r7, #4]
  52:.\src/waterControl.c **** 	memcpy(water_data.fertigationTable[2], val, 4 * sizeof(int));
 118              		.loc 1 52 0
 119 0008 044A     		ldr	r2, .L8
ARM GAS  C:\Users\SDEVAS~1\AppData\Local\Temp\ccOTp3Ub.s 			page 4


 120 000a 7B68     		ldr	r3, [r7, #4]
 121 000c 101C     		mov	r0, r2
 122 000e 191C     		mov	r1, r3
 123 0010 1022     		mov	r2, #16
 124 0012 FFF7FEFF 		bl	memcpy
  53:.\src/waterControl.c **** }
 125              		.loc 1 53 0
 126 0016 BD46     		mov	sp, r7
 127 0018 02B0     		add	sp, sp, #8
 128              		@ sp needed
 129 001a 80BD     		pop	{r7, pc}
 130              	.L9:
 131              		.align	2
 132              	.L8:
 133 001c 58000000 		.word	water_data+88
 134              		.cfi_endproc
 135              	.LFE35:
 136              		.size	setvar_fertigationTable2, .-setvar_fertigationTable2
 137              		.section	.text.setvar_fertigationTable3,"ax",%progbits
 138              		.align	2
 139              		.global	setvar_fertigationTable3
 140              		.code	16
 141              		.thumb_func
 142              		.type	setvar_fertigationTable3, %function
 143              	setvar_fertigationTable3:
 144              	.LFB36:
  54:.\src/waterControl.c **** void setvar_fertigationTable3(int * val) {
 145              		.loc 1 54 0
 146              		.cfi_startproc
 147 0000 80B5     		push	{r7, lr}
 148              		.cfi_def_cfa_offset 8
 149              		.cfi_offset 7, -8
 150              		.cfi_offset 14, -4
 151 0002 82B0     		sub	sp, sp, #8
 152              		.cfi_def_cfa_offset 16
 153 0004 00AF     		add	r7, sp, #0
 154              		.cfi_def_cfa_register 7
 155 0006 7860     		str	r0, [r7, #4]
  55:.\src/waterControl.c **** 	memcpy(water_data.fertigationTable[3], val, 4 * sizeof(int));
 156              		.loc 1 55 0
 157 0008 044A     		ldr	r2, .L11
 158 000a 7B68     		ldr	r3, [r7, #4]
 159 000c 101C     		mov	r0, r2
 160 000e 191C     		mov	r1, r3
 161 0010 1022     		mov	r2, #16
 162 0012 FFF7FEFF 		bl	memcpy
  56:.\src/waterControl.c **** }
 163              		.loc 1 56 0
 164 0016 BD46     		mov	sp, r7
 165 0018 02B0     		add	sp, sp, #8
 166              		@ sp needed
 167 001a 80BD     		pop	{r7, pc}
 168              	.L12:
 169              		.align	2
 170              	.L11:
 171 001c 68000000 		.word	water_data+104
 172              		.cfi_endproc
ARM GAS  C:\Users\SDEVAS~1\AppData\Local\Temp\ccOTp3Ub.s 			page 5


 173              	.LFE36:
 174              		.size	setvar_fertigationTable3, .-setvar_fertigationTable3
 175              		.section	.text.setvar_fertigationTable4,"ax",%progbits
 176              		.align	2
 177              		.global	setvar_fertigationTable4
 178              		.code	16
 179              		.thumb_func
 180              		.type	setvar_fertigationTable4, %function
 181              	setvar_fertigationTable4:
 182              	.LFB37:
  57:.\src/waterControl.c **** void setvar_fertigationTable4(int * val) {
 183              		.loc 1 57 0
 184              		.cfi_startproc
 185 0000 80B5     		push	{r7, lr}
 186              		.cfi_def_cfa_offset 8
 187              		.cfi_offset 7, -8
 188              		.cfi_offset 14, -4
 189 0002 82B0     		sub	sp, sp, #8
 190              		.cfi_def_cfa_offset 16
 191 0004 00AF     		add	r7, sp, #0
 192              		.cfi_def_cfa_register 7
 193 0006 7860     		str	r0, [r7, #4]
  58:.\src/waterControl.c **** 	memcpy(water_data.fertigationTable[4], val, 4 * sizeof(int));
 194              		.loc 1 58 0
 195 0008 044A     		ldr	r2, .L14
 196 000a 7B68     		ldr	r3, [r7, #4]
 197 000c 101C     		mov	r0, r2
 198 000e 191C     		mov	r1, r3
 199 0010 1022     		mov	r2, #16
 200 0012 FFF7FEFF 		bl	memcpy
  59:.\src/waterControl.c **** }
 201              		.loc 1 59 0
 202 0016 BD46     		mov	sp, r7
 203 0018 02B0     		add	sp, sp, #8
 204              		@ sp needed
 205 001a 80BD     		pop	{r7, pc}
 206              	.L15:
 207              		.align	2
 208              	.L14:
 209 001c 78000000 		.word	water_data+120
 210              		.cfi_endproc
 211              	.LFE37:
 212              		.size	setvar_fertigationTable4, .-setvar_fertigationTable4
 213              		.section	.text.setvar_fertigationTable5,"ax",%progbits
 214              		.align	2
 215              		.global	setvar_fertigationTable5
 216              		.code	16
 217              		.thumb_func
 218              		.type	setvar_fertigationTable5, %function
 219              	setvar_fertigationTable5:
 220              	.LFB38:
  60:.\src/waterControl.c **** void setvar_fertigationTable5(int * val) {
 221              		.loc 1 60 0
 222              		.cfi_startproc
 223 0000 80B5     		push	{r7, lr}
 224              		.cfi_def_cfa_offset 8
 225              		.cfi_offset 7, -8
ARM GAS  C:\Users\SDEVAS~1\AppData\Local\Temp\ccOTp3Ub.s 			page 6


 226              		.cfi_offset 14, -4
 227 0002 82B0     		sub	sp, sp, #8
 228              		.cfi_def_cfa_offset 16
 229 0004 00AF     		add	r7, sp, #0
 230              		.cfi_def_cfa_register 7
 231 0006 7860     		str	r0, [r7, #4]
  61:.\src/waterControl.c **** 	memcpy(water_data.fertigationTable[5], val, 4 * sizeof(int));
 232              		.loc 1 61 0
 233 0008 044A     		ldr	r2, .L17
 234 000a 7B68     		ldr	r3, [r7, #4]
 235 000c 101C     		mov	r0, r2
 236 000e 191C     		mov	r1, r3
 237 0010 1022     		mov	r2, #16
 238 0012 FFF7FEFF 		bl	memcpy
  62:.\src/waterControl.c **** }
 239              		.loc 1 62 0
 240 0016 BD46     		mov	sp, r7
 241 0018 02B0     		add	sp, sp, #8
 242              		@ sp needed
 243 001a 80BD     		pop	{r7, pc}
 244              	.L18:
 245              		.align	2
 246              	.L17:
 247 001c 88000000 		.word	water_data+136
 248              		.cfi_endproc
 249              	.LFE38:
 250              		.size	setvar_fertigationTable5, .-setvar_fertigationTable5
 251              		.section	.text.setvar_fertigationTable6,"ax",%progbits
 252              		.align	2
 253              		.global	setvar_fertigationTable6
 254              		.code	16
 255              		.thumb_func
 256              		.type	setvar_fertigationTable6, %function
 257              	setvar_fertigationTable6:
 258              	.LFB39:
  63:.\src/waterControl.c **** void setvar_fertigationTable6(int * val) {
 259              		.loc 1 63 0
 260              		.cfi_startproc
 261 0000 80B5     		push	{r7, lr}
 262              		.cfi_def_cfa_offset 8
 263              		.cfi_offset 7, -8
 264              		.cfi_offset 14, -4
 265 0002 82B0     		sub	sp, sp, #8
 266              		.cfi_def_cfa_offset 16
 267 0004 00AF     		add	r7, sp, #0
 268              		.cfi_def_cfa_register 7
 269 0006 7860     		str	r0, [r7, #4]
  64:.\src/waterControl.c **** 	memcpy(water_data.fertigationTable[6], val, 4 * sizeof(int));
 270              		.loc 1 64 0
 271 0008 044A     		ldr	r2, .L20
 272 000a 7B68     		ldr	r3, [r7, #4]
 273 000c 101C     		mov	r0, r2
 274 000e 191C     		mov	r1, r3
 275 0010 1022     		mov	r2, #16
 276 0012 FFF7FEFF 		bl	memcpy
  65:.\src/waterControl.c **** }
 277              		.loc 1 65 0
ARM GAS  C:\Users\SDEVAS~1\AppData\Local\Temp\ccOTp3Ub.s 			page 7


 278 0016 BD46     		mov	sp, r7
 279 0018 02B0     		add	sp, sp, #8
 280              		@ sp needed
 281 001a 80BD     		pop	{r7, pc}
 282              	.L21:
 283              		.align	2
 284              	.L20:
 285 001c 98000000 		.word	water_data+152
 286              		.cfi_endproc
 287              	.LFE39:
 288              		.size	setvar_fertigationTable6, .-setvar_fertigationTable6
 289              		.section	.text.setvar_fertigationTable7,"ax",%progbits
 290              		.align	2
 291              		.global	setvar_fertigationTable7
 292              		.code	16
 293              		.thumb_func
 294              		.type	setvar_fertigationTable7, %function
 295              	setvar_fertigationTable7:
 296              	.LFB40:
  66:.\src/waterControl.c **** void setvar_fertigationTable7(int * val) {
 297              		.loc 1 66 0
 298              		.cfi_startproc
 299 0000 80B5     		push	{r7, lr}
 300              		.cfi_def_cfa_offset 8
 301              		.cfi_offset 7, -8
 302              		.cfi_offset 14, -4
 303 0002 82B0     		sub	sp, sp, #8
 304              		.cfi_def_cfa_offset 16
 305 0004 00AF     		add	r7, sp, #0
 306              		.cfi_def_cfa_register 7
 307 0006 7860     		str	r0, [r7, #4]
  67:.\src/waterControl.c **** 	memcpy(water_data.fertigationTable[7], val, 4 * sizeof(int));
 308              		.loc 1 67 0
 309 0008 044A     		ldr	r2, .L23
 310 000a 7B68     		ldr	r3, [r7, #4]
 311 000c 101C     		mov	r0, r2
 312 000e 191C     		mov	r1, r3
 313 0010 1022     		mov	r2, #16
 314 0012 FFF7FEFF 		bl	memcpy
  68:.\src/waterControl.c **** }
 315              		.loc 1 68 0
 316 0016 BD46     		mov	sp, r7
 317 0018 02B0     		add	sp, sp, #8
 318              		@ sp needed
 319 001a 80BD     		pop	{r7, pc}
 320              	.L24:
 321              		.align	2
 322              	.L23:
 323 001c A8000000 		.word	water_data+168
 324              		.cfi_endproc
 325              	.LFE40:
 326              		.size	setvar_fertigationTable7, .-setvar_fertigationTable7
 327              		.section	.text.setvar_fertigationTable8,"ax",%progbits
 328              		.align	2
 329              		.global	setvar_fertigationTable8
 330              		.code	16
 331              		.thumb_func
ARM GAS  C:\Users\SDEVAS~1\AppData\Local\Temp\ccOTp3Ub.s 			page 8


 332              		.type	setvar_fertigationTable8, %function
 333              	setvar_fertigationTable8:
 334              	.LFB41:
  69:.\src/waterControl.c **** void setvar_fertigationTable8(int * val) {
 335              		.loc 1 69 0
 336              		.cfi_startproc
 337 0000 80B5     		push	{r7, lr}
 338              		.cfi_def_cfa_offset 8
 339              		.cfi_offset 7, -8
 340              		.cfi_offset 14, -4
 341 0002 82B0     		sub	sp, sp, #8
 342              		.cfi_def_cfa_offset 16
 343 0004 00AF     		add	r7, sp, #0
 344              		.cfi_def_cfa_register 7
 345 0006 7860     		str	r0, [r7, #4]
  70:.\src/waterControl.c **** 	memcpy(water_data.fertigationTable[8], val, 4 * sizeof(int));
 346              		.loc 1 70 0
 347 0008 044A     		ldr	r2, .L26
 348 000a 7B68     		ldr	r3, [r7, #4]
 349 000c 101C     		mov	r0, r2
 350 000e 191C     		mov	r1, r3
 351 0010 1022     		mov	r2, #16
 352 0012 FFF7FEFF 		bl	memcpy
  71:.\src/waterControl.c **** }
 353              		.loc 1 71 0
 354 0016 BD46     		mov	sp, r7
 355 0018 02B0     		add	sp, sp, #8
 356              		@ sp needed
 357 001a 80BD     		pop	{r7, pc}
 358              	.L27:
 359              		.align	2
 360              	.L26:
 361 001c B8000000 		.word	water_data+184
 362              		.cfi_endproc
 363              	.LFE41:
 364              		.size	setvar_fertigationTable8, .-setvar_fertigationTable8
 365              		.section	.text.setvar_fertigationTable9,"ax",%progbits
 366              		.align	2
 367              		.global	setvar_fertigationTable9
 368              		.code	16
 369              		.thumb_func
 370              		.type	setvar_fertigationTable9, %function
 371              	setvar_fertigationTable9:
 372              	.LFB42:
  72:.\src/waterControl.c **** void setvar_fertigationTable9(int * val) {
 373              		.loc 1 72 0
 374              		.cfi_startproc
 375 0000 80B5     		push	{r7, lr}
 376              		.cfi_def_cfa_offset 8
 377              		.cfi_offset 7, -8
 378              		.cfi_offset 14, -4
 379 0002 82B0     		sub	sp, sp, #8
 380              		.cfi_def_cfa_offset 16
 381 0004 00AF     		add	r7, sp, #0
 382              		.cfi_def_cfa_register 7
 383 0006 7860     		str	r0, [r7, #4]
  73:.\src/waterControl.c **** 	memcpy(water_data.fertigationTable[9], val, 4 * sizeof(int));
ARM GAS  C:\Users\SDEVAS~1\AppData\Local\Temp\ccOTp3Ub.s 			page 9


 384              		.loc 1 73 0
 385 0008 044A     		ldr	r2, .L29
 386 000a 7B68     		ldr	r3, [r7, #4]
 387 000c 101C     		mov	r0, r2
 388 000e 191C     		mov	r1, r3
 389 0010 1022     		mov	r2, #16
 390 0012 FFF7FEFF 		bl	memcpy
  74:.\src/waterControl.c **** }
 391              		.loc 1 74 0
 392 0016 BD46     		mov	sp, r7
 393 0018 02B0     		add	sp, sp, #8
 394              		@ sp needed
 395 001a 80BD     		pop	{r7, pc}
 396              	.L30:
 397              		.align	2
 398              	.L29:
 399 001c C8000000 		.word	water_data+200
 400              		.cfi_endproc
 401              	.LFE42:
 402              		.size	setvar_fertigationTable9, .-setvar_fertigationTable9
 403              		.section	.text.getvar_fertigationTable0,"ax",%progbits
 404              		.align	2
 405              		.global	getvar_fertigationTable0
 406              		.code	16
 407              		.thumb_func
 408              		.type	getvar_fertigationTable0, %function
 409              	getvar_fertigationTable0:
 410              	.LFB43:
  75:.\src/waterControl.c **** 
  76:.\src/waterControl.c **** int * getvar_fertigationTable0(void) { return water_data.fertigationTable[0]; }
 411              		.loc 1 76 0
 412              		.cfi_startproc
 413 0000 80B5     		push	{r7, lr}
 414              		.cfi_def_cfa_offset 8
 415              		.cfi_offset 7, -8
 416              		.cfi_offset 14, -4
 417 0002 00AF     		add	r7, sp, #0
 418              		.cfi_def_cfa_register 7
 419              		.loc 1 76 0
 420 0004 014B     		ldr	r3, .L33
 421 0006 181C     		mov	r0, r3
 422 0008 BD46     		mov	sp, r7
 423              		@ sp needed
 424 000a 80BD     		pop	{r7, pc}
 425              	.L34:
 426              		.align	2
 427              	.L33:
 428 000c 38000000 		.word	water_data+56
 429              		.cfi_endproc
 430              	.LFE43:
 431              		.size	getvar_fertigationTable0, .-getvar_fertigationTable0
 432              		.section	.text.getvar_fertigationTable1,"ax",%progbits
 433              		.align	2
 434              		.global	getvar_fertigationTable1
 435              		.code	16
 436              		.thumb_func
 437              		.type	getvar_fertigationTable1, %function
ARM GAS  C:\Users\SDEVAS~1\AppData\Local\Temp\ccOTp3Ub.s 			page 10


 438              	getvar_fertigationTable1:
 439              	.LFB44:
  77:.\src/waterControl.c **** int * getvar_fertigationTable1(void) { return water_data.fertigationTable[1]; }
 440              		.loc 1 77 0
 441              		.cfi_startproc
 442 0000 80B5     		push	{r7, lr}
 443              		.cfi_def_cfa_offset 8
 444              		.cfi_offset 7, -8
 445              		.cfi_offset 14, -4
 446 0002 00AF     		add	r7, sp, #0
 447              		.cfi_def_cfa_register 7
 448              		.loc 1 77 0
 449 0004 014B     		ldr	r3, .L37
 450 0006 181C     		mov	r0, r3
 451 0008 BD46     		mov	sp, r7
 452              		@ sp needed
 453 000a 80BD     		pop	{r7, pc}
 454              	.L38:
 455              		.align	2
 456              	.L37:
 457 000c 48000000 		.word	water_data+72
 458              		.cfi_endproc
 459              	.LFE44:
 460              		.size	getvar_fertigationTable1, .-getvar_fertigationTable1
 461              		.section	.text.getvar_fertigationTable2,"ax",%progbits
 462              		.align	2
 463              		.global	getvar_fertigationTable2
 464              		.code	16
 465              		.thumb_func
 466              		.type	getvar_fertigationTable2, %function
 467              	getvar_fertigationTable2:
 468              	.LFB45:
  78:.\src/waterControl.c **** int * getvar_fertigationTable2(void) { return water_data.fertigationTable[2]; }
 469              		.loc 1 78 0
 470              		.cfi_startproc
 471 0000 80B5     		push	{r7, lr}
 472              		.cfi_def_cfa_offset 8
 473              		.cfi_offset 7, -8
 474              		.cfi_offset 14, -4
 475 0002 00AF     		add	r7, sp, #0
 476              		.cfi_def_cfa_register 7
 477              		.loc 1 78 0
 478 0004 014B     		ldr	r3, .L41
 479 0006 181C     		mov	r0, r3
 480 0008 BD46     		mov	sp, r7
 481              		@ sp needed
 482 000a 80BD     		pop	{r7, pc}
 483              	.L42:
 484              		.align	2
 485              	.L41:
 486 000c 58000000 		.word	water_data+88
 487              		.cfi_endproc
 488              	.LFE45:
 489              		.size	getvar_fertigationTable2, .-getvar_fertigationTable2
 490              		.section	.text.getvar_fertigationTable3,"ax",%progbits
 491              		.align	2
 492              		.global	getvar_fertigationTable3
ARM GAS  C:\Users\SDEVAS~1\AppData\Local\Temp\ccOTp3Ub.s 			page 11


 493              		.code	16
 494              		.thumb_func
 495              		.type	getvar_fertigationTable3, %function
 496              	getvar_fertigationTable3:
 497              	.LFB46:
  79:.\src/waterControl.c **** int * getvar_fertigationTable3(void) { return water_data.fertigationTable[3]; }
 498              		.loc 1 79 0
 499              		.cfi_startproc
 500 0000 80B5     		push	{r7, lr}
 501              		.cfi_def_cfa_offset 8
 502              		.cfi_offset 7, -8
 503              		.cfi_offset 14, -4
 504 0002 00AF     		add	r7, sp, #0
 505              		.cfi_def_cfa_register 7
 506              		.loc 1 79 0
 507 0004 014B     		ldr	r3, .L45
 508 0006 181C     		mov	r0, r3
 509 0008 BD46     		mov	sp, r7
 510              		@ sp needed
 511 000a 80BD     		pop	{r7, pc}
 512              	.L46:
 513              		.align	2
 514              	.L45:
 515 000c 68000000 		.word	water_data+104
 516              		.cfi_endproc
 517              	.LFE46:
 518              		.size	getvar_fertigationTable3, .-getvar_fertigationTable3
 519              		.section	.text.getvar_fertigationTable4,"ax",%progbits
 520              		.align	2
 521              		.global	getvar_fertigationTable4
 522              		.code	16
 523              		.thumb_func
 524              		.type	getvar_fertigationTable4, %function
 525              	getvar_fertigationTable4:
 526              	.LFB47:
  80:.\src/waterControl.c **** int * getvar_fertigationTable4(void) { return water_data.fertigationTable[4]; }
 527              		.loc 1 80 0
 528              		.cfi_startproc
 529 0000 80B5     		push	{r7, lr}
 530              		.cfi_def_cfa_offset 8
 531              		.cfi_offset 7, -8
 532              		.cfi_offset 14, -4
 533 0002 00AF     		add	r7, sp, #0
 534              		.cfi_def_cfa_register 7
 535              		.loc 1 80 0
 536 0004 014B     		ldr	r3, .L49
 537 0006 181C     		mov	r0, r3
 538 0008 BD46     		mov	sp, r7
 539              		@ sp needed
 540 000a 80BD     		pop	{r7, pc}
 541              	.L50:
 542              		.align	2
 543              	.L49:
 544 000c 78000000 		.word	water_data+120
 545              		.cfi_endproc
 546              	.LFE47:
 547              		.size	getvar_fertigationTable4, .-getvar_fertigationTable4
ARM GAS  C:\Users\SDEVAS~1\AppData\Local\Temp\ccOTp3Ub.s 			page 12


 548              		.section	.text.getvar_fertigationTable5,"ax",%progbits
 549              		.align	2
 550              		.global	getvar_fertigationTable5
 551              		.code	16
 552              		.thumb_func
 553              		.type	getvar_fertigationTable5, %function
 554              	getvar_fertigationTable5:
 555              	.LFB48:
  81:.\src/waterControl.c **** int * getvar_fertigationTable5(void) { return water_data.fertigationTable[5]; }
 556              		.loc 1 81 0
 557              		.cfi_startproc
 558 0000 80B5     		push	{r7, lr}
 559              		.cfi_def_cfa_offset 8
 560              		.cfi_offset 7, -8
 561              		.cfi_offset 14, -4
 562 0002 00AF     		add	r7, sp, #0
 563              		.cfi_def_cfa_register 7
 564              		.loc 1 81 0
 565 0004 014B     		ldr	r3, .L53
 566 0006 181C     		mov	r0, r3
 567 0008 BD46     		mov	sp, r7
 568              		@ sp needed
 569 000a 80BD     		pop	{r7, pc}
 570              	.L54:
 571              		.align	2
 572              	.L53:
 573 000c 88000000 		.word	water_data+136
 574              		.cfi_endproc
 575              	.LFE48:
 576              		.size	getvar_fertigationTable5, .-getvar_fertigationTable5
 577              		.section	.text.getvar_fertigationTable6,"ax",%progbits
 578              		.align	2
 579              		.global	getvar_fertigationTable6
 580              		.code	16
 581              		.thumb_func
 582              		.type	getvar_fertigationTable6, %function
 583              	getvar_fertigationTable6:
 584              	.LFB49:
  82:.\src/waterControl.c **** int * getvar_fertigationTable6(void) { return water_data.fertigationTable[6]; }
 585              		.loc 1 82 0
 586              		.cfi_startproc
 587 0000 80B5     		push	{r7, lr}
 588              		.cfi_def_cfa_offset 8
 589              		.cfi_offset 7, -8
 590              		.cfi_offset 14, -4
 591 0002 00AF     		add	r7, sp, #0
 592              		.cfi_def_cfa_register 7
 593              		.loc 1 82 0
 594 0004 014B     		ldr	r3, .L57
 595 0006 181C     		mov	r0, r3
 596 0008 BD46     		mov	sp, r7
 597              		@ sp needed
 598 000a 80BD     		pop	{r7, pc}
 599              	.L58:
 600              		.align	2
 601              	.L57:
 602 000c 98000000 		.word	water_data+152
ARM GAS  C:\Users\SDEVAS~1\AppData\Local\Temp\ccOTp3Ub.s 			page 13


 603              		.cfi_endproc
 604              	.LFE49:
 605              		.size	getvar_fertigationTable6, .-getvar_fertigationTable6
 606              		.section	.text.getvar_fertigationTable7,"ax",%progbits
 607              		.align	2
 608              		.global	getvar_fertigationTable7
 609              		.code	16
 610              		.thumb_func
 611              		.type	getvar_fertigationTable7, %function
 612              	getvar_fertigationTable7:
 613              	.LFB50:
  83:.\src/waterControl.c **** int * getvar_fertigationTable7(void) { return water_data.fertigationTable[7]; }
 614              		.loc 1 83 0
 615              		.cfi_startproc
 616 0000 80B5     		push	{r7, lr}
 617              		.cfi_def_cfa_offset 8
 618              		.cfi_offset 7, -8
 619              		.cfi_offset 14, -4
 620 0002 00AF     		add	r7, sp, #0
 621              		.cfi_def_cfa_register 7
 622              		.loc 1 83 0
 623 0004 014B     		ldr	r3, .L61
 624 0006 181C     		mov	r0, r3
 625 0008 BD46     		mov	sp, r7
 626              		@ sp needed
 627 000a 80BD     		pop	{r7, pc}
 628              	.L62:
 629              		.align	2
 630              	.L61:
 631 000c A8000000 		.word	water_data+168
 632              		.cfi_endproc
 633              	.LFE50:
 634              		.size	getvar_fertigationTable7, .-getvar_fertigationTable7
 635              		.section	.text.getvar_fertigationTable8,"ax",%progbits
 636              		.align	2
 637              		.global	getvar_fertigationTable8
 638              		.code	16
 639              		.thumb_func
 640              		.type	getvar_fertigationTable8, %function
 641              	getvar_fertigationTable8:
 642              	.LFB51:
  84:.\src/waterControl.c **** int * getvar_fertigationTable8(void) { return water_data.fertigationTable[8]; }
 643              		.loc 1 84 0
 644              		.cfi_startproc
 645 0000 80B5     		push	{r7, lr}
 646              		.cfi_def_cfa_offset 8
 647              		.cfi_offset 7, -8
 648              		.cfi_offset 14, -4
 649 0002 00AF     		add	r7, sp, #0
 650              		.cfi_def_cfa_register 7
 651              		.loc 1 84 0
 652 0004 014B     		ldr	r3, .L65
 653 0006 181C     		mov	r0, r3
 654 0008 BD46     		mov	sp, r7
 655              		@ sp needed
 656 000a 80BD     		pop	{r7, pc}
 657              	.L66:
ARM GAS  C:\Users\SDEVAS~1\AppData\Local\Temp\ccOTp3Ub.s 			page 14


 658              		.align	2
 659              	.L65:
 660 000c B8000000 		.word	water_data+184
 661              		.cfi_endproc
 662              	.LFE51:
 663              		.size	getvar_fertigationTable8, .-getvar_fertigationTable8
 664              		.section	.text.getvar_fertigationTable9,"ax",%progbits
 665              		.align	2
 666              		.global	getvar_fertigationTable9
 667              		.code	16
 668              		.thumb_func
 669              		.type	getvar_fertigationTable9, %function
 670              	getvar_fertigationTable9:
 671              	.LFB52:
  85:.\src/waterControl.c **** int * getvar_fertigationTable9(void) { return water_data.fertigationTable[9]; }
 672              		.loc 1 85 0
 673              		.cfi_startproc
 674 0000 80B5     		push	{r7, lr}
 675              		.cfi_def_cfa_offset 8
 676              		.cfi_offset 7, -8
 677              		.cfi_offset 14, -4
 678 0002 00AF     		add	r7, sp, #0
 679              		.cfi_def_cfa_register 7
 680              		.loc 1 85 0
 681 0004 014B     		ldr	r3, .L69
 682 0006 181C     		mov	r0, r3
 683 0008 BD46     		mov	sp, r7
 684              		@ sp needed
 685 000a 80BD     		pop	{r7, pc}
 686              	.L70:
 687              		.align	2
 688              	.L69:
 689 000c C8000000 		.word	water_data+200
 690              		.cfi_endproc
 691              	.LFE52:
 692              		.size	getvar_fertigationTable9, .-getvar_fertigationTable9
 693              		.section	.text.conv_ia2str,"ax",%progbits
 694              		.align	2
 695              		.weak	conv_ia2str
 696              		.code	16
 697              		.thumb_func
 698              		.type	conv_ia2str, %function
 699              	conv_ia2str:
 700              	.LFB53:
  86:.\src/waterControl.c **** 
  87:.\src/waterControl.c **** int conv_ia2str(char *str, int len, int * val) {
 701              		.loc 1 87 0
 702              		.cfi_startproc
 703 0000 80B5     		push	{r7, lr}
 704              		.cfi_def_cfa_offset 8
 705              		.cfi_offset 7, -8
 706              		.cfi_offset 14, -4
 707 0002 86B0     		sub	sp, sp, #24
 708              		.cfi_def_cfa_offset 32
 709 0004 00AF     		add	r7, sp, #0
 710              		.cfi_def_cfa_register 7
 711 0006 F860     		str	r0, [r7, #12]
ARM GAS  C:\Users\SDEVAS~1\AppData\Local\Temp\ccOTp3Ub.s 			page 15


 712 0008 B960     		str	r1, [r7, #8]
 713 000a 7A60     		str	r2, [r7, #4]
  88:.\src/waterControl.c **** 	//this function is tailored for fertigation table, so int* size if equal 4!
  89:.\src/waterControl.c **** 	int ret = 0;
 714              		.loc 1 89 0
 715 000c 0023     		mov	r3, #0
 716 000e 7B61     		str	r3, [r7, #20]
  90:.\src/waterControl.c **** 	*str = '['; ret++;
 717              		.loc 1 90 0
 718 0010 FB68     		ldr	r3, [r7, #12]
 719 0012 5B22     		mov	r2, #91
 720 0014 1A70     		strb	r2, [r3]
 721 0016 7B69     		ldr	r3, [r7, #20]
 722 0018 0133     		add	r3, r3, #1
 723 001a 7B61     		str	r3, [r7, #20]
  91:.\src/waterControl.c **** 	int i = 0;
 724              		.loc 1 91 0
 725 001c 0023     		mov	r3, #0
 726 001e 3B61     		str	r3, [r7, #16]
  92:.\src/waterControl.c **** 	for(; i < 4; i++) {
 727              		.loc 1 92 0
 728 0020 29E0     		b	.L72
 729              	.L76:
  93:.\src/waterControl.c **** 		if(len - ret == 0) return ret;
 730              		.loc 1 93 0
 731 0022 BA68     		ldr	r2, [r7, #8]
 732 0024 7B69     		ldr	r3, [r7, #20]
 733 0026 9A42     		cmp	r2, r3
 734 0028 01D1     		bne	.L73
 735              		.loc 1 93 0 is_stmt 0 discriminator 1
 736 002a 7B69     		ldr	r3, [r7, #20]
 737 002c 2DE0     		b	.L74
 738              	.L73:
  94:.\src/waterControl.c **** 		ret += conv_i2str(str + ret, len - ret, val[i]);
 739              		.loc 1 94 0 is_stmt 1
 740 002e 7B69     		ldr	r3, [r7, #20]
 741 0030 FA68     		ldr	r2, [r7, #12]
 742 0032 D118     		add	r1, r2, r3
 743 0034 BA68     		ldr	r2, [r7, #8]
 744 0036 7B69     		ldr	r3, [r7, #20]
 745 0038 D21A     		sub	r2, r2, r3
 746 003a 3B69     		ldr	r3, [r7, #16]
 747 003c 9B00     		lsl	r3, r3, #2
 748 003e 7868     		ldr	r0, [r7, #4]
 749 0040 C318     		add	r3, r0, r3
 750 0042 1B68     		ldr	r3, [r3]
 751 0044 081C     		mov	r0, r1
 752 0046 111C     		mov	r1, r2
 753 0048 1A1C     		mov	r2, r3
 754 004a FFF7FEFF 		bl	conv_i2str
 755 004e 031C     		mov	r3, r0
 756 0050 7A69     		ldr	r2, [r7, #20]
 757 0052 D318     		add	r3, r2, r3
 758 0054 7B61     		str	r3, [r7, #20]
  95:.\src/waterControl.c **** 		if(len - ret == 0) return ret;
 759              		.loc 1 95 0
 760 0056 BA68     		ldr	r2, [r7, #8]
ARM GAS  C:\Users\SDEVAS~1\AppData\Local\Temp\ccOTp3Ub.s 			page 16


 761 0058 7B69     		ldr	r3, [r7, #20]
 762 005a 9A42     		cmp	r2, r3
 763 005c 01D1     		bne	.L75
 764              		.loc 1 95 0 is_stmt 0 discriminator 1
 765 005e 7B69     		ldr	r3, [r7, #20]
 766 0060 13E0     		b	.L74
 767              	.L75:
  96:.\src/waterControl.c **** 		*(str + ret++) = ',';
 768              		.loc 1 96 0 is_stmt 1
 769 0062 7B69     		ldr	r3, [r7, #20]
 770 0064 5A1C     		add	r2, r3, #1
 771 0066 7A61     		str	r2, [r7, #20]
 772 0068 FA68     		ldr	r2, [r7, #12]
 773 006a D318     		add	r3, r2, r3
 774 006c 2C22     		mov	r2, #44
 775 006e 1A70     		strb	r2, [r3]
  92:.\src/waterControl.c **** 	for(; i < 4; i++) {
 776              		.loc 1 92 0
 777 0070 3B69     		ldr	r3, [r7, #16]
 778 0072 0133     		add	r3, r3, #1
 779 0074 3B61     		str	r3, [r7, #16]
 780              	.L72:
  92:.\src/waterControl.c **** 	for(; i < 4; i++) {
 781              		.loc 1 92 0 is_stmt 0 discriminator 1
 782 0076 3B69     		ldr	r3, [r7, #16]
 783 0078 032B     		cmp	r3, #3
 784 007a D2DD     		ble	.L76
  97:.\src/waterControl.c **** 	}
  98:.\src/waterControl.c **** 	*(str + ret - 1) = ']'; //change comma to ]
 785              		.loc 1 98 0 is_stmt 1
 786 007c 7B69     		ldr	r3, [r7, #20]
 787 007e 013B     		sub	r3, r3, #1
 788 0080 FA68     		ldr	r2, [r7, #12]
 789 0082 D318     		add	r3, r2, r3
 790 0084 5D22     		mov	r2, #93
 791 0086 1A70     		strb	r2, [r3]
  99:.\src/waterControl.c **** 	return ret;
 792              		.loc 1 99 0
 793 0088 7B69     		ldr	r3, [r7, #20]
 794              	.L74:
 100:.\src/waterControl.c **** }
 795              		.loc 1 100 0
 796 008a 181C     		mov	r0, r3
 797 008c BD46     		mov	sp, r7
 798 008e 06B0     		add	sp, sp, #24
 799              		@ sp needed
 800 0090 80BD     		pop	{r7, pc}
 801              		.cfi_endproc
 802              	.LFE53:
 803              		.size	conv_ia2str, .-conv_ia2str
 804 0092 C046     		.bss
 805              		.align	2
 806              	fttmparr:
 807 0000 00000000 		.space	16
 807      00000000 
 807      00000000 
 807      00000000 
ARM GAS  C:\Users\SDEVAS~1\AppData\Local\Temp\ccOTp3Ub.s 			page 17


 808              		.section	.text.conv_str2ia,"ax",%progbits
 809              		.align	2
 810              		.weak	conv_str2ia
 811              		.code	16
 812              		.thumb_func
 813              		.type	conv_str2ia, %function
 814              	conv_str2ia:
 815              	.LFB54:
 101:.\src/waterControl.c **** static int fttmparr[4];
 102:.\src/waterControl.c **** int * conv_str2ia(const char *str, int len) {
 816              		.loc 1 102 0
 817              		.cfi_startproc
 818 0000 80B5     		push	{r7, lr}
 819              		.cfi_def_cfa_offset 8
 820              		.cfi_offset 7, -8
 821              		.cfi_offset 14, -4
 822 0002 84B0     		sub	sp, sp, #16
 823              		.cfi_def_cfa_offset 24
 824 0004 00AF     		add	r7, sp, #0
 825              		.cfi_def_cfa_register 7
 826 0006 7860     		str	r0, [r7, #4]
 827 0008 3960     		str	r1, [r7]
 103:.\src/waterControl.c **** 	//this function is tailored for fertigation table, so int* size if equal 4!
 104:.\src/waterControl.c **** 	str++; len -= 2; //skip first and last char (its [ and ]); now we have ints separated by commas
 828              		.loc 1 104 0
 829 000a 7B68     		ldr	r3, [r7, #4]
 830 000c 0133     		add	r3, r3, #1
 831 000e 7B60     		str	r3, [r7, #4]
 832 0010 3B68     		ldr	r3, [r7]
 833 0012 023B     		sub	r3, r3, #2
 834 0014 3B60     		str	r3, [r7]
 105:.\src/waterControl.c **** 	int i = 0;
 835              		.loc 1 105 0
 836 0016 0023     		mov	r3, #0
 837 0018 FB60     		str	r3, [r7, #12]
 106:.\src/waterControl.c **** 	for(; i < 4; i++) {
 838              		.loc 1 106 0
 839 001a 28E0     		b	.L78
 840              	.L82:
 841              	.LBB2:
 107:.\src/waterControl.c **** 		int lentocomma = 0;
 842              		.loc 1 107 0
 843 001c 0023     		mov	r3, #0
 844 001e BB60     		str	r3, [r7, #8]
 108:.\src/waterControl.c **** 		while(str[lentocomma] != ',' && lentocomma != len) {
 845              		.loc 1 108 0
 846 0020 02E0     		b	.L79
 847              	.L81:
 109:.\src/waterControl.c **** 			lentocomma++;
 848              		.loc 1 109 0
 849 0022 BB68     		ldr	r3, [r7, #8]
 850 0024 0133     		add	r3, r3, #1
 851 0026 BB60     		str	r3, [r7, #8]
 852              	.L79:
 108:.\src/waterControl.c **** 		while(str[lentocomma] != ',' && lentocomma != len) {
 853              		.loc 1 108 0 discriminator 1
 854 0028 BB68     		ldr	r3, [r7, #8]
ARM GAS  C:\Users\SDEVAS~1\AppData\Local\Temp\ccOTp3Ub.s 			page 18


 855 002a 7A68     		ldr	r2, [r7, #4]
 856 002c D318     		add	r3, r2, r3
 857 002e 1B78     		ldrb	r3, [r3]
 858 0030 2C2B     		cmp	r3, #44
 859 0032 03D0     		beq	.L80
 108:.\src/waterControl.c **** 		while(str[lentocomma] != ',' && lentocomma != len) {
 860              		.loc 1 108 0 is_stmt 0 discriminator 2
 861 0034 BA68     		ldr	r2, [r7, #8]
 862 0036 3B68     		ldr	r3, [r7]
 863 0038 9A42     		cmp	r2, r3
 864 003a F2D1     		bne	.L81
 865              	.L80:
 110:.\src/waterControl.c **** 		}
 111:.\src/waterControl.c **** 		fttmparr[i] = conv_str2i(str, lentocomma);
 866              		.loc 1 111 0 is_stmt 1
 867 003c 7A68     		ldr	r2, [r7, #4]
 868 003e BB68     		ldr	r3, [r7, #8]
 869 0040 101C     		mov	r0, r2
 870 0042 191C     		mov	r1, r3
 871 0044 FFF7FEFF 		bl	conv_str2i
 872 0048 011C     		mov	r1, r0
 873 004a 0D4B     		ldr	r3, .L84
 874 004c FA68     		ldr	r2, [r7, #12]
 875 004e 9200     		lsl	r2, r2, #2
 876 0050 D150     		str	r1, [r2, r3]
 112:.\src/waterControl.c **** 		lentocomma++;
 877              		.loc 1 112 0
 878 0052 BB68     		ldr	r3, [r7, #8]
 879 0054 0133     		add	r3, r3, #1
 880 0056 BB60     		str	r3, [r7, #8]
 113:.\src/waterControl.c **** 		str += lentocomma;
 881              		.loc 1 113 0
 882 0058 BB68     		ldr	r3, [r7, #8]
 883 005a 7A68     		ldr	r2, [r7, #4]
 884 005c D318     		add	r3, r2, r3
 885 005e 7B60     		str	r3, [r7, #4]
 114:.\src/waterControl.c **** 		len -= lentocomma;
 886              		.loc 1 114 0
 887 0060 3A68     		ldr	r2, [r7]
 888 0062 BB68     		ldr	r3, [r7, #8]
 889 0064 D31A     		sub	r3, r2, r3
 890 0066 3B60     		str	r3, [r7]
 891              	.LBE2:
 106:.\src/waterControl.c **** 	for(; i < 4; i++) {
 892              		.loc 1 106 0
 893 0068 FB68     		ldr	r3, [r7, #12]
 894 006a 0133     		add	r3, r3, #1
 895 006c FB60     		str	r3, [r7, #12]
 896              	.L78:
 106:.\src/waterControl.c **** 	for(; i < 4; i++) {
 897              		.loc 1 106 0 is_stmt 0 discriminator 1
 898 006e FB68     		ldr	r3, [r7, #12]
 899 0070 032B     		cmp	r3, #3
 900 0072 D3DD     		ble	.L82
 115:.\src/waterControl.c **** 	}
 116:.\src/waterControl.c **** 	return fttmparr;
 901              		.loc 1 116 0 is_stmt 1
ARM GAS  C:\Users\SDEVAS~1\AppData\Local\Temp\ccOTp3Ub.s 			page 19


 902 0074 024B     		ldr	r3, .L84
 117:.\src/waterControl.c **** }
 903              		.loc 1 117 0
 904 0076 181C     		mov	r0, r3
 905 0078 BD46     		mov	sp, r7
 906 007a 04B0     		add	sp, sp, #16
 907              		@ sp needed
 908 007c 80BD     		pop	{r7, pc}
 909              	.L85:
 910 007e C046     		.align	2
 911              	.L84:
 912 0080 00000000 		.word	fttmparr
 913              		.cfi_endproc
 914              	.LFE54:
 915              		.size	conv_str2ia, .-conv_str2ia
 916              		.section	.text.setvar_notBefore,"ax",%progbits
 917              		.align	2
 918              		.global	setvar_notBefore
 919              		.code	16
 920              		.thumb_func
 921              		.type	setvar_notBefore, %function
 922              	setvar_notBefore:
 923              	.LFB55:
 118:.\src/waterControl.c **** 
 119:.\src/waterControl.c **** void setvar_notBefore(int val) {
 924              		.loc 1 119 0
 925              		.cfi_startproc
 926 0000 80B5     		push	{r7, lr}
 927              		.cfi_def_cfa_offset 8
 928              		.cfi_offset 7, -8
 929              		.cfi_offset 14, -4
 930 0002 82B0     		sub	sp, sp, #8
 931              		.cfi_def_cfa_offset 16
 932 0004 00AF     		add	r7, sp, #0
 933              		.cfi_def_cfa_register 7
 934 0006 7860     		str	r0, [r7, #4]
 120:.\src/waterControl.c **** 	water_data.NotBefore = val;
 935              		.loc 1 120 0
 936 0008 034A     		ldr	r2, .L87
 937 000a D823     		mov	r3, #216
 938 000c 7968     		ldr	r1, [r7, #4]
 939 000e D150     		str	r1, [r2, r3]
 121:.\src/waterControl.c **** }
 940              		.loc 1 121 0
 941 0010 BD46     		mov	sp, r7
 942 0012 02B0     		add	sp, sp, #8
 943              		@ sp needed
 944 0014 80BD     		pop	{r7, pc}
 945              	.L88:
 946 0016 C046     		.align	2
 947              	.L87:
 948 0018 00000000 		.word	water_data
 949              		.cfi_endproc
 950              	.LFE55:
 951              		.size	setvar_notBefore, .-setvar_notBefore
 952              		.section	.text.setvar_notAfter,"ax",%progbits
 953              		.align	2
ARM GAS  C:\Users\SDEVAS~1\AppData\Local\Temp\ccOTp3Ub.s 			page 20


 954              		.global	setvar_notAfter
 955              		.code	16
 956              		.thumb_func
 957              		.type	setvar_notAfter, %function
 958              	setvar_notAfter:
 959              	.LFB56:
 122:.\src/waterControl.c **** void setvar_notAfter(int val) {
 960              		.loc 1 122 0
 961              		.cfi_startproc
 962 0000 80B5     		push	{r7, lr}
 963              		.cfi_def_cfa_offset 8
 964              		.cfi_offset 7, -8
 965              		.cfi_offset 14, -4
 966 0002 82B0     		sub	sp, sp, #8
 967              		.cfi_def_cfa_offset 16
 968 0004 00AF     		add	r7, sp, #0
 969              		.cfi_def_cfa_register 7
 970 0006 7860     		str	r0, [r7, #4]
 123:.\src/waterControl.c **** 	water_data.NotAfter = val;
 971              		.loc 1 123 0
 972 0008 034A     		ldr	r2, .L90
 973 000a DC23     		mov	r3, #220
 974 000c 7968     		ldr	r1, [r7, #4]
 975 000e D150     		str	r1, [r2, r3]
 124:.\src/waterControl.c **** }
 976              		.loc 1 124 0
 977 0010 BD46     		mov	sp, r7
 978 0012 02B0     		add	sp, sp, #8
 979              		@ sp needed
 980 0014 80BD     		pop	{r7, pc}
 981              	.L91:
 982 0016 C046     		.align	2
 983              	.L90:
 984 0018 00000000 		.word	water_data
 985              		.cfi_endproc
 986              	.LFE56:
 987              		.size	setvar_notAfter, .-setvar_notAfter
 988              		.section	.text.setvar_dilutionFactorA,"ax",%progbits
 989              		.align	2
 990              		.global	setvar_dilutionFactorA
 991              		.code	16
 992              		.thumb_func
 993              		.type	setvar_dilutionFactorA, %function
 994              	setvar_dilutionFactorA:
 995              	.LFB57:
 125:.\src/waterControl.c **** void setvar_dilutionFactorA(int val) {
 996              		.loc 1 125 0
 997              		.cfi_startproc
 998 0000 80B5     		push	{r7, lr}
 999              		.cfi_def_cfa_offset 8
 1000              		.cfi_offset 7, -8
 1001              		.cfi_offset 14, -4
 1002 0002 82B0     		sub	sp, sp, #8
 1003              		.cfi_def_cfa_offset 16
 1004 0004 00AF     		add	r7, sp, #0
 1005              		.cfi_def_cfa_register 7
 1006 0006 7860     		str	r0, [r7, #4]
ARM GAS  C:\Users\SDEVAS~1\AppData\Local\Temp\ccOTp3Ub.s 			page 21


 126:.\src/waterControl.c **** 	water_data.DilutionFactorA = val;
 1007              		.loc 1 126 0
 1008 0008 034A     		ldr	r2, .L93
 1009 000a E023     		mov	r3, #224
 1010 000c 7968     		ldr	r1, [r7, #4]
 1011 000e D150     		str	r1, [r2, r3]
 127:.\src/waterControl.c **** }
 1012              		.loc 1 127 0
 1013 0010 BD46     		mov	sp, r7
 1014 0012 02B0     		add	sp, sp, #8
 1015              		@ sp needed
 1016 0014 80BD     		pop	{r7, pc}
 1017              	.L94:
 1018 0016 C046     		.align	2
 1019              	.L93:
 1020 0018 00000000 		.word	water_data
 1021              		.cfi_endproc
 1022              	.LFE57:
 1023              		.size	setvar_dilutionFactorA, .-setvar_dilutionFactorA
 1024              		.section	.text.setvar_dilutionFactorB,"ax",%progbits
 1025              		.align	2
 1026              		.global	setvar_dilutionFactorB
 1027              		.code	16
 1028              		.thumb_func
 1029              		.type	setvar_dilutionFactorB, %function
 1030              	setvar_dilutionFactorB:
 1031              	.LFB58:
 128:.\src/waterControl.c **** void setvar_dilutionFactorB(int val) {
 1032              		.loc 1 128 0
 1033              		.cfi_startproc
 1034 0000 80B5     		push	{r7, lr}
 1035              		.cfi_def_cfa_offset 8
 1036              		.cfi_offset 7, -8
 1037              		.cfi_offset 14, -4
 1038 0002 82B0     		sub	sp, sp, #8
 1039              		.cfi_def_cfa_offset 16
 1040 0004 00AF     		add	r7, sp, #0
 1041              		.cfi_def_cfa_register 7
 1042 0006 7860     		str	r0, [r7, #4]
 129:.\src/waterControl.c **** 	water_data.DilutionFactorB = val;
 1043              		.loc 1 129 0
 1044 0008 034A     		ldr	r2, .L96
 1045 000a E423     		mov	r3, #228
 1046 000c 7968     		ldr	r1, [r7, #4]
 1047 000e D150     		str	r1, [r2, r3]
 130:.\src/waterControl.c **** }
 1048              		.loc 1 130 0
 1049 0010 BD46     		mov	sp, r7
 1050 0012 02B0     		add	sp, sp, #8
 1051              		@ sp needed
 1052 0014 80BD     		pop	{r7, pc}
 1053              	.L97:
 1054 0016 C046     		.align	2
 1055              	.L96:
 1056 0018 00000000 		.word	water_data
 1057              		.cfi_endproc
 1058              	.LFE58:
ARM GAS  C:\Users\SDEVAS~1\AppData\Local\Temp\ccOTp3Ub.s 			page 22


 1059              		.size	setvar_dilutionFactorB, .-setvar_dilutionFactorB
 1060              		.section	.text.setvar_venturiSuctionA,"ax",%progbits
 1061              		.align	2
 1062              		.global	setvar_venturiSuctionA
 1063              		.code	16
 1064              		.thumb_func
 1065              		.type	setvar_venturiSuctionA, %function
 1066              	setvar_venturiSuctionA:
 1067              	.LFB59:
 131:.\src/waterControl.c **** void setvar_venturiSuctionA(int val) {
 1068              		.loc 1 131 0
 1069              		.cfi_startproc
 1070 0000 80B5     		push	{r7, lr}
 1071              		.cfi_def_cfa_offset 8
 1072              		.cfi_offset 7, -8
 1073              		.cfi_offset 14, -4
 1074 0002 82B0     		sub	sp, sp, #8
 1075              		.cfi_def_cfa_offset 16
 1076 0004 00AF     		add	r7, sp, #0
 1077              		.cfi_def_cfa_register 7
 1078 0006 7860     		str	r0, [r7, #4]
 132:.\src/waterControl.c **** 	water_data.VenturiSuctionA = val;
 1079              		.loc 1 132 0
 1080 0008 034A     		ldr	r2, .L99
 1081 000a E823     		mov	r3, #232
 1082 000c 7968     		ldr	r1, [r7, #4]
 1083 000e D150     		str	r1, [r2, r3]
 133:.\src/waterControl.c **** }
 1084              		.loc 1 133 0
 1085 0010 BD46     		mov	sp, r7
 1086 0012 02B0     		add	sp, sp, #8
 1087              		@ sp needed
 1088 0014 80BD     		pop	{r7, pc}
 1089              	.L100:
 1090 0016 C046     		.align	2
 1091              	.L99:
 1092 0018 00000000 		.word	water_data
 1093              		.cfi_endproc
 1094              	.LFE59:
 1095              		.size	setvar_venturiSuctionA, .-setvar_venturiSuctionA
 1096              		.section	.text.setvar_venturiSuctionB,"ax",%progbits
 1097              		.align	2
 1098              		.global	setvar_venturiSuctionB
 1099              		.code	16
 1100              		.thumb_func
 1101              		.type	setvar_venturiSuctionB, %function
 1102              	setvar_venturiSuctionB:
 1103              	.LFB60:
 134:.\src/waterControl.c **** void setvar_venturiSuctionB(int val) {
 1104              		.loc 1 134 0
 1105              		.cfi_startproc
 1106 0000 80B5     		push	{r7, lr}
 1107              		.cfi_def_cfa_offset 8
 1108              		.cfi_offset 7, -8
 1109              		.cfi_offset 14, -4
 1110 0002 82B0     		sub	sp, sp, #8
 1111              		.cfi_def_cfa_offset 16
ARM GAS  C:\Users\SDEVAS~1\AppData\Local\Temp\ccOTp3Ub.s 			page 23


 1112 0004 00AF     		add	r7, sp, #0
 1113              		.cfi_def_cfa_register 7
 1114 0006 7860     		str	r0, [r7, #4]
 135:.\src/waterControl.c **** 	water_data.VenturiSuctionB = val;
 1115              		.loc 1 135 0
 1116 0008 034A     		ldr	r2, .L102
 1117 000a EC23     		mov	r3, #236
 1118 000c 7968     		ldr	r1, [r7, #4]
 1119 000e D150     		str	r1, [r2, r3]
 136:.\src/waterControl.c **** }
 1120              		.loc 1 136 0
 1121 0010 BD46     		mov	sp, r7
 1122 0012 02B0     		add	sp, sp, #8
 1123              		@ sp needed
 1124 0014 80BD     		pop	{r7, pc}
 1125              	.L103:
 1126 0016 C046     		.align	2
 1127              	.L102:
 1128 0018 00000000 		.word	water_data
 1129              		.cfi_endproc
 1130              	.LFE60:
 1131              		.size	setvar_venturiSuctionB, .-setvar_venturiSuctionB
 1132              		.section	.text.setvar_squareMeters,"ax",%progbits
 1133              		.align	2
 1134              		.global	setvar_squareMeters
 1135              		.code	16
 1136              		.thumb_func
 1137              		.type	setvar_squareMeters, %function
 1138              	setvar_squareMeters:
 1139              	.LFB61:
 137:.\src/waterControl.c **** void setvar_squareMeters(int val) {
 1140              		.loc 1 137 0
 1141              		.cfi_startproc
 1142 0000 80B5     		push	{r7, lr}
 1143              		.cfi_def_cfa_offset 8
 1144              		.cfi_offset 7, -8
 1145              		.cfi_offset 14, -4
 1146 0002 82B0     		sub	sp, sp, #8
 1147              		.cfi_def_cfa_offset 16
 1148 0004 00AF     		add	r7, sp, #0
 1149              		.cfi_def_cfa_register 7
 1150 0006 7860     		str	r0, [r7, #4]
 138:.\src/waterControl.c **** 	water_data.SquareMeters = val;
 1151              		.loc 1 138 0
 1152 0008 034A     		ldr	r2, .L105
 1153 000a F023     		mov	r3, #240
 1154 000c 7968     		ldr	r1, [r7, #4]
 1155 000e D150     		str	r1, [r2, r3]
 139:.\src/waterControl.c **** }
 1156              		.loc 1 139 0
 1157 0010 BD46     		mov	sp, r7
 1158 0012 02B0     		add	sp, sp, #8
 1159              		@ sp needed
 1160 0014 80BD     		pop	{r7, pc}
 1161              	.L106:
 1162 0016 C046     		.align	2
 1163              	.L105:
ARM GAS  C:\Users\SDEVAS~1\AppData\Local\Temp\ccOTp3Ub.s 			page 24


 1164 0018 00000000 		.word	water_data
 1165              		.cfi_endproc
 1166              	.LFE61:
 1167              		.size	setvar_squareMeters, .-setvar_squareMeters
 1168              		.section	.text.setvar_lPerSqMeterPerDay,"ax",%progbits
 1169              		.align	2
 1170              		.global	setvar_lPerSqMeterPerDay
 1171              		.code	16
 1172              		.thumb_func
 1173              		.type	setvar_lPerSqMeterPerDay, %function
 1174              	setvar_lPerSqMeterPerDay:
 1175              	.LFB62:
 140:.\src/waterControl.c **** void setvar_lPerSqMeterPerDay(int val) {
 1176              		.loc 1 140 0
 1177              		.cfi_startproc
 1178 0000 80B5     		push	{r7, lr}
 1179              		.cfi_def_cfa_offset 8
 1180              		.cfi_offset 7, -8
 1181              		.cfi_offset 14, -4
 1182 0002 82B0     		sub	sp, sp, #8
 1183              		.cfi_def_cfa_offset 16
 1184 0004 00AF     		add	r7, sp, #0
 1185              		.cfi_def_cfa_register 7
 1186 0006 7860     		str	r0, [r7, #4]
 141:.\src/waterControl.c **** 	water_data.LperSqMeterPerDay = val;
 1187              		.loc 1 141 0
 1188 0008 034A     		ldr	r2, .L108
 1189 000a F423     		mov	r3, #244
 1190 000c 7968     		ldr	r1, [r7, #4]
 1191 000e D150     		str	r1, [r2, r3]
 142:.\src/waterControl.c **** }
 1192              		.loc 1 142 0
 1193 0010 BD46     		mov	sp, r7
 1194 0012 02B0     		add	sp, sp, #8
 1195              		@ sp needed
 1196 0014 80BD     		pop	{r7, pc}
 1197              	.L109:
 1198 0016 C046     		.align	2
 1199              	.L108:
 1200 0018 00000000 		.word	water_data
 1201              		.cfi_endproc
 1202              	.LFE62:
 1203              		.size	setvar_lPerSqMeterPerDay, .-setvar_lPerSqMeterPerDay
 1204              		.section	.text.setvar_cropType,"ax",%progbits
 1205              		.align	2
 1206              		.global	setvar_cropType
 1207              		.code	16
 1208              		.thumb_func
 1209              		.type	setvar_cropType, %function
 1210              	setvar_cropType:
 1211              	.LFB63:
 143:.\src/waterControl.c **** void setvar_cropType(int val) { /*read only*/ }
 1212              		.loc 1 143 0
 1213              		.cfi_startproc
 1214 0000 80B5     		push	{r7, lr}
 1215              		.cfi_def_cfa_offset 8
 1216              		.cfi_offset 7, -8
ARM GAS  C:\Users\SDEVAS~1\AppData\Local\Temp\ccOTp3Ub.s 			page 25


 1217              		.cfi_offset 14, -4
 1218 0002 82B0     		sub	sp, sp, #8
 1219              		.cfi_def_cfa_offset 16
 1220 0004 00AF     		add	r7, sp, #0
 1221              		.cfi_def_cfa_register 7
 1222 0006 7860     		str	r0, [r7, #4]
 1223              		.loc 1 143 0
 1224 0008 BD46     		mov	sp, r7
 1225 000a 02B0     		add	sp, sp, #8
 1226              		@ sp needed
 1227 000c 80BD     		pop	{r7, pc}
 1228              		.cfi_endproc
 1229              	.LFE63:
 1230              		.size	setvar_cropType, .-setvar_cropType
 1231 000e C046     		.section	.text.setvar_innerPressure,"ax",%progbits
 1232              		.align	2
 1233              		.global	setvar_innerPressure
 1234              		.code	16
 1235              		.thumb_func
 1236              		.type	setvar_innerPressure, %function
 1237              	setvar_innerPressure:
 1238              	.LFB64:
 144:.\src/waterControl.c **** 
 145:.\src/waterControl.c **** void setvar_innerPressure(int val) { /*read only*/ }
 1239              		.loc 1 145 0
 1240              		.cfi_startproc
 1241 0000 80B5     		push	{r7, lr}
 1242              		.cfi_def_cfa_offset 8
 1243              		.cfi_offset 7, -8
 1244              		.cfi_offset 14, -4
 1245 0002 82B0     		sub	sp, sp, #8
 1246              		.cfi_def_cfa_offset 16
 1247 0004 00AF     		add	r7, sp, #0
 1248              		.cfi_def_cfa_register 7
 1249 0006 7860     		str	r0, [r7, #4]
 1250              		.loc 1 145 0
 1251 0008 BD46     		mov	sp, r7
 1252 000a 02B0     		add	sp, sp, #8
 1253              		@ sp needed
 1254 000c 80BD     		pop	{r7, pc}
 1255              		.cfi_endproc
 1256              	.LFE64:
 1257              		.size	setvar_innerPressure, .-setvar_innerPressure
 1258 000e C046     		.section	.text.setvar_outerPressure,"ax",%progbits
 1259              		.align	2
 1260              		.global	setvar_outerPressure
 1261              		.code	16
 1262              		.thumb_func
 1263              		.type	setvar_outerPressure, %function
 1264              	setvar_outerPressure:
 1265              	.LFB65:
 146:.\src/waterControl.c **** void setvar_outerPressure(int val) { /*read only*/ }
 1266              		.loc 1 146 0
 1267              		.cfi_startproc
 1268 0000 80B5     		push	{r7, lr}
 1269              		.cfi_def_cfa_offset 8
 1270              		.cfi_offset 7, -8
ARM GAS  C:\Users\SDEVAS~1\AppData\Local\Temp\ccOTp3Ub.s 			page 26


 1271              		.cfi_offset 14, -4
 1272 0002 82B0     		sub	sp, sp, #8
 1273              		.cfi_def_cfa_offset 16
 1274 0004 00AF     		add	r7, sp, #0
 1275              		.cfi_def_cfa_register 7
 1276 0006 7860     		str	r0, [r7, #4]
 1277              		.loc 1 146 0
 1278 0008 BD46     		mov	sp, r7
 1279 000a 02B0     		add	sp, sp, #8
 1280              		@ sp needed
 1281 000c 80BD     		pop	{r7, pc}
 1282              		.cfi_endproc
 1283              	.LFE65:
 1284              		.size	setvar_outerPressure, .-setvar_outerPressure
 1285 000e C046     		.section	.text.setvar_currentFlow,"ax",%progbits
 1286              		.align	2
 1287              		.global	setvar_currentFlow
 1288              		.code	16
 1289              		.thumb_func
 1290              		.type	setvar_currentFlow, %function
 1291              	setvar_currentFlow:
 1292              	.LFB66:
 147:.\src/waterControl.c **** void setvar_currentFlow(int val) { /*read only*/ }
 1293              		.loc 1 147 0
 1294              		.cfi_startproc
 1295 0000 80B5     		push	{r7, lr}
 1296              		.cfi_def_cfa_offset 8
 1297              		.cfi_offset 7, -8
 1298              		.cfi_offset 14, -4
 1299 0002 82B0     		sub	sp, sp, #8
 1300              		.cfi_def_cfa_offset 16
 1301 0004 00AF     		add	r7, sp, #0
 1302              		.cfi_def_cfa_register 7
 1303 0006 7860     		str	r0, [r7, #4]
 1304              		.loc 1 147 0
 1305 0008 BD46     		mov	sp, r7
 1306 000a 02B0     		add	sp, sp, #8
 1307              		@ sp needed
 1308 000c 80BD     		pop	{r7, pc}
 1309              		.cfi_endproc
 1310              	.LFE66:
 1311              		.size	setvar_currentFlow, .-setvar_currentFlow
 1312 000e C046     		.section	.text.setvar_totalVolume,"ax",%progbits
 1313              		.align	2
 1314              		.global	setvar_totalVolume
 1315              		.code	16
 1316              		.thumb_func
 1317              		.type	setvar_totalVolume, %function
 1318              	setvar_totalVolume:
 1319              	.LFB67:
 148:.\src/waterControl.c **** void setvar_totalVolume(int val) { /*read only*/ }
 1320              		.loc 1 148 0
 1321              		.cfi_startproc
 1322 0000 80B5     		push	{r7, lr}
 1323              		.cfi_def_cfa_offset 8
 1324              		.cfi_offset 7, -8
 1325              		.cfi_offset 14, -4
ARM GAS  C:\Users\SDEVAS~1\AppData\Local\Temp\ccOTp3Ub.s 			page 27


 1326 0002 82B0     		sub	sp, sp, #8
 1327              		.cfi_def_cfa_offset 16
 1328 0004 00AF     		add	r7, sp, #0
 1329              		.cfi_def_cfa_register 7
 1330 0006 7860     		str	r0, [r7, #4]
 1331              		.loc 1 148 0
 1332 0008 BD46     		mov	sp, r7
 1333 000a 02B0     		add	sp, sp, #8
 1334              		@ sp needed
 1335 000c 80BD     		pop	{r7, pc}
 1336              		.cfi_endproc
 1337              	.LFE67:
 1338              		.size	setvar_totalVolume, .-setvar_totalVolume
 1339 000e C046     		.section	.text.setvar_valveStatus,"ax",%progbits
 1340              		.align	2
 1341              		.global	setvar_valveStatus
 1342              		.code	16
 1343              		.thumb_func
 1344              		.type	setvar_valveStatus, %function
 1345              	setvar_valveStatus:
 1346              	.LFB68:
 149:.\src/waterControl.c **** void setvar_valveStatus(int val) { /*read only*/ }
 1347              		.loc 1 149 0
 1348              		.cfi_startproc
 1349 0000 80B5     		push	{r7, lr}
 1350              		.cfi_def_cfa_offset 8
 1351              		.cfi_offset 7, -8
 1352              		.cfi_offset 14, -4
 1353 0002 82B0     		sub	sp, sp, #8
 1354              		.cfi_def_cfa_offset 16
 1355 0004 00AF     		add	r7, sp, #0
 1356              		.cfi_def_cfa_register 7
 1357 0006 7860     		str	r0, [r7, #4]
 1358              		.loc 1 149 0
 1359 0008 BD46     		mov	sp, r7
 1360 000a 02B0     		add	sp, sp, #8
 1361              		@ sp needed
 1362 000c 80BD     		pop	{r7, pc}
 1363              		.cfi_endproc
 1364              	.LFE68:
 1365              		.size	setvar_valveStatus, .-setvar_valveStatus
 1366 000e C046     		.section	.text.setvar_lastStartNumber,"ax",%progbits
 1367              		.align	2
 1368              		.global	setvar_lastStartNumber
 1369              		.code	16
 1370              		.thumb_func
 1371              		.type	setvar_lastStartNumber, %function
 1372              	setvar_lastStartNumber:
 1373              	.LFB69:
 150:.\src/waterControl.c **** void setvar_lastStartNumber(int val) { /*read only*/ }
 1374              		.loc 1 150 0
 1375              		.cfi_startproc
 1376 0000 80B5     		push	{r7, lr}
 1377              		.cfi_def_cfa_offset 8
 1378              		.cfi_offset 7, -8
 1379              		.cfi_offset 14, -4
 1380 0002 82B0     		sub	sp, sp, #8
ARM GAS  C:\Users\SDEVAS~1\AppData\Local\Temp\ccOTp3Ub.s 			page 28


 1381              		.cfi_def_cfa_offset 16
 1382 0004 00AF     		add	r7, sp, #0
 1383              		.cfi_def_cfa_register 7
 1384 0006 7860     		str	r0, [r7, #4]
 1385              		.loc 1 150 0
 1386 0008 BD46     		mov	sp, r7
 1387 000a 02B0     		add	sp, sp, #8
 1388              		@ sp needed
 1389 000c 80BD     		pop	{r7, pc}
 1390              		.cfi_endproc
 1391              	.LFE69:
 1392              		.size	setvar_lastStartNumber, .-setvar_lastStartNumber
 1393 000e C046     		.section	.text.setvar_lastStartVolume,"ax",%progbits
 1394              		.align	2
 1395              		.global	setvar_lastStartVolume
 1396              		.code	16
 1397              		.thumb_func
 1398              		.type	setvar_lastStartVolume, %function
 1399              	setvar_lastStartVolume:
 1400              	.LFB70:
 151:.\src/waterControl.c **** void setvar_lastStartVolume(int val) { /*read only*/ }
 1401              		.loc 1 151 0
 1402              		.cfi_startproc
 1403 0000 80B5     		push	{r7, lr}
 1404              		.cfi_def_cfa_offset 8
 1405              		.cfi_offset 7, -8
 1406              		.cfi_offset 14, -4
 1407 0002 82B0     		sub	sp, sp, #8
 1408              		.cfi_def_cfa_offset 16
 1409 0004 00AF     		add	r7, sp, #0
 1410              		.cfi_def_cfa_register 7
 1411 0006 7860     		str	r0, [r7, #4]
 1412              		.loc 1 151 0
 1413 0008 BD46     		mov	sp, r7
 1414 000a 02B0     		add	sp, sp, #8
 1415              		@ sp needed
 1416 000c 80BD     		pop	{r7, pc}
 1417              		.cfi_endproc
 1418              	.LFE70:
 1419              		.size	setvar_lastStartVolume, .-setvar_lastStartVolume
 1420 000e C046     		.section	.text.setvar_lastStartFlow,"ax",%progbits
 1421              		.align	2
 1422              		.global	setvar_lastStartFlow
 1423              		.code	16
 1424              		.thumb_func
 1425              		.type	setvar_lastStartFlow, %function
 1426              	setvar_lastStartFlow:
 1427              	.LFB71:
 152:.\src/waterControl.c **** void setvar_lastStartFlow(int val) { /*read only*/ }
 1428              		.loc 1 152 0
 1429              		.cfi_startproc
 1430 0000 80B5     		push	{r7, lr}
 1431              		.cfi_def_cfa_offset 8
 1432              		.cfi_offset 7, -8
 1433              		.cfi_offset 14, -4
 1434 0002 82B0     		sub	sp, sp, #8
 1435              		.cfi_def_cfa_offset 16
ARM GAS  C:\Users\SDEVAS~1\AppData\Local\Temp\ccOTp3Ub.s 			page 29


 1436 0004 00AF     		add	r7, sp, #0
 1437              		.cfi_def_cfa_register 7
 1438 0006 7860     		str	r0, [r7, #4]
 1439              		.loc 1 152 0
 1440 0008 BD46     		mov	sp, r7
 1441 000a 02B0     		add	sp, sp, #8
 1442              		@ sp needed
 1443 000c 80BD     		pop	{r7, pc}
 1444              		.cfi_endproc
 1445              	.LFE71:
 1446              		.size	setvar_lastStartFlow, .-setvar_lastStartFlow
 1447 000e C046     		.section	.text.setvar_startTime,"ax",%progbits
 1448              		.align	2
 1449              		.global	setvar_startTime
 1450              		.code	16
 1451              		.thumb_func
 1452              		.type	setvar_startTime, %function
 1453              	setvar_startTime:
 1454              	.LFB72:
 153:.\src/waterControl.c **** void setvar_startTime(int val) {
 1455              		.loc 1 153 0
 1456              		.cfi_startproc
 1457 0000 80B5     		push	{r7, lr}
 1458              		.cfi_def_cfa_offset 8
 1459              		.cfi_offset 7, -8
 1460              		.cfi_offset 14, -4
 1461 0002 82B0     		sub	sp, sp, #8
 1462              		.cfi_def_cfa_offset 16
 1463 0004 00AF     		add	r7, sp, #0
 1464              		.cfi_def_cfa_register 7
 1465 0006 7860     		str	r0, [r7, #4]
 154:.\src/waterControl.c **** 	water_data.StartTime = val;
 1466              		.loc 1 154 0
 1467 0008 024B     		ldr	r3, .L120
 1468 000a 7A68     		ldr	r2, [r7, #4]
 1469 000c 1A62     		str	r2, [r3, #32]
 155:.\src/waterControl.c **** }
 1470              		.loc 1 155 0
 1471 000e BD46     		mov	sp, r7
 1472 0010 02B0     		add	sp, sp, #8
 1473              		@ sp needed
 1474 0012 80BD     		pop	{r7, pc}
 1475              	.L121:
 1476              		.align	2
 1477              	.L120:
 1478 0014 00000000 		.word	water_data
 1479              		.cfi_endproc
 1480              	.LFE72:
 1481              		.size	setvar_startTime, .-setvar_startTime
 1482              		.section	.text.setvar_stopTime,"ax",%progbits
 1483              		.align	2
 1484              		.global	setvar_stopTime
 1485              		.code	16
 1486              		.thumb_func
 1487              		.type	setvar_stopTime, %function
 1488              	setvar_stopTime:
 1489              	.LFB73:
ARM GAS  C:\Users\SDEVAS~1\AppData\Local\Temp\ccOTp3Ub.s 			page 30


 156:.\src/waterControl.c **** void setvar_stopTime(int val) {
 1490              		.loc 1 156 0
 1491              		.cfi_startproc
 1492 0000 80B5     		push	{r7, lr}
 1493              		.cfi_def_cfa_offset 8
 1494              		.cfi_offset 7, -8
 1495              		.cfi_offset 14, -4
 1496 0002 82B0     		sub	sp, sp, #8
 1497              		.cfi_def_cfa_offset 16
 1498 0004 00AF     		add	r7, sp, #0
 1499              		.cfi_def_cfa_register 7
 1500 0006 7860     		str	r0, [r7, #4]
 157:.\src/waterControl.c **** 	water_data.StopTime = val;
 1501              		.loc 1 157 0
 1502 0008 024B     		ldr	r3, .L123
 1503 000a 7A68     		ldr	r2, [r7, #4]
 1504 000c 5A62     		str	r2, [r3, #36]
 158:.\src/waterControl.c **** }
 1505              		.loc 1 158 0
 1506 000e BD46     		mov	sp, r7
 1507 0010 02B0     		add	sp, sp, #8
 1508              		@ sp needed
 1509 0012 80BD     		pop	{r7, pc}
 1510              	.L124:
 1511              		.align	2
 1512              	.L123:
 1513 0014 00000000 		.word	water_data
 1514              		.cfi_endproc
 1515              	.LFE73:
 1516              		.size	setvar_stopTime, .-setvar_stopTime
 1517              		.section	.text.setvar_numStarts,"ax",%progbits
 1518              		.align	2
 1519              		.global	setvar_numStarts
 1520              		.code	16
 1521              		.thumb_func
 1522              		.type	setvar_numStarts, %function
 1523              	setvar_numStarts:
 1524              	.LFB74:
 159:.\src/waterControl.c **** void setvar_numStarts(int val) {
 1525              		.loc 1 159 0
 1526              		.cfi_startproc
 1527 0000 80B5     		push	{r7, lr}
 1528              		.cfi_def_cfa_offset 8
 1529              		.cfi_offset 7, -8
 1530              		.cfi_offset 14, -4
 1531 0002 82B0     		sub	sp, sp, #8
 1532              		.cfi_def_cfa_offset 16
 1533 0004 00AF     		add	r7, sp, #0
 1534              		.cfi_def_cfa_register 7
 1535 0006 7860     		str	r0, [r7, #4]
 160:.\src/waterControl.c **** 	water_data.NumStarts = val;
 1536              		.loc 1 160 0
 1537 0008 024B     		ldr	r3, .L126
 1538 000a 7A68     		ldr	r2, [r7, #4]
 1539 000c 9A62     		str	r2, [r3, #40]
 161:.\src/waterControl.c **** }
 1540              		.loc 1 161 0
ARM GAS  C:\Users\SDEVAS~1\AppData\Local\Temp\ccOTp3Ub.s 			page 31


 1541 000e BD46     		mov	sp, r7
 1542 0010 02B0     		add	sp, sp, #8
 1543              		@ sp needed
 1544 0012 80BD     		pop	{r7, pc}
 1545              	.L127:
 1546              		.align	2
 1547              	.L126:
 1548 0014 00000000 		.word	water_data
 1549              		.cfi_endproc
 1550              	.LFE74:
 1551              		.size	setvar_numStarts, .-setvar_numStarts
 1552              		.section	.text.setvar_volPerStart,"ax",%progbits
 1553              		.align	2
 1554              		.global	setvar_volPerStart
 1555              		.code	16
 1556              		.thumb_func
 1557              		.type	setvar_volPerStart, %function
 1558              	setvar_volPerStart:
 1559              	.LFB75:
 162:.\src/waterControl.c **** void setvar_volPerStart(int val) {
 1560              		.loc 1 162 0
 1561              		.cfi_startproc
 1562 0000 80B5     		push	{r7, lr}
 1563              		.cfi_def_cfa_offset 8
 1564              		.cfi_offset 7, -8
 1565              		.cfi_offset 14, -4
 1566 0002 82B0     		sub	sp, sp, #8
 1567              		.cfi_def_cfa_offset 16
 1568 0004 00AF     		add	r7, sp, #0
 1569              		.cfi_def_cfa_register 7
 1570 0006 7860     		str	r0, [r7, #4]
 163:.\src/waterControl.c **** 	water_data.VolPerStart = val;
 1571              		.loc 1 163 0
 1572 0008 024B     		ldr	r3, .L129
 1573 000a 7A68     		ldr	r2, [r7, #4]
 1574 000c DA62     		str	r2, [r3, #44]
 164:.\src/waterControl.c **** }
 1575              		.loc 1 164 0
 1576 000e BD46     		mov	sp, r7
 1577 0010 02B0     		add	sp, sp, #8
 1578              		@ sp needed
 1579 0012 80BD     		pop	{r7, pc}
 1580              	.L130:
 1581              		.align	2
 1582              	.L129:
 1583 0014 00000000 		.word	water_data
 1584              		.cfi_endproc
 1585              	.LFE75:
 1586              		.size	setvar_volPerStart, .-setvar_volPerStart
 1587              		.section	.text.setvar_maxVol,"ax",%progbits
 1588              		.align	2
 1589              		.global	setvar_maxVol
 1590              		.code	16
 1591              		.thumb_func
 1592              		.type	setvar_maxVol, %function
 1593              	setvar_maxVol:
 1594              	.LFB76:
ARM GAS  C:\Users\SDEVAS~1\AppData\Local\Temp\ccOTp3Ub.s 			page 32


 165:.\src/waterControl.c **** void setvar_maxVol(int val) {
 1595              		.loc 1 165 0
 1596              		.cfi_startproc
 1597 0000 80B5     		push	{r7, lr}
 1598              		.cfi_def_cfa_offset 8
 1599              		.cfi_offset 7, -8
 1600              		.cfi_offset 14, -4
 1601 0002 82B0     		sub	sp, sp, #8
 1602              		.cfi_def_cfa_offset 16
 1603 0004 00AF     		add	r7, sp, #0
 1604              		.cfi_def_cfa_register 7
 1605 0006 7860     		str	r0, [r7, #4]
 166:.\src/waterControl.c **** 	water_data.MaxVol = val;
 1606              		.loc 1 166 0
 1607 0008 024B     		ldr	r3, .L132
 1608 000a 7A68     		ldr	r2, [r7, #4]
 1609 000c 1A63     		str	r2, [r3, #48]
 167:.\src/waterControl.c **** }
 1610              		.loc 1 167 0
 1611 000e BD46     		mov	sp, r7
 1612 0010 02B0     		add	sp, sp, #8
 1613              		@ sp needed
 1614 0012 80BD     		pop	{r7, pc}
 1615              	.L133:
 1616              		.align	2
 1617              	.L132:
 1618 0014 00000000 		.word	water_data
 1619              		.cfi_endproc
 1620              	.LFE76:
 1621              		.size	setvar_maxVol, .-setvar_maxVol
 1622              		.section	.text.setvar_minVol,"ax",%progbits
 1623              		.align	2
 1624              		.global	setvar_minVol
 1625              		.code	16
 1626              		.thumb_func
 1627              		.type	setvar_minVol, %function
 1628              	setvar_minVol:
 1629              	.LFB77:
 168:.\src/waterControl.c **** void setvar_minVol(int val) {
 1630              		.loc 1 168 0
 1631              		.cfi_startproc
 1632 0000 80B5     		push	{r7, lr}
 1633              		.cfi_def_cfa_offset 8
 1634              		.cfi_offset 7, -8
 1635              		.cfi_offset 14, -4
 1636 0002 82B0     		sub	sp, sp, #8
 1637              		.cfi_def_cfa_offset 16
 1638 0004 00AF     		add	r7, sp, #0
 1639              		.cfi_def_cfa_register 7
 1640 0006 7860     		str	r0, [r7, #4]
 169:.\src/waterControl.c **** 	water_data.MinVol = val;
 1641              		.loc 1 169 0
 1642 0008 024B     		ldr	r3, .L135
 1643 000a 7A68     		ldr	r2, [r7, #4]
 1644 000c 5A63     		str	r2, [r3, #52]
 170:.\src/waterControl.c **** }
 1645              		.loc 1 170 0
ARM GAS  C:\Users\SDEVAS~1\AppData\Local\Temp\ccOTp3Ub.s 			page 33


 1646 000e BD46     		mov	sp, r7
 1647 0010 02B0     		add	sp, sp, #8
 1648              		@ sp needed
 1649 0012 80BD     		pop	{r7, pc}
 1650              	.L136:
 1651              		.align	2
 1652              	.L135:
 1653 0014 00000000 		.word	water_data
 1654              		.cfi_endproc
 1655              	.LFE77:
 1656              		.size	setvar_minVol, .-setvar_minVol
 1657              		.section	.text.getvar_notBefore,"ax",%progbits
 1658              		.align	2
 1659              		.global	getvar_notBefore
 1660              		.code	16
 1661              		.thumb_func
 1662              		.type	getvar_notBefore, %function
 1663              	getvar_notBefore:
 1664              	.LFB78:
 171:.\src/waterControl.c **** 
 172:.\src/waterControl.c **** int getvar_notBefore(void) { return water_data.NotBefore; }
 1665              		.loc 1 172 0
 1666              		.cfi_startproc
 1667 0000 80B5     		push	{r7, lr}
 1668              		.cfi_def_cfa_offset 8
 1669              		.cfi_offset 7, -8
 1670              		.cfi_offset 14, -4
 1671 0002 00AF     		add	r7, sp, #0
 1672              		.cfi_def_cfa_register 7
 1673              		.loc 1 172 0
 1674 0004 024A     		ldr	r2, .L139
 1675 0006 D823     		mov	r3, #216
 1676 0008 D358     		ldr	r3, [r2, r3]
 1677 000a 181C     		mov	r0, r3
 1678 000c BD46     		mov	sp, r7
 1679              		@ sp needed
 1680 000e 80BD     		pop	{r7, pc}
 1681              	.L140:
 1682              		.align	2
 1683              	.L139:
 1684 0010 00000000 		.word	water_data
 1685              		.cfi_endproc
 1686              	.LFE78:
 1687              		.size	getvar_notBefore, .-getvar_notBefore
 1688              		.section	.text.getvar_notAfter,"ax",%progbits
 1689              		.align	2
 1690              		.global	getvar_notAfter
 1691              		.code	16
 1692              		.thumb_func
 1693              		.type	getvar_notAfter, %function
 1694              	getvar_notAfter:
 1695              	.LFB79:
 173:.\src/waterControl.c **** int getvar_notAfter(void) { return water_data.NotAfter; }
 1696              		.loc 1 173 0
 1697              		.cfi_startproc
 1698 0000 80B5     		push	{r7, lr}
 1699              		.cfi_def_cfa_offset 8
ARM GAS  C:\Users\SDEVAS~1\AppData\Local\Temp\ccOTp3Ub.s 			page 34


 1700              		.cfi_offset 7, -8
 1701              		.cfi_offset 14, -4
 1702 0002 00AF     		add	r7, sp, #0
 1703              		.cfi_def_cfa_register 7
 1704              		.loc 1 173 0
 1705 0004 024A     		ldr	r2, .L143
 1706 0006 DC23     		mov	r3, #220
 1707 0008 D358     		ldr	r3, [r2, r3]
 1708 000a 181C     		mov	r0, r3
 1709 000c BD46     		mov	sp, r7
 1710              		@ sp needed
 1711 000e 80BD     		pop	{r7, pc}
 1712              	.L144:
 1713              		.align	2
 1714              	.L143:
 1715 0010 00000000 		.word	water_data
 1716              		.cfi_endproc
 1717              	.LFE79:
 1718              		.size	getvar_notAfter, .-getvar_notAfter
 1719              		.section	.text.getvar_dilutionFactorA,"ax",%progbits
 1720              		.align	2
 1721              		.global	getvar_dilutionFactorA
 1722              		.code	16
 1723              		.thumb_func
 1724              		.type	getvar_dilutionFactorA, %function
 1725              	getvar_dilutionFactorA:
 1726              	.LFB80:
 174:.\src/waterControl.c **** int getvar_dilutionFactorA(void) { return water_data.DilutionFactorA; }
 1727              		.loc 1 174 0
 1728              		.cfi_startproc
 1729 0000 80B5     		push	{r7, lr}
 1730              		.cfi_def_cfa_offset 8
 1731              		.cfi_offset 7, -8
 1732              		.cfi_offset 14, -4
 1733 0002 00AF     		add	r7, sp, #0
 1734              		.cfi_def_cfa_register 7
 1735              		.loc 1 174 0
 1736 0004 024A     		ldr	r2, .L147
 1737 0006 E023     		mov	r3, #224
 1738 0008 D358     		ldr	r3, [r2, r3]
 1739 000a 181C     		mov	r0, r3
 1740 000c BD46     		mov	sp, r7
 1741              		@ sp needed
 1742 000e 80BD     		pop	{r7, pc}
 1743              	.L148:
 1744              		.align	2
 1745              	.L147:
 1746 0010 00000000 		.word	water_data
 1747              		.cfi_endproc
 1748              	.LFE80:
 1749              		.size	getvar_dilutionFactorA, .-getvar_dilutionFactorA
 1750              		.section	.text.getvar_dilutionFactorB,"ax",%progbits
 1751              		.align	2
 1752              		.global	getvar_dilutionFactorB
 1753              		.code	16
 1754              		.thumb_func
 1755              		.type	getvar_dilutionFactorB, %function
ARM GAS  C:\Users\SDEVAS~1\AppData\Local\Temp\ccOTp3Ub.s 			page 35


 1756              	getvar_dilutionFactorB:
 1757              	.LFB81:
 175:.\src/waterControl.c **** int getvar_dilutionFactorB(void) { return water_data.DilutionFactorB; }
 1758              		.loc 1 175 0
 1759              		.cfi_startproc
 1760 0000 80B5     		push	{r7, lr}
 1761              		.cfi_def_cfa_offset 8
 1762              		.cfi_offset 7, -8
 1763              		.cfi_offset 14, -4
 1764 0002 00AF     		add	r7, sp, #0
 1765              		.cfi_def_cfa_register 7
 1766              		.loc 1 175 0
 1767 0004 024A     		ldr	r2, .L151
 1768 0006 E423     		mov	r3, #228
 1769 0008 D358     		ldr	r3, [r2, r3]
 1770 000a 181C     		mov	r0, r3
 1771 000c BD46     		mov	sp, r7
 1772              		@ sp needed
 1773 000e 80BD     		pop	{r7, pc}
 1774              	.L152:
 1775              		.align	2
 1776              	.L151:
 1777 0010 00000000 		.word	water_data
 1778              		.cfi_endproc
 1779              	.LFE81:
 1780              		.size	getvar_dilutionFactorB, .-getvar_dilutionFactorB
 1781              		.section	.text.getvar_venturiSuctionA,"ax",%progbits
 1782              		.align	2
 1783              		.global	getvar_venturiSuctionA
 1784              		.code	16
 1785              		.thumb_func
 1786              		.type	getvar_venturiSuctionA, %function
 1787              	getvar_venturiSuctionA:
 1788              	.LFB82:
 176:.\src/waterControl.c **** int getvar_venturiSuctionA(void) { return water_data.VenturiSuctionA; }
 1789              		.loc 1 176 0
 1790              		.cfi_startproc
 1791 0000 80B5     		push	{r7, lr}
 1792              		.cfi_def_cfa_offset 8
 1793              		.cfi_offset 7, -8
 1794              		.cfi_offset 14, -4
 1795 0002 00AF     		add	r7, sp, #0
 1796              		.cfi_def_cfa_register 7
 1797              		.loc 1 176 0
 1798 0004 024A     		ldr	r2, .L155
 1799 0006 E823     		mov	r3, #232
 1800 0008 D358     		ldr	r3, [r2, r3]
 1801 000a 181C     		mov	r0, r3
 1802 000c BD46     		mov	sp, r7
 1803              		@ sp needed
 1804 000e 80BD     		pop	{r7, pc}
 1805              	.L156:
 1806              		.align	2
 1807              	.L155:
 1808 0010 00000000 		.word	water_data
 1809              		.cfi_endproc
 1810              	.LFE82:
ARM GAS  C:\Users\SDEVAS~1\AppData\Local\Temp\ccOTp3Ub.s 			page 36


 1811              		.size	getvar_venturiSuctionA, .-getvar_venturiSuctionA
 1812              		.section	.text.getvar_venturiSuctionB,"ax",%progbits
 1813              		.align	2
 1814              		.global	getvar_venturiSuctionB
 1815              		.code	16
 1816              		.thumb_func
 1817              		.type	getvar_venturiSuctionB, %function
 1818              	getvar_venturiSuctionB:
 1819              	.LFB83:
 177:.\src/waterControl.c **** int getvar_venturiSuctionB(void) { return water_data.VenturiSuctionB; }
 1820              		.loc 1 177 0
 1821              		.cfi_startproc
 1822 0000 80B5     		push	{r7, lr}
 1823              		.cfi_def_cfa_offset 8
 1824              		.cfi_offset 7, -8
 1825              		.cfi_offset 14, -4
 1826 0002 00AF     		add	r7, sp, #0
 1827              		.cfi_def_cfa_register 7
 1828              		.loc 1 177 0
 1829 0004 024A     		ldr	r2, .L159
 1830 0006 EC23     		mov	r3, #236
 1831 0008 D358     		ldr	r3, [r2, r3]
 1832 000a 181C     		mov	r0, r3
 1833 000c BD46     		mov	sp, r7
 1834              		@ sp needed
 1835 000e 80BD     		pop	{r7, pc}
 1836              	.L160:
 1837              		.align	2
 1838              	.L159:
 1839 0010 00000000 		.word	water_data
 1840              		.cfi_endproc
 1841              	.LFE83:
 1842              		.size	getvar_venturiSuctionB, .-getvar_venturiSuctionB
 1843              		.section	.text.getvar_squareMeters,"ax",%progbits
 1844              		.align	2
 1845              		.global	getvar_squareMeters
 1846              		.code	16
 1847              		.thumb_func
 1848              		.type	getvar_squareMeters, %function
 1849              	getvar_squareMeters:
 1850              	.LFB84:
 178:.\src/waterControl.c **** int getvar_squareMeters(void) { return water_data.SquareMeters; }
 1851              		.loc 1 178 0
 1852              		.cfi_startproc
 1853 0000 80B5     		push	{r7, lr}
 1854              		.cfi_def_cfa_offset 8
 1855              		.cfi_offset 7, -8
 1856              		.cfi_offset 14, -4
 1857 0002 00AF     		add	r7, sp, #0
 1858              		.cfi_def_cfa_register 7
 1859              		.loc 1 178 0
 1860 0004 024A     		ldr	r2, .L163
 1861 0006 F023     		mov	r3, #240
 1862 0008 D358     		ldr	r3, [r2, r3]
 1863 000a 181C     		mov	r0, r3
 1864 000c BD46     		mov	sp, r7
 1865              		@ sp needed
ARM GAS  C:\Users\SDEVAS~1\AppData\Local\Temp\ccOTp3Ub.s 			page 37


 1866 000e 80BD     		pop	{r7, pc}
 1867              	.L164:
 1868              		.align	2
 1869              	.L163:
 1870 0010 00000000 		.word	water_data
 1871              		.cfi_endproc
 1872              	.LFE84:
 1873              		.size	getvar_squareMeters, .-getvar_squareMeters
 1874              		.section	.text.getvar_lPerSqMeterPerDay,"ax",%progbits
 1875              		.align	2
 1876              		.global	getvar_lPerSqMeterPerDay
 1877              		.code	16
 1878              		.thumb_func
 1879              		.type	getvar_lPerSqMeterPerDay, %function
 1880              	getvar_lPerSqMeterPerDay:
 1881              	.LFB85:
 179:.\src/waterControl.c **** int getvar_lPerSqMeterPerDay(void) { return water_data.LperSqMeterPerDay; }
 1882              		.loc 1 179 0
 1883              		.cfi_startproc
 1884 0000 80B5     		push	{r7, lr}
 1885              		.cfi_def_cfa_offset 8
 1886              		.cfi_offset 7, -8
 1887              		.cfi_offset 14, -4
 1888 0002 00AF     		add	r7, sp, #0
 1889              		.cfi_def_cfa_register 7
 1890              		.loc 1 179 0
 1891 0004 024A     		ldr	r2, .L167
 1892 0006 F423     		mov	r3, #244
 1893 0008 D358     		ldr	r3, [r2, r3]
 1894 000a 181C     		mov	r0, r3
 1895 000c BD46     		mov	sp, r7
 1896              		@ sp needed
 1897 000e 80BD     		pop	{r7, pc}
 1898              	.L168:
 1899              		.align	2
 1900              	.L167:
 1901 0010 00000000 		.word	water_data
 1902              		.cfi_endproc
 1903              	.LFE85:
 1904              		.size	getvar_lPerSqMeterPerDay, .-getvar_lPerSqMeterPerDay
 1905              		.section	.text.getvar_cropType,"ax",%progbits
 1906              		.align	2
 1907              		.global	getvar_cropType
 1908              		.code	16
 1909              		.thumb_func
 1910              		.type	getvar_cropType, %function
 1911              	getvar_cropType:
 1912              	.LFB86:
 180:.\src/waterControl.c **** int getvar_cropType(void) { return water_data.CropType; }
 1913              		.loc 1 180 0
 1914              		.cfi_startproc
 1915 0000 80B5     		push	{r7, lr}
 1916              		.cfi_def_cfa_offset 8
 1917              		.cfi_offset 7, -8
 1918              		.cfi_offset 14, -4
 1919 0002 00AF     		add	r7, sp, #0
 1920              		.cfi_def_cfa_register 7
ARM GAS  C:\Users\SDEVAS~1\AppData\Local\Temp\ccOTp3Ub.s 			page 38


 1921              		.loc 1 180 0
 1922 0004 024A     		ldr	r2, .L171
 1923 0006 F823     		mov	r3, #248
 1924 0008 D358     		ldr	r3, [r2, r3]
 1925 000a 181C     		mov	r0, r3
 1926 000c BD46     		mov	sp, r7
 1927              		@ sp needed
 1928 000e 80BD     		pop	{r7, pc}
 1929              	.L172:
 1930              		.align	2
 1931              	.L171:
 1932 0010 00000000 		.word	water_data
 1933              		.cfi_endproc
 1934              	.LFE86:
 1935              		.size	getvar_cropType, .-getvar_cropType
 1936              		.section	.text.getvar_innerPressure,"ax",%progbits
 1937              		.align	2
 1938              		.global	getvar_innerPressure
 1939              		.code	16
 1940              		.thumb_func
 1941              		.type	getvar_innerPressure, %function
 1942              	getvar_innerPressure:
 1943              	.LFB87:
 181:.\src/waterControl.c **** 
 182:.\src/waterControl.c **** int getvar_innerPressure(void) { return water_data.InnerPressure; }
 1944              		.loc 1 182 0
 1945              		.cfi_startproc
 1946 0000 80B5     		push	{r7, lr}
 1947              		.cfi_def_cfa_offset 8
 1948              		.cfi_offset 7, -8
 1949              		.cfi_offset 14, -4
 1950 0002 00AF     		add	r7, sp, #0
 1951              		.cfi_def_cfa_register 7
 1952              		.loc 1 182 0
 1953 0004 024B     		ldr	r3, .L175
 1954 0006 1B68     		ldr	r3, [r3]
 1955 0008 181C     		mov	r0, r3
 1956 000a BD46     		mov	sp, r7
 1957              		@ sp needed
 1958 000c 80BD     		pop	{r7, pc}
 1959              	.L176:
 1960 000e C046     		.align	2
 1961              	.L175:
 1962 0010 00000000 		.word	water_data
 1963              		.cfi_endproc
 1964              	.LFE87:
 1965              		.size	getvar_innerPressure, .-getvar_innerPressure
 1966              		.section	.text.getvar_outerPressure,"ax",%progbits
 1967              		.align	2
 1968              		.global	getvar_outerPressure
 1969              		.code	16
 1970              		.thumb_func
 1971              		.type	getvar_outerPressure, %function
 1972              	getvar_outerPressure:
 1973              	.LFB88:
 183:.\src/waterControl.c **** int getvar_outerPressure(void) { return water_data.OuterPressure; }
 1974              		.loc 1 183 0
ARM GAS  C:\Users\SDEVAS~1\AppData\Local\Temp\ccOTp3Ub.s 			page 39


 1975              		.cfi_startproc
 1976 0000 80B5     		push	{r7, lr}
 1977              		.cfi_def_cfa_offset 8
 1978              		.cfi_offset 7, -8
 1979              		.cfi_offset 14, -4
 1980 0002 00AF     		add	r7, sp, #0
 1981              		.cfi_def_cfa_register 7
 1982              		.loc 1 183 0
 1983 0004 024B     		ldr	r3, .L179
 1984 0006 5B68     		ldr	r3, [r3, #4]
 1985 0008 181C     		mov	r0, r3
 1986 000a BD46     		mov	sp, r7
 1987              		@ sp needed
 1988 000c 80BD     		pop	{r7, pc}
 1989              	.L180:
 1990 000e C046     		.align	2
 1991              	.L179:
 1992 0010 00000000 		.word	water_data
 1993              		.cfi_endproc
 1994              	.LFE88:
 1995              		.size	getvar_outerPressure, .-getvar_outerPressure
 1996              		.section	.text.getvar_currentFlow,"ax",%progbits
 1997              		.align	2
 1998              		.global	getvar_currentFlow
 1999              		.code	16
 2000              		.thumb_func
 2001              		.type	getvar_currentFlow, %function
 2002              	getvar_currentFlow:
 2003              	.LFB89:
 184:.\src/waterControl.c **** int getvar_currentFlow(void) { return water_data.CurrentFlow; }
 2004              		.loc 1 184 0
 2005              		.cfi_startproc
 2006 0000 80B5     		push	{r7, lr}
 2007              		.cfi_def_cfa_offset 8
 2008              		.cfi_offset 7, -8
 2009              		.cfi_offset 14, -4
 2010 0002 00AF     		add	r7, sp, #0
 2011              		.cfi_def_cfa_register 7
 2012              		.loc 1 184 0
 2013 0004 024B     		ldr	r3, .L183
 2014 0006 9B68     		ldr	r3, [r3, #8]
 2015 0008 181C     		mov	r0, r3
 2016 000a BD46     		mov	sp, r7
 2017              		@ sp needed
 2018 000c 80BD     		pop	{r7, pc}
 2019              	.L184:
 2020 000e C046     		.align	2
 2021              	.L183:
 2022 0010 00000000 		.word	water_data
 2023              		.cfi_endproc
 2024              	.LFE89:
 2025              		.size	getvar_currentFlow, .-getvar_currentFlow
 2026              		.section	.text.getvar_totalVolume,"ax",%progbits
 2027              		.align	2
 2028              		.global	getvar_totalVolume
 2029              		.code	16
 2030              		.thumb_func
ARM GAS  C:\Users\SDEVAS~1\AppData\Local\Temp\ccOTp3Ub.s 			page 40


 2031              		.type	getvar_totalVolume, %function
 2032              	getvar_totalVolume:
 2033              	.LFB90:
 185:.\src/waterControl.c **** int getvar_totalVolume(void) { return water_data.TotalVolume; }
 2034              		.loc 1 185 0
 2035              		.cfi_startproc
 2036 0000 80B5     		push	{r7, lr}
 2037              		.cfi_def_cfa_offset 8
 2038              		.cfi_offset 7, -8
 2039              		.cfi_offset 14, -4
 2040 0002 00AF     		add	r7, sp, #0
 2041              		.cfi_def_cfa_register 7
 2042              		.loc 1 185 0
 2043 0004 024B     		ldr	r3, .L187
 2044 0006 DB68     		ldr	r3, [r3, #12]
 2045 0008 181C     		mov	r0, r3
 2046 000a BD46     		mov	sp, r7
 2047              		@ sp needed
 2048 000c 80BD     		pop	{r7, pc}
 2049              	.L188:
 2050 000e C046     		.align	2
 2051              	.L187:
 2052 0010 00000000 		.word	water_data
 2053              		.cfi_endproc
 2054              	.LFE90:
 2055              		.size	getvar_totalVolume, .-getvar_totalVolume
 2056              		.section	.text.getvar_valveStatus,"ax",%progbits
 2057              		.align	2
 2058              		.global	getvar_valveStatus
 2059              		.code	16
 2060              		.thumb_func
 2061              		.type	getvar_valveStatus, %function
 2062              	getvar_valveStatus:
 2063              	.LFB91:
 186:.\src/waterControl.c **** int getvar_valveStatus(void) { return water_data.ValveStatus; }
 2064              		.loc 1 186 0
 2065              		.cfi_startproc
 2066 0000 80B5     		push	{r7, lr}
 2067              		.cfi_def_cfa_offset 8
 2068              		.cfi_offset 7, -8
 2069              		.cfi_offset 14, -4
 2070 0002 00AF     		add	r7, sp, #0
 2071              		.cfi_def_cfa_register 7
 2072              		.loc 1 186 0
 2073 0004 024B     		ldr	r3, .L191
 2074 0006 1B69     		ldr	r3, [r3, #16]
 2075 0008 181C     		mov	r0, r3
 2076 000a BD46     		mov	sp, r7
 2077              		@ sp needed
 2078 000c 80BD     		pop	{r7, pc}
 2079              	.L192:
 2080 000e C046     		.align	2
 2081              	.L191:
 2082 0010 00000000 		.word	water_data
 2083              		.cfi_endproc
 2084              	.LFE91:
 2085              		.size	getvar_valveStatus, .-getvar_valveStatus
ARM GAS  C:\Users\SDEVAS~1\AppData\Local\Temp\ccOTp3Ub.s 			page 41


 2086              		.section	.text.getvar_lastStartNumber,"ax",%progbits
 2087              		.align	2
 2088              		.global	getvar_lastStartNumber
 2089              		.code	16
 2090              		.thumb_func
 2091              		.type	getvar_lastStartNumber, %function
 2092              	getvar_lastStartNumber:
 2093              	.LFB92:
 187:.\src/waterControl.c **** int getvar_lastStartNumber(void) { return water_data.LastStartNumber; }
 2094              		.loc 1 187 0
 2095              		.cfi_startproc
 2096 0000 80B5     		push	{r7, lr}
 2097              		.cfi_def_cfa_offset 8
 2098              		.cfi_offset 7, -8
 2099              		.cfi_offset 14, -4
 2100 0002 00AF     		add	r7, sp, #0
 2101              		.cfi_def_cfa_register 7
 2102              		.loc 1 187 0
 2103 0004 024B     		ldr	r3, .L195
 2104 0006 5B69     		ldr	r3, [r3, #20]
 2105 0008 181C     		mov	r0, r3
 2106 000a BD46     		mov	sp, r7
 2107              		@ sp needed
 2108 000c 80BD     		pop	{r7, pc}
 2109              	.L196:
 2110 000e C046     		.align	2
 2111              	.L195:
 2112 0010 00000000 		.word	water_data
 2113              		.cfi_endproc
 2114              	.LFE92:
 2115              		.size	getvar_lastStartNumber, .-getvar_lastStartNumber
 2116              		.section	.text.getvar_lastStartVolume,"ax",%progbits
 2117              		.align	2
 2118              		.global	getvar_lastStartVolume
 2119              		.code	16
 2120              		.thumb_func
 2121              		.type	getvar_lastStartVolume, %function
 2122              	getvar_lastStartVolume:
 2123              	.LFB93:
 188:.\src/waterControl.c **** int getvar_lastStartVolume(void) { return water_data.LastStartVolume; }
 2124              		.loc 1 188 0
 2125              		.cfi_startproc
 2126 0000 80B5     		push	{r7, lr}
 2127              		.cfi_def_cfa_offset 8
 2128              		.cfi_offset 7, -8
 2129              		.cfi_offset 14, -4
 2130 0002 00AF     		add	r7, sp, #0
 2131              		.cfi_def_cfa_register 7
 2132              		.loc 1 188 0
 2133 0004 024B     		ldr	r3, .L199
 2134 0006 9B69     		ldr	r3, [r3, #24]
 2135 0008 181C     		mov	r0, r3
 2136 000a BD46     		mov	sp, r7
 2137              		@ sp needed
 2138 000c 80BD     		pop	{r7, pc}
 2139              	.L200:
 2140 000e C046     		.align	2
ARM GAS  C:\Users\SDEVAS~1\AppData\Local\Temp\ccOTp3Ub.s 			page 42


 2141              	.L199:
 2142 0010 00000000 		.word	water_data
 2143              		.cfi_endproc
 2144              	.LFE93:
 2145              		.size	getvar_lastStartVolume, .-getvar_lastStartVolume
 2146              		.section	.text.getvar_lastStartFlow,"ax",%progbits
 2147              		.align	2
 2148              		.global	getvar_lastStartFlow
 2149              		.code	16
 2150              		.thumb_func
 2151              		.type	getvar_lastStartFlow, %function
 2152              	getvar_lastStartFlow:
 2153              	.LFB94:
 189:.\src/waterControl.c **** int getvar_lastStartFlow(void) { return water_data.LastStartFlow; }
 2154              		.loc 1 189 0
 2155              		.cfi_startproc
 2156 0000 80B5     		push	{r7, lr}
 2157              		.cfi_def_cfa_offset 8
 2158              		.cfi_offset 7, -8
 2159              		.cfi_offset 14, -4
 2160 0002 00AF     		add	r7, sp, #0
 2161              		.cfi_def_cfa_register 7
 2162              		.loc 1 189 0
 2163 0004 024B     		ldr	r3, .L203
 2164 0006 DB69     		ldr	r3, [r3, #28]
 2165 0008 181C     		mov	r0, r3
 2166 000a BD46     		mov	sp, r7
 2167              		@ sp needed
 2168 000c 80BD     		pop	{r7, pc}
 2169              	.L204:
 2170 000e C046     		.align	2
 2171              	.L203:
 2172 0010 00000000 		.word	water_data
 2173              		.cfi_endproc
 2174              	.LFE94:
 2175              		.size	getvar_lastStartFlow, .-getvar_lastStartFlow
 2176              		.section	.text.getvar_startTime,"ax",%progbits
 2177              		.align	2
 2178              		.global	getvar_startTime
 2179              		.code	16
 2180              		.thumb_func
 2181              		.type	getvar_startTime, %function
 2182              	getvar_startTime:
 2183              	.LFB95:
 190:.\src/waterControl.c **** int getvar_startTime(void) { return water_data.StartTime; }
 2184              		.loc 1 190 0
 2185              		.cfi_startproc
 2186 0000 80B5     		push	{r7, lr}
 2187              		.cfi_def_cfa_offset 8
 2188              		.cfi_offset 7, -8
 2189              		.cfi_offset 14, -4
 2190 0002 00AF     		add	r7, sp, #0
 2191              		.cfi_def_cfa_register 7
 2192              		.loc 1 190 0
 2193 0004 024B     		ldr	r3, .L207
 2194 0006 1B6A     		ldr	r3, [r3, #32]
 2195 0008 181C     		mov	r0, r3
ARM GAS  C:\Users\SDEVAS~1\AppData\Local\Temp\ccOTp3Ub.s 			page 43


 2196 000a BD46     		mov	sp, r7
 2197              		@ sp needed
 2198 000c 80BD     		pop	{r7, pc}
 2199              	.L208:
 2200 000e C046     		.align	2
 2201              	.L207:
 2202 0010 00000000 		.word	water_data
 2203              		.cfi_endproc
 2204              	.LFE95:
 2205              		.size	getvar_startTime, .-getvar_startTime
 2206              		.section	.text.getvar_stopTime,"ax",%progbits
 2207              		.align	2
 2208              		.global	getvar_stopTime
 2209              		.code	16
 2210              		.thumb_func
 2211              		.type	getvar_stopTime, %function
 2212              	getvar_stopTime:
 2213              	.LFB96:
 191:.\src/waterControl.c **** int getvar_stopTime(void) { return water_data.StopTime; }
 2214              		.loc 1 191 0
 2215              		.cfi_startproc
 2216 0000 80B5     		push	{r7, lr}
 2217              		.cfi_def_cfa_offset 8
 2218              		.cfi_offset 7, -8
 2219              		.cfi_offset 14, -4
 2220 0002 00AF     		add	r7, sp, #0
 2221              		.cfi_def_cfa_register 7
 2222              		.loc 1 191 0
 2223 0004 024B     		ldr	r3, .L211
 2224 0006 5B6A     		ldr	r3, [r3, #36]
 2225 0008 181C     		mov	r0, r3
 2226 000a BD46     		mov	sp, r7
 2227              		@ sp needed
 2228 000c 80BD     		pop	{r7, pc}
 2229              	.L212:
 2230 000e C046     		.align	2
 2231              	.L211:
 2232 0010 00000000 		.word	water_data
 2233              		.cfi_endproc
 2234              	.LFE96:
 2235              		.size	getvar_stopTime, .-getvar_stopTime
 2236              		.section	.text.getvar_numStarts,"ax",%progbits
 2237              		.align	2
 2238              		.global	getvar_numStarts
 2239              		.code	16
 2240              		.thumb_func
 2241              		.type	getvar_numStarts, %function
 2242              	getvar_numStarts:
 2243              	.LFB97:
 192:.\src/waterControl.c **** int getvar_numStarts(void) { return water_data.NumStarts; }
 2244              		.loc 1 192 0
 2245              		.cfi_startproc
 2246 0000 80B5     		push	{r7, lr}
 2247              		.cfi_def_cfa_offset 8
 2248              		.cfi_offset 7, -8
 2249              		.cfi_offset 14, -4
 2250 0002 00AF     		add	r7, sp, #0
ARM GAS  C:\Users\SDEVAS~1\AppData\Local\Temp\ccOTp3Ub.s 			page 44


 2251              		.cfi_def_cfa_register 7
 2252              		.loc 1 192 0
 2253 0004 024B     		ldr	r3, .L215
 2254 0006 9B6A     		ldr	r3, [r3, #40]
 2255 0008 181C     		mov	r0, r3
 2256 000a BD46     		mov	sp, r7
 2257              		@ sp needed
 2258 000c 80BD     		pop	{r7, pc}
 2259              	.L216:
 2260 000e C046     		.align	2
 2261              	.L215:
 2262 0010 00000000 		.word	water_data
 2263              		.cfi_endproc
 2264              	.LFE97:
 2265              		.size	getvar_numStarts, .-getvar_numStarts
 2266              		.section	.text.getvar_volPerStart,"ax",%progbits
 2267              		.align	2
 2268              		.global	getvar_volPerStart
 2269              		.code	16
 2270              		.thumb_func
 2271              		.type	getvar_volPerStart, %function
 2272              	getvar_volPerStart:
 2273              	.LFB98:
 193:.\src/waterControl.c **** int getvar_volPerStart(void) { return water_data.VolPerStart; }
 2274              		.loc 1 193 0
 2275              		.cfi_startproc
 2276 0000 80B5     		push	{r7, lr}
 2277              		.cfi_def_cfa_offset 8
 2278              		.cfi_offset 7, -8
 2279              		.cfi_offset 14, -4
 2280 0002 00AF     		add	r7, sp, #0
 2281              		.cfi_def_cfa_register 7
 2282              		.loc 1 193 0
 2283 0004 024B     		ldr	r3, .L219
 2284 0006 DB6A     		ldr	r3, [r3, #44]
 2285 0008 181C     		mov	r0, r3
 2286 000a BD46     		mov	sp, r7
 2287              		@ sp needed
 2288 000c 80BD     		pop	{r7, pc}
 2289              	.L220:
 2290 000e C046     		.align	2
 2291              	.L219:
 2292 0010 00000000 		.word	water_data
 2293              		.cfi_endproc
 2294              	.LFE98:
 2295              		.size	getvar_volPerStart, .-getvar_volPerStart
 2296              		.section	.text.getvar_maxVol,"ax",%progbits
 2297              		.align	2
 2298              		.global	getvar_maxVol
 2299              		.code	16
 2300              		.thumb_func
 2301              		.type	getvar_maxVol, %function
 2302              	getvar_maxVol:
 2303              	.LFB99:
 194:.\src/waterControl.c **** int getvar_maxVol(void) { return water_data.MaxVol; }
 2304              		.loc 1 194 0
 2305              		.cfi_startproc
ARM GAS  C:\Users\SDEVAS~1\AppData\Local\Temp\ccOTp3Ub.s 			page 45


 2306 0000 80B5     		push	{r7, lr}
 2307              		.cfi_def_cfa_offset 8
 2308              		.cfi_offset 7, -8
 2309              		.cfi_offset 14, -4
 2310 0002 00AF     		add	r7, sp, #0
 2311              		.cfi_def_cfa_register 7
 2312              		.loc 1 194 0
 2313 0004 024B     		ldr	r3, .L223
 2314 0006 1B6B     		ldr	r3, [r3, #48]
 2315 0008 181C     		mov	r0, r3
 2316 000a BD46     		mov	sp, r7
 2317              		@ sp needed
 2318 000c 80BD     		pop	{r7, pc}
 2319              	.L224:
 2320 000e C046     		.align	2
 2321              	.L223:
 2322 0010 00000000 		.word	water_data
 2323              		.cfi_endproc
 2324              	.LFE99:
 2325              		.size	getvar_maxVol, .-getvar_maxVol
 2326              		.section	.text.getvar_minVol,"ax",%progbits
 2327              		.align	2
 2328              		.global	getvar_minVol
 2329              		.code	16
 2330              		.thumb_func
 2331              		.type	getvar_minVol, %function
 2332              	getvar_minVol:
 2333              	.LFB100:
 195:.\src/waterControl.c **** int getvar_minVol(void) { return water_data.MinVol; }
 2334              		.loc 1 195 0
 2335              		.cfi_startproc
 2336 0000 80B5     		push	{r7, lr}
 2337              		.cfi_def_cfa_offset 8
 2338              		.cfi_offset 7, -8
 2339              		.cfi_offset 14, -4
 2340 0002 00AF     		add	r7, sp, #0
 2341              		.cfi_def_cfa_register 7
 2342              		.loc 1 195 0
 2343 0004 024B     		ldr	r3, .L227
 2344 0006 5B6B     		ldr	r3, [r3, #52]
 2345 0008 181C     		mov	r0, r3
 2346 000a BD46     		mov	sp, r7
 2347              		@ sp needed
 2348 000c 80BD     		pop	{r7, pc}
 2349              	.L228:
 2350 000e C046     		.align	2
 2351              	.L227:
 2352 0010 00000000 		.word	water_data
 2353              		.cfi_endproc
 2354              	.LFE100:
 2355              		.size	getvar_minVol, .-getvar_minVol
 2356              		.section	.rodata
 2357              		.align	2
 2358              	.LC59:
 2359 0000 7B226E22 		.ascii	"{\"n\":\"InnerPressure\",\"t\":\"i\",\"v\":\000"
 2359      3A22496E 
 2359      6E657250 
ARM GAS  C:\Users\SDEVAS~1\AppData\Local\Temp\ccOTp3Ub.s 			page 46


 2359      72657373 
 2359      75726522 
 2360 0022 0000     		.align	2
 2361              	.LC63:
 2362 0024 2C7B226E 		.ascii	",{\"n\":\"OuterPressure\",\"t\":\"i\",\"v\":\000"
 2362      223A224F 
 2362      75746572 
 2362      50726573 
 2362      73757265 
 2363 0047 00       		.align	2
 2364              	.LC65:
 2365 0048 2C7B226E 		.ascii	",{\"n\":\"CurrentFlow\",\"t\":\"i\",\"v\":\000"
 2365      223A2243 
 2365      75727265 
 2365      6E74466C 
 2365      6F77222C 
 2366 0069 000000   		.align	2
 2367              	.LC67:
 2368 006c 2C7B226E 		.ascii	",{\"n\":\"TotalVolume\",\"t\":\"i\",\"v\":\000"
 2368      223A2254 
 2368      6F74616C 
 2368      566F6C75 
 2368      6D65222C 
 2369 008d 000000   		.align	2
 2370              	.LC69:
 2371 0090 2C7B226E 		.ascii	",{\"n\":\"ValveStatus\",\"t\":\"i\",\"v\":\000"
 2371      223A2256 
 2371      616C7665 
 2371      53746174 
 2371      7573222C 
 2372 00b1 000000   		.align	2
 2373              	.LC71:
 2374 00b4 2C7B226E 		.ascii	",{\"n\":\"LastStartNumber\",\"t\":\"i\",\"v\":\000"
 2374      223A224C 
 2374      61737453 
 2374      74617274 
 2374      4E756D62 
 2375 00d9 000000   		.align	2
 2376              	.LC73:
 2377 00dc 2C7B226E 		.ascii	",{\"n\":\"LastStartVolume\",\"t\":\"i\",\"v\":\000"
 2377      223A224C 
 2377      61737453 
 2377      74617274 
 2377      566F6C75 
 2378 0101 000000   		.align	2
 2379              	.LC75:
 2380 0104 2C7B226E 		.ascii	",{\"n\":\"LastStartFlow\",\"t\":\"i\",\"v\":\000"
 2380      223A224C 
 2380      61737453 
 2380      74617274 
 2380      466C6F77 
 2381              		.section	.text.comm_GenerateInfo,"ax",%progbits
 2382              		.align	2
 2383              		.global	comm_GenerateInfo
 2384              		.code	16
 2385              		.thumb_func
 2386              		.type	comm_GenerateInfo, %function
ARM GAS  C:\Users\SDEVAS~1\AppData\Local\Temp\ccOTp3Ub.s 			page 47


 2387              	comm_GenerateInfo:
 2388              	.LFB101:
 196:.\src/waterControl.c **** 
 197:.\src/waterControl.c **** void comm_GenerateInfo(void) {
 2389              		.loc 1 197 0
 2390              		.cfi_startproc
 2391 0000 80B5     		push	{r7, lr}
 2392              		.cfi_def_cfa_offset 8
 2393              		.cfi_offset 7, -8
 2394              		.cfi_offset 14, -4
 2395 0002 82B0     		sub	sp, sp, #8
 2396              		.cfi_def_cfa_offset 16
 2397 0004 00AF     		add	r7, sp, #0
 2398              		.cfi_def_cfa_register 7
 198:.\src/waterControl.c **** 	int tmp;
 199:.\src/waterControl.c **** 
 200:.\src/waterControl.c **** 	ADD_STATIC_STRING_TO_RESP("{\"n\":\"InnerPressure\",\"t\":\"i\",\"v\":");
 2399              		.loc 1 200 0
 2400 0006 E54B     		ldr	r3, .L230
 2401 0008 1A68     		ldr	r2, [r3]
 2402 000a E54B     		ldr	r3, .L230+4
 2403 000c 101C     		mov	r0, r2
 2404 000e 191C     		mov	r1, r3
 2405 0010 2222     		mov	r2, #34
 2406 0012 FFF7FEFF 		bl	memcpy
 2407 0016 E14B     		ldr	r3, .L230
 2408 0018 1B68     		ldr	r3, [r3]
 2409 001a 1A1C     		mov	r2, r3
 2410 001c 2132     		add	r2, r2, #33
 2411 001e DF4B     		ldr	r3, .L230
 2412 0020 1A60     		str	r2, [r3]
 2413 0022 E04B     		ldr	r3, .L230+8
 2414 0024 1B68     		ldr	r3, [r3]
 2415 0026 213B     		sub	r3, r3, #33
 2416 0028 1A1C     		mov	r2, r3
 2417 002a DE4B     		ldr	r3, .L230+8
 2418 002c 1A60     		str	r2, [r3]
 201:.\src/waterControl.c **** 	tmp = conv_i2str(respEnd, respFreeSpace, water_data.InnerPressure);
 2419              		.loc 1 201 0
 2420 002e DB4B     		ldr	r3, .L230
 2421 0030 1968     		ldr	r1, [r3]
 2422 0032 DC4B     		ldr	r3, .L230+8
 2423 0034 1A68     		ldr	r2, [r3]
 2424 0036 DC4B     		ldr	r3, .L230+12
 2425 0038 1B68     		ldr	r3, [r3]
 2426 003a 081C     		mov	r0, r1
 2427 003c 111C     		mov	r1, r2
 2428 003e 1A1C     		mov	r2, r3
 2429 0040 FFF7FEFF 		bl	conv_i2str
 2430 0044 031C     		mov	r3, r0
 2431 0046 7B60     		str	r3, [r7, #4]
 202:.\src/waterControl.c **** 	respEnd += tmp;
 2432              		.loc 1 202 0
 2433 0048 D44B     		ldr	r3, .L230
 2434 004a 1A68     		ldr	r2, [r3]
 2435 004c 7B68     		ldr	r3, [r7, #4]
 2436 004e D218     		add	r2, r2, r3
ARM GAS  C:\Users\SDEVAS~1\AppData\Local\Temp\ccOTp3Ub.s 			page 48


 2437 0050 D24B     		ldr	r3, .L230
 2438 0052 1A60     		str	r2, [r3]
 203:.\src/waterControl.c **** 	respFreeSpace -= tmp;
 2439              		.loc 1 203 0
 2440 0054 D34B     		ldr	r3, .L230+8
 2441 0056 1A68     		ldr	r2, [r3]
 2442 0058 7B68     		ldr	r3, [r7, #4]
 2443 005a D21A     		sub	r2, r2, r3
 2444 005c D14B     		ldr	r3, .L230+8
 2445 005e 1A60     		str	r2, [r3]
 204:.\src/waterControl.c **** 	ADD_CHAR_TO_RESP('}');
 2446              		.loc 1 204 0
 2447 0060 CE4B     		ldr	r3, .L230
 2448 0062 1B68     		ldr	r3, [r3]
 2449 0064 591C     		add	r1, r3, #1
 2450 0066 CD4A     		ldr	r2, .L230
 2451 0068 1160     		str	r1, [r2]
 2452 006a 7D22     		mov	r2, #125
 2453 006c 1A70     		strb	r2, [r3]
 2454 006e CD4B     		ldr	r3, .L230+8
 2455 0070 1B68     		ldr	r3, [r3]
 2456 0072 5A1E     		sub	r2, r3, #1
 2457 0074 CB4B     		ldr	r3, .L230+8
 2458 0076 1A60     		str	r2, [r3]
 205:.\src/waterControl.c **** 
 206:.\src/waterControl.c **** 	ADD_STATIC_STRING_TO_RESP(",{\"n\":\"OuterPressure\",\"t\":\"i\",\"v\":");
 2459              		.loc 1 206 0
 2460 0078 C84B     		ldr	r3, .L230
 2461 007a 1A68     		ldr	r2, [r3]
 2462 007c CB4B     		ldr	r3, .L230+16
 2463 007e 101C     		mov	r0, r2
 2464 0080 191C     		mov	r1, r3
 2465 0082 2322     		mov	r2, #35
 2466 0084 FFF7FEFF 		bl	memcpy
 2467 0088 C44B     		ldr	r3, .L230
 2468 008a 1B68     		ldr	r3, [r3]
 2469 008c 1A1C     		mov	r2, r3
 2470 008e 2232     		add	r2, r2, #34
 2471 0090 C24B     		ldr	r3, .L230
 2472 0092 1A60     		str	r2, [r3]
 2473 0094 C34B     		ldr	r3, .L230+8
 2474 0096 1B68     		ldr	r3, [r3]
 2475 0098 223B     		sub	r3, r3, #34
 2476 009a 1A1C     		mov	r2, r3
 2477 009c C14B     		ldr	r3, .L230+8
 2478 009e 1A60     		str	r2, [r3]
 207:.\src/waterControl.c **** 	tmp = conv_i2str(respEnd, respFreeSpace, water_data.OuterPressure);
 2479              		.loc 1 207 0
 2480 00a0 BE4B     		ldr	r3, .L230
 2481 00a2 1968     		ldr	r1, [r3]
 2482 00a4 BF4B     		ldr	r3, .L230+8
 2483 00a6 1A68     		ldr	r2, [r3]
 2484 00a8 BF4B     		ldr	r3, .L230+12
 2485 00aa 5B68     		ldr	r3, [r3, #4]
 2486 00ac 081C     		mov	r0, r1
 2487 00ae 111C     		mov	r1, r2
 2488 00b0 1A1C     		mov	r2, r3
ARM GAS  C:\Users\SDEVAS~1\AppData\Local\Temp\ccOTp3Ub.s 			page 49


 2489 00b2 FFF7FEFF 		bl	conv_i2str
 2490 00b6 031C     		mov	r3, r0
 2491 00b8 7B60     		str	r3, [r7, #4]
 208:.\src/waterControl.c **** 	respEnd += tmp;
 2492              		.loc 1 208 0
 2493 00ba B84B     		ldr	r3, .L230
 2494 00bc 1A68     		ldr	r2, [r3]
 2495 00be 7B68     		ldr	r3, [r7, #4]
 2496 00c0 D218     		add	r2, r2, r3
 2497 00c2 B64B     		ldr	r3, .L230
 2498 00c4 1A60     		str	r2, [r3]
 209:.\src/waterControl.c **** 	respFreeSpace -= tmp;
 2499              		.loc 1 209 0
 2500 00c6 B74B     		ldr	r3, .L230+8
 2501 00c8 1A68     		ldr	r2, [r3]
 2502 00ca 7B68     		ldr	r3, [r7, #4]
 2503 00cc D21A     		sub	r2, r2, r3
 2504 00ce B54B     		ldr	r3, .L230+8
 2505 00d0 1A60     		str	r2, [r3]
 210:.\src/waterControl.c **** 	ADD_CHAR_TO_RESP('}');
 2506              		.loc 1 210 0
 2507 00d2 B24B     		ldr	r3, .L230
 2508 00d4 1B68     		ldr	r3, [r3]
 2509 00d6 591C     		add	r1, r3, #1
 2510 00d8 B04A     		ldr	r2, .L230
 2511 00da 1160     		str	r1, [r2]
 2512 00dc 7D22     		mov	r2, #125
 2513 00de 1A70     		strb	r2, [r3]
 2514 00e0 B04B     		ldr	r3, .L230+8
 2515 00e2 1B68     		ldr	r3, [r3]
 2516 00e4 5A1E     		sub	r2, r3, #1
 2517 00e6 AF4B     		ldr	r3, .L230+8
 2518 00e8 1A60     		str	r2, [r3]
 211:.\src/waterControl.c **** 
 212:.\src/waterControl.c **** 	ADD_STATIC_STRING_TO_RESP(",{\"n\":\"CurrentFlow\",\"t\":\"i\",\"v\":");
 2519              		.loc 1 212 0
 2520 00ea AC4B     		ldr	r3, .L230
 2521 00ec 1A68     		ldr	r2, [r3]
 2522 00ee B04B     		ldr	r3, .L230+20
 2523 00f0 101C     		mov	r0, r2
 2524 00f2 191C     		mov	r1, r3
 2525 00f4 2122     		mov	r2, #33
 2526 00f6 FFF7FEFF 		bl	memcpy
 2527 00fa A84B     		ldr	r3, .L230
 2528 00fc 1B68     		ldr	r3, [r3]
 2529 00fe 1A1C     		mov	r2, r3
 2530 0100 2032     		add	r2, r2, #32
 2531 0102 A64B     		ldr	r3, .L230
 2532 0104 1A60     		str	r2, [r3]
 2533 0106 A74B     		ldr	r3, .L230+8
 2534 0108 1B68     		ldr	r3, [r3]
 2535 010a 203B     		sub	r3, r3, #32
 2536 010c 1A1C     		mov	r2, r3
 2537 010e A54B     		ldr	r3, .L230+8
 2538 0110 1A60     		str	r2, [r3]
 213:.\src/waterControl.c **** 	tmp = conv_i2str(respEnd, respFreeSpace, water_data.CurrentFlow);
 2539              		.loc 1 213 0
ARM GAS  C:\Users\SDEVAS~1\AppData\Local\Temp\ccOTp3Ub.s 			page 50


 2540 0112 A24B     		ldr	r3, .L230
 2541 0114 1968     		ldr	r1, [r3]
 2542 0116 A34B     		ldr	r3, .L230+8
 2543 0118 1A68     		ldr	r2, [r3]
 2544 011a A34B     		ldr	r3, .L230+12
 2545 011c 9B68     		ldr	r3, [r3, #8]
 2546 011e 081C     		mov	r0, r1
 2547 0120 111C     		mov	r1, r2
 2548 0122 1A1C     		mov	r2, r3
 2549 0124 FFF7FEFF 		bl	conv_i2str
 2550 0128 031C     		mov	r3, r0
 2551 012a 7B60     		str	r3, [r7, #4]
 214:.\src/waterControl.c **** 	respEnd += tmp;
 2552              		.loc 1 214 0
 2553 012c 9B4B     		ldr	r3, .L230
 2554 012e 1A68     		ldr	r2, [r3]
 2555 0130 7B68     		ldr	r3, [r7, #4]
 2556 0132 D218     		add	r2, r2, r3
 2557 0134 994B     		ldr	r3, .L230
 2558 0136 1A60     		str	r2, [r3]
 215:.\src/waterControl.c **** 	respFreeSpace -= tmp;
 2559              		.loc 1 215 0
 2560 0138 9A4B     		ldr	r3, .L230+8
 2561 013a 1A68     		ldr	r2, [r3]
 2562 013c 7B68     		ldr	r3, [r7, #4]
 2563 013e D21A     		sub	r2, r2, r3
 2564 0140 984B     		ldr	r3, .L230+8
 2565 0142 1A60     		str	r2, [r3]
 216:.\src/waterControl.c **** 	ADD_CHAR_TO_RESP('}');
 2566              		.loc 1 216 0
 2567 0144 954B     		ldr	r3, .L230
 2568 0146 1B68     		ldr	r3, [r3]
 2569 0148 591C     		add	r1, r3, #1
 2570 014a 944A     		ldr	r2, .L230
 2571 014c 1160     		str	r1, [r2]
 2572 014e 7D22     		mov	r2, #125
 2573 0150 1A70     		strb	r2, [r3]
 2574 0152 944B     		ldr	r3, .L230+8
 2575 0154 1B68     		ldr	r3, [r3]
 2576 0156 5A1E     		sub	r2, r3, #1
 2577 0158 924B     		ldr	r3, .L230+8
 2578 015a 1A60     		str	r2, [r3]
 217:.\src/waterControl.c **** 
 218:.\src/waterControl.c **** 	ADD_STATIC_STRING_TO_RESP(",{\"n\":\"TotalVolume\",\"t\":\"i\",\"v\":");
 2579              		.loc 1 218 0
 2580 015c 8F4B     		ldr	r3, .L230
 2581 015e 1A68     		ldr	r2, [r3]
 2582 0160 944B     		ldr	r3, .L230+24
 2583 0162 101C     		mov	r0, r2
 2584 0164 191C     		mov	r1, r3
 2585 0166 2122     		mov	r2, #33
 2586 0168 FFF7FEFF 		bl	memcpy
 2587 016c 8B4B     		ldr	r3, .L230
 2588 016e 1B68     		ldr	r3, [r3]
 2589 0170 1A1C     		mov	r2, r3
 2590 0172 2032     		add	r2, r2, #32
 2591 0174 894B     		ldr	r3, .L230
ARM GAS  C:\Users\SDEVAS~1\AppData\Local\Temp\ccOTp3Ub.s 			page 51


 2592 0176 1A60     		str	r2, [r3]
 2593 0178 8A4B     		ldr	r3, .L230+8
 2594 017a 1B68     		ldr	r3, [r3]
 2595 017c 203B     		sub	r3, r3, #32
 2596 017e 1A1C     		mov	r2, r3
 2597 0180 884B     		ldr	r3, .L230+8
 2598 0182 1A60     		str	r2, [r3]
 219:.\src/waterControl.c **** 	tmp = conv_i2str(respEnd, respFreeSpace, water_data.TotalVolume);
 2599              		.loc 1 219 0
 2600 0184 854B     		ldr	r3, .L230
 2601 0186 1968     		ldr	r1, [r3]
 2602 0188 864B     		ldr	r3, .L230+8
 2603 018a 1A68     		ldr	r2, [r3]
 2604 018c 864B     		ldr	r3, .L230+12
 2605 018e DB68     		ldr	r3, [r3, #12]
 2606 0190 081C     		mov	r0, r1
 2607 0192 111C     		mov	r1, r2
 2608 0194 1A1C     		mov	r2, r3
 2609 0196 FFF7FEFF 		bl	conv_i2str
 2610 019a 031C     		mov	r3, r0
 2611 019c 7B60     		str	r3, [r7, #4]
 220:.\src/waterControl.c **** 	respEnd += tmp;
 2612              		.loc 1 220 0
 2613 019e 7F4B     		ldr	r3, .L230
 2614 01a0 1A68     		ldr	r2, [r3]
 2615 01a2 7B68     		ldr	r3, [r7, #4]
 2616 01a4 D218     		add	r2, r2, r3
 2617 01a6 7D4B     		ldr	r3, .L230
 2618 01a8 1A60     		str	r2, [r3]
 221:.\src/waterControl.c **** 	respFreeSpace -= tmp;
 2619              		.loc 1 221 0
 2620 01aa 7E4B     		ldr	r3, .L230+8
 2621 01ac 1A68     		ldr	r2, [r3]
 2622 01ae 7B68     		ldr	r3, [r7, #4]
 2623 01b0 D21A     		sub	r2, r2, r3
 2624 01b2 7C4B     		ldr	r3, .L230+8
 2625 01b4 1A60     		str	r2, [r3]
 222:.\src/waterControl.c **** 	ADD_CHAR_TO_RESP('}');
 2626              		.loc 1 222 0
 2627 01b6 794B     		ldr	r3, .L230
 2628 01b8 1B68     		ldr	r3, [r3]
 2629 01ba 591C     		add	r1, r3, #1
 2630 01bc 774A     		ldr	r2, .L230
 2631 01be 1160     		str	r1, [r2]
 2632 01c0 7D22     		mov	r2, #125
 2633 01c2 1A70     		strb	r2, [r3]
 2634 01c4 774B     		ldr	r3, .L230+8
 2635 01c6 1B68     		ldr	r3, [r3]
 2636 01c8 5A1E     		sub	r2, r3, #1
 2637 01ca 764B     		ldr	r3, .L230+8
 2638 01cc 1A60     		str	r2, [r3]
 223:.\src/waterControl.c **** 
 224:.\src/waterControl.c **** 	ADD_STATIC_STRING_TO_RESP(",{\"n\":\"ValveStatus\",\"t\":\"i\",\"v\":");
 2639              		.loc 1 224 0
 2640 01ce 734B     		ldr	r3, .L230
 2641 01d0 1A68     		ldr	r2, [r3]
 2642 01d2 794B     		ldr	r3, .L230+28
ARM GAS  C:\Users\SDEVAS~1\AppData\Local\Temp\ccOTp3Ub.s 			page 52


 2643 01d4 101C     		mov	r0, r2
 2644 01d6 191C     		mov	r1, r3
 2645 01d8 2122     		mov	r2, #33
 2646 01da FFF7FEFF 		bl	memcpy
 2647 01de 6F4B     		ldr	r3, .L230
 2648 01e0 1B68     		ldr	r3, [r3]
 2649 01e2 1A1C     		mov	r2, r3
 2650 01e4 2032     		add	r2, r2, #32
 2651 01e6 6D4B     		ldr	r3, .L230
 2652 01e8 1A60     		str	r2, [r3]
 2653 01ea 6E4B     		ldr	r3, .L230+8
 2654 01ec 1B68     		ldr	r3, [r3]
 2655 01ee 203B     		sub	r3, r3, #32
 2656 01f0 1A1C     		mov	r2, r3
 2657 01f2 6C4B     		ldr	r3, .L230+8
 2658 01f4 1A60     		str	r2, [r3]
 225:.\src/waterControl.c **** 	tmp = conv_i2str(respEnd, respFreeSpace, water_data.ValveStatus);
 2659              		.loc 1 225 0
 2660 01f6 694B     		ldr	r3, .L230
 2661 01f8 1968     		ldr	r1, [r3]
 2662 01fa 6A4B     		ldr	r3, .L230+8
 2663 01fc 1A68     		ldr	r2, [r3]
 2664 01fe 6A4B     		ldr	r3, .L230+12
 2665 0200 1B69     		ldr	r3, [r3, #16]
 2666 0202 081C     		mov	r0, r1
 2667 0204 111C     		mov	r1, r2
 2668 0206 1A1C     		mov	r2, r3
 2669 0208 FFF7FEFF 		bl	conv_i2str
 2670 020c 031C     		mov	r3, r0
 2671 020e 7B60     		str	r3, [r7, #4]
 226:.\src/waterControl.c **** 	respEnd += tmp;
 2672              		.loc 1 226 0
 2673 0210 624B     		ldr	r3, .L230
 2674 0212 1A68     		ldr	r2, [r3]
 2675 0214 7B68     		ldr	r3, [r7, #4]
 2676 0216 D218     		add	r2, r2, r3
 2677 0218 604B     		ldr	r3, .L230
 2678 021a 1A60     		str	r2, [r3]
 227:.\src/waterControl.c **** 	respFreeSpace -= tmp;
 2679              		.loc 1 227 0
 2680 021c 614B     		ldr	r3, .L230+8
 2681 021e 1A68     		ldr	r2, [r3]
 2682 0220 7B68     		ldr	r3, [r7, #4]
 2683 0222 D21A     		sub	r2, r2, r3
 2684 0224 5F4B     		ldr	r3, .L230+8
 2685 0226 1A60     		str	r2, [r3]
 228:.\src/waterControl.c **** 	ADD_CHAR_TO_RESP('}');
 2686              		.loc 1 228 0
 2687 0228 5C4B     		ldr	r3, .L230
 2688 022a 1B68     		ldr	r3, [r3]
 2689 022c 591C     		add	r1, r3, #1
 2690 022e 5B4A     		ldr	r2, .L230
 2691 0230 1160     		str	r1, [r2]
 2692 0232 7D22     		mov	r2, #125
 2693 0234 1A70     		strb	r2, [r3]
 2694 0236 5B4B     		ldr	r3, .L230+8
 2695 0238 1B68     		ldr	r3, [r3]
ARM GAS  C:\Users\SDEVAS~1\AppData\Local\Temp\ccOTp3Ub.s 			page 53


 2696 023a 5A1E     		sub	r2, r3, #1
 2697 023c 594B     		ldr	r3, .L230+8
 2698 023e 1A60     		str	r2, [r3]
 229:.\src/waterControl.c **** 
 230:.\src/waterControl.c **** 	ADD_STATIC_STRING_TO_RESP(",{\"n\":\"LastStartNumber\",\"t\":\"i\",\"v\":");
 2699              		.loc 1 230 0
 2700 0240 564B     		ldr	r3, .L230
 2701 0242 1A68     		ldr	r2, [r3]
 2702 0244 5D4B     		ldr	r3, .L230+32
 2703 0246 101C     		mov	r0, r2
 2704 0248 191C     		mov	r1, r3
 2705 024a 2522     		mov	r2, #37
 2706 024c FFF7FEFF 		bl	memcpy
 2707 0250 524B     		ldr	r3, .L230
 2708 0252 1B68     		ldr	r3, [r3]
 2709 0254 1A1C     		mov	r2, r3
 2710 0256 2432     		add	r2, r2, #36
 2711 0258 504B     		ldr	r3, .L230
 2712 025a 1A60     		str	r2, [r3]
 2713 025c 514B     		ldr	r3, .L230+8
 2714 025e 1B68     		ldr	r3, [r3]
 2715 0260 243B     		sub	r3, r3, #36
 2716 0262 1A1C     		mov	r2, r3
 2717 0264 4F4B     		ldr	r3, .L230+8
 2718 0266 1A60     		str	r2, [r3]
 231:.\src/waterControl.c **** 	tmp = conv_i2str(respEnd, respFreeSpace, water_data.LastStartNumber);
 2719              		.loc 1 231 0
 2720 0268 4C4B     		ldr	r3, .L230
 2721 026a 1968     		ldr	r1, [r3]
 2722 026c 4D4B     		ldr	r3, .L230+8
 2723 026e 1A68     		ldr	r2, [r3]
 2724 0270 4D4B     		ldr	r3, .L230+12
 2725 0272 5B69     		ldr	r3, [r3, #20]
 2726 0274 081C     		mov	r0, r1
 2727 0276 111C     		mov	r1, r2
 2728 0278 1A1C     		mov	r2, r3
 2729 027a FFF7FEFF 		bl	conv_i2str
 2730 027e 031C     		mov	r3, r0
 2731 0280 7B60     		str	r3, [r7, #4]
 232:.\src/waterControl.c **** 	respEnd += tmp;
 2732              		.loc 1 232 0
 2733 0282 464B     		ldr	r3, .L230
 2734 0284 1A68     		ldr	r2, [r3]
 2735 0286 7B68     		ldr	r3, [r7, #4]
 2736 0288 D218     		add	r2, r2, r3
 2737 028a 444B     		ldr	r3, .L230
 2738 028c 1A60     		str	r2, [r3]
 233:.\src/waterControl.c **** 	respFreeSpace -= tmp;
 2739              		.loc 1 233 0
 2740 028e 454B     		ldr	r3, .L230+8
 2741 0290 1A68     		ldr	r2, [r3]
 2742 0292 7B68     		ldr	r3, [r7, #4]
 2743 0294 D21A     		sub	r2, r2, r3
 2744 0296 434B     		ldr	r3, .L230+8
 2745 0298 1A60     		str	r2, [r3]
 234:.\src/waterControl.c **** 	ADD_CHAR_TO_RESP('}');
 2746              		.loc 1 234 0
ARM GAS  C:\Users\SDEVAS~1\AppData\Local\Temp\ccOTp3Ub.s 			page 54


 2747 029a 404B     		ldr	r3, .L230
 2748 029c 1B68     		ldr	r3, [r3]
 2749 029e 591C     		add	r1, r3, #1
 2750 02a0 3E4A     		ldr	r2, .L230
 2751 02a2 1160     		str	r1, [r2]
 2752 02a4 7D22     		mov	r2, #125
 2753 02a6 1A70     		strb	r2, [r3]
 2754 02a8 3E4B     		ldr	r3, .L230+8
 2755 02aa 1B68     		ldr	r3, [r3]
 2756 02ac 5A1E     		sub	r2, r3, #1
 2757 02ae 3D4B     		ldr	r3, .L230+8
 2758 02b0 1A60     		str	r2, [r3]
 235:.\src/waterControl.c **** 
 236:.\src/waterControl.c **** 	ADD_STATIC_STRING_TO_RESP(",{\"n\":\"LastStartVolume\",\"t\":\"i\",\"v\":");
 2759              		.loc 1 236 0
 2760 02b2 3A4B     		ldr	r3, .L230
 2761 02b4 1A68     		ldr	r2, [r3]
 2762 02b6 424B     		ldr	r3, .L230+36
 2763 02b8 101C     		mov	r0, r2
 2764 02ba 191C     		mov	r1, r3
 2765 02bc 2522     		mov	r2, #37
 2766 02be FFF7FEFF 		bl	memcpy
 2767 02c2 364B     		ldr	r3, .L230
 2768 02c4 1B68     		ldr	r3, [r3]
 2769 02c6 1A1C     		mov	r2, r3
 2770 02c8 2432     		add	r2, r2, #36
 2771 02ca 344B     		ldr	r3, .L230
 2772 02cc 1A60     		str	r2, [r3]
 2773 02ce 354B     		ldr	r3, .L230+8
 2774 02d0 1B68     		ldr	r3, [r3]
 2775 02d2 243B     		sub	r3, r3, #36
 2776 02d4 1A1C     		mov	r2, r3
 2777 02d6 334B     		ldr	r3, .L230+8
 2778 02d8 1A60     		str	r2, [r3]
 237:.\src/waterControl.c **** 	tmp = conv_i2str(respEnd, respFreeSpace, water_data.LastStartVolume);
 2779              		.loc 1 237 0
 2780 02da 304B     		ldr	r3, .L230
 2781 02dc 1968     		ldr	r1, [r3]
 2782 02de 314B     		ldr	r3, .L230+8
 2783 02e0 1A68     		ldr	r2, [r3]
 2784 02e2 314B     		ldr	r3, .L230+12
 2785 02e4 9B69     		ldr	r3, [r3, #24]
 2786 02e6 081C     		mov	r0, r1
 2787 02e8 111C     		mov	r1, r2
 2788 02ea 1A1C     		mov	r2, r3
 2789 02ec FFF7FEFF 		bl	conv_i2str
 2790 02f0 031C     		mov	r3, r0
 2791 02f2 7B60     		str	r3, [r7, #4]
 238:.\src/waterControl.c **** 	respEnd += tmp;
 2792              		.loc 1 238 0
 2793 02f4 294B     		ldr	r3, .L230
 2794 02f6 1A68     		ldr	r2, [r3]
 2795 02f8 7B68     		ldr	r3, [r7, #4]
 2796 02fa D218     		add	r2, r2, r3
 2797 02fc 274B     		ldr	r3, .L230
 2798 02fe 1A60     		str	r2, [r3]
 239:.\src/waterControl.c **** 	respFreeSpace -= tmp;
ARM GAS  C:\Users\SDEVAS~1\AppData\Local\Temp\ccOTp3Ub.s 			page 55


 2799              		.loc 1 239 0
 2800 0300 284B     		ldr	r3, .L230+8
 2801 0302 1A68     		ldr	r2, [r3]
 2802 0304 7B68     		ldr	r3, [r7, #4]
 2803 0306 D21A     		sub	r2, r2, r3
 2804 0308 264B     		ldr	r3, .L230+8
 2805 030a 1A60     		str	r2, [r3]
 240:.\src/waterControl.c **** 	ADD_CHAR_TO_RESP('}');
 2806              		.loc 1 240 0
 2807 030c 234B     		ldr	r3, .L230
 2808 030e 1B68     		ldr	r3, [r3]
 2809 0310 591C     		add	r1, r3, #1
 2810 0312 224A     		ldr	r2, .L230
 2811 0314 1160     		str	r1, [r2]
 2812 0316 7D22     		mov	r2, #125
 2813 0318 1A70     		strb	r2, [r3]
 2814 031a 224B     		ldr	r3, .L230+8
 2815 031c 1B68     		ldr	r3, [r3]
 2816 031e 5A1E     		sub	r2, r3, #1
 2817 0320 204B     		ldr	r3, .L230+8
 2818 0322 1A60     		str	r2, [r3]
 241:.\src/waterControl.c **** 
 242:.\src/waterControl.c **** 	ADD_STATIC_STRING_TO_RESP(",{\"n\":\"LastStartFlow\",\"t\":\"i\",\"v\":");
 2819              		.loc 1 242 0
 2820 0324 1D4B     		ldr	r3, .L230
 2821 0326 1A68     		ldr	r2, [r3]
 2822 0328 264B     		ldr	r3, .L230+40
 2823 032a 101C     		mov	r0, r2
 2824 032c 191C     		mov	r1, r3
 2825 032e 2322     		mov	r2, #35
 2826 0330 FFF7FEFF 		bl	memcpy
 2827 0334 194B     		ldr	r3, .L230
 2828 0336 1B68     		ldr	r3, [r3]
 2829 0338 1A1C     		mov	r2, r3
 2830 033a 2232     		add	r2, r2, #34
 2831 033c 174B     		ldr	r3, .L230
 2832 033e 1A60     		str	r2, [r3]
 2833 0340 184B     		ldr	r3, .L230+8
 2834 0342 1B68     		ldr	r3, [r3]
 2835 0344 223B     		sub	r3, r3, #34
 2836 0346 1A1C     		mov	r2, r3
 2837 0348 164B     		ldr	r3, .L230+8
 2838 034a 1A60     		str	r2, [r3]
 243:.\src/waterControl.c **** 	tmp = conv_i2str(respEnd, respFreeSpace, water_data.LastStartFlow);
 2839              		.loc 1 243 0
 2840 034c 134B     		ldr	r3, .L230
 2841 034e 1968     		ldr	r1, [r3]
 2842 0350 144B     		ldr	r3, .L230+8
 2843 0352 1A68     		ldr	r2, [r3]
 2844 0354 144B     		ldr	r3, .L230+12
 2845 0356 DB69     		ldr	r3, [r3, #28]
 2846 0358 081C     		mov	r0, r1
 2847 035a 111C     		mov	r1, r2
 2848 035c 1A1C     		mov	r2, r3
 2849 035e FFF7FEFF 		bl	conv_i2str
 2850 0362 031C     		mov	r3, r0
 2851 0364 7B60     		str	r3, [r7, #4]
ARM GAS  C:\Users\SDEVAS~1\AppData\Local\Temp\ccOTp3Ub.s 			page 56


 244:.\src/waterControl.c **** 	respEnd += tmp;
 2852              		.loc 1 244 0
 2853 0366 0D4B     		ldr	r3, .L230
 2854 0368 1A68     		ldr	r2, [r3]
 2855 036a 7B68     		ldr	r3, [r7, #4]
 2856 036c D218     		add	r2, r2, r3
 2857 036e 0B4B     		ldr	r3, .L230
 2858 0370 1A60     		str	r2, [r3]
 245:.\src/waterControl.c **** 	respFreeSpace -= tmp;
 2859              		.loc 1 245 0
 2860 0372 0C4B     		ldr	r3, .L230+8
 2861 0374 1A68     		ldr	r2, [r3]
 2862 0376 7B68     		ldr	r3, [r7, #4]
 2863 0378 D21A     		sub	r2, r2, r3
 2864 037a 0A4B     		ldr	r3, .L230+8
 2865 037c 1A60     		str	r2, [r3]
 246:.\src/waterControl.c **** 	ADD_CHAR_TO_RESP('}');
 2866              		.loc 1 246 0
 2867 037e 074B     		ldr	r3, .L230
 2868 0380 1B68     		ldr	r3, [r3]
 2869 0382 591C     		add	r1, r3, #1
 2870 0384 054A     		ldr	r2, .L230
 2871 0386 1160     		str	r1, [r2]
 2872 0388 7D22     		mov	r2, #125
 2873 038a 1A70     		strb	r2, [r3]
 2874 038c 054B     		ldr	r3, .L230+8
 2875 038e 1B68     		ldr	r3, [r3]
 2876 0390 5A1E     		sub	r2, r3, #1
 2877 0392 044B     		ldr	r3, .L230+8
 2878 0394 1A60     		str	r2, [r3]
 247:.\src/waterControl.c **** }
 2879              		.loc 1 247 0
 2880 0396 BD46     		mov	sp, r7
 2881 0398 02B0     		add	sp, sp, #8
 2882              		@ sp needed
 2883 039a 80BD     		pop	{r7, pc}
 2884              	.L231:
 2885              		.align	2
 2886              	.L230:
 2887 039c 00000000 		.word	respEnd
 2888 03a0 00000000 		.word	.LC59
 2889 03a4 00000000 		.word	respFreeSpace
 2890 03a8 00000000 		.word	water_data
 2891 03ac 24000000 		.word	.LC63
 2892 03b0 48000000 		.word	.LC65
 2893 03b4 6C000000 		.word	.LC67
 2894 03b8 90000000 		.word	.LC69
 2895 03bc B4000000 		.word	.LC71
 2896 03c0 DC000000 		.word	.LC73
 2897 03c4 04010000 		.word	.LC75
 2898              		.cfi_endproc
 2899              	.LFE101:
 2900              		.size	comm_GenerateInfo, .-comm_GenerateInfo
 2901              		.global	opVals
 2902              		.data
 2903              		.align	2
 2904              		.type	opVals, %object
ARM GAS  C:\Users\SDEVAS~1\AppData\Local\Temp\ccOTp3Ub.s 			page 57


 2905              		.size	opVals, 384
 2906              	opVals:
 2907 0000 00000000 		.word	0
 2908 0004 00000000 		.word	0
 2909 0008 00000000 		.word	0
 2910 000c 00000000 		.word	0
 2911 0010 01000000 		.word	1
 2912 0014 00000000 		.word	0
 2913 0018 00000000 		.word	0
 2914 001c 00000000 		.word	0
 2915 0020 02000000 		.word	2
 2916 0024 00000000 		.word	0
 2917 0028 00000000 		.word	0
 2918 002c 00000000 		.word	0
 2919 0030 03000000 		.word	3
 2920 0034 00000000 		.word	0
 2921 0038 00000000 		.word	0
 2922 003c 00000000 		.word	0
 2923 0040 04000000 		.word	4
 2924 0044 00000000 		.word	0
 2925 0048 00000000 		.word	0
 2926 004c 00000000 		.word	0
 2927 0050 05000000 		.word	5
 2928 0054 00000000 		.word	0
 2929 0058 00000000 		.word	0
 2930 005c 00000000 		.word	0
 2931 0060 06000000 		.word	6
 2932 0064 00000000 		.word	0
 2933 0068 00000000 		.word	0
 2934 006c 00000000 		.word	0
 2935 0070 07000000 		.word	7
 2936 0074 00000000 		.word	0
 2937 0078 00000000 		.word	0
 2938 007c 00000000 		.word	0
 2939 0080 08000000 		.word	8
 2940 0084 01000000 		.word	1
 2941 0088 05000000 		.word	5
 2942 008c 05000000 		.word	5
 2943 0090 09000000 		.word	9
 2944 0094 01000000 		.word	1
 2945 0098 06000000 		.word	6
 2946 009c 0B000000 		.word	11
 2947 00a0 0A000000 		.word	10
 2948 00a4 01000000 		.word	1
 2949 00a8 07000000 		.word	7
 2950 00ac 12000000 		.word	18
 2951 00b0 0B000000 		.word	11
 2952 00b4 01000000 		.word	1
 2953 00b8 08000000 		.word	8
 2954 00bc 1A000000 		.word	26
 2955 00c0 0C000000 		.word	12
 2956 00c4 01000000 		.word	1
 2957 00c8 09000000 		.word	9
 2958 00cc 23000000 		.word	35
 2959 00d0 0D000000 		.word	13
 2960 00d4 01000000 		.word	1
 2961 00d8 0A000000 		.word	10
ARM GAS  C:\Users\SDEVAS~1\AppData\Local\Temp\ccOTp3Ub.s 			page 58


 2962 00dc 2D000000 		.word	45
 2963 00e0 0E000000 		.word	14
 2964 00e4 01000000 		.word	1
 2965 00e8 09000000 		.word	9
 2966 00ec 36000000 		.word	54
 2967 00f0 0F000000 		.word	15
 2968 00f4 01000000 		.word	1
 2969 00f8 08000000 		.word	8
 2970 00fc 3E000000 		.word	62
 2971 0100 10000000 		.word	16
 2972 0104 01000000 		.word	1
 2973 0108 07000000 		.word	7
 2974 010c 45000000 		.word	69
 2975 0110 11000000 		.word	17
 2976 0114 01000000 		.word	1
 2977 0118 06000000 		.word	6
 2978 011c 4B000000 		.word	75
 2979 0120 12000000 		.word	18
 2980 0124 00000000 		.word	0
 2981 0128 00000000 		.word	0
 2982 012c 4B000000 		.word	75
 2983 0130 13000000 		.word	19
 2984 0134 00000000 		.word	0
 2985 0138 00000000 		.word	0
 2986 013c 4B000000 		.word	75
 2987 0140 14000000 		.word	20
 2988 0144 00000000 		.word	0
 2989 0148 00000000 		.word	0
 2990 014c 4B000000 		.word	75
 2991 0150 15000000 		.word	21
 2992 0154 00000000 		.word	0
 2993 0158 00000000 		.word	0
 2994 015c 4B000000 		.word	75
 2995 0160 16000000 		.word	22
 2996 0164 00000000 		.word	0
 2997 0168 00000000 		.word	0
 2998 016c 4B000000 		.word	75
 2999 0170 17000000 		.word	23
 3000 0174 00000000 		.word	0
 3001 0178 00000000 		.word	0
 3002 017c 4B000000 		.word	75
 3003              		.section	.rodata
 3004 0127 00       		.align	2
 3005              	.LC77:
 3006 0128 75706461 		.ascii	"updateOpVals\012\015\000"
 3006      74654F70 
 3006      56616C73 
 3006      0A0D00
 3007              		.section	.text.fsmIfaceWaterControl_updateOpVals,"ax",%progbits
 3008              		.align	2
 3009              		.global	fsmIfaceWaterControl_updateOpVals
 3010              		.code	16
 3011              		.thumb_func
 3012              		.type	fsmIfaceWaterControl_updateOpVals, %function
 3013              	fsmIfaceWaterControl_updateOpVals:
 3014              	.LFB102:
 248:.\src/waterControl.c **** 
ARM GAS  C:\Users\SDEVAS~1\AppData\Local\Temp\ccOTp3Ub.s 			page 59


 249:.\src/waterControl.c **** 
 250:.\src/waterControl.c **** int opVals[24][4]=
 251:.\src/waterControl.c **** {
 252:.\src/waterControl.c ****     //At startup everything should be set to zero until vals are downloaded
 253:.\src/waterControl.c ****     //{Time of day, valve mode, minutes on, total max vol}
 254:.\src/waterControl.c ****     {0,OFF,0,0},
 255:.\src/waterControl.c ****     {1,OFF,0,0},
 256:.\src/waterControl.c ****     {2,OFF,0,0},
 257:.\src/waterControl.c ****     {3,OFF,0,0},
 258:.\src/waterControl.c ****     {4,OFF,0,0},
 259:.\src/waterControl.c ****     {5,OFF,0,0},
 260:.\src/waterControl.c ****     {6,OFF,0,0},
 261:.\src/waterControl.c ****     {7,OFF,0,0},
 262:.\src/waterControl.c ****     {8,ON,5,5},
 263:.\src/waterControl.c ****     {9,ON,6,11},
 264:.\src/waterControl.c ****     {10,ON,7,18},
 265:.\src/waterControl.c ****     {11,ON,8,26},
 266:.\src/waterControl.c ****     {12,ON,9,35},
 267:.\src/waterControl.c ****     {13,ON,10,45},
 268:.\src/waterControl.c ****     {14,ON,9,54},
 269:.\src/waterControl.c ****     {15,ON,8,62},
 270:.\src/waterControl.c ****     {16,ON,7,69},
 271:.\src/waterControl.c ****     {17,ON,6,75},
 272:.\src/waterControl.c ****     {18,OFF,0,75},
 273:.\src/waterControl.c ****     {19,OFF,0,75},
 274:.\src/waterControl.c ****     {20,OFF,0,75},
 275:.\src/waterControl.c ****     {21,OFF,0,75},
 276:.\src/waterControl.c ****     {22,OFF,0,75},
 277:.\src/waterControl.c ****     {23,OFF,0,75}
 278:.\src/waterControl.c **** };
 279:.\src/waterControl.c **** 
 280:.\src/waterControl.c **** void fsmIfaceWaterControl_updateOpVals(){
 3015              		.loc 1 280 0
 3016              		.cfi_startproc
 3017 0000 80B5     		push	{r7, lr}
 3018              		.cfi_def_cfa_offset 8
 3019              		.cfi_offset 7, -8
 3020              		.cfi_offset 14, -4
 3021 0002 00AF     		add	r7, sp, #0
 3022              		.cfi_def_cfa_register 7
 281:.\src/waterControl.c ****     //TODO
 282:.\src/waterControl.c ****     //Update the operation vals based on Info coming from mc200
 283:.\src/waterControl.c ****     UART_UartPutString("updateOpVals\n\r");
 3023              		.loc 1 283 0
 3024 0004 024B     		ldr	r3, .L233
 3025 0006 181C     		mov	r0, r3
 3026 0008 FFF7FEFF 		bl	UART_UartPutString
 284:.\src/waterControl.c **** }
 3027              		.loc 1 284 0
 3028 000c BD46     		mov	sp, r7
 3029              		@ sp needed
 3030 000e 80BD     		pop	{r7, pc}
 3031              	.L234:
 3032              		.align	2
 3033              	.L233:
 3034 0010 28010000 		.word	.LC77
 3035              		.cfi_endproc
ARM GAS  C:\Users\SDEVAS~1\AppData\Local\Temp\ccOTp3Ub.s 			page 60


 3036              	.LFE102:
 3037              		.size	fsmIfaceWaterControl_updateOpVals, .-fsmIfaceWaterControl_updateOpVals
 3038              		.section	.text.fsmIfaceWaterControl_setExpTime,"ax",%progbits
 3039              		.align	2
 3040              		.global	fsmIfaceWaterControl_setExpTime
 3041              		.code	16
 3042              		.thumb_func
 3043              		.type	fsmIfaceWaterControl_setExpTime, %function
 3044              	fsmIfaceWaterControl_setExpTime:
 3045              	.LFB103:
 285:.\src/waterControl.c **** 
 286:.\src/waterControl.c **** void fsmIfaceWaterControl_setExpTime(){
 3046              		.loc 1 286 0
 3047              		.cfi_startproc
 3048 0000 90B5     		push	{r4, r7, lr}
 3049              		.cfi_def_cfa_offset 12
 3050              		.cfi_offset 4, -12
 3051              		.cfi_offset 7, -8
 3052              		.cfi_offset 14, -4
 3053 0002 85B0     		sub	sp, sp, #20
 3054              		.cfi_def_cfa_offset 32
 3055 0004 00AF     		add	r7, sp, #0
 3056              		.cfi_def_cfa_register 7
 287:.\src/waterControl.c ****     currentTime = getTime();
 3057              		.loc 1 287 0
 3058 0006 1B4C     		ldr	r4, .L237
 3059 0008 3B1C     		mov	r3, r7
 3060 000a 181C     		mov	r0, r3
 3061 000c FFF7FEFF 		bl	getTime
 3062 0010 3B1C     		mov	r3, r7
 3063 0012 211C     		mov	r1, r4
 3064 0014 1A1C     		mov	r2, r3
 3065 0016 0523     		mov	r3, #5
 3066 0018 081C     		mov	r0, r1
 3067 001a 111C     		mov	r1, r2
 3068 001c 1A1C     		mov	r2, r3
 3069 001e FFF7FEFF 		bl	memcpy
 288:.\src/waterControl.c ****     expTime = currentTime;
 3070              		.loc 1 288 0
 3071 0022 154B     		ldr	r3, .L237+4
 3072 0024 134A     		ldr	r2, .L237
 3073 0026 1168     		ldr	r1, [r2]
 3074 0028 1960     		str	r1, [r3]
 3075 002a 1279     		ldrb	r2, [r2, #4]
 3076 002c 1A71     		strb	r2, [r3, #4]
 289:.\src/waterControl.c ****     int operationMins = opVals[currentTime.hours][1];
 3077              		.loc 1 289 0
 3078 002e 114B     		ldr	r3, .L237
 3079 0030 9B78     		ldrb	r3, [r3, #2]
 3080 0032 124A     		ldr	r2, .L237+8
 3081 0034 1B01     		lsl	r3, r3, #4
 3082 0036 D318     		add	r3, r2, r3
 3083 0038 0433     		add	r3, r3, #4
 3084 003a 1B68     		ldr	r3, [r3]
 3085 003c FB60     		str	r3, [r7, #12]
 290:.\src/waterControl.c ****        
 291:.\src/waterControl.c ****     expTime.mins += operationMins;
ARM GAS  C:\Users\SDEVAS~1\AppData\Local\Temp\ccOTp3Ub.s 			page 61


 3086              		.loc 1 291 0
 3087 003e 0E4B     		ldr	r3, .L237+4
 3088 0040 5A78     		ldrb	r2, [r3, #1]
 3089 0042 FB68     		ldr	r3, [r7, #12]
 3090 0044 DBB2     		uxtb	r3, r3
 3091 0046 D318     		add	r3, r2, r3
 3092 0048 DAB2     		uxtb	r2, r3
 3093 004a 0B4B     		ldr	r3, .L237+4
 3094 004c 5A70     		strb	r2, [r3, #1]
 292:.\src/waterControl.c ****     if(expTime.mins >= 60){
 3095              		.loc 1 292 0
 3096 004e 0A4B     		ldr	r3, .L237+4
 3097 0050 5B78     		ldrb	r3, [r3, #1]
 3098 0052 3B2B     		cmp	r3, #59
 3099 0054 0BD9     		bls	.L235
 293:.\src/waterControl.c ****         expTime.hours+=1;
 3100              		.loc 1 293 0
 3101 0056 084B     		ldr	r3, .L237+4
 3102 0058 9B78     		ldrb	r3, [r3, #2]
 3103 005a 0133     		add	r3, r3, #1
 3104 005c DAB2     		uxtb	r2, r3
 3105 005e 064B     		ldr	r3, .L237+4
 3106 0060 9A70     		strb	r2, [r3, #2]
 294:.\src/waterControl.c ****         expTime.mins-=60;
 3107              		.loc 1 294 0
 3108 0062 054B     		ldr	r3, .L237+4
 3109 0064 5B78     		ldrb	r3, [r3, #1]
 3110 0066 3C3B     		sub	r3, r3, #60
 3111 0068 DAB2     		uxtb	r2, r3
 3112 006a 034B     		ldr	r3, .L237+4
 3113 006c 5A70     		strb	r2, [r3, #1]
 3114              	.L235:
 295:.\src/waterControl.c ****     }
 296:.\src/waterControl.c **** }
 3115              		.loc 1 296 0
 3116 006e BD46     		mov	sp, r7
 3117 0070 05B0     		add	sp, sp, #20
 3118              		@ sp needed
 3119 0072 90BD     		pop	{r4, r7, pc}
 3120              	.L238:
 3121              		.align	2
 3122              	.L237:
 3123 0074 00000000 		.word	currentTime
 3124 0078 00000000 		.word	expTime
 3125 007c 00000000 		.word	opVals
 3126              		.cfi_endproc
 3127              	.LFE103:
 3128              		.size	fsmIfaceWaterControl_setExpTime, .-fsmIfaceWaterControl_setExpTime
 3129              		.section	.rodata
 3130 0137 00       		.align	2
 3131              	.LC85:
 3132 0138 63686563 		.ascii	"checkOpMode  : \000"
 3132      6B4F704D 
 3132      6F646520 
 3132      203A2000 
 3133              		.align	2
 3134              	.LC87:
ARM GAS  C:\Users\SDEVAS~1\AppData\Local\Temp\ccOTp3Ub.s 			page 62


 3135 0148 0D0A00   		.ascii	"\015\012\000"
 3136              		.section	.text.fsmIfaceWaterControl_getOpMode,"ax",%progbits
 3137              		.align	2
 3138              		.global	fsmIfaceWaterControl_getOpMode
 3139              		.code	16
 3140              		.thumb_func
 3141              		.type	fsmIfaceWaterControl_getOpMode, %function
 3142              	fsmIfaceWaterControl_getOpMode:
 3143              	.LFB104:
 297:.\src/waterControl.c **** 
 298:.\src/waterControl.c **** sc_integer fsmIfaceWaterControl_getOpMode(){
 3144              		.loc 1 298 0
 3145              		.cfi_startproc
 3146 0000 90B5     		push	{r4, r7, lr}
 3147              		.cfi_def_cfa_offset 12
 3148              		.cfi_offset 4, -12
 3149              		.cfi_offset 7, -8
 3150              		.cfi_offset 14, -4
 3151 0002 85B0     		sub	sp, sp, #20
 3152              		.cfi_def_cfa_offset 32
 3153 0004 00AF     		add	r7, sp, #0
 3154              		.cfi_def_cfa_register 7
 299:.\src/waterControl.c ****     currentTime = getTime();
 3155              		.loc 1 299 0
 3156 0006 1E4C     		ldr	r4, .L243
 3157 0008 3B1C     		mov	r3, r7
 3158 000a 181C     		mov	r0, r3
 3159 000c FFF7FEFF 		bl	getTime
 3160 0010 3B1C     		mov	r3, r7
 3161 0012 211C     		mov	r1, r4
 3162 0014 1A1C     		mov	r2, r3
 3163 0016 0523     		mov	r3, #5
 3164 0018 081C     		mov	r0, r1
 3165 001a 111C     		mov	r1, r2
 3166 001c 1A1C     		mov	r2, r3
 3167 001e FFF7FEFF 		bl	memcpy
 300:.\src/waterControl.c ****     int mode = opVals[currentTime.hours][1];
 3168              		.loc 1 300 0
 3169 0022 174B     		ldr	r3, .L243
 3170 0024 9B78     		ldrb	r3, [r3, #2]
 3171 0026 174A     		ldr	r2, .L243+4
 3172 0028 1B01     		lsl	r3, r3, #4
 3173 002a D318     		add	r3, r2, r3
 3174 002c 0433     		add	r3, r3, #4
 3175 002e 1B68     		ldr	r3, [r3]
 3176 0030 FB60     		str	r3, [r7, #12]
 301:.\src/waterControl.c ****     
 302:.\src/waterControl.c ****     if(currentTime.hours > expTime.hours){
 3177              		.loc 1 302 0
 3178 0032 134B     		ldr	r3, .L243
 3179 0034 9A78     		ldrb	r2, [r3, #2]
 3180 0036 144B     		ldr	r3, .L243+8
 3181 0038 9B78     		ldrb	r3, [r3, #2]
 3182 003a 9A42     		cmp	r2, r3
 3183 003c 01D9     		bls	.L240
 303:.\src/waterControl.c ****         mode=OFF;
 3184              		.loc 1 303 0
ARM GAS  C:\Users\SDEVAS~1\AppData\Local\Temp\ccOTp3Ub.s 			page 63


 3185 003e 0023     		mov	r3, #0
 3186 0040 FB60     		str	r3, [r7, #12]
 3187              	.L240:
 304:.\src/waterControl.c ****     }
 305:.\src/waterControl.c ****     if(currentTime.hours == expTime.hours && currentTime.mins >= expTime.mins){
 3188              		.loc 1 305 0
 3189 0042 0F4B     		ldr	r3, .L243
 3190 0044 9A78     		ldrb	r2, [r3, #2]
 3191 0046 104B     		ldr	r3, .L243+8
 3192 0048 9B78     		ldrb	r3, [r3, #2]
 3193 004a 9A42     		cmp	r2, r3
 3194 004c 07D1     		bne	.L241
 3195              		.loc 1 305 0 is_stmt 0 discriminator 1
 3196 004e 0C4B     		ldr	r3, .L243
 3197 0050 5A78     		ldrb	r2, [r3, #1]
 3198 0052 0D4B     		ldr	r3, .L243+8
 3199 0054 5B78     		ldrb	r3, [r3, #1]
 3200 0056 9A42     		cmp	r2, r3
 3201 0058 01D3     		bcc	.L241
 306:.\src/waterControl.c ****         mode=OFF;
 3202              		.loc 1 306 0 is_stmt 1
 3203 005a 0023     		mov	r3, #0
 3204 005c FB60     		str	r3, [r7, #12]
 3205              	.L241:
 307:.\src/waterControl.c ****     }
 308:.\src/waterControl.c ****         
 309:.\src/waterControl.c ****     UART_UartPutString("checkOpMode  : ");
 3206              		.loc 1 309 0
 3207 005e 0B4B     		ldr	r3, .L243+12
 3208 0060 181C     		mov	r0, r3
 3209 0062 FFF7FEFF 		bl	UART_UartPutString
 310:.\src/waterControl.c ****     UART_UartPutChar(mode);
 3210              		.loc 1 310 0
 3211 0066 FB68     		ldr	r3, [r7, #12]
 3212 0068 181C     		mov	r0, r3
 3213 006a FFF7FEFF 		bl	UART_SpiUartWriteTxData
 311:.\src/waterControl.c ****     UART_UartPutString("\r\n");
 3214              		.loc 1 311 0
 3215 006e 084B     		ldr	r3, .L243+16
 3216 0070 181C     		mov	r0, r3
 3217 0072 FFF7FEFF 		bl	UART_UartPutString
 312:.\src/waterControl.c ****     
 313:.\src/waterControl.c ****     //return mode;
 314:.\src/waterControl.c ****     return 1;
 3218              		.loc 1 314 0
 3219 0076 0123     		mov	r3, #1
 315:.\src/waterControl.c **** }
 3220              		.loc 1 315 0
 3221 0078 181C     		mov	r0, r3
 3222 007a BD46     		mov	sp, r7
 3223 007c 05B0     		add	sp, sp, #20
 3224              		@ sp needed
 3225 007e 90BD     		pop	{r4, r7, pc}
 3226              	.L244:
 3227              		.align	2
 3228              	.L243:
 3229 0080 00000000 		.word	currentTime
ARM GAS  C:\Users\SDEVAS~1\AppData\Local\Temp\ccOTp3Ub.s 			page 64


 3230 0084 00000000 		.word	opVals
 3231 0088 00000000 		.word	expTime
 3232 008c 38010000 		.word	.LC85
 3233 0090 48010000 		.word	.LC87
 3234              		.cfi_endproc
 3235              	.LFE104:
 3236              		.size	fsmIfaceWaterControl_getOpMode, .-fsmIfaceWaterControl_getOpMode
 3237              		.section	.rodata
 3238 014b 00       		.align	2
 3239              	.LC89:
 3240 014c 63686563 		.ascii	"checkVolume\012\015\000"
 3240      6B566F6C 
 3240      756D650A 
 3240      0D00
 3241              		.section	.text.fsmIfaceWaterControl_getCurrentVolume,"ax",%progbits
 3242              		.align	2
 3243              		.global	fsmIfaceWaterControl_getCurrentVolume
 3244              		.code	16
 3245              		.thumb_func
 3246              		.type	fsmIfaceWaterControl_getCurrentVolume, %function
 3247              	fsmIfaceWaterControl_getCurrentVolume:
 3248              	.LFB105:
 316:.\src/waterControl.c **** 
 317:.\src/waterControl.c **** sc_integer fsmIfaceWaterControl_getCurrentVolume(){
 3249              		.loc 1 317 0
 3250              		.cfi_startproc
 3251 0000 80B5     		push	{r7, lr}
 3252              		.cfi_def_cfa_offset 8
 3253              		.cfi_offset 7, -8
 3254              		.cfi_offset 14, -4
 3255 0002 00AF     		add	r7, sp, #0
 3256              		.cfi_def_cfa_register 7
 318:.\src/waterControl.c ****     //TODO
 319:.\src/waterControl.c ****     //make sure that we are not exeeding the maximum volume
 320:.\src/waterControl.c ****     
 321:.\src/waterControl.c ****     UART_UartPutString("checkVolume\n\r");
 3257              		.loc 1 321 0
 3258 0004 034B     		ldr	r3, .L247
 3259 0006 181C     		mov	r0, r3
 3260 0008 FFF7FEFF 		bl	UART_UartPutString
 322:.\src/waterControl.c ****     return 1;
 3261              		.loc 1 322 0
 3262 000c 0123     		mov	r3, #1
 323:.\src/waterControl.c **** }
 3263              		.loc 1 323 0
 3264 000e 181C     		mov	r0, r3
 3265 0010 BD46     		mov	sp, r7
 3266              		@ sp needed
 3267 0012 80BD     		pop	{r7, pc}
 3268              	.L248:
 3269              		.align	2
 3270              	.L247:
 3271 0014 4C010000 		.word	.LC89
 3272              		.cfi_endproc
 3273              	.LFE105:
 3274              		.size	fsmIfaceWaterControl_getCurrentVolume, .-fsmIfaceWaterControl_getCurrentVolume
 3275              		.section	.text.fsmIfaceWaterControl_getMaxVolume,"ax",%progbits
ARM GAS  C:\Users\SDEVAS~1\AppData\Local\Temp\ccOTp3Ub.s 			page 65


 3276              		.align	2
 3277              		.global	fsmIfaceWaterControl_getMaxVolume
 3278              		.code	16
 3279              		.thumb_func
 3280              		.type	fsmIfaceWaterControl_getMaxVolume, %function
 3281              	fsmIfaceWaterControl_getMaxVolume:
 3282              	.LFB106:
 324:.\src/waterControl.c **** 
 325:.\src/waterControl.c **** sc_integer fsmIfaceWaterControl_getMaxVolume(){
 3283              		.loc 1 325 0
 3284              		.cfi_startproc
 3285 0000 80B5     		push	{r7, lr}
 3286              		.cfi_def_cfa_offset 8
 3287              		.cfi_offset 7, -8
 3288              		.cfi_offset 14, -4
 3289 0002 00AF     		add	r7, sp, #0
 3290              		.cfi_def_cfa_register 7
 326:.\src/waterControl.c ****     //return opVals[getTime().hours][3];
 327:.\src/waterControl.c ****     return 1000;
 3291              		.loc 1 327 0
 3292 0004 FA23     		mov	r3, #250
 3293 0006 9B00     		lsl	r3, r3, #2
 328:.\src/waterControl.c **** }    
 3294              		.loc 1 328 0
 3295 0008 181C     		mov	r0, r3
 3296 000a BD46     		mov	sp, r7
 3297              		@ sp needed
 3298 000c 80BD     		pop	{r7, pc}
 3299              		.cfi_endproc
 3300              	.LFE106:
 3301              		.size	fsmIfaceWaterControl_getMaxVolume, .-fsmIfaceWaterControl_getMaxVolume
 3302 000e C046     		.section	.rodata
 3303 015a 0000     		.align	2
 3304              	.LC91:
 3305 015c 76616C76 		.ascii	"valveOn\015\012\000"
 3305      654F6E0D 
 3305      0A00
 3306              		.section	.text.fsmIfaceWaterControl_valveOn,"ax",%progbits
 3307              		.align	2
 3308              		.global	fsmIfaceWaterControl_valveOn
 3309              		.code	16
 3310              		.thumb_func
 3311              		.type	fsmIfaceWaterControl_valveOn, %function
 3312              	fsmIfaceWaterControl_valveOn:
 3313              	.LFB107:
 329:.\src/waterControl.c **** void fsmIfaceWaterControl_valveOn(){
 3314              		.loc 1 329 0
 3315              		.cfi_startproc
 3316 0000 80B5     		push	{r7, lr}
 3317              		.cfi_def_cfa_offset 8
 3318              		.cfi_offset 7, -8
 3319              		.cfi_offset 14, -4
 3320 0002 00AF     		add	r7, sp, #0
 3321              		.cfi_def_cfa_register 7
 330:.\src/waterControl.c ****     //TODO
 331:.\src/waterControl.c ****     //switch valve on
 332:.\src/waterControl.c **** 	UART_UartPutString("valveOn\r\n");
ARM GAS  C:\Users\SDEVAS~1\AppData\Local\Temp\ccOTp3Ub.s 			page 66


 3322              		.loc 1 332 0
 3323 0004 024B     		ldr	r3, .L252
 3324 0006 181C     		mov	r0, r3
 3325 0008 FFF7FEFF 		bl	UART_UartPutString
 333:.\src/waterControl.c **** }
 3326              		.loc 1 333 0
 3327 000c BD46     		mov	sp, r7
 3328              		@ sp needed
 3329 000e 80BD     		pop	{r7, pc}
 3330              	.L253:
 3331              		.align	2
 3332              	.L252:
 3333 0010 5C010000 		.word	.LC91
 3334              		.cfi_endproc
 3335              	.LFE107:
 3336              		.size	fsmIfaceWaterControl_valveOn, .-fsmIfaceWaterControl_valveOn
 3337              		.section	.rodata
 3338 0166 0000     		.align	2
 3339              	.LC93:
 3340 0168 76616C76 		.ascii	"valveOff\015\012\000"
 3340      654F6666 
 3340      0D0A00
 3341              		.section	.text.fsmIfaceWaterControl_valveOff,"ax",%progbits
 3342              		.align	2
 3343              		.global	fsmIfaceWaterControl_valveOff
 3344              		.code	16
 3345              		.thumb_func
 3346              		.type	fsmIfaceWaterControl_valveOff, %function
 3347              	fsmIfaceWaterControl_valveOff:
 3348              	.LFB108:
 334:.\src/waterControl.c **** 
 335:.\src/waterControl.c **** void fsmIfaceWaterControl_valveOff(){
 3349              		.loc 1 335 0
 3350              		.cfi_startproc
 3351 0000 80B5     		push	{r7, lr}
 3352              		.cfi_def_cfa_offset 8
 3353              		.cfi_offset 7, -8
 3354              		.cfi_offset 14, -4
 3355 0002 00AF     		add	r7, sp, #0
 3356              		.cfi_def_cfa_register 7
 336:.\src/waterControl.c ****     //TODO
 337:.\src/waterControl.c ****     //switch valve off
 338:.\src/waterControl.c ****     UART_UartPutString("valveOff\r\n");
 3357              		.loc 1 338 0
 3358 0004 044B     		ldr	r3, .L255
 3359 0006 181C     		mov	r0, r3
 3360 0008 FFF7FEFF 		bl	UART_UartPutString
 339:.\src/waterControl.c **** 	LED_Write(0u);
 3361              		.loc 1 339 0
 3362 000c 0020     		mov	r0, #0
 3363 000e FFF7FEFF 		bl	LED_Write
 340:.\src/waterControl.c **** }
 3364              		.loc 1 340 0
 3365 0012 BD46     		mov	sp, r7
 3366              		@ sp needed
 3367 0014 80BD     		pop	{r7, pc}
 3368              	.L256:
ARM GAS  C:\Users\SDEVAS~1\AppData\Local\Temp\ccOTp3Ub.s 			page 67


 3369 0016 C046     		.align	2
 3370              	.L255:
 3371 0018 68010000 		.word	.LC93
 3372              		.cfi_endproc
 3373              	.LFE108:
 3374              		.size	fsmIfaceWaterControl_valveOff, .-fsmIfaceWaterControl_valveOff
 3375              		.section	.rodata
 3376 0173 00       		.align	2
 3377              	.LC95:
 3378 0174 496E666F 		.ascii	"Info\000"
 3378      00
 3379 0179 000000   		.section	.text.fsmIfaceWaterControl_sendStats,"ax",%progbits
 3380              		.align	2
 3381              		.global	fsmIfaceWaterControl_sendStats
 3382              		.code	16
 3383              		.thumb_func
 3384              		.type	fsmIfaceWaterControl_sendStats, %function
 3385              	fsmIfaceWaterControl_sendStats:
 3386              	.LFB109:
 341:.\src/waterControl.c **** 
 342:.\src/waterControl.c **** void fsmIfaceWaterControl_sendStats(){
 3387              		.loc 1 342 0
 3388              		.cfi_startproc
 3389 0000 80B5     		push	{r7, lr}
 3390              		.cfi_def_cfa_offset 8
 3391              		.cfi_offset 7, -8
 3392              		.cfi_offset 14, -4
 3393 0002 00AF     		add	r7, sp, #0
 3394              		.cfi_def_cfa_register 7
 343:.\src/waterControl.c **** 	comm_ScheduleMessage("Info", 4, 'X', '0');
 3395              		.loc 1 343 0
 3396 0004 044B     		ldr	r3, .L258
 3397 0006 181C     		mov	r0, r3
 3398 0008 0421     		mov	r1, #4
 3399 000a 5822     		mov	r2, #88
 3400 000c 3023     		mov	r3, #48
 3401 000e FFF7FEFF 		bl	comm_ScheduleMessage
 344:.\src/waterControl.c **** }
 3402              		.loc 1 344 0
 3403 0012 BD46     		mov	sp, r7
 3404              		@ sp needed
 3405 0014 80BD     		pop	{r7, pc}
 3406              	.L259:
 3407 0016 C046     		.align	2
 3408              	.L258:
 3409 0018 74010000 		.word	.LC95
 3410              		.cfi_endproc
 3411              	.LFE109:
 3412              		.size	fsmIfaceWaterControl_sendStats, .-fsmIfaceWaterControl_sendStats
 3413              		.text
 3414              	.Letext0:
 3415              		.file 2 "c:\\program files (x86)\\cypress\\psoc creator\\3.2\\psoc creator\\import\\gnu\\arm\\4.8.
 3416              		.file 3 "c:\\program files (x86)\\cypress\\psoc creator\\3.2\\psoc creator\\import\\gnu\\arm\\4.8.
 3417              		.file 4 "Generated_Source\\PSoC4/cytypes.h"
 3418              		.file 5 "./src-fsm/sc_types.h"
 3419              		.file 6 ".\\src\\main.h"
 3420              		.file 7 "Generated_Source\\PSoC4/comm.h"
ARM GAS  C:\Users\SDEVAS~1\AppData\Local\Temp\ccOTp3Ub.s 			page 68

